 _ida_tryblks

 Timestamp is 5e3da0bd (Fri Feb  7 17:39:09 2020)

 Preferred load address is 0000000180000000

 Start         Length     Name                   Class
 0001:00000000 00012f50H .text$mn                CODE
 0001:00012f50 00000020H .text$mn$00             CODE
 0001:00012f70 000074f3H .text$x                 CODE
 0002:00000000 00000470H .idata$5                DATA
 0002:00000470 00000010H .00cfg                  DATA
 0002:00000480 00000008H .CRT$XCA                DATA
 0002:00000488 00000008H .CRT$XCZ                DATA
 0002:00000490 00000008H .CRT$XIA                DATA
 0002:00000498 00000008H .CRT$XIC                DATA
 0002:000004a0 00000008H .CRT$XIZ                DATA
 0002:000004a8 00000008H .CRT$XLA                DATA
 0002:000004b0 00000008H .CRT$XLZ                DATA
 0002:000004b8 00000008H .CRT$XPA                DATA
 0002:000004c0 00000008H .CRT$XPZ                DATA
 0002:000004c8 00000008H .CRT$XTA                DATA
 0002:000004d0 00000010H .CRT$XTZ                DATA
 0002:000004d8 00000000H .gfids$y                DATA
 0002:000004e0 00009040H .rdata                  DATA
 0002:00009520 00000028H .rdata$T                DATA
 0002:00009548 000001f4H .rdata$r                DATA
 0002:0000973c 00000314H .rdata$zzzdbg           DATA
 0002:00009a50 00000008H .rtc$IAA                DATA
 0002:00009a58 00000008H .rtc$IZZ                DATA
 0002:00009a60 00000008H .rtc$TAA                DATA
 0002:00009a68 00000008H .rtc$TZZ                DATA
 0002:00009a70 00000004H .tls                    DATA
 0002:00009a74 00000004H .tls$                   DATA
 0002:00009a78 00000008H .tls$ZZZ                DATA
 0002:00009a80 00005f68H .xdata                  DATA
 0002:0000f9e8 000000b8H .xdata$x                DATA
 0002:0000faa0 00000058H .edata                  DATA
 0002:0000faf8 000000b4H .idata$2                DATA
 0002:0000fbac 00000014H .idata$3                DATA
 0002:0000fbc0 00000470H .idata$4                DATA
 0002:00010030 00000b30H .idata$6                DATA
 0003:00000000 00003698H .data                   DATA
 0003:00003698 00000118H .data$r                 DATA
 0003:000037b0 00000938H .bss                    DATA
 0004:00000000 000029e8H .pdata                  DATA

  Address         Publics by Value              Rva+Base               Lib:Object

 0000:00000000       __guard_iat_table          0000000000000000     <absolute>
 0000:00000000       __hybrid_code_map          0000000000000000     <absolute>
 0000:00000000       __guard_longjmp_table      0000000000000000     <absolute>
 0000:00000000       __enclave_config           0000000000000000     <absolute>
 0000:00000000       __guard_longjmp_count      0000000000000000     <absolute>
 0000:00000000       __dynamic_value_reloc_table 0000000000000000     <absolute>
 0000:00000000       ___safe_se_handler_count   0000000000000000     <absolute>
 0000:00000000       __guard_iat_count          0000000000000000     <absolute>
 0000:00000000       __hybrid_code_map_count    0000000000000000     <absolute>
 0000:00000000       ___safe_se_handler_table   0000000000000000     <absolute>
 0000:00000000       __guard_fids_count         0000000000000000     <absolute>
 0000:00000000       __guard_fids_table         0000000000000000     <absolute>
 0000:00000000       __volatile_metadata        0000000000000000     <absolute>
 0000:00000000       __hybrid_auxiliary_iat     0000000000000000     <absolute>
 0000:00000100       __guard_flags              0000000000000100     <absolute>
 0000:00000000       __ImageBase                0000000180000000     <linker-defined>
 0001:0000bb30       ??0?$qvector@Ucatch_t@@@@QEAA@AEBV0@@Z 000000018000cb30 f i tryblks.obj
 0001:0000bc00       ??0exception@std@@QEAA@AEBV01@@Z 000000018000cc00 f i tryblks.obj
 0001:0000bc40       ??0logic_error@std@@QEAA@AEBV01@@Z 000000018000cc40 f i tryblks.obj
 0001:0000bc80       ??0out_of_range@std@@QEAA@AEBV01@@Z 000000018000cc80 f i tryblks.obj
 0001:0000bcc0       ??0out_of_range@std@@QEAA@PEBD@Z 000000018000ccc0 f i tryblks.obj
 0001:0000bd10       ??0rangevec_t@@QEAA@AEBU0@@Z 000000018000cd10 f i tryblks.obj
 0001:0000bda0       ??1catch_t@@QEAA@XZ        000000018000cda0 f i tryblks.obj
 0001:0000bde0       ??1out_of_range@std@@UEAA@XZ 000000018000cde0 f i tryblks.obj
 0001:0000be00       ??1tryblk_t@@QEAA@XZ       000000018000ce00 f i tryblks.obj
 0001:0000be40       ??4rangevec_t@@QEAAAEAU0@AEBU0@@Z 000000018000ce40 f i tryblks.obj
 0001:0000bf40       ??4tryblk_t@@QEAAAEAV0@AEBV0@@Z 000000018000cf40 f i tryblks.obj
 0001:0000c000       ??8?$qvector@Ucatch_t@@@@QEBA_NAEBV0@@Z 000000018000d000 f i tryblks.obj
 0001:0000c0a0       ??8?$qvector@Vtryblk_t@@@@QEBA_NAEBV0@@Z 000000018000d0a0 f i tryblks.obj
 0001:0000c140       ??_Elogic_error@std@@UEAAPEAXI@Z 000000018000d140 f i tryblks.obj
 0001:0000c140       ??_Eout_of_range@std@@UEAAPEAXI@Z 000000018000d140 f i tryblks.obj
 0001:0000c140       ??_Glogic_error@std@@UEAAPEAXI@Z 000000018000d140 f i tryblks.obj
 0001:0000c140       ??_Eexception@std@@UEAAPEAXI@Z 000000018000d140 f i tryblks.obj
 0001:0000c140       ??_Gexception@std@@UEAAPEAXI@Z 000000018000d140 f i tryblks.obj
 0001:0000c140       ??_Gout_of_range@std@@UEAAPEAXI@Z 000000018000d140 f i tryblks.obj
 0001:0000c190       ??_Gseh_t@@QEAAPEAXI@Z     000000018000d190 f i tryblks.obj
 0001:0000c5a0       ?__empty_global_delete@@YAXPEAX_K@Z 000000018000d5a0 f i tryblks.obj
 0001:0000c5a0       ?__global_delete@@YAXPEAX_K@Z 000000018000d5a0 f i tryblks.obj
 0001:0000c5a0       _guard_check_icall_nop     000000018000d5a0 f i MSVCRT:guard_support.obj
 0001:0000c640       ?clear@seh_t@@QEAAXXZ      000000018000d640 f i tryblks.obj
 0001:0000c6c0       ?clear@tryblk_t@@QEAAXXZ   000000018000d6c0 f i tryblks.obj
 0001:0000c740       ?erase@?$qvector@Ucatch_t@@@@QEAAPEAUcatch_t@@PEAU2@@Z 000000018000d740 f i tryblks.obj
 0001:0000c7d0       ?erase@?$qvector@Vtryblk_t@@@@QEAAPEAVtryblk_t@@PEAV2@@Z 000000018000d7d0 f i tryblks.obj
 0001:0000c870       ?find@?$qvector@Ucatch_t@@@@QEAAPEAUcatch_t@@AEBU2@@Z 000000018000d870 f i tryblks.obj
 0001:0000c870       ?find@?$qvector@Ucatch_t@@@@QEBAPEBUcatch_t@@AEBU2@@Z 000000018000d870 f i tryblks.obj
 0001:0000c8f0       ?find@?$qvector@Vtryblk_t@@@@QEAAPEAVtryblk_t@@AEBV2@@Z 000000018000d8f0 f i tryblks.obj
 0001:0000c8f0       ?find@?$qvector@Vtryblk_t@@@@QEBAPEBVtryblk_t@@AEBV2@@Z 000000018000d8f0 f i tryblks.obj
 0001:0000c970       ?push_back@?$qvector@Ucatch_t@@@@QEAAXAEBUcatch_t@@@Z 000000018000d970 f i tryblks.obj
 0001:0000ca20       ?push_back@?$qvector@Vtryblk_t@@@@QEAAXAEBVtryblk_t@@@Z 000000018000da20 f i tryblks.obj
 0001:0000cab0       ?qclear@?$qvector@Ucatch_t@@@@QEAAXXZ 000000018000dab0 f i tryblks.obj
 0001:0000cb30       ?qclear@?$qvector@Vtryblk_t@@@@QEAAXXZ 000000018000db30 f i tryblks.obj
 0001:0000cbb0       ?resize@?$qvector@Ucatch_t@@@@QEAAX_KAEBUcatch_t@@@Z 000000018000dbb0 f i tryblks.obj
 0001:0000cce0       ?resize@?$qvector@Vtryblk_t@@@@QEAAX_KAEBVtryblk_t@@@Z 000000018000dce0 f i tryblks.obj
 0001:0000ce00       ?sprnt@?$_qstring@D@@QEAAAEAV1@PEBDZZ 000000018000de00 f i tryblks.obj
 0001:0000cec0       ?what@exception@std@@UEBAPEBDXZ 000000018000dec0 f i tryblks.obj
 0001:0000cee0       PyInit__ida_tryblks        000000018000dee0 f   tryblks.obj
 0001:0000e710       __local_stdio_printf_options 000000018000f710 f i tryblks.obj
 0001:00011c40       printf                     0000000180012c40 f i tryblks.obj
 0001:00011c95       qrealloc                   0000000180012c95 f   ida:ida.dll
 0001:00011c9b       qfree                      0000000180012c9b f   ida:ida.dll
 0001:00011ca1       qvsnprintf                 0000000180012ca1 f   ida:ida.dll
 0001:00011ca7       qalloc_or_throw            0000000180012ca7 f   ida:ida.dll
 0001:00011cad       qvector_reserve            0000000180012cad f   ida:ida.dll
 0001:00011cb3       is_main_thread             0000000180012cb3 f   ida:ida.dll
 0001:00011cb9       get_tryblks                0000000180012cb9 f   ida:ida.dll
 0001:00011cbf       del_tryblks                0000000180012cbf f   ida:ida.dll
 0001:00011cc5       add_tryblk                 0000000180012cc5 f   ida:ida.dll
 0001:00011ccb       find_syseh                 0000000180012ccb f   ida:ida.dll
 0001:00011cd1       PyW_GetNumber              0000000180012cd1 f   python:python.dll
 0001:00011cd8       ??3@YAXPEAX_K@Z            0000000180012cd8 f   MSVCRT:delete_scalar_size.obj
 0001:00011e68       _Init_thread_footer        0000000180012e68 f   MSVCRT:thread_safe_statics.obj
 0001:00011ec8       _Init_thread_header        0000000180012ec8 f   MSVCRT:thread_safe_statics.obj
 0001:00011f30       _Init_thread_notify        0000000180012f30 f   MSVCRT:thread_safe_statics.obj
 0001:00011f80       _Init_thread_wait          0000000180012f80 f   MSVCRT:thread_safe_statics.obj
 0001:00011ff8       __GSHandlerCheck           0000000180012ff8 f   MSVCRT:gshandler.obj
 0001:00012018       __GSHandlerCheckCommon     0000000180013018 f   MSVCRT:gshandler.obj
 0001:00012074       __GSHandlerCheck_EH        0000000180013074 f   MSVCRT:gshandlereh.obj
 0001:00012110       __security_check_cookie    0000000180013110 f   MSVCRT:amdsecgs.obj
 0001:00012134       ??_Gtype_info@@UEAAPEAXI@Z 0000000180013134 f i MSVCRT:std_type_info_static.obj
 0001:00012134       ??_Etype_info@@UEAAPEAXI@Z 0000000180013134 f i MSVCRT:std_type_info_static.obj
 0001:00012490       _DllMainCRTStartup         0000000180013490 f   MSVCRT:dll_dllmain.obj
 0001:000124d0       ??3@YAXPEAX@Z              00000001800134d0 f   MSVCRT:delete_scalar.obj
 0001:000124d8       __scrt_acquire_startup_lock 00000001800134d8 f   MSVCRT:utility.obj
 0001:00012514       __scrt_dllmain_after_initialize_c 0000000180013514 f   MSVCRT:utility.obj
 0001:00012548       __scrt_dllmain_before_initialize_c 0000000180013548 f   MSVCRT:utility.obj
 0001:00012560       __scrt_dllmain_crt_thread_attach 0000000180013560 f   MSVCRT:utility.obj
 0001:00012588       __scrt_dllmain_crt_thread_detach 0000000180013588 f   MSVCRT:utility.obj
 0001:000125a0       __scrt_dllmain_exception_filter 00000001800135a0 f   MSVCRT:utility.obj
 0001:00012600       __scrt_dllmain_uninitialize_c 0000000180013600 f   MSVCRT:utility.obj
 0001:00012630       __scrt_dllmain_uninitialize_critical 0000000180013630 f   MSVCRT:utility.obj
 0001:00012644       __scrt_initialize_crt      0000000180013644 f   MSVCRT:utility.obj
 0001:00012690       __scrt_initialize_onexit_tables 0000000180013690 f   MSVCRT:utility.obj
 0001:00012768       __scrt_is_nonwritable_in_current_image 0000000180013768 f   MSVCRT:utility.obj
 0001:00012804       __scrt_release_startup_lock 0000000180013804 f   MSVCRT:utility.obj
 0001:00012828       __scrt_uninitialize_crt    0000000180013828 f   MSVCRT:utility.obj
 0001:00012854       _onexit                    0000000180013854 f   MSVCRT:utility.obj
 0001:000128a4       atexit                     00000001800138a4 f   MSVCRT:utility.obj
 0001:000128bc       __crt_debugger_hook        00000001800138bc f   MSVCRT:utility_desktop.obj
 0001:000128c4       __scrt_fastfail            00000001800138c4 f   MSVCRT:utility_desktop.obj
 0001:00012a10       __raise_securityfailure    0000000180013a10 f   MSVCRT:gs_report.obj
 0001:00012a44       __report_gsfailure         0000000180013a44 f   MSVCRT:gs_report.obj
 0001:00012b8c       __security_init_cookie     0000000180013b8c f   MSVCRT:gs_support.obj
 0001:00012c38       DllMain                    0000000180013c38 f   MSVCRT:dll_dllmain_stub.obj
 0001:00012c5c       ?__scrt_initialize_type_info@@YAXXZ 0000000180013c5c f   MSVCRT:tncleanup.obj
 0001:00012c6c       ?__scrt_uninitialize_type_info@@YAXXZ 0000000180013c6c f   MSVCRT:tncleanup.obj
 0001:00012c78       __local_stdio_scanf_options 0000000180013c78 f i MSVCRT:default_local_stdio_options.obj
 0001:00012c80       __scrt_initialize_default_local_stdio_options 0000000180013c80 f   MSVCRT:default_local_stdio_options.obj
 0001:00012c9c       __scrt_get_dyn_tls_init_callback 0000000180013c9c f   MSVCRT:dyn_tls_init.obj
 0001:00012ca4       _RTC_Initialize            0000000180013ca4 f   MSVCRT:initsect.obj
 0001:00012ce0       _RTC_Terminate             0000000180013ce0 f   MSVCRT:initsect.obj
 0001:00012d1c       __isa_available_init       0000000180013d1c f   MSVCRT:cpu_disp.obj
 0001:00012e98       _get_startup_argv_mode     0000000180013e98 f   MSVCRT:argv_mode.obj
 0001:00012ea0       __scrt_is_ucrt_dll_in_use  0000000180013ea0 f   MSVCRT:ucrt_detection.obj
 0001:00012eb0       IsProcessorFeaturePresent  0000000180013eb0 f   kernel32:KERNEL32.dll
 0001:00012eb6       strstr                     0000000180013eb6 f   vcruntime:VCRUNTIME140.dll
 0001:00012ebc       __std_exception_copy       0000000180013ebc f   vcruntime:VCRUNTIME140.dll
 0001:00012ec2       __std_exception_destroy    0000000180013ec2 f   vcruntime:VCRUNTIME140.dll
 0001:00012ec8       _CxxThrowException         0000000180013ec8 f   vcruntime:VCRUNTIME140.dll
 0001:00012ece       __CxxFrameHandler3         0000000180013ece f   vcruntime:VCRUNTIME140.dll
 0001:00012ed4       memcpy                     0000000180013ed4 f   vcruntime:VCRUNTIME140.dll
 0001:00012eda       memmove                    0000000180013eda f   vcruntime:VCRUNTIME140.dll
 0001:00012ee0       memset                     0000000180013ee0 f   vcruntime:VCRUNTIME140.dll
 0001:00012ee6       __std_terminate            0000000180013ee6 f   vcruntime:VCRUNTIME140.dll
 0001:00012eec       __C_specific_handler       0000000180013eec f   vcruntime:VCRUNTIME140.dll
 0001:00012ef2       __std_type_info_destroy_list 0000000180013ef2 f   vcruntime:VCRUNTIME140.dll
 0001:00012ef8       free                       0000000180013ef8 f   ucrt:api-ms-win-crt-heap-l1-1-0.dll
 0001:00012efe       _initterm                  0000000180013efe f   ucrt:api-ms-win-crt-runtime-l1-1-0.dll
 0001:00012f04       _initterm_e                0000000180013f04 f   ucrt:api-ms-win-crt-runtime-l1-1-0.dll
 0001:00012f0a       _seh_filter_dll            0000000180013f0a f   ucrt:api-ms-win-crt-runtime-l1-1-0.dll
 0001:00012f10       _configure_narrow_argv     0000000180013f10 f   ucrt:api-ms-win-crt-runtime-l1-1-0.dll
 0001:00012f16       _initialize_narrow_environment 0000000180013f16 f   ucrt:api-ms-win-crt-runtime-l1-1-0.dll
 0001:00012f1c       _initialize_onexit_table   0000000180013f1c f   ucrt:api-ms-win-crt-runtime-l1-1-0.dll
 0001:00012f22       _register_onexit_function  0000000180013f22 f   ucrt:api-ms-win-crt-runtime-l1-1-0.dll
 0001:00012f28       _execute_onexit_table      0000000180013f28 f   ucrt:api-ms-win-crt-runtime-l1-1-0.dll
 0001:00012f2e       _crt_atexit                0000000180013f2e f   ucrt:api-ms-win-crt-runtime-l1-1-0.dll
 0001:00012f34       _cexit                     0000000180013f34 f   ucrt:api-ms-win-crt-runtime-l1-1-0.dll
 0001:00012f3c       __scrt_stub_for_acrt_thread_attach 0000000180013f3c f   MSVCRT:ucrt_stubs.obj
 0001:00012f3c       __acrt_uninitialize_critical 0000000180013f3c f   MSVCRT:ucrt_stubs.obj
 0001:00012f3c       __scrt_stub_for_acrt_thread_detach 0000000180013f3c f   MSVCRT:ucrt_stubs.obj
 0001:00012f3c       __vcrt_thread_attach       0000000180013f3c f   MSVCRT:ucrt_stubs.obj
 0001:00012f3c       __vcrt_initialize          0000000180013f3c f   MSVCRT:ucrt_stubs.obj
 0001:00012f3c       __scrt_stub_for_acrt_uninitialize 0000000180013f3c f   MSVCRT:ucrt_stubs.obj
 0001:00012f3c       __acrt_initialize          0000000180013f3c f   MSVCRT:ucrt_stubs.obj
 0001:00012f3c       __acrt_thread_detach       0000000180013f3c f   MSVCRT:ucrt_stubs.obj
 0001:00012f3c       __vcrt_uninitialize_critical 0000000180013f3c f   MSVCRT:ucrt_stubs.obj
 0001:00012f3c       __scrt_stub_for_acrt_initialize 0000000180013f3c f   MSVCRT:ucrt_stubs.obj
 0001:00012f3c       __scrt_stub_for_acrt_uninitialize_critical 0000000180013f3c f   MSVCRT:ucrt_stubs.obj
 0001:00012f3c       __vcrt_uninitialize        0000000180013f3c f   MSVCRT:ucrt_stubs.obj
 0001:00012f3c       __acrt_thread_attach       0000000180013f3c f   MSVCRT:ucrt_stubs.obj
 0001:00012f3c       __acrt_uninitialize        0000000180013f3c f   MSVCRT:ucrt_stubs.obj
 0001:00012f3c       __vcrt_thread_detach       0000000180013f3c f   MSVCRT:ucrt_stubs.obj
 0001:00012f40       __scrt_stub_for_is_c_termination_complete 0000000180013f40 f   MSVCRT:ucrt_stubs.obj
 0001:00012f40       _is_c_termination_complete 0000000180013f40 f   MSVCRT:ucrt_stubs.obj
 0001:00012f60       _guard_dispatch_icall_nop  0000000180013f60 f   MSVCRT:guard_dispatch.obj
 0002:00000000       __imp_CloseHandle          000000018001c000     kernel32:KERNEL32.dll
 0002:00000008       __imp_EnterCriticalSection 000000018001c008     kernel32:KERNEL32.dll
 0002:00000010       __imp_LeaveCriticalSection 000000018001c010     kernel32:KERNEL32.dll
 0002:00000018       __imp_InitializeCriticalSectionAndSpinCount 000000018001c018     kernel32:KERNEL32.dll
 0002:00000020       __imp_DeleteCriticalSection 000000018001c020     kernel32:KERNEL32.dll
 0002:00000028       __imp_SetEvent             000000018001c028     kernel32:KERNEL32.dll
 0002:00000030       __imp_ResetEvent           000000018001c030     kernel32:KERNEL32.dll
 0002:00000038       __imp_WaitForSingleObjectEx 000000018001c038     kernel32:KERNEL32.dll
 0002:00000040       __imp_CreateEventW         000000018001c040     kernel32:KERNEL32.dll
 0002:00000048       __imp_GetModuleHandleW     000000018001c048     kernel32:KERNEL32.dll
 0002:00000050       __imp_GetProcAddress       000000018001c050     kernel32:KERNEL32.dll
 0002:00000058       __imp_RtlCaptureContext    000000018001c058     kernel32:KERNEL32.dll
 0002:00000060       __imp_RtlLookupFunctionEntry 000000018001c060     kernel32:KERNEL32.dll
 0002:00000068       __imp_RtlVirtualUnwind     000000018001c068     kernel32:KERNEL32.dll
 0002:00000070       __imp_IsDebuggerPresent    000000018001c070     kernel32:KERNEL32.dll
 0002:00000078       __imp_UnhandledExceptionFilter 000000018001c078     kernel32:KERNEL32.dll
 0002:00000080       __imp_SetUnhandledExceptionFilter 000000018001c080     kernel32:KERNEL32.dll
 0002:00000088       __imp_IsProcessorFeaturePresent 000000018001c088     kernel32:KERNEL32.dll
 0002:00000090       __imp_GetCurrentProcess    000000018001c090     kernel32:KERNEL32.dll
 0002:00000098       __imp_TerminateProcess     000000018001c098     kernel32:KERNEL32.dll
 0002:000000a0       __imp_QueryPerformanceCounter 000000018001c0a0     kernel32:KERNEL32.dll
 0002:000000a8       __imp_GetCurrentProcessId  000000018001c0a8     kernel32:KERNEL32.dll
 0002:000000b0       __imp_GetCurrentThreadId   000000018001c0b0     kernel32:KERNEL32.dll
 0002:000000b8       __imp_GetSystemTimeAsFileTime 000000018001c0b8     kernel32:KERNEL32.dll
 0002:000000c0       __imp_DisableThreadLibraryCalls 000000018001c0c0     kernel32:KERNEL32.dll
 0002:000000c8       __imp_InitializeSListHead  000000018001c0c8     kernel32:KERNEL32.dll
 0002:000000d0       \177KERNEL32_NULL_THUNK_DATA 000000018001c0d0     kernel32:KERNEL32.dll
 0002:000000d8       __imp_strstr               000000018001c0d8     vcruntime:VCRUNTIME140.dll
 0002:000000e0       __imp___std_exception_copy 000000018001c0e0     vcruntime:VCRUNTIME140.dll
 0002:000000e8       __imp___std_exception_destroy 000000018001c0e8     vcruntime:VCRUNTIME140.dll
 0002:000000f0       __imp__CxxThrowException   000000018001c0f0     vcruntime:VCRUNTIME140.dll
 0002:000000f8       __imp___std_type_info_destroy_list 000000018001c0f8     vcruntime:VCRUNTIME140.dll
 0002:00000100       __imp___C_specific_handler 000000018001c100     vcruntime:VCRUNTIME140.dll
 0002:00000108       __imp___std_terminate      000000018001c108     vcruntime:VCRUNTIME140.dll
 0002:00000110       __imp_memset               000000018001c110     vcruntime:VCRUNTIME140.dll
 0002:00000118       __imp_memmove              000000018001c118     vcruntime:VCRUNTIME140.dll
 0002:00000120       __imp_memcpy               000000018001c120     vcruntime:VCRUNTIME140.dll
 0002:00000128       __imp___CxxFrameHandler3   000000018001c128     vcruntime:VCRUNTIME140.dll
 0002:00000130       \177VCRUNTIME140_NULL_THUNK_DATA 000000018001c130     vcruntime:VCRUNTIME140.dll
 0002:00000138       __imp_malloc               000000018001c138     ucrt:api-ms-win-crt-heap-l1-1-0.dll
 0002:00000140       __imp_free                 000000018001c140     ucrt:api-ms-win-crt-heap-l1-1-0.dll
 0002:00000148       \177api-ms-win-crt-heap-l1-1-0_NULL_THUNK_DATA 000000018001c148     ucrt:api-ms-win-crt-heap-l1-1-0.dll
 0002:00000150       __imp__cexit               000000018001c150     ucrt:api-ms-win-crt-runtime-l1-1-0.dll
 0002:00000158       __imp__initterm            000000018001c158     ucrt:api-ms-win-crt-runtime-l1-1-0.dll
 0002:00000160       __imp__initterm_e          000000018001c160     ucrt:api-ms-win-crt-runtime-l1-1-0.dll
 0002:00000168       __imp__seh_filter_dll      000000018001c168     ucrt:api-ms-win-crt-runtime-l1-1-0.dll
 0002:00000170       __imp__configure_narrow_argv 000000018001c170     ucrt:api-ms-win-crt-runtime-l1-1-0.dll
 0002:00000178       __imp__initialize_narrow_environment 000000018001c178     ucrt:api-ms-win-crt-runtime-l1-1-0.dll
 0002:00000180       __imp__initialize_onexit_table 000000018001c180     ucrt:api-ms-win-crt-runtime-l1-1-0.dll
 0002:00000188       __imp__register_onexit_function 000000018001c188     ucrt:api-ms-win-crt-runtime-l1-1-0.dll
 0002:00000190       __imp__execute_onexit_table 000000018001c190     ucrt:api-ms-win-crt-runtime-l1-1-0.dll
 0002:00000198       __imp__crt_atexit          000000018001c198     ucrt:api-ms-win-crt-runtime-l1-1-0.dll
 0002:000001a0       \177api-ms-win-crt-runtime-l1-1-0_NULL_THUNK_DATA 000000018001c1a0     ucrt:api-ms-win-crt-runtime-l1-1-0.dll
 0002:000001a8       __imp___stdio_common_vfprintf 000000018001c1a8     ucrt:api-ms-win-crt-stdio-l1-1-0.dll
 0002:000001b0       __imp___acrt_iob_func      000000018001c1b0     ucrt:api-ms-win-crt-stdio-l1-1-0.dll
 0002:000001b8       \177api-ms-win-crt-stdio-l1-1-0_NULL_THUNK_DATA 000000018001c1b8     ucrt:api-ms-win-crt-stdio-l1-1-0.dll
 0002:000001c0       __imp_strncmp              000000018001c1c0     ucrt:api-ms-win-crt-string-l1-1-0.dll
 0002:000001c8       \177api-ms-win-crt-string-l1-1-0_NULL_THUNK_DATA 000000018001c1c8     ucrt:api-ms-win-crt-string-l1-1-0.dll
 0002:000001d0       __imp_add_tryblk           000000018001c1d0     ida:ida.dll
 0002:000001d8       __imp_find_syseh           000000018001c1d8     ida:ida.dll
 0002:000001e0       __imp_get_tryblks          000000018001c1e0     ida:ida.dll
 0002:000001e8       __imp_is_main_thread       000000018001c1e8     ida:ida.dll
 0002:000001f0       __imp_qvector_reserve      000000018001c1f0     ida:ida.dll
 0002:000001f8       __imp_qalloc_or_throw      000000018001c1f8     ida:ida.dll
 0002:00000200       __imp_qvsnprintf           000000018001c200     ida:ida.dll
 0002:00000208       __imp_qfree                000000018001c208     ida:ida.dll
 0002:00000210       __imp_del_tryblks          000000018001c210     ida:ida.dll
 0002:00000218       __imp_qrealloc             000000018001c218     ida:ida.dll
 0002:00000220       \177ida_NULL_THUNK_DATA    000000018001c220     ida:ida.dll
 0002:00000228       __imp_PyW_GetNumber        000000018001c228     python:python.dll
 0002:00000230       \177python_NULL_THUNK_DATA 000000018001c230     python:python.dll
 0002:00000238       __imp_PyExc_RuntimeError   000000018001c238     python38:python38.dll
 0002:00000240       __imp_PyExc_SyntaxError    000000018001c240     python38:python38.dll
 0002:00000248       __imp_PyExc_SystemError    000000018001c248     python38:python38.dll
 0002:00000250       __imp_PyExc_OverflowError  000000018001c250     python38:python38.dll
 0002:00000258       __imp_PyExc_ValueError     000000018001c258     python38:python38.dll
 0002:00000260       __imp_PyExc_ZeroDivisionError 000000018001c260     python38:python38.dll
 0002:00000268       __imp_PyExc_IOError        000000018001c268     python38:python38.dll
 0002:00000270       __imp_PyExc_AttributeError 000000018001c270     python38:python38.dll
 0002:00000278       __imp_PyExc_TypeError      000000018001c278     python38:python38.dll
 0002:00000280       __imp_PyExc_IndexError     000000018001c280     python38:python38.dll
 0002:00000288       __imp__Py_NotImplementedStruct 000000018001c288     python38:python38.dll
 0002:00000290       __imp__Py_NoneStruct       000000018001c290     python38:python38.dll
 0002:00000298       __imp_PyType_Type          000000018001c298     python38:python38.dll
 0002:000002a0       __imp_PyObject_IsInstance  000000018001c2a0     python38:python38.dll
 0002:000002a8       __imp_PyObject_CallFunctionObjArgs 000000018001c2a8     python38:python38.dll
 0002:000002b0       __imp_PyObject_Call        000000018001c2b0     python38:python38.dll
 0002:000002b8       __imp_PyImport_AddModule   000000018001c2b8     python38:python38.dll
 0002:000002c0       __imp_PyEval_InitThreads   000000018001c2c0     python38:python38.dll
 0002:000002c8       __imp_PyModule_Create2     000000018001c2c8     python38:python38.dll
 0002:000002d0       __imp_PyModule_AddObject   000000018001c2d0     python38:python38.dll
 0002:000002d8       __imp_PyArg_UnpackTuple    000000018001c2d8     python38:python38.dll
 0002:000002e0       __imp_PyGILState_Release   000000018001c2e0     python38:python38.dll
 0002:000002e8       __imp_PyGILState_Ensure    000000018001c2e8     python38:python38.dll
 0002:000002f0       __imp_PyErr_WriteUnraisable 000000018001c2f0     python38:python38.dll
 0002:000002f8       __imp_PyErr_Format         000000018001c2f8     python38:python38.dll
 0002:00000300       __imp_PyErr_GivenExceptionMatches 000000018001c300     python38:python38.dll
 0002:00000308       __imp_PyErr_Restore        000000018001c308     python38:python38.dll
 0002:00000310       __imp_PyErr_Fetch          000000018001c310     python38:python38.dll
 0002:00000318       __imp_PyErr_Clear          000000018001c318     python38:python38.dll
 0002:00000320       __imp_PyErr_Occurred       000000018001c320     python38:python38.dll
 0002:00000328       __imp_PyErr_SetString      000000018001c328     python38:python38.dll
 0002:00000330       __imp_PyCapsule_Import     000000018001c330     python38:python38.dll
 0002:00000338       __imp_PyCapsule_GetPointer 000000018001c338     python38:python38.dll
 0002:00000340       __imp_PyCapsule_New        000000018001c340     python38:python38.dll
 0002:00000348       __imp_PyModule_GetDict     000000018001c348     python38:python38.dll
 0002:00000350       __imp_PyCFunction_GetFlags 000000018001c350     python38:python38.dll
 0002:00000358       __imp_PyCFunction_GetSelf  000000018001c358     python38:python38.dll
 0002:00000360       __imp_PyCFunction_GetFunction 000000018001c360     python38:python38.dll
 0002:00000368       __imp_PyDict_SetItemString 000000018001c368     python38:python38.dll
 0002:00000370       __imp_PyDict_SetItem       000000018001c370     python38:python38.dll
 0002:00000378       __imp_PyDict_New           000000018001c378     python38:python38.dll
 0002:00000380       __imp_PyTuple_SetItem      000000018001c380     python38:python38.dll
 0002:00000388       __imp_PyTuple_GetItem      000000018001c388     python38:python38.dll
 0002:00000390       __imp_PyTuple_Size         000000018001c390     python38:python38.dll
 0002:00000398       __imp_PyTuple_New          000000018001c398     python38:python38.dll
 0002:000003a0       __imp_PyBool_FromLong      000000018001c3a0     python38:python38.dll
 0002:000003a8       __imp_PyLong_AsUnsignedLongLong 000000018001c3a8     python38:python38.dll
 0002:000003b0       __imp_PyLong_FromUnsignedLongLong 000000018001c3b0     python38:python38.dll
 0002:000003b8       __imp_PyLong_FromVoidPtr   000000018001c3b8     python38:python38.dll
 0002:000003c0       __imp_PyLong_AsUnsignedLong 000000018001c3c0     python38:python38.dll
 0002:000003c8       __imp_PyLong_AsLong        000000018001c3c8     python38:python38.dll
 0002:000003d0       __imp_PyLong_FromLong      000000018001c3d0     python38:python38.dll
 0002:000003d8       __imp_PyUnicode_CompareWithASCIIString 000000018001c3d8     python38:python38.dll
 0002:000003e0       __imp_PyUnicode_Concat     000000018001c3e0     python38:python38.dll
 0002:000003e8       __imp_PyUnicode_FromFormat 000000018001c3e8     python38:python38.dll
 0002:000003f0       __imp_PyUnicode_FromString 000000018001c3f0     python38:python38.dll
 0002:000003f8       __imp__PyObject_New        000000018001c3f8     python38:python38.dll
 0002:00000400       __imp_PyObject_Free        000000018001c400     python38:python38.dll
 0002:00000408       __imp_Py_DecRef            000000018001c408     python38:python38.dll
 0002:00000410       __imp__Py_Dealloc          000000018001c410     python38:python38.dll
 0002:00000418       __imp_PyObject_IsTrue      000000018001c418     python38:python38.dll
 0002:00000420       __imp_PyObject_GenericGetAttr 000000018001c420     python38:python38.dll
 0002:00000428       __imp_PyObject_SetAttr     000000018001c428     python38:python38.dll
 0002:00000430       __imp_PyObject_GetAttr     000000018001c430     python38:python38.dll
 0002:00000438       __imp_PyObject_GetAttrString 000000018001c438     python38:python38.dll
 0002:00000440       __imp_PyType_Modified      000000018001c440     python38:python38.dll
 0002:00000448       __imp_PyType_GetFlags      000000018001c448     python38:python38.dll
 0002:00000450       __imp_PyType_GetSlot       000000018001c450     python38:python38.dll
 0002:00000458       __imp_PyType_FromSpec      000000018001c458     python38:python38.dll
 0002:00000460       __imp_PyExc_MemoryError    000000018001c460     python38:python38.dll
 0002:00000468       \177python38_NULL_THUNK_DATA 000000018001c468     python38:python38.dll
 0002:00000470       __guard_check_icall_fptr   000000018001c470     MSVCRT:guard_support.obj
 0002:00000478       __guard_dispatch_icall_fptr 000000018001c478     MSVCRT:guard_support.obj
 0002:00000480       __xc_a                     000000018001c480     MSVCRT:initializers.obj
 0002:00000488       __xc_z                     000000018001c488     MSVCRT:initializers.obj
 0002:00000490       __xi_a                     000000018001c490     MSVCRT:initializers.obj
 0002:000004a0       __xi_z                     000000018001c4a0     MSVCRT:initializers.obj
 0002:000004a8       __xl_a                     000000018001c4a8     MSVCRT:tlssup.obj
 0002:000004b0       __xl_z                     000000018001c4b0     MSVCRT:tlssup.obj
 0002:000004b8       __xp_a                     000000018001c4b8     MSVCRT:initializers.obj
 0002:000004c0       __xp_z                     000000018001c4c0     MSVCRT:initializers.obj
 0002:000004c8       __xt_a                     000000018001c4c8     MSVCRT:initializers.obj
 0002:000004d0       __xt_z                     000000018001c4d0     MSVCRT:initializers.obj
 0002:000004e0       ??_C@_0BF@INGABOFG@catchvec_t_push_back@ 000000018001c4e0     tryblks.obj
 0002:000004f8       ??_C@_0O@OAJJJNOD@catchvec_t_at@ 000000018001c4f8     tryblks.obj
 0002:00000508       ??_C@_0BC@BGIEBBMB@catchvec_t_resize@ 000000018001c508     tryblks.obj
 0002:00000520       ??_C@_0BA@HCDDGGBP@catchvec_t_grow@ 000000018001c520     tryblks.obj
 0002:00000530       ??_C@_0BD@OKNLDBBC@catchvec_t_reserve@ 000000018001c530     tryblks.obj
 0002:00000548       ??_C@_0BA@JFFCBMKC@catchvec_t_swap@ 000000018001c548     tryblks.obj
 0002:00000558       ??_C@_0BC@HOJCNIJC@catchvec_t_inject@ 000000018001c558     tryblks.obj
 0002:00000570       ??_C@_0BC@HMCNCKHG@catchvec_t___eq__@ 000000018001c570     tryblks.obj
 0002:00000588       ??_C@_0BC@NEIGNLKP@catchvec_t___ne__@ 000000018001c588     tryblks.obj
 0002:000005a0       ??_C@_0BB@CHAFAEAO@catchvec_t_begin@ 000000018001c5a0     tryblks.obj
 0002:000005b8       ??_C@_0P@KGKBDFAN@catchvec_t_end@ 000000018001c5b8     tryblks.obj
 0002:000005c8       ??_C@_0BC@OIGOECG@catchvec_t_insert@ 000000018001c5c8     tryblks.obj
 0002:000005e0       ??_C@_0BB@DPOONPJF@catchvec_t_erase@ 000000018001c5e0     tryblks.obj
 0002:000005f8       ??_C@_0BA@KIGGLEJE@catchvec_t_find@ 000000018001c5f8     tryblks.obj
 0002:00000608       ??_C@_0P@FKBECOHL@catchvec_t_has@ 000000018001c608     tryblks.obj
 0002:00000618       ??_C@_0BG@LKGFHDDK@catchvec_t_add_unique@ 000000018001c618     tryblks.obj
 0002:00000630       ??_C@_0BA@DCLBNDFH@catchvec_t__del@ 000000018001c630     tryblks.obj
 0002:00000640       ??_C@_0BH@MCJKCEHG@catchvec_t___getitem__@ 000000018001c640     tryblks.obj
 0002:00000658       ??_C@_0BH@OMNPAFOE@catchvec_t___setitem__@ 000000018001c658     tryblks.obj
 0002:00000670       ??_C@_0BH@IDHAHEPN@try_handler_t_disp_set@ 000000018001c670     tryblks.obj
 0002:00000688       ??_C@_0BI@PBIIFDAG@try_handler_t_fpreg_set@ 000000018001c688     tryblks.obj
 0002:000006a0       ??_C@_0BC@JCNINLFE@new_try_handler_t@ 000000018001c6a0     tryblks.obj
 0002:000006b8       ??_C@_0BB@NEJAFNIG@seh_t_filter_set@ 000000018001c6b8     tryblks.obj
 0002:000006d0       ??_C@_0BD@ELADHFAA@seh_t_seh_code_set@ 000000018001c6d0     tryblks.obj
 0002:000006e8       ??_C@_09LIOCOLLH@new_seh_t@ 000000018001c6e8     tryblks.obj
 0002:000006f8       ??_C@_0BA@FFKICAPN@catch_t_obj_set@ 000000018001c6f8     tryblks.obj
 0002:00000708       ??_C@_0BE@OGHJLHLH@catch_t_type_id_set@ 000000018001c708     tryblks.obj
 0002:00000720       ??_C@_0M@DCBBAEGK@new_catch_t@ 000000018001c720     tryblks.obj
 0002:00000730       ??_C@_0BD@DCPOFIBL@tryblk_t_level_set@ 000000018001c730     tryblks.obj
 0002:00000748       ??_C@_0N@MIMJOOJC@new_tryblk_t@ 000000018001c748     tryblks.obj
 0002:00000758       ??_C@_0M@GHIENCL@get_tryblks@ 000000018001c758     tryblks.obj
 0002:00000768       ??_C@_0CM@JGHBEJIA@?6tryblks_t?$CI?$CJ?6new_tryblks_t?$CIx?$CJ?5?9@ 000000018001c768     tryblks.obj
 0002:00000798       ??_C@_0BB@BBIGENAP@delete_tryblks_t@ 000000018001c798     tryblks.obj
 0002:000007b0       ??_C@_0BH@NNDJJOOG@delete_tryblks_t?$CIself?$CJ@ 000000018001c7b0     tryblks.obj
 0002:000007d0       ??_C@_0EF@HMHOFKHA@?6tryblks_t_push_back?$CIself?0?5x?$CJ?6t@ 000000018001c7d0     tryblks.obj
 0002:00000818       ??_C@_0BD@MDNJOBA@tryblks_t_pop_back@ 000000018001c818     tryblks.obj
 0002:00000830       ??_C@_0BJ@DPGBNCJJ@tryblks_t_pop_back?$CIself?$CJ@ 000000018001c830     tryblks.obj
 0002:00000850       ??_C@_0P@DMKLELCO@tryblks_t_size@ 000000018001c850     tryblks.obj
 0002:00000860       ??_C@_0BP@DPLEBDPK@tryblks_t_size?$CIself?$CJ?5?9?$DO?5size_t@ 000000018001c860     tryblks.obj
 0002:00000880       ??_C@_0BA@HAEBAKFO@tryblks_t_empty@ 000000018001c880     tryblks.obj
 0002:00000890       ??_C@_0BO@HCMCEMKG@tryblks_t_empty?$CIself?$CJ?5?9?$DO?5bool@ 000000018001c890     tryblks.obj
 0002:000008b0       ??_C@_0CF@OHDJEHPJ@tryblks_t_at?$CIself?0?5_idx?$CJ?5?9?$DO?5try@ 000000018001c8b0     tryblks.obj
 0002:000008d8       ??_C@_0BB@GHLBEHJB@tryblks_t_qclear@ 000000018001c8d8     tryblks.obj
 0002:000008f0       ??_C@_0BH@INGFCFIO@tryblks_t_qclear?$CIself?$CJ@ 000000018001c8f0     tryblks.obj
 0002:00000908       ??_C@_0BA@FKGNPAO@tryblks_t_clear@ 000000018001c908     tryblks.obj
 0002:00000918       ??_C@_0BG@GLOJNKB@tryblks_t_clear?$CIself?$CJ@ 000000018001c918     tryblks.obj
 0002:00000930       ??_C@_0EH@BHMPDJFE@?6tryblks_t_resize?$CIself?0?5_newsiz@ 000000018001c930     tryblks.obj
 0002:00000978       ??_C@_0CD@BECEODEA@tryblks_t_grow?$CIself?0?5x?$DNtryblk_t@ 000000018001c978     tryblks.obj
 0002:000009a0       ??_C@_0BD@CLMDFADC@tryblks_t_capacity@ 000000018001c9a0     tryblks.obj
 0002:000009b8       ??_C@_0CD@JCNHPGIA@tryblks_t_capacity?$CIself?$CJ?5?9?$DO?5siz@ 000000018001c9b8     tryblks.obj
 0002:000009e0       ??_C@_0BN@INCNEEMJ@tryblks_t_reserve?$CIself?0?5cnt?$CJ@ 000000018001c9e0     tryblks.obj
 0002:00000a00       ??_C@_0BD@JBPLKBIC@tryblks_t_truncate@ 000000018001ca00     tryblks.obj
 0002:00000a18       ??_C@_0BJ@OKFDNAPP@tryblks_t_truncate?$CIself?$CJ@ 000000018001ca18     tryblks.obj
 0002:00000a38       ??_C@_0BI@MMDONKAK@tryblks_t_swap?$CIself?0?5r?$CJ@ 000000018001ca38     tryblks.obj
 0002:00000a50       ??_C@_0BC@HBLFFLKB@tryblks_t_extract@ 000000018001ca50     tryblks.obj
 0002:00000a68       ??_C@_0CE@HOONFHPM@tryblks_t_extract?$CIself?$CJ?5?9?$DO?5tryb@ 000000018001ca68     tryblks.obj
 0002:00000a90       ??_C@_0BP@BHMOOJOI@tryblks_t_inject?$CIself?0?5s?0?5len?$CJ@ 000000018001ca90     tryblks.obj
 0002:00000ab0       ??_C@_0CC@MNLIJGPN@tryblks_t___eq__?$CIself?0?5r?$CJ?5?9?$DO?5bo@ 000000018001cab0     tryblks.obj
 0002:00000ad8       ??_C@_0CC@BEJOALOK@tryblks_t___ne__?$CIself?0?5r?$CJ?5?9?$DO?5bo@ 000000018001cad8     tryblks.obj
 0002:00000b00       ??_C@_0EG@FGNGDLM@?6tryblks_t_begin?$CIself?$CJ?5?9?$DO?5trybl@ 000000018001cb00     tryblks.obj
 0002:00000b50       ??_C@_0EC@NEKBJGID@?6tryblks_t_end?$CIself?$CJ?5?9?$DO?5tryblk_@ 000000018001cb50     tryblks.obj
 0002:00000b98       ??_C@_0CK@IEPEIFPE@tryblks_t_insert?$CIself?0?5it?0?5x?$CJ?5?9@ 000000018001cb98     tryblks.obj
 0002:00000bd0       ??_C@_0FH@EBJDFDFL@?6tryblks_t_erase?$CIself?0?5it?$CJ?5?9?$DO?5t@ 000000018001cbd0     tryblks.obj
 0002:00000c30       ??_C@_0EK@JADNDGOP@?6tryblks_t_find?$CIself?0?5x?$CJ?5?9?$DO?5try@ 000000018001cc30     tryblks.obj
 0002:00000c80       ??_C@_0BP@HEFANPLM@tryblks_t_has?$CIself?0?5x?$CJ?5?9?$DO?5bool@ 000000018001cc80     tryblks.obj
 0002:00000ca0       ??_C@_0CG@OHKAKECK@tryblks_t_add_unique?$CIself?0?5x?$CJ?5?9@ 000000018001cca0     tryblks.obj
 0002:00000cc8       ??_C@_0CA@JLKOEJGL@tryblks_t__del?$CIself?0?5x?$CJ?5?9?$DO?5bool@ 000000018001ccc8     tryblks.obj
 0002:00000ce8       ??_C@_0BC@FBIFCJKJ@tryblks_t___len__@ 000000018001cce8     tryblks.obj
 0002:00000d00       ??_C@_0CC@DLCIGFHB@tryblks_t___len__?$CIself?$CJ?5?9?$DO?5size@ 000000018001cd00     tryblks.obj
 0002:00000d28       ??_C@_0CL@JJNFNOLK@tryblks_t___getitem__?$CIself?0?5i?$CJ?5@ 000000018001cd28     tryblks.obj
 0002:00000d58       ??_C@_0CC@OMBHDNBP@tryblks_t___setitem__?$CIself?0?5i?0?5@ 000000018001cd58     tryblks.obj
 0002:00000d80       ??_C@_0BH@EFLMHPEG@tryblks_t_swigregister@ 000000018001cd80     tryblks.obj
 0002:00000d98       ??_C@_0BD@GPPPHOJJ@tryblks_t_swiginit@ 000000018001cd98     tryblks.obj
 0002:00000db0       ??_C@_0CP@PFJDDPHM@?6catchvec_t?$CI?$CJ?6new_catchvec_t?$CIx?$CJ@ 000000018001cdb0     tryblks.obj
 0002:00000de0       ??_C@_0BC@IHAOJCCI@delete_catchvec_t@ 000000018001cde0     tryblks.obj
 0002:00000df8       ??_C@_0BI@BNEGBJHG@delete_catchvec_t?$CIself?$CJ@ 000000018001cdf8     tryblks.obj
 0002:00000e10       ??_C@_0EG@OPCNPMMB@?6catchvec_t_push_back?$CIself?0?5x?$CJ?6@ 000000018001ce10     tryblks.obj
 0002:00000e58       ??_C@_0BE@PHMGJGBL@catchvec_t_pop_back@ 000000018001ce58     tryblks.obj
 0002:00000e70       ??_C@_0BK@INCAGEAM@catchvec_t_pop_back?$CIself?$CJ@ 000000018001ce70     tryblks.obj
 0002:00000e90       ??_C@_0BA@CFCJGIL@catchvec_t_size@ 000000018001ce90     tryblks.obj
 0002:00000ea0       ??_C@_0CA@IOKHMJI@catchvec_t_size?$CIself?$CJ?5?9?$DO?5size_t@ 000000018001cea0     tryblks.obj
 0002:00000ec0       ??_C@_0BB@NGMDKEOE@catchvec_t_empty@ 000000018001cec0     tryblks.obj
 0002:00000ed8       ??_C@_0BP@PEJGNOEN@catchvec_t_empty?$CIself?$CJ?5?9?$DO?5bool@ 000000018001ced8     tryblks.obj
 0002:00000ef8       ??_C@_0CF@NLFGIIKA@catchvec_t_at?$CIself?0?5_idx?$CJ?5?9?$DO?5ca@ 000000018001cef8     tryblks.obj
 0002:00000f20       ??_C@_0BC@EMKDJPKN@catchvec_t_qclear@ 000000018001cf20     tryblks.obj
 0002:00000f38       ??_C@_0BI@IJFAOANF@catchvec_t_qclear?$CIself?$CJ@ 000000018001cf38     tryblks.obj
 0002:00000f50       ??_C@_0BB@KDCEHBLE@catchvec_t_clear@ 000000018001cf50     tryblks.obj
 0002:00000f68       ??_C@_0BH@OIFNNDCH@catchvec_t_clear?$CIself?$CJ@ 000000018001cf68     tryblks.obj
 0002:00000f80       ??_C@_0EJ@OHJKBHL@?6catchvec_t_resize?$CIself?0?5_newsi@ 000000018001cf80     tryblks.obj
 0002:00000fd0       ??_C@_0CD@GJPFCKGI@catchvec_t_grow?$CIself?0?5x?$DNcatch_t@ 000000018001cfd0     tryblks.obj
 0002:00000ff8       ??_C@_0BE@NADIFIDJ@catchvec_t_capacity@ 000000018001cff8     tryblks.obj
 0002:00001010       ??_C@_0CE@NMPGJAMA@catchvec_t_capacity?$CIself?$CJ?5?9?$DO?5si@ 000000018001d010     tryblks.obj
 0002:00001038       ??_C@_0BO@KGNHLBJ@catchvec_t_reserve?$CIself?0?5cnt?$CJ@ 000000018001d038     tryblks.obj
 0002:00001058       ??_C@_0BE@GKAAKJIJ@catchvec_t_truncate@ 000000018001d058     tryblks.obj
 0002:00001070       ??_C@_0BK@FIBCGGGK@catchvec_t_truncate?$CIself?$CJ@ 000000018001d070     tryblks.obj
 0002:00001090       ??_C@_0BJ@DAIDGHLD@catchvec_t_swap?$CIself?0?5r?$CJ@ 000000018001d090     tryblks.obj
 0002:000010b0       ??_C@_0BD@FOPBDFPO@catchvec_t_extract@ 000000018001d0b0     tryblks.obj
 0002:000010c8       ??_C@_0CE@DOKEDBBF@catchvec_t_extract?$CIself?$CJ?5?9?$DO?5cat@ 000000018001d0c8     tryblks.obj
 0002:000010f0       ??_C@_0CA@CAJAIGIK@catchvec_t_inject?$CIself?0?5s?0?5len?$CJ@ 000000018001d0f0     tryblks.obj
 0002:00001110       ??_C@_0CD@OIFNICBP@catchvec_t___eq__?$CIself?0?5r?$CJ?5?9?$DO?5b@ 000000018001d110     tryblks.obj
 0002:00001138       ??_C@_0CD@DBHLBPAI@catchvec_t___ne__?$CIself?0?5r?$CJ?5?9?$DO?5b@ 000000018001d138     tryblks.obj
 0002:00001160       ??_C@_0EG@GBFIACJC@?6catchvec_t_begin?$CIself?$CJ?5?9?$DO?5catc@ 000000018001d160     tryblks.obj
 0002:000011b0       ??_C@_0EC@MIDIFDLG@?6catchvec_t_end?$CIself?$CJ?5?9?$DO?5catch_@ 000000018001d1b0     tryblks.obj
 0002:000011f8       ??_C@_0CK@BNMKNMFL@catchvec_t_insert?$CIself?0?5it?0?5x?$CJ?5@ 000000018001d1f8     tryblks.obj
 0002:00001230       ??_C@_0FH@ODABFCPK@?6catchvec_t_erase?$CIself?0?5it?$CJ?5?9?$DO?5@ 000000018001d230     tryblks.obj
 0002:00001290       ??_C@_0EK@LBEDIDLG@?6catchvec_t_find?$CIself?0?5x?$CJ?5?9?$DO?5ca@ 000000018001d290     tryblks.obj
 0002:000012e0       ??_C@_0CA@EDAOLANO@catchvec_t_has?$CIself?0?5x?$CJ?5?9?$DO?5bool@ 000000018001d2e0     tryblks.obj
 0002:00001300       ??_C@_0CH@OIPEPFNL@catchvec_t_add_unique?$CIself?0?5x?$CJ?5@ 000000018001d300     tryblks.obj
 0002:00001328       ??_C@_0CB@DICFBHHA@catchvec_t__del?$CIself?0?5x?$CJ?5?9?$DO?5boo@ 000000018001d328     tryblks.obj
 0002:00001350       ??_C@_0BD@HOMBEHPG@catchvec_t___len__@ 000000018001d350     tryblks.obj
 0002:00001368       ??_C@_0CD@BOMNHBJD@catchvec_t___len__?$CIself?$CJ?5?9?$DO?5siz@ 000000018001d368     tryblks.obj
 0002:00001390       ??_C@_0CL@ONONKGNP@catchvec_t___getitem__?$CIself?0?5i?$CJ@ 000000018001d390     tryblks.obj
 0002:000013c0       ??_C@_0CD@MJPCCJPN@catchvec_t___setitem__?$CIself?0?5i?0@ 000000018001d3c0     tryblks.obj
 0002:000013e8       ??_C@_0BI@EBIJLKBN@catchvec_t_swigregister@ 000000018001d3e8     tryblks.obj
 0002:00001400       ??_C@_0BE@JEAEHGJC@catchvec_t_swiginit@ 000000018001d400     tryblks.obj
 0002:00001418       ??_C@_0CD@ENNOHEJD@try_handler_t_disp_set?$CIself?0?5di@ 000000018001d418     tryblks.obj
 0002:00001440       ??_C@_0BH@FMALLEDF@try_handler_t_disp_get@ 000000018001d440     tryblks.obj
 0002:00001458       ??_C@_0CH@EHEHPLGA@try_handler_t_disp_get?$CIself?$CJ?5?9?$DO@ 000000018001d458     tryblks.obj
 0002:00001480       ??_C@_0CF@OOKKOIAH@try_handler_t_fpreg_set?$CIself?0?5f@ 000000018001d480     tryblks.obj
 0002:000014a8       ??_C@_0BI@COPDJDMO@try_handler_t_fpreg_get@ 000000018001d4a8     tryblks.obj
 0002:000014c0       ??_C@_0CF@LLPLGCOA@try_handler_t_fpreg_get?$CIself?$CJ?5?9@ 000000018001d4c0     tryblks.obj
 0002:000014e8       ??_C@_0CF@JHLKMCKB@new_try_handler_t?$CI?$CJ?5?9?$DO?5try_hand@ 000000018001d4e8     tryblks.obj
 0002:00001510       ??_C@_0BE@NMFHEKKA@try_handler_t_clear@ 000000018001d510     tryblks.obj
 0002:00001528       ??_C@_0BK@IAMMDKCC@try_handler_t_clear?$CIself?$CJ@ 000000018001d528     tryblks.obj
 0002:00001548       ??_C@_0BF@EGHLCNPE@delete_try_handler_t@ 000000018001d548     tryblks.obj
 0002:00001560       ??_C@_0BL@CGKBPGDO@delete_try_handler_t?$CIself?$CJ@ 000000018001d560     tryblks.obj
 0002:00001580       ??_C@_0BL@DBILNPHL@try_handler_t_swigregister@ 000000018001d580     tryblks.obj
 0002:000015a0       ??_C@_0BH@HKJFLCPP@try_handler_t_swiginit@ 000000018001d5a0     tryblks.obj
 0002:000015b8       ??_C@_0BP@CHMPGHL@seh_t_filter_set?$CIself?0?5filter?$CJ@ 000000018001d5b8     tryblks.obj
 0002:000015d8       ??_C@_0BB@LOLJNEO@seh_t_filter_get@ 000000018001d5d8     tryblks.obj
 0002:000015f0       ??_C@_0CF@GAGDFLDH@seh_t_filter_get?$CIself?$CJ?5?9?$DO?5range@ 000000018001d5f0     tryblks.obj
 0002:00001618       ??_C@_0CD@DJMGFPAG@seh_t_seh_code_set?$CIself?0?5seh_co@ 000000018001d618     tryblks.obj
 0002:00001640       ??_C@_0BD@JEHILFMI@seh_t_seh_code_get@ 000000018001d640     tryblks.obj
 0002:00001658       ??_C@_0CB@FEBMDMJ@seh_t_seh_code_get?$CIself?$CJ?5?9?$DO?5ea_@ 000000018001d658     tryblks.obj
 0002:00001680       ??_C@_0M@OOGHMGBD@seh_t_clear@ 000000018001d680     tryblks.obj
 0002:00001690       ??_C@_0BC@LPEAMPDF@seh_t_clear?$CIself?$CJ@ 000000018001d690     tryblks.obj
 0002:000016a8       ??_C@_0BF@CGNBHGJL@new_seh_t?$CI?$CJ?5?9?$DO?5seh_t@ 000000018001d6a8     tryblks.obj
 0002:000016c0       ??_C@_0N@NKMPBPP@delete_seh_t@ 000000018001d6c0     tryblks.obj
 0002:000016d0       ??_C@_0BD@MHCPHHKE@delete_seh_t?$CIself?$CJ@ 000000018001d6d0     tryblks.obj
 0002:000016e8       ??_C@_0BD@LCGHNGEJ@seh_t_swigregister@ 000000018001d6e8     tryblks.obj
 0002:00001700       ??_C@_0P@MGCBFGP@seh_t_swiginit@ 000000018001d700     tryblks.obj
 0002:00001710       ??_C@_0BL@CJKKCBHG@catch_t_obj_set?$CIself?0?5obj?$CJ@ 000000018001d710     tryblks.obj
 0002:00001730       ??_C@_0BA@IKNDOADF@catch_t_obj_get@ 000000018001d730     tryblks.obj
 0002:00001740       ??_C@_0CA@NNIGINMD@catch_t_obj_get?$CIself?$CJ?5?9?$DO?5sval_t@ 000000018001d740     tryblks.obj
 0002:00001760       ??_C@_0CD@HIPKMEII@catch_t_type_id_set?$CIself?0?5type_@ 000000018001d760     tryblks.obj
 0002:00001788       ??_C@_0BE@DJACHHHP@catch_t_type_id_get@ 000000018001d788     tryblks.obj
 0002:000017a0       ??_C@_0CE@LFABMAAE@catch_t_type_id_get?$CIself?$CJ?5?9?$DO?5sv@ 000000018001d7a0     tryblks.obj
 0002:000017c8       ??_C@_0BJ@LAFFGICK@new_catch_t?$CI?$CJ?5?9?$DO?5catch_t@ 000000018001d7c8     tryblks.obj
 0002:000017e8       ??_C@_0P@PHNDINFD@delete_catch_t@ 000000018001d7e8     tryblks.obj
 0002:000017f8       ??_C@_0BF@BONMONDD@delete_catch_t?$CIself?$CJ@ 000000018001d7f8     tryblks.obj
 0002:00001810       ??_C@_0BF@DPHNMMPC@catch_t_swigregister@ 000000018001d810     tryblks.obj
 0002:00001828       ??_C@_0BB@MGMLLDAF@catch_t_swiginit@ 000000018001d828     tryblks.obj
 0002:00001840       ??_C@_0CA@OHLCCCPI@tryblk_t_level_set?$CIself?0?5level?$CJ@ 000000018001d840     tryblks.obj
 0002:00001860       ??_C@_0BD@ONIFJIND@tryblk_t_level_get@ 000000018001d860     tryblks.obj
 0002:00001878       ??_C@_0CC@PFOKGDGB@tryblk_t_level_get?$CIself?$CJ?5?9?$DO?5uch@ 000000018001d878     tryblks.obj
 0002:000018a0       ??_C@_0N@IICMABLK@tryblk_t_cpp@ 000000018001d8a0     tryblks.obj
 0002:000018b0       ??_C@_0CB@EMPCOIHA@tryblk_t_cpp?$CIself?$CJ?5?9?$DO?5catchvec_@ 000000018001d8b0     tryblks.obj
 0002:000018d8       ??_C@_0N@EAMDKPOH@tryblk_t_seh@ 000000018001d8d8     tryblks.obj
 0002:000018e8       ??_C@_0BM@KHKNMLIG@tryblk_t_seh?$CIself?$CJ?5?9?$DO?5seh_t@ 000000018001d8e8     tryblks.obj
 0002:00001908       ??_C@_0BA@JHAJKEBD@delete_tryblk_t@ 000000018001d908     tryblks.obj
 0002:00001918       ??_C@_0BG@NMGLDIPH@delete_tryblk_t?$CIself?$CJ@ 000000018001d918     tryblks.obj
 0002:00001930       ??_C@_0CJ@LHBAHODJ@?6tryblk_t?$CI?$CJ?6new_tryblk_t?$CIr?$CJ?5?9?$DO?5@ 000000018001d930     tryblks.obj
 0002:00001960       ??_C@_0BC@KLPCJMDJ@tryblk_t_get_kind@ 000000018001d960     tryblks.obj
 0002:00001978       ??_C@_0CB@JPCJEMPI@tryblk_t_get_kind?$CIself?$CJ?5?9?$DO?5ucha@ 000000018001d978     tryblks.obj
 0002:000019a0       ??_C@_0P@IKABEMJF@tryblk_t_empty@ 000000018001d9a0     tryblks.obj
 0002:000019b0       ??_C@_0BN@LJFHKJDG@tryblk_t_empty?$CIself?$CJ?5?9?$DO?5bool@ 000000018001d9b0     tryblks.obj
 0002:000019d0       ??_C@_0BA@BIMNFEMP@tryblk_t_is_seh@ 000000018001d9d0     tryblks.obj
 0002:000019e0       ??_C@_0BO@HGLKBAID@tryblk_t_is_seh?$CIself?$CJ?5?9?$DO?5bool@ 000000018001d9e0     tryblks.obj
 0002:00001a00       ??_C@_0BA@NACCPKJC@tryblk_t_is_cpp@ 000000018001da00     tryblks.obj
 0002:00001a10       ??_C@_0BO@CONCJILL@tryblk_t_is_cpp?$CIself?$CJ?5?9?$DO?5bool@ 000000018001da10     tryblks.obj
 0002:00001a30       ??_C@_0P@PPOGJJMF@tryblk_t_clear@ 000000018001da30     tryblks.obj
 0002:00001a40       ??_C@_0BF@IJGFHAAE@tryblk_t_clear?$CIself?$CJ@ 000000018001da40     tryblks.obj
 0002:00001a58       ??_C@_0BB@FLGCNLCN@tryblk_t_set_seh@ 000000018001da58     tryblks.obj
 0002:00001a70       ??_C@_0CA@EBFPPJN@tryblk_t_set_seh?$CIself?$CJ?5?9?$DO?5seh_t@ 000000018001da70     tryblks.obj
 0002:00001a90       ??_C@_0BB@JDINHFHA@tryblk_t_set_cpp@ 000000018001da90     tryblks.obj
 0002:00001aa8       ??_C@_0CF@GKOMGBJH@tryblk_t_set_cpp?$CIself?$CJ?5?9?$DO?5catch@ 000000018001daa8     tryblks.obj
 0002:00001ad0       ??_C@_0BG@ODIPPDMM@tryblk_t_swigregister@ 000000018001dad0     tryblks.obj
 0002:00001ae8       ??_C@_0BC@CCPKKONB@tryblk_t_swiginit@ 000000018001dae8     tryblks.obj
 0002:00001b00       ??_C@_0CC@MMNNHIOF@get_tryblks?$CItbv?0?5range?$CJ?5?9?$DO?5size@ 000000018001db00     tryblks.obj
 0002:00001b28       ??_C@_0M@EFJPFOMH@del_tryblks@ 000000018001db28     tryblks.obj
 0002:00001b38       ??_C@_0BD@NIMHCEOE@del_tryblks?$CIrange?$CJ@ 000000018001db38     tryblks.obj
 0002:00001b50       ??_C@_0L@KMEDPHMP@add_tryblk@ 000000018001db50     tryblks.obj
 0002:00001b60       ??_C@_0BG@JGCDHPBH@add_tryblk?$CItb?$CJ?5?9?$DO?5int@ 000000018001db60     tryblks.obj
 0002:00001b78       ??_C@_0L@PHLAEKDM@find_syseh@ 000000018001db78     tryblks.obj
 0002:00001b88       ??_C@_0BH@MDLCGONP@find_syseh?$CIea?$CJ?5?9?$DO?5ea_t@ 000000018001db88     tryblks.obj
 0002:00001ba0       ??_C@_0BE@LADBKDLC@_p__qstringT_char_t@ 000000018001dba0     tryblks.obj
 0002:00001bb8       ??_C@_0BN@OHJFNODI@_qstring?$DM?5char?5?$DO?5?$CK?$HMqstring?5?$CK@ 000000018001dbb8     tryblks.obj
 0002:00001bd8       ??_C@_0BN@OGMFMNEO@_p__qstringT_unsigned_char_t@ 000000018001dbd8     tryblks.obj
 0002:00001bf8       ??_C@_0CE@FCOOCMMP@qtype?5?$CK?$HM_qstring?$DM?5unsigned?5char@ 000000018001dbf8     tryblks.obj
 0002:00001c20       ??_C@_0BO@NPELMEMN@_p__qstringT_unsigned_short_t@ 000000018001dc20     tryblks.obj
 0002:00001c40       ??_C@_0CI@MOGIECDE@_qstring?$DM?5unsigned?5short?5?$DO?5?$CK?$HMqw@ 000000018001dc40     tryblks.obj
 0002:00001c68       ??_C@_0BF@FIODJLOI@_p_action_ctx_base_t@ 000000018001dc68     tryblks.obj
 0002:00001c80       ??_C@_0EE@ODNBPOJC@action_ctx_base_t?5?$CK?$HMaction_upda@ 000000018001dc80     tryblks.obj
 0002:00001cc8       ??_C@_0N@IODFCNBG@_p_biggest_t@ 000000018001dcc8     tryblks.obj
 0002:00001cd8       ??_C@_0M@LMODFOHJ@biggest_t?5?$CK@ 000000018001dcd8     tryblks.obj
 0002:00001ce8       ??_C@_0L@MLDJMEBO@_p_catch_t@ 000000018001dce8     tryblks.obj
 0002:00001d00       ??_C@_0EK@HFIKBAAG@catch_t?5?$CK?$HMqvector?$DM?5catch_t?5?$DO?3?3i@ 000000018001dd00     tryblks.obj
 0002:00001d50       ??_C@_07HDHHMDOH@_p_char@  000000018001dd50     tryblks.obj
 0002:00001d58       ??_C@_0O@HOPHBKAL@char?5?$CK?$HMint8?5?$CK@ 000000018001dd58     tryblks.obj
 0002:00001d68       ??_C@_0BC@KJKOCNNG@_p_const_iterator@ 000000018001dd68     tryblks.obj
 0002:00001d80       ??_C@_0BB@LAJPCFIO@const_iterator?5?$CK@ 000000018001dd80     tryblks.obj
 0002:00001d98       ??_C@_0CE@DHGPAIMI@_p_f_p_TWidget_int_int_p_void__@ 000000018001dd98     tryblks.obj
 0002:00001dc0       ??_C@_0DN@DFPOHMBA@custom_viewer_keydown_t?5?$CK?$HMbool?5@ 000000018001ddc0     tryblks.obj
 0002:00001e00       ??_C@_0DF@PENMGFJK@_p_f_p_TWidget_int_p_view_mouse@ 000000018001de00     tryblks.obj
 0002:00001e40       ??_C@_0FC@NPHKCCPL@void?5?$CI?$CK?$CJ?$CITWidget?5?$CK?0int?0view_mou@ 000000018001de40     tryblks.obj
 0002:00001e98       ??_C@_0CA@IGCEDJID@_p_f_p_TWidget_int_p_void__bool@ 000000018001de98     tryblks.obj
 0002:00001ec0       ??_C@_0FC@PJNOFHGN@custom_viewer_click_t?5?$CK?$HMcustom_@ 000000018001dec0     tryblks.obj
 0002:00001f18       ??_C@_0CO@MIHLPJDD@_p_f_p_TWidget_p_lochist_entry_@ 000000018001df18     tryblks.obj
 0002:00001f50       ??_C@_0EM@HBPJNBB@custom_viewer_adjust_place_t?5?$CK?$HM@ 000000018001df50     tryblks.obj
 0002:00001fa0       ??_C@_0GM@LBGPKCPI@_p_f_p_TWidget_p_q_const__lochi@ 000000018001dfa0     tryblks.obj
 0002:00002010       ??_C@_0IF@FKBGALIG@void?5?$CI?$CK?$CJ?$CITWidget?5?$CK?0lochist_entr@ 000000018001e010     tryblks.obj
 0002:000020a0       ??_C@_0FA@DFBJAGBE@_p_f_p_TWidget_p_q_const__lochi@ 000000018001e0a0     tryblks.obj
 0002:000020f0       ??_C@_0GI@FMPBFLEM@custom_viewer_can_navigate_t?5?$CK?$HM@ 000000018001e0f0     tryblks.obj
 0002:00002158       ??_C@_0DH@JJEDBLDE@_p_f_p_TWidget_p_q_const__place@ 000000018001e158     tryblks.obj
 0002:00002190       ??_C@_0EP@PJDAMEBK@code_viewer_lines_click_t?5?$CK?$HMvoi@ 000000018001e190     tryblks.obj
 0002:000021e0       ??_C@_0DE@PBNPHPNC@_p_f_p_TWidget_p_q_const__place@ 000000018001e1e0     tryblks.obj
 0002:00002220       ??_C@_0EL@JKPIBDKO@code_viewer_lines_icon_t?5?$CK?$HMint?5@ 000000018001e220     tryblks.obj
 0002:00002270       ??_C@_0EB@FDCGDBJI@_p_f_p_TWidget_p_q_const__place@ 000000018001e270     tryblks.obj
 0002:000022c0       ??_C@_0FN@GGLCMJJK@custom_viewer_get_place_xcoord_@ 000000018001e2c0     tryblks.obj
 0002:00002320       ??_C@_0DO@KLDLOPHE@_p_f_p_TWidget_p_q_const__place@ 000000018001e320     tryblks.obj
 0002:00002360       ??_C@_0FI@GOMHMLF@code_viewer_lines_linenum_t?5?$CK?$HMb@ 000000018001e360     tryblks.obj
 0002:000023b8       ??_C@_0BL@BMEJNHDD@_p_f_p_TWidget_p_void__int@ 000000018001e3b8     tryblks.obj
 0002:000023d8       ??_C@_0DB@GMPMLKDG@custom_viewer_help_t?5?$CK?$HMint?5?$CI?$CK?$CJ?$CI@ 000000018001e3d8     tryblks.obj
 0002:00002410       ??_C@_0BM@PAKPNBHH@_p_f_p_TWidget_p_void__void@ 000000018001e410     tryblks.obj
 0002:00002430       ??_C@_0GE@BLLNJKNN@custom_viewer_popup_t?5?$CK?$HMcustom_@ 000000018001e430     tryblks.obj
 0002:00002498       ??_C@_0DM@PKHFKJJF@_p_f_p_chooser_multi_t_p_sizeve@ 000000018001e498     tryblks.obj
 0002:000024e0       ??_C@_0FA@INGPHNGB@chooser_base_t?3?3cbres_t?5?$CI?$CK?$CJ?$CIcho@ 000000018001e4e0     tryblks.obj
 0002:00002530       ??_C@_0CN@LJCPBILN@_p_f_p_chooser_t_ssize_t__choos@ 000000018001e530     tryblks.obj
 0002:00002560       ??_C@_0DL@IKAMODJA@chooser_t?3?3cbret_t?5?$CI?$CK?$CJ?$CIchooser_@ 000000018001e560     tryblks.obj
 0002:000025a0       ??_C@_0EC@GIKOMIMG@_p_f_p_lochist_entry_t_r_q_cons@ 000000018001e5a0     tryblks.obj
 0002:000025f0       ??_C@_0FE@OJIOMBOE@bool?5?$CI?$CK?$CJ?$CIlochist_entry_t?5?$CK?0loch@ 000000018001e5f0     tryblks.obj
 0002:00002648       ??_C@_0CC@HPECDOJE@_p_f_p_q_const__char_p_void__vo@ 000000018001e648     tryblks.obj
 0002:00002670       ??_C@_0DA@LKJNDOAC@void?5?$CI?$CK?$CJ?$CIchar?5const?5?$CK?0void?5?$CK?$CJ?$HMs@ 000000018001e670     tryblks.obj
 0002:000026a0       ??_C@_0GC@HKCHLFJ@_p_f_p_q_const__char_r_q_const_@ 000000018001e6a0     tryblks.obj
 0002:00002710       ??_C@_0GE@CDAMLIPA@h2ti_type_cb?5?$CK?$HMint?5?$CI?$CK?$CJ?$CIchar?5con@ 000000018001e710     tryblks.obj
 0002:00002778       ??_C@_0CB@PLKCNJF@_p_f_p_q_const__char_v_______in@ 000000018001e778     tryblks.obj
 0002:000027a0       ??_C@_0CG@EHKOJEHN@int?5?$CI?$CK?$CJ?$CIchar?5const?5?$CK?0?4?4?4?$CJ?$HMprint@ 000000018001e7a0     tryblks.obj
 0002:000027c8       ??_C@_0CB@PPFKEDBB@_p_f_p_void_int_va_list__ssize_@ 000000018001e7c8     tryblks.obj
 0002:000027f0       ??_C@_0CM@ODIKDJIA@ssize_t?5?$CI?$CK?$CJ?$CIvoid?5?$CK?0int?0va_list?$CJ@ 000000018001e7f0     tryblks.obj
 0002:00002820       ??_C@_0CJ@KNMLBMOG@_p_f_r_q_const__insn_t_p_int_p_@ 000000018001e820     tryblks.obj
 0002:00002850       ??_C@_0DI@CGFAFNOI@bool?5?$CI?$CK?$CJ?$CIinsn_t?5const?5?$CG?0int?5?$CK?0i@ 000000018001e850     tryblks.obj
 0002:00002890       ??_C@_0FA@JJBGCIIH@_p_f_r_q_const__insn_t_r_q_cons@ 000000018001e890     tryblks.obj
 0002:000028e0       ??_C@_0FE@IBKJNBMI@bool?5?$CI?$CK?$CJ?$CIinsn_t?5const?5?$CG?0op_t?5co@ 000000018001e8e0     tryblks.obj
 0002:00002938       ??_C@_0BI@PGCOIKGG@_p_f_unsigned_int__bool@ 000000018001e938     tryblks.obj
 0002:00002950       ??_C@_0DN@OGOBIPP@bool?5?$CI?$CK?$CJ?$CIunsigned?5int?$CJ?$HMhas_dela@ 000000018001e950     tryblks.obj
 0002:00002990       ??_C@_0DL@FFEHDPON@_p_f_unsigned_int_p_q_const__ch@ 000000018001e990     tryblks.obj
 0002:000029d0       ??_C@_0EK@MACPDLHN@int?5?$CI?$CK?$CJ?$CIunsigned?5int?0char?5const@ 000000018001e9d0     tryblks.obj
 0002:00002a20       ??_C@_0BP@HNIFGGKH@_p_f_unsigned_int_p_void__bool@ 000000018001ea20     tryblks.obj
 0002:00002a40       ??_C@_0CI@PMEGIBIK@testf_t?5?$CK?$HMbool?5?$CI?$CK?$CJ?$CIunsigned?5int@ 000000018001ea40     tryblks.obj
 0002:00002a68       ??_C@_0DB@CEAPILAH@_p_f_unsigned_int_r_q_const__ti@ 000000018001ea68     tryblks.obj
 0002:00002aa0       ??_C@_0EH@MLDNCCKC@local_tinfo_predicate_t?5?$CK?$HMint?5?$CI@ 000000018001eaa0     tryblks.obj
 0002:00002ae8       ??_C@_0CN@BPIIPJKN@_p_f_unsigned_int_unsigned_int_@ 000000018001eae8     tryblks.obj
 0002:00002b18       ??_C@_0DO@CKIBBIPB@unsigned?5int?5?$CI?$CK?$CJ?$CIunsigned?5int?0u@ 000000018001eb18     tryblks.obj
 0002:00002b58       ??_C@_06EJFLAOFF@_p_int@   000000018001eb58     tryblks.obj
 0002:00002b60       ??_C@_0IG@FDKJDHEK@adiff_t?5?$CK?$HMint?5?$CK?$HMint32?5?$CK?$HMsval_t?5@ 000000018001eb60     tryblks.obj
 0002:00002be8       ??_C@_0M@CFMLOKJJ@_p_iterator@ 000000018001ebe8     tryblks.obj
 0002:00002bf8       ??_C@_0L@IIMCJLIP@iterator?5?$CK@ 000000018001ebf8     tryblks.obj
 0002:00002c08       ??_C@_0O@HDLJBJJF@_p_location_t@ 000000018001ec08     tryblks.obj
 0002:00002c18       ??_C@_0N@ONMECIKA@location_t?5?$CK@ 000000018001ec18     tryblks.obj
 0002:00002c28       ??_C@_0N@HIKGEFDH@_p_long_long@ 000000018001ec28     tryblks.obj
 0002:00002c38       ??_C@_0BP@FECEFBLL@int64?5?$CK?$HMlonglong?5?$CK?$HMlong?5long?5?$CK@ 000000018001ec38     tryblks.obj
 0002:00002c58       ??_C@_0CJ@KBPLCHCN@_p_qvectorT__qstringT_unsigned_@ 000000018001ec58     tryblks.obj
 0002:00002c88       ??_C@_0DF@GOALPBDM@qvector?$DM?5_qstring?$DM?5unsigned?5sho@ 000000018001ec88     tryblks.obj
 0002:00002cc0       ??_C@_0BH@EHIHPDFP@_p_qvectorT_argloc_t_t@ 000000018001ecc0     tryblks.obj
 0002:00002cd8       ??_C@_0CC@PMMGEEHP@qvector?$DM?5argloc_t?5?$DO?5?$CK?$HMarglocs_t@ 000000018001ecd8     tryblks.obj
 0002:00002d00       ??_C@_0BD@IFPOLGLB@_p_qvectorT_bool_t@ 000000018001ed00     tryblks.obj
 0002:00002d18       ??_C@_0BO@JEOEHDBE@boolvec_t?5?$CK?$HMqvector?$DM?5bool?5?$DO?5?$CK@ 000000018001ed18     tryblks.obj
 0002:00002d38       ??_C@_0BG@LLBPGEAL@_p_qvectorT_catch_t_t@ 000000018001ed38     tryblks.obj
 0002:00002d50       ??_C@_0CC@GGODGGBE@catchvec_t?5?$CK?$HMqvector?$DM?5catch_t?5?$DO@ 000000018001ed50     tryblks.obj
 0002:00002d78       ??_C@_0BO@BMBALGLA@_p_qvectorT_channel_redir_t_t@ 000000018001ed78     tryblks.obj
 0002:00002d98       ??_C@_0DA@DFOFPPPA@qvector?$DM?5channel_redir_t?5?$DO?5?$CK?$HMch@ 000000018001ed98     tryblks.obj
 0002:00002dc8       ??_C@_0CA@KLOIFAIM@_p_qvectorT_compiled_binpat_t_t@ 000000018001edc8     tryblks.obj
 0002:00002de8       ??_C@_0DH@JJMOBCIB@compiled_binpat_vec_t?5?$CK?$HMqvector@ 000000018001ede8     tryblks.obj
 0002:00002e20       ??_C@_0BI@HPPPANA@_p_qvectorT_funcarg_t_t@ 000000018001ee20     tryblks.obj
 0002:00002e38       ??_C@_0CG@BKJABKPP@funcargvec_t?5?$CK?$HMqvector?$DM?5funcarg@ 000000018001ee38     tryblks.obj
 0002:00002e60       ??_C@_0BC@EMAMHDDK@_p_qvectorT_int_t@ 000000018001ee60     tryblks.obj
 0002:00002e78       ??_C@_0CI@OEOLBAGE@svalvec_t?5?$CK?$HMintvec_t?5?$CK?$HMqvector?$DM@ 000000018001ee78     tryblks.obj
 0002:00002ea0       ??_C@_0BG@NGNJJEPD@_p_qvectorT_range_t_t@ 000000018001eea0     tryblks.obj
 0002:00002eb8       ??_C@_0CH@CMPFLCHN@rangevec_base_t?5?$CK?$HMqvector?$DM?5rang@ 000000018001eeb8     tryblks.obj
 0002:00002ee0       ??_C@_0CB@DLEFICAI@_p_qvectorT_rangeset_t_const_p_@ 000000018001eee0     tryblks.obj
 0002:00002f08       ??_C@_0DF@CPGECBJE@rangeset_crefvec_t?5?$CK?$HMqvector?$DM?5r@ 000000018001ef08     tryblks.obj
 0002:00002f40       ??_C@_0BJ@CBEEABAG@_p_qvectorT_rangeset_t_t@ 000000018001ef40     tryblks.obj
 0002:00002f60       ??_C@_0CN@NEPIOIFG@qvector?$DM?5rangeset_t?5?$DO?5?$CK?$HMarray_o@ 000000018001ef60     tryblks.obj
 0002:00002f90       ??_C@_0BN@HCIAELAH@_p_qvectorT_refinfo_desc_t_t@ 000000018001ef90     tryblks.obj
 0002:00002fb0       ??_C@_0DB@OEPGJFJL@refinfo_desc_vec_t?5?$CK?$HMqvector?$DM?5r@ 000000018001efb0     tryblks.obj
 0002:00002fe8       ??_C@_0BK@JBDFAIAF@_p_qvectorT_simd_info_t_t@ 000000018001efe8     tryblks.obj
 0002:00003008       ??_C@_0CL@IAEHADMA@simd_info_vec_t?5?$CK?$HMqvector?$DM?5simd@ 000000018001f008     tryblks.obj
 0002:00003038       ??_C@_0BL@JOHIOMBL@_p_qvectorT_simpleline_t_t@ 000000018001f038     tryblks.obj
 0002:00003058       ??_C@_0CF@LMLHENLN@strvec_t?5?$CK?$HMqvector?$DM?5simpleline_@ 000000018001f058     tryblks.obj
 0002:00003080       ??_C@_0BF@JMFCGENF@_p_qvectorT_size_t_t@ 000000018001f080     tryblks.obj
 0002:00003098       ??_C@_0CA@PKGFIBKP@sizevec_t?5?$CK?$HMqvector?$DM?5size_t?5?$DO?5?$CK@ 000000018001f098     tryblks.obj
 0002:000030b8       ??_C@_0BG@GHPDGOHO@_p_qvectorT_tinfo_t_t@ 000000018001f0b8     tryblks.obj
 0002:000030d0       ??_C@_0CC@CEHAEEKI@tinfovec_t?5?$CK?$HMqvector?$DM?5tinfo_t?5?$DO@ 000000018001f0d0     tryblks.obj
 0002:000030f8       ??_C@_0BH@DEBFIIPH@_p_qvectorT_tryblk_t_t@ 000000018001f0f8     tryblks.obj
 0002:00003110       ??_C@_0CC@KCNJPBPD@tryblks_t?5?$CK?$HMqvector?$DM?5tryblk_t?5?$DO@ 000000018001f110     tryblks.obj
 0002:00003138       ??_C@_0BK@KGMCEJE@_p_qvectorT_type_attr_t_t@ 000000018001f138     tryblks.obj
 0002:00003158       ??_C@_0CI@PENEDOEG@type_attrs_t?5?$CK?$HMqvector?$DM?5type_at@ 000000018001f158     tryblks.obj
 0002:00003180       ??_C@_0BL@MFAEBBAF@_p_qvectorT_udt_member_t_t@ 000000018001f180     tryblks.obj
 0002:000031a0       ??_C@_0CL@HFANAPIM@udtmembervec_t?5?$CK?$HMqvector?$DM?5udt_m@ 000000018001f1a0     tryblks.obj
 0002:000031d0       ??_C@_0BM@DFOCNGNJ@_p_qvectorT_unsigned_char_t@ 000000018001f1d0     tryblks.obj
 0002:000031f0       ??_C@_0CH@MCODNJGI@qvector?$DM?5unsigned?5char?5?$DO?5?$CK?$HMcomp@ 000000018001f1f0     tryblks.obj
 0002:00003218       ??_C@_0M@BEMIELHM@_p_relobj_t@ 000000018001f218     tryblks.obj
 0002:00003228       ??_C@_0N@OAHCDFLH@_p_bytevec_t@ 000000018001f228     tryblks.obj
 0002:00003238       ??_C@_0BA@KOPDLMDG@_p_reloc_info_t@ 000000018001f238     tryblks.obj
 0002:00003248       ??_C@_0BL@POPMPLM@_p_qvectorT_unsigned_int_t@ 000000018001f248     tryblks.obj
 0002:00003268       ??_C@_0DL@HDEADPMO@eavec_t?5?$CK?$HMordvec_t?5?$CK?$HMuvalvec_t?5@ 000000018001f268     tryblks.obj
 0002:000032a8       ??_C@_0L@NOIPKKEL@_p_range_t@ 000000018001f2a8     tryblks.obj
 0002:000032b8       ??_C@_09HPKAOMNJ@range_t?5?$CK@ 000000018001f2b8     tryblks.obj
 0002:000032c8       ??_C@_0O@CNCDMPHD@_p_rangevec_t@ 000000018001f2c8     tryblks.obj
 0002:000032d8       ??_C@_0N@IKFAFFLB@rangevec_t?5?$CK@ 000000018001f2d8     tryblks.obj
 0002:000032e8       ??_C@_08MDJFOAPJ@_p_seh_t@ 000000018001f2e8     tryblks.obj
 0002:000032f8       ??_C@_07IMBDLNIJ@seh_t?5?$CK@ 000000018001f2f8     tryblks.obj
 0002:00003300       ??_C@_08JGEHMJEC@_p_short@ 000000018001f300     tryblks.obj
 0002:00003310       ??_C@_0BA@BBDCPKKI@int16?5?$CK?$HMshort?5?$CK@ 000000018001f310     tryblks.obj
 0002:00003320       ??_C@_0P@IHEJCACJ@_p_signed_char@ 000000018001f320     tryblks.obj
 0002:00003330       ??_C@_0BG@CGJIOBCI@signed?5char?5?$CK?$HMsint8?5?$CK@ 000000018001f330     tryblks.obj
 0002:00003348       ??_C@_0BB@DEONLDNG@_p_try_handler_t@ 000000018001f348     tryblks.obj
 0002:00003360       ??_C@_0BA@LMLHKGEI@try_handler_t?5?$CK@ 000000018001f360     tryblks.obj
 0002:00003370       ??_C@_0M@JPFIHDHH@_p_tryblk_t@ 000000018001f370     tryblks.obj
 0002:00003380       ??_C@_0EN@DIMFHBHC@qvector?$DM?5tryblk_t?5?$DO?3?3iterator?$HMq@ 000000018001f380     tryblks.obj
 0002:000033d0       ??_C@_0BB@JEMKPEPB@_p_unsigned_char@ 000000018001f3d0     tryblks.obj
 0002:000033f0       ??_C@_0HI@NBHOBBOJ@uchar?5?$CK?$HMunsigned?5char?5?$CK?$HMcm_t?5?$CK?$HM@ 000000018001f3f0     tryblks.obj
 0002:00003468       ??_C@_0BA@EMEBBPFL@_p_unsigned_int@ 000000018001f468     tryblks.obj
 0002:00003480       ??_C@_0JE@GCFOGLMK@bgcolor_t?5?$CK?$HMenum_t?5?$CK?$HMtid_t?5?$CK?$HMbm@ 000000018001f480     tryblks.obj
 0002:00003518       ??_C@_0BG@CGEDOPGF@_p_unsigned_long_long@ 000000018001f518     tryblks.obj
 0002:00003530       ??_C@_0CK@FCLCDGJM@uint64?5?$CK?$HMulonglong?5?$CK?$HMunsigned?5l@ 000000018001f530     tryblks.obj
 0002:00003560       ??_C@_0BC@GCHEMBCE@_p_unsigned_short@ 000000018001f560     tryblks.obj
 0002:00003578       ??_C@_0CP@HNCAPCKA@uint16?5?$CK?$HMunsigned?5short?5?$CK?$HMushor@ 000000018001f578     tryblks.obj
 0002:000035a8       ??_C@_0O@KPNNNNNL@_p_value_type@ 000000018001f5a8     tryblks.obj
 0002:000035b8       ??_C@_0N@BPDHJAOG@value_type?5?$CK@ 000000018001f5b8     tryblks.obj
 0002:000035c8       ??_C@_03BHDOPPEK@own@      000000018001f5c8     tryblks.obj
 0002:000035cc       ??_C@_06EFGGFDFD@disown@   000000018001f5cc     tryblks.obj
 0002:000035d8       ??_C@_0CC@CFIMIIPD@releases?5ownership?5of?5the?5point@ 000000018001f5d8     tryblks.obj
 0002:00003600       ??_C@_07MEFPPMEF@acquire@  000000018001f600     tryblks.obj
 0002:00003608       ??_C@_0CC@BAIBAPCI@acquires?5ownership?5of?5the?5point@ 000000018001f608     tryblks.obj
 0002:00003630       ??_C@_0CG@GKPKGEFE@returns?1sets?5ownership?5of?5the?5p@ 000000018001f630     tryblks.obj
 0002:00003658       ??_C@_06PCICMFGG@append@   000000018001f658     tryblks.obj
 0002:00003660       ??_C@_0BO@NCOOMDHM@appends?5another?5?8this?8?5object@ 000000018001f660     tryblks.obj
 0002:00003680       ??_C@_04CJGEDOF@next@      000000018001f680     tryblks.obj
 0002:00003688       ??_C@_0BP@IMIAEPNG@returns?5the?5next?5?8this?8?5object@ 000000018001f688     tryblks.obj
 0002:000036a8       ??_C@_08HJPCHLLJ@__repr__@ 000000018001f6a8     tryblks.obj
 0002:000036b8       ??_C@_0BO@PNCCHPAD@returns?5object?5representation@ 000000018001f6b8     tryblks.obj
 0002:000036d8       ??_C@_0O@ILGGDOPD@new_tryblks_t@ 000000018001f6d8     tryblks.obj
 0002:000036e8       ??_C@_0BE@BKEJDMNG@tryblks_t_push_back@ 000000018001f6e8     tryblks.obj
 0002:00003700       ??_C@_0N@JIDOPCOI@tryblks_t_at@ 000000018001f700     tryblks.obj
 0002:00003710       ??_C@_0BB@DNJGMJPN@tryblks_t_resize@ 000000018001f710     tryblks.obj
 0002:00003728       ??_C@_0P@EMMKLLLK@tryblks_t_grow@ 000000018001f728     tryblks.obj
 0002:00003738       ??_C@_0BC@MFJPFPEN@tryblks_t_reserve@ 000000018001f738     tryblks.obj
 0002:00003750       ??_C@_0P@KLKLMBAH@tryblks_t_swap@ 000000018001f750     tryblks.obj
 0002:00003760       ??_C@_0BB@FFIAAAKO@tryblks_t_inject@ 000000018001f760     tryblks.obj
 0002:00003778       ??_C@_0BB@FHDPPCEK@tryblks_t___eq__@ 000000018001f778     tryblks.obj
 0002:00003790       ??_C@_0BB@PPJEADJD@tryblks_t___ne__@ 000000018001f790     tryblks.obj
 0002:000037a8       ??_C@_0BA@IBIHKKLE@tryblks_t_begin@ 000000018001f7a8     tryblks.obj
 0002:000037b8       ??_C@_0O@DBALELOK@tryblks_t_end@ 000000018001f7b8     tryblks.obj
 0002:000037c8       ??_C@_0BB@CFJEDMBK@tryblks_t_insert@ 000000018001f7c8     tryblks.obj
 0002:000037e0       ??_C@_0BA@JJGMHBCP@tryblks_t_erase@ 000000018001f7e0     tryblks.obj
 0002:000037f0       ??_C@_0P@JGJPGJDB@tryblks_t_find@ 000000018001f7f0     tryblks.obj
 0002:00003800       ??_C@_0O@MNLOFAJM@tryblks_t_has@ 000000018001f800     tryblks.obj
 0002:00003810       ??_C@_0BF@FHEKNJDI@tryblks_t_add_unique@ 000000018001f810     tryblks.obj
 0002:00003828       ??_C@_0P@MEIAOPC@tryblks_t__del@ 000000018001f828     tryblks.obj
 0002:00003838       ??_C@_0BG@CMHJGKPA@tryblks_t___getitem__@ 000000018001f838     tryblks.obj
 0002:00003850       ??_C@_0BG@CDMELGC@tryblks_t___setitem__@ 000000018001f850     tryblks.obj
 0002:00003868       ??_C@_0P@DDJPMMGM@new_catchvec_t@ 000000018001f868     tryblks.obj
 0002:000047e0       ??_C@_0BO@CMHFAAKD@?$CFS?6Additional?5information?3?6?$CFs@ 00000001800207e0     tryblks.obj
 0002:000047fe       ??_C@_00CNPNBAHC@@         00000001800207fe     tryblks.obj
 0002:00004800       ??_C@_09HJOCAFJB@at?5least?5@ 0000000180020800     tryblks.obj
 0002:00004810       ??_C@_0CF@KFFOGCID@?$CFs?5expected?5?$CFs?$CFd?5arguments?0?5got@ 0000000180020810     tryblks.obj
 0002:00004838       ??_C@_0CL@NPJGKHAI@UnpackTuple?$CI?$CJ?5argument?5list?5is?5@ 0000000180020838     tryblks.obj
 0002:00004868       ??_C@_0CD@DMIOPJCG@?$CFs?5expected?5?$CFs?$CFd?5arguments?0?5got@ 0000000180020868     tryblks.obj
 0002:00004890       ??_C@_08KFLHMPAE@at?5most?5@ 0000000180020890     tryblks.obj
 0002:000048a0       ??_C@_07MEBHOIG@__new__@   00000001800208a0     tryblks.obj
 0002:000048a8       ??_C@_0BB@LPCDDCDP@__swig_destroy__@ 00000001800208a8     tryblks.obj
 0002:000048c0       ??_C@_07CIFAGBMG@unknown@  00000001800208c0     tryblks.obj
 0002:000048c8       ??_C@_0CB@HIOLGNHE@?$DMSwig?5Object?5of?5type?5?8?$CFs?8?5at?5?$CFp@ 00000001800208c8     tryblks.obj
 0002:000048f0       ??_C@_08BHKDPDAA@__name__@ 00000001800208f0     tryblks.obj
 0002:00004900       ??_C@_0N@OEDBPMFH@SwigPyObject@ 0000000180020900     tryblks.obj
 0002:00004910       ??_C@_0EH@KGGHIIII@swig?1python?5detected?5a?5memory?5l@ 0000000180020910     tryblks.obj
 0002:00004958       ??_C@_0CF@NBDOMJMA@Attempt?5to?5append?5a?5non?5SwigPyO@ 0000000180020958     tryblks.obj
 0002:00004980       ??_C@_0BG@BEMBDPAG@?$DMSwig?5Packed?5at?5?$CFs?$CFs?$DO@ 0000000180020980     tryblks.obj
 0002:00004998       ??_C@_0BB@KEMDDLH@?$DMSwig?5Packed?5?$CFs?$DO@ 0000000180020998     tryblks.obj
 0002:000049ac       ??_C@_04HDOCAJNK@?$CFs?$CFs@ 00000001800209ac     tryblks.obj
 0002:000049b8       ??_C@_0N@FALDBJHP@SwigPyPacked@ 00000001800209b8     tryblks.obj
 0002:000049c8       ??_C@_04IIAJELJL@this@     00000001800209c8     tryblks.obj
 0002:000049d0       ??_C@_0L@GCGAIEDO@swig_ptr?3?5@ 00000001800209d0     tryblks.obj
 0002:000049e0       ??_C@_08IBFKALI@__dict__@  00000001800209e0     tryblks.obj
 0002:000049f0       ??_C@_08DOBMGDEN@swiginit@ 00000001800209f0     tryblks.obj
 0002:00004a00       ??_C@_0CO@FOLKHJOC@swig_runtime_data4?4type_pointer@ 0000000180020a00     tryblks.obj
 0002:00004a30       ??_C@_0BD@BFIMCAOH@swig_runtime_data4@ 0000000180020a30     tryblks.obj
 0002:00004a48       ??_C@_0BL@LFDLKGPB@type_pointer_capsuleidaapi@ 0000000180020a48     tryblks.obj
 0002:00004a70       ??_7exception@std@@6B@     0000000180020a70     tryblks.obj
 0002:00004a80       ??_C@_0BC@EOODALEL@Unknown?5exception@ 0000000180020a80     tryblks.obj
 0002:00004aa0       ??_7logic_error@std@@6B@   0000000180020aa0     tryblks.obj
 0002:00004ab8       ??_7out_of_range@std@@6B@  0000000180020ab8     tryblks.obj
 0002:00004ac8       ??_C@_0BK@NPFFDHAP@Out?5of?5memory?5?$CIbad_alloc?$CJ@ 0000000180020ac8     tryblks.obj
 0002:00004af0       ??_C@_0BCP@OKJACFO@Internal?5error?5?$CFd?5occurred?5when@ 0000000180020af0     tryblks.obj
 0002:00004c20       ??_C@_0DB@OCJMLGAO@Function?5can?5be?5called?5from?5the@ 0000000180020c20     tryblks.obj
 0002:00004c58       ??_C@_0BF@NPFMAGNK@out?5of?5bounds?5access@ 0000000180020c58     tryblks.obj
 0002:00004c70       ??_C@_0EM@CLLEFOIA@in?5method?5?8new_tryblks_t?8?0?5argu@ 0000000180020c70     tryblks.obj
 0002:00004cc0       ??_C@_0GD@CPFAGHDK@invalid?5null?5reference?5in?5metho@ 0000000180020cc0     tryblks.obj
 0002:00004d30       ??_C@_0MO@OCIMHHCP@Wrong?5number?5or?5type?5of?5argumen@ 0000000180020d30     tryblks.obj
 0002:00004e00       ??_C@_0EJ@LLMAHJHM@in?5method?5?8delete_tryblks_t?8?0?5a@ 0000000180020e00     tryblks.obj
 0002:00004e50       ??_C@_0EM@OFFJNENB@in?5method?5?8tryblks_t_push_back?8@ 0000000180020e50     tryblks.obj
 0002:00004ea0       ??_C@_0EH@NHEAGMDI@in?5method?5?8tryblks_t_push_back?8@ 0000000180020ea0     tryblks.obj
 0002:00004ef0       ??_C@_0FO@PPGHFHBH@invalid?5null?5reference?5in?5metho@ 0000000180020ef0     tryblks.obj
 0002:00004f50       ??_C@_0MN@OGFBHFEB@Wrong?5number?5or?5type?5of?5argumen@ 0000000180020f50     tryblks.obj
 0002:00005020       ??_C@_0EL@OBBKHJCP@in?5method?5?8tryblks_t_pop_back?8?0@ 0000000180021020     tryblks.obj
 0002:00005070       ??_C@_0EN@LGHJJLAG@in?5method?5?8tryblks_t_size?8?0?5arg@ 0000000180021070     tryblks.obj
 0002:000050c0       ??_C@_0EO@CCDKODHJ@in?5method?5?8tryblks_t_empty?8?0?5ar@ 00000001800210c0     tryblks.obj
 0002:00005110       ??_C@_0EL@MPHOPNHG@in?5method?5?8tryblks_t_at?8?0?5argum@ 0000000180021110     tryblks.obj
 0002:00005160       ??_C@_0DG@GHAGNEF@in?5method?5?8tryblks_t_at?8?0?5argum@ 0000000180021160     tryblks.obj
 0002:000051a0       ??_C@_0EJ@IKMJJEM@in?5method?5?8tryblks_t_qclear?8?0?5a@ 00000001800211a0     tryblks.obj
 0002:000051f0       ??_C@_0EI@NNMNLFFH@in?5method?5?8tryblks_t_clear?8?0?5ar@ 00000001800211f0     tryblks.obj
 0002:00005240       ??_C@_0EJ@JFOEEHIN@in?5method?5?8tryblks_t_resize?8?0?5a@ 0000000180021240     tryblks.obj
 0002:00005290       ??_C@_0DK@ILPAFNLE@in?5method?5?8tryblks_t_resize?8?0?5a@ 0000000180021290     tryblks.obj
 0002:000052d0       ??_C@_0EE@PEBOCDGD@in?5method?5?8tryblks_t_resize?8?0?5a@ 00000001800212d0     tryblks.obj
 0002:00005320       ??_C@_0FL@PEHELHKC@invalid?5null?5reference?5in?5metho@ 0000000180021320     tryblks.obj
 0002:00005380       ??_C@_0NB@FMKGLHKP@Wrong?5number?5or?5type?5of?5argumen@ 0000000180021380     tryblks.obj
 0002:00005460       ??_C@_0EH@FLHGLOK@in?5method?5?8tryblks_t_grow?8?0?5arg@ 0000000180021460     tryblks.obj
 0002:000054b0       ??_C@_0EC@CCEBDNLC@in?5method?5?8tryblks_t_grow?8?0?5arg@ 00000001800214b0     tryblks.obj
 0002:00005500       ??_C@_0FJ@GKAMPKD@invalid?5null?5reference?5in?5metho@ 0000000180021500     tryblks.obj
 0002:00005560       ??_C@_0FB@BGCBNBJP@in?5method?5?8tryblks_t_capacity?8?0@ 0000000180021560     tryblks.obj
 0002:000055c0       ??_C@_0EK@IHCBMPBE@in?5method?5?8tryblks_t_reserve?8?0?5@ 00000001800215c0     tryblks.obj
 0002:00005610       ??_C@_0DL@ECPKEFI@in?5method?5?8tryblks_t_reserve?8?0?5@ 0000000180021610     tryblks.obj
 0002:00005650       ??_C@_0EL@JABGPEJJ@in?5method?5?8tryblks_t_truncate?8?0@ 0000000180021650     tryblks.obj
 0002:000056a0       ??_C@_0EH@PHCDBBDP@in?5method?5?8tryblks_t_swap?8?0?5arg@ 00000001800216a0     tryblks.obj
 0002:000056f0       ??_C@_0EH@JDLPBLAB@in?5method?5?8tryblks_t_swap?8?0?5arg@ 00000001800216f0     tryblks.obj
 0002:00005740       ??_C@_0FO@LLJICACO@invalid?5null?5reference?5in?5metho@ 0000000180021740     tryblks.obj
 0002:000057a0       ??_C@_0EK@EAOHEICE@in?5method?5?8tryblks_t_extract?8?0?5@ 00000001800217a0     tryblks.obj
 0002:000057f0       ??_C@_0EJ@BAHGKELA@in?5method?5?8tryblks_t_inject?8?0?5a@ 00000001800217f0     tryblks.obj
 0002:00005840       ??_C@_0DO@NGAAIKLL@in?5method?5?8tryblks_t_inject?8?0?5a@ 0000000180021840     tryblks.obj
 0002:00005880       ??_C@_0DK@OELNJJOL@in?5method?5?8tryblks_t_inject?8?0?5a@ 0000000180021880     tryblks.obj
 0002:000058c0       ??_C@_0EP@CNAFMMC@in?5method?5?8tryblks_t___eq__?8?0?5a@ 00000001800218c0     tryblks.obj
 0002:00005910       ??_C@_0EP@CBHGBFCO@in?5method?5?8tryblks_t___eq__?8?0?5a@ 0000000180021910     tryblks.obj
 0002:00005960       ??_C@_0GG@EAFMMFDH@invalid?5null?5reference?5in?5metho@ 0000000180021960     tryblks.obj
 0002:000059d0       ??_C@_0EP@NGBABIA@in?5method?5?8tryblks_t___ne__?8?0?5a@ 00000001800219d0     tryblks.obj
 0002:00005a20       ??_C@_0EP@COMHEIGM@in?5method?5?8tryblks_t___ne__?8?0?5a@ 0000000180021a20     tryblks.obj
 0002:00005a70       ??_C@_0GG@EPONJIHF@invalid?5null?5reference?5in?5metho@ 0000000180021a70     tryblks.obj
 0002:00005ae0       ??_C@_0EI@DIMJGIJH@in?5method?5?8tryblks_t_begin?8?0?5ar@ 0000000180021ae0     tryblks.obj
 0002:00005b30       ??_C@_0EG@BGJLOALC@in?5method?5?8tryblks_t_end?8?0?5argu@ 0000000180021b30     tryblks.obj
 0002:00005b80       ??_C@_0EO@BFBFLDGC@in?5method?5?8tryblks_t_begin?8?0?5ar@ 0000000180021b80     tryblks.obj
 0002:00005bd0       ??_C@_0LH@KDIOJNIO@Wrong?5number?5or?5type?5of?5argumen@ 0000000180021bd0     tryblks.obj
 0002:00005c90       ??_C@_0EM@JADFHAHH@in?5method?5?8tryblks_t_end?8?0?5argu@ 0000000180021c90     tryblks.obj
 0002:00005ce0       ??_C@_0LB@GEHMIIPD@Wrong?5number?5or?5type?5of?5argumen@ 0000000180021ce0     tryblks.obj
 0002:00005da0       ??_C@_0EJ@BAIIPIIM@in?5method?5?8tryblks_t_insert?8?0?5a@ 0000000180021da0     tryblks.obj
 0002:00005df0       ??_C@_0FB@FOCLBGNA@in?5method?5?8tryblks_t_insert?8?0?5a@ 0000000180021df0     tryblks.obj
 0002:00005e50       ??_C@_0EE@JOPNMIJO@in?5method?5?8tryblks_t_insert?8?0?5a@ 0000000180021e50     tryblks.obj
 0002:00005ea0       ??_C@_0FL@JOJHFMFP@invalid?5null?5reference?5in?5metho@ 0000000180021ea0     tryblks.obj
 0002:00005f00       ??_C@_0EI@NEEJJHBD@in?5method?5?8tryblks_t_erase?8?0?5ar@ 0000000180021f00     tryblks.obj
 0002:00005f50       ??_C@_0FA@BDFEAPIL@in?5method?5?8tryblks_t_erase?8?0?5ar@ 0000000180021f50     tryblks.obj
 0002:00005fa0       ??_C@_0FA@LCGNILGF@in?5method?5?8tryblks_t_erase?8?0?5ar@ 0000000180021fa0     tryblks.obj
 0002:00005ff0       ??_C@_0BAJ@FJFFOFGL@Wrong?5number?5or?5type?5of?5argumen@ 0000000180021ff0     tryblks.obj
 0002:00006100       ??_C@_0EH@FFFIOMGK@in?5method?5?8tryblks_t_find?8?0?5arg@ 0000000180022100     tryblks.obj
 0002:00006150       ??_C@_0EC@NGJBAAAM@in?5method?5?8tryblks_t_find?8?0?5arg@ 0000000180022150     tryblks.obj
 0002:000061a0       ??_C@_0FJ@PCHAPCBN@invalid?5null?5reference?5in?5metho@ 00000001800221a0     tryblks.obj
 0002:00006200       ??_C@_0EN@LNIMHBEF@in?5method?5?8tryblks_t_find?8?0?5arg@ 0000000180022200     tryblks.obj
 0002:00006250       ??_C@_0NE@PMBLFGOA@Wrong?5number?5or?5type?5of?5argumen@ 0000000180022250     tryblks.obj
 0002:00006330       ??_C@_0EM@NLDEIKMG@in?5method?5?8tryblks_t_has?8?0?5argu@ 0000000180022330     tryblks.obj
 0002:00006380       ??_C@_0EB@FAHJLLOH@in?5method?5?8tryblks_t_has?8?0?5argu@ 0000000180022380     tryblks.obj
 0002:000063d0       ??_C@_0FI@FCIAMBE@invalid?5null?5reference?5in?5metho@ 00000001800223d0     tryblks.obj
 0002:00006430       ??_C@_0EN@JJOGPDD@in?5method?5?8tryblks_t_add_unique@ 0000000180022430     tryblks.obj
 0002:00006480       ??_C@_0EI@DGOJIHOM@in?5method?5?8tryblks_t_add_unique@ 0000000180022480     tryblks.obj
 0002:000064d0       ??_C@_0FP@JNBAJNIO@invalid?5null?5reference?5in?5metho@ 00000001800224d0     tryblks.obj
 0002:00006530       ??_C@_0EH@KKPIAPJP@in?5method?5?8tryblks_t__del?8?0?5arg@ 0000000180022530     tryblks.obj
 0002:00006580       ??_C@_0EC@LOKPBCCP@in?5method?5?8tryblks_t__del?8?0?5arg@ 0000000180022580     tryblks.obj
 0002:000065d0       ??_C@_0FJ@JKEOOADO@invalid?5null?5reference?5in?5metho@ 00000001800225d0     tryblks.obj
 0002:00006630       ??_C@_0FA@FFLFFPH@in?5method?5?8tryblks_t___len__?8?0?5@ 0000000180022630     tryblks.obj
 0002:00006680       ??_C@_0FE@PEMNLPJC@in?5method?5?8tryblks_t___getitem_@ 0000000180022680     tryblks.obj
 0002:000066d8       ??_C@_0DP@KPNMEOPJ@in?5method?5?8tryblks_t___getitem_@ 00000001800226d8     tryblks.obj
 0002:00006720       ??_C@_0EO@EOJHLCEB@in?5method?5?8tryblks_t___setitem_@ 0000000180022720     tryblks.obj
 0002:00006770       ??_C@_0DP@ILLKAONI@in?5method?5?8tryblks_t___setitem_@ 0000000180022770     tryblks.obj
 0002:000067b0       ??_C@_0EJ@MMEHGEAL@in?5method?5?8tryblks_t___setitem_@ 00000001800227b0     tryblks.obj
 0002:00006800       ??_C@_0GA@GPFAJNGF@invalid?5null?5reference?5in?5metho@ 0000000180022800     tryblks.obj
 0002:00006860       ??_C@_0N@JBELKAOG@swigregister@ 0000000180022860     tryblks.obj
 0002:00006870       ??_C@_0EM@PEBOMENB@in?5method?5?8new_catchvec_t?8?0?5arg@ 0000000180022870     tryblks.obj
 0002:000068c0       ??_C@_0GD@PAPKPNGL@invalid?5null?5reference?5in?5metho@ 00000001800228c0     tryblks.obj
 0002:00006930       ??_C@_0MM@HDGLFCBI@Wrong?5number?5or?5type?5of?5argumen@ 0000000180022930     tryblks.obj
 0002:00006a00       ??_C@_0EJ@FGEHDLAF@in?5method?5?8delete_catchvec_t?8?0?5@ 0000000180022a00     tryblks.obj
 0002:00006a50       ??_C@_0EM@CILBBJJD@in?5method?5?8catchvec_t_push_back@ 0000000180022a50     tryblks.obj
 0002:00006aa0       ??_C@_0EH@GMJFNFAP@in?5method?5?8catchvec_t_push_back@ 0000000180022aa0     tryblks.obj
 0002:00006af0       ??_C@_0FO@EELCOOCA@invalid?5null?5reference?5in?5metho@ 0000000180022af0     tryblks.obj
 0002:00006b50       ??_C@_0ML@GOPCDLMG@Wrong?5number?5or?5type?5of?5argumen@ 0000000180022b50     tryblks.obj
 0002:00006c20       ??_C@_0EL@LAAMBOA@in?5method?5?8catchvec_t_pop_back?8@ 0000000180022c20     tryblks.obj
 0002:00006c70       ??_C@_0EN@GBBJELGL@in?5method?5?8catchvec_t_size?8?0?5ar@ 0000000180022c70     tryblks.obj
 0002:00006cc0       ??_C@_0EO@JAEBHPDG@in?5method?5?8catchvec_t_empty?8?0?5a@ 0000000180022cc0     tryblks.obj
 0002:00006d10       ??_C@_0EL@MMJBJADH@in?5method?5?8catchvec_t_at?8?0?5argu@ 0000000180022d10     tryblks.obj
 0002:00006d60       ??_C@_0DH@MKLMGAA@in?5method?5?8catchvec_t_at?8?0?5argu@ 0000000180022d60     tryblks.obj
 0002:00006da0       ??_C@_0EJ@PFEJDLPN@in?5method?5?8catchvec_t_qclear?8?0?5@ 0000000180022da0     tryblks.obj
 0002:00006df0       ??_C@_0EI@FGKKBHML@in?5method?5?8catchvec_t_clear?8?0?5a@ 0000000180022df0     tryblks.obj
 0002:00006e40       ??_C@_0EJ@GPOAFFHI@in?5method?5?8catchvec_t_resize?8?0?5@ 0000000180022e40     tryblks.obj
 0002:00006e90       ??_C@_0DL@HAAOLCPA@in?5method?5?8catchvec_t_resize?8?0?5@ 0000000180022e90     tryblks.obj
 0002:00006ed0       ??_C@_0EE@OEKJMGOD@in?5method?5?8catchvec_t_resize?8?0?5@ 0000000180022ed0     tryblks.obj
 0002:00006f20       ??_C@_0FL@OEMDFCCC@invalid?5null?5reference?5in?5metho@ 0000000180022f20     tryblks.obj
 0002:00006f80       ??_C@_0MP@PMIGFNJI@Wrong?5number?5or?5type?5of?5argumen@ 0000000180022f80     tryblks.obj
 0002:00007050       ??_C@_0EH@MIPNBGEA@in?5method?5?8catchvec_t_grow?8?0?5ar@ 0000000180023050     tryblks.obj
 0002:000070a0       ??_C@_0EC@OLLLFHM@in?5method?5?8catchvec_t_grow?8?0?5ar@ 00000001800230a0     tryblks.obj
 0002:000070f0       ??_C@_0FJ@CKFKEHGN@invalid?5null?5reference?5in?5metho@ 00000001800230f0     tryblks.obj
 0002:00007150       ??_C@_0FB@MGMKPOCL@in?5method?5?8catchvec_t_capacity?8@ 0000000180023150     tryblks.obj
 0002:000071b0       ??_C@_0EK@HPJMGIP@in?5method?5?8catchvec_t_reserve?8?0@ 00000001800231b0     tryblks.obj
 0002:00007200       ??_C@_0DM@HFGFNPDO@in?5method?5?8catchvec_t_reserve?8?0@ 0000000180023200     tryblks.obj
 0002:00007240       ??_C@_0EL@LGAIPOKE@in?5method?5?8catchvec_t_truncate?8@ 0000000180023240     tryblks.obj
 0002:00007290       ??_C@_0EH@DOIHINBD@in?5method?5?8catchvec_t_swap?8?0?5ar@ 0000000180023290     tryblks.obj
 0002:000072e0       ??_C@_0EH@GMIKMFGC@in?5method?5?8catchvec_t_swap?8?0?5ar@ 00000001800232e0     tryblks.obj
 0002:00007330       ??_C@_0FO@EEKNPOEN@invalid?5null?5reference?5in?5metho@ 0000000180023330     tryblks.obj
 0002:00007390       ??_C@_0EK@BGNGECPE@in?5method?5?8catchvec_t_extract?8?0@ 0000000180023390     tryblks.obj
 0002:000073e0       ??_C@_0EJ@JIDDLACK@in?5method?5?8catchvec_t_inject?8?0?5@ 00000001800233e0     tryblks.obj
 0002:00007430       ??_C@_0DO@NAABODKN@in?5method?5?8catchvec_t_inject?8?0?5@ 0000000180023430     tryblks.obj
 0002:00007470       ??_C@_0DL@BPEDHGKP@in?5method?5?8catchvec_t_inject?8?0?5@ 0000000180023470     tryblks.obj
 0002:000074b0       ??_C@_0EP@JEBDHKEB@in?5method?5?8catchvec_t___eq__?8?0?5@ 00000001800234b0     tryblks.obj
 0002:00007500       ??_C@_0EP@EOJCJPNO@in?5method?5?8catchvec_t___eq__?8?0?5@ 0000000180023500     tryblks.obj
 0002:00007550       ??_C@_0GG@CPLIEPMH@invalid?5null?5reference?5in?5metho@ 0000000180023550     tryblks.obj
 0002:000075c0       ??_C@_0EP@CFLHAMAI@in?5method?5?8catchvec_t___ne__?8?0?5@ 00000001800235c0     tryblks.obj
 0002:00007610       ??_C@_0EP@PPDGOJJH@in?5method?5?8catchvec_t___ne__?8?0?5@ 0000000180023610     tryblks.obj
 0002:00007660       ??_C@_0GG@JOBMDJIO@invalid?5null?5reference?5in?5metho@ 0000000180023660     tryblks.obj
 0002:000076d0       ??_C@_0EI@IHMJNKAG@in?5method?5?8catchvec_t_begin?8?0?5a@ 00000001800236d0     tryblks.obj
 0002:00007720       ??_C@_0EG@EJCNAOFO@in?5method?5?8catchvec_t_end?8?0?5arg@ 0000000180023720     tryblks.obj
 0002:00007770       ??_C@_0EO@GHCKJENN@in?5method?5?8catchvec_t_begin?8?0?5a@ 0000000180023770     tryblks.obj
 0002:000077c0       ??_C@_0LG@KAIFPGDL@Wrong?5number?5or?5type?5of?5argumen@ 00000001800237c0     tryblks.obj
 0002:00007880       ??_C@_0EM@DJKOKKPL@in?5method?5?8catchvec_t_end?8?0?5arg@ 0000000180023880     tryblks.obj
 0002:000078d0       ??_C@_0LA@DBKEKKFL@Wrong?5number?5or?5type?5of?5argumen@ 00000001800238d0     tryblks.obj
 0002:00007980       ??_C@_0EJ@GGGPIMCK@in?5method?5?8catchvec_t_insert?8?0?5@ 0000000180023980     tryblks.obj
 0002:000079d0       ??_C@_0FB@IMIPAOGH@in?5method?5?8catchvec_t_insert?8?0?5@ 00000001800239d0     tryblks.obj
 0002:00007a30       ??_C@_0EE@LHGCMJPC@in?5method?5?8catchvec_t_insert?8?0?5@ 0000000180023a30     tryblks.obj
 0002:00007a80       ??_C@_0FL@LHAIFNDD@invalid?5null?5reference?5in?5metho@ 0000000180023a80     tryblks.obj
 0002:00007ae0       ??_C@_0EI@GEMEHIMH@in?5method?5?8catchvec_t_erase?8?0?5a@ 0000000180023ae0     tryblks.obj
 0002:00007b30       ??_C@_0FA@NHAJCFA@in?5method?5?8catchvec_t_erase?8?0?5a@ 0000000180023b30     tryblks.obj
 0002:00007b80       ??_C@_0FA@OFGHACPB@in?5method?5?8catchvec_t_erase?8?0?5a@ 0000000180023b80     tryblks.obj
 0002:00007bd0       ??_C@_0BAF@DHIEJMNP@Wrong?5number?5or?5type?5of?5argumen@ 0000000180023bd0     tryblks.obj
 0002:00007ce0       ??_C@_0EH@CCALKKDA@in?5method?5?8catchvec_t_find?8?0?5ar@ 0000000180023ce0     tryblks.obj
 0002:00007d30       ??_C@_0EC@KDDFKGK@in?5method?5?8catchvec_t_find?8?0?5ar@ 0000000180023d30     tryblks.obj
 0002:00007d80       ??_C@_0FJ@CONCKIHL@invalid?5null?5reference?5in?5metho@ 0000000180023d80     tryblks.obj
 0002:00007de0       ??_C@_0EN@EPCMCJKE@in?5method?5?8catchvec_t_find?8?0?5ar@ 0000000180023de0     tryblks.obj
 0002:00007e30       ??_C@_0NB@OBPJLJDJ@Wrong?5number?5or?5type?5of?5argumen@ 0000000180023e30     tryblks.obj
 0002:00007f10       ??_C@_0EM@DMIAFMNO@in?5method?5?8catchvec_t_has?8?0?5arg@ 0000000180023f10     tryblks.obj
 0002:00007f60       ??_C@_0EB@CBAKAHMM@in?5method?5?8catchvec_t_has?8?0?5arg@ 0000000180023f60     tryblks.obj
 0002:00007fb0       ??_C@_0FI@HEFLLADP@invalid?5null?5reference?5in?5metho@ 0000000180023fb0     tryblks.obj
 0002:00008010       ??_C@_0EN@EBJEOBPC@in?5method?5?8catchvec_t_add_uniqu@ 0000000180024010     tryblks.obj
 0002:00008060       ??_C@_0EI@CCEEHPGH@in?5method?5?8catchvec_t_add_uniqu@ 0000000180024060     tryblks.obj
 0002:000080b0       ??_C@_0FP@IJLNGFAF@invalid?5null?5reference?5in?5metho@ 00000001800240b0     tryblks.obj
 0002:00008110       ??_C@_0EH@INICCPOJ@in?5method?5?8catchvec_t__del?8?0?5ar@ 0000000180024110     tryblks.obj
 0002:00008160       ??_C@_0EC@OJJCIBLI@in?5method?5?8catchvec_t__del?8?0?5ar@ 0000000180024160     tryblks.obj
 0002:000081b0       ??_C@_0FJ@MNHDHDKJ@invalid?5null?5reference?5in?5metho@ 00000001800241b0     tryblks.obj
 0002:00008210       ??_C@_0FA@JMFBFPGE@in?5method?5?8catchvec_t___len__?8?0@ 0000000180024210     tryblks.obj
 0002:00008260       ??_C@_0FE@BOCBBFME@in?5method?5?8catchvec_t___getitem@ 0000000180024260     tryblks.obj
 0002:000082c0       ??_C@_0EA@MEKBIHLC@in?5method?5?8catchvec_t___getitem@ 00000001800242c0     tryblks.obj
 0002:00008300       ??_C@_0EO@CMJNCDMI@in?5method?5?8catchvec_t___setitem@ 0000000180024300     tryblks.obj
 0002:00008350       ??_C@_0EA@OAMHMHJD@in?5method?5?8catchvec_t___setitem@ 0000000180024350     tryblks.obj
 0002:00008390       ??_C@_0EJ@CBBECIGN@in?5method?5?8catchvec_t___setitem@ 0000000180024390     tryblks.obj
 0002:000083e0       ??_C@_0GA@ICADNBAD@invalid?5null?5reference?5in?5metho@ 00000001800243e0     tryblks.obj
 0002:00008440       ??_C@_0EJ@MMGHEGDH@in?5method?5?8try_handler_t_disp_s@ 0000000180024440     tryblks.obj
 0002:00008490       ??_C@_0EA@MPMOFHAD@in?5method?5?8try_handler_t_disp_s@ 0000000180024490     tryblks.obj
 0002:000084d0       ??_C@_0EJ@KBEAOBKM@in?5method?5?8try_handler_t_disp_g@ 00000001800244d0     tryblks.obj
 0002:00008520       ??_C@_0EK@IDOIECJM@in?5method?5?8try_handler_t_fpreg_@ 0000000180024520     tryblks.obj
 0002:00008570       ??_C@_0DO@HALKOBNO@in?5method?5?8try_handler_t_fpreg_@ 0000000180024570     tryblks.obj
 0002:000085b0       ??_C@_0EK@OOMPOFAH@in?5method?5?8try_handler_t_fpreg_@ 00000001800245b0     tryblks.obj
 0002:00008600       ??_C@_0EG@JDHPLHBC@in?5method?5?8try_handler_t_clear?8@ 0000000180024600     tryblks.obj
 0002:00008650       ??_C@_0EH@KEPHDJJ@in?5method?5?8delete_try_handler_t@ 0000000180024650     tryblks.obj
 0002:00008698       ??_C@_0DL@GPBGPEED@in?5method?5?8seh_t_filter_set?8?0?5a@ 0000000180024698     tryblks.obj
 0002:000086e0       ??_C@_0EA@MOCMEIII@in?5method?5?8seh_t_filter_set?8?0?5a@ 00000001800246e0     tryblks.obj
 0002:00008720       ??_C@_0DL@KIHGODKK@in?5method?5?8seh_t_filter_get?8?0?5a@ 0000000180024720     tryblks.obj
 0002:00008760       ??_C@_0DN@IBBNDDD@in?5method?5?8seh_t_seh_code_set?8?0@ 0000000180024760     tryblks.obj
 0002:000087a0       ??_C@_0DK@KJBPFBIC@in?5method?5?8seh_t_seh_code_set?8?0@ 00000001800247a0     tryblks.obj
 0002:000087e0       ??_C@_0DN@MPHBMENK@in?5method?5?8seh_t_seh_code_get?8?0@ 00000001800247e0     tryblks.obj
 0002:00008820       ??_C@_0DG@OPJNEIAB@in?5method?5?8seh_t_clear?8?0?5argume@ 0000000180024820     tryblks.obj
 0002:00008858       ??_C@_0DH@GCHLLFOI@in?5method?5?8delete_seh_t?8?0?5argum@ 0000000180024858     tryblks.obj
 0002:00008890       ??_C@_0DM@EILPLFPO@in?5method?5?8catch_t_obj_set?8?0?5ar@ 0000000180024890     tryblks.obj
 0002:000088d0       ??_C@_0DJ@IODLNHFF@in?5method?5?8catch_t_obj_set?8?0?5ar@ 00000001800248d0     tryblks.obj
 0002:00008910       ??_C@_0DM@EENALPPM@in?5method?5?8catch_t_obj_get?8?0?5ar@ 0000000180024910     tryblks.obj
 0002:00008950       ??_C@_0EA@NLIPOLNI@in?5method?5?8catch_t_type_id_set?8@ 0000000180024950     tryblks.obj
 0002:00008990       ??_C@_0DN@OBAFEGHG@in?5method?5?8catch_t_type_id_set?8@ 0000000180024990     tryblks.obj
 0002:000089d0       ??_C@_0EA@NHOAOBNK@in?5method?5?8catch_t_type_id_get?8@ 00000001800249d0     tryblks.obj
 0002:00008a10       ??_C@_0DL@NHOMBEFM@in?5method?5?8delete_catch_t?8?0?5arg@ 0000000180024a10     tryblks.obj
 0002:00008a50       ??_C@_0EA@JKLGIBEA@in?5method?5?8tryblk_t_level_set?8?0@ 0000000180024a50     tryblks.obj
 0002:00008a90       ??_C@_0DL@BMDNJLLJ@in?5method?5?8tryblk_t_level_set?8?0@ 0000000180024a90     tryblks.obj
 0002:00008ad0       ??_C@_0EA@HELEIPGG@in?5method?5?8tryblk_t_level_get?8?0@ 0000000180024ad0     tryblks.obj
 0002:00008b10       ??_C@_0DK@GGCPEGIN@in?5method?5?8tryblk_t_cpp?8?0?5argum@ 0000000180024b10     tryblks.obj
 0002:00008b50       ??_C@_0DK@MOODHLIP@in?5method?5?8tryblk_t_seh?8?0?5argum@ 0000000180024b50     tryblks.obj
 0002:00008b90       ??_C@_0DN@LDBKAKOI@in?5method?5?8delete_tryblk_t?8?0?5ar@ 0000000180024b90     tryblks.obj
 0002:00008bd0       ??_C@_0EA@PKBLEDMN@in?5method?5?8new_tryblk_t?8?0?5argum@ 0000000180024bd0     tryblks.obj
 0002:00008c10       ??_C@_0FH@KOIKJPHK@invalid?5null?5reference?5in?5metho@ 0000000180024c10     tryblks.obj
 0002:00008c70       ??_C@_0KO@LAFEDECN@Wrong?5number?5or?5type?5of?5argumen@ 0000000180024c70     tryblks.obj
 0002:00008d20       ??_C@_0EF@DAEIFBMM@in?5method?5?8tryblk_t_get_kind?8?0?5@ 0000000180024d20     tryblks.obj
 0002:00008d70       ??_C@_0EC@HOPKINBE@in?5method?5?8tryblk_t_empty?8?0?5arg@ 0000000180024d70     tryblks.obj
 0002:00008dc0       ??_C@_0ED@PKPMKCNG@in?5method?5?8tryblk_t_is_seh?8?0?5ar@ 0000000180024dc0     tryblks.obj
 0002:00008e10       ??_C@_0ED@FHFCCIM@in?5method?5?8tryblk_t_is_cpp?8?0?5ar@ 0000000180024e10     tryblks.obj
 0002:00008e58       ??_C@_0DM@NANKIEJF@in?5method?5?8tryblk_t_clear?8?0?5arg@ 0000000180024e58     tryblks.obj
 0002:00008e98       ??_C@_0DO@LAAOJACB@in?5method?5?8tryblk_t_set_seh?8?0?5a@ 0000000180024e98     tryblks.obj
 0002:00008ed8       ??_C@_0DO@BIMCKNCD@in?5method?5?8tryblk_t_set_cpp?8?0?5a@ 0000000180024ed8     tryblks.obj
 0002:00008f18       ??_C@_0DK@LJNBKKIB@in?5method?5?8get_tryblks?8?0?5argume@ 0000000180024f18     tryblks.obj
 0002:00008f58       ??_C@_0DO@HBLAHLJE@in?5method?5?8get_tryblks?8?0?5argume@ 0000000180024f58     tryblks.obj
 0002:00008fa0       ??_C@_0FF@CFNMNPDH@invalid?5null?5reference?5in?5metho@ 0000000180024fa0     tryblks.obj
 0002:00008ff8       ??_C@_0DO@MPAENPCE@in?5method?5?8del_tryblks?8?0?5argume@ 0000000180024ff8     tryblks.obj
 0002:00009040       ??_C@_0FF@JLGIHLIH@invalid?5null?5reference?5in?5metho@ 0000000180025040     tryblks.obj
 0002:00009098       ??_C@_0DO@IBGPCHAD@in?5method?5?8add_tryblk?8?0?5argumen@ 0000000180025098     tryblks.obj
 0002:000090e0       ??_C@_0FF@NFADIDKA@invalid?5null?5reference?5in?5metho@ 00000001800250e0     tryblks.obj
 0002:00009138       ??_C@_0DC@KEMENLIH@in?5method?5?8find_syseh?8?0?5argumen@ 0000000180025138     tryblks.obj
 0002:00009170       ??_C@_0N@LFBLGJPA@_ida_tryblks@ 0000000180025170     tryblks.obj
 0002:00009200       ??_C@_08LDHDBCPF@TBERR_OK@ 0000000180025200     tryblks.obj
 0002:00009210       ??_C@_0M@GBEHOLI@TBERR_START@ 0000000180025210     tryblks.obj
 0002:00009220       ??_C@_09DAAHNNAP@TBERR_END@ 0000000180025220     tryblks.obj
 0002:00009230       ??_C@_0M@IFKNKLLJ@TBERR_ORDER@ 0000000180025230     tryblks.obj
 0002:00009240       ??_C@_0M@OHONFIMI@TBERR_EMPTY@ 0000000180025240     tryblks.obj
 0002:00009250       ??_C@_0L@CLOKJDED@TBERR_KIND@ 0000000180025250     tryblks.obj
 0002:00009260       ??_C@_0BB@IMNAIJKK@TBERR_NO_CATCHES@ 0000000180025260     tryblks.obj
 0002:00009278       ??_C@_0BA@HHAPEAEO@TBERR_INTERSECT@ 0000000180025278     tryblks.obj
 0002:00009290       __xmm@ffffffffffffffffffffffffffffffff 0000000180025290     tryblks.obj
 0002:000092d0       ??_C@_1EC@JIJBPKFM@?$AAa?$AAp?$AAi?$AA?9?$AAm?$AAs?$AA?9?$AAw?$AAi?$AAn?$AA?9?$AAc?$AAo?$AAr?$AAe@ 00000001800252d0     MSVCRT:thread_safe_statics.obj
 0002:00009318       ??_C@_1BK@MGMFAEKH@?$AAk?$AAe?$AAr?$AAn?$AAe?$AAl?$AA3?$AA2?$AA?4?$AAd?$AAl?$AAl@ 0000000180025318     MSVCRT:thread_safe_statics.obj
 0002:00009338       ??_C@_0BM@HLJJNPAH@InitializeConditionVariable@ 0000000180025338     MSVCRT:thread_safe_statics.obj
 0002:00009358       ??_C@_0BJ@JEBJOJFJ@SleepConditionVariableCS@ 0000000180025358     MSVCRT:thread_safe_statics.obj
 0002:00009378       ??_C@_0BJ@PGPPEPCC@WakeAllConditionVariable@ 0000000180025378     MSVCRT:thread_safe_statics.obj
 0002:000093a0       ??_7type_info@@6B@         00000001800253a0     MSVCRT:std_type_info_static.obj
 0002:000093a8       _pDefaultRawDllMain        00000001800253a8     MSVCRT:dll_dllmain.obj
 0002:000093a8       _pRawDllMain               00000001800253a8     MSVCRT:dll_dllmain.obj
 0002:00009420       _load_config_used          0000000180025420     MSVCRT:loadcfg.obj
 0002:00009520       _tls_used                  0000000180025520     MSVCRT:tlssup.obj
 0002:00009548       ??_R4exception@std@@6B@    0000000180025548     tryblks.obj
 0002:00009570       ??_R3exception@std@@8      0000000180025570     tryblks.obj
 0002:00009588       ??_R2exception@std@@8      0000000180025588     tryblks.obj
 0002:00009598       ??_R1A@?0A@EA@exception@std@@8 0000000180025598     tryblks.obj
 0002:000095c0       ??_R4logic_error@std@@6B@  00000001800255c0     tryblks.obj
 0002:000095e8       ??_R3logic_error@std@@8    00000001800255e8     tryblks.obj
 0002:00009600       ??_R2logic_error@std@@8    0000000180025600     tryblks.obj
 0002:00009618       ??_R1A@?0A@EA@logic_error@std@@8 0000000180025618     tryblks.obj
 0002:00009640       ??_R4out_of_range@std@@6B@ 0000000180025640     tryblks.obj
 0002:00009668       ??_R3out_of_range@std@@8   0000000180025668     tryblks.obj
 0002:00009680       ??_R2out_of_range@std@@8   0000000180025680     tryblks.obj
 0002:000096a0       ??_R1A@?0A@EA@out_of_range@std@@8 00000001800256a0     tryblks.obj
 0002:000096c8       ??_R4type_info@@6B@        00000001800256c8     MSVCRT:std_type_info_static.obj
 0002:000096f0       ??_R3type_info@@8          00000001800256f0     MSVCRT:std_type_info_static.obj
 0002:00009708       ??_R2type_info@@8          0000000180025708     MSVCRT:std_type_info_static.obj
 0002:00009718       ??_R1A@?0A@EA@type_info@@8 0000000180025718     MSVCRT:std_type_info_static.obj
 0002:00009a50       __rtc_iaa                  0000000180025a50     MSVCRT:initsect.obj
 0002:00009a58       __rtc_izz                  0000000180025a58     MSVCRT:initsect.obj
 0002:00009a60       __rtc_taa                  0000000180025a60     MSVCRT:initsect.obj
 0002:00009a68       __rtc_tzz                  0000000180025a68     MSVCRT:initsect.obj
 0002:00009a70       _tls_start                 0000000180025a70     MSVCRT:tlssup.obj
 0002:00009a74       _Init_thread_epoch         0000000180025a74     MSVCRT:thread_safe_statics.obj
 0002:00009a78       _tls_end                   0000000180025a78     MSVCRT:tlssup.obj
 0002:0000f9e8       _CT??_R0?AVexception@std@@@8??0exception@std@@QEAA@AEBV01@@Z24 000000018002b9e8     tryblks.obj
 0002:0000fa10       _TI3?AVout_of_range@std@@  000000018002ba10     tryblks.obj
 0002:0000fa30       _CTA3?AVout_of_range@std@@ 000000018002ba30     tryblks.obj
 0002:0000fa50       _CT??_R0?AVout_of_range@std@@@8??0out_of_range@std@@QEAA@AEBV01@@Z24 000000018002ba50     tryblks.obj
 0002:0000fa78       _CT??_R0?AVlogic_error@std@@@8??0logic_error@std@@QEAA@AEBV01@@Z24 000000018002ba78     tryblks.obj
 0002:0000faf8       __IMPORT_DESCRIPTOR_ida    000000018002baf8     ida:ida.dll
 0002:0000fb0c       __IMPORT_DESCRIPTOR_python38 000000018002bb0c     python38:python38.dll
 0002:0000fb20       __IMPORT_DESCRIPTOR_python 000000018002bb20     python:python.dll
 0002:0000fb34       __IMPORT_DESCRIPTOR_KERNEL32 000000018002bb34     kernel32:KERNEL32.dll
 0002:0000fb48       __IMPORT_DESCRIPTOR_VCRUNTIME140 000000018002bb48     vcruntime:VCRUNTIME140.dll
 0002:0000fb5c       __IMPORT_DESCRIPTOR_api-ms-win-crt-stdio-l1-1-0 000000018002bb5c     ucrt:api-ms-win-crt-stdio-l1-1-0.dll
 0002:0000fb70       __IMPORT_DESCRIPTOR_api-ms-win-crt-string-l1-1-0 000000018002bb70     ucrt:api-ms-win-crt-string-l1-1-0.dll
 0002:0000fb84       __IMPORT_DESCRIPTOR_api-ms-win-crt-heap-l1-1-0 000000018002bb84     ucrt:api-ms-win-crt-heap-l1-1-0.dll
 0002:0000fb98       __IMPORT_DESCRIPTOR_api-ms-win-crt-runtime-l1-1-0 000000018002bb98     ucrt:api-ms-win-crt-runtime-l1-1-0.dll
 0002:0000fbac       __NULL_IMPORT_DESCRIPTOR   000000018002bbac     ida:ida.dll
 0003:00003658       _Init_global_epoch         0000000180030658     MSVCRT:thread_safe_statics.obj
 0003:00003660       __security_cookie_complement 0000000180030660     MSVCRT:gs_cookie.obj
 0003:00003668       __security_cookie          0000000180030668     MSVCRT:gs_cookie.obj
 0003:00003670       __scrt_native_dllmain_reason 0000000180030670     MSVCRT:utility.obj
 0003:00003678       __isa_available            0000000180030678     MSVCRT:cpu_disp.obj
 0003:0000367c       __isa_enabled              000000018003067c     MSVCRT:cpu_disp.obj
 0003:00003680       __memcpy_nt_iters          0000000180030680     MSVCRT:cpu_disp.obj
 0003:00003690       __scrt_ucrt_dll_is_in_use  0000000180030690     MSVCRT:ucrt_stubs.obj
 0003:00003698       ??_R0?AVexception@std@@@8  0000000180030698     tryblks.obj
 0003:000036c0       ??_R0?AVDirectorException@Swig@@@8 00000001800306c0     tryblks.obj
 0003:000036f0       ??_R0?AVout_of_range@std@@@8 00000001800306f0     tryblks.obj
 0003:00003718       ??_R0?AVlogic_error@std@@@8 0000000180030718     tryblks.obj
 0003:00003740       ??_R0?AVbad_alloc@std@@@8  0000000180030740     tryblks.obj
 0003:00003768       ??_R0?AUinterr_exc_t@@@8   0000000180030768     tryblks.obj
 0003:00003790       ??_R0?AVtype_info@@@8      0000000180030790     MSVCRT:std_type_info_static.obj
 0003:000037b0       ?swig_mutex_own@Director@Swig@@0U_RTL_CRITICAL_SECTION@2@A 00000001800307b0     tryblks.obj
 0003:00003a70       ?_OptionsStorage@?1??__local_stdio_printf_options@@9@4_KA 0000000180030a70     tryblks.obj
 0003:00003af8       _tls_index                 0000000180030af8     MSVCRT:tlssup.obj
 0003:00003b00       __scrt_current_native_startup_state 0000000180030b00     MSVCRT:utility.obj
 0003:00003b08       __scrt_native_startup_lock 0000000180030b08     MSVCRT:utility.obj
 0003:00003b48       __scrt_debugger_hook_flag  0000000180030b48     MSVCRT:utility_desktop.obj
 0003:000040c0       ?__type_info_root_node@@3U__type_info_node@@A 00000001800310c0     MSVCRT:tncleanup.obj
 0003:000040d0       ?_OptionsStorage@?1??__local_stdio_scanf_options@@9@4_KA 00000001800310d0     MSVCRT:default_local_stdio_options.obj
 0003:000040d8       __favor                    00000001800310d8     MSVCRT:cpu_disp.obj
 0003:000040e0       __dyn_tls_init_callback    00000001800310e0     <common>

 entry point at        0001:00012490

 Static symbols

 0000:fffca000       .debug$S                   0000000180000000     ida:ida.dll
 0000:fffca000       .debug$S                   0000000180000000     ida:ida.dll
 0000:fffca000       .debug$S                   0000000180000000     ida:ida.dll
 0000:fffca000       .debug$S                   0000000180000000     ida:ida.dll
 0000:fffca000       .debug$S                   0000000180000000     ida:ida.dll
 0000:fffca000       .debug$S                   0000000180000000     _ida_tryblks.exp
 0000:fffca000       .debug$S                   0000000180000000     ida:ida.dll
 0000:fffca000       .debug$S                   0000000180000000     ida:ida.dll
 0000:fffca000       .debug$S                   0000000180000000     ida:ida.dll
 0000:fffca000       .debug$S                   0000000180000000     ida:ida.dll
 0000:fffca000       .debug$S                   0000000180000000     python38:python38.dll
 0000:fffca000       .debug$S                   0000000180000000     ucrt:api-ms-win-crt-runtime-l1-1-0.dll
 0000:fffca000       .debug$S                   0000000180000000     ucrt:api-ms-win-crt-runtime-l1-1-0.dll
 0000:fffca000       .debug$S                   0000000180000000     ucrt:api-ms-win-crt-runtime-l1-1-0.dll
 0000:fffca000       .debug$S                   0000000180000000     ucrt:api-ms-win-crt-runtime-l1-1-0.dll
 0000:fffca000       .debug$S                   0000000180000000     ucrt:api-ms-win-crt-runtime-l1-1-0.dll
 0000:fffca000       .debug$S                   0000000180000000     ucrt:api-ms-win-crt-runtime-l1-1-0.dll
 0000:fffca000       .debug$S                   0000000180000000     ucrt:api-ms-win-crt-runtime-l1-1-0.dll
 0000:fffca000       .debug$S                   0000000180000000     ucrt:api-ms-win-crt-runtime-l1-1-0.dll
 0000:fffca000       .debug$S                   0000000180000000     ucrt:api-ms-win-crt-runtime-l1-1-0.dll
 0000:fffca000       .debug$S                   0000000180000000     ucrt:api-ms-win-crt-runtime-l1-1-0.dll
 0000:fffca000       .debug$S                   0000000180000000     ucrt:api-ms-win-crt-runtime-l1-1-0.dll
 0000:fffca000       .debug$S                   0000000180000000     ucrt:api-ms-win-crt-runtime-l1-1-0.dll
 0000:fffca000       .debug$S                   0000000180000000     ucrt:api-ms-win-crt-heap-l1-1-0.dll
 0000:fffca000       .debug$S                   0000000180000000     ucrt:api-ms-win-crt-heap-l1-1-0.dll
 0000:fffca000       .debug$S                   0000000180000000     ucrt:api-ms-win-crt-string-l1-1-0.dll
 0000:fffca000       .debug$S                   0000000180000000     ucrt:api-ms-win-crt-string-l1-1-0.dll
 0000:fffca000       .debug$S                   0000000180000000     ucrt:api-ms-win-crt-stdio-l1-1-0.dll
 0000:fffca000       .debug$S                   0000000180000000     ucrt:api-ms-win-crt-stdio-l1-1-0.dll
 0000:fffca000       .debug$S                   0000000180000000     ida:ida.dll
 0000:fffca000       .debug$S                   0000000180000000     vcruntime:VCRUNTIME140.dll
 0000:fffca000       .debug$S                   0000000180000000     vcruntime:VCRUNTIME140.dll
 0000:fffca000       .debug$S                   0000000180000000     vcruntime:VCRUNTIME140.dll
 0000:fffca000       .debug$S                   0000000180000000     vcruntime:VCRUNTIME140.dll
 0000:fffca000       .debug$S                   0000000180000000     vcruntime:VCRUNTIME140.dll
 0000:fffca000       .debug$S                   0000000180000000     vcruntime:VCRUNTIME140.dll
 0000:fffca000       .debug$S                   0000000180000000     vcruntime:VCRUNTIME140.dll
 0000:fffca000       .debug$S                   0000000180000000     vcruntime:VCRUNTIME140.dll
 0000:fffca000       .debug$S                   0000000180000000     vcruntime:VCRUNTIME140.dll
 0000:fffca000       .debug$S                   0000000180000000     vcruntime:VCRUNTIME140.dll
 0000:fffca000       .debug$S                   0000000180000000     vcruntime:VCRUNTIME140.dll
 0000:fffca000       .debug$S                   0000000180000000     python38:python38.dll
 0000:fffca000       .debug$S                   0000000180000000     kernel32:KERNEL32.dll
 0000:fffca000       .debug$S                   0000000180000000     kernel32:KERNEL32.dll
 0000:fffca000       .debug$S                   0000000180000000     kernel32:KERNEL32.dll
 0000:fffca000       .debug$S                   0000000180000000     kernel32:KERNEL32.dll
 0000:fffca000       .debug$S                   0000000180000000     kernel32:KERNEL32.dll
 0000:fffca000       .debug$S                   0000000180000000     kernel32:KERNEL32.dll
 0000:fffca000       .debug$S                   0000000180000000     kernel32:KERNEL32.dll
 0000:fffca000       .debug$S                   0000000180000000     kernel32:KERNEL32.dll
 0000:fffca000       .debug$S                   0000000180000000     kernel32:KERNEL32.dll
 0000:fffca000       .debug$S                   0000000180000000     kernel32:KERNEL32.dll
 0000:fffca000       .debug$S                   0000000180000000     kernel32:KERNEL32.dll
 0000:fffca000       .debug$S                   0000000180000000     kernel32:KERNEL32.dll
 0000:fffca000       .debug$S                   0000000180000000     kernel32:KERNEL32.dll
 0000:fffca000       .debug$S                   0000000180000000     kernel32:KERNEL32.dll
 0000:fffca000       .debug$S                   0000000180000000     kernel32:KERNEL32.dll
 0000:fffca000       .debug$S                   0000000180000000     kernel32:KERNEL32.dll
 0000:fffca000       .debug$S                   0000000180000000     kernel32:KERNEL32.dll
 0000:fffca000       .debug$S                   0000000180000000     kernel32:KERNEL32.dll
 0000:fffca000       .debug$S                   0000000180000000     kernel32:KERNEL32.dll
 0000:fffca000       .debug$S                   0000000180000000     kernel32:KERNEL32.dll
 0000:fffca000       .debug$S                   0000000180000000     kernel32:KERNEL32.dll
 0000:fffca000       .debug$S                   0000000180000000     kernel32:KERNEL32.dll
 0000:fffca000       .debug$S                   0000000180000000     kernel32:KERNEL32.dll
 0000:fffca000       .debug$S                   0000000180000000     kernel32:KERNEL32.dll
 0000:fffca000       .debug$S                   0000000180000000     kernel32:KERNEL32.dll
 0000:fffca000       .debug$S                   0000000180000000     kernel32:KERNEL32.dll
 0000:fffca000       .debug$S                   0000000180000000     kernel32:KERNEL32.dll
 0000:fffca000       .debug$S                   0000000180000000     python38:python38.dll
 0000:fffca000       .debug$S                   0000000180000000     python38:python38.dll
 0000:fffca000       .debug$S                   0000000180000000     python38:python38.dll
 0000:fffca000       .debug$S                   0000000180000000     python38:python38.dll
 0000:fffca000       .debug$S                   0000000180000000     python38:python38.dll
 0000:fffca000       .debug$S                   0000000180000000     python38:python38.dll
 0000:fffca000       .debug$S                   0000000180000000     python38:python38.dll
 0000:fffca000       .debug$S                   0000000180000000     python38:python38.dll
 0000:fffca000       .debug$S                   0000000180000000     python38:python38.dll
 0000:fffca000       .debug$S                   0000000180000000     python38:python38.dll
 0000:fffca000       .debug$S                   0000000180000000     python38:python38.dll
 0000:fffca000       .debug$S                   0000000180000000     python38:python38.dll
 0000:fffca000       .debug$S                   0000000180000000     python38:python38.dll
 0000:fffca000       .debug$S                   0000000180000000     python38:python38.dll
 0000:fffca000       .debug$S                   0000000180000000     python38:python38.dll
 0000:fffca000       .debug$S                   0000000180000000     python38:python38.dll
 0000:fffca000       .debug$S                   0000000180000000     python38:python38.dll
 0000:fffca000       .debug$S                   0000000180000000     python38:python38.dll
 0000:fffca000       .debug$S                   0000000180000000     python38:python38.dll
 0000:fffca000       .debug$S                   0000000180000000     python38:python38.dll
 0000:fffca000       .debug$S                   0000000180000000     python38:python38.dll
 0000:fffca000       .debug$S                   0000000180000000     python38:python38.dll
 0000:fffca000       .debug$S                   0000000180000000     python38:python38.dll
 0000:fffca000       .debug$S                   0000000180000000     python38:python38.dll
 0000:fffca000       .debug$S                   0000000180000000     python38:python38.dll
 0000:fffca000       .debug$S                   0000000180000000     python38:python38.dll
 0000:fffca000       .debug$S                   0000000180000000     python38:python38.dll
 0000:fffca000       .debug$S                   0000000180000000     python38:python38.dll
 0000:fffca000       .debug$S                   0000000180000000     python38:python38.dll
 0000:fffca000       .debug$S                   0000000180000000     python38:python38.dll
 0000:fffca000       .debug$S                   0000000180000000     python38:python38.dll
 0000:fffca000       .debug$S                   0000000180000000     python38:python38.dll
 0000:fffca000       .debug$S                   0000000180000000     python38:python38.dll
 0000:fffca000       .debug$S                   0000000180000000     python38:python38.dll
 0000:fffca000       .debug$S                   0000000180000000     python38:python38.dll
 0000:fffca000       .debug$S                   0000000180000000     python38:python38.dll
 0000:fffca000       .debug$S                   0000000180000000     python38:python38.dll
 0000:fffca000       .debug$S                   0000000180000000     python38:python38.dll
 0000:fffca000       .debug$S                   0000000180000000     python38:python38.dll
 0000:fffca000       .debug$S                   0000000180000000     python38:python38.dll
 0000:fffca000       .debug$S                   0000000180000000     python38:python38.dll
 0000:fffca000       .debug$S                   0000000180000000     python38:python38.dll
 0000:fffca000       .debug$S                   0000000180000000     python38:python38.dll
 0000:fffca000       .debug$S                   0000000180000000     python38:python38.dll
 0000:fffca000       .debug$S                   0000000180000000     python38:python38.dll
 0000:fffca000       .debug$S                   0000000180000000     python38:python38.dll
 0000:fffca000       .debug$S                   0000000180000000     python38:python38.dll
 0000:fffca000       .debug$S                   0000000180000000     python38:python38.dll
 0000:fffca000       .debug$S                   0000000180000000     python38:python38.dll
 0000:fffca000       .debug$S                   0000000180000000     python38:python38.dll
 0000:fffca000       .debug$S                   0000000180000000     python38:python38.dll
 0000:fffca000       .debug$S                   0000000180000000     python38:python38.dll
 0000:fffca000       .debug$S                   0000000180000000     python38:python38.dll
 0000:fffca000       .debug$S                   0000000180000000     python38:python38.dll
 0000:fffca000       .debug$S                   0000000180000000     python38:python38.dll
 0000:fffca000       .debug$S                   0000000180000000     python38:python38.dll
 0000:fffca000       .debug$S                   0000000180000000     python38:python38.dll
 0000:fffca000       .debug$S                   0000000180000000     python38:python38.dll
 0000:fffca000       .debug$S                   0000000180000000     python38:python38.dll
 0000:fffca000       .debug$S                   0000000180000000     python38:python38.dll
 0000:fffca000       .debug$S                   0000000180000000     python38:python38.dll
 0000:fffca000       .debug$S                   0000000180000000     python38:python38.dll
 0000:fffca000       .debug$S                   0000000180000000     python38:python38.dll
 0000:fffca000       .debug$S                   0000000180000000     python38:python38.dll
 0000:fffca000       .debug$S                   0000000180000000     python38:python38.dll
 0000:fffca000       .debug$S                   0000000180000000     python38:python38.dll
 0000:fffca000       .debug$S                   0000000180000000     python38:python38.dll
 0000:fffca000       .debug$S                   0000000180000000     python38:python38.dll
 0000:fffca000       .debug$S                   0000000180000000     python38:python38.dll
 0000:fffca000       .debug$S                   0000000180000000     python:python.dll
 0001:00000000       _wrap_catchvec_t_push_back 0000000180001000 f   tryblks.obj
 0001:00000330       _wrap_catchvec_t_pop_back  0000000180001330 f   tryblks.obj
 0001:00000490       _wrap_catchvec_t_size      0000000180001490 f   tryblks.obj
 0001:000005c0       _wrap_catchvec_t_empty     00000001800015c0 f   tryblks.obj
 0001:000006f0       _wrap_catchvec_t_at        00000001800016f0 f   tryblks.obj
 0001:000008c0       _wrap_catchvec_t_qclear    00000001800018c0 f   tryblks.obj
 0001:000009e0       _wrap_catchvec_t_clear     00000001800019e0 f   tryblks.obj
 0001:00000b20       _wrap_catchvec_t_resize    0000000180001b20 f   tryblks.obj
 0001:00000f10       _wrap_catchvec_t_grow      0000000180001f10 f   tryblks.obj
 0001:000011f0       _wrap_catchvec_t_capacity  00000001800021f0 f   tryblks.obj
 0001:00001320       _wrap_catchvec_t_reserve   0000000180002320 f   tryblks.obj
 0001:00001500       _wrap_catchvec_t_truncate  0000000180002500 f   tryblks.obj
 0001:00001640       _wrap_catchvec_t_swap      0000000180002640 f   tryblks.obj
 0001:00001890       _wrap_catchvec_t_extract   0000000180002890 f   tryblks.obj
 0001:000019f0       _wrap_catchvec_t_inject    00000001800029f0 f   tryblks.obj
 0001:00001ca0       _wrap_catchvec_t___eq__    0000000180002ca0 f   tryblks.obj
 0001:00001ee0       _wrap_catchvec_t___ne__    0000000180002ee0 f   tryblks.obj
 0001:00002120       _wrap_catchvec_t_begin     0000000180003120 f   tryblks.obj
 0001:000023a0       _wrap_catchvec_t_end       00000001800033a0 f   tryblks.obj
 0001:00002620       _wrap_catchvec_t_insert    0000000180003620 f   tryblks.obj
 0001:00002a00       _wrap_catchvec_t_erase     0000000180003a00 f   tryblks.obj
 0001:00002e30       _wrap_catchvec_t_find      0000000180003e30 f   tryblks.obj
 0001:000031c0       _wrap_catchvec_t_has       00000001800041c0 f   tryblks.obj
 0001:00003420       _wrap_catchvec_t_add_unique 0000000180004420 f   tryblks.obj
 0001:00003690       _wrap_catchvec_t__del      0000000180004690 f   tryblks.obj
 0001:00003970       _wrap_catchvec_t___len__   0000000180004970 f   tryblks.obj
 0001:00003aa0       _wrap_catchvec_t___getitem__ 0000000180004aa0 f   tryblks.obj
 0001:00003ca0       _wrap_catchvec_t___setitem__ 0000000180004ca0 f   tryblks.obj
 0001:00003fd0       catchvec_t_swigregister    0000000180004fd0 f   tryblks.obj
 0001:00004060       tryblks_t_swiginit         0000000180005060 f   tryblks.obj
 0001:00004060       seh_t_swiginit             0000000180005060 f   tryblks.obj
 0001:00004060       tryblk_t_swiginit          0000000180005060 f   tryblks.obj
 0001:00004060       catch_t_swiginit           0000000180005060 f   tryblks.obj
 0001:00004060       catchvec_t_swiginit        0000000180005060 f   tryblks.obj
 0001:00004060       try_handler_t_swiginit     0000000180005060 f   tryblks.obj
 0001:00004070       _wrap_try_handler_t_disp_set 0000000180005070 f   tryblks.obj
 0001:000041f0       _wrap_try_handler_t_disp_get 00000001800051f0 f   tryblks.obj
 0001:000042f0       _wrap_try_handler_t_fpreg_set 00000001800052f0 f   tryblks.obj
 0001:00004490       _wrap_try_handler_t_fpreg_get 0000000180005490 f   tryblks.obj
 0001:00004590       _wrap_new_try_handler_t    0000000180005590 f   tryblks.obj
 0001:00004620       _wrap_try_handler_t_clear  0000000180005620 f   tryblks.obj
 0001:00004770       _wrap_delete_try_handler_t 0000000180005770 f   tryblks.obj
 0001:000048d0       try_handler_t_swigregister 00000001800058d0 f   tryblks.obj
 0001:00004960       _wrap_seh_t_filter_set     0000000180005960 f   tryblks.obj
 0001:00004b60       _wrap_seh_t_filter_get     0000000180005b60 f   tryblks.obj
 0001:00004c70       _wrap_seh_t_seh_code_set   0000000180005c70 f   tryblks.obj
 0001:00004df0       _wrap_seh_t_seh_code_get   0000000180005df0 f   tryblks.obj
 0001:00004ef0       _wrap_seh_t_clear          0000000180005ef0 f   tryblks.obj
 0001:00005010       _wrap_new_seh_t            0000000180006010 f   tryblks.obj
 0001:000050b0       _wrap_delete_seh_t         00000001800060b0 f   tryblks.obj
 0001:00005230       seh_t_swigregister         0000000180006230 f   tryblks.obj
 0001:000052c0       _wrap_catch_t_obj_set      00000001800062c0 f   tryblks.obj
 0001:00005440       _wrap_catch_t_obj_get      0000000180006440 f   tryblks.obj
 0001:00005540       _wrap_catch_t_type_id_set  0000000180006540 f   tryblks.obj
 0001:000056c0       _wrap_catch_t_type_id_get  00000001800066c0 f   tryblks.obj
 0001:000057c0       _wrap_new_catch_t          00000001800067c0 f   tryblks.obj
 0001:00005860       _wrap_delete_catch_t       0000000180006860 f   tryblks.obj
 0001:000059c0       catch_t_swigregister       00000001800069c0 f   tryblks.obj
 0001:00005a50       _wrap_tryblk_t_level_set   0000000180006a50 f   tryblks.obj
 0001:00005c10       _wrap_tryblk_t_level_get   0000000180006c10 f   tryblks.obj
 0001:00005d10       _wrap_tryblk_t_cpp         0000000180006d10 f   tryblks.obj
 0001:00005e30       _wrap_tryblk_t_seh         0000000180006e30 f   tryblks.obj
 0001:00005f50       _wrap_delete_tryblk_t      0000000180006f50 f   tryblks.obj
 0001:000060b0       _wrap_new_tryblk_t         00000001800070b0 f   tryblks.obj
 0001:000062b0       _wrap_tryblk_t_get_kind    00000001800072b0 f   tryblks.obj
 0001:000063d0       _wrap_tryblk_t_empty       00000001800073d0 f   tryblks.obj
 0001:00006500       _wrap_tryblk_t_is_seh      0000000180007500 f   tryblks.obj
 0001:00006630       _wrap_tryblk_t_is_cpp      0000000180007630 f   tryblks.obj
 0001:00006760       _wrap_tryblk_t_clear       0000000180007760 f   tryblks.obj
 0001:00006880       _wrap_tryblk_t_set_seh     0000000180007880 f   tryblks.obj
 0001:00006a00       _wrap_tryblk_t_set_cpp     0000000180007a00 f   tryblks.obj
 0001:00006b80       tryblk_t_swigregister      0000000180007b80 f   tryblks.obj
 0001:00006c10       _wrap_get_tryblks          0000000180007c10 f   tryblks.obj
 0001:00006e80       _wrap_del_tryblks          0000000180007e80 f   tryblks.obj
 0001:00006fe0       _wrap_add_tryblk           0000000180007fe0 f   tryblks.obj
 0001:00007140       _wrap_find_syseh           0000000180008140 f   tryblks.obj
 0001:00007210       _p_catch_tTo_p_try_handler_t 0000000180008210 f   tryblks.obj
 0001:00007210       _p_seh_tTo_p_try_handler_t 0000000180008210 f   tryblks.obj
 0001:00007210       _p_seh_tTo_p_qvectorT_range_t_t 0000000180008210 f   tryblks.obj
 0001:00007210       _p_rangevec_tTo_p_qvectorT_range_t_t 0000000180008210 f   tryblks.obj
 0001:00007210       _p_catch_tTo_p_qvectorT_range_t_t 0000000180008210 f   tryblks.obj
 0001:00007210       _p_relobj_tTo_p_qvectorT_unsigned_char_t 0000000180008210 f   tryblks.obj
 0001:00007210       _p_tryblk_tTo_p_qvectorT_range_t_t 0000000180008210 f   tryblks.obj
 0001:00007210       _p_bytevec_tTo_p_qvectorT_unsigned_char_t 0000000180008210 f   tryblks.obj
 0001:00007210       _p_try_handler_tTo_p_rangevec_t 0000000180008210 f   tryblks.obj
 0001:00007210       _p_reloc_info_tTo_p_qvectorT_unsigned_char_t 0000000180008210 f   tryblks.obj
 0001:00007210       _p_seh_tTo_p_rangevec_t    0000000180008210 f   tryblks.obj
 0001:00007210       _p_try_handler_tTo_p_qvectorT_range_t_t 0000000180008210 f   tryblks.obj
 0001:00007210       _p_catch_tTo_p_rangevec_t  0000000180008210 f   tryblks.obj
 0001:00007210       _p_tryblk_tTo_p_rangevec_t 0000000180008210 f   tryblks.obj
 0001:00007220       SwigPyObject_repr2         0000000180008220 f   tryblks.obj
 0001:00007230       SwigPyObject_append        0000000180008230 f   tryblks.obj
 0001:00007290       SwigPyObject_next          0000000180008290 f   tryblks.obj
 0001:000072b0       SwigPyObject_disown        00000001800082b0 f   tryblks.obj
 0001:000072d0       SwigPyObject_acquire       00000001800082d0 f   tryblks.obj
 0001:000072f0       SwigPyObject_own           00000001800082f0 f   tryblks.obj
 0001:000073a0       _wrap_new_tryblks_t        00000001800083a0 f   tryblks.obj
 0001:000075a0       _wrap_delete_tryblks_t     00000001800085a0 f   tryblks.obj
 0001:000076f0       _wrap_tryblks_t_push_back  00000001800086f0 f   tryblks.obj
 0001:00007a20       _wrap_tryblks_t_pop_back   0000000180008a20 f   tryblks.obj
 0001:00007b80       _wrap_tryblks_t_size       0000000180008b80 f   tryblks.obj
 0001:00007cb0       _wrap_tryblks_t_empty      0000000180008cb0 f   tryblks.obj
 0001:00007de0       _wrap_tryblks_t_at         0000000180008de0 f   tryblks.obj
 0001:00007fb0       _wrap_tryblks_t_qclear     0000000180008fb0 f   tryblks.obj
 0001:000080d0       _wrap_tryblks_t_clear      00000001800090d0 f   tryblks.obj
 0001:00008210       _wrap_tryblks_t_resize     0000000180009210 f   tryblks.obj
 0001:00008600       _wrap_tryblks_t_grow       0000000180009600 f   tryblks.obj
 0001:00008a10       _wrap_tryblks_t_capacity   0000000180009a10 f   tryblks.obj
 0001:00008b40       _wrap_tryblks_t_reserve    0000000180009b40 f   tryblks.obj
 0001:00008d20       _wrap_tryblks_t_truncate   0000000180009d20 f   tryblks.obj
 0001:00008e60       _wrap_tryblks_t_swap       0000000180009e60 f   tryblks.obj
 0001:000090b0       _wrap_tryblks_t_extract    000000018000a0b0 f   tryblks.obj
 0001:00009210       _wrap_tryblks_t_inject     000000018000a210 f   tryblks.obj
 0001:000094c0       _wrap_tryblks_t___eq__     000000018000a4c0 f   tryblks.obj
 0001:00009700       _wrap_tryblks_t___ne__     000000018000a700 f   tryblks.obj
 0001:00009940       _wrap_tryblks_t_begin      000000018000a940 f   tryblks.obj
 0001:00009bc0       _wrap_tryblks_t_end        000000018000abc0 f   tryblks.obj
 0001:00009e40       _wrap_tryblks_t_insert     000000018000ae40 f   tryblks.obj
 0001:0000a220       _wrap_tryblks_t_erase      000000018000b220 f   tryblks.obj
 0001:0000a650       _wrap_tryblks_t_find       000000018000b650 f   tryblks.obj
 0001:0000a9e0       _wrap_tryblks_t_has        000000018000b9e0 f   tryblks.obj
 0001:0000ac40       _wrap_tryblks_t_add_unique 000000018000bc40 f   tryblks.obj
 0001:0000aea0       _wrap_tryblks_t__del       000000018000bea0 f   tryblks.obj
 0001:0000b110       _wrap_tryblks_t___len__    000000018000c110 f   tryblks.obj
 0001:0000b240       _wrap_tryblks_t___getitem__ 000000018000c240 f   tryblks.obj
 0001:0000b440       _wrap_tryblks_t___setitem__ 000000018000c440 f   tryblks.obj
 0001:0000b750       tryblks_t_swigregister     000000018000c750 f   tryblks.obj
 0001:0000b7e0       _wrap_new_catchvec_t       000000018000c7e0 f   tryblks.obj
 0001:0000b9e0       _wrap_delete_catchvec_t    000000018000c9e0 f   tryblks.obj
 0001:0000c240       ?SWIG_Python_ErrorType@@YAPEAU_object@@H@Z 000000018000d240 f   tryblks.obj
 0001:0000c2dc       $LN17                      000000018000d2dc     tryblks.obj
 0001:0000c310       ?SWIG_Python_RaiseOrModifyTypeError@@YAXPEBD@Z 000000018000d310 f   tryblks.obj
 0001:0000c3d0       ?SWIG_Python_UnpackTuple@@YA_JPEAU_object@@PEBD_J2PEAPEAU1@@Z 000000018000d3d0 f   tryblks.obj
 0001:0000c5b0       ?__raise_e@@YAXAEBVexception@std@@@Z 000000018000d5b0 f   tryblks.obj
 0001:0000c5f0       ?__raise_ie@@YAXAEBUinterr_exc_t@@@Z 000000018000d5f0 f   tryblks.obj
 0001:0000d160       SWIG_InitializeModule      000000018000e160 f   tryblks.obj
 0001:0000d480       SWIG_MangledTypeQueryModule 000000018000e480 f   tryblks.obj
 0001:0000d550       SWIG_Python_DestroyModule  000000018000e550 f   tryblks.obj
 0001:0000d640       SWIG_Python_FixMethods     000000018000e640 f   tryblks.obj
 0001:0000d880       SWIG_Python_GetSwigThis    000000018000e880 f   tryblks.obj
 0001:0000d910       SWIG_Python_InitShadowInstance 000000018000e910 f   tryblks.obj
 0001:0000da10       SWIG_Python_NewPointerObj  000000018000ea10 f   tryblks.obj
 0001:0000dc30       SWIG_This                  000000018000ec30 f   tryblks.obj
 0001:0000dc60       SWIG_TypeCheck             000000018000ec60 f   tryblks.obj
 0001:0000dd00       SWIG_TypeClientData        000000018000ed00 f   tryblks.obj
 0001:0000dd50       SwigPyClientData_New       000000018000ed50 f   tryblks.obj
 0001:0000de60       SwigPyObject_Check         000000018000ee60 f   tryblks.obj
 0001:0000dee0       SwigPyObject_New           000000018000eee0 f   tryblks.obj
 0001:0000df30       SwigPyObject_dealloc       000000018000ef30 f   tryblks.obj
 0001:0000e0c0       SwigPyObject_long          000000018000f0c0 f   tryblks.obj
 0001:0000e0d0       SwigPyObject_repr          000000018000f0d0 f   tryblks.obj
 0001:0000e190       SwigPyObject_richcompare   000000018000f190 f   tryblks.obj
 0001:0000e1e0       SwigPyObject_type          000000018000f1e0 f   tryblks.obj
 0001:0000e320       SwigPyPacked_Check         000000018000f320 f   tryblks.obj
 0001:0000e3a0       SwigPyPacked_dealloc       000000018000f3a0 f   tryblks.obj
 0001:0000e3d0       SwigPyPacked_repr          000000018000f3d0 f   tryblks.obj
 0001:0000e4d0       SwigPyPacked_str           000000018000f4d0 f   tryblks.obj
 0001:0000e5d0       SwigPyPacked_type          000000018000f5d0 f   tryblks.obj
 0001:0000e720       _wrap_catchvec_t_begin__SWIG_0 000000018000f720 f   tryblks.obj
 0001:0000e850       _wrap_catchvec_t_begin__SWIG_1 000000018000f850 f   tryblks.obj
 0001:0000e980       _wrap_catchvec_t_end__SWIG_0 000000018000f980 f   tryblks.obj
 0001:0000eac0       _wrap_catchvec_t_end__SWIG_1 000000018000fac0 f   tryblks.obj
 0001:0000ec00       _wrap_catchvec_t_erase__SWIG_0 000000018000fc00 f   tryblks.obj
 0001:0000ee20       _wrap_catchvec_t_erase__SWIG_1 000000018000fe20 f   tryblks.obj
 0001:0000f1b0       _wrap_catchvec_t_find__SWIG_0 00000001800101b0 f   tryblks.obj
 0001:0000f3e0       _wrap_catchvec_t_find__SWIG_1 00000001800103e0 f   tryblks.obj
 0001:0000f610       _wrap_catchvec_t_push_back__SWIG_0 0000000180010610 f   tryblks.obj
 0001:0000f840       _wrap_catchvec_t_push_back__SWIG_1 0000000180010840 f   tryblks.obj
 0001:0000f9e0       _wrap_catchvec_t_resize__SWIG_0 00000001800109e0 f   tryblks.obj
 0001:0000fc80       _wrap_catchvec_t_resize__SWIG_1 0000000180010c80 f   tryblks.obj
 0001:0000fe60       _wrap_new_catchvec_t__SWIG_0 0000000180010e60 f   tryblks.obj
 0001:0000fec0       _wrap_new_catchvec_t__SWIG_1 0000000180010ec0 f   tryblks.obj
 0001:00010040       _wrap_new_tryblk_t__SWIG_0 0000000180011040 f   tryblks.obj
 0001:000100b0       _wrap_new_tryblk_t__SWIG_1 00000001800110b0 f   tryblks.obj
 0001:00010240       _wrap_new_tryblks_t__SWIG_0 0000000180011240 f   tryblks.obj
 0001:000102a0       _wrap_new_tryblks_t__SWIG_1 00000001800112a0 f   tryblks.obj
 0001:00010490       _wrap_tryblks_t_begin__SWIG_0 0000000180011490 f   tryblks.obj
 0001:000105c0       _wrap_tryblks_t_begin__SWIG_1 00000001800115c0 f   tryblks.obj
 0001:000106f0       _wrap_tryblks_t_end__SWIG_0 00000001800116f0 f   tryblks.obj
 0001:00010830       _wrap_tryblks_t_end__SWIG_1 0000000180011830 f   tryblks.obj
 0001:00010970       _wrap_tryblks_t_erase__SWIG_0 0000000180011970 f   tryblks.obj
 0001:00010b90       _wrap_tryblks_t_erase__SWIG_1 0000000180011b90 f   tryblks.obj
 0001:00010f30       _wrap_tryblks_t_find__SWIG_0 0000000180011f30 f   tryblks.obj
 0001:00011160       _wrap_tryblks_t_find__SWIG_1 0000000180012160 f   tryblks.obj
 0001:00011390       _wrap_tryblks_t_push_back__SWIG_0 0000000180012390 f   tryblks.obj
 0001:000115c0       _wrap_tryblks_t_push_back__SWIG_1 00000001800125c0 f   tryblks.obj
 0001:00011750       _wrap_tryblks_t_resize__SWIG_0 0000000180012750 f   tryblks.obj
 0001:000119f0       _wrap_tryblks_t_resize__SWIG_1 00000001800129f0 f   tryblks.obj
 0001:00011ce0       ?__scrt_initialize_thread_safe_statics@@YAHXZ 0000000180012ce0 f   MSVCRT:thread_safe_statics.obj
 0001:00011e40       ?__scrt_uninitialize_thread_safe_statics@@YAXXZ 0000000180012e40 f   MSVCRT:thread_safe_statics.obj
 0001:00012100       $$000000                   0000000180013100     MSVCRT:amdsecgs.obj
 0001:00012160       ?dllmain_crt_dispatch@@YAHQEAUHINSTANCE__@@KQEAX@Z 0000000180013160 f   MSVCRT:dll_dllmain.obj
 0001:000121b0       ?dllmain_crt_process_attach@@YAHQEAUHINSTANCE__@@QEAX@Z 00000001800131b0 f   MSVCRT:dll_dllmain.obj
 0001:000122cc       ?dllmain_crt_process_detach@@YAH_N@Z 00000001800132cc f   MSVCRT:dll_dllmain.obj
 0001:0001235c       ?dllmain_dispatch@@YAHQEAUHINSTANCE__@@KQEAX@Z 000000018001335c f   MSVCRT:dll_dllmain.obj
 0001:00012b18       capture_previous_context   0000000180013b18 f   MSVCRT:gs_report.obj
 0001:00012f50       $$000000                   0000000180013f50     MSVCRT:guard_dispatch.obj
 0001:00012f70       _wrap_add_tryblk$catch$5   0000000180013f70 f   tryblks.obj
 0001:00012f7d       __catch$_wrap_add_tryblk$3 0000000180013f7d f   tryblks.obj
 0001:00012fa3       _wrap_add_tryblk$catch$4   0000000180013fa3 f   tryblks.obj
 0001:00012fb0       __catch$_wrap_add_tryblk$5 0000000180013fb0 f   tryblks.obj
 0001:00012fdc       _wrap_add_tryblk$catch$3   0000000180013fdc f   tryblks.obj
 0001:00012fe9       __catch$_wrap_add_tryblk$7 0000000180013fe9 f   tryblks.obj
 0001:00013001       _wrap_add_tryblk$catch$2   0000000180014001 f   tryblks.obj
 0001:0001300e       __catch$_wrap_add_tryblk$9 000000018001400e f   tryblks.obj
 0001:00013026       _wrap_add_tryblk$catch$1   0000000180014026 f   tryblks.obj
 0001:00013033       __catch$_wrap_add_tryblk$11 0000000180014033 f   tryblks.obj
 0001:0001305f       _wrap_add_tryblk$catch$0   000000018001405f f   tryblks.obj
 0001:0001306c       __catch$_wrap_add_tryblk$13 000000018001406c f   tryblks.obj
 0001:000130a0       _wrap_catchvec_t___eq__$catch$5 00000001800140a0 f   tryblks.obj
 0001:000130ad       __catch$_wrap_catchvec_t___eq__$4 00000001800140ad f   tryblks.obj
 0001:000130d3       _wrap_catchvec_t___eq__$catch$4 00000001800140d3 f   tryblks.obj
 0001:000130e0       __catch$_wrap_catchvec_t___eq__$6 00000001800140e0 f   tryblks.obj
 0001:0001310c       _wrap_catchvec_t___eq__$catch$3 000000018001410c f   tryblks.obj
 0001:00013119       __catch$_wrap_catchvec_t___eq__$8 0000000180014119 f   tryblks.obj
 0001:00013131       _wrap_catchvec_t___eq__$catch$2 0000000180014131 f   tryblks.obj
 0001:0001313e       __catch$_wrap_catchvec_t___eq__$10 000000018001413e f   tryblks.obj
 0001:00013156       _wrap_catchvec_t___eq__$catch$1 0000000180014156 f   tryblks.obj
 0001:00013163       __catch$_wrap_catchvec_t___eq__$12 0000000180014163 f   tryblks.obj
 0001:0001318f       _wrap_catchvec_t___eq__$catch$0 000000018001418f f   tryblks.obj
 0001:0001319c       __catch$_wrap_catchvec_t___eq__$14 000000018001419c f   tryblks.obj
 0001:000131d0       _wrap_catchvec_t___getitem__$catch$0 00000001800141d0 f   tryblks.obj
 0001:000131dd       __catch$_wrap_catchvec_t___getitem__$3 00000001800141dd f   tryblks.obj
 0001:00013203       _wrap_catchvec_t___getitem__$catch$1 0000000180014203 f   tryblks.obj
 0001:00013210       __catch$_wrap_catchvec_t___getitem__$5 0000000180014210 f   tryblks.obj
 0001:0001323c       _wrap_catchvec_t___getitem__$catch$2 000000018001423c f   tryblks.obj
 0001:00013249       __catch$_wrap_catchvec_t___getitem__$7 0000000180014249 f   tryblks.obj
 0001:00013261       _wrap_catchvec_t___getitem__$catch$3 0000000180014261 f   tryblks.obj
 0001:0001326e       __catch$_wrap_catchvec_t___getitem__$9 000000018001426e f   tryblks.obj
 0001:00013286       _wrap_catchvec_t___getitem__$catch$4 0000000180014286 f   tryblks.obj
 0001:00013293       __catch$_wrap_catchvec_t___getitem__$11 0000000180014293 f   tryblks.obj
 0001:000132bf       _wrap_catchvec_t___getitem__$catch$5 00000001800142bf f   tryblks.obj
 0001:000132cc       __catch$_wrap_catchvec_t___getitem__$13 00000001800142cc f   tryblks.obj
 0001:00013300       _wrap_catchvec_t___len__$catch$5 0000000180014300 f   tryblks.obj
 0001:0001330d       __catch$_wrap_catchvec_t___len__$2 000000018001430d f   tryblks.obj
 0001:00013333       _wrap_catchvec_t___len__$catch$4 0000000180014333 f   tryblks.obj
 0001:00013340       __catch$_wrap_catchvec_t___len__$4 0000000180014340 f   tryblks.obj
 0001:0001336c       _wrap_catchvec_t___len__$catch$3 000000018001436c f   tryblks.obj
 0001:00013379       __catch$_wrap_catchvec_t___len__$6 0000000180014379 f   tryblks.obj
 0001:00013391       _wrap_catchvec_t___len__$catch$2 0000000180014391 f   tryblks.obj
 0001:0001339e       __catch$_wrap_catchvec_t___len__$8 000000018001439e f   tryblks.obj
 0001:000133b6       _wrap_catchvec_t___len__$catch$1 00000001800143b6 f   tryblks.obj
 0001:000133c3       __catch$_wrap_catchvec_t___len__$10 00000001800143c3 f   tryblks.obj
 0001:000133ef       _wrap_catchvec_t___len__$catch$0 00000001800143ef f   tryblks.obj
 0001:000133fc       __catch$_wrap_catchvec_t___len__$12 00000001800143fc f   tryblks.obj
 0001:00013430       _wrap_catchvec_t___ne__$catch$5 0000000180014430 f   tryblks.obj
 0001:0001343d       __catch$_wrap_catchvec_t___ne__$4 000000018001443d f   tryblks.obj
 0001:00013463       _wrap_catchvec_t___ne__$catch$4 0000000180014463 f   tryblks.obj
 0001:00013470       __catch$_wrap_catchvec_t___ne__$6 0000000180014470 f   tryblks.obj
 0001:0001349c       _wrap_catchvec_t___ne__$catch$3 000000018001449c f   tryblks.obj
 0001:000134a9       __catch$_wrap_catchvec_t___ne__$8 00000001800144a9 f   tryblks.obj
 0001:000134c1       _wrap_catchvec_t___ne__$catch$2 00000001800144c1 f   tryblks.obj
 0001:000134ce       __catch$_wrap_catchvec_t___ne__$10 00000001800144ce f   tryblks.obj
 0001:000134e6       _wrap_catchvec_t___ne__$catch$1 00000001800144e6 f   tryblks.obj
 0001:000134f3       __catch$_wrap_catchvec_t___ne__$12 00000001800144f3 f   tryblks.obj
 0001:0001351f       _wrap_catchvec_t___ne__$catch$0 000000018001451f f   tryblks.obj
 0001:0001352c       __catch$_wrap_catchvec_t___ne__$14 000000018001452c f   tryblks.obj
 0001:00013560       _wrap_catchvec_t___setitem__$catch$0 0000000180014560 f   tryblks.obj
 0001:0001356d       __catch$_wrap_catchvec_t___setitem__$5 000000018001456d f   tryblks.obj
 0001:00013593       _wrap_catchvec_t___setitem__$catch$1 0000000180014593 f   tryblks.obj
 0001:000135a0       __catch$_wrap_catchvec_t___setitem__$7 00000001800145a0 f   tryblks.obj
 0001:000135cc       _wrap_catchvec_t___setitem__$catch$2 00000001800145cc f   tryblks.obj
 0001:000135d9       __catch$_wrap_catchvec_t___setitem__$9 00000001800145d9 f   tryblks.obj
 0001:000135f1       _wrap_catchvec_t___setitem__$catch$3 00000001800145f1 f   tryblks.obj
 0001:000135fe       __catch$_wrap_catchvec_t___setitem__$11 00000001800145fe f   tryblks.obj
 0001:00013616       _wrap_catchvec_t___setitem__$catch$4 0000000180014616 f   tryblks.obj
 0001:00013623       __catch$_wrap_catchvec_t___setitem__$13 0000000180014623 f   tryblks.obj
 0001:0001364f       _wrap_catchvec_t___setitem__$catch$5 000000018001464f f   tryblks.obj
 0001:0001365c       __catch$_wrap_catchvec_t___setitem__$15 000000018001465c f   tryblks.obj
 0001:00013690       _wrap_catchvec_t__del$catch$11 0000000180014690 f   tryblks.obj
 0001:0001369d       __catch$_wrap_catchvec_t__del$4 000000018001469d f   tryblks.obj
 0001:000136c3       _wrap_catchvec_t__del$catch$10 00000001800146c3 f   tryblks.obj
 0001:000136d0       __catch$_wrap_catchvec_t__del$6 00000001800146d0 f   tryblks.obj
 0001:000136fc       _wrap_catchvec_t__del$catch$9 00000001800146fc f   tryblks.obj
 0001:00013709       __catch$_wrap_catchvec_t__del$8 0000000180014709 f   tryblks.obj
 0001:00013721       _wrap_catchvec_t__del$catch$8 0000000180014721 f   tryblks.obj
 0001:0001372e       __catch$_wrap_catchvec_t__del$10 000000018001472e f   tryblks.obj
 0001:00013746       _wrap_catchvec_t__del$catch$7 0000000180014746 f   tryblks.obj
 0001:00013753       __catch$_wrap_catchvec_t__del$12 0000000180014753 f   tryblks.obj
 0001:0001377f       _wrap_catchvec_t__del$catch$6 000000018001477f f   tryblks.obj
 0001:0001378c       __catch$_wrap_catchvec_t__del$14 000000018001478c f   tryblks.obj
 0001:000137c0       _wrap_catchvec_t_add_unique$catch$5 00000001800147c0 f   tryblks.obj
 0001:000137cd       __catch$_wrap_catchvec_t_add_unique$4 00000001800147cd f   tryblks.obj
 0001:000137f3       _wrap_catchvec_t_add_unique$catch$4 00000001800147f3 f   tryblks.obj
 0001:00013800       __catch$_wrap_catchvec_t_add_unique$6 0000000180014800 f   tryblks.obj
 0001:0001382c       _wrap_catchvec_t_add_unique$catch$3 000000018001482c f   tryblks.obj
 0001:00013839       __catch$_wrap_catchvec_t_add_unique$8 0000000180014839 f   tryblks.obj
 0001:00013851       _wrap_catchvec_t_add_unique$catch$2 0000000180014851 f   tryblks.obj
 0001:0001385e       __catch$_wrap_catchvec_t_add_unique$10 000000018001485e f   tryblks.obj
 0001:00013876       _wrap_catchvec_t_add_unique$catch$1 0000000180014876 f   tryblks.obj
 0001:00013883       __catch$_wrap_catchvec_t_add_unique$12 0000000180014883 f   tryblks.obj
 0001:000138af       _wrap_catchvec_t_add_unique$catch$0 00000001800148af f   tryblks.obj
 0001:000138bc       __catch$_wrap_catchvec_t_add_unique$14 00000001800148bc f   tryblks.obj
 0001:000138f0       _wrap_catchvec_t_at$catch$5 00000001800148f0 f   tryblks.obj
 0001:000138fd       __catch$_wrap_catchvec_t_at$3 00000001800148fd f   tryblks.obj
 0001:00013923       _wrap_catchvec_t_at$catch$4 0000000180014923 f   tryblks.obj
 0001:00013930       __catch$_wrap_catchvec_t_at$5 0000000180014930 f   tryblks.obj
 0001:0001395c       _wrap_catchvec_t_at$catch$3 000000018001495c f   tryblks.obj
 0001:00013969       __catch$_wrap_catchvec_t_at$7 0000000180014969 f   tryblks.obj
 0001:00013981       _wrap_catchvec_t_at$catch$2 0000000180014981 f   tryblks.obj
 0001:0001398e       __catch$_wrap_catchvec_t_at$9 000000018001498e f   tryblks.obj
 0001:000139a6       _wrap_catchvec_t_at$catch$1 00000001800149a6 f   tryblks.obj
 0001:000139b3       __catch$_wrap_catchvec_t_at$11 00000001800149b3 f   tryblks.obj
 0001:000139df       _wrap_catchvec_t_at$catch$0 00000001800149df f   tryblks.obj
 0001:000139ec       __catch$_wrap_catchvec_t_at$13 00000001800149ec f   tryblks.obj
 0001:00013a20       _wrap_catchvec_t_begin__SWIG_0$catch$5 0000000180014a20 f   tryblks.obj
 0001:00013a2d       __catch$_wrap_catchvec_t_begin__SWIG_0$2 0000000180014a2d f   tryblks.obj
 0001:00013a53       _wrap_catchvec_t_begin__SWIG_0$catch$4 0000000180014a53 f   tryblks.obj
 0001:00013a60       __catch$_wrap_catchvec_t_begin__SWIG_0$4 0000000180014a60 f   tryblks.obj
 0001:00013a8c       _wrap_catchvec_t_begin__SWIG_0$catch$3 0000000180014a8c f   tryblks.obj
 0001:00013a99       __catch$_wrap_catchvec_t_begin__SWIG_0$6 0000000180014a99 f   tryblks.obj
 0001:00013ab1       _wrap_catchvec_t_begin__SWIG_0$catch$2 0000000180014ab1 f   tryblks.obj
 0001:00013abe       __catch$_wrap_catchvec_t_begin__SWIG_0$8 0000000180014abe f   tryblks.obj
 0001:00013ad6       _wrap_catchvec_t_begin__SWIG_0$catch$1 0000000180014ad6 f   tryblks.obj
 0001:00013ae3       __catch$_wrap_catchvec_t_begin__SWIG_0$10 0000000180014ae3 f   tryblks.obj
 0001:00013b0f       _wrap_catchvec_t_begin__SWIG_0$catch$0 0000000180014b0f f   tryblks.obj
 0001:00013b1c       __catch$_wrap_catchvec_t_begin__SWIG_0$12 0000000180014b1c f   tryblks.obj
 0001:00013b50       _wrap_catchvec_t_begin__SWIG_1$catch$5 0000000180014b50 f   tryblks.obj
 0001:00013b5d       __catch$_wrap_catchvec_t_begin__SWIG_1$2 0000000180014b5d f   tryblks.obj
 0001:00013b83       _wrap_catchvec_t_begin__SWIG_1$catch$4 0000000180014b83 f   tryblks.obj
 0001:00013b90       __catch$_wrap_catchvec_t_begin__SWIG_1$4 0000000180014b90 f   tryblks.obj
 0001:00013bbc       _wrap_catchvec_t_begin__SWIG_1$catch$3 0000000180014bbc f   tryblks.obj
 0001:00013bc9       __catch$_wrap_catchvec_t_begin__SWIG_1$6 0000000180014bc9 f   tryblks.obj
 0001:00013be1       _wrap_catchvec_t_begin__SWIG_1$catch$2 0000000180014be1 f   tryblks.obj
 0001:00013bee       __catch$_wrap_catchvec_t_begin__SWIG_1$8 0000000180014bee f   tryblks.obj
 0001:00013c06       _wrap_catchvec_t_begin__SWIG_1$catch$1 0000000180014c06 f   tryblks.obj
 0001:00013c13       __catch$_wrap_catchvec_t_begin__SWIG_1$10 0000000180014c13 f   tryblks.obj
 0001:00013c3f       _wrap_catchvec_t_begin__SWIG_1$catch$0 0000000180014c3f f   tryblks.obj
 0001:00013c4c       __catch$_wrap_catchvec_t_begin__SWIG_1$12 0000000180014c4c f   tryblks.obj
 0001:00013c80       _wrap_catchvec_t_capacity$catch$5 0000000180014c80 f   tryblks.obj
 0001:00013c8d       __catch$_wrap_catchvec_t_capacity$2 0000000180014c8d f   tryblks.obj
 0001:00013cb3       _wrap_catchvec_t_capacity$catch$4 0000000180014cb3 f   tryblks.obj
 0001:00013cc0       __catch$_wrap_catchvec_t_capacity$4 0000000180014cc0 f   tryblks.obj
 0001:00013cec       _wrap_catchvec_t_capacity$catch$3 0000000180014cec f   tryblks.obj
 0001:00013cf9       __catch$_wrap_catchvec_t_capacity$6 0000000180014cf9 f   tryblks.obj
 0001:00013d11       _wrap_catchvec_t_capacity$catch$2 0000000180014d11 f   tryblks.obj
 0001:00013d1e       __catch$_wrap_catchvec_t_capacity$8 0000000180014d1e f   tryblks.obj
 0001:00013d36       _wrap_catchvec_t_capacity$catch$1 0000000180014d36 f   tryblks.obj
 0001:00013d43       __catch$_wrap_catchvec_t_capacity$10 0000000180014d43 f   tryblks.obj
 0001:00013d6f       _wrap_catchvec_t_capacity$catch$0 0000000180014d6f f   tryblks.obj
 0001:00013d7c       __catch$_wrap_catchvec_t_capacity$12 0000000180014d7c f   tryblks.obj
 0001:00013db0       _wrap_catchvec_t_clear$catch$5 0000000180014db0 f   tryblks.obj
 0001:00013dbd       __catch$_wrap_catchvec_t_clear$2 0000000180014dbd f   tryblks.obj
 0001:00013de3       _wrap_catchvec_t_clear$catch$4 0000000180014de3 f   tryblks.obj
 0001:00013df0       __catch$_wrap_catchvec_t_clear$4 0000000180014df0 f   tryblks.obj
 0001:00013e1c       _wrap_catchvec_t_clear$catch$3 0000000180014e1c f   tryblks.obj
 0001:00013e29       __catch$_wrap_catchvec_t_clear$6 0000000180014e29 f   tryblks.obj
 0001:00013e41       _wrap_catchvec_t_clear$catch$2 0000000180014e41 f   tryblks.obj
 0001:00013e4e       __catch$_wrap_catchvec_t_clear$8 0000000180014e4e f   tryblks.obj
 0001:00013e66       _wrap_catchvec_t_clear$catch$1 0000000180014e66 f   tryblks.obj
 0001:00013e73       __catch$_wrap_catchvec_t_clear$10 0000000180014e73 f   tryblks.obj
 0001:00013e9f       _wrap_catchvec_t_clear$catch$0 0000000180014e9f f   tryblks.obj
 0001:00013eac       __catch$_wrap_catchvec_t_clear$12 0000000180014eac f   tryblks.obj
 0001:00013ee0       _wrap_catchvec_t_empty$catch$5 0000000180014ee0 f   tryblks.obj
 0001:00013eed       __catch$_wrap_catchvec_t_empty$2 0000000180014eed f   tryblks.obj
 0001:00013f13       _wrap_catchvec_t_empty$catch$4 0000000180014f13 f   tryblks.obj
 0001:00013f20       __catch$_wrap_catchvec_t_empty$4 0000000180014f20 f   tryblks.obj
 0001:00013f4c       _wrap_catchvec_t_empty$catch$3 0000000180014f4c f   tryblks.obj
 0001:00013f59       __catch$_wrap_catchvec_t_empty$6 0000000180014f59 f   tryblks.obj
 0001:00013f71       _wrap_catchvec_t_empty$catch$2 0000000180014f71 f   tryblks.obj
 0001:00013f7e       __catch$_wrap_catchvec_t_empty$8 0000000180014f7e f   tryblks.obj
 0001:00013f96       _wrap_catchvec_t_empty$catch$1 0000000180014f96 f   tryblks.obj
 0001:00013fa3       __catch$_wrap_catchvec_t_empty$10 0000000180014fa3 f   tryblks.obj
 0001:00013fcf       _wrap_catchvec_t_empty$catch$0 0000000180014fcf f   tryblks.obj
 0001:00013fdc       __catch$_wrap_catchvec_t_empty$12 0000000180014fdc f   tryblks.obj
 0001:00014010       _wrap_catchvec_t_end__SWIG_0$catch$5 0000000180015010 f   tryblks.obj
 0001:0001401d       __catch$_wrap_catchvec_t_end__SWIG_0$2 000000018001501d f   tryblks.obj
 0001:00014043       _wrap_catchvec_t_end__SWIG_0$catch$4 0000000180015043 f   tryblks.obj
 0001:00014050       __catch$_wrap_catchvec_t_end__SWIG_0$4 0000000180015050 f   tryblks.obj
 0001:0001407c       _wrap_catchvec_t_end__SWIG_0$catch$3 000000018001507c f   tryblks.obj
 0001:00014089       __catch$_wrap_catchvec_t_end__SWIG_0$6 0000000180015089 f   tryblks.obj
 0001:000140a1       _wrap_catchvec_t_end__SWIG_0$catch$2 00000001800150a1 f   tryblks.obj
 0001:000140ae       __catch$_wrap_catchvec_t_end__SWIG_0$8 00000001800150ae f   tryblks.obj
 0001:000140c6       _wrap_catchvec_t_end__SWIG_0$catch$1 00000001800150c6 f   tryblks.obj
 0001:000140d3       __catch$_wrap_catchvec_t_end__SWIG_0$10 00000001800150d3 f   tryblks.obj
 0001:000140ff       _wrap_catchvec_t_end__SWIG_0$catch$0 00000001800150ff f   tryblks.obj
 0001:0001410c       __catch$_wrap_catchvec_t_end__SWIG_0$12 000000018001510c f   tryblks.obj
 0001:00014140       _wrap_catchvec_t_end__SWIG_1$catch$5 0000000180015140 f   tryblks.obj
 0001:0001414d       __catch$_wrap_catchvec_t_end__SWIG_1$2 000000018001514d f   tryblks.obj
 0001:00014173       _wrap_catchvec_t_end__SWIG_1$catch$4 0000000180015173 f   tryblks.obj
 0001:00014180       __catch$_wrap_catchvec_t_end__SWIG_1$4 0000000180015180 f   tryblks.obj
 0001:000141ac       _wrap_catchvec_t_end__SWIG_1$catch$3 00000001800151ac f   tryblks.obj
 0001:000141b9       __catch$_wrap_catchvec_t_end__SWIG_1$6 00000001800151b9 f   tryblks.obj
 0001:000141d1       _wrap_catchvec_t_end__SWIG_1$catch$2 00000001800151d1 f   tryblks.obj
 0001:000141de       __catch$_wrap_catchvec_t_end__SWIG_1$8 00000001800151de f   tryblks.obj
 0001:000141f6       _wrap_catchvec_t_end__SWIG_1$catch$1 00000001800151f6 f   tryblks.obj
 0001:00014203       __catch$_wrap_catchvec_t_end__SWIG_1$10 0000000180015203 f   tryblks.obj
 0001:0001422f       _wrap_catchvec_t_end__SWIG_1$catch$0 000000018001522f f   tryblks.obj
 0001:0001423c       __catch$_wrap_catchvec_t_end__SWIG_1$12 000000018001523c f   tryblks.obj
 0001:00014270       _wrap_catchvec_t_erase__SWIG_0$catch$5 0000000180015270 f   tryblks.obj
 0001:0001427d       __catch$_wrap_catchvec_t_erase__SWIG_0$3 000000018001527d f   tryblks.obj
 0001:000142a3       _wrap_catchvec_t_erase__SWIG_0$catch$4 00000001800152a3 f   tryblks.obj
 0001:000142b0       __catch$_wrap_catchvec_t_erase__SWIG_0$5 00000001800152b0 f   tryblks.obj
 0001:000142dc       _wrap_catchvec_t_erase__SWIG_0$catch$3 00000001800152dc f   tryblks.obj
 0001:000142e9       __catch$_wrap_catchvec_t_erase__SWIG_0$7 00000001800152e9 f   tryblks.obj
 0001:00014301       _wrap_catchvec_t_erase__SWIG_0$catch$2 0000000180015301 f   tryblks.obj
 0001:0001430e       __catch$_wrap_catchvec_t_erase__SWIG_0$9 000000018001530e f   tryblks.obj
 0001:00014326       _wrap_catchvec_t_erase__SWIG_0$catch$1 0000000180015326 f   tryblks.obj
 0001:00014333       __catch$_wrap_catchvec_t_erase__SWIG_0$11 0000000180015333 f   tryblks.obj
 0001:0001435f       _wrap_catchvec_t_erase__SWIG_0$catch$0 000000018001535f f   tryblks.obj
 0001:0001436c       __catch$_wrap_catchvec_t_erase__SWIG_0$13 000000018001536c f   tryblks.obj
 0001:000143a0       _wrap_catchvec_t_erase__SWIG_1$catch$11 00000001800153a0 f   tryblks.obj
 0001:000143ad       __catch$_wrap_catchvec_t_erase__SWIG_1$4 00000001800153ad f   tryblks.obj
 0001:000143d3       _wrap_catchvec_t_erase__SWIG_1$catch$10 00000001800153d3 f   tryblks.obj
 0001:000143e0       __catch$_wrap_catchvec_t_erase__SWIG_1$6 00000001800153e0 f   tryblks.obj
 0001:0001440c       _wrap_catchvec_t_erase__SWIG_1$catch$9 000000018001540c f   tryblks.obj
 0001:00014419       __catch$_wrap_catchvec_t_erase__SWIG_1$8 0000000180015419 f   tryblks.obj
 0001:00014431       _wrap_catchvec_t_erase__SWIG_1$catch$8 0000000180015431 f   tryblks.obj
 0001:0001443e       __catch$_wrap_catchvec_t_erase__SWIG_1$10 000000018001543e f   tryblks.obj
 0001:00014456       _wrap_catchvec_t_erase__SWIG_1$catch$7 0000000180015456 f   tryblks.obj
 0001:00014463       __catch$_wrap_catchvec_t_erase__SWIG_1$12 0000000180015463 f   tryblks.obj
 0001:0001448f       _wrap_catchvec_t_erase__SWIG_1$catch$6 000000018001548f f   tryblks.obj
 0001:0001449c       __catch$_wrap_catchvec_t_erase__SWIG_1$14 000000018001549c f   tryblks.obj
 0001:000144d0       _wrap_catchvec_t_extract$catch$5 00000001800154d0 f   tryblks.obj
 0001:000144dd       __catch$_wrap_catchvec_t_extract$2 00000001800154dd f   tryblks.obj
 0001:00014503       _wrap_catchvec_t_extract$catch$4 0000000180015503 f   tryblks.obj
 0001:00014510       __catch$_wrap_catchvec_t_extract$4 0000000180015510 f   tryblks.obj
 0001:0001453c       _wrap_catchvec_t_extract$catch$3 000000018001553c f   tryblks.obj
 0001:00014549       __catch$_wrap_catchvec_t_extract$6 0000000180015549 f   tryblks.obj
 0001:00014561       _wrap_catchvec_t_extract$catch$2 0000000180015561 f   tryblks.obj
 0001:0001456e       __catch$_wrap_catchvec_t_extract$8 000000018001556e f   tryblks.obj
 0001:00014586       _wrap_catchvec_t_extract$catch$1 0000000180015586 f   tryblks.obj
 0001:00014593       __catch$_wrap_catchvec_t_extract$10 0000000180015593 f   tryblks.obj
 0001:000145bf       _wrap_catchvec_t_extract$catch$0 00000001800155bf f   tryblks.obj
 0001:000145cc       __catch$_wrap_catchvec_t_extract$12 00000001800155cc f   tryblks.obj
 0001:00014600       _wrap_catchvec_t_find__SWIG_0$catch$5 0000000180015600 f   tryblks.obj
 0001:0001460d       __catch$_wrap_catchvec_t_find__SWIG_0$4 000000018001560d f   tryblks.obj
 0001:00014633       _wrap_catchvec_t_find__SWIG_0$catch$4 0000000180015633 f   tryblks.obj
 0001:00014640       __catch$_wrap_catchvec_t_find__SWIG_0$6 0000000180015640 f   tryblks.obj
 0001:0001466c       _wrap_catchvec_t_find__SWIG_0$catch$3 000000018001566c f   tryblks.obj
 0001:00014679       __catch$_wrap_catchvec_t_find__SWIG_0$8 0000000180015679 f   tryblks.obj
 0001:00014691       _wrap_catchvec_t_find__SWIG_0$catch$2 0000000180015691 f   tryblks.obj
 0001:0001469e       __catch$_wrap_catchvec_t_find__SWIG_0$10 000000018001569e f   tryblks.obj
 0001:000146b6       _wrap_catchvec_t_find__SWIG_0$catch$1 00000001800156b6 f   tryblks.obj
 0001:000146c3       __catch$_wrap_catchvec_t_find__SWIG_0$12 00000001800156c3 f   tryblks.obj
 0001:000146ef       _wrap_catchvec_t_find__SWIG_0$catch$0 00000001800156ef f   tryblks.obj
 0001:000146fc       __catch$_wrap_catchvec_t_find__SWIG_0$14 00000001800156fc f   tryblks.obj
 0001:00014730       _wrap_catchvec_t_find__SWIG_1$catch$5 0000000180015730 f   tryblks.obj
 0001:0001473d       __catch$_wrap_catchvec_t_find__SWIG_1$4 000000018001573d f   tryblks.obj
 0001:00014763       _wrap_catchvec_t_find__SWIG_1$catch$4 0000000180015763 f   tryblks.obj
 0001:00014770       __catch$_wrap_catchvec_t_find__SWIG_1$6 0000000180015770 f   tryblks.obj
 0001:0001479c       _wrap_catchvec_t_find__SWIG_1$catch$3 000000018001579c f   tryblks.obj
 0001:000147a9       __catch$_wrap_catchvec_t_find__SWIG_1$8 00000001800157a9 f   tryblks.obj
 0001:000147c1       _wrap_catchvec_t_find__SWIG_1$catch$2 00000001800157c1 f   tryblks.obj
 0001:000147ce       __catch$_wrap_catchvec_t_find__SWIG_1$10 00000001800157ce f   tryblks.obj
 0001:000147e6       _wrap_catchvec_t_find__SWIG_1$catch$1 00000001800157e6 f   tryblks.obj
 0001:000147f3       __catch$_wrap_catchvec_t_find__SWIG_1$12 00000001800157f3 f   tryblks.obj
 0001:0001481f       _wrap_catchvec_t_find__SWIG_1$catch$0 000000018001581f f   tryblks.obj
 0001:0001482c       __catch$_wrap_catchvec_t_find__SWIG_1$14 000000018001582c f   tryblks.obj
 0001:00014860       _wrap_catchvec_t_grow$catch$15 0000000180015860 f   tryblks.obj
 0001:0001486d       __catch$_wrap_catchvec_t_grow$4 000000018001586d f   tryblks.obj
 0001:00014893       _wrap_catchvec_t_grow$catch$14 0000000180015893 f   tryblks.obj
 0001:000148a0       __catch$_wrap_catchvec_t_grow$6 00000001800158a0 f   tryblks.obj
 0001:000148cf       _wrap_catchvec_t_grow$catch$13 00000001800158cf f   tryblks.obj
 0001:000148dc       __catch$_wrap_catchvec_t_grow$8 00000001800158dc f   tryblks.obj
 0001:000148f7       _wrap_catchvec_t_grow$catch$12 00000001800158f7 f   tryblks.obj
 0001:00014904       __catch$_wrap_catchvec_t_grow$10 0000000180015904 f   tryblks.obj
 0001:0001491c       _wrap_catchvec_t_grow$catch$11 000000018001591c f   tryblks.obj
 0001:00014929       __catch$_wrap_catchvec_t_grow$12 0000000180015929 f   tryblks.obj
 0001:00014955       _wrap_catchvec_t_grow$catch$10 0000000180015955 f   tryblks.obj
 0001:00014962       __catch$_wrap_catchvec_t_grow$14 0000000180015962 f   tryblks.obj
 0001:00014990       _wrap_catchvec_t_grow$dtor$0 0000000180015990 f   tryblks.obj
 0001:000149a0       _wrap_catchvec_t_has$catch$5 00000001800159a0 f   tryblks.obj
 0001:000149ad       __catch$_wrap_catchvec_t_has$4 00000001800159ad f   tryblks.obj
 0001:000149d3       _wrap_catchvec_t_has$catch$4 00000001800159d3 f   tryblks.obj
 0001:000149e0       __catch$_wrap_catchvec_t_has$6 00000001800159e0 f   tryblks.obj
 0001:00014a0c       _wrap_catchvec_t_has$catch$3 0000000180015a0c f   tryblks.obj
 0001:00014a19       __catch$_wrap_catchvec_t_has$8 0000000180015a19 f   tryblks.obj
 0001:00014a31       _wrap_catchvec_t_has$catch$2 0000000180015a31 f   tryblks.obj
 0001:00014a3e       __catch$_wrap_catchvec_t_has$10 0000000180015a3e f   tryblks.obj
 0001:00014a56       _wrap_catchvec_t_has$catch$1 0000000180015a56 f   tryblks.obj
 0001:00014a63       __catch$_wrap_catchvec_t_has$12 0000000180015a63 f   tryblks.obj
 0001:00014a8f       _wrap_catchvec_t_has$catch$0 0000000180015a8f f   tryblks.obj
 0001:00014a9c       __catch$_wrap_catchvec_t_has$14 0000000180015a9c f   tryblks.obj
 0001:00014ad0       _wrap_catchvec_t_inject$catch$5 0000000180015ad0 f   tryblks.obj
 0001:00014add       __catch$_wrap_catchvec_t_inject$4 0000000180015add f   tryblks.obj
 0001:00014b03       _wrap_catchvec_t_inject$catch$4 0000000180015b03 f   tryblks.obj
 0001:00014b10       __catch$_wrap_catchvec_t_inject$6 0000000180015b10 f   tryblks.obj
 0001:00014b3c       _wrap_catchvec_t_inject$catch$3 0000000180015b3c f   tryblks.obj
 0001:00014b49       __catch$_wrap_catchvec_t_inject$8 0000000180015b49 f   tryblks.obj
 0001:00014b61       _wrap_catchvec_t_inject$catch$2 0000000180015b61 f   tryblks.obj
 0001:00014b6e       __catch$_wrap_catchvec_t_inject$10 0000000180015b6e f   tryblks.obj
 0001:00014b86       _wrap_catchvec_t_inject$catch$1 0000000180015b86 f   tryblks.obj
 0001:00014b93       __catch$_wrap_catchvec_t_inject$12 0000000180015b93 f   tryblks.obj
 0001:00014bbf       _wrap_catchvec_t_inject$catch$0 0000000180015bbf f   tryblks.obj
 0001:00014bcc       __catch$_wrap_catchvec_t_inject$14 0000000180015bcc f   tryblks.obj
 0001:00014c00       _wrap_catchvec_t_insert$catch$11 0000000180015c00 f   tryblks.obj
 0001:00014c0d       __catch$_wrap_catchvec_t_insert$5 0000000180015c0d f   tryblks.obj
 0001:00014c33       _wrap_catchvec_t_insert$catch$10 0000000180015c33 f   tryblks.obj
 0001:00014c40       __catch$_wrap_catchvec_t_insert$7 0000000180015c40 f   tryblks.obj
 0001:00014c6c       _wrap_catchvec_t_insert$catch$9 0000000180015c6c f   tryblks.obj
 0001:00014c79       __catch$_wrap_catchvec_t_insert$9 0000000180015c79 f   tryblks.obj
 0001:00014c91       _wrap_catchvec_t_insert$catch$8 0000000180015c91 f   tryblks.obj
 0001:00014c9e       __catch$_wrap_catchvec_t_insert$11 0000000180015c9e f   tryblks.obj
 0001:00014cb6       _wrap_catchvec_t_insert$catch$7 0000000180015cb6 f   tryblks.obj
 0001:00014cc3       __catch$_wrap_catchvec_t_insert$13 0000000180015cc3 f   tryblks.obj
 0001:00014cef       _wrap_catchvec_t_insert$catch$6 0000000180015cef f   tryblks.obj
 0001:00014cfc       __catch$_wrap_catchvec_t_insert$15 0000000180015cfc f   tryblks.obj
 0001:00014d30       _wrap_catchvec_t_pop_back$catch$8 0000000180015d30 f   tryblks.obj
 0001:00014d3d       __catch$_wrap_catchvec_t_pop_back$2 0000000180015d3d f   tryblks.obj
 0001:00014d63       _wrap_catchvec_t_pop_back$catch$7 0000000180015d63 f   tryblks.obj
 0001:00014d70       __catch$_wrap_catchvec_t_pop_back$4 0000000180015d70 f   tryblks.obj
 0001:00014d9c       _wrap_catchvec_t_pop_back$catch$6 0000000180015d9c f   tryblks.obj
 0001:00014da9       __catch$_wrap_catchvec_t_pop_back$6 0000000180015da9 f   tryblks.obj
 0001:00014dc1       _wrap_catchvec_t_pop_back$catch$5 0000000180015dc1 f   tryblks.obj
 0001:00014dce       __catch$_wrap_catchvec_t_pop_back$8 0000000180015dce f   tryblks.obj
 0001:00014de6       _wrap_catchvec_t_pop_back$catch$4 0000000180015de6 f   tryblks.obj
 0001:00014df3       __catch$_wrap_catchvec_t_pop_back$10 0000000180015df3 f   tryblks.obj
 0001:00014e1f       _wrap_catchvec_t_pop_back$catch$3 0000000180015e1f f   tryblks.obj
 0001:00014e2c       __catch$_wrap_catchvec_t_pop_back$12 0000000180015e2c f   tryblks.obj
 0001:00014e60       _wrap_catchvec_t_push_back__SWIG_0$catch$5 0000000180015e60 f   tryblks.obj
 0001:00014e6d       __catch$_wrap_catchvec_t_push_back__SWIG_0$4 0000000180015e6d f   tryblks.obj
 0001:00014e93       _wrap_catchvec_t_push_back__SWIG_0$catch$4 0000000180015e93 f   tryblks.obj
 0001:00014ea0       __catch$_wrap_catchvec_t_push_back__SWIG_0$6 0000000180015ea0 f   tryblks.obj
 0001:00014ecc       _wrap_catchvec_t_push_back__SWIG_0$catch$3 0000000180015ecc f   tryblks.obj
 0001:00014ed9       __catch$_wrap_catchvec_t_push_back__SWIG_0$8 0000000180015ed9 f   tryblks.obj
 0001:00014ef1       _wrap_catchvec_t_push_back__SWIG_0$catch$2 0000000180015ef1 f   tryblks.obj
 0001:00014efe       __catch$_wrap_catchvec_t_push_back__SWIG_0$10 0000000180015efe f   tryblks.obj
 0001:00014f16       _wrap_catchvec_t_push_back__SWIG_0$catch$1 0000000180015f16 f   tryblks.obj
 0001:00014f23       __catch$_wrap_catchvec_t_push_back__SWIG_0$12 0000000180015f23 f   tryblks.obj
 0001:00014f4f       _wrap_catchvec_t_push_back__SWIG_0$catch$0 0000000180015f4f f   tryblks.obj
 0001:00014f5c       __catch$_wrap_catchvec_t_push_back__SWIG_0$14 0000000180015f5c f   tryblks.obj
 0001:00014f90       _wrap_catchvec_t_push_back__SWIG_1$catch$8 0000000180015f90 f   tryblks.obj
 0001:00014f9d       __catch$_wrap_catchvec_t_push_back__SWIG_1$2 0000000180015f9d f   tryblks.obj
 0001:00014fc3       _wrap_catchvec_t_push_back__SWIG_1$catch$7 0000000180015fc3 f   tryblks.obj
 0001:00014fd0       __catch$_wrap_catchvec_t_push_back__SWIG_1$4 0000000180015fd0 f   tryblks.obj
 0001:00014ffc       _wrap_catchvec_t_push_back__SWIG_1$catch$6 0000000180015ffc f   tryblks.obj
 0001:00015009       __catch$_wrap_catchvec_t_push_back__SWIG_1$6 0000000180016009 f   tryblks.obj
 0001:00015021       _wrap_catchvec_t_push_back__SWIG_1$catch$5 0000000180016021 f   tryblks.obj
 0001:0001502e       __catch$_wrap_catchvec_t_push_back__SWIG_1$8 000000018001602e f   tryblks.obj
 0001:00015046       _wrap_catchvec_t_push_back__SWIG_1$catch$4 0000000180016046 f   tryblks.obj
 0001:00015053       __catch$_wrap_catchvec_t_push_back__SWIG_1$10 0000000180016053 f   tryblks.obj
 0001:0001507f       _wrap_catchvec_t_push_back__SWIG_1$catch$3 000000018001607f f   tryblks.obj
 0001:0001508c       __catch$_wrap_catchvec_t_push_back__SWIG_1$12 000000018001608c f   tryblks.obj
 0001:000150c0       _wrap_catchvec_t_qclear$catch$5 00000001800160c0 f   tryblks.obj
 0001:000150cd       __catch$_wrap_catchvec_t_qclear$2 00000001800160cd f   tryblks.obj
 0001:000150f3       _wrap_catchvec_t_qclear$catch$4 00000001800160f3 f   tryblks.obj
 0001:00015100       __catch$_wrap_catchvec_t_qclear$4 0000000180016100 f   tryblks.obj
 0001:0001512c       _wrap_catchvec_t_qclear$catch$3 000000018001612c f   tryblks.obj
 0001:00015139       __catch$_wrap_catchvec_t_qclear$6 0000000180016139 f   tryblks.obj
 0001:00015151       _wrap_catchvec_t_qclear$catch$2 0000000180016151 f   tryblks.obj
 0001:0001515e       __catch$_wrap_catchvec_t_qclear$8 000000018001615e f   tryblks.obj
 0001:00015176       _wrap_catchvec_t_qclear$catch$1 0000000180016176 f   tryblks.obj
 0001:00015183       __catch$_wrap_catchvec_t_qclear$10 0000000180016183 f   tryblks.obj
 0001:000151af       _wrap_catchvec_t_qclear$catch$0 00000001800161af f   tryblks.obj
 0001:000151bc       __catch$_wrap_catchvec_t_qclear$12 00000001800161bc f   tryblks.obj
 0001:000151f0       _wrap_catchvec_t_reserve$catch$8 00000001800161f0 f   tryblks.obj
 0001:000151fd       __catch$_wrap_catchvec_t_reserve$3 00000001800161fd f   tryblks.obj
 0001:00015223       _wrap_catchvec_t_reserve$catch$7 0000000180016223 f   tryblks.obj
 0001:00015230       __catch$_wrap_catchvec_t_reserve$5 0000000180016230 f   tryblks.obj
 0001:0001525c       _wrap_catchvec_t_reserve$catch$6 000000018001625c f   tryblks.obj
 0001:00015269       __catch$_wrap_catchvec_t_reserve$7 0000000180016269 f   tryblks.obj
 0001:00015281       _wrap_catchvec_t_reserve$catch$5 0000000180016281 f   tryblks.obj
 0001:0001528e       __catch$_wrap_catchvec_t_reserve$9 000000018001628e f   tryblks.obj
 0001:000152a6       _wrap_catchvec_t_reserve$catch$4 00000001800162a6 f   tryblks.obj
 0001:000152b3       __catch$_wrap_catchvec_t_reserve$11 00000001800162b3 f   tryblks.obj
 0001:000152df       _wrap_catchvec_t_reserve$catch$3 00000001800162df f   tryblks.obj
 0001:000152ec       __catch$_wrap_catchvec_t_reserve$13 00000001800162ec f   tryblks.obj
 0001:00015320       _wrap_catchvec_t_resize__SWIG_0$catch$5 0000000180016320 f   tryblks.obj
 0001:0001532d       __catch$_wrap_catchvec_t_resize__SWIG_0$5 000000018001632d f   tryblks.obj
 0001:00015353       _wrap_catchvec_t_resize__SWIG_0$catch$4 0000000180016353 f   tryblks.obj
 0001:00015360       __catch$_wrap_catchvec_t_resize__SWIG_0$7 0000000180016360 f   tryblks.obj
 0001:0001538c       _wrap_catchvec_t_resize__SWIG_0$catch$3 000000018001638c f   tryblks.obj
 0001:00015399       __catch$_wrap_catchvec_t_resize__SWIG_0$9 0000000180016399 f   tryblks.obj
 0001:000153b1       _wrap_catchvec_t_resize__SWIG_0$catch$2 00000001800163b1 f   tryblks.obj
 0001:000153be       __catch$_wrap_catchvec_t_resize__SWIG_0$11 00000001800163be f   tryblks.obj
 0001:000153d6       _wrap_catchvec_t_resize__SWIG_0$catch$1 00000001800163d6 f   tryblks.obj
 0001:000153e3       __catch$_wrap_catchvec_t_resize__SWIG_0$13 00000001800163e3 f   tryblks.obj
 0001:0001540f       _wrap_catchvec_t_resize__SWIG_0$catch$0 000000018001640f f   tryblks.obj
 0001:0001541c       __catch$_wrap_catchvec_t_resize__SWIG_0$15 000000018001641c f   tryblks.obj
 0001:00015450       _wrap_catchvec_t_resize__SWIG_1$catch$11 0000000180016450 f   tryblks.obj
 0001:0001545d       __catch$_wrap_catchvec_t_resize__SWIG_1$3 000000018001645d f   tryblks.obj
 0001:00015483       _wrap_catchvec_t_resize__SWIG_1$catch$10 0000000180016483 f   tryblks.obj
 0001:00015490       __catch$_wrap_catchvec_t_resize__SWIG_1$5 0000000180016490 f   tryblks.obj
 0001:000154bc       _wrap_catchvec_t_resize__SWIG_1$catch$9 00000001800164bc f   tryblks.obj
 0001:000154c9       __catch$_wrap_catchvec_t_resize__SWIG_1$7 00000001800164c9 f   tryblks.obj
 0001:000154e1       _wrap_catchvec_t_resize__SWIG_1$catch$8 00000001800164e1 f   tryblks.obj
 0001:000154ee       __catch$_wrap_catchvec_t_resize__SWIG_1$9 00000001800164ee f   tryblks.obj
 0001:00015506       _wrap_catchvec_t_resize__SWIG_1$catch$7 0000000180016506 f   tryblks.obj
 0001:00015513       __catch$_wrap_catchvec_t_resize__SWIG_1$11 0000000180016513 f   tryblks.obj
 0001:0001553f       _wrap_catchvec_t_resize__SWIG_1$catch$6 000000018001653f f   tryblks.obj
 0001:0001554c       __catch$_wrap_catchvec_t_resize__SWIG_1$13 000000018001654c f   tryblks.obj
 0001:00015580       _wrap_catchvec_t_size$catch$5 0000000180016580 f   tryblks.obj
 0001:0001558d       __catch$_wrap_catchvec_t_size$2 000000018001658d f   tryblks.obj
 0001:000155b3       _wrap_catchvec_t_size$catch$4 00000001800165b3 f   tryblks.obj
 0001:000155c0       __catch$_wrap_catchvec_t_size$4 00000001800165c0 f   tryblks.obj
 0001:000155ec       _wrap_catchvec_t_size$catch$3 00000001800165ec f   tryblks.obj
 0001:000155f9       __catch$_wrap_catchvec_t_size$6 00000001800165f9 f   tryblks.obj
 0001:00015611       _wrap_catchvec_t_size$catch$2 0000000180016611 f   tryblks.obj
 0001:0001561e       __catch$_wrap_catchvec_t_size$8 000000018001661e f   tryblks.obj
 0001:00015636       _wrap_catchvec_t_size$catch$1 0000000180016636 f   tryblks.obj
 0001:00015643       __catch$_wrap_catchvec_t_size$10 0000000180016643 f   tryblks.obj
 0001:0001566f       _wrap_catchvec_t_size$catch$0 000000018001666f f   tryblks.obj
 0001:0001567c       __catch$_wrap_catchvec_t_size$12 000000018001667c f   tryblks.obj
 0001:000156b0       _wrap_catchvec_t_swap$catch$5 00000001800166b0 f   tryblks.obj
 0001:000156bd       __catch$_wrap_catchvec_t_swap$4 00000001800166bd f   tryblks.obj
 0001:000156e3       _wrap_catchvec_t_swap$catch$4 00000001800166e3 f   tryblks.obj
 0001:000156f0       __catch$_wrap_catchvec_t_swap$6 00000001800166f0 f   tryblks.obj
 0001:0001571c       _wrap_catchvec_t_swap$catch$3 000000018001671c f   tryblks.obj
 0001:00015729       __catch$_wrap_catchvec_t_swap$8 0000000180016729 f   tryblks.obj
 0001:00015741       _wrap_catchvec_t_swap$catch$2 0000000180016741 f   tryblks.obj
 0001:0001574e       __catch$_wrap_catchvec_t_swap$10 000000018001674e f   tryblks.obj
 0001:00015766       _wrap_catchvec_t_swap$catch$1 0000000180016766 f   tryblks.obj
 0001:00015773       __catch$_wrap_catchvec_t_swap$12 0000000180016773 f   tryblks.obj
 0001:0001579f       _wrap_catchvec_t_swap$catch$0 000000018001679f f   tryblks.obj
 0001:000157ac       __catch$_wrap_catchvec_t_swap$14 00000001800167ac f   tryblks.obj
 0001:000157e0       _wrap_catchvec_t_truncate$catch$5 00000001800167e0 f   tryblks.obj
 0001:000157ed       __catch$_wrap_catchvec_t_truncate$2 00000001800167ed f   tryblks.obj
 0001:00015813       _wrap_catchvec_t_truncate$catch$4 0000000180016813 f   tryblks.obj
 0001:00015820       __catch$_wrap_catchvec_t_truncate$4 0000000180016820 f   tryblks.obj
 0001:0001584c       _wrap_catchvec_t_truncate$catch$3 000000018001684c f   tryblks.obj
 0001:00015859       __catch$_wrap_catchvec_t_truncate$6 0000000180016859 f   tryblks.obj
 0001:00015871       _wrap_catchvec_t_truncate$catch$2 0000000180016871 f   tryblks.obj
 0001:0001587e       __catch$_wrap_catchvec_t_truncate$8 000000018001687e f   tryblks.obj
 0001:00015896       _wrap_catchvec_t_truncate$catch$1 0000000180016896 f   tryblks.obj
 0001:000158a3       __catch$_wrap_catchvec_t_truncate$10 00000001800168a3 f   tryblks.obj
 0001:000158cf       _wrap_catchvec_t_truncate$catch$0 00000001800168cf f   tryblks.obj
 0001:000158dc       __catch$_wrap_catchvec_t_truncate$12 00000001800168dc f   tryblks.obj
 0001:00015910       _wrap_del_tryblks$catch$5  0000000180016910 f   tryblks.obj
 0001:0001591d       __catch$_wrap_del_tryblks$3 000000018001691d f   tryblks.obj
 0001:00015943       _wrap_del_tryblks$catch$4  0000000180016943 f   tryblks.obj
 0001:00015950       __catch$_wrap_del_tryblks$5 0000000180016950 f   tryblks.obj
 0001:0001597c       _wrap_del_tryblks$catch$3  000000018001697c f   tryblks.obj
 0001:00015989       __catch$_wrap_del_tryblks$7 0000000180016989 f   tryblks.obj
 0001:000159a1       _wrap_del_tryblks$catch$2  00000001800169a1 f   tryblks.obj
 0001:000159ae       __catch$_wrap_del_tryblks$9 00000001800169ae f   tryblks.obj
 0001:000159c6       _wrap_del_tryblks$catch$1  00000001800169c6 f   tryblks.obj
 0001:000159d3       __catch$_wrap_del_tryblks$11 00000001800169d3 f   tryblks.obj
 0001:000159ff       _wrap_del_tryblks$catch$0  00000001800169ff f   tryblks.obj
 0001:00015a0c       __catch$_wrap_del_tryblks$13 0000000180016a0c f   tryblks.obj
 0001:00015a40       _wrap_delete_catch_t$catch$8 0000000180016a40 f   tryblks.obj
 0001:00015a4d       __catch$_wrap_delete_catch_t$2 0000000180016a4d f   tryblks.obj
 0001:00015a73       _wrap_delete_catch_t$catch$7 0000000180016a73 f   tryblks.obj
 0001:00015a80       __catch$_wrap_delete_catch_t$4 0000000180016a80 f   tryblks.obj
 0001:00015aac       _wrap_delete_catch_t$catch$6 0000000180016aac f   tryblks.obj
 0001:00015ab9       __catch$_wrap_delete_catch_t$6 0000000180016ab9 f   tryblks.obj
 0001:00015ad1       _wrap_delete_catch_t$catch$5 0000000180016ad1 f   tryblks.obj
 0001:00015ade       __catch$_wrap_delete_catch_t$8 0000000180016ade f   tryblks.obj
 0001:00015af6       _wrap_delete_catch_t$catch$4 0000000180016af6 f   tryblks.obj
 0001:00015b03       __catch$_wrap_delete_catch_t$10 0000000180016b03 f   tryblks.obj
 0001:00015b2f       _wrap_delete_catch_t$catch$3 0000000180016b2f f   tryblks.obj
 0001:00015b3c       __catch$_wrap_delete_catch_t$12 0000000180016b3c f   tryblks.obj
 0001:00015b70       _wrap_delete_catchvec_t$catch$5 0000000180016b70 f   tryblks.obj
 0001:00015b7d       __catch$_wrap_delete_catchvec_t$2 0000000180016b7d f   tryblks.obj
 0001:00015ba3       _wrap_delete_catchvec_t$catch$4 0000000180016ba3 f   tryblks.obj
 0001:00015bb0       __catch$_wrap_delete_catchvec_t$4 0000000180016bb0 f   tryblks.obj
 0001:00015bdc       _wrap_delete_catchvec_t$catch$3 0000000180016bdc f   tryblks.obj
 0001:00015be9       __catch$_wrap_delete_catchvec_t$6 0000000180016be9 f   tryblks.obj
 0001:00015c01       _wrap_delete_catchvec_t$catch$2 0000000180016c01 f   tryblks.obj
 0001:00015c0e       __catch$_wrap_delete_catchvec_t$8 0000000180016c0e f   tryblks.obj
 0001:00015c26       _wrap_delete_catchvec_t$catch$1 0000000180016c26 f   tryblks.obj
 0001:00015c33       __catch$_wrap_delete_catchvec_t$10 0000000180016c33 f   tryblks.obj
 0001:00015c5f       _wrap_delete_catchvec_t$catch$0 0000000180016c5f f   tryblks.obj
 0001:00015c6c       __catch$_wrap_delete_catchvec_t$12 0000000180016c6c f   tryblks.obj
 0001:00015ca0       _wrap_delete_seh_t$catch$9 0000000180016ca0 f   tryblks.obj
 0001:00015cad       __catch$_wrap_delete_seh_t$2 0000000180016cad f   tryblks.obj
 0001:00015cd3       _wrap_delete_seh_t$catch$8 0000000180016cd3 f   tryblks.obj
 0001:00015ce0       __catch$_wrap_delete_seh_t$4 0000000180016ce0 f   tryblks.obj
 0001:00015d0c       _wrap_delete_seh_t$catch$7 0000000180016d0c f   tryblks.obj
 0001:00015d19       __catch$_wrap_delete_seh_t$6 0000000180016d19 f   tryblks.obj
 0001:00015d31       _wrap_delete_seh_t$catch$6 0000000180016d31 f   tryblks.obj
 0001:00015d3e       __catch$_wrap_delete_seh_t$8 0000000180016d3e f   tryblks.obj
 0001:00015d56       _wrap_delete_seh_t$catch$5 0000000180016d56 f   tryblks.obj
 0001:00015d63       __catch$_wrap_delete_seh_t$10 0000000180016d63 f   tryblks.obj
 0001:00015d8f       _wrap_delete_seh_t$catch$4 0000000180016d8f f   tryblks.obj
 0001:00015d9c       __catch$_wrap_delete_seh_t$12 0000000180016d9c f   tryblks.obj
 0001:00015dd0       _wrap_delete_try_handler_t$catch$7 0000000180016dd0 f   tryblks.obj
 0001:00015ddd       __catch$_wrap_delete_try_handler_t$2 0000000180016ddd f   tryblks.obj
 0001:00015e03       _wrap_delete_try_handler_t$catch$6 0000000180016e03 f   tryblks.obj
 0001:00015e10       __catch$_wrap_delete_try_handler_t$4 0000000180016e10 f   tryblks.obj
 0001:00015e3c       _wrap_delete_try_handler_t$catch$5 0000000180016e3c f   tryblks.obj
 0001:00015e49       __catch$_wrap_delete_try_handler_t$6 0000000180016e49 f   tryblks.obj
 0001:00015e61       _wrap_delete_try_handler_t$catch$4 0000000180016e61 f   tryblks.obj
 0001:00015e6e       __catch$_wrap_delete_try_handler_t$8 0000000180016e6e f   tryblks.obj
 0001:00015e86       _wrap_delete_try_handler_t$catch$3 0000000180016e86 f   tryblks.obj
 0001:00015e93       __catch$_wrap_delete_try_handler_t$10 0000000180016e93 f   tryblks.obj
 0001:00015ebf       _wrap_delete_try_handler_t$catch$2 0000000180016ebf f   tryblks.obj
 0001:00015ecc       __catch$_wrap_delete_try_handler_t$12 0000000180016ecc f   tryblks.obj
 0001:00015f00       _wrap_delete_tryblk_t$catch$7 0000000180016f00 f   tryblks.obj
 0001:00015f0d       __catch$_wrap_delete_tryblk_t$2 0000000180016f0d f   tryblks.obj
 0001:00015f33       _wrap_delete_tryblk_t$catch$6 0000000180016f33 f   tryblks.obj
 0001:00015f40       __catch$_wrap_delete_tryblk_t$4 0000000180016f40 f   tryblks.obj
 0001:00015f6c       _wrap_delete_tryblk_t$catch$5 0000000180016f6c f   tryblks.obj
 0001:00015f79       __catch$_wrap_delete_tryblk_t$6 0000000180016f79 f   tryblks.obj
 0001:00015f91       _wrap_delete_tryblk_t$catch$4 0000000180016f91 f   tryblks.obj
 0001:00015f9e       __catch$_wrap_delete_tryblk_t$8 0000000180016f9e f   tryblks.obj
 0001:00015fb6       _wrap_delete_tryblk_t$catch$3 0000000180016fb6 f   tryblks.obj
 0001:00015fc3       __catch$_wrap_delete_tryblk_t$10 0000000180016fc3 f   tryblks.obj
 0001:00015fef       _wrap_delete_tryblk_t$catch$2 0000000180016fef f   tryblks.obj
 0001:00015ffc       __catch$_wrap_delete_tryblk_t$12 0000000180016ffc f   tryblks.obj
 0001:00016030       _wrap_delete_tryblks_t$catch$5 0000000180017030 f   tryblks.obj
 0001:0001603d       __catch$_wrap_delete_tryblks_t$2 000000018001703d f   tryblks.obj
 0001:00016063       _wrap_delete_tryblks_t$catch$4 0000000180017063 f   tryblks.obj
 0001:00016070       __catch$_wrap_delete_tryblks_t$4 0000000180017070 f   tryblks.obj
 0001:0001609c       _wrap_delete_tryblks_t$catch$3 000000018001709c f   tryblks.obj
 0001:000160a9       __catch$_wrap_delete_tryblks_t$6 00000001800170a9 f   tryblks.obj
 0001:000160c1       _wrap_delete_tryblks_t$catch$2 00000001800170c1 f   tryblks.obj
 0001:000160ce       __catch$_wrap_delete_tryblks_t$8 00000001800170ce f   tryblks.obj
 0001:000160e6       _wrap_delete_tryblks_t$catch$1 00000001800170e6 f   tryblks.obj
 0001:000160f3       __catch$_wrap_delete_tryblks_t$10 00000001800170f3 f   tryblks.obj
 0001:0001611f       _wrap_delete_tryblks_t$catch$0 000000018001711f f   tryblks.obj
 0001:0001612c       __catch$_wrap_delete_tryblks_t$12 000000018001712c f   tryblks.obj
 0001:00016160       _wrap_find_syseh$catch$5   0000000180017160 f   tryblks.obj
 0001:0001616d       __catch$_wrap_find_syseh$2 000000018001716d f   tryblks.obj
 0001:00016193       _wrap_find_syseh$catch$4   0000000180017193 f   tryblks.obj
 0001:000161a0       __catch$_wrap_find_syseh$4 00000001800171a0 f   tryblks.obj
 0001:000161cc       _wrap_find_syseh$catch$3   00000001800171cc f   tryblks.obj
 0001:000161d9       __catch$_wrap_find_syseh$6 00000001800171d9 f   tryblks.obj
 0001:000161f1       _wrap_find_syseh$catch$2   00000001800171f1 f   tryblks.obj
 0001:000161fe       __catch$_wrap_find_syseh$8 00000001800171fe f   tryblks.obj
 0001:00016216       _wrap_find_syseh$catch$1   0000000180017216 f   tryblks.obj
 0001:00016223       __catch$_wrap_find_syseh$10 0000000180017223 f   tryblks.obj
 0001:0001624f       _wrap_find_syseh$catch$0   000000018001724f f   tryblks.obj
 0001:0001625c       __catch$_wrap_find_syseh$12 000000018001725c f   tryblks.obj
 0001:00016290       _wrap_get_tryblks$catch$5  0000000180017290 f   tryblks.obj
 0001:0001629d       __catch$_wrap_get_tryblks$4 000000018001729d f   tryblks.obj
 0001:000162c3       _wrap_get_tryblks$catch$4  00000001800172c3 f   tryblks.obj
 0001:000162d0       __catch$_wrap_get_tryblks$6 00000001800172d0 f   tryblks.obj
 0001:000162fc       _wrap_get_tryblks$catch$3  00000001800172fc f   tryblks.obj
 0001:00016309       __catch$_wrap_get_tryblks$8 0000000180017309 f   tryblks.obj
 0001:00016321       _wrap_get_tryblks$catch$2  0000000180017321 f   tryblks.obj
 0001:0001632e       __catch$_wrap_get_tryblks$10 000000018001732e f   tryblks.obj
 0001:00016346       _wrap_get_tryblks$catch$1  0000000180017346 f   tryblks.obj
 0001:00016353       __catch$_wrap_get_tryblks$12 0000000180017353 f   tryblks.obj
 0001:0001637f       _wrap_get_tryblks$catch$0  000000018001737f f   tryblks.obj
 0001:0001638c       __catch$_wrap_get_tryblks$14 000000018001738c f   tryblks.obj
 0001:000163c0       _wrap_new_catch_t$catch$6  00000001800173c0 f   tryblks.obj
 0001:000163cd       __catch$_wrap_new_catch_t$1 00000001800173cd f   tryblks.obj
 0001:000163f3       _wrap_new_catch_t$catch$5  00000001800173f3 f   tryblks.obj
 0001:00016400       __catch$_wrap_new_catch_t$3 0000000180017400 f   tryblks.obj
 0001:0001642c       _wrap_new_catch_t$catch$4  000000018001742c f   tryblks.obj
 0001:00016439       __catch$_wrap_new_catch_t$5 0000000180017439 f   tryblks.obj
 0001:00016451       _wrap_new_catch_t$catch$3  0000000180017451 f   tryblks.obj
 0001:0001645e       __catch$_wrap_new_catch_t$7 000000018001745e f   tryblks.obj
 0001:00016476       _wrap_new_catch_t$catch$2  0000000180017476 f   tryblks.obj
 0001:00016483       __catch$_wrap_new_catch_t$9 0000000180017483 f   tryblks.obj
 0001:000164af       _wrap_new_catch_t$catch$1  00000001800174af f   tryblks.obj
 0001:000164bc       __catch$_wrap_new_catch_t$11 00000001800174bc f   tryblks.obj
 0001:000164f0       _wrap_new_catchvec_t__SWIG_0$catch$6 00000001800174f0 f   tryblks.obj
 0001:000164fd       __catch$_wrap_new_catchvec_t__SWIG_0$1 00000001800174fd f   tryblks.obj
 0001:00016523       _wrap_new_catchvec_t__SWIG_0$catch$5 0000000180017523 f   tryblks.obj
 0001:00016530       __catch$_wrap_new_catchvec_t__SWIG_0$3 0000000180017530 f   tryblks.obj
 0001:0001655c       _wrap_new_catchvec_t__SWIG_0$catch$4 000000018001755c f   tryblks.obj
 0001:00016569       __catch$_wrap_new_catchvec_t__SWIG_0$5 0000000180017569 f   tryblks.obj
 0001:00016581       _wrap_new_catchvec_t__SWIG_0$catch$3 0000000180017581 f   tryblks.obj
 0001:0001658e       __catch$_wrap_new_catchvec_t__SWIG_0$7 000000018001758e f   tryblks.obj
 0001:000165a6       _wrap_new_catchvec_t__SWIG_0$catch$2 00000001800175a6 f   tryblks.obj
 0001:000165b3       __catch$_wrap_new_catchvec_t__SWIG_0$9 00000001800175b3 f   tryblks.obj
 0001:000165df       _wrap_new_catchvec_t__SWIG_0$catch$1 00000001800175df f   tryblks.obj
 0001:000165ec       __catch$_wrap_new_catchvec_t__SWIG_0$11 00000001800175ec f   tryblks.obj
 0001:00016620       _wrap_new_catchvec_t__SWIG_1$catch$6 0000000180017620 f   tryblks.obj
 0001:0001662d       __catch$_wrap_new_catchvec_t__SWIG_1$3 000000018001762d f   tryblks.obj
 0001:00016653       _wrap_new_catchvec_t__SWIG_1$catch$5 0000000180017653 f   tryblks.obj
 0001:00016660       __catch$_wrap_new_catchvec_t__SWIG_1$5 0000000180017660 f   tryblks.obj
 0001:0001668c       _wrap_new_catchvec_t__SWIG_1$catch$4 000000018001768c f   tryblks.obj
 0001:00016699       __catch$_wrap_new_catchvec_t__SWIG_1$7 0000000180017699 f   tryblks.obj
 0001:000166b1       _wrap_new_catchvec_t__SWIG_1$catch$3 00000001800176b1 f   tryblks.obj
 0001:000166be       __catch$_wrap_new_catchvec_t__SWIG_1$9 00000001800176be f   tryblks.obj
 0001:000166d6       _wrap_new_catchvec_t__SWIG_1$catch$2 00000001800176d6 f   tryblks.obj
 0001:000166e3       __catch$_wrap_new_catchvec_t__SWIG_1$11 00000001800176e3 f   tryblks.obj
 0001:0001670f       _wrap_new_catchvec_t__SWIG_1$catch$1 000000018001770f f   tryblks.obj
 0001:0001671c       __catch$_wrap_new_catchvec_t__SWIG_1$13 000000018001771c f   tryblks.obj
 0001:00016750       _wrap_new_seh_t$catch$6    0000000180017750 f   tryblks.obj
 0001:0001675d       __catch$_wrap_new_seh_t$1  000000018001775d f   tryblks.obj
 0001:00016783       _wrap_new_seh_t$catch$5    0000000180017783 f   tryblks.obj
 0001:00016790       __catch$_wrap_new_seh_t$3  0000000180017790 f   tryblks.obj
 0001:000167bc       _wrap_new_seh_t$catch$4    00000001800177bc f   tryblks.obj
 0001:000167c9       __catch$_wrap_new_seh_t$5  00000001800177c9 f   tryblks.obj
 0001:000167e1       _wrap_new_seh_t$catch$3    00000001800177e1 f   tryblks.obj
 0001:000167ee       __catch$_wrap_new_seh_t$7  00000001800177ee f   tryblks.obj
 0001:00016806       _wrap_new_seh_t$catch$2    0000000180017806 f   tryblks.obj
 0001:00016813       __catch$_wrap_new_seh_t$9  0000000180017813 f   tryblks.obj
 0001:0001683f       _wrap_new_seh_t$catch$1    000000018001783f f   tryblks.obj
 0001:0001684c       __catch$_wrap_new_seh_t$11 000000018001784c f   tryblks.obj
 0001:00016880       _wrap_new_try_handler_t$catch$6 0000000180017880 f   tryblks.obj
 0001:0001688d       __catch$_wrap_new_try_handler_t$1 000000018001788d f   tryblks.obj
 0001:000168b3       _wrap_new_try_handler_t$catch$5 00000001800178b3 f   tryblks.obj
 0001:000168c0       __catch$_wrap_new_try_handler_t$3 00000001800178c0 f   tryblks.obj
 0001:000168ec       _wrap_new_try_handler_t$catch$4 00000001800178ec f   tryblks.obj
 0001:000168f9       __catch$_wrap_new_try_handler_t$5 00000001800178f9 f   tryblks.obj
 0001:00016911       _wrap_new_try_handler_t$catch$3 0000000180017911 f   tryblks.obj
 0001:0001691e       __catch$_wrap_new_try_handler_t$7 000000018001791e f   tryblks.obj
 0001:00016936       _wrap_new_try_handler_t$catch$2 0000000180017936 f   tryblks.obj
 0001:00016943       __catch$_wrap_new_try_handler_t$9 0000000180017943 f   tryblks.obj
 0001:0001696f       _wrap_new_try_handler_t$catch$1 000000018001796f f   tryblks.obj
 0001:0001697c       __catch$_wrap_new_try_handler_t$11 000000018001797c f   tryblks.obj
 0001:000169b0       _wrap_new_tryblk_t__SWIG_0$catch$6 00000001800179b0 f   tryblks.obj
 0001:000169bd       __catch$_wrap_new_tryblk_t__SWIG_0$1 00000001800179bd f   tryblks.obj
 0001:000169e3       _wrap_new_tryblk_t__SWIG_0$catch$5 00000001800179e3 f   tryblks.obj
 0001:000169f0       __catch$_wrap_new_tryblk_t__SWIG_0$3 00000001800179f0 f   tryblks.obj
 0001:00016a1c       _wrap_new_tryblk_t__SWIG_0$catch$4 0000000180017a1c f   tryblks.obj
 0001:00016a29       __catch$_wrap_new_tryblk_t__SWIG_0$5 0000000180017a29 f   tryblks.obj
 0001:00016a41       _wrap_new_tryblk_t__SWIG_0$catch$3 0000000180017a41 f   tryblks.obj
 0001:00016a4e       __catch$_wrap_new_tryblk_t__SWIG_0$7 0000000180017a4e f   tryblks.obj
 0001:00016a66       _wrap_new_tryblk_t__SWIG_0$catch$2 0000000180017a66 f   tryblks.obj
 0001:00016a73       __catch$_wrap_new_tryblk_t__SWIG_0$9 0000000180017a73 f   tryblks.obj
 0001:00016a9f       _wrap_new_tryblk_t__SWIG_0$catch$1 0000000180017a9f f   tryblks.obj
 0001:00016aac       __catch$_wrap_new_tryblk_t__SWIG_0$11 0000000180017aac f   tryblks.obj
 0001:00016ae0       _wrap_new_tryblk_t__SWIG_1$catch$6 0000000180017ae0 f   tryblks.obj
 0001:00016aed       __catch$_wrap_new_tryblk_t__SWIG_1$3 0000000180017aed f   tryblks.obj
 0001:00016b13       _wrap_new_tryblk_t__SWIG_1$catch$5 0000000180017b13 f   tryblks.obj
 0001:00016b20       __catch$_wrap_new_tryblk_t__SWIG_1$5 0000000180017b20 f   tryblks.obj
 0001:00016b4c       _wrap_new_tryblk_t__SWIG_1$catch$4 0000000180017b4c f   tryblks.obj
 0001:00016b59       __catch$_wrap_new_tryblk_t__SWIG_1$7 0000000180017b59 f   tryblks.obj
 0001:00016b71       _wrap_new_tryblk_t__SWIG_1$catch$3 0000000180017b71 f   tryblks.obj
 0001:00016b7e       __catch$_wrap_new_tryblk_t__SWIG_1$9 0000000180017b7e f   tryblks.obj
 0001:00016b96       _wrap_new_tryblk_t__SWIG_1$catch$2 0000000180017b96 f   tryblks.obj
 0001:00016ba3       __catch$_wrap_new_tryblk_t__SWIG_1$11 0000000180017ba3 f   tryblks.obj
 0001:00016bcf       _wrap_new_tryblk_t__SWIG_1$catch$1 0000000180017bcf f   tryblks.obj
 0001:00016bdc       __catch$_wrap_new_tryblk_t__SWIG_1$13 0000000180017bdc f   tryblks.obj
 0001:00016c10       _wrap_new_tryblks_t__SWIG_0$catch$6 0000000180017c10 f   tryblks.obj
 0001:00016c1d       __catch$_wrap_new_tryblks_t__SWIG_0$1 0000000180017c1d f   tryblks.obj
 0001:00016c43       _wrap_new_tryblks_t__SWIG_0$catch$5 0000000180017c43 f   tryblks.obj
 0001:00016c50       __catch$_wrap_new_tryblks_t__SWIG_0$3 0000000180017c50 f   tryblks.obj
 0001:00016c7c       _wrap_new_tryblks_t__SWIG_0$catch$4 0000000180017c7c f   tryblks.obj
 0001:00016c89       __catch$_wrap_new_tryblks_t__SWIG_0$5 0000000180017c89 f   tryblks.obj
 0001:00016ca1       _wrap_new_tryblks_t__SWIG_0$catch$3 0000000180017ca1 f   tryblks.obj
 0001:00016cae       __catch$_wrap_new_tryblks_t__SWIG_0$7 0000000180017cae f   tryblks.obj
 0001:00016cc6       _wrap_new_tryblks_t__SWIG_0$catch$2 0000000180017cc6 f   tryblks.obj
 0001:00016cd3       __catch$_wrap_new_tryblks_t__SWIG_0$9 0000000180017cd3 f   tryblks.obj
 0001:00016cff       _wrap_new_tryblks_t__SWIG_0$catch$1 0000000180017cff f   tryblks.obj
 0001:00016d0c       __catch$_wrap_new_tryblks_t__SWIG_0$11 0000000180017d0c f   tryblks.obj
 0001:00016d40       _wrap_new_tryblks_t__SWIG_1$catch$6 0000000180017d40 f   tryblks.obj
 0001:00016d4d       __catch$_wrap_new_tryblks_t__SWIG_1$3 0000000180017d4d f   tryblks.obj
 0001:00016d73       _wrap_new_tryblks_t__SWIG_1$catch$5 0000000180017d73 f   tryblks.obj
 0001:00016d80       __catch$_wrap_new_tryblks_t__SWIG_1$5 0000000180017d80 f   tryblks.obj
 0001:00016dac       _wrap_new_tryblks_t__SWIG_1$catch$4 0000000180017dac f   tryblks.obj
 0001:00016db9       __catch$_wrap_new_tryblks_t__SWIG_1$7 0000000180017db9 f   tryblks.obj
 0001:00016dd1       _wrap_new_tryblks_t__SWIG_1$catch$3 0000000180017dd1 f   tryblks.obj
 0001:00016dde       __catch$_wrap_new_tryblks_t__SWIG_1$9 0000000180017dde f   tryblks.obj
 0001:00016df6       _wrap_new_tryblks_t__SWIG_1$catch$2 0000000180017df6 f   tryblks.obj
 0001:00016e03       __catch$_wrap_new_tryblks_t__SWIG_1$11 0000000180017e03 f   tryblks.obj
 0001:00016e2f       _wrap_new_tryblks_t__SWIG_1$catch$1 0000000180017e2f f   tryblks.obj
 0001:00016e3c       __catch$_wrap_new_tryblks_t__SWIG_1$13 0000000180017e3c f   tryblks.obj
 0001:00016e70       _wrap_seh_t_clear$catch$5  0000000180017e70 f   tryblks.obj
 0001:00016e7d       __catch$_wrap_seh_t_clear$2 0000000180017e7d f   tryblks.obj
 0001:00016ea3       _wrap_seh_t_clear$catch$4  0000000180017ea3 f   tryblks.obj
 0001:00016eb0       __catch$_wrap_seh_t_clear$4 0000000180017eb0 f   tryblks.obj
 0001:00016edc       _wrap_seh_t_clear$catch$3  0000000180017edc f   tryblks.obj
 0001:00016ee9       __catch$_wrap_seh_t_clear$6 0000000180017ee9 f   tryblks.obj
 0001:00016f01       _wrap_seh_t_clear$catch$2  0000000180017f01 f   tryblks.obj
 0001:00016f0e       __catch$_wrap_seh_t_clear$8 0000000180017f0e f   tryblks.obj
 0001:00016f26       _wrap_seh_t_clear$catch$1  0000000180017f26 f   tryblks.obj
 0001:00016f33       __catch$_wrap_seh_t_clear$10 0000000180017f33 f   tryblks.obj
 0001:00016f5f       _wrap_seh_t_clear$catch$0  0000000180017f5f f   tryblks.obj
 0001:00016f6c       __catch$_wrap_seh_t_clear$12 0000000180017f6c f   tryblks.obj
 0001:00016fa0       _wrap_try_handler_t_clear$catch$5 0000000180017fa0 f   tryblks.obj
 0001:00016fad       __catch$_wrap_try_handler_t_clear$2 0000000180017fad f   tryblks.obj
 0001:00016fd3       _wrap_try_handler_t_clear$catch$4 0000000180017fd3 f   tryblks.obj
 0001:00016fe0       __catch$_wrap_try_handler_t_clear$4 0000000180017fe0 f   tryblks.obj
 0001:0001700c       _wrap_try_handler_t_clear$catch$3 000000018001800c f   tryblks.obj
 0001:00017019       __catch$_wrap_try_handler_t_clear$6 0000000180018019 f   tryblks.obj
 0001:00017031       _wrap_try_handler_t_clear$catch$2 0000000180018031 f   tryblks.obj
 0001:0001703e       __catch$_wrap_try_handler_t_clear$8 000000018001803e f   tryblks.obj
 0001:00017056       _wrap_try_handler_t_clear$catch$1 0000000180018056 f   tryblks.obj
 0001:00017063       __catch$_wrap_try_handler_t_clear$10 0000000180018063 f   tryblks.obj
 0001:0001708f       _wrap_try_handler_t_clear$catch$0 000000018001808f f   tryblks.obj
 0001:0001709c       __catch$_wrap_try_handler_t_clear$12 000000018001809c f   tryblks.obj
 0001:000170d0       _wrap_tryblk_t_clear$catch$5 00000001800180d0 f   tryblks.obj
 0001:000170dd       __catch$_wrap_tryblk_t_clear$2 00000001800180dd f   tryblks.obj
 0001:00017103       _wrap_tryblk_t_clear$catch$4 0000000180018103 f   tryblks.obj
 0001:00017110       __catch$_wrap_tryblk_t_clear$4 0000000180018110 f   tryblks.obj
 0001:0001713c       _wrap_tryblk_t_clear$catch$3 000000018001813c f   tryblks.obj
 0001:00017149       __catch$_wrap_tryblk_t_clear$6 0000000180018149 f   tryblks.obj
 0001:00017161       _wrap_tryblk_t_clear$catch$2 0000000180018161 f   tryblks.obj
 0001:0001716e       __catch$_wrap_tryblk_t_clear$8 000000018001816e f   tryblks.obj
 0001:00017186       _wrap_tryblk_t_clear$catch$1 0000000180018186 f   tryblks.obj
 0001:00017193       __catch$_wrap_tryblk_t_clear$10 0000000180018193 f   tryblks.obj
 0001:000171bf       _wrap_tryblk_t_clear$catch$0 00000001800181bf f   tryblks.obj
 0001:000171cc       __catch$_wrap_tryblk_t_clear$12 00000001800181cc f   tryblks.obj
 0001:00017200       _wrap_tryblk_t_cpp$catch$5 0000000180018200 f   tryblks.obj
 0001:0001720d       __catch$_wrap_tryblk_t_cpp$2 000000018001820d f   tryblks.obj
 0001:00017233       _wrap_tryblk_t_cpp$catch$4 0000000180018233 f   tryblks.obj
 0001:00017240       __catch$_wrap_tryblk_t_cpp$4 0000000180018240 f   tryblks.obj
 0001:0001726c       _wrap_tryblk_t_cpp$catch$3 000000018001826c f   tryblks.obj
 0001:00017279       __catch$_wrap_tryblk_t_cpp$6 0000000180018279 f   tryblks.obj
 0001:00017291       _wrap_tryblk_t_cpp$catch$2 0000000180018291 f   tryblks.obj
 0001:0001729e       __catch$_wrap_tryblk_t_cpp$8 000000018001829e f   tryblks.obj
 0001:000172b6       _wrap_tryblk_t_cpp$catch$1 00000001800182b6 f   tryblks.obj
 0001:000172c3       __catch$_wrap_tryblk_t_cpp$10 00000001800182c3 f   tryblks.obj
 0001:000172ef       _wrap_tryblk_t_cpp$catch$0 00000001800182ef f   tryblks.obj
 0001:000172fc       __catch$_wrap_tryblk_t_cpp$12 00000001800182fc f   tryblks.obj
 0001:00017330       _wrap_tryblk_t_empty$catch$5 0000000180018330 f   tryblks.obj
 0001:0001733d       __catch$_wrap_tryblk_t_empty$2 000000018001833d f   tryblks.obj
 0001:00017363       _wrap_tryblk_t_empty$catch$4 0000000180018363 f   tryblks.obj
 0001:00017370       __catch$_wrap_tryblk_t_empty$4 0000000180018370 f   tryblks.obj
 0001:0001739c       _wrap_tryblk_t_empty$catch$3 000000018001839c f   tryblks.obj
 0001:000173a9       __catch$_wrap_tryblk_t_empty$6 00000001800183a9 f   tryblks.obj
 0001:000173c1       _wrap_tryblk_t_empty$catch$2 00000001800183c1 f   tryblks.obj
 0001:000173ce       __catch$_wrap_tryblk_t_empty$8 00000001800183ce f   tryblks.obj
 0001:000173e6       _wrap_tryblk_t_empty$catch$1 00000001800183e6 f   tryblks.obj
 0001:000173f3       __catch$_wrap_tryblk_t_empty$10 00000001800183f3 f   tryblks.obj
 0001:0001741f       _wrap_tryblk_t_empty$catch$0 000000018001841f f   tryblks.obj
 0001:0001742c       __catch$_wrap_tryblk_t_empty$12 000000018001842c f   tryblks.obj
 0001:00017460       _wrap_tryblk_t_get_kind$catch$5 0000000180018460 f   tryblks.obj
 0001:0001746d       __catch$_wrap_tryblk_t_get_kind$2 000000018001846d f   tryblks.obj
 0001:00017493       _wrap_tryblk_t_get_kind$catch$4 0000000180018493 f   tryblks.obj
 0001:000174a0       __catch$_wrap_tryblk_t_get_kind$4 00000001800184a0 f   tryblks.obj
 0001:000174cc       _wrap_tryblk_t_get_kind$catch$3 00000001800184cc f   tryblks.obj
 0001:000174d9       __catch$_wrap_tryblk_t_get_kind$6 00000001800184d9 f   tryblks.obj
 0001:000174f1       _wrap_tryblk_t_get_kind$catch$2 00000001800184f1 f   tryblks.obj
 0001:000174fe       __catch$_wrap_tryblk_t_get_kind$8 00000001800184fe f   tryblks.obj
 0001:00017516       _wrap_tryblk_t_get_kind$catch$1 0000000180018516 f   tryblks.obj
 0001:00017523       __catch$_wrap_tryblk_t_get_kind$10 0000000180018523 f   tryblks.obj
 0001:0001754f       _wrap_tryblk_t_get_kind$catch$0 000000018001854f f   tryblks.obj
 0001:0001755c       __catch$_wrap_tryblk_t_get_kind$12 000000018001855c f   tryblks.obj
 0001:00017590       _wrap_tryblk_t_is_cpp$catch$5 0000000180018590 f   tryblks.obj
 0001:0001759d       __catch$_wrap_tryblk_t_is_cpp$2 000000018001859d f   tryblks.obj
 0001:000175c3       _wrap_tryblk_t_is_cpp$catch$4 00000001800185c3 f   tryblks.obj
 0001:000175d0       __catch$_wrap_tryblk_t_is_cpp$4 00000001800185d0 f   tryblks.obj
 0001:000175fc       _wrap_tryblk_t_is_cpp$catch$3 00000001800185fc f   tryblks.obj
 0001:00017609       __catch$_wrap_tryblk_t_is_cpp$6 0000000180018609 f   tryblks.obj
 0001:00017621       _wrap_tryblk_t_is_cpp$catch$2 0000000180018621 f   tryblks.obj
 0001:0001762e       __catch$_wrap_tryblk_t_is_cpp$8 000000018001862e f   tryblks.obj
 0001:00017646       _wrap_tryblk_t_is_cpp$catch$1 0000000180018646 f   tryblks.obj
 0001:00017653       __catch$_wrap_tryblk_t_is_cpp$10 0000000180018653 f   tryblks.obj
 0001:0001767f       _wrap_tryblk_t_is_cpp$catch$0 000000018001867f f   tryblks.obj
 0001:0001768c       __catch$_wrap_tryblk_t_is_cpp$12 000000018001868c f   tryblks.obj
 0001:000176c0       _wrap_tryblk_t_is_seh$catch$5 00000001800186c0 f   tryblks.obj
 0001:000176cd       __catch$_wrap_tryblk_t_is_seh$2 00000001800186cd f   tryblks.obj
 0001:000176f3       _wrap_tryblk_t_is_seh$catch$4 00000001800186f3 f   tryblks.obj
 0001:00017700       __catch$_wrap_tryblk_t_is_seh$4 0000000180018700 f   tryblks.obj
 0001:0001772c       _wrap_tryblk_t_is_seh$catch$3 000000018001872c f   tryblks.obj
 0001:00017739       __catch$_wrap_tryblk_t_is_seh$6 0000000180018739 f   tryblks.obj
 0001:00017751       _wrap_tryblk_t_is_seh$catch$2 0000000180018751 f   tryblks.obj
 0001:0001775e       __catch$_wrap_tryblk_t_is_seh$8 000000018001875e f   tryblks.obj
 0001:00017776       _wrap_tryblk_t_is_seh$catch$1 0000000180018776 f   tryblks.obj
 0001:00017783       __catch$_wrap_tryblk_t_is_seh$10 0000000180018783 f   tryblks.obj
 0001:000177af       _wrap_tryblk_t_is_seh$catch$0 00000001800187af f   tryblks.obj
 0001:000177bc       __catch$_wrap_tryblk_t_is_seh$12 00000001800187bc f   tryblks.obj
 0001:000177f0       _wrap_tryblk_t_seh$catch$5 00000001800187f0 f   tryblks.obj
 0001:000177fd       __catch$_wrap_tryblk_t_seh$2 00000001800187fd f   tryblks.obj
 0001:00017823       _wrap_tryblk_t_seh$catch$4 0000000180018823 f   tryblks.obj
 0001:00017830       __catch$_wrap_tryblk_t_seh$4 0000000180018830 f   tryblks.obj
 0001:0001785c       _wrap_tryblk_t_seh$catch$3 000000018001885c f   tryblks.obj
 0001:00017869       __catch$_wrap_tryblk_t_seh$6 0000000180018869 f   tryblks.obj
 0001:00017881       _wrap_tryblk_t_seh$catch$2 0000000180018881 f   tryblks.obj
 0001:0001788e       __catch$_wrap_tryblk_t_seh$8 000000018001888e f   tryblks.obj
 0001:000178a6       _wrap_tryblk_t_seh$catch$1 00000001800188a6 f   tryblks.obj
 0001:000178b3       __catch$_wrap_tryblk_t_seh$10 00000001800188b3 f   tryblks.obj
 0001:000178df       _wrap_tryblk_t_seh$catch$0 00000001800188df f   tryblks.obj
 0001:000178ec       __catch$_wrap_tryblk_t_seh$12 00000001800188ec f   tryblks.obj
 0001:00017920       _wrap_tryblk_t_set_cpp$catch$5 0000000180018920 f   tryblks.obj
 0001:0001792d       __catch$_wrap_tryblk_t_set_cpp$2 000000018001892d f   tryblks.obj
 0001:00017953       _wrap_tryblk_t_set_cpp$catch$4 0000000180018953 f   tryblks.obj
 0001:00017960       __catch$_wrap_tryblk_t_set_cpp$4 0000000180018960 f   tryblks.obj
 0001:0001798c       _wrap_tryblk_t_set_cpp$catch$3 000000018001898c f   tryblks.obj
 0001:00017999       __catch$_wrap_tryblk_t_set_cpp$6 0000000180018999 f   tryblks.obj
 0001:000179b1       _wrap_tryblk_t_set_cpp$catch$2 00000001800189b1 f   tryblks.obj
 0001:000179be       __catch$_wrap_tryblk_t_set_cpp$8 00000001800189be f   tryblks.obj
 0001:000179d6       _wrap_tryblk_t_set_cpp$catch$1 00000001800189d6 f   tryblks.obj
 0001:000179e3       __catch$_wrap_tryblk_t_set_cpp$10 00000001800189e3 f   tryblks.obj
 0001:00017a0f       _wrap_tryblk_t_set_cpp$catch$0 0000000180018a0f f   tryblks.obj
 0001:00017a1c       __catch$_wrap_tryblk_t_set_cpp$12 0000000180018a1c f   tryblks.obj
 0001:00017a50       _wrap_tryblk_t_set_seh$catch$5 0000000180018a50 f   tryblks.obj
 0001:00017a5d       __catch$_wrap_tryblk_t_set_seh$2 0000000180018a5d f   tryblks.obj
 0001:00017a83       _wrap_tryblk_t_set_seh$catch$4 0000000180018a83 f   tryblks.obj
 0001:00017a90       __catch$_wrap_tryblk_t_set_seh$4 0000000180018a90 f   tryblks.obj
 0001:00017abc       _wrap_tryblk_t_set_seh$catch$3 0000000180018abc f   tryblks.obj
 0001:00017ac9       __catch$_wrap_tryblk_t_set_seh$6 0000000180018ac9 f   tryblks.obj
 0001:00017ae1       _wrap_tryblk_t_set_seh$catch$2 0000000180018ae1 f   tryblks.obj
 0001:00017aee       __catch$_wrap_tryblk_t_set_seh$8 0000000180018aee f   tryblks.obj
 0001:00017b06       _wrap_tryblk_t_set_seh$catch$1 0000000180018b06 f   tryblks.obj
 0001:00017b13       __catch$_wrap_tryblk_t_set_seh$10 0000000180018b13 f   tryblks.obj
 0001:00017b3f       _wrap_tryblk_t_set_seh$catch$0 0000000180018b3f f   tryblks.obj
 0001:00017b4c       __catch$_wrap_tryblk_t_set_seh$12 0000000180018b4c f   tryblks.obj
 0001:00017b80       _wrap_tryblks_t___eq__$catch$5 0000000180018b80 f   tryblks.obj
 0001:00017b8d       __catch$_wrap_tryblks_t___eq__$4 0000000180018b8d f   tryblks.obj
 0001:00017bb3       _wrap_tryblks_t___eq__$catch$4 0000000180018bb3 f   tryblks.obj
 0001:00017bc0       __catch$_wrap_tryblks_t___eq__$6 0000000180018bc0 f   tryblks.obj
 0001:00017bec       _wrap_tryblks_t___eq__$catch$3 0000000180018bec f   tryblks.obj
 0001:00017bf9       __catch$_wrap_tryblks_t___eq__$8 0000000180018bf9 f   tryblks.obj
 0001:00017c11       _wrap_tryblks_t___eq__$catch$2 0000000180018c11 f   tryblks.obj
 0001:00017c1e       __catch$_wrap_tryblks_t___eq__$10 0000000180018c1e f   tryblks.obj
 0001:00017c36       _wrap_tryblks_t___eq__$catch$1 0000000180018c36 f   tryblks.obj
 0001:00017c43       __catch$_wrap_tryblks_t___eq__$12 0000000180018c43 f   tryblks.obj
 0001:00017c6f       _wrap_tryblks_t___eq__$catch$0 0000000180018c6f f   tryblks.obj
 0001:00017c7c       __catch$_wrap_tryblks_t___eq__$14 0000000180018c7c f   tryblks.obj
 0001:00017cb0       _wrap_tryblks_t___getitem__$catch$0 0000000180018cb0 f   tryblks.obj
 0001:00017cbd       __catch$_wrap_tryblks_t___getitem__$3 0000000180018cbd f   tryblks.obj
 0001:00017ce3       _wrap_tryblks_t___getitem__$catch$1 0000000180018ce3 f   tryblks.obj
 0001:00017cf0       __catch$_wrap_tryblks_t___getitem__$5 0000000180018cf0 f   tryblks.obj
 0001:00017d1c       _wrap_tryblks_t___getitem__$catch$2 0000000180018d1c f   tryblks.obj
 0001:00017d29       __catch$_wrap_tryblks_t___getitem__$7 0000000180018d29 f   tryblks.obj
 0001:00017d41       _wrap_tryblks_t___getitem__$catch$3 0000000180018d41 f   tryblks.obj
 0001:00017d4e       __catch$_wrap_tryblks_t___getitem__$9 0000000180018d4e f   tryblks.obj
 0001:00017d66       _wrap_tryblks_t___getitem__$catch$4 0000000180018d66 f   tryblks.obj
 0001:00017d73       __catch$_wrap_tryblks_t___getitem__$11 0000000180018d73 f   tryblks.obj
 0001:00017d9f       _wrap_tryblks_t___getitem__$catch$5 0000000180018d9f f   tryblks.obj
 0001:00017dac       __catch$_wrap_tryblks_t___getitem__$13 0000000180018dac f   tryblks.obj
 0001:00017de0       _wrap_tryblks_t___len__$catch$5 0000000180018de0 f   tryblks.obj
 0001:00017ded       __catch$_wrap_tryblks_t___len__$2 0000000180018ded f   tryblks.obj
 0001:00017e13       _wrap_tryblks_t___len__$catch$4 0000000180018e13 f   tryblks.obj
 0001:00017e20       __catch$_wrap_tryblks_t___len__$4 0000000180018e20 f   tryblks.obj
 0001:00017e4c       _wrap_tryblks_t___len__$catch$3 0000000180018e4c f   tryblks.obj
 0001:00017e59       __catch$_wrap_tryblks_t___len__$6 0000000180018e59 f   tryblks.obj
 0001:00017e71       _wrap_tryblks_t___len__$catch$2 0000000180018e71 f   tryblks.obj
 0001:00017e7e       __catch$_wrap_tryblks_t___len__$8 0000000180018e7e f   tryblks.obj
 0001:00017e96       _wrap_tryblks_t___len__$catch$1 0000000180018e96 f   tryblks.obj
 0001:00017ea3       __catch$_wrap_tryblks_t___len__$10 0000000180018ea3 f   tryblks.obj
 0001:00017ecf       _wrap_tryblks_t___len__$catch$0 0000000180018ecf f   tryblks.obj
 0001:00017edc       __catch$_wrap_tryblks_t___len__$12 0000000180018edc f   tryblks.obj
 0001:00017f10       _wrap_tryblks_t___ne__$catch$5 0000000180018f10 f   tryblks.obj
 0001:00017f1d       __catch$_wrap_tryblks_t___ne__$4 0000000180018f1d f   tryblks.obj
 0001:00017f43       _wrap_tryblks_t___ne__$catch$4 0000000180018f43 f   tryblks.obj
 0001:00017f50       __catch$_wrap_tryblks_t___ne__$6 0000000180018f50 f   tryblks.obj
 0001:00017f7c       _wrap_tryblks_t___ne__$catch$3 0000000180018f7c f   tryblks.obj
 0001:00017f89       __catch$_wrap_tryblks_t___ne__$8 0000000180018f89 f   tryblks.obj
 0001:00017fa1       _wrap_tryblks_t___ne__$catch$2 0000000180018fa1 f   tryblks.obj
 0001:00017fae       __catch$_wrap_tryblks_t___ne__$10 0000000180018fae f   tryblks.obj
 0001:00017fc6       _wrap_tryblks_t___ne__$catch$1 0000000180018fc6 f   tryblks.obj
 0001:00017fd3       __catch$_wrap_tryblks_t___ne__$12 0000000180018fd3 f   tryblks.obj
 0001:00017fff       _wrap_tryblks_t___ne__$catch$0 0000000180018fff f   tryblks.obj
 0001:0001800c       __catch$_wrap_tryblks_t___ne__$14 000000018001900c f   tryblks.obj
 0001:00018040       _wrap_tryblks_t___setitem__$catch$0 0000000180019040 f   tryblks.obj
 0001:0001804d       __catch$_wrap_tryblks_t___setitem__$5 000000018001904d f   tryblks.obj
 0001:00018073       _wrap_tryblks_t___setitem__$catch$1 0000000180019073 f   tryblks.obj
 0001:00018080       __catch$_wrap_tryblks_t___setitem__$7 0000000180019080 f   tryblks.obj
 0001:000180ac       _wrap_tryblks_t___setitem__$catch$2 00000001800190ac f   tryblks.obj
 0001:000180b9       __catch$_wrap_tryblks_t___setitem__$9 00000001800190b9 f   tryblks.obj
 0001:000180d1       _wrap_tryblks_t___setitem__$catch$3 00000001800190d1 f   tryblks.obj
 0001:000180de       __catch$_wrap_tryblks_t___setitem__$11 00000001800190de f   tryblks.obj
 0001:000180f6       _wrap_tryblks_t___setitem__$catch$4 00000001800190f6 f   tryblks.obj
 0001:00018103       __catch$_wrap_tryblks_t___setitem__$13 0000000180019103 f   tryblks.obj
 0001:0001812f       _wrap_tryblks_t___setitem__$catch$5 000000018001912f f   tryblks.obj
 0001:0001813c       __catch$_wrap_tryblks_t___setitem__$15 000000018001913c f   tryblks.obj
 0001:00018170       _wrap_tryblks_t__del$catch$5 0000000180019170 f   tryblks.obj
 0001:0001817d       __catch$_wrap_tryblks_t__del$4 000000018001917d f   tryblks.obj
 0001:000181a3       _wrap_tryblks_t__del$catch$4 00000001800191a3 f   tryblks.obj
 0001:000181b0       __catch$_wrap_tryblks_t__del$6 00000001800191b0 f   tryblks.obj
 0001:000181dc       _wrap_tryblks_t__del$catch$3 00000001800191dc f   tryblks.obj
 0001:000181e9       __catch$_wrap_tryblks_t__del$8 00000001800191e9 f   tryblks.obj
 0001:00018201       _wrap_tryblks_t__del$catch$2 0000000180019201 f   tryblks.obj
 0001:0001820e       __catch$_wrap_tryblks_t__del$10 000000018001920e f   tryblks.obj
 0001:00018226       _wrap_tryblks_t__del$catch$1 0000000180019226 f   tryblks.obj
 0001:00018233       __catch$_wrap_tryblks_t__del$12 0000000180019233 f   tryblks.obj
 0001:0001825f       _wrap_tryblks_t__del$catch$0 000000018001925f f   tryblks.obj
 0001:0001826c       __catch$_wrap_tryblks_t__del$14 000000018001926c f   tryblks.obj
 0001:000182a0       _wrap_tryblks_t_add_unique$catch$5 00000001800192a0 f   tryblks.obj
 0001:000182ad       __catch$_wrap_tryblks_t_add_unique$4 00000001800192ad f   tryblks.obj
 0001:000182d3       _wrap_tryblks_t_add_unique$catch$4 00000001800192d3 f   tryblks.obj
 0001:000182e0       __catch$_wrap_tryblks_t_add_unique$6 00000001800192e0 f   tryblks.obj
 0001:0001830c       _wrap_tryblks_t_add_unique$catch$3 000000018001930c f   tryblks.obj
 0001:00018319       __catch$_wrap_tryblks_t_add_unique$8 0000000180019319 f   tryblks.obj
 0001:00018331       _wrap_tryblks_t_add_unique$catch$2 0000000180019331 f   tryblks.obj
 0001:0001833e       __catch$_wrap_tryblks_t_add_unique$10 000000018001933e f   tryblks.obj
 0001:00018356       _wrap_tryblks_t_add_unique$catch$1 0000000180019356 f   tryblks.obj
 0001:00018363       __catch$_wrap_tryblks_t_add_unique$12 0000000180019363 f   tryblks.obj
 0001:0001838f       _wrap_tryblks_t_add_unique$catch$0 000000018001938f f   tryblks.obj
 0001:0001839c       __catch$_wrap_tryblks_t_add_unique$14 000000018001939c f   tryblks.obj
 0001:000183d0       _wrap_tryblks_t_at$catch$5 00000001800193d0 f   tryblks.obj
 0001:000183dd       __catch$_wrap_tryblks_t_at$3 00000001800193dd f   tryblks.obj
 0001:00018403       _wrap_tryblks_t_at$catch$4 0000000180019403 f   tryblks.obj
 0001:00018410       __catch$_wrap_tryblks_t_at$5 0000000180019410 f   tryblks.obj
 0001:0001843c       _wrap_tryblks_t_at$catch$3 000000018001943c f   tryblks.obj
 0001:00018449       __catch$_wrap_tryblks_t_at$7 0000000180019449 f   tryblks.obj
 0001:00018461       _wrap_tryblks_t_at$catch$2 0000000180019461 f   tryblks.obj
 0001:0001846e       __catch$_wrap_tryblks_t_at$9 000000018001946e f   tryblks.obj
 0001:00018486       _wrap_tryblks_t_at$catch$1 0000000180019486 f   tryblks.obj
 0001:00018493       __catch$_wrap_tryblks_t_at$11 0000000180019493 f   tryblks.obj
 0001:000184bf       _wrap_tryblks_t_at$catch$0 00000001800194bf f   tryblks.obj
 0001:000184cc       __catch$_wrap_tryblks_t_at$13 00000001800194cc f   tryblks.obj
 0001:00018500       _wrap_tryblks_t_begin__SWIG_0$catch$5 0000000180019500 f   tryblks.obj
 0001:0001850d       __catch$_wrap_tryblks_t_begin__SWIG_0$2 000000018001950d f   tryblks.obj
 0001:00018533       _wrap_tryblks_t_begin__SWIG_0$catch$4 0000000180019533 f   tryblks.obj
 0001:00018540       __catch$_wrap_tryblks_t_begin__SWIG_0$4 0000000180019540 f   tryblks.obj
 0001:0001856c       _wrap_tryblks_t_begin__SWIG_0$catch$3 000000018001956c f   tryblks.obj
 0001:00018579       __catch$_wrap_tryblks_t_begin__SWIG_0$6 0000000180019579 f   tryblks.obj
 0001:00018591       _wrap_tryblks_t_begin__SWIG_0$catch$2 0000000180019591 f   tryblks.obj
 0001:0001859e       __catch$_wrap_tryblks_t_begin__SWIG_0$8 000000018001959e f   tryblks.obj
 0001:000185b6       _wrap_tryblks_t_begin__SWIG_0$catch$1 00000001800195b6 f   tryblks.obj
 0001:000185c3       __catch$_wrap_tryblks_t_begin__SWIG_0$10 00000001800195c3 f   tryblks.obj
 0001:000185ef       _wrap_tryblks_t_begin__SWIG_0$catch$0 00000001800195ef f   tryblks.obj
 0001:000185fc       __catch$_wrap_tryblks_t_begin__SWIG_0$12 00000001800195fc f   tryblks.obj
 0001:00018630       _wrap_tryblks_t_begin__SWIG_1$catch$5 0000000180019630 f   tryblks.obj
 0001:0001863d       __catch$_wrap_tryblks_t_begin__SWIG_1$2 000000018001963d f   tryblks.obj
 0001:00018663       _wrap_tryblks_t_begin__SWIG_1$catch$4 0000000180019663 f   tryblks.obj
 0001:00018670       __catch$_wrap_tryblks_t_begin__SWIG_1$4 0000000180019670 f   tryblks.obj
 0001:0001869c       _wrap_tryblks_t_begin__SWIG_1$catch$3 000000018001969c f   tryblks.obj
 0001:000186a9       __catch$_wrap_tryblks_t_begin__SWIG_1$6 00000001800196a9 f   tryblks.obj
 0001:000186c1       _wrap_tryblks_t_begin__SWIG_1$catch$2 00000001800196c1 f   tryblks.obj
 0001:000186ce       __catch$_wrap_tryblks_t_begin__SWIG_1$8 00000001800196ce f   tryblks.obj
 0001:000186e6       _wrap_tryblks_t_begin__SWIG_1$catch$1 00000001800196e6 f   tryblks.obj
 0001:000186f3       __catch$_wrap_tryblks_t_begin__SWIG_1$10 00000001800196f3 f   tryblks.obj
 0001:0001871f       _wrap_tryblks_t_begin__SWIG_1$catch$0 000000018001971f f   tryblks.obj
 0001:0001872c       __catch$_wrap_tryblks_t_begin__SWIG_1$12 000000018001972c f   tryblks.obj
 0001:00018760       _wrap_tryblks_t_capacity$catch$5 0000000180019760 f   tryblks.obj
 0001:0001876d       __catch$_wrap_tryblks_t_capacity$2 000000018001976d f   tryblks.obj
 0001:00018793       _wrap_tryblks_t_capacity$catch$4 0000000180019793 f   tryblks.obj
 0001:000187a0       __catch$_wrap_tryblks_t_capacity$4 00000001800197a0 f   tryblks.obj
 0001:000187cc       _wrap_tryblks_t_capacity$catch$3 00000001800197cc f   tryblks.obj
 0001:000187d9       __catch$_wrap_tryblks_t_capacity$6 00000001800197d9 f   tryblks.obj
 0001:000187f1       _wrap_tryblks_t_capacity$catch$2 00000001800197f1 f   tryblks.obj
 0001:000187fe       __catch$_wrap_tryblks_t_capacity$8 00000001800197fe f   tryblks.obj
 0001:00018816       _wrap_tryblks_t_capacity$catch$1 0000000180019816 f   tryblks.obj
 0001:00018823       __catch$_wrap_tryblks_t_capacity$10 0000000180019823 f   tryblks.obj
 0001:0001884f       _wrap_tryblks_t_capacity$catch$0 000000018001984f f   tryblks.obj
 0001:0001885c       __catch$_wrap_tryblks_t_capacity$12 000000018001985c f   tryblks.obj
 0001:00018890       _wrap_tryblks_t_clear$catch$5 0000000180019890 f   tryblks.obj
 0001:0001889d       __catch$_wrap_tryblks_t_clear$2 000000018001989d f   tryblks.obj
 0001:000188c3       _wrap_tryblks_t_clear$catch$4 00000001800198c3 f   tryblks.obj
 0001:000188d0       __catch$_wrap_tryblks_t_clear$4 00000001800198d0 f   tryblks.obj
 0001:000188fc       _wrap_tryblks_t_clear$catch$3 00000001800198fc f   tryblks.obj
 0001:00018909       __catch$_wrap_tryblks_t_clear$6 0000000180019909 f   tryblks.obj
 0001:00018921       _wrap_tryblks_t_clear$catch$2 0000000180019921 f   tryblks.obj
 0001:0001892e       __catch$_wrap_tryblks_t_clear$8 000000018001992e f   tryblks.obj
 0001:00018946       _wrap_tryblks_t_clear$catch$1 0000000180019946 f   tryblks.obj
 0001:00018953       __catch$_wrap_tryblks_t_clear$10 0000000180019953 f   tryblks.obj
 0001:0001897f       _wrap_tryblks_t_clear$catch$0 000000018001997f f   tryblks.obj
 0001:0001898c       __catch$_wrap_tryblks_t_clear$12 000000018001998c f   tryblks.obj
 0001:000189c0       _wrap_tryblks_t_empty$catch$5 00000001800199c0 f   tryblks.obj
 0001:000189cd       __catch$_wrap_tryblks_t_empty$2 00000001800199cd f   tryblks.obj
 0001:000189f3       _wrap_tryblks_t_empty$catch$4 00000001800199f3 f   tryblks.obj
 0001:00018a00       __catch$_wrap_tryblks_t_empty$4 0000000180019a00 f   tryblks.obj
 0001:00018a2c       _wrap_tryblks_t_empty$catch$3 0000000180019a2c f   tryblks.obj
 0001:00018a39       __catch$_wrap_tryblks_t_empty$6 0000000180019a39 f   tryblks.obj
 0001:00018a51       _wrap_tryblks_t_empty$catch$2 0000000180019a51 f   tryblks.obj
 0001:00018a5e       __catch$_wrap_tryblks_t_empty$8 0000000180019a5e f   tryblks.obj
 0001:00018a76       _wrap_tryblks_t_empty$catch$1 0000000180019a76 f   tryblks.obj
 0001:00018a83       __catch$_wrap_tryblks_t_empty$10 0000000180019a83 f   tryblks.obj
 0001:00018aaf       _wrap_tryblks_t_empty$catch$0 0000000180019aaf f   tryblks.obj
 0001:00018abc       __catch$_wrap_tryblks_t_empty$12 0000000180019abc f   tryblks.obj
 0001:00018af0       _wrap_tryblks_t_end__SWIG_0$catch$5 0000000180019af0 f   tryblks.obj
 0001:00018afd       __catch$_wrap_tryblks_t_end__SWIG_0$2 0000000180019afd f   tryblks.obj
 0001:00018b23       _wrap_tryblks_t_end__SWIG_0$catch$4 0000000180019b23 f   tryblks.obj
 0001:00018b30       __catch$_wrap_tryblks_t_end__SWIG_0$4 0000000180019b30 f   tryblks.obj
 0001:00018b5c       _wrap_tryblks_t_end__SWIG_0$catch$3 0000000180019b5c f   tryblks.obj
 0001:00018b69       __catch$_wrap_tryblks_t_end__SWIG_0$6 0000000180019b69 f   tryblks.obj
 0001:00018b81       _wrap_tryblks_t_end__SWIG_0$catch$2 0000000180019b81 f   tryblks.obj
 0001:00018b8e       __catch$_wrap_tryblks_t_end__SWIG_0$8 0000000180019b8e f   tryblks.obj
 0001:00018ba6       _wrap_tryblks_t_end__SWIG_0$catch$1 0000000180019ba6 f   tryblks.obj
 0001:00018bb3       __catch$_wrap_tryblks_t_end__SWIG_0$10 0000000180019bb3 f   tryblks.obj
 0001:00018bdf       _wrap_tryblks_t_end__SWIG_0$catch$0 0000000180019bdf f   tryblks.obj
 0001:00018bec       __catch$_wrap_tryblks_t_end__SWIG_0$12 0000000180019bec f   tryblks.obj
 0001:00018c20       _wrap_tryblks_t_end__SWIG_1$catch$5 0000000180019c20 f   tryblks.obj
 0001:00018c2d       __catch$_wrap_tryblks_t_end__SWIG_1$2 0000000180019c2d f   tryblks.obj
 0001:00018c53       _wrap_tryblks_t_end__SWIG_1$catch$4 0000000180019c53 f   tryblks.obj
 0001:00018c60       __catch$_wrap_tryblks_t_end__SWIG_1$4 0000000180019c60 f   tryblks.obj
 0001:00018c8c       _wrap_tryblks_t_end__SWIG_1$catch$3 0000000180019c8c f   tryblks.obj
 0001:00018c99       __catch$_wrap_tryblks_t_end__SWIG_1$6 0000000180019c99 f   tryblks.obj
 0001:00018cb1       _wrap_tryblks_t_end__SWIG_1$catch$2 0000000180019cb1 f   tryblks.obj
 0001:00018cbe       __catch$_wrap_tryblks_t_end__SWIG_1$8 0000000180019cbe f   tryblks.obj
 0001:00018cd6       _wrap_tryblks_t_end__SWIG_1$catch$1 0000000180019cd6 f   tryblks.obj
 0001:00018ce3       __catch$_wrap_tryblks_t_end__SWIG_1$10 0000000180019ce3 f   tryblks.obj
 0001:00018d0f       _wrap_tryblks_t_end__SWIG_1$catch$0 0000000180019d0f f   tryblks.obj
 0001:00018d1c       __catch$_wrap_tryblks_t_end__SWIG_1$12 0000000180019d1c f   tryblks.obj
 0001:00018d50       _wrap_tryblks_t_erase__SWIG_0$catch$5 0000000180019d50 f   tryblks.obj
 0001:00018d5d       __catch$_wrap_tryblks_t_erase__SWIG_0$3 0000000180019d5d f   tryblks.obj
 0001:00018d83       _wrap_tryblks_t_erase__SWIG_0$catch$4 0000000180019d83 f   tryblks.obj
 0001:00018d90       __catch$_wrap_tryblks_t_erase__SWIG_0$5 0000000180019d90 f   tryblks.obj
 0001:00018dbc       _wrap_tryblks_t_erase__SWIG_0$catch$3 0000000180019dbc f   tryblks.obj
 0001:00018dc9       __catch$_wrap_tryblks_t_erase__SWIG_0$7 0000000180019dc9 f   tryblks.obj
 0001:00018de1       _wrap_tryblks_t_erase__SWIG_0$catch$2 0000000180019de1 f   tryblks.obj
 0001:00018dee       __catch$_wrap_tryblks_t_erase__SWIG_0$9 0000000180019dee f   tryblks.obj
 0001:00018e06       _wrap_tryblks_t_erase__SWIG_0$catch$1 0000000180019e06 f   tryblks.obj
 0001:00018e13       __catch$_wrap_tryblks_t_erase__SWIG_0$11 0000000180019e13 f   tryblks.obj
 0001:00018e3f       _wrap_tryblks_t_erase__SWIG_0$catch$0 0000000180019e3f f   tryblks.obj
 0001:00018e4c       __catch$_wrap_tryblks_t_erase__SWIG_0$13 0000000180019e4c f   tryblks.obj
 0001:00018e80       _wrap_tryblks_t_erase__SWIG_1$catch$9 0000000180019e80 f   tryblks.obj
 0001:00018e8d       __catch$_wrap_tryblks_t_erase__SWIG_1$4 0000000180019e8d f   tryblks.obj
 0001:00018eb3       _wrap_tryblks_t_erase__SWIG_1$catch$8 0000000180019eb3 f   tryblks.obj
 0001:00018ec0       __catch$_wrap_tryblks_t_erase__SWIG_1$6 0000000180019ec0 f   tryblks.obj
 0001:00018eec       _wrap_tryblks_t_erase__SWIG_1$catch$7 0000000180019eec f   tryblks.obj
 0001:00018ef9       __catch$_wrap_tryblks_t_erase__SWIG_1$8 0000000180019ef9 f   tryblks.obj
 0001:00018f11       _wrap_tryblks_t_erase__SWIG_1$catch$6 0000000180019f11 f   tryblks.obj
 0001:00018f1e       __catch$_wrap_tryblks_t_erase__SWIG_1$10 0000000180019f1e f   tryblks.obj
 0001:00018f36       _wrap_tryblks_t_erase__SWIG_1$catch$5 0000000180019f36 f   tryblks.obj
 0001:00018f43       __catch$_wrap_tryblks_t_erase__SWIG_1$12 0000000180019f43 f   tryblks.obj
 0001:00018f6f       _wrap_tryblks_t_erase__SWIG_1$catch$4 0000000180019f6f f   tryblks.obj
 0001:00018f7c       __catch$_wrap_tryblks_t_erase__SWIG_1$14 0000000180019f7c f   tryblks.obj
 0001:00018fb0       _wrap_tryblks_t_extract$catch$5 0000000180019fb0 f   tryblks.obj
 0001:00018fbd       __catch$_wrap_tryblks_t_extract$2 0000000180019fbd f   tryblks.obj
 0001:00018fe3       _wrap_tryblks_t_extract$catch$4 0000000180019fe3 f   tryblks.obj
 0001:00018ff0       __catch$_wrap_tryblks_t_extract$4 0000000180019ff0 f   tryblks.obj
 0001:0001901c       _wrap_tryblks_t_extract$catch$3 000000018001a01c f   tryblks.obj
 0001:00019029       __catch$_wrap_tryblks_t_extract$6 000000018001a029 f   tryblks.obj
 0001:00019041       _wrap_tryblks_t_extract$catch$2 000000018001a041 f   tryblks.obj
 0001:0001904e       __catch$_wrap_tryblks_t_extract$8 000000018001a04e f   tryblks.obj
 0001:00019066       _wrap_tryblks_t_extract$catch$1 000000018001a066 f   tryblks.obj
 0001:00019073       __catch$_wrap_tryblks_t_extract$10 000000018001a073 f   tryblks.obj
 0001:0001909f       _wrap_tryblks_t_extract$catch$0 000000018001a09f f   tryblks.obj
 0001:000190ac       __catch$_wrap_tryblks_t_extract$12 000000018001a0ac f   tryblks.obj
 0001:000190e0       _wrap_tryblks_t_find__SWIG_0$catch$5 000000018001a0e0 f   tryblks.obj
 0001:000190ed       __catch$_wrap_tryblks_t_find__SWIG_0$4 000000018001a0ed f   tryblks.obj
 0001:00019113       _wrap_tryblks_t_find__SWIG_0$catch$4 000000018001a113 f   tryblks.obj
 0001:00019120       __catch$_wrap_tryblks_t_find__SWIG_0$6 000000018001a120 f   tryblks.obj
 0001:0001914c       _wrap_tryblks_t_find__SWIG_0$catch$3 000000018001a14c f   tryblks.obj
 0001:00019159       __catch$_wrap_tryblks_t_find__SWIG_0$8 000000018001a159 f   tryblks.obj
 0001:00019171       _wrap_tryblks_t_find__SWIG_0$catch$2 000000018001a171 f   tryblks.obj
 0001:0001917e       __catch$_wrap_tryblks_t_find__SWIG_0$10 000000018001a17e f   tryblks.obj
 0001:00019196       _wrap_tryblks_t_find__SWIG_0$catch$1 000000018001a196 f   tryblks.obj
 0001:000191a3       __catch$_wrap_tryblks_t_find__SWIG_0$12 000000018001a1a3 f   tryblks.obj
 0001:000191cf       _wrap_tryblks_t_find__SWIG_0$catch$0 000000018001a1cf f   tryblks.obj
 0001:000191dc       __catch$_wrap_tryblks_t_find__SWIG_0$14 000000018001a1dc f   tryblks.obj
 0001:00019210       _wrap_tryblks_t_find__SWIG_1$catch$5 000000018001a210 f   tryblks.obj
 0001:0001921d       __catch$_wrap_tryblks_t_find__SWIG_1$4 000000018001a21d f   tryblks.obj
 0001:00019243       _wrap_tryblks_t_find__SWIG_1$catch$4 000000018001a243 f   tryblks.obj
 0001:00019250       __catch$_wrap_tryblks_t_find__SWIG_1$6 000000018001a250 f   tryblks.obj
 0001:0001927c       _wrap_tryblks_t_find__SWIG_1$catch$3 000000018001a27c f   tryblks.obj
 0001:00019289       __catch$_wrap_tryblks_t_find__SWIG_1$8 000000018001a289 f   tryblks.obj
 0001:000192a1       _wrap_tryblks_t_find__SWIG_1$catch$2 000000018001a2a1 f   tryblks.obj
 0001:000192ae       __catch$_wrap_tryblks_t_find__SWIG_1$10 000000018001a2ae f   tryblks.obj
 0001:000192c6       _wrap_tryblks_t_find__SWIG_1$catch$1 000000018001a2c6 f   tryblks.obj
 0001:000192d3       __catch$_wrap_tryblks_t_find__SWIG_1$12 000000018001a2d3 f   tryblks.obj
 0001:000192ff       _wrap_tryblks_t_find__SWIG_1$catch$0 000000018001a2ff f   tryblks.obj
 0001:0001930c       __catch$_wrap_tryblks_t_find__SWIG_1$14 000000018001a30c f   tryblks.obj
 0001:00019340       _wrap_tryblks_t_grow$catch$12 000000018001a340 f   tryblks.obj
 0001:0001934d       __catch$_wrap_tryblks_t_grow$4 000000018001a34d f   tryblks.obj
 0001:00019373       _wrap_tryblks_t_grow$catch$11 000000018001a373 f   tryblks.obj
 0001:00019380       __catch$_wrap_tryblks_t_grow$6 000000018001a380 f   tryblks.obj
 0001:000193ac       _wrap_tryblks_t_grow$catch$10 000000018001a3ac f   tryblks.obj
 0001:000193b9       __catch$_wrap_tryblks_t_grow$8 000000018001a3b9 f   tryblks.obj
 0001:000193d1       _wrap_tryblks_t_grow$catch$9 000000018001a3d1 f   tryblks.obj
 0001:000193de       __catch$_wrap_tryblks_t_grow$10 000000018001a3de f   tryblks.obj
 0001:000193f6       _wrap_tryblks_t_grow$catch$8 000000018001a3f6 f   tryblks.obj
 0001:00019403       __catch$_wrap_tryblks_t_grow$12 000000018001a403 f   tryblks.obj
 0001:0001942f       _wrap_tryblks_t_grow$catch$7 000000018001a42f f   tryblks.obj
 0001:0001943c       __catch$_wrap_tryblks_t_grow$14 000000018001a43c f   tryblks.obj
 0001:00019470       _wrap_tryblks_t_grow$dtor$0 000000018001a470 f   tryblks.obj
 0001:00019480       _wrap_tryblks_t_has$catch$5 000000018001a480 f   tryblks.obj
 0001:0001948d       __catch$_wrap_tryblks_t_has$4 000000018001a48d f   tryblks.obj
 0001:000194b3       _wrap_tryblks_t_has$catch$4 000000018001a4b3 f   tryblks.obj
 0001:000194c0       __catch$_wrap_tryblks_t_has$6 000000018001a4c0 f   tryblks.obj
 0001:000194ec       _wrap_tryblks_t_has$catch$3 000000018001a4ec f   tryblks.obj
 0001:000194f9       __catch$_wrap_tryblks_t_has$8 000000018001a4f9 f   tryblks.obj
 0001:00019511       _wrap_tryblks_t_has$catch$2 000000018001a511 f   tryblks.obj
 0001:0001951e       __catch$_wrap_tryblks_t_has$10 000000018001a51e f   tryblks.obj
 0001:00019536       _wrap_tryblks_t_has$catch$1 000000018001a536 f   tryblks.obj
 0001:00019543       __catch$_wrap_tryblks_t_has$12 000000018001a543 f   tryblks.obj
 0001:0001956f       _wrap_tryblks_t_has$catch$0 000000018001a56f f   tryblks.obj
 0001:0001957c       __catch$_wrap_tryblks_t_has$14 000000018001a57c f   tryblks.obj
 0001:000195b0       _wrap_tryblks_t_inject$catch$5 000000018001a5b0 f   tryblks.obj
 0001:000195bd       __catch$_wrap_tryblks_t_inject$4 000000018001a5bd f   tryblks.obj
 0001:000195e3       _wrap_tryblks_t_inject$catch$4 000000018001a5e3 f   tryblks.obj
 0001:000195f0       __catch$_wrap_tryblks_t_inject$6 000000018001a5f0 f   tryblks.obj
 0001:0001961c       _wrap_tryblks_t_inject$catch$3 000000018001a61c f   tryblks.obj
 0001:00019629       __catch$_wrap_tryblks_t_inject$8 000000018001a629 f   tryblks.obj
 0001:00019641       _wrap_tryblks_t_inject$catch$2 000000018001a641 f   tryblks.obj
 0001:0001964e       __catch$_wrap_tryblks_t_inject$10 000000018001a64e f   tryblks.obj
 0001:00019666       _wrap_tryblks_t_inject$catch$1 000000018001a666 f   tryblks.obj
 0001:00019673       __catch$_wrap_tryblks_t_inject$12 000000018001a673 f   tryblks.obj
 0001:0001969f       _wrap_tryblks_t_inject$catch$0 000000018001a69f f   tryblks.obj
 0001:000196ac       __catch$_wrap_tryblks_t_inject$14 000000018001a6ac f   tryblks.obj
 0001:000196e0       _wrap_tryblks_t_insert$catch$9 000000018001a6e0 f   tryblks.obj
 0001:000196ed       __catch$_wrap_tryblks_t_insert$5 000000018001a6ed f   tryblks.obj
 0001:00019713       _wrap_tryblks_t_insert$catch$8 000000018001a713 f   tryblks.obj
 0001:00019720       __catch$_wrap_tryblks_t_insert$7 000000018001a720 f   tryblks.obj
 0001:0001974c       _wrap_tryblks_t_insert$catch$7 000000018001a74c f   tryblks.obj
 0001:00019759       __catch$_wrap_tryblks_t_insert$9 000000018001a759 f   tryblks.obj
 0001:00019771       _wrap_tryblks_t_insert$catch$6 000000018001a771 f   tryblks.obj
 0001:0001977e       __catch$_wrap_tryblks_t_insert$11 000000018001a77e f   tryblks.obj
 0001:00019796       _wrap_tryblks_t_insert$catch$5 000000018001a796 f   tryblks.obj
 0001:000197a3       __catch$_wrap_tryblks_t_insert$13 000000018001a7a3 f   tryblks.obj
 0001:000197cf       _wrap_tryblks_t_insert$catch$4 000000018001a7cf f   tryblks.obj
 0001:000197dc       __catch$_wrap_tryblks_t_insert$15 000000018001a7dc f   tryblks.obj
 0001:00019810       _wrap_tryblks_t_pop_back$catch$7 000000018001a810 f   tryblks.obj
 0001:0001981d       __catch$_wrap_tryblks_t_pop_back$2 000000018001a81d f   tryblks.obj
 0001:00019843       _wrap_tryblks_t_pop_back$catch$6 000000018001a843 f   tryblks.obj
 0001:00019850       __catch$_wrap_tryblks_t_pop_back$4 000000018001a850 f   tryblks.obj
 0001:0001987c       _wrap_tryblks_t_pop_back$catch$5 000000018001a87c f   tryblks.obj
 0001:00019889       __catch$_wrap_tryblks_t_pop_back$6 000000018001a889 f   tryblks.obj
 0001:000198a1       _wrap_tryblks_t_pop_back$catch$4 000000018001a8a1 f   tryblks.obj
 0001:000198ae       __catch$_wrap_tryblks_t_pop_back$8 000000018001a8ae f   tryblks.obj
 0001:000198c6       _wrap_tryblks_t_pop_back$catch$3 000000018001a8c6 f   tryblks.obj
 0001:000198d3       __catch$_wrap_tryblks_t_pop_back$10 000000018001a8d3 f   tryblks.obj
 0001:000198ff       _wrap_tryblks_t_pop_back$catch$2 000000018001a8ff f   tryblks.obj
 0001:0001990c       __catch$_wrap_tryblks_t_pop_back$12 000000018001a90c f   tryblks.obj
 0001:00019940       _wrap_tryblks_t_push_back__SWIG_0$catch$5 000000018001a940 f   tryblks.obj
 0001:0001994d       __catch$_wrap_tryblks_t_push_back__SWIG_0$4 000000018001a94d f   tryblks.obj
 0001:00019973       _wrap_tryblks_t_push_back__SWIG_0$catch$4 000000018001a973 f   tryblks.obj
 0001:00019980       __catch$_wrap_tryblks_t_push_back__SWIG_0$6 000000018001a980 f   tryblks.obj
 0001:000199ac       _wrap_tryblks_t_push_back__SWIG_0$catch$3 000000018001a9ac f   tryblks.obj
 0001:000199b9       __catch$_wrap_tryblks_t_push_back__SWIG_0$8 000000018001a9b9 f   tryblks.obj
 0001:000199d1       _wrap_tryblks_t_push_back__SWIG_0$catch$2 000000018001a9d1 f   tryblks.obj
 0001:000199de       __catch$_wrap_tryblks_t_push_back__SWIG_0$10 000000018001a9de f   tryblks.obj
 0001:000199f6       _wrap_tryblks_t_push_back__SWIG_0$catch$1 000000018001a9f6 f   tryblks.obj
 0001:00019a03       __catch$_wrap_tryblks_t_push_back__SWIG_0$12 000000018001aa03 f   tryblks.obj
 0001:00019a2f       _wrap_tryblks_t_push_back__SWIG_0$catch$0 000000018001aa2f f   tryblks.obj
 0001:00019a3c       __catch$_wrap_tryblks_t_push_back__SWIG_0$14 000000018001aa3c f   tryblks.obj
 0001:00019a70       _wrap_tryblks_t_push_back__SWIG_1$catch$7 000000018001aa70 f   tryblks.obj
 0001:00019a7d       __catch$_wrap_tryblks_t_push_back__SWIG_1$2 000000018001aa7d f   tryblks.obj
 0001:00019aa3       _wrap_tryblks_t_push_back__SWIG_1$catch$6 000000018001aaa3 f   tryblks.obj
 0001:00019ab0       __catch$_wrap_tryblks_t_push_back__SWIG_1$4 000000018001aab0 f   tryblks.obj
 0001:00019adc       _wrap_tryblks_t_push_back__SWIG_1$catch$5 000000018001aadc f   tryblks.obj
 0001:00019ae9       __catch$_wrap_tryblks_t_push_back__SWIG_1$6 000000018001aae9 f   tryblks.obj
 0001:00019b01       _wrap_tryblks_t_push_back__SWIG_1$catch$4 000000018001ab01 f   tryblks.obj
 0001:00019b0e       __catch$_wrap_tryblks_t_push_back__SWIG_1$8 000000018001ab0e f   tryblks.obj
 0001:00019b26       _wrap_tryblks_t_push_back__SWIG_1$catch$3 000000018001ab26 f   tryblks.obj
 0001:00019b33       __catch$_wrap_tryblks_t_push_back__SWIG_1$10 000000018001ab33 f   tryblks.obj
 0001:00019b5f       _wrap_tryblks_t_push_back__SWIG_1$catch$2 000000018001ab5f f   tryblks.obj
 0001:00019b6c       __catch$_wrap_tryblks_t_push_back__SWIG_1$12 000000018001ab6c f   tryblks.obj
 0001:00019ba0       _wrap_tryblks_t_qclear$catch$5 000000018001aba0 f   tryblks.obj
 0001:00019bad       __catch$_wrap_tryblks_t_qclear$2 000000018001abad f   tryblks.obj
 0001:00019bd3       _wrap_tryblks_t_qclear$catch$4 000000018001abd3 f   tryblks.obj
 0001:00019be0       __catch$_wrap_tryblks_t_qclear$4 000000018001abe0 f   tryblks.obj
 0001:00019c0c       _wrap_tryblks_t_qclear$catch$3 000000018001ac0c f   tryblks.obj
 0001:00019c19       __catch$_wrap_tryblks_t_qclear$6 000000018001ac19 f   tryblks.obj
 0001:00019c31       _wrap_tryblks_t_qclear$catch$2 000000018001ac31 f   tryblks.obj
 0001:00019c3e       __catch$_wrap_tryblks_t_qclear$8 000000018001ac3e f   tryblks.obj
 0001:00019c56       _wrap_tryblks_t_qclear$catch$1 000000018001ac56 f   tryblks.obj
 0001:00019c63       __catch$_wrap_tryblks_t_qclear$10 000000018001ac63 f   tryblks.obj
 0001:00019c8f       _wrap_tryblks_t_qclear$catch$0 000000018001ac8f f   tryblks.obj
 0001:00019c9c       __catch$_wrap_tryblks_t_qclear$12 000000018001ac9c f   tryblks.obj
 0001:00019cd0       _wrap_tryblks_t_reserve$catch$7 000000018001acd0 f   tryblks.obj
 0001:00019cdd       __catch$_wrap_tryblks_t_reserve$3 000000018001acdd f   tryblks.obj
 0001:00019d03       _wrap_tryblks_t_reserve$catch$6 000000018001ad03 f   tryblks.obj
 0001:00019d10       __catch$_wrap_tryblks_t_reserve$5 000000018001ad10 f   tryblks.obj
 0001:00019d3c       _wrap_tryblks_t_reserve$catch$5 000000018001ad3c f   tryblks.obj
 0001:00019d49       __catch$_wrap_tryblks_t_reserve$7 000000018001ad49 f   tryblks.obj
 0001:00019d61       _wrap_tryblks_t_reserve$catch$4 000000018001ad61 f   tryblks.obj
 0001:00019d6e       __catch$_wrap_tryblks_t_reserve$9 000000018001ad6e f   tryblks.obj
 0001:00019d86       _wrap_tryblks_t_reserve$catch$3 000000018001ad86 f   tryblks.obj
 0001:00019d93       __catch$_wrap_tryblks_t_reserve$11 000000018001ad93 f   tryblks.obj
 0001:00019dbf       _wrap_tryblks_t_reserve$catch$2 000000018001adbf f   tryblks.obj
 0001:00019dcc       __catch$_wrap_tryblks_t_reserve$13 000000018001adcc f   tryblks.obj
 0001:00019e00       _wrap_tryblks_t_resize__SWIG_0$catch$5 000000018001ae00 f   tryblks.obj
 0001:00019e0d       __catch$_wrap_tryblks_t_resize__SWIG_0$5 000000018001ae0d f   tryblks.obj
 0001:00019e33       _wrap_tryblks_t_resize__SWIG_0$catch$4 000000018001ae33 f   tryblks.obj
 0001:00019e40       __catch$_wrap_tryblks_t_resize__SWIG_0$7 000000018001ae40 f   tryblks.obj
 0001:00019e6c       _wrap_tryblks_t_resize__SWIG_0$catch$3 000000018001ae6c f   tryblks.obj
 0001:00019e79       __catch$_wrap_tryblks_t_resize__SWIG_0$9 000000018001ae79 f   tryblks.obj
 0001:00019e91       _wrap_tryblks_t_resize__SWIG_0$catch$2 000000018001ae91 f   tryblks.obj
 0001:00019e9e       __catch$_wrap_tryblks_t_resize__SWIG_0$11 000000018001ae9e f   tryblks.obj
 0001:00019eb6       _wrap_tryblks_t_resize__SWIG_0$catch$1 000000018001aeb6 f   tryblks.obj
 0001:00019ec3       __catch$_wrap_tryblks_t_resize__SWIG_0$13 000000018001aec3 f   tryblks.obj
 0001:00019eef       _wrap_tryblks_t_resize__SWIG_0$catch$0 000000018001aeef f   tryblks.obj
 0001:00019efc       __catch$_wrap_tryblks_t_resize__SWIG_0$15 000000018001aefc f   tryblks.obj
 0001:00019f30       _wrap_tryblks_t_resize__SWIG_1$catch$9 000000018001af30 f   tryblks.obj
 0001:00019f3d       __catch$_wrap_tryblks_t_resize__SWIG_1$3 000000018001af3d f   tryblks.obj
 0001:00019f63       _wrap_tryblks_t_resize__SWIG_1$catch$8 000000018001af63 f   tryblks.obj
 0001:00019f70       __catch$_wrap_tryblks_t_resize__SWIG_1$5 000000018001af70 f   tryblks.obj
 0001:00019f9f       _wrap_tryblks_t_resize__SWIG_1$catch$7 000000018001af9f f   tryblks.obj
 0001:00019fac       __catch$_wrap_tryblks_t_resize__SWIG_1$7 000000018001afac f   tryblks.obj
 0001:00019fc7       _wrap_tryblks_t_resize__SWIG_1$catch$6 000000018001afc7 f   tryblks.obj
 0001:00019fd4       __catch$_wrap_tryblks_t_resize__SWIG_1$9 000000018001afd4 f   tryblks.obj
 0001:00019fef       _wrap_tryblks_t_resize__SWIG_1$catch$5 000000018001afef f   tryblks.obj
 0001:00019ffc       __catch$_wrap_tryblks_t_resize__SWIG_1$11 000000018001affc f   tryblks.obj
 0001:0001a02b       _wrap_tryblks_t_resize__SWIG_1$catch$4 000000018001b02b f   tryblks.obj
 0001:0001a038       __catch$_wrap_tryblks_t_resize__SWIG_1$13 000000018001b038 f   tryblks.obj
 0001:0001a060       _wrap_tryblks_t_size$catch$5 000000018001b060 f   tryblks.obj
 0001:0001a06d       __catch$_wrap_tryblks_t_size$2 000000018001b06d f   tryblks.obj
 0001:0001a093       _wrap_tryblks_t_size$catch$4 000000018001b093 f   tryblks.obj
 0001:0001a0a0       __catch$_wrap_tryblks_t_size$4 000000018001b0a0 f   tryblks.obj
 0001:0001a0cc       _wrap_tryblks_t_size$catch$3 000000018001b0cc f   tryblks.obj
 0001:0001a0d9       __catch$_wrap_tryblks_t_size$6 000000018001b0d9 f   tryblks.obj
 0001:0001a0f1       _wrap_tryblks_t_size$catch$2 000000018001b0f1 f   tryblks.obj
 0001:0001a0fe       __catch$_wrap_tryblks_t_size$8 000000018001b0fe f   tryblks.obj
 0001:0001a116       _wrap_tryblks_t_size$catch$1 000000018001b116 f   tryblks.obj
 0001:0001a123       __catch$_wrap_tryblks_t_size$10 000000018001b123 f   tryblks.obj
 0001:0001a14f       _wrap_tryblks_t_size$catch$0 000000018001b14f f   tryblks.obj
 0001:0001a15c       __catch$_wrap_tryblks_t_size$12 000000018001b15c f   tryblks.obj
 0001:0001a190       _wrap_tryblks_t_swap$catch$5 000000018001b190 f   tryblks.obj
 0001:0001a19d       __catch$_wrap_tryblks_t_swap$4 000000018001b19d f   tryblks.obj
 0001:0001a1c3       _wrap_tryblks_t_swap$catch$4 000000018001b1c3 f   tryblks.obj
 0001:0001a1d0       __catch$_wrap_tryblks_t_swap$6 000000018001b1d0 f   tryblks.obj
 0001:0001a1fc       _wrap_tryblks_t_swap$catch$3 000000018001b1fc f   tryblks.obj
 0001:0001a209       __catch$_wrap_tryblks_t_swap$8 000000018001b209 f   tryblks.obj
 0001:0001a221       _wrap_tryblks_t_swap$catch$2 000000018001b221 f   tryblks.obj
 0001:0001a22e       __catch$_wrap_tryblks_t_swap$10 000000018001b22e f   tryblks.obj
 0001:0001a246       _wrap_tryblks_t_swap$catch$1 000000018001b246 f   tryblks.obj
 0001:0001a253       __catch$_wrap_tryblks_t_swap$12 000000018001b253 f   tryblks.obj
 0001:0001a27f       _wrap_tryblks_t_swap$catch$0 000000018001b27f f   tryblks.obj
 0001:0001a28c       __catch$_wrap_tryblks_t_swap$14 000000018001b28c f   tryblks.obj
 0001:0001a2c0       _wrap_tryblks_t_truncate$catch$5 000000018001b2c0 f   tryblks.obj
 0001:0001a2cd       __catch$_wrap_tryblks_t_truncate$2 000000018001b2cd f   tryblks.obj
 0001:0001a2f3       _wrap_tryblks_t_truncate$catch$4 000000018001b2f3 f   tryblks.obj
 0001:0001a300       __catch$_wrap_tryblks_t_truncate$4 000000018001b300 f   tryblks.obj
 0001:0001a32c       _wrap_tryblks_t_truncate$catch$3 000000018001b32c f   tryblks.obj
 0001:0001a339       __catch$_wrap_tryblks_t_truncate$6 000000018001b339 f   tryblks.obj
 0001:0001a351       _wrap_tryblks_t_truncate$catch$2 000000018001b351 f   tryblks.obj
 0001:0001a35e       __catch$_wrap_tryblks_t_truncate$8 000000018001b35e f   tryblks.obj
 0001:0001a376       _wrap_tryblks_t_truncate$catch$1 000000018001b376 f   tryblks.obj
 0001:0001a383       __catch$_wrap_tryblks_t_truncate$10 000000018001b383 f   tryblks.obj
 0001:0001a3af       _wrap_tryblks_t_truncate$catch$0 000000018001b3af f   tryblks.obj
 0001:0001a3bc       __catch$_wrap_tryblks_t_truncate$12 000000018001b3bc f   tryblks.obj
 0001:0001a3e2       ?fin$0@?0??dllmain_crt_process_attach@@YAHQEAUHINSTANCE__@@QEAX@Z@4HA 000000018001b3e2 f   MSVCRT:dll_dllmain.obj
 0001:0001a3f9       ?fin$0@?0??dllmain_crt_process_detach@@YAH_N@Z@4HA 000000018001b3f9 f   MSVCRT:dll_dllmain.obj
 0001:0001a415       ?filt$0@?0??dllmain_dispatch@@YAHQEAUHINSTANCE__@@KQEAX@Z@4HA 000000018001b415 f   MSVCRT:dll_dllmain.obj
 0001:0001a44b       __scrt_is_nonwritable_in_current_image$filt$0 000000018001b44b f   MSVCRT:utility.obj
 0002:00000498       ?__scrt_initialize_tss_var@@3P6AHXZEA 000000018001c498     MSVCRT:thread_safe_statics.obj
 0002:00003878       $cppxdata$_wrap_new_tryblks_t__SWIG_0 000000018001f878     tryblks.obj
 0002:000038a0       $cppxdata$_wrap_new_tryblks_t__SWIG_1 000000018001f8a0     tryblks.obj
 0002:000038c8       $cppxdata$_wrap_delete_tryblks_t 000000018001f8c8     tryblks.obj
 0002:000038f0       $cppxdata$_wrap_tryblks_t_push_back__SWIG_0 000000018001f8f0     tryblks.obj
 0002:00003918       $cppxdata$_wrap_tryblks_t_push_back__SWIG_1 000000018001f918     tryblks.obj
 0002:00003940       $cppxdata$_wrap_tryblks_t_pop_back 000000018001f940     tryblks.obj
 0002:00003968       $cppxdata$_wrap_tryblks_t_size 000000018001f968     tryblks.obj
 0002:00003990       $cppxdata$_wrap_tryblks_t_empty 000000018001f990     tryblks.obj
 0002:000039b8       $cppxdata$_wrap_tryblks_t_at 000000018001f9b8     tryblks.obj
 0002:000039e0       $cppxdata$_wrap_tryblks_t_qclear 000000018001f9e0     tryblks.obj
 0002:00003a08       $cppxdata$_wrap_tryblks_t_clear 000000018001fa08     tryblks.obj
 0002:00003a30       $cppxdata$_wrap_tryblks_t_resize__SWIG_0 000000018001fa30     tryblks.obj
 0002:00003a58       $cppxdata$_wrap_tryblks_t_resize__SWIG_1 000000018001fa58     tryblks.obj
 0002:00003a80       $cppxdata$_wrap_tryblks_t_grow 000000018001fa80     tryblks.obj
 0002:00003aa8       $cppxdata$_wrap_tryblks_t_capacity 000000018001faa8     tryblks.obj
 0002:00003ad0       $cppxdata$_wrap_tryblks_t_reserve 000000018001fad0     tryblks.obj
 0002:00003af8       $cppxdata$_wrap_tryblks_t_truncate 000000018001faf8     tryblks.obj
 0002:00003b20       $cppxdata$_wrap_tryblks_t_swap 000000018001fb20     tryblks.obj
 0002:00003b48       $cppxdata$_wrap_tryblks_t_extract 000000018001fb48     tryblks.obj
 0002:00003b70       $cppxdata$_wrap_tryblks_t_inject 000000018001fb70     tryblks.obj
 0002:00003b98       $cppxdata$_wrap_tryblks_t___eq__ 000000018001fb98     tryblks.obj
 0002:00003bc0       $cppxdata$_wrap_tryblks_t___ne__ 000000018001fbc0     tryblks.obj
 0002:00003be8       $cppxdata$_wrap_tryblks_t_begin__SWIG_0 000000018001fbe8     tryblks.obj
 0002:00003c10       $cppxdata$_wrap_tryblks_t_end__SWIG_0 000000018001fc10     tryblks.obj
 0002:00003c38       $cppxdata$_wrap_tryblks_t_begin__SWIG_1 000000018001fc38     tryblks.obj
 0002:00003c60       $cppxdata$_wrap_tryblks_t_end__SWIG_1 000000018001fc60     tryblks.obj
 0002:00003c88       $cppxdata$_wrap_tryblks_t_insert 000000018001fc88     tryblks.obj
 0002:00003cb0       $cppxdata$_wrap_tryblks_t_erase__SWIG_0 000000018001fcb0     tryblks.obj
 0002:00003cd8       $cppxdata$_wrap_tryblks_t_erase__SWIG_1 000000018001fcd8     tryblks.obj
 0002:00003d00       $cppxdata$_wrap_tryblks_t_find__SWIG_0 000000018001fd00     tryblks.obj
 0002:00003d28       $cppxdata$_wrap_tryblks_t_find__SWIG_1 000000018001fd28     tryblks.obj
 0002:00003d50       $cppxdata$_wrap_tryblks_t_has 000000018001fd50     tryblks.obj
 0002:00003d78       $cppxdata$_wrap_tryblks_t_add_unique 000000018001fd78     tryblks.obj
 0002:00003da0       $cppxdata$_wrap_tryblks_t__del 000000018001fda0     tryblks.obj
 0002:00003dc8       $cppxdata$_wrap_tryblks_t___len__ 000000018001fdc8     tryblks.obj
 0002:00003df0       $cppxdata$_wrap_tryblks_t___getitem__ 000000018001fdf0     tryblks.obj
 0002:00003e18       $cppxdata$_wrap_tryblks_t___setitem__ 000000018001fe18     tryblks.obj
 0002:00003e40       $cppxdata$_wrap_new_catchvec_t__SWIG_0 000000018001fe40     tryblks.obj
 0002:00003e68       $cppxdata$_wrap_new_catchvec_t__SWIG_1 000000018001fe68     tryblks.obj
 0002:00003e90       $cppxdata$_wrap_delete_catchvec_t 000000018001fe90     tryblks.obj
 0002:00003eb8       $cppxdata$_wrap_catchvec_t_push_back__SWIG_0 000000018001feb8     tryblks.obj
 0002:00003ee0       $cppxdata$_wrap_catchvec_t_push_back__SWIG_1 000000018001fee0     tryblks.obj
 0002:00003f08       $cppxdata$_wrap_catchvec_t_pop_back 000000018001ff08     tryblks.obj
 0002:00003f30       $cppxdata$_wrap_catchvec_t_size 000000018001ff30     tryblks.obj
 0002:00003f58       $cppxdata$_wrap_catchvec_t_empty 000000018001ff58     tryblks.obj
 0002:00003f80       $cppxdata$_wrap_catchvec_t_at 000000018001ff80     tryblks.obj
 0002:00003fa8       $cppxdata$_wrap_catchvec_t_qclear 000000018001ffa8     tryblks.obj
 0002:00003fd0       $cppxdata$_wrap_catchvec_t_clear 000000018001ffd0     tryblks.obj
 0002:00003ff8       $cppxdata$_wrap_catchvec_t_resize__SWIG_0 000000018001fff8     tryblks.obj
 0002:00004020       $cppxdata$_wrap_catchvec_t_resize__SWIG_1 0000000180020020     tryblks.obj
 0002:00004048       $cppxdata$_wrap_catchvec_t_grow 0000000180020048     tryblks.obj
 0002:00004070       $cppxdata$_wrap_catchvec_t_capacity 0000000180020070     tryblks.obj
 0002:00004098       $cppxdata$_wrap_catchvec_t_reserve 0000000180020098     tryblks.obj
 0002:000040c0       $cppxdata$_wrap_catchvec_t_truncate 00000001800200c0     tryblks.obj
 0002:000040e8       $cppxdata$_wrap_catchvec_t_swap 00000001800200e8     tryblks.obj
 0002:00004110       $cppxdata$_wrap_catchvec_t_extract 0000000180020110     tryblks.obj
 0002:00004138       $cppxdata$_wrap_catchvec_t_inject 0000000180020138     tryblks.obj
 0002:00004160       $cppxdata$_wrap_catchvec_t___eq__ 0000000180020160     tryblks.obj
 0002:00004188       $cppxdata$_wrap_catchvec_t___ne__ 0000000180020188     tryblks.obj
 0002:000041b0       $cppxdata$_wrap_catchvec_t_begin__SWIG_0 00000001800201b0     tryblks.obj
 0002:000041d8       $cppxdata$_wrap_catchvec_t_end__SWIG_0 00000001800201d8     tryblks.obj
 0002:00004200       $cppxdata$_wrap_catchvec_t_begin__SWIG_1 0000000180020200     tryblks.obj
 0002:00004228       $cppxdata$_wrap_catchvec_t_end__SWIG_1 0000000180020228     tryblks.obj
 0002:00004250       $cppxdata$_wrap_catchvec_t_insert 0000000180020250     tryblks.obj
 0002:00004278       $cppxdata$_wrap_catchvec_t_erase__SWIG_0 0000000180020278     tryblks.obj
 0002:000042a0       $cppxdata$_wrap_catchvec_t_erase__SWIG_1 00000001800202a0     tryblks.obj
 0002:000042c8       $cppxdata$_wrap_catchvec_t_find__SWIG_0 00000001800202c8     tryblks.obj
 0002:000042f0       $cppxdata$_wrap_catchvec_t_find__SWIG_1 00000001800202f0     tryblks.obj
 0002:00004318       $cppxdata$_wrap_catchvec_t_has 0000000180020318     tryblks.obj
 0002:00004340       $cppxdata$_wrap_catchvec_t_add_unique 0000000180020340     tryblks.obj
 0002:00004368       $cppxdata$_wrap_catchvec_t__del 0000000180020368     tryblks.obj
 0002:00004390       $cppxdata$_wrap_catchvec_t___len__ 0000000180020390     tryblks.obj
 0002:000043b8       $cppxdata$_wrap_catchvec_t___getitem__ 00000001800203b8     tryblks.obj
 0002:000043e0       $cppxdata$_wrap_catchvec_t___setitem__ 00000001800203e0     tryblks.obj
 0002:00004408       $cppxdata$_wrap_new_try_handler_t 0000000180020408     tryblks.obj
 0002:00004430       $cppxdata$_wrap_try_handler_t_clear 0000000180020430     tryblks.obj
 0002:00004458       $cppxdata$_wrap_delete_try_handler_t 0000000180020458     tryblks.obj
 0002:00004480       $cppxdata$_wrap_seh_t_clear 0000000180020480     tryblks.obj
 0002:000044a8       $cppxdata$_wrap_new_seh_t  00000001800204a8     tryblks.obj
 0002:000044d0       $cppxdata$_wrap_delete_seh_t 00000001800204d0     tryblks.obj
 0002:000044f8       $cppxdata$_wrap_new_catch_t 00000001800204f8     tryblks.obj
 0002:00004520       $cppxdata$_wrap_delete_catch_t 0000000180020520     tryblks.obj
 0002:00004548       $cppxdata$_wrap_tryblk_t_cpp 0000000180020548     tryblks.obj
 0002:00004570       $cppxdata$_wrap_tryblk_t_seh 0000000180020570     tryblks.obj
 0002:00004598       $cppxdata$_wrap_new_tryblk_t__SWIG_0 0000000180020598     tryblks.obj
 0002:000045c0       $cppxdata$_wrap_delete_tryblk_t 00000001800205c0     tryblks.obj
 0002:000045e8       $cppxdata$_wrap_new_tryblk_t__SWIG_1 00000001800205e8     tryblks.obj
 0002:00004610       $cppxdata$_wrap_tryblk_t_get_kind 0000000180020610     tryblks.obj
 0002:00004638       $cppxdata$_wrap_tryblk_t_empty 0000000180020638     tryblks.obj
 0002:00004660       $cppxdata$_wrap_tryblk_t_is_seh 0000000180020660     tryblks.obj
 0002:00004688       $cppxdata$_wrap_tryblk_t_is_cpp 0000000180020688     tryblks.obj
 0002:000046b0       $cppxdata$_wrap_tryblk_t_clear 00000001800206b0     tryblks.obj
 0002:000046d8       $cppxdata$_wrap_tryblk_t_set_seh 00000001800206d8     tryblks.obj
 0002:00004700       $cppxdata$_wrap_tryblk_t_set_cpp 0000000180020700     tryblks.obj
 0002:00004728       $cppxdata$_wrap_get_tryblks 0000000180020728     tryblks.obj
 0002:00004750       $cppxdata$_wrap_del_tryblks 0000000180020750     tryblks.obj
 0002:00004778       $cppxdata$_wrap_add_tryblk 0000000180020778     tryblks.obj
 0002:000047a0       $cppxdata$_wrap_find_syseh 00000001800207a0     tryblks.obj
 0002:000047c8       ?hex@?1??SWIG_PackData@@9@4QBDB 00000001800207c8     tryblks.obj
 0002:00009180       ?cis@?1??PyInit__ida_tryblks@@9@4QBUci_t@?1??1@YAPEAU_object@@XZ@B 0000000180025180     tryblks.obj
 0002:000092a0       $cppxdata$?__scrt_initialize_thread_safe_statics@@YAHXZ 00000001800252a0     MSVCRT:thread_safe_statics.obj
 0002:000093b0       GS_ExceptionPointers       00000001800253b0     MSVCRT:gs_report.obj
 0002:00009a80       $unwind$printf             0000000180025a80     tryblks.obj
 0002:00009a8c       $unwind$_RTC_Initialize    0000000180025a8c     MSVCRT:initsect.obj
 0002:00009a8c       $unwind$?erase@?$qvector@Vtryblk_t@@@@QEAAPEAVtryblk_t@@PEAV2@@Z 0000000180025a8c     tryblks.obj
 0002:00009a8c       $unwind$?clear@seh_t@@QEAAXXZ 0000000180025a8c     tryblks.obj
 0002:00009a8c       $unwind$??4rangevec_t@@QEAAAEAU0@AEBU0@@Z 0000000180025a8c     tryblks.obj
 0002:00009a8c       $unwind$_RTC_Terminate     0000000180025a8c     MSVCRT:initsect.obj
 0002:00009a8c       $unwind$?erase@?$qvector@Ucatch_t@@@@QEAAPEAUcatch_t@@PEAU2@@Z 0000000180025a8c     tryblks.obj
 0002:00009a8c       $unwind$SWIG_TypeClientData 0000000180025a8c     tryblks.obj
 0002:00009a8c       $unwind$??_Gout_of_range@std@@UEAAPEAXI@Z 0000000180025a8c     tryblks.obj
 0002:00009a8c       $unwind$??_Gexception@std@@UEAAPEAXI@Z 0000000180025a8c     tryblks.obj
 0002:00009a8c       $unwind$SwigPyObject_append 0000000180025a8c     tryblks.obj
 0002:00009a8c       $unwind$??_Glogic_error@std@@UEAAPEAXI@Z 0000000180025a8c     tryblks.obj
 0002:00009a98       $unwind$SWIG_MangledTypeQueryModule 0000000180025a98     tryblks.obj
 0002:00009aa8       $unwind$??0out_of_range@std@@QEAA@AEBV01@@Z 0000000180025aa8     tryblks.obj
 0002:00009aa8       $unwind$??0exception@std@@QEAA@AEBV01@@Z 0000000180025aa8     tryblks.obj
 0002:00009aa8       $unwind$SWIG_Python_GetSwigThis 0000000180025aa8     tryblks.obj
 0002:00009aa8       $unwind$__scrt_uninitialize_crt 0000000180025aa8     MSVCRT:utility.obj
 0002:00009aa8       $unwind$SwigPyPacked_dealloc 0000000180025aa8     tryblks.obj
 0002:00009aa8       $unwind$_Init_thread_wait  0000000180025aa8     MSVCRT:thread_safe_statics.obj
 0002:00009aa8       $unwind$?SWIG_Python_RaiseOrModifyTypeError@@YAXPEBD@Z 0000000180025aa8     tryblks.obj
 0002:00009aa8       $unwind$__scrt_initialize_crt 0000000180025aa8     MSVCRT:utility.obj
 0002:00009aa8       $unwind$__scrt_release_startup_lock 0000000180025aa8     MSVCRT:utility.obj
 0002:00009aa8       $unwind$_onexit            0000000180025aa8     MSVCRT:utility.obj
 0002:00009aa8       $unwind$??1catch_t@@QEAA@XZ 0000000180025aa8     tryblks.obj
 0002:00009aa8       $unwind$??1tryblk_t@@QEAA@XZ 0000000180025aa8     tryblks.obj
 0002:00009aa8       $unwind$__raise_securityfailure 0000000180025aa8     MSVCRT:gs_report.obj
 0002:00009aa8       $unwind$?clear@tryblk_t@@QEAAXXZ 0000000180025aa8     tryblks.obj
 0002:00009aa8       $unwind$??0logic_error@std@@QEAA@AEBV01@@Z 0000000180025aa8     tryblks.obj
 0002:00009aa8       $unwind$_Init_thread_header 0000000180025aa8     MSVCRT:thread_safe_statics.obj
 0002:00009aa8       $unwind$_Init_thread_footer 0000000180025aa8     MSVCRT:thread_safe_statics.obj
 0002:00009aa8       $unwind$??_Gtype_info@@UEAAPEAXI@Z 0000000180025aa8     MSVCRT:std_type_info_static.obj
 0002:00009ab0       $unwind$?SWIG_Python_UnpackTuple@@YA_JPEAU_object@@PEBD_J2PEAPEAU1@@Z 0000000180025ab0     tryblks.obj
 0002:00009ac4       $chain$0$?SWIG_Python_UnpackTuple@@YA_JPEAU_object@@PEBD_J2PEAPEAU1@@Z 0000000180025ac4     tryblks.obj
 0002:00009ad8       $chain$1$?SWIG_Python_UnpackTuple@@YA_JPEAU_object@@PEBD_J2PEAPEAU1@@Z 0000000180025ad8     tryblks.obj
 0002:00009ae8       $unwind$SwigPyClientData_New 0000000180025ae8     tryblks.obj
 0002:00009af8       $chain$2$SwigPyClientData_New 0000000180025af8     tryblks.obj
 0002:00009b0c       $chain$3$SwigPyClientData_New 0000000180025b0c     tryblks.obj
 0002:00009b1c       $unwind$SwigPyObject_repr  0000000180025b1c     tryblks.obj
 0002:00009b28       $chain$0$SwigPyObject_repr 0000000180025b28     tryblks.obj
 0002:00009b3c       $chain$1$SwigPyObject_repr 0000000180025b3c     tryblks.obj
 0002:00009b4c       $unwind$SwigPyObject_type  0000000180025b4c     tryblks.obj
 0002:00009b60       $unwind$SwigPyPacked_Check 0000000180025b60     tryblks.obj
 0002:00009b60       $unwind$SwigPyObject_Check 0000000180025b60     tryblks.obj
 0002:00009b6c       $unwind$_DllMainCRTStartup 0000000180025b6c     MSVCRT:dll_dllmain.obj
 0002:00009b6c       $unwind$??_Gseh_t@@QEAAPEAXI@Z 0000000180025b6c     tryblks.obj
 0002:00009b6c       $unwind$??0rangevec_t@@QEAA@AEBU0@@Z 0000000180025b6c     tryblks.obj
 0002:00009b6c       $unwind$SwigPyObject_New   0000000180025b6c     tryblks.obj
 0002:00009b7c       $unwind$SwigPyObject_dealloc 0000000180025b7c     tryblks.obj
 0002:00009b88       $chain$2$SwigPyObject_dealloc 0000000180025b88     tryblks.obj
 0002:00009ba4       $chain$3$SwigPyObject_dealloc 0000000180025ba4     tryblks.obj
 0002:00009bb4       $unwind$SwigPyObject_own   0000000180025bb4     tryblks.obj
 0002:00009bb4       $unwind$??0out_of_range@std@@QEAA@PEBD@Z 0000000180025bb4     tryblks.obj
 0002:00009bbc       $chain$0$SwigPyObject_own  0000000180025bbc     tryblks.obj
 0002:00009bd0       $chain$2$SwigPyObject_own  0000000180025bd0     tryblks.obj
 0002:00009be4       $unwind$SwigPyPacked_str   0000000180025be4     tryblks.obj
 0002:00009be4       $unwind$SwigPyPacked_repr  0000000180025be4     tryblks.obj
 0002:00009bf4       $chain$0$SwigPyPacked_repr 0000000180025bf4     tryblks.obj
 0002:00009c08       $chain$1$SwigPyPacked_repr 0000000180025c08     tryblks.obj
 0002:00009c18       $chain$0$SwigPyPacked_str  0000000180025c18     tryblks.obj
 0002:00009c2c       $chain$1$SwigPyPacked_str  0000000180025c2c     tryblks.obj
 0002:00009c3c       $unwind$SwigPyPacked_type  0000000180025c3c     tryblks.obj
 0002:00009c4c       $unwind$__scrt_dllmain_after_initialize_c 0000000180025c4c     MSVCRT:utility.obj
 0002:00009c4c       $unwind$__scrt_dllmain_crt_thread_detach 0000000180025c4c     MSVCRT:utility.obj
 0002:00009c4c       $unwind$__scrt_dllmain_crt_thread_attach 0000000180025c4c     MSVCRT:utility.obj
 0002:00009c4c       $unwind$__scrt_dllmain_uninitialize_critical 0000000180025c4c     MSVCRT:utility.obj
 0002:00009c4c       $unwind$__scrt_dllmain_uninitialize_c 0000000180025c4c     MSVCRT:utility.obj
 0002:00009c4c       $unwind$__scrt_initialize_default_local_stdio_options 0000000180025c4c     MSVCRT:default_local_stdio_options.obj
 0002:00009c4c       $unwind$DllMain            0000000180025c4c     MSVCRT:dll_dllmain_stub.obj
 0002:00009c4c       $unwind$SWIG_Python_DestroyModule 0000000180025c4c     tryblks.obj
 0002:00009c4c       $unwind$SWIG_This          0000000180025c4c     tryblks.obj
 0002:00009c4c       $unwind$__scrt_dllmain_before_initialize_c 0000000180025c4c     MSVCRT:utility.obj
 0002:00009c4c       $unwind$_Init_thread_notify 0000000180025c4c     MSVCRT:thread_safe_statics.obj
 0002:00009c4c       $unwind$__scrt_acquire_startup_lock 0000000180025c4c     MSVCRT:utility.obj
 0002:00009c4c       $unwind$?__raise_e@@YAXAEBVexception@std@@@Z 0000000180025c4c     tryblks.obj
 0002:00009c4c       $unwind$?__scrt_uninitialize_thread_safe_statics@@YAXXZ 0000000180025c4c     MSVCRT:thread_safe_statics.obj
 0002:00009c4c       $unwind$atexit             0000000180025c4c     MSVCRT:utility.obj
 0002:00009c4c       $unwind$?dllmain_crt_dispatch@@YAHQEAUHINSTANCE__@@KQEAX@Z 0000000180025c4c     MSVCRT:dll_dllmain.obj
 0002:00009c4c       $unwind$__GSHandlerCheck   0000000180025c4c     MSVCRT:gshandler.obj
 0002:00009c54       $unwind$SWIG_Python_InitShadowInstance 0000000180025c54     tryblks.obj
 0002:00009c64       $unwind$SWIG_Python_NewPointerObj 0000000180025c64     tryblks.obj
 0002:00009c80       $chain$2$SWIG_Python_DestroyModule 0000000180025c80     tryblks.obj
 0002:00009c9c       $chain$3$SWIG_Python_DestroyModule 0000000180025c9c     tryblks.obj
 0002:00009cb0       $chain$4$SWIG_Python_DestroyModule 0000000180025cb0     tryblks.obj
 0002:00009cc0       $chain$5$SWIG_Python_DestroyModule 0000000180025cc0     tryblks.obj
 0002:00009cd0       $unwind$?sprnt@?$_qstring@D@@QEAAAEAV1@PEBDZZ 0000000180025cd0     tryblks.obj
 0002:00009ce0       $unwind$?__raise_ie@@YAXAEBUinterr_exc_t@@@Z 0000000180025ce0     tryblks.obj
 0002:00009ce8       $unwind$??0?$qvector@Ucatch_t@@@@QEAA@AEBV0@@Z 0000000180025ce8     tryblks.obj
 0002:00009cf8       $chain$1$??0?$qvector@Ucatch_t@@@@QEAA@AEBV0@@Z 0000000180025cf8     tryblks.obj
 0002:00009d10       $chain$2$??0?$qvector@Ucatch_t@@@@QEAA@AEBV0@@Z 0000000180025d10     tryblks.obj
 0002:00009d20       $unwind$?push_back@?$qvector@Ucatch_t@@@@QEAAXAEBUcatch_t@@@Z 0000000180025d20     tryblks.obj
 0002:00009d30       $unwind$?qclear@?$qvector@Ucatch_t@@@@QEAAXXZ 0000000180025d30     tryblks.obj
 0002:00009d30       $unwind$?qclear@?$qvector@Vtryblk_t@@@@QEAAXXZ 0000000180025d30     tryblks.obj
 0002:00009d38       $chain$1$?qclear@?$qvector@Ucatch_t@@@@QEAAXXZ 0000000180025d38     tryblks.obj
 0002:00009d50       $chain$2$?qclear@?$qvector@Ucatch_t@@@@QEAAXXZ 0000000180025d50     tryblks.obj
 0002:00009d60       $unwind$?resize@?$qvector@Ucatch_t@@@@QEAAX_KAEBUcatch_t@@@Z 0000000180025d60     tryblks.obj
 0002:00009d70       $chain$1$?resize@?$qvector@Ucatch_t@@@@QEAAX_KAEBUcatch_t@@@Z 0000000180025d70     tryblks.obj
 0002:00009d88       $chain$2$?resize@?$qvector@Ucatch_t@@@@QEAAX_KAEBUcatch_t@@@Z 0000000180025d88     tryblks.obj
 0002:00009d98       $unwind$??8?$qvector@Vtryblk_t@@@@QEBA_NAEBV0@@Z 0000000180025d98     tryblks.obj
 0002:00009d98       $unwind$??8?$qvector@Ucatch_t@@@@QEBA_NAEBV0@@Z 0000000180025d98     tryblks.obj
 0002:00009dac       $unwind$?find@?$qvector@Ucatch_t@@@@QEAAPEAUcatch_t@@AEBU2@@Z 0000000180025dac     tryblks.obj
 0002:00009dac       $unwind$?find@?$qvector@Ucatch_t@@@@QEBAPEBUcatch_t@@AEBU2@@Z 0000000180025dac     tryblks.obj
 0002:00009dac       $unwind$?find@?$qvector@Vtryblk_t@@@@QEAAPEAVtryblk_t@@AEBV2@@Z 0000000180025dac     tryblks.obj
 0002:00009dac       $unwind$?find@?$qvector@Vtryblk_t@@@@QEBAPEBVtryblk_t@@AEBV2@@Z 0000000180025dac     tryblks.obj
 0002:00009db8       $unwind$??4tryblk_t@@QEAAAEAV0@AEBV0@@Z 0000000180025db8     tryblks.obj
 0002:00009dc4       $chain$0$??4tryblk_t@@QEAAAEAV0@AEBV0@@Z 0000000180025dc4     tryblks.obj
 0002:00009dd8       $chain$1$??4tryblk_t@@QEAAAEAV0@AEBV0@@Z 0000000180025dd8     tryblks.obj
 0002:00009de8       $chain$0$?clear@tryblk_t@@QEAAXXZ 0000000180025de8     tryblks.obj
 0002:00009dfc       $chain$2$?clear@tryblk_t@@QEAAXXZ 0000000180025dfc     tryblks.obj
 0002:00009e10       $chain$3$?clear@tryblk_t@@QEAAXXZ 0000000180025e10     tryblks.obj
 0002:00009e20       $unwind$?push_back@?$qvector@Vtryblk_t@@@@QEAAXAEBVtryblk_t@@@Z 0000000180025e20     tryblks.obj
 0002:00009e2c       $chain$1$?qclear@?$qvector@Vtryblk_t@@@@QEAAXXZ 0000000180025e2c     tryblks.obj
 0002:00009e44       $chain$2$?qclear@?$qvector@Vtryblk_t@@@@QEAAXXZ 0000000180025e44     tryblks.obj
 0002:00009e54       $unwind$?resize@?$qvector@Vtryblk_t@@@@QEAAX_KAEBVtryblk_t@@@Z 0000000180025e54     tryblks.obj
 0002:00009e64       $chain$0$?resize@?$qvector@Vtryblk_t@@@@QEAAX_KAEBVtryblk_t@@@Z 0000000180025e64     tryblks.obj
 0002:00009e78       $chain$1$?resize@?$qvector@Vtryblk_t@@@@QEAAX_KAEBVtryblk_t@@@Z 0000000180025e78     tryblks.obj
 0002:00009e8c       $chain$2$?resize@?$qvector@Vtryblk_t@@@@QEAAX_KAEBVtryblk_t@@@Z 0000000180025e8c     tryblks.obj
 0002:00009e9c       $chain$3$?resize@?$qvector@Vtryblk_t@@@@QEAAX_KAEBVtryblk_t@@@Z 0000000180025e9c     tryblks.obj
 0002:00009eac       $unwind$_wrap_new_tryblks_t__SWIG_0 0000000180025eac     tryblks.obj
 0002:00009ebc       $stateUnwindMap$_wrap_tryblk_t_is_cpp 0000000180025ebc     tryblks.obj
 0002:00009ebc       $stateUnwindMap$_wrap_new_catch_t 0000000180025ebc     tryblks.obj
 0002:00009ebc       $stateUnwindMap$_wrap_delete_catch_t 0000000180025ebc     tryblks.obj
 0002:00009ebc       $stateUnwindMap$_wrap_tryblk_t_clear 0000000180025ebc     tryblks.obj
 0002:00009ebc       $stateUnwindMap$_wrap_delete_seh_t 0000000180025ebc     tryblks.obj
 0002:00009ebc       $stateUnwindMap$_wrap_tryblk_t_cpp 0000000180025ebc     tryblks.obj
 0002:00009ebc       $stateUnwindMap$_wrap_tryblk_t_empty 0000000180025ebc     tryblks.obj
 0002:00009ebc       $stateUnwindMap$_wrap_tryblk_t_seh 0000000180025ebc     tryblks.obj
 0002:00009ebc       $stateUnwindMap$_wrap_tryblk_t_get_kind 0000000180025ebc     tryblks.obj
 0002:00009ebc       $stateUnwindMap$_wrap_tryblk_t_set_seh 0000000180025ebc     tryblks.obj
 0002:00009ebc       $stateUnwindMap$_wrap_tryblks_t___len__ 0000000180025ebc     tryblks.obj
 0002:00009ebc       $stateUnwindMap$_wrap_new_seh_t 0000000180025ebc     tryblks.obj
 0002:00009ebc       $stateUnwindMap$_wrap_catchvec_t_erase__SWIG_1 0000000180025ebc     tryblks.obj
 0002:00009ebc       $stateUnwindMap$_wrap_tryblks_t_erase__SWIG_1 0000000180025ebc     tryblks.obj
 0002:00009ebc       $stateUnwindMap$_wrap_catchvec_t_erase__SWIG_0 0000000180025ebc     tryblks.obj
 0002:00009ebc       $stateUnwindMap$_wrap_tryblks_t_find__SWIG_0 0000000180025ebc     tryblks.obj
 0002:00009ebc       $stateUnwindMap$_wrap_catchvec_t_size 0000000180025ebc     tryblks.obj
 0002:00009ebc       $stateUnwindMap$_wrap_seh_t_clear 0000000180025ebc     tryblks.obj
 0002:00009ebc       $stateUnwindMap$_wrap_tryblk_t_set_cpp 0000000180025ebc     tryblks.obj
 0002:00009ebc       $stateUnwindMap$_wrap_delete_try_handler_t 0000000180025ebc     tryblks.obj
 0002:00009ebc       $stateUnwindMap$_wrap_get_tryblks 0000000180025ebc     tryblks.obj
 0002:00009ebc       $stateUnwindMap$_wrap_tryblks_t___setitem__ 0000000180025ebc     tryblks.obj
 0002:00009ebc       $stateUnwindMap$_wrap_new_tryblk_t__SWIG_0 0000000180025ebc     tryblks.obj
 0002:00009ebc       $stateUnwindMap$_wrap_del_tryblks 0000000180025ebc     tryblks.obj
 0002:00009ebc       $stateUnwindMap$_wrap_try_handler_t_clear 0000000180025ebc     tryblks.obj
 0002:00009ebc       $stateUnwindMap$_wrap_tryblks_t_capacity 0000000180025ebc     tryblks.obj
 0002:00009ebc       $stateUnwindMap$_wrap_add_tryblk 0000000180025ebc     tryblks.obj
 0002:00009ebc       $stateUnwindMap$_wrap_new_try_handler_t 0000000180025ebc     tryblks.obj
 0002:00009ebc       $stateUnwindMap$_wrap_find_syseh 0000000180025ebc     tryblks.obj
 0002:00009ebc       $stateUnwindMap$_wrap_new_tryblk_t__SWIG_1 0000000180025ebc     tryblks.obj
 0002:00009ebc       $stateUnwindMap$_wrap_catchvec_t_find__SWIG_0 0000000180025ebc     tryblks.obj
 0002:00009ebc       $stateUnwindMap$_wrap_tryblks_t_find__SWIG_1 0000000180025ebc     tryblks.obj
 0002:00009ebc       $stateUnwindMap$_wrap_tryblks_t_erase__SWIG_0 0000000180025ebc     tryblks.obj
 0002:00009ebc       $stateUnwindMap$_wrap_delete_catchvec_t 0000000180025ebc     tryblks.obj
 0002:00009ebc       $stateUnwindMap$_wrap_catchvec_t___setitem__ 0000000180025ebc     tryblks.obj
 0002:00009ebc       $stateUnwindMap$_wrap_catchvec_t___getitem__ 0000000180025ebc     tryblks.obj
 0002:00009ebc       $stateUnwindMap$_wrap_tryblks_t__del 0000000180025ebc     tryblks.obj
 0002:00009ebc       $stateUnwindMap$_wrap_catchvec_t___len__ 0000000180025ebc     tryblks.obj
 0002:00009ebc       $stateUnwindMap$_wrap_catchvec_t__del 0000000180025ebc     tryblks.obj
 0002:00009ebc       $stateUnwindMap$_wrap_catchvec_t_add_unique 0000000180025ebc     tryblks.obj
 0002:00009ebc       $stateUnwindMap$_wrap_catchvec_t_has 0000000180025ebc     tryblks.obj
 0002:00009ebc       $stateUnwindMap$_wrap_tryblks_t_truncate 0000000180025ebc     tryblks.obj
 0002:00009ebc       $stateUnwindMap$_wrap_tryblks_t_add_unique 0000000180025ebc     tryblks.obj
 0002:00009ebc       $stateUnwindMap$_wrap_new_catchvec_t__SWIG_0 0000000180025ebc     tryblks.obj
 0002:00009ebc       $stateUnwindMap$_wrap_tryblks_t_has 0000000180025ebc     tryblks.obj
 0002:00009ebc       $stateUnwindMap$_wrap_tryblks_t___getitem__ 0000000180025ebc     tryblks.obj
 0002:00009ebc       $stateUnwindMap$_wrap_catchvec_t_find__SWIG_1 0000000180025ebc     tryblks.obj
 0002:00009ebc       $stateUnwindMap$_wrap_tryblk_t_is_seh 0000000180025ebc     tryblks.obj
 0002:00009ebc       $stateUnwindMap$_wrap_new_catchvec_t__SWIG_1 0000000180025ebc     tryblks.obj
 0002:00009ebc       $stateUnwindMap$_wrap_catchvec_t_insert 0000000180025ebc     tryblks.obj
 0002:00009ebc       $stateUnwindMap$_wrap_new_tryblks_t__SWIG_0 0000000180025ebc     tryblks.obj
 0002:00009ebc       $stateUnwindMap$_wrap_tryblks_t_insert 0000000180025ebc     tryblks.obj
 0002:00009ebc       $stateUnwindMap$_wrap_catchvec_t_end__SWIG_1 0000000180025ebc     tryblks.obj
 0002:00009ebc       $stateUnwindMap$_wrap_catchvec_t_push_back__SWIG_0 0000000180025ebc     tryblks.obj
 0002:00009ebc       $stateUnwindMap$_wrap_catchvec_t_begin__SWIG_1 0000000180025ebc     tryblks.obj
 0002:00009ebc       $stateUnwindMap$_wrap_tryblks_t_swap 0000000180025ebc     tryblks.obj
 0002:00009ebc       $stateUnwindMap$_wrap_tryblks_t_resize__SWIG_1 0000000180025ebc     tryblks.obj
 0002:00009ebc       $stateUnwindMap$_wrap_catchvec_t_end__SWIG_0 0000000180025ebc     tryblks.obj
 0002:00009ebc       $stateUnwindMap$_wrap_catchvec_t_push_back__SWIG_1 0000000180025ebc     tryblks.obj
 0002:00009ebc       $stateUnwindMap$_wrap_tryblks_t_extract 0000000180025ebc     tryblks.obj
 0002:00009ebc       $stateUnwindMap$_wrap_tryblks_t_resize__SWIG_0 0000000180025ebc     tryblks.obj
 0002:00009ebc       $stateUnwindMap$_wrap_catchvec_t_begin__SWIG_0 0000000180025ebc     tryblks.obj
 0002:00009ebc       $stateUnwindMap$_wrap_catchvec_t___ne__ 0000000180025ebc     tryblks.obj
 0002:00009ebc       $stateUnwindMap$_wrap_catchvec_t___eq__ 0000000180025ebc     tryblks.obj
 0002:00009ebc       $stateUnwindMap$_wrap_new_tryblks_t__SWIG_1 0000000180025ebc     tryblks.obj
 0002:00009ebc       $stateUnwindMap$_wrap_tryblks_t_inject 0000000180025ebc     tryblks.obj
 0002:00009ebc       $stateUnwindMap$_wrap_tryblks_t_clear 0000000180025ebc     tryblks.obj
 0002:00009ebc       $stateUnwindMap$_wrap_catchvec_t_inject 0000000180025ebc     tryblks.obj
 0002:00009ebc       $stateUnwindMap$_wrap_tryblks_t_qclear 0000000180025ebc     tryblks.obj
 0002:00009ebc       $stateUnwindMap$_wrap_catchvec_t_extract 0000000180025ebc     tryblks.obj
 0002:00009ebc       $stateUnwindMap$_wrap_catchvec_t_swap 0000000180025ebc     tryblks.obj
 0002:00009ebc       $stateUnwindMap$_wrap_tryblks_t___eq__ 0000000180025ebc     tryblks.obj
 0002:00009ebc       $stateUnwindMap$_wrap_tryblks_t_end__SWIG_1 0000000180025ebc     tryblks.obj
 0002:00009ebc       $stateUnwindMap$_wrap_catchvec_t_truncate 0000000180025ebc     tryblks.obj
 0002:00009ebc       $stateUnwindMap$_wrap_tryblks_t_at 0000000180025ebc     tryblks.obj
 0002:00009ebc       $stateUnwindMap$_wrap_catchvec_t_reserve 0000000180025ebc     tryblks.obj
 0002:00009ebc       $stateUnwindMap$_wrap_catchvec_t_pop_back 0000000180025ebc     tryblks.obj
 0002:00009ebc       $stateUnwindMap$_wrap_tryblks_t___ne__ 0000000180025ebc     tryblks.obj
 0002:00009ebc       $stateUnwindMap$_wrap_catchvec_t_capacity 0000000180025ebc     tryblks.obj
 0002:00009ebc       $stateUnwindMap$_wrap_delete_tryblks_t 0000000180025ebc     tryblks.obj
 0002:00009ebc       $stateUnwindMap$_wrap_tryblks_t_empty 0000000180025ebc     tryblks.obj
 0002:00009ebc       $stateUnwindMap$_wrap_tryblks_t_reserve 0000000180025ebc     tryblks.obj
 0002:00009ebc       $stateUnwindMap$_wrap_tryblks_t_size 0000000180025ebc     tryblks.obj
 0002:00009ebc       $stateUnwindMap$_wrap_catchvec_t_resize__SWIG_1 0000000180025ebc     tryblks.obj
 0002:00009ebc       $stateUnwindMap$_wrap_catchvec_t_resize__SWIG_0 0000000180025ebc     tryblks.obj
 0002:00009ebc       $stateUnwindMap$_wrap_tryblks_t_begin__SWIG_0 0000000180025ebc     tryblks.obj
 0002:00009ebc       $stateUnwindMap$_wrap_tryblks_t_pop_back 0000000180025ebc     tryblks.obj
 0002:00009ebc       $stateUnwindMap$_wrap_catchvec_t_clear 0000000180025ebc     tryblks.obj
 0002:00009ebc       $stateUnwindMap$_wrap_catchvec_t_qclear 0000000180025ebc     tryblks.obj
 0002:00009ebc       $stateUnwindMap$_wrap_tryblks_t_end__SWIG_0 0000000180025ebc     tryblks.obj
 0002:00009ebc       $stateUnwindMap$_wrap_catchvec_t_at 0000000180025ebc     tryblks.obj
 0002:00009ebc       $stateUnwindMap$_wrap_tryblks_t_push_back__SWIG_0 0000000180025ebc     tryblks.obj
 0002:00009ebc       $stateUnwindMap$_wrap_tryblks_t_push_back__SWIG_1 0000000180025ebc     tryblks.obj
 0002:00009ebc       $stateUnwindMap$_wrap_tryblks_t_begin__SWIG_1 0000000180025ebc     tryblks.obj
 0002:00009ebc       $stateUnwindMap$_wrap_catchvec_t_empty 0000000180025ebc     tryblks.obj
 0002:00009ebc       $stateUnwindMap$_wrap_delete_tryblk_t 0000000180025ebc     tryblks.obj
 0002:00009ecc       $tryMap$_wrap_new_tryblks_t__SWIG_0 0000000180025ecc     tryblks.obj
 0002:00009ee0       $handlerMap$0$_wrap_new_tryblks_t__SWIG_0 0000000180025ee0     tryblks.obj
 0002:00009f58       $ip2state$_wrap_new_tryblks_t__SWIG_0 0000000180025f58     tryblks.obj
 0002:00009f70       $unwind$_wrap_new_tryblks_t__SWIG_0$catch$3 0000000180025f70     tryblks.obj
 0002:00009f70       $unwind$_wrap_new_tryblks_t__SWIG_0$catch$1 0000000180025f70     tryblks.obj
 0002:00009f70       $unwind$_wrap_new_tryblks_t__SWIG_0$catch$2 0000000180025f70     tryblks.obj
 0002:00009f70       $unwind$_wrap_new_tryblks_t__SWIG_0$catch$6 0000000180025f70     tryblks.obj
 0002:00009f70       $unwind$_wrap_new_tryblks_t__SWIG_0$catch$5 0000000180025f70     tryblks.obj
 0002:00009f70       $unwind$_wrap_new_tryblks_t__SWIG_0$catch$4 0000000180025f70     tryblks.obj
 0002:00009f80       $unwind$_wrap_new_tryblks_t__SWIG_1 0000000180025f80     tryblks.obj
 0002:00009fa0       $tryMap$_wrap_new_tryblks_t__SWIG_1 0000000180025fa0     tryblks.obj
 0002:00009fb4       $handlerMap$0$_wrap_new_tryblks_t__SWIG_1 0000000180025fb4     tryblks.obj
 0002:0000a030       $ip2state$_wrap_new_tryblks_t__SWIG_1 0000000180026030     tryblks.obj
 0002:0000a050       $unwind$_wrap_new_tryblks_t__SWIG_1$catch$1 0000000180026050     tryblks.obj
 0002:0000a050       $unwind$_wrap_new_tryblks_t__SWIG_1$catch$2 0000000180026050     tryblks.obj
 0002:0000a050       $unwind$_wrap_new_tryblks_t__SWIG_1$catch$6 0000000180026050     tryblks.obj
 0002:0000a050       $unwind$_wrap_new_tryblks_t__SWIG_1$catch$5 0000000180026050     tryblks.obj
 0002:0000a050       $unwind$_wrap_new_tryblks_t__SWIG_1$catch$4 0000000180026050     tryblks.obj
 0002:0000a050       $unwind$_wrap_new_tryblks_t__SWIG_1$catch$3 0000000180026050     tryblks.obj
 0002:0000a060       $unwind$_wrap_new_tryblk_t 0000000180026060     tryblks.obj
 0002:0000a060       $unwind$_wrap_new_tryblks_t 0000000180026060     tryblks.obj
 0002:0000a060       $unwind$_wrap_new_catchvec_t 0000000180026060     tryblks.obj
 0002:0000a078       $unwind$_wrap_delete_tryblks_t 0000000180026078     tryblks.obj
 0002:0000a098       $tryMap$_wrap_delete_tryblks_t 0000000180026098     tryblks.obj
 0002:0000a0ac       $handlerMap$0$_wrap_delete_tryblks_t 00000001800260ac     tryblks.obj
 0002:0000a128       $ip2state$_wrap_delete_tryblks_t 0000000180026128     tryblks.obj
 0002:0000a148       $unwind$_wrap_delete_tryblks_t$catch$1 0000000180026148     tryblks.obj
 0002:0000a148       $unwind$_wrap_delete_tryblks_t$catch$0 0000000180026148     tryblks.obj
 0002:0000a148       $unwind$_wrap_delete_tryblks_t$catch$2 0000000180026148     tryblks.obj
 0002:0000a148       $unwind$_wrap_delete_tryblks_t$catch$5 0000000180026148     tryblks.obj
 0002:0000a148       $unwind$_wrap_delete_tryblks_t$catch$4 0000000180026148     tryblks.obj
 0002:0000a148       $unwind$_wrap_delete_tryblks_t$catch$3 0000000180026148     tryblks.obj
 0002:0000a158       $unwind$_wrap_tryblks_t_push_back__SWIG_0 0000000180026158     tryblks.obj
 0002:0000a178       $tryMap$_wrap_tryblks_t_push_back__SWIG_0 0000000180026178     tryblks.obj
 0002:0000a18c       $handlerMap$0$_wrap_tryblks_t_push_back__SWIG_0 000000018002618c     tryblks.obj
 0002:0000a208       $ip2state$_wrap_tryblks_t_push_back__SWIG_0 0000000180026208     tryblks.obj
 0002:0000a230       $unwind$_wrap_tryblks_t_push_back__SWIG_0$catch$1 0000000180026230     tryblks.obj
 0002:0000a230       $unwind$_wrap_tryblks_t_push_back__SWIG_0$catch$2 0000000180026230     tryblks.obj
 0002:0000a230       $unwind$_wrap_tryblks_t_push_back__SWIG_0$catch$3 0000000180026230     tryblks.obj
 0002:0000a230       $unwind$_wrap_tryblks_t_push_back__SWIG_0$catch$5 0000000180026230     tryblks.obj
 0002:0000a230       $unwind$_wrap_tryblks_t_push_back__SWIG_0$catch$4 0000000180026230     tryblks.obj
 0002:0000a230       $unwind$_wrap_tryblks_t_push_back__SWIG_0$catch$0 0000000180026230     tryblks.obj
 0002:0000a240       $unwind$_wrap_tryblks_t_push_back__SWIG_1 0000000180026240     tryblks.obj
 0002:0000a260       $tryMap$_wrap_tryblks_t_push_back__SWIG_1 0000000180026260     tryblks.obj
 0002:0000a274       $handlerMap$0$_wrap_tryblks_t_push_back__SWIG_1 0000000180026274     tryblks.obj
 0002:0000a2f0       $ip2state$_wrap_tryblks_t_push_back__SWIG_1 00000001800262f0     tryblks.obj
 0002:0000a310       $unwind$_wrap_tryblks_t_push_back__SWIG_1$catch$5 0000000180026310     tryblks.obj
 0002:0000a310       $unwind$_wrap_tryblks_t_push_back__SWIG_1$catch$6 0000000180026310     tryblks.obj
 0002:0000a310       $unwind$_wrap_tryblks_t_push_back__SWIG_1$catch$3 0000000180026310     tryblks.obj
 0002:0000a310       $unwind$_wrap_tryblks_t_push_back__SWIG_1$catch$7 0000000180026310     tryblks.obj
 0002:0000a310       $unwind$_wrap_tryblks_t_push_back__SWIG_1$catch$4 0000000180026310     tryblks.obj
 0002:0000a310       $unwind$_wrap_tryblks_t_push_back__SWIG_1$catch$2 0000000180026310     tryblks.obj
 0002:0000a320       $unwind$_wrap_tryblks_t_find 0000000180026320     tryblks.obj
 0002:0000a320       $unwind$_wrap_catchvec_t_find 0000000180026320     tryblks.obj
 0002:0000a320       $unwind$_wrap_tryblks_t_push_back 0000000180026320     tryblks.obj
 0002:0000a320       $unwind$_wrap_catchvec_t_push_back 0000000180026320     tryblks.obj
 0002:0000a340       $unwind$_wrap_tryblks_t_pop_back 0000000180026340     tryblks.obj
 0002:0000a35c       $tryMap$_wrap_tryblks_t_pop_back 000000018002635c     tryblks.obj
 0002:0000a370       $handlerMap$0$_wrap_tryblks_t_pop_back 0000000180026370     tryblks.obj
 0002:0000a3e8       $ip2state$_wrap_tryblks_t_pop_back 00000001800263e8     tryblks.obj
 0002:0000a408       $unwind$_wrap_tryblks_t_pop_back$catch$5 0000000180026408     tryblks.obj
 0002:0000a408       $unwind$_wrap_tryblks_t_pop_back$catch$6 0000000180026408     tryblks.obj
 0002:0000a408       $unwind$_wrap_tryblks_t_pop_back$catch$7 0000000180026408     tryblks.obj
 0002:0000a408       $unwind$_wrap_tryblks_t_pop_back$catch$2 0000000180026408     tryblks.obj
 0002:0000a408       $unwind$_wrap_tryblks_t_pop_back$catch$4 0000000180026408     tryblks.obj
 0002:0000a408       $unwind$_wrap_tryblks_t_pop_back$catch$3 0000000180026408     tryblks.obj
 0002:0000a418       $unwind$_wrap_tryblks_t_size 0000000180026418     tryblks.obj
 0002:0000a434       $tryMap$_wrap_tryblks_t_size 0000000180026434     tryblks.obj
 0002:0000a448       $handlerMap$0$_wrap_tryblks_t_size 0000000180026448     tryblks.obj
 0002:0000a4c0       $ip2state$_wrap_tryblks_t_size 00000001800264c0     tryblks.obj
 0002:0000a4e0       $unwind$_wrap_tryblks_t_size$catch$4 00000001800264e0     tryblks.obj
 0002:0000a4e0       $unwind$_wrap_tryblks_t_size$catch$0 00000001800264e0     tryblks.obj
 0002:0000a4e0       $unwind$_wrap_tryblks_t_size$catch$1 00000001800264e0     tryblks.obj
 0002:0000a4e0       $unwind$_wrap_tryblks_t_size$catch$3 00000001800264e0     tryblks.obj
 0002:0000a4e0       $unwind$_wrap_tryblks_t_size$catch$2 00000001800264e0     tryblks.obj
 0002:0000a4e0       $unwind$_wrap_tryblks_t_size$catch$5 00000001800264e0     tryblks.obj
 0002:0000a4f0       $unwind$_wrap_tryblks_t_empty 00000001800264f0     tryblks.obj
 0002:0000a510       $tryMap$_wrap_tryblks_t_empty 0000000180026510     tryblks.obj
 0002:0000a524       $handlerMap$0$_wrap_tryblks_t_empty 0000000180026524     tryblks.obj
 0002:0000a5a0       $ip2state$_wrap_tryblks_t_empty 00000001800265a0     tryblks.obj
 0002:0000a5c0       $unwind$_wrap_tryblks_t_empty$catch$4 00000001800265c0     tryblks.obj
 0002:0000a5c0       $unwind$_wrap_tryblks_t_empty$catch$0 00000001800265c0     tryblks.obj
 0002:0000a5c0       $unwind$_wrap_tryblks_t_empty$catch$1 00000001800265c0     tryblks.obj
 0002:0000a5c0       $unwind$_wrap_tryblks_t_empty$catch$2 00000001800265c0     tryblks.obj
 0002:0000a5c0       $unwind$_wrap_tryblks_t_empty$catch$5 00000001800265c0     tryblks.obj
 0002:0000a5c0       $unwind$_wrap_tryblks_t_empty$catch$3 00000001800265c0     tryblks.obj
 0002:0000a5d0       $unwind$_wrap_tryblks_t_at 00000001800265d0     tryblks.obj
 0002:0000a5ec       $tryMap$_wrap_tryblks_t_at 00000001800265ec     tryblks.obj
 0002:0000a600       $handlerMap$0$_wrap_tryblks_t_at 0000000180026600     tryblks.obj
 0002:0000a678       $ip2state$_wrap_tryblks_t_at 0000000180026678     tryblks.obj
 0002:0000a698       $unwind$_wrap_tryblks_t_at$catch$0 0000000180026698     tryblks.obj
 0002:0000a698       $unwind$_wrap_tryblks_t_at$catch$3 0000000180026698     tryblks.obj
 0002:0000a698       $unwind$_wrap_tryblks_t_at$catch$4 0000000180026698     tryblks.obj
 0002:0000a698       $unwind$_wrap_tryblks_t_at$catch$5 0000000180026698     tryblks.obj
 0002:0000a698       $unwind$_wrap_tryblks_t_at$catch$2 0000000180026698     tryblks.obj
 0002:0000a698       $unwind$_wrap_tryblks_t_at$catch$1 0000000180026698     tryblks.obj
 0002:0000a6a8       $unwind$_wrap_tryblks_t_qclear 00000001800266a8     tryblks.obj
 0002:0000a6c4       $tryMap$_wrap_tryblks_t_qclear 00000001800266c4     tryblks.obj
 0002:0000a6d8       $handlerMap$0$_wrap_tryblks_t_qclear 00000001800266d8     tryblks.obj
 0002:0000a750       $ip2state$_wrap_tryblks_t_qclear 0000000180026750     tryblks.obj
 0002:0000a770       $unwind$_wrap_tryblks_t_qclear$catch$1 0000000180026770     tryblks.obj
 0002:0000a770       $unwind$_wrap_tryblks_t_qclear$catch$0 0000000180026770     tryblks.obj
 0002:0000a770       $unwind$_wrap_tryblks_t_qclear$catch$2 0000000180026770     tryblks.obj
 0002:0000a770       $unwind$_wrap_tryblks_t_qclear$catch$4 0000000180026770     tryblks.obj
 0002:0000a770       $unwind$_wrap_tryblks_t_qclear$catch$5 0000000180026770     tryblks.obj
 0002:0000a770       $unwind$_wrap_tryblks_t_qclear$catch$3 0000000180026770     tryblks.obj
 0002:0000a780       $unwind$_wrap_tryblks_t_clear 0000000180026780     tryblks.obj
 0002:0000a79c       $tryMap$_wrap_tryblks_t_clear 000000018002679c     tryblks.obj
 0002:0000a7b0       $handlerMap$0$_wrap_tryblks_t_clear 00000001800267b0     tryblks.obj
 0002:0000a828       $ip2state$_wrap_tryblks_t_clear 0000000180026828     tryblks.obj
 0002:0000a848       $unwind$_wrap_tryblks_t_clear$catch$5 0000000180026848     tryblks.obj
 0002:0000a848       $unwind$_wrap_tryblks_t_clear$catch$1 0000000180026848     tryblks.obj
 0002:0000a848       $unwind$_wrap_tryblks_t_clear$catch$2 0000000180026848     tryblks.obj
 0002:0000a848       $unwind$_wrap_tryblks_t_clear$catch$0 0000000180026848     tryblks.obj
 0002:0000a848       $unwind$_wrap_tryblks_t_clear$catch$3 0000000180026848     tryblks.obj
 0002:0000a848       $unwind$_wrap_tryblks_t_clear$catch$4 0000000180026848     tryblks.obj
 0002:0000a858       $unwind$_wrap_tryblks_t_resize__SWIG_0 0000000180026858     tryblks.obj
 0002:0000a878       $tryMap$_wrap_tryblks_t_resize__SWIG_0 0000000180026878     tryblks.obj
 0002:0000a88c       $handlerMap$0$_wrap_tryblks_t_resize__SWIG_0 000000018002688c     tryblks.obj
 0002:0000a908       $ip2state$_wrap_tryblks_t_resize__SWIG_0 0000000180026908     tryblks.obj
 0002:0000a930       $unwind$_wrap_tryblks_t_resize__SWIG_0$catch$1 0000000180026930     tryblks.obj
 0002:0000a930       $unwind$_wrap_tryblks_t_resize__SWIG_0$catch$0 0000000180026930     tryblks.obj
 0002:0000a930       $unwind$_wrap_tryblks_t_resize__SWIG_0$catch$5 0000000180026930     tryblks.obj
 0002:0000a930       $unwind$_wrap_tryblks_t_resize__SWIG_0$catch$4 0000000180026930     tryblks.obj
 0002:0000a930       $unwind$_wrap_tryblks_t_resize__SWIG_0$catch$3 0000000180026930     tryblks.obj
 0002:0000a930       $unwind$_wrap_tryblks_t_resize__SWIG_0$catch$2 0000000180026930     tryblks.obj
 0002:0000a940       $unwind$_wrap_tryblks_t_resize__SWIG_1 0000000180026940     tryblks.obj
 0002:0000a964       $tryMap$_wrap_tryblks_t_resize__SWIG_1 0000000180026964     tryblks.obj
 0002:0000a978       $handlerMap$0$_wrap_tryblks_t_resize__SWIG_1 0000000180026978     tryblks.obj
 0002:0000a9f0       $ip2state$_wrap_tryblks_t_resize__SWIG_1 00000001800269f0     tryblks.obj
 0002:0000aa10       $unwind$_wrap_tryblks_t_resize__SWIG_1$catch$7 0000000180026a10     tryblks.obj
 0002:0000aa10       $unwind$_wrap_tryblks_t_resize__SWIG_1$catch$8 0000000180026a10     tryblks.obj
 0002:0000aa10       $unwind$_wrap_tryblks_t_resize__SWIG_1$catch$6 0000000180026a10     tryblks.obj
 0002:0000aa10       $unwind$_wrap_tryblks_t_resize__SWIG_1$catch$4 0000000180026a10     tryblks.obj
 0002:0000aa10       $unwind$_wrap_tryblks_t_resize__SWIG_1$catch$9 0000000180026a10     tryblks.obj
 0002:0000aa10       $unwind$_wrap_tryblks_t_resize__SWIG_1$catch$5 0000000180026a10     tryblks.obj
 0002:0000aa20       $unwind$_wrap_catchvec_t_resize 0000000180026a20     tryblks.obj
 0002:0000aa20       $unwind$_wrap_tryblks_t_resize 0000000180026a20     tryblks.obj
 0002:0000aa40       $unwind$_wrap_tryblks_t_grow 0000000180026a40     tryblks.obj
 0002:0000aa68       $stateUnwindMap$_wrap_tryblks_t_grow 0000000180026a68     tryblks.obj
 0002:0000aa80       $tryMap$_wrap_tryblks_t_grow 0000000180026a80     tryblks.obj
 0002:0000aa94       $handlerMap$0$_wrap_tryblks_t_grow 0000000180026a94     tryblks.obj
 0002:0000ab10       $ip2state$_wrap_tryblks_t_grow 0000000180026b10     tryblks.obj
 0002:0000ab40       $unwind$_wrap_tryblks_t_grow$catch$9 0000000180026b40     tryblks.obj
 0002:0000ab40       $unwind$_wrap_tryblks_t_grow$catch$10 0000000180026b40     tryblks.obj
 0002:0000ab40       $unwind$_wrap_tryblks_t_grow$catch$11 0000000180026b40     tryblks.obj
 0002:0000ab40       $unwind$_wrap_tryblks_t_grow$catch$7 0000000180026b40     tryblks.obj
 0002:0000ab40       $unwind$_wrap_tryblks_t_grow$catch$8 0000000180026b40     tryblks.obj
 0002:0000ab40       $unwind$_wrap_tryblks_t_grow$catch$12 0000000180026b40     tryblks.obj
 0002:0000ab50       $unwind$_wrap_tryblks_t_capacity 0000000180026b50     tryblks.obj
 0002:0000ab6c       $tryMap$_wrap_tryblks_t_capacity 0000000180026b6c     tryblks.obj
 0002:0000ab80       $handlerMap$0$_wrap_tryblks_t_capacity 0000000180026b80     tryblks.obj
 0002:0000abf8       $ip2state$_wrap_tryblks_t_capacity 0000000180026bf8     tryblks.obj
 0002:0000ac18       $unwind$_wrap_tryblks_t_capacity$catch$4 0000000180026c18     tryblks.obj
 0002:0000ac18       $unwind$_wrap_tryblks_t_capacity$catch$1 0000000180026c18     tryblks.obj
 0002:0000ac18       $unwind$_wrap_tryblks_t_capacity$catch$0 0000000180026c18     tryblks.obj
 0002:0000ac18       $unwind$_wrap_tryblks_t_capacity$catch$5 0000000180026c18     tryblks.obj
 0002:0000ac18       $unwind$_wrap_tryblks_t_capacity$catch$2 0000000180026c18     tryblks.obj
 0002:0000ac18       $unwind$_wrap_tryblks_t_capacity$catch$3 0000000180026c18     tryblks.obj
 0002:0000ac28       $unwind$_wrap_tryblks_t_reserve 0000000180026c28     tryblks.obj
 0002:0000ac44       $tryMap$_wrap_tryblks_t_reserve 0000000180026c44     tryblks.obj
 0002:0000ac58       $handlerMap$0$_wrap_tryblks_t_reserve 0000000180026c58     tryblks.obj
 0002:0000acd0       $ip2state$_wrap_tryblks_t_reserve 0000000180026cd0     tryblks.obj
 0002:0000acf0       $unwind$_wrap_tryblks_t_reserve$catch$7 0000000180026cf0     tryblks.obj
 0002:0000acf0       $unwind$_wrap_tryblks_t_reserve$catch$3 0000000180026cf0     tryblks.obj
 0002:0000acf0       $unwind$_wrap_tryblks_t_reserve$catch$6 0000000180026cf0     tryblks.obj
 0002:0000acf0       $unwind$_wrap_tryblks_t_reserve$catch$2 0000000180026cf0     tryblks.obj
 0002:0000acf0       $unwind$_wrap_tryblks_t_reserve$catch$5 0000000180026cf0     tryblks.obj
 0002:0000acf0       $unwind$_wrap_tryblks_t_reserve$catch$4 0000000180026cf0     tryblks.obj
 0002:0000ad00       $unwind$_wrap_tryblks_t_truncate 0000000180026d00     tryblks.obj
 0002:0000ad1c       $tryMap$_wrap_tryblks_t_truncate 0000000180026d1c     tryblks.obj
 0002:0000ad30       $handlerMap$0$_wrap_tryblks_t_truncate 0000000180026d30     tryblks.obj
 0002:0000ada8       $ip2state$_wrap_tryblks_t_truncate 0000000180026da8     tryblks.obj
 0002:0000adc8       $unwind$_wrap_tryblks_t_truncate$catch$2 0000000180026dc8     tryblks.obj
 0002:0000adc8       $unwind$_wrap_tryblks_t_truncate$catch$4 0000000180026dc8     tryblks.obj
 0002:0000adc8       $unwind$_wrap_tryblks_t_truncate$catch$1 0000000180026dc8     tryblks.obj
 0002:0000adc8       $unwind$_wrap_tryblks_t_truncate$catch$5 0000000180026dc8     tryblks.obj
 0002:0000adc8       $unwind$_wrap_tryblks_t_truncate$catch$3 0000000180026dc8     tryblks.obj
 0002:0000adc8       $unwind$_wrap_tryblks_t_truncate$catch$0 0000000180026dc8     tryblks.obj
 0002:0000add8       $unwind$_wrap_tryblks_t_swap 0000000180026dd8     tryblks.obj
 0002:0000adf8       $tryMap$_wrap_tryblks_t_swap 0000000180026df8     tryblks.obj
 0002:0000ae0c       $handlerMap$0$_wrap_tryblks_t_swap 0000000180026e0c     tryblks.obj
 0002:0000ae88       $ip2state$_wrap_tryblks_t_swap 0000000180026e88     tryblks.obj
 0002:0000aeb0       $unwind$_wrap_tryblks_t_swap$catch$5 0000000180026eb0     tryblks.obj
 0002:0000aeb0       $unwind$_wrap_tryblks_t_swap$catch$3 0000000180026eb0     tryblks.obj
 0002:0000aeb0       $unwind$_wrap_tryblks_t_swap$catch$2 0000000180026eb0     tryblks.obj
 0002:0000aeb0       $unwind$_wrap_tryblks_t_swap$catch$1 0000000180026eb0     tryblks.obj
 0002:0000aeb0       $unwind$_wrap_tryblks_t_swap$catch$4 0000000180026eb0     tryblks.obj
 0002:0000aeb0       $unwind$_wrap_tryblks_t_swap$catch$0 0000000180026eb0     tryblks.obj
 0002:0000aec0       $unwind$_wrap_tryblks_t_extract 0000000180026ec0     tryblks.obj
 0002:0000aee0       $tryMap$_wrap_tryblks_t_extract 0000000180026ee0     tryblks.obj
 0002:0000aef4       $handlerMap$0$_wrap_tryblks_t_extract 0000000180026ef4     tryblks.obj
 0002:0000af70       $ip2state$_wrap_tryblks_t_extract 0000000180026f70     tryblks.obj
 0002:0000af90       $unwind$_wrap_tryblks_t_extract$catch$3 0000000180026f90     tryblks.obj
 0002:0000af90       $unwind$_wrap_tryblks_t_extract$catch$0 0000000180026f90     tryblks.obj
 0002:0000af90       $unwind$_wrap_tryblks_t_extract$catch$2 0000000180026f90     tryblks.obj
 0002:0000af90       $unwind$_wrap_tryblks_t_extract$catch$4 0000000180026f90     tryblks.obj
 0002:0000af90       $unwind$_wrap_tryblks_t_extract$catch$5 0000000180026f90     tryblks.obj
 0002:0000af90       $unwind$_wrap_tryblks_t_extract$catch$1 0000000180026f90     tryblks.obj
 0002:0000afa0       $unwind$_wrap_tryblks_t_inject 0000000180026fa0     tryblks.obj
 0002:0000afc8       $tryMap$_wrap_tryblks_t_inject 0000000180026fc8     tryblks.obj
 0002:0000afdc       $handlerMap$0$_wrap_tryblks_t_inject 0000000180026fdc     tryblks.obj
 0002:0000b058       $ip2state$_wrap_tryblks_t_inject 0000000180027058     tryblks.obj
 0002:0000b088       $unwind$_wrap_tryblks_t_inject$catch$1 0000000180027088     tryblks.obj
 0002:0000b088       $unwind$_wrap_tryblks_t_inject$catch$5 0000000180027088     tryblks.obj
 0002:0000b088       $unwind$_wrap_tryblks_t_inject$catch$4 0000000180027088     tryblks.obj
 0002:0000b088       $unwind$_wrap_tryblks_t_inject$catch$3 0000000180027088     tryblks.obj
 0002:0000b088       $unwind$_wrap_tryblks_t_inject$catch$2 0000000180027088     tryblks.obj
 0002:0000b088       $unwind$_wrap_tryblks_t_inject$catch$0 0000000180027088     tryblks.obj
 0002:0000b098       $unwind$_wrap_tryblks_t___eq__ 0000000180027098     tryblks.obj
 0002:0000b0b8       $tryMap$_wrap_tryblks_t___eq__ 00000001800270b8     tryblks.obj
 0002:0000b0cc       $handlerMap$0$_wrap_tryblks_t___eq__ 00000001800270cc     tryblks.obj
 0002:0000b148       $ip2state$_wrap_tryblks_t___eq__ 0000000180027148     tryblks.obj
 0002:0000b170       $unwind$_wrap_tryblks_t___eq__$catch$5 0000000180027170     tryblks.obj
 0002:0000b170       $unwind$_wrap_tryblks_t___eq__$catch$4 0000000180027170     tryblks.obj
 0002:0000b170       $unwind$_wrap_tryblks_t___eq__$catch$3 0000000180027170     tryblks.obj
 0002:0000b170       $unwind$_wrap_tryblks_t___eq__$catch$1 0000000180027170     tryblks.obj
 0002:0000b170       $unwind$_wrap_tryblks_t___eq__$catch$0 0000000180027170     tryblks.obj
 0002:0000b170       $unwind$_wrap_tryblks_t___eq__$catch$2 0000000180027170     tryblks.obj
 0002:0000b180       $unwind$_wrap_tryblks_t___ne__ 0000000180027180     tryblks.obj
 0002:0000b1a0       $tryMap$_wrap_tryblks_t___ne__ 00000001800271a0     tryblks.obj
 0002:0000b1b4       $handlerMap$0$_wrap_tryblks_t___ne__ 00000001800271b4     tryblks.obj
 0002:0000b230       $ip2state$_wrap_tryblks_t___ne__ 0000000180027230     tryblks.obj
 0002:0000b258       $unwind$_wrap_tryblks_t___ne__$catch$5 0000000180027258     tryblks.obj
 0002:0000b258       $unwind$_wrap_tryblks_t___ne__$catch$0 0000000180027258     tryblks.obj
 0002:0000b258       $unwind$_wrap_tryblks_t___ne__$catch$3 0000000180027258     tryblks.obj
 0002:0000b258       $unwind$_wrap_tryblks_t___ne__$catch$2 0000000180027258     tryblks.obj
 0002:0000b258       $unwind$_wrap_tryblks_t___ne__$catch$1 0000000180027258     tryblks.obj
 0002:0000b258       $unwind$_wrap_tryblks_t___ne__$catch$4 0000000180027258     tryblks.obj
 0002:0000b268       $unwind$_wrap_tryblks_t_begin__SWIG_0 0000000180027268     tryblks.obj
 0002:0000b284       $tryMap$_wrap_tryblks_t_begin__SWIG_0 0000000180027284     tryblks.obj
 0002:0000b298       $handlerMap$0$_wrap_tryblks_t_begin__SWIG_0 0000000180027298     tryblks.obj
 0002:0000b310       $ip2state$_wrap_tryblks_t_begin__SWIG_0 0000000180027310     tryblks.obj
 0002:0000b330       $unwind$_wrap_tryblks_t_begin__SWIG_0$catch$0 0000000180027330     tryblks.obj
 0002:0000b330       $unwind$_wrap_tryblks_t_begin__SWIG_0$catch$4 0000000180027330     tryblks.obj
 0002:0000b330       $unwind$_wrap_tryblks_t_begin__SWIG_0$catch$5 0000000180027330     tryblks.obj
 0002:0000b330       $unwind$_wrap_tryblks_t_begin__SWIG_0$catch$1 0000000180027330     tryblks.obj
 0002:0000b330       $unwind$_wrap_tryblks_t_begin__SWIG_0$catch$2 0000000180027330     tryblks.obj
 0002:0000b330       $unwind$_wrap_tryblks_t_begin__SWIG_0$catch$3 0000000180027330     tryblks.obj
 0002:0000b340       $unwind$_wrap_tryblks_t_end__SWIG_0 0000000180027340     tryblks.obj
 0002:0000b35c       $tryMap$_wrap_tryblks_t_end__SWIG_0 000000018002735c     tryblks.obj
 0002:0000b370       $handlerMap$0$_wrap_tryblks_t_end__SWIG_0 0000000180027370     tryblks.obj
 0002:0000b3e8       $ip2state$_wrap_tryblks_t_end__SWIG_0 00000001800273e8     tryblks.obj
 0002:0000b408       $unwind$_wrap_tryblks_t_end__SWIG_0$catch$5 0000000180027408     tryblks.obj
 0002:0000b408       $unwind$_wrap_tryblks_t_end__SWIG_0$catch$0 0000000180027408     tryblks.obj
 0002:0000b408       $unwind$_wrap_tryblks_t_end__SWIG_0$catch$3 0000000180027408     tryblks.obj
 0002:0000b408       $unwind$_wrap_tryblks_t_end__SWIG_0$catch$1 0000000180027408     tryblks.obj
 0002:0000b408       $unwind$_wrap_tryblks_t_end__SWIG_0$catch$2 0000000180027408     tryblks.obj
 0002:0000b408       $unwind$_wrap_tryblks_t_end__SWIG_0$catch$4 0000000180027408     tryblks.obj
 0002:0000b418       $unwind$_wrap_tryblks_t_begin__SWIG_1 0000000180027418     tryblks.obj
 0002:0000b434       $tryMap$_wrap_tryblks_t_begin__SWIG_1 0000000180027434     tryblks.obj
 0002:0000b448       $handlerMap$0$_wrap_tryblks_t_begin__SWIG_1 0000000180027448     tryblks.obj
 0002:0000b4c0       $ip2state$_wrap_tryblks_t_begin__SWIG_1 00000001800274c0     tryblks.obj
 0002:0000b4e0       $unwind$_wrap_tryblks_t_begin__SWIG_1$catch$4 00000001800274e0     tryblks.obj
 0002:0000b4e0       $unwind$_wrap_tryblks_t_begin__SWIG_1$catch$1 00000001800274e0     tryblks.obj
 0002:0000b4e0       $unwind$_wrap_tryblks_t_begin__SWIG_1$catch$2 00000001800274e0     tryblks.obj
 0002:0000b4e0       $unwind$_wrap_tryblks_t_begin__SWIG_1$catch$3 00000001800274e0     tryblks.obj
 0002:0000b4e0       $unwind$_wrap_tryblks_t_begin__SWIG_1$catch$0 00000001800274e0     tryblks.obj
 0002:0000b4e0       $unwind$_wrap_tryblks_t_begin__SWIG_1$catch$5 00000001800274e0     tryblks.obj
 0002:0000b4f0       $unwind$_wrap_tryblks_t_begin 00000001800274f0     tryblks.obj
 0002:0000b4f0       $unwind$_wrap_tryblks_t_end 00000001800274f0     tryblks.obj
 0002:0000b4f0       $unwind$_wrap_catchvec_t_end 00000001800274f0     tryblks.obj
 0002:0000b4f0       $unwind$_wrap_catchvec_t_begin 00000001800274f0     tryblks.obj
 0002:0000b504       $unwind$_wrap_tryblks_t_end__SWIG_1 0000000180027504     tryblks.obj
 0002:0000b520       $tryMap$_wrap_tryblks_t_end__SWIG_1 0000000180027520     tryblks.obj
 0002:0000b534       $handlerMap$0$_wrap_tryblks_t_end__SWIG_1 0000000180027534     tryblks.obj
 0002:0000b5b0       $ip2state$_wrap_tryblks_t_end__SWIG_1 00000001800275b0     tryblks.obj
 0002:0000b5d0       $unwind$_wrap_tryblks_t_end__SWIG_1$catch$3 00000001800275d0     tryblks.obj
 0002:0000b5d0       $unwind$_wrap_tryblks_t_end__SWIG_1$catch$0 00000001800275d0     tryblks.obj
 0002:0000b5d0       $unwind$_wrap_tryblks_t_end__SWIG_1$catch$1 00000001800275d0     tryblks.obj
 0002:0000b5d0       $unwind$_wrap_tryblks_t_end__SWIG_1$catch$2 00000001800275d0     tryblks.obj
 0002:0000b5d0       $unwind$_wrap_tryblks_t_end__SWIG_1$catch$5 00000001800275d0     tryblks.obj
 0002:0000b5d0       $unwind$_wrap_tryblks_t_end__SWIG_1$catch$4 00000001800275d0     tryblks.obj
 0002:0000b5e0       $unwind$_wrap_tryblks_t_insert 00000001800275e0     tryblks.obj
 0002:0000b608       $tryMap$_wrap_tryblks_t_insert 0000000180027608     tryblks.obj
 0002:0000b61c       $handlerMap$0$_wrap_tryblks_t_insert 000000018002761c     tryblks.obj
 0002:0000b698       $ip2state$_wrap_tryblks_t_insert 0000000180027698     tryblks.obj
 0002:0000b6c8       $unwind$_wrap_tryblks_t_insert$catch$4 00000001800276c8     tryblks.obj
 0002:0000b6c8       $unwind$_wrap_tryblks_t_insert$catch$7 00000001800276c8     tryblks.obj
 0002:0000b6c8       $unwind$_wrap_tryblks_t_insert$catch$8 00000001800276c8     tryblks.obj
 0002:0000b6c8       $unwind$_wrap_tryblks_t_insert$catch$9 00000001800276c8     tryblks.obj
 0002:0000b6c8       $unwind$_wrap_tryblks_t_insert$catch$6 00000001800276c8     tryblks.obj
 0002:0000b6c8       $unwind$_wrap_tryblks_t_insert$catch$5 00000001800276c8     tryblks.obj
 0002:0000b6d8       $unwind$_wrap_tryblks_t_erase__SWIG_0 00000001800276d8     tryblks.obj
 0002:0000b6f8       $tryMap$_wrap_tryblks_t_erase__SWIG_0 00000001800276f8     tryblks.obj
 0002:0000b70c       $handlerMap$0$_wrap_tryblks_t_erase__SWIG_0 000000018002770c     tryblks.obj
 0002:0000b788       $ip2state$_wrap_tryblks_t_erase__SWIG_0 0000000180027788     tryblks.obj
 0002:0000b7b0       $unwind$_wrap_tryblks_t_erase__SWIG_0$catch$2 00000001800277b0     tryblks.obj
 0002:0000b7b0       $unwind$_wrap_tryblks_t_erase__SWIG_0$catch$5 00000001800277b0     tryblks.obj
 0002:0000b7b0       $unwind$_wrap_tryblks_t_erase__SWIG_0$catch$4 00000001800277b0     tryblks.obj
 0002:0000b7b0       $unwind$_wrap_tryblks_t_erase__SWIG_0$catch$3 00000001800277b0     tryblks.obj
 0002:0000b7b0       $unwind$_wrap_tryblks_t_erase__SWIG_0$catch$1 00000001800277b0     tryblks.obj
 0002:0000b7b0       $unwind$_wrap_tryblks_t_erase__SWIG_0$catch$0 00000001800277b0     tryblks.obj
 0002:0000b7c0       $unwind$_wrap_tryblks_t_erase__SWIG_1 00000001800277c0     tryblks.obj
 0002:0000b7dc       $tryMap$_wrap_tryblks_t_erase__SWIG_1 00000001800277dc     tryblks.obj
 0002:0000b7f0       $handlerMap$0$_wrap_tryblks_t_erase__SWIG_1 00000001800277f0     tryblks.obj
 0002:0000b868       $ip2state$_wrap_tryblks_t_erase__SWIG_1 0000000180027868     tryblks.obj
 0002:0000b898       $unwind$_wrap_tryblks_t_erase__SWIG_1$catch$6 0000000180027898     tryblks.obj
 0002:0000b898       $unwind$_wrap_tryblks_t_erase__SWIG_1$catch$9 0000000180027898     tryblks.obj
 0002:0000b898       $unwind$_wrap_tryblks_t_erase__SWIG_1$catch$8 0000000180027898     tryblks.obj
 0002:0000b898       $unwind$_wrap_tryblks_t_erase__SWIG_1$catch$7 0000000180027898     tryblks.obj
 0002:0000b898       $unwind$_wrap_tryblks_t_erase__SWIG_1$catch$5 0000000180027898     tryblks.obj
 0002:0000b898       $unwind$_wrap_tryblks_t_erase__SWIG_1$catch$4 0000000180027898     tryblks.obj
 0002:0000b8a8       $unwind$_wrap_catchvec_t_erase 00000001800278a8     tryblks.obj
 0002:0000b8a8       $unwind$_wrap_tryblks_t_erase 00000001800278a8     tryblks.obj
 0002:0000b8cc       $unwind$_wrap_tryblks_t_find__SWIG_0 00000001800278cc     tryblks.obj
 0002:0000b8ec       $tryMap$_wrap_tryblks_t_find__SWIG_0 00000001800278ec     tryblks.obj
 0002:0000b900       $handlerMap$0$_wrap_tryblks_t_find__SWIG_0 0000000180027900     tryblks.obj
 0002:0000b978       $ip2state$_wrap_tryblks_t_find__SWIG_0 0000000180027978     tryblks.obj
 0002:0000b9a0       $unwind$_wrap_tryblks_t_find__SWIG_0$catch$3 00000001800279a0     tryblks.obj
 0002:0000b9a0       $unwind$_wrap_tryblks_t_find__SWIG_0$catch$4 00000001800279a0     tryblks.obj
 0002:0000b9a0       $unwind$_wrap_tryblks_t_find__SWIG_0$catch$0 00000001800279a0     tryblks.obj
 0002:0000b9a0       $unwind$_wrap_tryblks_t_find__SWIG_0$catch$5 00000001800279a0     tryblks.obj
 0002:0000b9a0       $unwind$_wrap_tryblks_t_find__SWIG_0$catch$2 00000001800279a0     tryblks.obj
 0002:0000b9a0       $unwind$_wrap_tryblks_t_find__SWIG_0$catch$1 00000001800279a0     tryblks.obj
 0002:0000b9b0       $unwind$_wrap_tryblks_t_find__SWIG_1 00000001800279b0     tryblks.obj
 0002:0000b9d0       $tryMap$_wrap_tryblks_t_find__SWIG_1 00000001800279d0     tryblks.obj
 0002:0000b9e4       $handlerMap$0$_wrap_tryblks_t_find__SWIG_1 00000001800279e4     tryblks.obj
 0002:0000ba60       $ip2state$_wrap_tryblks_t_find__SWIG_1 0000000180027a60     tryblks.obj
 0002:0000ba88       $unwind$_wrap_tryblks_t_find__SWIG_1$catch$5 0000000180027a88     tryblks.obj
 0002:0000ba88       $unwind$_wrap_tryblks_t_find__SWIG_1$catch$2 0000000180027a88     tryblks.obj
 0002:0000ba88       $unwind$_wrap_tryblks_t_find__SWIG_1$catch$3 0000000180027a88     tryblks.obj
 0002:0000ba88       $unwind$_wrap_tryblks_t_find__SWIG_1$catch$0 0000000180027a88     tryblks.obj
 0002:0000ba88       $unwind$_wrap_tryblks_t_find__SWIG_1$catch$4 0000000180027a88     tryblks.obj
 0002:0000ba88       $unwind$_wrap_tryblks_t_find__SWIG_1$catch$1 0000000180027a88     tryblks.obj
 0002:0000ba98       $unwind$_wrap_tryblks_t_has 0000000180027a98     tryblks.obj
 0002:0000bab8       $tryMap$_wrap_tryblks_t_has 0000000180027ab8     tryblks.obj
 0002:0000bacc       $handlerMap$0$_wrap_tryblks_t_has 0000000180027acc     tryblks.obj
 0002:0000bb48       $ip2state$_wrap_tryblks_t_has 0000000180027b48     tryblks.obj
 0002:0000bb70       $unwind$_wrap_tryblks_t_has$catch$0 0000000180027b70     tryblks.obj
 0002:0000bb70       $unwind$_wrap_tryblks_t_has$catch$4 0000000180027b70     tryblks.obj
 0002:0000bb70       $unwind$_wrap_tryblks_t_has$catch$2 0000000180027b70     tryblks.obj
 0002:0000bb70       $unwind$_wrap_tryblks_t_has$catch$3 0000000180027b70     tryblks.obj
 0002:0000bb70       $unwind$_wrap_tryblks_t_has$catch$5 0000000180027b70     tryblks.obj
 0002:0000bb70       $unwind$_wrap_tryblks_t_has$catch$1 0000000180027b70     tryblks.obj
 0002:0000bb80       $unwind$_wrap_tryblks_t_add_unique 0000000180027b80     tryblks.obj
 0002:0000bba0       $tryMap$_wrap_tryblks_t_add_unique 0000000180027ba0     tryblks.obj
 0002:0000bbb4       $handlerMap$0$_wrap_tryblks_t_add_unique 0000000180027bb4     tryblks.obj
 0002:0000bc30       $ip2state$_wrap_tryblks_t_add_unique 0000000180027c30     tryblks.obj
 0002:0000bc58       $unwind$_wrap_tryblks_t_add_unique$catch$2 0000000180027c58     tryblks.obj
 0002:0000bc58       $unwind$_wrap_tryblks_t_add_unique$catch$0 0000000180027c58     tryblks.obj
 0002:0000bc58       $unwind$_wrap_tryblks_t_add_unique$catch$1 0000000180027c58     tryblks.obj
 0002:0000bc58       $unwind$_wrap_tryblks_t_add_unique$catch$5 0000000180027c58     tryblks.obj
 0002:0000bc58       $unwind$_wrap_tryblks_t_add_unique$catch$4 0000000180027c58     tryblks.obj
 0002:0000bc58       $unwind$_wrap_tryblks_t_add_unique$catch$3 0000000180027c58     tryblks.obj
 0002:0000bc68       $unwind$_wrap_tryblks_t__del 0000000180027c68     tryblks.obj
 0002:0000bc88       $tryMap$_wrap_tryblks_t__del 0000000180027c88     tryblks.obj
 0002:0000bc9c       $handlerMap$0$_wrap_tryblks_t__del 0000000180027c9c     tryblks.obj
 0002:0000bd18       $ip2state$_wrap_tryblks_t__del 0000000180027d18     tryblks.obj
 0002:0000bd40       $unwind$_wrap_tryblks_t__del$catch$0 0000000180027d40     tryblks.obj
 0002:0000bd40       $unwind$_wrap_tryblks_t__del$catch$4 0000000180027d40     tryblks.obj
 0002:0000bd40       $unwind$_wrap_tryblks_t__del$catch$5 0000000180027d40     tryblks.obj
 0002:0000bd40       $unwind$_wrap_tryblks_t__del$catch$3 0000000180027d40     tryblks.obj
 0002:0000bd40       $unwind$_wrap_tryblks_t__del$catch$1 0000000180027d40     tryblks.obj
 0002:0000bd40       $unwind$_wrap_tryblks_t__del$catch$2 0000000180027d40     tryblks.obj
 0002:0000bd50       $unwind$_wrap_tryblks_t___len__ 0000000180027d50     tryblks.obj
 0002:0000bd6c       $tryMap$_wrap_tryblks_t___len__ 0000000180027d6c     tryblks.obj
 0002:0000bd80       $handlerMap$0$_wrap_tryblks_t___len__ 0000000180027d80     tryblks.obj
 0002:0000bdf8       $ip2state$_wrap_tryblks_t___len__ 0000000180027df8     tryblks.obj
 0002:0000be18       $unwind$_wrap_tryblks_t___len__$catch$1 0000000180027e18     tryblks.obj
 0002:0000be18       $unwind$_wrap_tryblks_t___len__$catch$3 0000000180027e18     tryblks.obj
 0002:0000be18       $unwind$_wrap_tryblks_t___len__$catch$5 0000000180027e18     tryblks.obj
 0002:0000be18       $unwind$_wrap_tryblks_t___len__$catch$4 0000000180027e18     tryblks.obj
 0002:0000be18       $unwind$_wrap_tryblks_t___len__$catch$0 0000000180027e18     tryblks.obj
 0002:0000be18       $unwind$_wrap_tryblks_t___len__$catch$2 0000000180027e18     tryblks.obj
 0002:0000be28       $unwind$_wrap_tryblks_t___getitem__ 0000000180027e28     tryblks.obj
 0002:0000be48       $tryMap$_wrap_tryblks_t___getitem__ 0000000180027e48     tryblks.obj
 0002:0000be5c       $handlerMap$0$_wrap_tryblks_t___getitem__ 0000000180027e5c     tryblks.obj
 0002:0000bed8       $ip2state$_wrap_tryblks_t___getitem__ 0000000180027ed8     tryblks.obj
 0002:0000bf00       $unwind$_wrap_tryblks_t___getitem__$catch$3 0000000180027f00     tryblks.obj
 0002:0000bf00       $unwind$_wrap_tryblks_t___getitem__$catch$1 0000000180027f00     tryblks.obj
 0002:0000bf00       $unwind$_wrap_tryblks_t___getitem__$catch$2 0000000180027f00     tryblks.obj
 0002:0000bf00       $unwind$_wrap_tryblks_t___getitem__$catch$0 0000000180027f00     tryblks.obj
 0002:0000bf00       $unwind$_wrap_tryblks_t___getitem__$catch$4 0000000180027f00     tryblks.obj
 0002:0000bf00       $unwind$_wrap_tryblks_t___getitem__$catch$5 0000000180027f00     tryblks.obj
 0002:0000bf10       $unwind$_wrap_tryblks_t___setitem__ 0000000180027f10     tryblks.obj
 0002:0000bf38       $tryMap$_wrap_tryblks_t___setitem__ 0000000180027f38     tryblks.obj
 0002:0000bf4c       $handlerMap$0$_wrap_tryblks_t___setitem__ 0000000180027f4c     tryblks.obj
 0002:0000bfc8       $ip2state$_wrap_tryblks_t___setitem__ 0000000180027fc8     tryblks.obj
 0002:0000c000       $unwind$_wrap_tryblks_t___setitem__$catch$2 0000000180028000     tryblks.obj
 0002:0000c000       $unwind$_wrap_tryblks_t___setitem__$catch$0 0000000180028000     tryblks.obj
 0002:0000c000       $unwind$_wrap_tryblks_t___setitem__$catch$1 0000000180028000     tryblks.obj
 0002:0000c000       $unwind$_wrap_tryblks_t___setitem__$catch$3 0000000180028000     tryblks.obj
 0002:0000c000       $unwind$_wrap_tryblks_t___setitem__$catch$4 0000000180028000     tryblks.obj
 0002:0000c000       $unwind$_wrap_tryblks_t___setitem__$catch$5 0000000180028000     tryblks.obj
 0002:0000c010       $unwind$catchvec_t_swigregister 0000000180028010     tryblks.obj
 0002:0000c010       $unwind$tryblk_t_swigregister 0000000180028010     tryblks.obj
 0002:0000c010       $unwind$seh_t_swigregister 0000000180028010     tryblks.obj
 0002:0000c010       $unwind$catch_t_swigregister 0000000180028010     tryblks.obj
 0002:0000c010       $unwind$tryblks_t_swigregister 0000000180028010     tryblks.obj
 0002:0000c010       $unwind$try_handler_t_swigregister 0000000180028010     tryblks.obj
 0002:0000c018       $unwind$_wrap_new_catchvec_t__SWIG_0 0000000180028018     tryblks.obj
 0002:0000c028       $tryMap$_wrap_new_catchvec_t__SWIG_0 0000000180028028     tryblks.obj
 0002:0000c03c       $handlerMap$0$_wrap_new_catchvec_t__SWIG_0 000000018002803c     tryblks.obj
 0002:0000c0b8       $ip2state$_wrap_new_catchvec_t__SWIG_0 00000001800280b8     tryblks.obj
 0002:0000c0d0       $unwind$_wrap_new_catchvec_t__SWIG_0$catch$2 00000001800280d0     tryblks.obj
 0002:0000c0d0       $unwind$_wrap_new_catchvec_t__SWIG_0$catch$4 00000001800280d0     tryblks.obj
 0002:0000c0d0       $unwind$_wrap_new_catchvec_t__SWIG_0$catch$5 00000001800280d0     tryblks.obj
 0002:0000c0d0       $unwind$_wrap_new_catchvec_t__SWIG_0$catch$1 00000001800280d0     tryblks.obj
 0002:0000c0d0       $unwind$_wrap_new_catchvec_t__SWIG_0$catch$3 00000001800280d0     tryblks.obj
 0002:0000c0d0       $unwind$_wrap_new_catchvec_t__SWIG_0$catch$6 00000001800280d0     tryblks.obj
 0002:0000c0e0       $unwind$_wrap_new_catchvec_t__SWIG_1 00000001800280e0     tryblks.obj
 0002:0000c100       $tryMap$_wrap_new_catchvec_t__SWIG_1 0000000180028100     tryblks.obj
 0002:0000c114       $handlerMap$0$_wrap_new_catchvec_t__SWIG_1 0000000180028114     tryblks.obj
 0002:0000c190       $ip2state$_wrap_new_catchvec_t__SWIG_1 0000000180028190     tryblks.obj
 0002:0000c1b0       $unwind$_wrap_new_catchvec_t__SWIG_1$catch$3 00000001800281b0     tryblks.obj
 0002:0000c1b0       $unwind$_wrap_new_catchvec_t__SWIG_1$catch$4 00000001800281b0     tryblks.obj
 0002:0000c1b0       $unwind$_wrap_new_catchvec_t__SWIG_1$catch$5 00000001800281b0     tryblks.obj
 0002:0000c1b0       $unwind$_wrap_new_catchvec_t__SWIG_1$catch$6 00000001800281b0     tryblks.obj
 0002:0000c1b0       $unwind$_wrap_new_catchvec_t__SWIG_1$catch$1 00000001800281b0     tryblks.obj
 0002:0000c1b0       $unwind$_wrap_new_catchvec_t__SWIG_1$catch$2 00000001800281b0     tryblks.obj
 0002:0000c1c0       $unwind$_wrap_delete_catchvec_t 00000001800281c0     tryblks.obj
 0002:0000c1e0       $tryMap$_wrap_delete_catchvec_t 00000001800281e0     tryblks.obj
 0002:0000c1f4       $handlerMap$0$_wrap_delete_catchvec_t 00000001800281f4     tryblks.obj
 0002:0000c270       $ip2state$_wrap_delete_catchvec_t 0000000180028270     tryblks.obj
 0002:0000c290       $unwind$_wrap_delete_catchvec_t$catch$4 0000000180028290     tryblks.obj
 0002:0000c290       $unwind$_wrap_delete_catchvec_t$catch$0 0000000180028290     tryblks.obj
 0002:0000c290       $unwind$_wrap_delete_catchvec_t$catch$1 0000000180028290     tryblks.obj
 0002:0000c290       $unwind$_wrap_delete_catchvec_t$catch$3 0000000180028290     tryblks.obj
 0002:0000c290       $unwind$_wrap_delete_catchvec_t$catch$2 0000000180028290     tryblks.obj
 0002:0000c290       $unwind$_wrap_delete_catchvec_t$catch$5 0000000180028290     tryblks.obj
 0002:0000c2a0       $unwind$_wrap_catchvec_t_push_back__SWIG_0 00000001800282a0     tryblks.obj
 0002:0000c2c0       $tryMap$_wrap_catchvec_t_push_back__SWIG_0 00000001800282c0     tryblks.obj
 0002:0000c2d4       $handlerMap$0$_wrap_catchvec_t_push_back__SWIG_0 00000001800282d4     tryblks.obj
 0002:0000c350       $ip2state$_wrap_catchvec_t_push_back__SWIG_0 0000000180028350     tryblks.obj
 0002:0000c378       $unwind$_wrap_catchvec_t_push_back__SWIG_0$catch$4 0000000180028378     tryblks.obj
 0002:0000c378       $unwind$_wrap_catchvec_t_push_back__SWIG_0$catch$1 0000000180028378     tryblks.obj
 0002:0000c378       $unwind$_wrap_catchvec_t_push_back__SWIG_0$catch$2 0000000180028378     tryblks.obj
 0002:0000c378       $unwind$_wrap_catchvec_t_push_back__SWIG_0$catch$5 0000000180028378     tryblks.obj
 0002:0000c378       $unwind$_wrap_catchvec_t_push_back__SWIG_0$catch$3 0000000180028378     tryblks.obj
 0002:0000c378       $unwind$_wrap_catchvec_t_push_back__SWIG_0$catch$0 0000000180028378     tryblks.obj
 0002:0000c388       $unwind$_wrap_catchvec_t_push_back__SWIG_1 0000000180028388     tryblks.obj
 0002:0000c3a8       $tryMap$_wrap_catchvec_t_push_back__SWIG_1 00000001800283a8     tryblks.obj
 0002:0000c3bc       $handlerMap$0$_wrap_catchvec_t_push_back__SWIG_1 00000001800283bc     tryblks.obj
 0002:0000c438       $ip2state$_wrap_catchvec_t_push_back__SWIG_1 0000000180028438     tryblks.obj
 0002:0000c458       $unwind$_wrap_catchvec_t_push_back__SWIG_1$catch$3 0000000180028458     tryblks.obj
 0002:0000c458       $unwind$_wrap_catchvec_t_push_back__SWIG_1$catch$5 0000000180028458     tryblks.obj
 0002:0000c458       $unwind$_wrap_catchvec_t_push_back__SWIG_1$catch$6 0000000180028458     tryblks.obj
 0002:0000c458       $unwind$_wrap_catchvec_t_push_back__SWIG_1$catch$8 0000000180028458     tryblks.obj
 0002:0000c458       $unwind$_wrap_catchvec_t_push_back__SWIG_1$catch$7 0000000180028458     tryblks.obj
 0002:0000c458       $unwind$_wrap_catchvec_t_push_back__SWIG_1$catch$4 0000000180028458     tryblks.obj
 0002:0000c468       $unwind$_wrap_catchvec_t_pop_back 0000000180028468     tryblks.obj
 0002:0000c484       $tryMap$_wrap_catchvec_t_pop_back 0000000180028484     tryblks.obj
 0002:0000c498       $handlerMap$0$_wrap_catchvec_t_pop_back 0000000180028498     tryblks.obj
 0002:0000c510       $ip2state$_wrap_catchvec_t_pop_back 0000000180028510     tryblks.obj
 0002:0000c530       $unwind$_wrap_catchvec_t_pop_back$catch$8 0000000180028530     tryblks.obj
 0002:0000c530       $unwind$_wrap_catchvec_t_pop_back$catch$7 0000000180028530     tryblks.obj
 0002:0000c530       $unwind$_wrap_catchvec_t_pop_back$catch$5 0000000180028530     tryblks.obj
 0002:0000c530       $unwind$_wrap_catchvec_t_pop_back$catch$6 0000000180028530     tryblks.obj
 0002:0000c530       $unwind$_wrap_catchvec_t_pop_back$catch$4 0000000180028530     tryblks.obj
 0002:0000c530       $unwind$_wrap_catchvec_t_pop_back$catch$3 0000000180028530     tryblks.obj
 0002:0000c540       $unwind$_wrap_catchvec_t_size 0000000180028540     tryblks.obj
 0002:0000c55c       $tryMap$_wrap_catchvec_t_size 000000018002855c     tryblks.obj
 0002:0000c570       $handlerMap$0$_wrap_catchvec_t_size 0000000180028570     tryblks.obj
 0002:0000c5e8       $ip2state$_wrap_catchvec_t_size 00000001800285e8     tryblks.obj
 0002:0000c608       $unwind$_wrap_catchvec_t_size$catch$2 0000000180028608     tryblks.obj
 0002:0000c608       $unwind$_wrap_catchvec_t_size$catch$5 0000000180028608     tryblks.obj
 0002:0000c608       $unwind$_wrap_catchvec_t_size$catch$4 0000000180028608     tryblks.obj
 0002:0000c608       $unwind$_wrap_catchvec_t_size$catch$0 0000000180028608     tryblks.obj
 0002:0000c608       $unwind$_wrap_catchvec_t_size$catch$3 0000000180028608     tryblks.obj
 0002:0000c608       $unwind$_wrap_catchvec_t_size$catch$1 0000000180028608     tryblks.obj
 0002:0000c618       $unwind$_wrap_catchvec_t_empty 0000000180028618     tryblks.obj
 0002:0000c638       $tryMap$_wrap_catchvec_t_empty 0000000180028638     tryblks.obj
 0002:0000c64c       $handlerMap$0$_wrap_catchvec_t_empty 000000018002864c     tryblks.obj
 0002:0000c6c8       $ip2state$_wrap_catchvec_t_empty 00000001800286c8     tryblks.obj
 0002:0000c6e8       $unwind$_wrap_catchvec_t_empty$catch$5 00000001800286e8     tryblks.obj
 0002:0000c6e8       $unwind$_wrap_catchvec_t_empty$catch$4 00000001800286e8     tryblks.obj
 0002:0000c6e8       $unwind$_wrap_catchvec_t_empty$catch$3 00000001800286e8     tryblks.obj
 0002:0000c6e8       $unwind$_wrap_catchvec_t_empty$catch$2 00000001800286e8     tryblks.obj
 0002:0000c6e8       $unwind$_wrap_catchvec_t_empty$catch$1 00000001800286e8     tryblks.obj
 0002:0000c6e8       $unwind$_wrap_catchvec_t_empty$catch$0 00000001800286e8     tryblks.obj
 0002:0000c6f8       $unwind$_wrap_catchvec_t_at 00000001800286f8     tryblks.obj
 0002:0000c714       $tryMap$_wrap_catchvec_t_at 0000000180028714     tryblks.obj
 0002:0000c728       $handlerMap$0$_wrap_catchvec_t_at 0000000180028728     tryblks.obj
 0002:0000c7a0       $ip2state$_wrap_catchvec_t_at 00000001800287a0     tryblks.obj
 0002:0000c7c0       $unwind$_wrap_catchvec_t_at$catch$0 00000001800287c0     tryblks.obj
 0002:0000c7c0       $unwind$_wrap_catchvec_t_at$catch$4 00000001800287c0     tryblks.obj
 0002:0000c7c0       $unwind$_wrap_catchvec_t_at$catch$3 00000001800287c0     tryblks.obj
 0002:0000c7c0       $unwind$_wrap_catchvec_t_at$catch$2 00000001800287c0     tryblks.obj
 0002:0000c7c0       $unwind$_wrap_catchvec_t_at$catch$1 00000001800287c0     tryblks.obj
 0002:0000c7c0       $unwind$_wrap_catchvec_t_at$catch$5 00000001800287c0     tryblks.obj
 0002:0000c7d0       $unwind$_wrap_catchvec_t_qclear 00000001800287d0     tryblks.obj
 0002:0000c7ec       $tryMap$_wrap_catchvec_t_qclear 00000001800287ec     tryblks.obj
 0002:0000c800       $handlerMap$0$_wrap_catchvec_t_qclear 0000000180028800     tryblks.obj
 0002:0000c878       $ip2state$_wrap_catchvec_t_qclear 0000000180028878     tryblks.obj
 0002:0000c898       $unwind$_wrap_catchvec_t_qclear$catch$0 0000000180028898     tryblks.obj
 0002:0000c898       $unwind$_wrap_catchvec_t_qclear$catch$2 0000000180028898     tryblks.obj
 0002:0000c898       $unwind$_wrap_catchvec_t_qclear$catch$5 0000000180028898     tryblks.obj
 0002:0000c898       $unwind$_wrap_catchvec_t_qclear$catch$4 0000000180028898     tryblks.obj
 0002:0000c898       $unwind$_wrap_catchvec_t_qclear$catch$3 0000000180028898     tryblks.obj
 0002:0000c898       $unwind$_wrap_catchvec_t_qclear$catch$1 0000000180028898     tryblks.obj
 0002:0000c8a8       $unwind$_wrap_catchvec_t_clear 00000001800288a8     tryblks.obj
 0002:0000c8c4       $tryMap$_wrap_catchvec_t_clear 00000001800288c4     tryblks.obj
 0002:0000c8d8       $handlerMap$0$_wrap_catchvec_t_clear 00000001800288d8     tryblks.obj
 0002:0000c950       $ip2state$_wrap_catchvec_t_clear 0000000180028950     tryblks.obj
 0002:0000c970       $unwind$_wrap_catchvec_t_clear$catch$5 0000000180028970     tryblks.obj
 0002:0000c970       $unwind$_wrap_catchvec_t_clear$catch$2 0000000180028970     tryblks.obj
 0002:0000c970       $unwind$_wrap_catchvec_t_clear$catch$1 0000000180028970     tryblks.obj
 0002:0000c970       $unwind$_wrap_catchvec_t_clear$catch$3 0000000180028970     tryblks.obj
 0002:0000c970       $unwind$_wrap_catchvec_t_clear$catch$4 0000000180028970     tryblks.obj
 0002:0000c970       $unwind$_wrap_catchvec_t_clear$catch$0 0000000180028970     tryblks.obj
 0002:0000c980       $unwind$_wrap_catchvec_t_resize__SWIG_0 0000000180028980     tryblks.obj
 0002:0000c9a0       $tryMap$_wrap_catchvec_t_resize__SWIG_0 00000001800289a0     tryblks.obj
 0002:0000c9b4       $handlerMap$0$_wrap_catchvec_t_resize__SWIG_0 00000001800289b4     tryblks.obj
 0002:0000ca30       $ip2state$_wrap_catchvec_t_resize__SWIG_0 0000000180028a30     tryblks.obj
 0002:0000ca58       $unwind$_wrap_catchvec_t_resize__SWIG_0$catch$1 0000000180028a58     tryblks.obj
 0002:0000ca58       $unwind$_wrap_catchvec_t_resize__SWIG_0$catch$5 0000000180028a58     tryblks.obj
 0002:0000ca58       $unwind$_wrap_catchvec_t_resize__SWIG_0$catch$4 0000000180028a58     tryblks.obj
 0002:0000ca58       $unwind$_wrap_catchvec_t_resize__SWIG_0$catch$2 0000000180028a58     tryblks.obj
 0002:0000ca58       $unwind$_wrap_catchvec_t_resize__SWIG_0$catch$0 0000000180028a58     tryblks.obj
 0002:0000ca58       $unwind$_wrap_catchvec_t_resize__SWIG_0$catch$3 0000000180028a58     tryblks.obj
 0002:0000ca68       $unwind$_wrap_catchvec_t_resize__SWIG_1 0000000180028a68     tryblks.obj
 0002:0000ca88       $tryMap$_wrap_catchvec_t_resize__SWIG_1 0000000180028a88     tryblks.obj
 0002:0000ca9c       $handlerMap$0$_wrap_catchvec_t_resize__SWIG_1 0000000180028a9c     tryblks.obj
 0002:0000cb18       $ip2state$_wrap_catchvec_t_resize__SWIG_1 0000000180028b18     tryblks.obj
 0002:0000cb38       $unwind$_wrap_catchvec_t_resize__SWIG_1$catch$7 0000000180028b38     tryblks.obj
 0002:0000cb38       $unwind$_wrap_catchvec_t_resize__SWIG_1$catch$10 0000000180028b38     tryblks.obj
 0002:0000cb38       $unwind$_wrap_catchvec_t_resize__SWIG_1$catch$8 0000000180028b38     tryblks.obj
 0002:0000cb38       $unwind$_wrap_catchvec_t_resize__SWIG_1$catch$11 0000000180028b38     tryblks.obj
 0002:0000cb38       $unwind$_wrap_catchvec_t_resize__SWIG_1$catch$6 0000000180028b38     tryblks.obj
 0002:0000cb38       $unwind$_wrap_catchvec_t_resize__SWIG_1$catch$9 0000000180028b38     tryblks.obj
 0002:0000cb48       $unwind$_wrap_catchvec_t_grow 0000000180028b48     tryblks.obj
 0002:0000cb6c       $stateUnwindMap$_wrap_catchvec_t_grow 0000000180028b6c     tryblks.obj
 0002:0000cb84       $tryMap$_wrap_catchvec_t_grow 0000000180028b84     tryblks.obj
 0002:0000cb98       $handlerMap$0$_wrap_catchvec_t_grow 0000000180028b98     tryblks.obj
 0002:0000cc10       $ip2state$_wrap_catchvec_t_grow 0000000180028c10     tryblks.obj
 0002:0000cc38       $unwind$_wrap_catchvec_t_grow$catch$15 0000000180028c38     tryblks.obj
 0002:0000cc38       $unwind$_wrap_catchvec_t_grow$catch$10 0000000180028c38     tryblks.obj
 0002:0000cc38       $unwind$_wrap_catchvec_t_grow$catch$11 0000000180028c38     tryblks.obj
 0002:0000cc38       $unwind$_wrap_catchvec_t_grow$catch$14 0000000180028c38     tryblks.obj
 0002:0000cc38       $unwind$_wrap_catchvec_t_grow$catch$12 0000000180028c38     tryblks.obj
 0002:0000cc38       $unwind$_wrap_catchvec_t_grow$catch$13 0000000180028c38     tryblks.obj
 0002:0000cc48       $unwind$_wrap_catchvec_t_capacity 0000000180028c48     tryblks.obj
 0002:0000cc64       $tryMap$_wrap_catchvec_t_capacity 0000000180028c64     tryblks.obj
 0002:0000cc78       $handlerMap$0$_wrap_catchvec_t_capacity 0000000180028c78     tryblks.obj
 0002:0000ccf0       $ip2state$_wrap_catchvec_t_capacity 0000000180028cf0     tryblks.obj
 0002:0000cd10       $unwind$_wrap_catchvec_t_capacity$catch$5 0000000180028d10     tryblks.obj
 0002:0000cd10       $unwind$_wrap_catchvec_t_capacity$catch$4 0000000180028d10     tryblks.obj
 0002:0000cd10       $unwind$_wrap_catchvec_t_capacity$catch$3 0000000180028d10     tryblks.obj
 0002:0000cd10       $unwind$_wrap_catchvec_t_capacity$catch$2 0000000180028d10     tryblks.obj
 0002:0000cd10       $unwind$_wrap_catchvec_t_capacity$catch$1 0000000180028d10     tryblks.obj
 0002:0000cd10       $unwind$_wrap_catchvec_t_capacity$catch$0 0000000180028d10     tryblks.obj
 0002:0000cd20       $unwind$_wrap_catchvec_t_reserve 0000000180028d20     tryblks.obj
 0002:0000cd3c       $tryMap$_wrap_catchvec_t_reserve 0000000180028d3c     tryblks.obj
 0002:0000cd50       $handlerMap$0$_wrap_catchvec_t_reserve 0000000180028d50     tryblks.obj
 0002:0000cdc8       $ip2state$_wrap_catchvec_t_reserve 0000000180028dc8     tryblks.obj
 0002:0000cde8       $unwind$_wrap_catchvec_t_reserve$catch$6 0000000180028de8     tryblks.obj
 0002:0000cde8       $unwind$_wrap_catchvec_t_reserve$catch$8 0000000180028de8     tryblks.obj
 0002:0000cde8       $unwind$_wrap_catchvec_t_reserve$catch$7 0000000180028de8     tryblks.obj
 0002:0000cde8       $unwind$_wrap_catchvec_t_reserve$catch$3 0000000180028de8     tryblks.obj
 0002:0000cde8       $unwind$_wrap_catchvec_t_reserve$catch$5 0000000180028de8     tryblks.obj
 0002:0000cde8       $unwind$_wrap_catchvec_t_reserve$catch$4 0000000180028de8     tryblks.obj
 0002:0000cdf8       $unwind$_wrap_catchvec_t_truncate 0000000180028df8     tryblks.obj
 0002:0000ce14       $tryMap$_wrap_catchvec_t_truncate 0000000180028e14     tryblks.obj
 0002:0000ce28       $handlerMap$0$_wrap_catchvec_t_truncate 0000000180028e28     tryblks.obj
 0002:0000cea0       $ip2state$_wrap_catchvec_t_truncate 0000000180028ea0     tryblks.obj
 0002:0000cec0       $unwind$_wrap_catchvec_t_truncate$catch$0 0000000180028ec0     tryblks.obj
 0002:0000cec0       $unwind$_wrap_catchvec_t_truncate$catch$5 0000000180028ec0     tryblks.obj
 0002:0000cec0       $unwind$_wrap_catchvec_t_truncate$catch$1 0000000180028ec0     tryblks.obj
 0002:0000cec0       $unwind$_wrap_catchvec_t_truncate$catch$2 0000000180028ec0     tryblks.obj
 0002:0000cec0       $unwind$_wrap_catchvec_t_truncate$catch$4 0000000180028ec0     tryblks.obj
 0002:0000cec0       $unwind$_wrap_catchvec_t_truncate$catch$3 0000000180028ec0     tryblks.obj
 0002:0000ced0       $unwind$_wrap_catchvec_t_swap 0000000180028ed0     tryblks.obj
 0002:0000cef0       $tryMap$_wrap_catchvec_t_swap 0000000180028ef0     tryblks.obj
 0002:0000cf04       $handlerMap$0$_wrap_catchvec_t_swap 0000000180028f04     tryblks.obj
 0002:0000cf80       $ip2state$_wrap_catchvec_t_swap 0000000180028f80     tryblks.obj
 0002:0000cfa8       $unwind$_wrap_catchvec_t_swap$catch$4 0000000180028fa8     tryblks.obj
 0002:0000cfa8       $unwind$_wrap_catchvec_t_swap$catch$2 0000000180028fa8     tryblks.obj
 0002:0000cfa8       $unwind$_wrap_catchvec_t_swap$catch$0 0000000180028fa8     tryblks.obj
 0002:0000cfa8       $unwind$_wrap_catchvec_t_swap$catch$3 0000000180028fa8     tryblks.obj
 0002:0000cfa8       $unwind$_wrap_catchvec_t_swap$catch$1 0000000180028fa8     tryblks.obj
 0002:0000cfa8       $unwind$_wrap_catchvec_t_swap$catch$5 0000000180028fa8     tryblks.obj
 0002:0000cfb8       $unwind$_wrap_catchvec_t_extract 0000000180028fb8     tryblks.obj
 0002:0000cfd8       $tryMap$_wrap_catchvec_t_extract 0000000180028fd8     tryblks.obj
 0002:0000cfec       $handlerMap$0$_wrap_catchvec_t_extract 0000000180028fec     tryblks.obj
 0002:0000d068       $ip2state$_wrap_catchvec_t_extract 0000000180029068     tryblks.obj
 0002:0000d088       $unwind$_wrap_catchvec_t_extract$catch$1 0000000180029088     tryblks.obj
 0002:0000d088       $unwind$_wrap_catchvec_t_extract$catch$2 0000000180029088     tryblks.obj
 0002:0000d088       $unwind$_wrap_catchvec_t_extract$catch$3 0000000180029088     tryblks.obj
 0002:0000d088       $unwind$_wrap_catchvec_t_extract$catch$4 0000000180029088     tryblks.obj
 0002:0000d088       $unwind$_wrap_catchvec_t_extract$catch$0 0000000180029088     tryblks.obj
 0002:0000d088       $unwind$_wrap_catchvec_t_extract$catch$5 0000000180029088     tryblks.obj
 0002:0000d098       $unwind$_wrap_catchvec_t_inject 0000000180029098     tryblks.obj
 0002:0000d0c0       $tryMap$_wrap_catchvec_t_inject 00000001800290c0     tryblks.obj
 0002:0000d0d4       $handlerMap$0$_wrap_catchvec_t_inject 00000001800290d4     tryblks.obj
 0002:0000d150       $ip2state$_wrap_catchvec_t_inject 0000000180029150     tryblks.obj
 0002:0000d180       $unwind$_wrap_catchvec_t_inject$catch$5 0000000180029180     tryblks.obj
 0002:0000d180       $unwind$_wrap_catchvec_t_inject$catch$4 0000000180029180     tryblks.obj
 0002:0000d180       $unwind$_wrap_catchvec_t_inject$catch$3 0000000180029180     tryblks.obj
 0002:0000d180       $unwind$_wrap_catchvec_t_inject$catch$2 0000000180029180     tryblks.obj
 0002:0000d180       $unwind$_wrap_catchvec_t_inject$catch$1 0000000180029180     tryblks.obj
 0002:0000d180       $unwind$_wrap_catchvec_t_inject$catch$0 0000000180029180     tryblks.obj
 0002:0000d190       $unwind$_wrap_catchvec_t___eq__ 0000000180029190     tryblks.obj
 0002:0000d1b0       $tryMap$_wrap_catchvec_t___eq__ 00000001800291b0     tryblks.obj
 0002:0000d1c4       $handlerMap$0$_wrap_catchvec_t___eq__ 00000001800291c4     tryblks.obj
 0002:0000d240       $ip2state$_wrap_catchvec_t___eq__ 0000000180029240     tryblks.obj
 0002:0000d268       $unwind$_wrap_catchvec_t___eq__$catch$5 0000000180029268     tryblks.obj
 0002:0000d268       $unwind$_wrap_catchvec_t___eq__$catch$3 0000000180029268     tryblks.obj
 0002:0000d268       $unwind$_wrap_catchvec_t___eq__$catch$2 0000000180029268     tryblks.obj
 0002:0000d268       $unwind$_wrap_catchvec_t___eq__$catch$1 0000000180029268     tryblks.obj
 0002:0000d268       $unwind$_wrap_catchvec_t___eq__$catch$0 0000000180029268     tryblks.obj
 0002:0000d268       $unwind$_wrap_catchvec_t___eq__$catch$4 0000000180029268     tryblks.obj
 0002:0000d278       $unwind$_wrap_catchvec_t___ne__ 0000000180029278     tryblks.obj
 0002:0000d298       $tryMap$_wrap_catchvec_t___ne__ 0000000180029298     tryblks.obj
 0002:0000d2ac       $handlerMap$0$_wrap_catchvec_t___ne__ 00000001800292ac     tryblks.obj
 0002:0000d328       $ip2state$_wrap_catchvec_t___ne__ 0000000180029328     tryblks.obj
 0002:0000d350       $unwind$_wrap_catchvec_t___ne__$catch$1 0000000180029350     tryblks.obj
 0002:0000d350       $unwind$_wrap_catchvec_t___ne__$catch$2 0000000180029350     tryblks.obj
 0002:0000d350       $unwind$_wrap_catchvec_t___ne__$catch$5 0000000180029350     tryblks.obj
 0002:0000d350       $unwind$_wrap_catchvec_t___ne__$catch$3 0000000180029350     tryblks.obj
 0002:0000d350       $unwind$_wrap_catchvec_t___ne__$catch$4 0000000180029350     tryblks.obj
 0002:0000d350       $unwind$_wrap_catchvec_t___ne__$catch$0 0000000180029350     tryblks.obj
 0002:0000d360       $unwind$_wrap_catchvec_t_begin__SWIG_0 0000000180029360     tryblks.obj
 0002:0000d37c       $tryMap$_wrap_catchvec_t_begin__SWIG_0 000000018002937c     tryblks.obj
 0002:0000d390       $handlerMap$0$_wrap_catchvec_t_begin__SWIG_0 0000000180029390     tryblks.obj
 0002:0000d408       $ip2state$_wrap_catchvec_t_begin__SWIG_0 0000000180029408     tryblks.obj
 0002:0000d428       $unwind$_wrap_catchvec_t_begin__SWIG_0$catch$1 0000000180029428     tryblks.obj
 0002:0000d428       $unwind$_wrap_catchvec_t_begin__SWIG_0$catch$2 0000000180029428     tryblks.obj
 0002:0000d428       $unwind$_wrap_catchvec_t_begin__SWIG_0$catch$3 0000000180029428     tryblks.obj
 0002:0000d428       $unwind$_wrap_catchvec_t_begin__SWIG_0$catch$4 0000000180029428     tryblks.obj
 0002:0000d428       $unwind$_wrap_catchvec_t_begin__SWIG_0$catch$5 0000000180029428     tryblks.obj
 0002:0000d428       $unwind$_wrap_catchvec_t_begin__SWIG_0$catch$0 0000000180029428     tryblks.obj
 0002:0000d438       $unwind$_wrap_catchvec_t_end__SWIG_0 0000000180029438     tryblks.obj
 0002:0000d454       $tryMap$_wrap_catchvec_t_end__SWIG_0 0000000180029454     tryblks.obj
 0002:0000d468       $handlerMap$0$_wrap_catchvec_t_end__SWIG_0 0000000180029468     tryblks.obj
 0002:0000d4e0       $ip2state$_wrap_catchvec_t_end__SWIG_0 00000001800294e0     tryblks.obj
 0002:0000d500       $unwind$_wrap_catchvec_t_end__SWIG_0$catch$2 0000000180029500     tryblks.obj
 0002:0000d500       $unwind$_wrap_catchvec_t_end__SWIG_0$catch$0 0000000180029500     tryblks.obj
 0002:0000d500       $unwind$_wrap_catchvec_t_end__SWIG_0$catch$5 0000000180029500     tryblks.obj
 0002:0000d500       $unwind$_wrap_catchvec_t_end__SWIG_0$catch$1 0000000180029500     tryblks.obj
 0002:0000d500       $unwind$_wrap_catchvec_t_end__SWIG_0$catch$3 0000000180029500     tryblks.obj
 0002:0000d500       $unwind$_wrap_catchvec_t_end__SWIG_0$catch$4 0000000180029500     tryblks.obj
 0002:0000d510       $unwind$_wrap_catchvec_t_begin__SWIG_1 0000000180029510     tryblks.obj
 0002:0000d52c       $tryMap$_wrap_catchvec_t_begin__SWIG_1 000000018002952c     tryblks.obj
 0002:0000d540       $handlerMap$0$_wrap_catchvec_t_begin__SWIG_1 0000000180029540     tryblks.obj
 0002:0000d5b8       $ip2state$_wrap_catchvec_t_begin__SWIG_1 00000001800295b8     tryblks.obj
 0002:0000d5d8       $unwind$_wrap_catchvec_t_begin__SWIG_1$catch$3 00000001800295d8     tryblks.obj
 0002:0000d5d8       $unwind$_wrap_catchvec_t_begin__SWIG_1$catch$2 00000001800295d8     tryblks.obj
 0002:0000d5d8       $unwind$_wrap_catchvec_t_begin__SWIG_1$catch$4 00000001800295d8     tryblks.obj
 0002:0000d5d8       $unwind$_wrap_catchvec_t_begin__SWIG_1$catch$0 00000001800295d8     tryblks.obj
 0002:0000d5d8       $unwind$_wrap_catchvec_t_begin__SWIG_1$catch$5 00000001800295d8     tryblks.obj
 0002:0000d5d8       $unwind$_wrap_catchvec_t_begin__SWIG_1$catch$1 00000001800295d8     tryblks.obj
 0002:0000d5e8       $unwind$_wrap_catchvec_t_end__SWIG_1 00000001800295e8     tryblks.obj
 0002:0000d604       $tryMap$_wrap_catchvec_t_end__SWIG_1 0000000180029604     tryblks.obj
 0002:0000d618       $handlerMap$0$_wrap_catchvec_t_end__SWIG_1 0000000180029618     tryblks.obj
 0002:0000d690       $ip2state$_wrap_catchvec_t_end__SWIG_1 0000000180029690     tryblks.obj
 0002:0000d6b0       $unwind$_wrap_catchvec_t_end__SWIG_1$catch$4 00000001800296b0     tryblks.obj
 0002:0000d6b0       $unwind$_wrap_catchvec_t_end__SWIG_1$catch$3 00000001800296b0     tryblks.obj
 0002:0000d6b0       $unwind$_wrap_catchvec_t_end__SWIG_1$catch$5 00000001800296b0     tryblks.obj
 0002:0000d6b0       $unwind$_wrap_catchvec_t_end__SWIG_1$catch$0 00000001800296b0     tryblks.obj
 0002:0000d6b0       $unwind$_wrap_catchvec_t_end__SWIG_1$catch$2 00000001800296b0     tryblks.obj
 0002:0000d6b0       $unwind$_wrap_catchvec_t_end__SWIG_1$catch$1 00000001800296b0     tryblks.obj
 0002:0000d6c0       $unwind$_wrap_catchvec_t_insert 00000001800296c0     tryblks.obj
 0002:0000d6e8       $tryMap$_wrap_catchvec_t_insert 00000001800296e8     tryblks.obj
 0002:0000d6fc       $handlerMap$0$_wrap_catchvec_t_insert 00000001800296fc     tryblks.obj
 0002:0000d778       $ip2state$_wrap_catchvec_t_insert 0000000180029778     tryblks.obj
 0002:0000d7a8       $unwind$_wrap_catchvec_t_insert$catch$10 00000001800297a8     tryblks.obj
 0002:0000d7a8       $unwind$_wrap_catchvec_t_insert$catch$7 00000001800297a8     tryblks.obj
 0002:0000d7a8       $unwind$_wrap_catchvec_t_insert$catch$11 00000001800297a8     tryblks.obj
 0002:0000d7a8       $unwind$_wrap_catchvec_t_insert$catch$6 00000001800297a8     tryblks.obj
 0002:0000d7a8       $unwind$_wrap_catchvec_t_insert$catch$8 00000001800297a8     tryblks.obj
 0002:0000d7a8       $unwind$_wrap_catchvec_t_insert$catch$9 00000001800297a8     tryblks.obj
 0002:0000d7b8       $unwind$_wrap_catchvec_t_erase__SWIG_0 00000001800297b8     tryblks.obj
 0002:0000d7d8       $tryMap$_wrap_catchvec_t_erase__SWIG_0 00000001800297d8     tryblks.obj
 0002:0000d7ec       $handlerMap$0$_wrap_catchvec_t_erase__SWIG_0 00000001800297ec     tryblks.obj
 0002:0000d868       $ip2state$_wrap_catchvec_t_erase__SWIG_0 0000000180029868     tryblks.obj
 0002:0000d890       $unwind$_wrap_catchvec_t_erase__SWIG_0$catch$1 0000000180029890     tryblks.obj
 0002:0000d890       $unwind$_wrap_catchvec_t_erase__SWIG_0$catch$4 0000000180029890     tryblks.obj
 0002:0000d890       $unwind$_wrap_catchvec_t_erase__SWIG_0$catch$0 0000000180029890     tryblks.obj
 0002:0000d890       $unwind$_wrap_catchvec_t_erase__SWIG_0$catch$2 0000000180029890     tryblks.obj
 0002:0000d890       $unwind$_wrap_catchvec_t_erase__SWIG_0$catch$5 0000000180029890     tryblks.obj
 0002:0000d890       $unwind$_wrap_catchvec_t_erase__SWIG_0$catch$3 0000000180029890     tryblks.obj
 0002:0000d8a0       $unwind$_wrap_catchvec_t_erase__SWIG_1 00000001800298a0     tryblks.obj
 0002:0000d8bc       $tryMap$_wrap_catchvec_t_erase__SWIG_1 00000001800298bc     tryblks.obj
 0002:0000d8d0       $handlerMap$0$_wrap_catchvec_t_erase__SWIG_1 00000001800298d0     tryblks.obj
 0002:0000d948       $ip2state$_wrap_catchvec_t_erase__SWIG_1 0000000180029948     tryblks.obj
 0002:0000d978       $unwind$_wrap_catchvec_t_erase__SWIG_1$catch$7 0000000180029978     tryblks.obj
 0002:0000d978       $unwind$_wrap_catchvec_t_erase__SWIG_1$catch$6 0000000180029978     tryblks.obj
 0002:0000d978       $unwind$_wrap_catchvec_t_erase__SWIG_1$catch$11 0000000180029978     tryblks.obj
 0002:0000d978       $unwind$_wrap_catchvec_t_erase__SWIG_1$catch$10 0000000180029978     tryblks.obj
 0002:0000d978       $unwind$_wrap_catchvec_t_erase__SWIG_1$catch$8 0000000180029978     tryblks.obj
 0002:0000d978       $unwind$_wrap_catchvec_t_erase__SWIG_1$catch$9 0000000180029978     tryblks.obj
 0002:0000d988       $unwind$_wrap_catchvec_t_find__SWIG_0 0000000180029988     tryblks.obj
 0002:0000d9a8       $tryMap$_wrap_catchvec_t_find__SWIG_0 00000001800299a8     tryblks.obj
 0002:0000d9bc       $handlerMap$0$_wrap_catchvec_t_find__SWIG_0 00000001800299bc     tryblks.obj
 0002:0000da38       $ip2state$_wrap_catchvec_t_find__SWIG_0 0000000180029a38     tryblks.obj
 0002:0000da60       $unwind$_wrap_catchvec_t_find__SWIG_0$catch$0 0000000180029a60     tryblks.obj
 0002:0000da60       $unwind$_wrap_catchvec_t_find__SWIG_0$catch$3 0000000180029a60     tryblks.obj
 0002:0000da60       $unwind$_wrap_catchvec_t_find__SWIG_0$catch$2 0000000180029a60     tryblks.obj
 0002:0000da60       $unwind$_wrap_catchvec_t_find__SWIG_0$catch$1 0000000180029a60     tryblks.obj
 0002:0000da60       $unwind$_wrap_catchvec_t_find__SWIG_0$catch$5 0000000180029a60     tryblks.obj
 0002:0000da60       $unwind$_wrap_catchvec_t_find__SWIG_0$catch$4 0000000180029a60     tryblks.obj
 0002:0000da70       $unwind$_wrap_catchvec_t_find__SWIG_1 0000000180029a70     tryblks.obj
 0002:0000da90       $tryMap$_wrap_catchvec_t_find__SWIG_1 0000000180029a90     tryblks.obj
 0002:0000daa4       $handlerMap$0$_wrap_catchvec_t_find__SWIG_1 0000000180029aa4     tryblks.obj
 0002:0000db20       $ip2state$_wrap_catchvec_t_find__SWIG_1 0000000180029b20     tryblks.obj
 0002:0000db48       $unwind$_wrap_catchvec_t_find__SWIG_1$catch$4 0000000180029b48     tryblks.obj
 0002:0000db48       $unwind$_wrap_catchvec_t_find__SWIG_1$catch$5 0000000180029b48     tryblks.obj
 0002:0000db48       $unwind$_wrap_catchvec_t_find__SWIG_1$catch$1 0000000180029b48     tryblks.obj
 0002:0000db48       $unwind$_wrap_catchvec_t_find__SWIG_1$catch$0 0000000180029b48     tryblks.obj
 0002:0000db48       $unwind$_wrap_catchvec_t_find__SWIG_1$catch$2 0000000180029b48     tryblks.obj
 0002:0000db48       $unwind$_wrap_catchvec_t_find__SWIG_1$catch$3 0000000180029b48     tryblks.obj
 0002:0000db58       $unwind$_wrap_catchvec_t_has 0000000180029b58     tryblks.obj
 0002:0000db78       $tryMap$_wrap_catchvec_t_has 0000000180029b78     tryblks.obj
 0002:0000db8c       $handlerMap$0$_wrap_catchvec_t_has 0000000180029b8c     tryblks.obj
 0002:0000dc08       $ip2state$_wrap_catchvec_t_has 0000000180029c08     tryblks.obj
 0002:0000dc30       $unwind$_wrap_catchvec_t_has$catch$2 0000000180029c30     tryblks.obj
 0002:0000dc30       $unwind$_wrap_catchvec_t_has$catch$3 0000000180029c30     tryblks.obj
 0002:0000dc30       $unwind$_wrap_catchvec_t_has$catch$5 0000000180029c30     tryblks.obj
 0002:0000dc30       $unwind$_wrap_catchvec_t_has$catch$0 0000000180029c30     tryblks.obj
 0002:0000dc30       $unwind$_wrap_catchvec_t_has$catch$4 0000000180029c30     tryblks.obj
 0002:0000dc30       $unwind$_wrap_catchvec_t_has$catch$1 0000000180029c30     tryblks.obj
 0002:0000dc40       $unwind$_wrap_catchvec_t_add_unique 0000000180029c40     tryblks.obj
 0002:0000dc60       $tryMap$_wrap_catchvec_t_add_unique 0000000180029c60     tryblks.obj
 0002:0000dc74       $handlerMap$0$_wrap_catchvec_t_add_unique 0000000180029c74     tryblks.obj
 0002:0000dcf0       $ip2state$_wrap_catchvec_t_add_unique 0000000180029cf0     tryblks.obj
 0002:0000dd18       $unwind$_wrap_catchvec_t_add_unique$catch$5 0000000180029d18     tryblks.obj
 0002:0000dd18       $unwind$_wrap_catchvec_t_add_unique$catch$4 0000000180029d18     tryblks.obj
 0002:0000dd18       $unwind$_wrap_catchvec_t_add_unique$catch$3 0000000180029d18     tryblks.obj
 0002:0000dd18       $unwind$_wrap_catchvec_t_add_unique$catch$2 0000000180029d18     tryblks.obj
 0002:0000dd18       $unwind$_wrap_catchvec_t_add_unique$catch$0 0000000180029d18     tryblks.obj
 0002:0000dd18       $unwind$_wrap_catchvec_t_add_unique$catch$1 0000000180029d18     tryblks.obj
 0002:0000dd28       $unwind$_wrap_catchvec_t__del 0000000180029d28     tryblks.obj
 0002:0000dd48       $tryMap$_wrap_catchvec_t__del 0000000180029d48     tryblks.obj
 0002:0000dd5c       $handlerMap$0$_wrap_catchvec_t__del 0000000180029d5c     tryblks.obj
 0002:0000ddd8       $ip2state$_wrap_catchvec_t__del 0000000180029dd8     tryblks.obj
 0002:0000de00       $unwind$_wrap_catchvec_t__del$catch$6 0000000180029e00     tryblks.obj
 0002:0000de00       $unwind$_wrap_catchvec_t__del$catch$8 0000000180029e00     tryblks.obj
 0002:0000de00       $unwind$_wrap_catchvec_t__del$catch$7 0000000180029e00     tryblks.obj
 0002:0000de00       $unwind$_wrap_catchvec_t__del$catch$11 0000000180029e00     tryblks.obj
 0002:0000de00       $unwind$_wrap_catchvec_t__del$catch$10 0000000180029e00     tryblks.obj
 0002:0000de00       $unwind$_wrap_catchvec_t__del$catch$9 0000000180029e00     tryblks.obj
 0002:0000de10       $unwind$_wrap_catchvec_t___len__ 0000000180029e10     tryblks.obj
 0002:0000de2c       $tryMap$_wrap_catchvec_t___len__ 0000000180029e2c     tryblks.obj
 0002:0000de40       $handlerMap$0$_wrap_catchvec_t___len__ 0000000180029e40     tryblks.obj
 0002:0000deb8       $ip2state$_wrap_catchvec_t___len__ 0000000180029eb8     tryblks.obj
 0002:0000ded8       $unwind$_wrap_catchvec_t___len__$catch$2 0000000180029ed8     tryblks.obj
 0002:0000ded8       $unwind$_wrap_catchvec_t___len__$catch$5 0000000180029ed8     tryblks.obj
 0002:0000ded8       $unwind$_wrap_catchvec_t___len__$catch$1 0000000180029ed8     tryblks.obj
 0002:0000ded8       $unwind$_wrap_catchvec_t___len__$catch$3 0000000180029ed8     tryblks.obj
 0002:0000ded8       $unwind$_wrap_catchvec_t___len__$catch$4 0000000180029ed8     tryblks.obj
 0002:0000ded8       $unwind$_wrap_catchvec_t___len__$catch$0 0000000180029ed8     tryblks.obj
 0002:0000dee8       $unwind$_wrap_catchvec_t___getitem__ 0000000180029ee8     tryblks.obj
 0002:0000df08       $tryMap$_wrap_catchvec_t___getitem__ 0000000180029f08     tryblks.obj
 0002:0000df1c       $handlerMap$0$_wrap_catchvec_t___getitem__ 0000000180029f1c     tryblks.obj
 0002:0000df98       $ip2state$_wrap_catchvec_t___getitem__ 0000000180029f98     tryblks.obj
 0002:0000dfc0       $unwind$_wrap_catchvec_t___getitem__$catch$2 0000000180029fc0     tryblks.obj
 0002:0000dfc0       $unwind$_wrap_catchvec_t___getitem__$catch$0 0000000180029fc0     tryblks.obj
 0002:0000dfc0       $unwind$_wrap_catchvec_t___getitem__$catch$4 0000000180029fc0     tryblks.obj
 0002:0000dfc0       $unwind$_wrap_catchvec_t___getitem__$catch$3 0000000180029fc0     tryblks.obj
 0002:0000dfc0       $unwind$_wrap_catchvec_t___getitem__$catch$5 0000000180029fc0     tryblks.obj
 0002:0000dfc0       $unwind$_wrap_catchvec_t___getitem__$catch$1 0000000180029fc0     tryblks.obj
 0002:0000dfd0       $unwind$_wrap_catchvec_t___setitem__ 0000000180029fd0     tryblks.obj
 0002:0000dff8       $tryMap$_wrap_catchvec_t___setitem__ 0000000180029ff8     tryblks.obj
 0002:0000e00c       $handlerMap$0$_wrap_catchvec_t___setitem__ 000000018002a00c     tryblks.obj
 0002:0000e088       $ip2state$_wrap_catchvec_t___setitem__ 000000018002a088     tryblks.obj
 0002:0000e0c0       $unwind$_wrap_catchvec_t___setitem__$catch$0 000000018002a0c0     tryblks.obj
 0002:0000e0c0       $unwind$_wrap_catchvec_t___setitem__$catch$1 000000018002a0c0     tryblks.obj
 0002:0000e0c0       $unwind$_wrap_catchvec_t___setitem__$catch$3 000000018002a0c0     tryblks.obj
 0002:0000e0c0       $unwind$_wrap_catchvec_t___setitem__$catch$5 000000018002a0c0     tryblks.obj
 0002:0000e0c0       $unwind$_wrap_catchvec_t___setitem__$catch$4 000000018002a0c0     tryblks.obj
 0002:0000e0c0       $unwind$_wrap_catchvec_t___setitem__$catch$2 000000018002a0c0     tryblks.obj
 0002:0000e0d0       $unwind$_wrap_try_handler_t_fpreg_set 000000018002a0d0     tryblks.obj
 0002:0000e0d0       $unwind$_wrap_catch_t_type_id_set 000000018002a0d0     tryblks.obj
 0002:0000e0d0       $unwind$_wrap_try_handler_t_disp_set 000000018002a0d0     tryblks.obj
 0002:0000e0d0       $unwind$_wrap_seh_t_seh_code_set 000000018002a0d0     tryblks.obj
 0002:0000e0d0       $unwind$_wrap_catch_t_obj_set 000000018002a0d0     tryblks.obj
 0002:0000e0e0       $chain$0$_wrap_try_handler_t_disp_set 000000018002a0e0     tryblks.obj
 0002:0000e0f4       $chain$1$_wrap_try_handler_t_disp_set 000000018002a0f4     tryblks.obj
 0002:0000e104       $unwind$_wrap_try_handler_t_fpreg_get 000000018002a104     tryblks.obj
 0002:0000e104       $unwind$_wrap_catch_t_obj_get 000000018002a104     tryblks.obj
 0002:0000e104       $unwind$_wrap_catch_t_type_id_get 000000018002a104     tryblks.obj
 0002:0000e104       $unwind$_wrap_seh_t_filter_get 000000018002a104     tryblks.obj
 0002:0000e104       $unwind$_wrap_try_handler_t_disp_get 000000018002a104     tryblks.obj
 0002:0000e104       $unwind$_wrap_seh_t_seh_code_get 000000018002a104     tryblks.obj
 0002:0000e104       $unwind$_wrap_tryblk_t_level_get 000000018002a104     tryblks.obj
 0002:0000e114       $chain$0$_wrap_try_handler_t_disp_get 000000018002a114     tryblks.obj
 0002:0000e128       $chain$1$_wrap_try_handler_t_disp_get 000000018002a128     tryblks.obj
 0002:0000e138       $chain$0$_wrap_try_handler_t_fpreg_set 000000018002a138     tryblks.obj
 0002:0000e14c       $chain$1$_wrap_try_handler_t_fpreg_set 000000018002a14c     tryblks.obj
 0002:0000e15c       $chain$0$_wrap_try_handler_t_fpreg_get 000000018002a15c     tryblks.obj
 0002:0000e170       $chain$1$_wrap_try_handler_t_fpreg_get 000000018002a170     tryblks.obj
 0002:0000e180       $unwind$_wrap_new_try_handler_t 000000018002a180     tryblks.obj
 0002:0000e190       $tryMap$_wrap_new_try_handler_t 000000018002a190     tryblks.obj
 0002:0000e1a4       $handlerMap$0$_wrap_new_try_handler_t 000000018002a1a4     tryblks.obj
 0002:0000e220       $ip2state$_wrap_new_try_handler_t 000000018002a220     tryblks.obj
 0002:0000e238       $unwind$_wrap_new_try_handler_t$catch$2 000000018002a238     tryblks.obj
 0002:0000e238       $unwind$_wrap_new_try_handler_t$catch$1 000000018002a238     tryblks.obj
 0002:0000e238       $unwind$_wrap_new_try_handler_t$catch$5 000000018002a238     tryblks.obj
 0002:0000e238       $unwind$_wrap_new_try_handler_t$catch$3 000000018002a238     tryblks.obj
 0002:0000e238       $unwind$_wrap_new_try_handler_t$catch$4 000000018002a238     tryblks.obj
 0002:0000e238       $unwind$_wrap_new_try_handler_t$catch$6 000000018002a238     tryblks.obj
 0002:0000e248       $unwind$_wrap_try_handler_t_clear 000000018002a248     tryblks.obj
 0002:0000e264       $tryMap$_wrap_try_handler_t_clear 000000018002a264     tryblks.obj
 0002:0000e278       $handlerMap$0$_wrap_try_handler_t_clear 000000018002a278     tryblks.obj
 0002:0000e2f0       $ip2state$_wrap_try_handler_t_clear 000000018002a2f0     tryblks.obj
 0002:0000e310       $unwind$_wrap_try_handler_t_clear$catch$2 000000018002a310     tryblks.obj
 0002:0000e310       $unwind$_wrap_try_handler_t_clear$catch$5 000000018002a310     tryblks.obj
 0002:0000e310       $unwind$_wrap_try_handler_t_clear$catch$3 000000018002a310     tryblks.obj
 0002:0000e310       $unwind$_wrap_try_handler_t_clear$catch$0 000000018002a310     tryblks.obj
 0002:0000e310       $unwind$_wrap_try_handler_t_clear$catch$1 000000018002a310     tryblks.obj
 0002:0000e310       $unwind$_wrap_try_handler_t_clear$catch$4 000000018002a310     tryblks.obj
 0002:0000e320       $unwind$_wrap_delete_try_handler_t 000000018002a320     tryblks.obj
 0002:0000e340       $tryMap$_wrap_delete_try_handler_t 000000018002a340     tryblks.obj
 0002:0000e354       $handlerMap$0$_wrap_delete_try_handler_t 000000018002a354     tryblks.obj
 0002:0000e3d0       $ip2state$_wrap_delete_try_handler_t 000000018002a3d0     tryblks.obj
 0002:0000e3f0       $unwind$_wrap_delete_try_handler_t$catch$7 000000018002a3f0     tryblks.obj
 0002:0000e3f0       $unwind$_wrap_delete_try_handler_t$catch$5 000000018002a3f0     tryblks.obj
 0002:0000e3f0       $unwind$_wrap_delete_try_handler_t$catch$6 000000018002a3f0     tryblks.obj
 0002:0000e3f0       $unwind$_wrap_delete_try_handler_t$catch$2 000000018002a3f0     tryblks.obj
 0002:0000e3f0       $unwind$_wrap_delete_try_handler_t$catch$3 000000018002a3f0     tryblks.obj
 0002:0000e3f0       $unwind$_wrap_delete_try_handler_t$catch$4 000000018002a3f0     tryblks.obj
 0002:0000e400       $unwind$_wrap_seh_t_filter_set 000000018002a400     tryblks.obj
 0002:0000e418       $chain$0$_wrap_seh_t_filter_get 000000018002a418     tryblks.obj
 0002:0000e42c       $chain$1$_wrap_seh_t_filter_get 000000018002a42c     tryblks.obj
 0002:0000e43c       $chain$0$_wrap_seh_t_seh_code_set 000000018002a43c     tryblks.obj
 0002:0000e450       $chain$1$_wrap_seh_t_seh_code_set 000000018002a450     tryblks.obj
 0002:0000e460       $chain$0$_wrap_seh_t_seh_code_get 000000018002a460     tryblks.obj
 0002:0000e474       $chain$1$_wrap_seh_t_seh_code_get 000000018002a474     tryblks.obj
 0002:0000e484       $unwind$_wrap_seh_t_clear  000000018002a484     tryblks.obj
 0002:0000e4a0       $tryMap$_wrap_seh_t_clear  000000018002a4a0     tryblks.obj
 0002:0000e4b4       $handlerMap$0$_wrap_seh_t_clear 000000018002a4b4     tryblks.obj
 0002:0000e530       $ip2state$_wrap_seh_t_clear 000000018002a530     tryblks.obj
 0002:0000e550       $unwind$_wrap_seh_t_clear$catch$0 000000018002a550     tryblks.obj
 0002:0000e550       $unwind$_wrap_seh_t_clear$catch$4 000000018002a550     tryblks.obj
 0002:0000e550       $unwind$_wrap_seh_t_clear$catch$5 000000018002a550     tryblks.obj
 0002:0000e550       $unwind$_wrap_seh_t_clear$catch$2 000000018002a550     tryblks.obj
 0002:0000e550       $unwind$_wrap_seh_t_clear$catch$1 000000018002a550     tryblks.obj
 0002:0000e550       $unwind$_wrap_seh_t_clear$catch$3 000000018002a550     tryblks.obj
 0002:0000e560       $unwind$_wrap_new_seh_t    000000018002a560     tryblks.obj
 0002:0000e570       $tryMap$_wrap_new_seh_t    000000018002a570     tryblks.obj
 0002:0000e584       $handlerMap$0$_wrap_new_seh_t 000000018002a584     tryblks.obj
 0002:0000e600       $ip2state$_wrap_new_seh_t  000000018002a600     tryblks.obj
 0002:0000e618       $unwind$_wrap_new_seh_t$catch$3 000000018002a618     tryblks.obj
 0002:0000e618       $unwind$_wrap_new_seh_t$catch$4 000000018002a618     tryblks.obj
 0002:0000e618       $unwind$_wrap_new_seh_t$catch$2 000000018002a618     tryblks.obj
 0002:0000e618       $unwind$_wrap_new_seh_t$catch$1 000000018002a618     tryblks.obj
 0002:0000e618       $unwind$_wrap_new_seh_t$catch$5 000000018002a618     tryblks.obj
 0002:0000e618       $unwind$_wrap_new_seh_t$catch$6 000000018002a618     tryblks.obj
 0002:0000e628       $unwind$_wrap_delete_seh_t 000000018002a628     tryblks.obj
 0002:0000e648       $tryMap$_wrap_delete_seh_t 000000018002a648     tryblks.obj
 0002:0000e65c       $handlerMap$0$_wrap_delete_seh_t 000000018002a65c     tryblks.obj
 0002:0000e6d8       $ip2state$_wrap_delete_seh_t 000000018002a6d8     tryblks.obj
 0002:0000e6f8       $unwind$_wrap_delete_seh_t$catch$6 000000018002a6f8     tryblks.obj
 0002:0000e6f8       $unwind$_wrap_delete_seh_t$catch$5 000000018002a6f8     tryblks.obj
 0002:0000e6f8       $unwind$_wrap_delete_seh_t$catch$8 000000018002a6f8     tryblks.obj
 0002:0000e6f8       $unwind$_wrap_delete_seh_t$catch$4 000000018002a6f8     tryblks.obj
 0002:0000e6f8       $unwind$_wrap_delete_seh_t$catch$9 000000018002a6f8     tryblks.obj
 0002:0000e6f8       $unwind$_wrap_delete_seh_t$catch$7 000000018002a6f8     tryblks.obj
 0002:0000e708       $chain$0$_wrap_catch_t_obj_set 000000018002a708     tryblks.obj
 0002:0000e71c       $chain$1$_wrap_catch_t_obj_set 000000018002a71c     tryblks.obj
 0002:0000e72c       $chain$0$_wrap_catch_t_obj_get 000000018002a72c     tryblks.obj
 0002:0000e740       $chain$1$_wrap_catch_t_obj_get 000000018002a740     tryblks.obj
 0002:0000e750       $chain$0$_wrap_catch_t_type_id_set 000000018002a750     tryblks.obj
 0002:0000e764       $chain$1$_wrap_catch_t_type_id_set 000000018002a764     tryblks.obj
 0002:0000e774       $chain$0$_wrap_catch_t_type_id_get 000000018002a774     tryblks.obj
 0002:0000e788       $chain$1$_wrap_catch_t_type_id_get 000000018002a788     tryblks.obj
 0002:0000e798       $unwind$_wrap_new_catch_t  000000018002a798     tryblks.obj
 0002:0000e7a8       $tryMap$_wrap_new_catch_t  000000018002a7a8     tryblks.obj
 0002:0000e7bc       $handlerMap$0$_wrap_new_catch_t 000000018002a7bc     tryblks.obj
 0002:0000e838       $ip2state$_wrap_new_catch_t 000000018002a838     tryblks.obj
 0002:0000e850       $unwind$_wrap_new_catch_t$catch$3 000000018002a850     tryblks.obj
 0002:0000e850       $unwind$_wrap_new_catch_t$catch$2 000000018002a850     tryblks.obj
 0002:0000e850       $unwind$_wrap_new_catch_t$catch$5 000000018002a850     tryblks.obj
 0002:0000e850       $unwind$_wrap_new_catch_t$catch$1 000000018002a850     tryblks.obj
 0002:0000e850       $unwind$_wrap_new_catch_t$catch$6 000000018002a850     tryblks.obj
 0002:0000e850       $unwind$_wrap_new_catch_t$catch$4 000000018002a850     tryblks.obj
 0002:0000e860       $unwind$_wrap_delete_catch_t 000000018002a860     tryblks.obj
 0002:0000e880       $tryMap$_wrap_delete_catch_t 000000018002a880     tryblks.obj
 0002:0000e894       $handlerMap$0$_wrap_delete_catch_t 000000018002a894     tryblks.obj
 0002:0000e910       $ip2state$_wrap_delete_catch_t 000000018002a910     tryblks.obj
 0002:0000e930       $unwind$_wrap_delete_catch_t$catch$8 000000018002a930     tryblks.obj
 0002:0000e930       $unwind$_wrap_delete_catch_t$catch$6 000000018002a930     tryblks.obj
 0002:0000e930       $unwind$_wrap_delete_catch_t$catch$5 000000018002a930     tryblks.obj
 0002:0000e930       $unwind$_wrap_delete_catch_t$catch$3 000000018002a930     tryblks.obj
 0002:0000e930       $unwind$_wrap_delete_catch_t$catch$7 000000018002a930     tryblks.obj
 0002:0000e930       $unwind$_wrap_delete_catch_t$catch$4 000000018002a930     tryblks.obj
 0002:0000e940       $unwind$_wrap_tryblk_t_level_set 000000018002a940     tryblks.obj
 0002:0000e954       $chain$0$_wrap_tryblk_t_level_set 000000018002a954     tryblks.obj
 0002:0000e968       $chain$1$_wrap_tryblk_t_level_set 000000018002a968     tryblks.obj
 0002:0000e978       $chain$0$_wrap_tryblk_t_level_get 000000018002a978     tryblks.obj
 0002:0000e98c       $chain$1$_wrap_tryblk_t_level_get 000000018002a98c     tryblks.obj
 0002:0000e99c       $unwind$_wrap_tryblk_t_cpp 000000018002a99c     tryblks.obj
 0002:0000e9b8       $tryMap$_wrap_tryblk_t_cpp 000000018002a9b8     tryblks.obj
 0002:0000e9cc       $handlerMap$0$_wrap_tryblk_t_cpp 000000018002a9cc     tryblks.obj
 0002:0000ea48       $ip2state$_wrap_tryblk_t_cpp 000000018002aa48     tryblks.obj
 0002:0000ea68       $unwind$_wrap_tryblk_t_cpp$catch$2 000000018002aa68     tryblks.obj
 0002:0000ea68       $unwind$_wrap_tryblk_t_cpp$catch$5 000000018002aa68     tryblks.obj
 0002:0000ea68       $unwind$_wrap_tryblk_t_cpp$catch$4 000000018002aa68     tryblks.obj
 0002:0000ea68       $unwind$_wrap_tryblk_t_cpp$catch$3 000000018002aa68     tryblks.obj
 0002:0000ea68       $unwind$_wrap_tryblk_t_cpp$catch$0 000000018002aa68     tryblks.obj
 0002:0000ea68       $unwind$_wrap_tryblk_t_cpp$catch$1 000000018002aa68     tryblks.obj
 0002:0000ea78       $unwind$_wrap_tryblk_t_seh 000000018002aa78     tryblks.obj
 0002:0000ea94       $tryMap$_wrap_tryblk_t_seh 000000018002aa94     tryblks.obj
 0002:0000eaa8       $handlerMap$0$_wrap_tryblk_t_seh 000000018002aaa8     tryblks.obj
 0002:0000eb20       $ip2state$_wrap_tryblk_t_seh 000000018002ab20     tryblks.obj
 0002:0000eb40       $unwind$_wrap_tryblk_t_seh$catch$4 000000018002ab40     tryblks.obj
 0002:0000eb40       $unwind$_wrap_tryblk_t_seh$catch$5 000000018002ab40     tryblks.obj
 0002:0000eb40       $unwind$_wrap_tryblk_t_seh$catch$0 000000018002ab40     tryblks.obj
 0002:0000eb40       $unwind$_wrap_tryblk_t_seh$catch$3 000000018002ab40     tryblks.obj
 0002:0000eb40       $unwind$_wrap_tryblk_t_seh$catch$2 000000018002ab40     tryblks.obj
 0002:0000eb40       $unwind$_wrap_tryblk_t_seh$catch$1 000000018002ab40     tryblks.obj
 0002:0000eb50       $unwind$_wrap_new_tryblk_t__SWIG_0 000000018002ab50     tryblks.obj
 0002:0000eb60       $tryMap$_wrap_new_tryblk_t__SWIG_0 000000018002ab60     tryblks.obj
 0002:0000eb74       $handlerMap$0$_wrap_new_tryblk_t__SWIG_0 000000018002ab74     tryblks.obj
 0002:0000ebf0       $ip2state$_wrap_new_tryblk_t__SWIG_0 000000018002abf0     tryblks.obj
 0002:0000ec08       $unwind$_wrap_new_tryblk_t__SWIG_0$catch$1 000000018002ac08     tryblks.obj
 0002:0000ec08       $unwind$_wrap_new_tryblk_t__SWIG_0$catch$6 000000018002ac08     tryblks.obj
 0002:0000ec08       $unwind$_wrap_new_tryblk_t__SWIG_0$catch$5 000000018002ac08     tryblks.obj
 0002:0000ec08       $unwind$_wrap_new_tryblk_t__SWIG_0$catch$4 000000018002ac08     tryblks.obj
 0002:0000ec08       $unwind$_wrap_new_tryblk_t__SWIG_0$catch$3 000000018002ac08     tryblks.obj
 0002:0000ec08       $unwind$_wrap_new_tryblk_t__SWIG_0$catch$2 000000018002ac08     tryblks.obj
 0002:0000ec18       $unwind$_wrap_delete_tryblk_t 000000018002ac18     tryblks.obj
 0002:0000ec38       $tryMap$_wrap_delete_tryblk_t 000000018002ac38     tryblks.obj
 0002:0000ec4c       $handlerMap$0$_wrap_delete_tryblk_t 000000018002ac4c     tryblks.obj
 0002:0000ecc8       $ip2state$_wrap_delete_tryblk_t 000000018002acc8     tryblks.obj
 0002:0000ece8       $unwind$_wrap_delete_tryblk_t$catch$3 000000018002ace8     tryblks.obj
 0002:0000ece8       $unwind$_wrap_delete_tryblk_t$catch$4 000000018002ace8     tryblks.obj
 0002:0000ece8       $unwind$_wrap_delete_tryblk_t$catch$2 000000018002ace8     tryblks.obj
 0002:0000ece8       $unwind$_wrap_delete_tryblk_t$catch$5 000000018002ace8     tryblks.obj
 0002:0000ece8       $unwind$_wrap_delete_tryblk_t$catch$6 000000018002ace8     tryblks.obj
 0002:0000ece8       $unwind$_wrap_delete_tryblk_t$catch$7 000000018002ace8     tryblks.obj
 0002:0000ecf8       $unwind$_wrap_new_tryblk_t__SWIG_1 000000018002acf8     tryblks.obj
 0002:0000ed18       $tryMap$_wrap_new_tryblk_t__SWIG_1 000000018002ad18     tryblks.obj
 0002:0000ed2c       $handlerMap$0$_wrap_new_tryblk_t__SWIG_1 000000018002ad2c     tryblks.obj
 0002:0000eda8       $ip2state$_wrap_new_tryblk_t__SWIG_1 000000018002ada8     tryblks.obj
 0002:0000edc8       $unwind$_wrap_new_tryblk_t__SWIG_1$catch$5 000000018002adc8     tryblks.obj
 0002:0000edc8       $unwind$_wrap_new_tryblk_t__SWIG_1$catch$6 000000018002adc8     tryblks.obj
 0002:0000edc8       $unwind$_wrap_new_tryblk_t__SWIG_1$catch$1 000000018002adc8     tryblks.obj
 0002:0000edc8       $unwind$_wrap_new_tryblk_t__SWIG_1$catch$4 000000018002adc8     tryblks.obj
 0002:0000edc8       $unwind$_wrap_new_tryblk_t__SWIG_1$catch$3 000000018002adc8     tryblks.obj
 0002:0000edc8       $unwind$_wrap_new_tryblk_t__SWIG_1$catch$2 000000018002adc8     tryblks.obj
 0002:0000edd8       $unwind$_wrap_tryblk_t_get_kind 000000018002add8     tryblks.obj
 0002:0000edf4       $tryMap$_wrap_tryblk_t_get_kind 000000018002adf4     tryblks.obj
 0002:0000ee08       $handlerMap$0$_wrap_tryblk_t_get_kind 000000018002ae08     tryblks.obj
 0002:0000ee80       $ip2state$_wrap_tryblk_t_get_kind 000000018002ae80     tryblks.obj
 0002:0000eea0       $unwind$_wrap_tryblk_t_get_kind$catch$5 000000018002aea0     tryblks.obj
 0002:0000eea0       $unwind$_wrap_tryblk_t_get_kind$catch$4 000000018002aea0     tryblks.obj
 0002:0000eea0       $unwind$_wrap_tryblk_t_get_kind$catch$3 000000018002aea0     tryblks.obj
 0002:0000eea0       $unwind$_wrap_tryblk_t_get_kind$catch$2 000000018002aea0     tryblks.obj
 0002:0000eea0       $unwind$_wrap_tryblk_t_get_kind$catch$1 000000018002aea0     tryblks.obj
 0002:0000eea0       $unwind$_wrap_tryblk_t_get_kind$catch$0 000000018002aea0     tryblks.obj
 0002:0000eeb0       $unwind$_wrap_tryblk_t_empty 000000018002aeb0     tryblks.obj
 0002:0000eed0       $tryMap$_wrap_tryblk_t_empty 000000018002aed0     tryblks.obj
 0002:0000eee4       $handlerMap$0$_wrap_tryblk_t_empty 000000018002aee4     tryblks.obj
 0002:0000ef60       $ip2state$_wrap_tryblk_t_empty 000000018002af60     tryblks.obj
 0002:0000ef80       $unwind$_wrap_tryblk_t_empty$catch$5 000000018002af80     tryblks.obj
 0002:0000ef80       $unwind$_wrap_tryblk_t_empty$catch$4 000000018002af80     tryblks.obj
 0002:0000ef80       $unwind$_wrap_tryblk_t_empty$catch$3 000000018002af80     tryblks.obj
 0002:0000ef80       $unwind$_wrap_tryblk_t_empty$catch$2 000000018002af80     tryblks.obj
 0002:0000ef80       $unwind$_wrap_tryblk_t_empty$catch$1 000000018002af80     tryblks.obj
 0002:0000ef80       $unwind$_wrap_tryblk_t_empty$catch$0 000000018002af80     tryblks.obj
 0002:0000ef90       $unwind$_wrap_tryblk_t_is_seh 000000018002af90     tryblks.obj
 0002:0000efb0       $tryMap$_wrap_tryblk_t_is_seh 000000018002afb0     tryblks.obj
 0002:0000efc4       $handlerMap$0$_wrap_tryblk_t_is_seh 000000018002afc4     tryblks.obj
 0002:0000f040       $ip2state$_wrap_tryblk_t_is_seh 000000018002b040     tryblks.obj
 0002:0000f060       $unwind$_wrap_tryblk_t_is_seh$catch$5 000000018002b060     tryblks.obj
 0002:0000f060       $unwind$_wrap_tryblk_t_is_seh$catch$4 000000018002b060     tryblks.obj
 0002:0000f060       $unwind$_wrap_tryblk_t_is_seh$catch$3 000000018002b060     tryblks.obj
 0002:0000f060       $unwind$_wrap_tryblk_t_is_seh$catch$2 000000018002b060     tryblks.obj
 0002:0000f060       $unwind$_wrap_tryblk_t_is_seh$catch$1 000000018002b060     tryblks.obj
 0002:0000f060       $unwind$_wrap_tryblk_t_is_seh$catch$0 000000018002b060     tryblks.obj
 0002:0000f070       $unwind$_wrap_tryblk_t_is_cpp 000000018002b070     tryblks.obj
 0002:0000f090       $tryMap$_wrap_tryblk_t_is_cpp 000000018002b090     tryblks.obj
 0002:0000f0a4       $handlerMap$0$_wrap_tryblk_t_is_cpp 000000018002b0a4     tryblks.obj
 0002:0000f120       $ip2state$_wrap_tryblk_t_is_cpp 000000018002b120     tryblks.obj
 0002:0000f140       $unwind$_wrap_tryblk_t_is_cpp$catch$3 000000018002b140     tryblks.obj
 0002:0000f140       $unwind$_wrap_tryblk_t_is_cpp$catch$4 000000018002b140     tryblks.obj
 0002:0000f140       $unwind$_wrap_tryblk_t_is_cpp$catch$5 000000018002b140     tryblks.obj
 0002:0000f140       $unwind$_wrap_tryblk_t_is_cpp$catch$0 000000018002b140     tryblks.obj
 0002:0000f140       $unwind$_wrap_tryblk_t_is_cpp$catch$2 000000018002b140     tryblks.obj
 0002:0000f140       $unwind$_wrap_tryblk_t_is_cpp$catch$1 000000018002b140     tryblks.obj
 0002:0000f150       $unwind$_wrap_tryblk_t_clear 000000018002b150     tryblks.obj
 0002:0000f16c       $tryMap$_wrap_tryblk_t_clear 000000018002b16c     tryblks.obj
 0002:0000f180       $handlerMap$0$_wrap_tryblk_t_clear 000000018002b180     tryblks.obj
 0002:0000f1f8       $ip2state$_wrap_tryblk_t_clear 000000018002b1f8     tryblks.obj
 0002:0000f218       $unwind$_wrap_tryblk_t_clear$catch$0 000000018002b218     tryblks.obj
 0002:0000f218       $unwind$_wrap_tryblk_t_clear$catch$1 000000018002b218     tryblks.obj
 0002:0000f218       $unwind$_wrap_tryblk_t_clear$catch$3 000000018002b218     tryblks.obj
 0002:0000f218       $unwind$_wrap_tryblk_t_clear$catch$2 000000018002b218     tryblks.obj
 0002:0000f218       $unwind$_wrap_tryblk_t_clear$catch$4 000000018002b218     tryblks.obj
 0002:0000f218       $unwind$_wrap_tryblk_t_clear$catch$5 000000018002b218     tryblks.obj
 0002:0000f228       $unwind$_wrap_tryblk_t_set_seh 000000018002b228     tryblks.obj
 0002:0000f248       $tryMap$_wrap_tryblk_t_set_seh 000000018002b248     tryblks.obj
 0002:0000f25c       $handlerMap$0$_wrap_tryblk_t_set_seh 000000018002b25c     tryblks.obj
 0002:0000f2d8       $ip2state$_wrap_tryblk_t_set_seh 000000018002b2d8     tryblks.obj
 0002:0000f2f8       $unwind$_wrap_tryblk_t_set_seh$catch$5 000000018002b2f8     tryblks.obj
 0002:0000f2f8       $unwind$_wrap_tryblk_t_set_seh$catch$4 000000018002b2f8     tryblks.obj
 0002:0000f2f8       $unwind$_wrap_tryblk_t_set_seh$catch$3 000000018002b2f8     tryblks.obj
 0002:0000f2f8       $unwind$_wrap_tryblk_t_set_seh$catch$2 000000018002b2f8     tryblks.obj
 0002:0000f2f8       $unwind$_wrap_tryblk_t_set_seh$catch$1 000000018002b2f8     tryblks.obj
 0002:0000f2f8       $unwind$_wrap_tryblk_t_set_seh$catch$0 000000018002b2f8     tryblks.obj
 0002:0000f308       $unwind$_wrap_tryblk_t_set_cpp 000000018002b308     tryblks.obj
 0002:0000f328       $tryMap$_wrap_tryblk_t_set_cpp 000000018002b328     tryblks.obj
 0002:0000f33c       $handlerMap$0$_wrap_tryblk_t_set_cpp 000000018002b33c     tryblks.obj
 0002:0000f3b8       $ip2state$_wrap_tryblk_t_set_cpp 000000018002b3b8     tryblks.obj
 0002:0000f3d8       $unwind$_wrap_tryblk_t_set_cpp$catch$5 000000018002b3d8     tryblks.obj
 0002:0000f3d8       $unwind$_wrap_tryblk_t_set_cpp$catch$4 000000018002b3d8     tryblks.obj
 0002:0000f3d8       $unwind$_wrap_tryblk_t_set_cpp$catch$3 000000018002b3d8     tryblks.obj
 0002:0000f3d8       $unwind$_wrap_tryblk_t_set_cpp$catch$2 000000018002b3d8     tryblks.obj
 0002:0000f3d8       $unwind$_wrap_tryblk_t_set_cpp$catch$1 000000018002b3d8     tryblks.obj
 0002:0000f3d8       $unwind$_wrap_tryblk_t_set_cpp$catch$0 000000018002b3d8     tryblks.obj
 0002:0000f3e8       $unwind$_wrap_get_tryblks  000000018002b3e8     tryblks.obj
 0002:0000f408       $tryMap$_wrap_get_tryblks  000000018002b408     tryblks.obj
 0002:0000f41c       $handlerMap$0$_wrap_get_tryblks 000000018002b41c     tryblks.obj
 0002:0000f498       $ip2state$_wrap_get_tryblks 000000018002b498     tryblks.obj
 0002:0000f4c0       $unwind$_wrap_get_tryblks$catch$0 000000018002b4c0     tryblks.obj
 0002:0000f4c0       $unwind$_wrap_get_tryblks$catch$3 000000018002b4c0     tryblks.obj
 0002:0000f4c0       $unwind$_wrap_get_tryblks$catch$2 000000018002b4c0     tryblks.obj
 0002:0000f4c0       $unwind$_wrap_get_tryblks$catch$1 000000018002b4c0     tryblks.obj
 0002:0000f4c0       $unwind$_wrap_get_tryblks$catch$5 000000018002b4c0     tryblks.obj
 0002:0000f4c0       $unwind$_wrap_get_tryblks$catch$4 000000018002b4c0     tryblks.obj
 0002:0000f4d0       $unwind$_wrap_del_tryblks  000000018002b4d0     tryblks.obj
 0002:0000f4ec       $tryMap$_wrap_del_tryblks  000000018002b4ec     tryblks.obj
 0002:0000f500       $handlerMap$0$_wrap_del_tryblks 000000018002b500     tryblks.obj
 0002:0000f578       $ip2state$_wrap_del_tryblks 000000018002b578     tryblks.obj
 0002:0000f598       $unwind$_wrap_del_tryblks$catch$2 000000018002b598     tryblks.obj
 0002:0000f598       $unwind$_wrap_del_tryblks$catch$5 000000018002b598     tryblks.obj
 0002:0000f598       $unwind$_wrap_del_tryblks$catch$3 000000018002b598     tryblks.obj
 0002:0000f598       $unwind$_wrap_del_tryblks$catch$4 000000018002b598     tryblks.obj
 0002:0000f598       $unwind$_wrap_del_tryblks$catch$1 000000018002b598     tryblks.obj
 0002:0000f598       $unwind$_wrap_del_tryblks$catch$0 000000018002b598     tryblks.obj
 0002:0000f5a8       $unwind$_wrap_add_tryblk   000000018002b5a8     tryblks.obj
 0002:0000f5c4       $tryMap$_wrap_add_tryblk   000000018002b5c4     tryblks.obj
 0002:0000f5d8       $handlerMap$0$_wrap_add_tryblk 000000018002b5d8     tryblks.obj
 0002:0000f650       $ip2state$_wrap_add_tryblk 000000018002b650     tryblks.obj
 0002:0000f670       $unwind$_wrap_add_tryblk$catch$2 000000018002b670     tryblks.obj
 0002:0000f670       $unwind$_wrap_add_tryblk$catch$4 000000018002b670     tryblks.obj
 0002:0000f670       $unwind$_wrap_add_tryblk$catch$1 000000018002b670     tryblks.obj
 0002:0000f670       $unwind$_wrap_add_tryblk$catch$5 000000018002b670     tryblks.obj
 0002:0000f670       $unwind$_wrap_add_tryblk$catch$3 000000018002b670     tryblks.obj
 0002:0000f670       $unwind$_wrap_add_tryblk$catch$0 000000018002b670     tryblks.obj
 0002:0000f680       $unwind$_wrap_find_syseh   000000018002b680     tryblks.obj
 0002:0000f694       $tryMap$_wrap_find_syseh   000000018002b694     tryblks.obj
 0002:0000f6a8       $handlerMap$0$_wrap_find_syseh 000000018002b6a8     tryblks.obj
 0002:0000f720       $ip2state$_wrap_find_syseh 000000018002b720     tryblks.obj
 0002:0000f738       $unwind$_wrap_find_syseh$catch$4 000000018002b738     tryblks.obj
 0002:0000f738       $unwind$_wrap_find_syseh$catch$1 000000018002b738     tryblks.obj
 0002:0000f738       $unwind$_wrap_find_syseh$catch$2 000000018002b738     tryblks.obj
 0002:0000f738       $unwind$_wrap_find_syseh$catch$3 000000018002b738     tryblks.obj
 0002:0000f738       $unwind$_wrap_find_syseh$catch$0 000000018002b738     tryblks.obj
 0002:0000f738       $unwind$_wrap_find_syseh$catch$5 000000018002b738     tryblks.obj
 0002:0000f748       $unwind$SWIG_InitializeModule 000000018002b748     tryblks.obj
 0002:0000f758       $chain$1$SWIG_InitializeModule 000000018002b758     tryblks.obj
 0002:0000f76c       $chain$4$SWIG_InitializeModule 000000018002b76c     tryblks.obj
 0002:0000f788       $chain$5$SWIG_InitializeModule 000000018002b788     tryblks.obj
 0002:0000f798       $chain$6$SWIG_InitializeModule 000000018002b798     tryblks.obj
 0002:0000f7a8       $unwind$SWIG_Python_FixMethods 000000018002b7a8     tryblks.obj
 0002:0000f7b4       $chain$4$SWIG_Python_FixMethods 000000018002b7b4     tryblks.obj
 0002:0000f7d8       $chain$5$SWIG_Python_FixMethods 000000018002b7d8     tryblks.obj
 0002:0000f7e8       $unwind$PyInit__ida_tryblks 000000018002b7e8     tryblks.obj
 0002:0000f7f8       $chain$1$PyInit__ida_tryblks 000000018002b7f8     tryblks.obj
 0002:0000f810       $chain$2$PyInit__ida_tryblks 000000018002b810     tryblks.obj
 0002:0000f824       $chain$3$PyInit__ida_tryblks 000000018002b824     tryblks.obj
 0002:0000f834       $chain$4$PyInit__ida_tryblks 000000018002b834     tryblks.obj
 0002:0000f844       $chain$5$PyInit__ida_tryblks 000000018002b844     tryblks.obj
 0002:0000f85c       $unwind$?__scrt_initialize_thread_safe_statics@@YAHXZ 000000018002b85c     MSVCRT:thread_safe_statics.obj
 0002:0000f874       $stateUnwindMap$?__scrt_initialize_thread_safe_statics@@YAHXZ 000000018002b874     MSVCRT:thread_safe_statics.obj
 0002:0000f880       $ip2state$?__scrt_initialize_thread_safe_statics@@YAHXZ 000000018002b880     MSVCRT:thread_safe_statics.obj
 0002:0000f888       $unwind$__GSHandlerCheckCommon 000000018002b888     MSVCRT:gshandler.obj
 0002:0000f890       $unwind$__GSHandlerCheck_EH 000000018002b890     MSVCRT:gshandlereh.obj
 0002:0000f8a8       $xdatasym                  000000018002b8a8     MSVCRT:amdsecgs.obj
 0002:0000f8ac       $unwind$?dllmain_crt_process_attach@@YAHQEAUHINSTANCE__@@QEAX@Z 000000018002b8ac     MSVCRT:dll_dllmain.obj
 0002:0000f8e8       $unwind$?fin$0@?0??dllmain_crt_process_detach@@YAH_N@Z@4HA 000000018002b8e8     MSVCRT:dll_dllmain.obj
 0002:0000f8e8       $unwind$?fin$0@?0??dllmain_crt_process_attach@@YAHQEAUHINSTANCE__@@QEAX@Z@4HA 000000018002b8e8     MSVCRT:dll_dllmain.obj
 0002:0000f8f0       $unwind$?dllmain_crt_process_detach@@YAH_N@Z 000000018002b8f0     MSVCRT:dll_dllmain.obj
 0002:0000f928       $unwind$?dllmain_dispatch@@YAHQEAUHINSTANCE__@@KQEAX@Z 000000018002b928     MSVCRT:dll_dllmain.obj
 0002:0000f950       $unwind$?filt$0@?0??dllmain_dispatch@@YAHQEAUHINSTANCE__@@KQEAX@Z@4HA 000000018002b950     MSVCRT:dll_dllmain.obj
 0002:0000f958       $unwind$__scrt_is_nonwritable_in_current_image 000000018002b958     MSVCRT:utility.obj
 0002:0000f978       $unwind$__scrt_is_nonwritable_in_current_image$filt$0 000000018002b978     MSVCRT:utility.obj
 0002:0000f980       $unwind$__scrt_initialize_onexit_tables 000000018002b980     MSVCRT:utility.obj
 0002:0000f988       $unwind$__scrt_dllmain_exception_filter 000000018002b988     MSVCRT:utility.obj
 0002:0000f99c       $unwind$__scrt_fastfail    000000018002b99c     MSVCRT:utility_desktop.obj
 0002:0000f9ac       $unwind$__report_gsfailure 000000018002b9ac     MSVCRT:gs_report.obj
 0002:0000f9b4       $unwind$capture_previous_context 000000018002b9b4     MSVCRT:gs_report.obj
 0002:0000f9c0       $unwind$__security_init_cookie 000000018002b9c0     MSVCRT:gs_support.obj
 0002:0000f9cc       $unwind$__isa_available_init 000000018002b9cc     MSVCRT:cpu_disp.obj
 0002:0000f9e0       $xdatasym                  000000018002b9e0     MSVCRT:guard_dispatch.obj
 0002:0000faa0       .edata                     000000018002baa0     _ida_tryblks.exp
 0002:0000fac8       rgpv                       000000018002bac8     _ida_tryblks.exp
 0002:0000facc       rgszName                   000000018002bacc     _ida_tryblks.exp
 0002:0000fad0       rgwOrd                     000000018002bad0     _ida_tryblks.exp
 0002:0000fad2       szName                     000000018002bad2     _ida_tryblks.exp
 0002:0000fae3       $N00001                    000000018002bae3     _ida_tryblks.exp
 0002:000100c0       .idata$6                   000000018002c0c0     ida:ida.dll
 0002:0001065e       .idata$6                   000000018002c65e     python38:python38.dll
 0002:0001067c       .idata$6                   000000018002c67c     python:python.dll
 0002:000108d4       .idata$6                   000000018002c8d4     kernel32:KERNEL32.dll
 0002:000109b2       .idata$6                   000000018002c9b2     vcruntime:VCRUNTIME140.dll
 0002:00010adc       .idata$6                   000000018002cadc     ucrt:api-ms-win-crt-stdio-l1-1-0.dll
 0002:00010afc       .idata$6                   000000018002cafc     ucrt:api-ms-win-crt-string-l1-1-0.dll
 0002:00010b1e       .idata$6                   000000018002cb1e     ucrt:api-ms-win-crt-heap-l1-1-0.dll
 0002:00010b3e       .idata$6                   000000018002cb3e     ucrt:api-ms-win-crt-runtime-l1-1-0.dll
 0003:00000000       SwigMethods                000000018002d000     tryblks.obj
 0003:00000dc0       _swigt__p__qstringT_char_t 000000018002ddc0     tryblks.obj
 0003:00000df0       _swigt__p__qstringT_unsigned_char_t 000000018002ddf0     tryblks.obj
 0003:00000e20       _swigt__p__qstringT_unsigned_short_t 000000018002de20     tryblks.obj
 0003:00000e50       _swigt__p_action_ctx_base_t 000000018002de50     tryblks.obj
 0003:00000e80       _swigt__p_biggest_t        000000018002de80     tryblks.obj
 0003:00000eb0       _swigt__p_catch_t          000000018002deb0     tryblks.obj
 0003:00000ee0       _swigt__p_char             000000018002dee0     tryblks.obj
 0003:00000f10       _swigt__p_const_iterator   000000018002df10     tryblks.obj
 0003:00000f40       _swigt__p_f_p_TWidget_int_int_p_void__bool 000000018002df40     tryblks.obj
 0003:00000f70       _swigt__p_f_p_TWidget_int_p_view_mouse_event_t_p_void__void 000000018002df70     tryblks.obj
 0003:00000fa0       _swigt__p_f_p_TWidget_int_p_void__bool 000000018002dfa0     tryblks.obj
 0003:00000fd0       _swigt__p_f_p_TWidget_p_lochist_entry_t_p_void__void 000000018002dfd0     tryblks.obj
 0003:00001000       _swigt__p_f_p_TWidget_p_q_const__lochist_entry_t_p_q_const__lochist_entry_t_r_q_const__locchange_md_t_p_void__void 000000018002e000     tryblks.obj
 0003:00001030       _swigt__p_f_p_TWidget_p_q_const__lochist_entry_t_r_q_const__locchange_md_t_p_void__int 000000018002e030     tryblks.obj
 0003:00001060       _swigt__p_f_p_TWidget_p_q_const__place_t_int_int_p_void__void 000000018002e060     tryblks.obj
 0003:00001090       _swigt__p_f_p_TWidget_p_q_const__place_t_p_int_p_void__int 000000018002e090     tryblks.obj
 0003:000010c0       _swigt__p_f_p_TWidget_p_q_const__place_t_p_q_const__place_t_p_void__int 000000018002e0c0     tryblks.obj
 0003:000010f0       _swigt__p_f_p_TWidget_p_q_const__place_t_p_unsigned_int_p_void__bool 000000018002e0f0     tryblks.obj
 0003:00001120       _swigt__p_f_p_TWidget_p_void__int 000000018002e120     tryblks.obj
 0003:00001150       _swigt__p_f_p_TWidget_p_void__void 000000018002e150     tryblks.obj
 0003:00001180       _swigt__p_f_p_chooser_multi_t_p_sizevec_t__chooser_base_t__cbres_t 000000018002e180     tryblks.obj
 0003:000011b0       _swigt__p_f_p_chooser_t_ssize_t__chooser_t__cbret_t 000000018002e1b0     tryblks.obj
 0003:000011e0       _swigt__p_f_p_lochist_entry_t_r_q_const__lochist_entry_t_p_TWidget__bool 000000018002e1e0     tryblks.obj
 0003:00001210       _swigt__p_f_p_q_const__char_p_void__void 000000018002e210     tryblks.obj
 0003:00001240       _swigt__p_f_p_q_const__char_r_q_const__tinfo_t_p_q_const__char_p_q_const__unsigned_long_long_p_void__int 000000018002e240     tryblks.obj
 0003:00001270       _swigt__p_f_p_q_const__char_v_______int 000000018002e270     tryblks.obj
 0003:000012a0       _swigt__p_f_p_void_int_va_list__ssize_t 000000018002e2a0     tryblks.obj
 0003:000012d0       _swigt__p_f_r_q_const__insn_t_p_int_p_int__bool 000000018002e2d0     tryblks.obj
 0003:00001300       _swigt__p_f_r_q_const__insn_t_r_q_const__op_t_r_q_const__tinfo_t_p_q_const__char__bool 000000018002e300     tryblks.obj
 0003:00001330       _swigt__p_f_unsigned_int__bool 000000018002e330     tryblks.obj
 0003:00001360       _swigt__p_f_unsigned_int_p_q_const__char_unsigned_int_p_void__int 000000018002e360     tryblks.obj
 0003:00001390       _swigt__p_f_unsigned_int_p_void__bool 000000018002e390     tryblks.obj
 0003:000013c0       _swigt__p_f_unsigned_int_r_q_const__tinfo_t_p_void__int 000000018002e3c0     tryblks.obj
 0003:000013f0       _swigt__p_f_unsigned_int_unsigned_int__unsigned_int 000000018002e3f0     tryblks.obj
 0003:00001420       _swigt__p_int              000000018002e420     tryblks.obj
 0003:00001450       _swigt__p_iterator         000000018002e450     tryblks.obj
 0003:00001480       _swigt__p_location_t       000000018002e480     tryblks.obj
 0003:000014b0       _swigt__p_long_long        000000018002e4b0     tryblks.obj
 0003:000014e0       _swigt__p_qvectorT__qstringT_unsigned_short_t_t 000000018002e4e0     tryblks.obj
 0003:00001510       _swigt__p_qvectorT_argloc_t_t 000000018002e510     tryblks.obj
 0003:00001540       _swigt__p_qvectorT_bool_t  000000018002e540     tryblks.obj
 0003:00001570       _swigt__p_qvectorT_catch_t_t 000000018002e570     tryblks.obj
 0003:000015a0       _swigt__p_qvectorT_channel_redir_t_t 000000018002e5a0     tryblks.obj
 0003:000015d0       _swigt__p_qvectorT_compiled_binpat_t_t 000000018002e5d0     tryblks.obj
 0003:00001600       _swigt__p_qvectorT_funcarg_t_t 000000018002e600     tryblks.obj
 0003:00001630       _swigt__p_qvectorT_int_t   000000018002e630     tryblks.obj
 0003:00001660       _swigt__p_qvectorT_range_t_t 000000018002e660     tryblks.obj
 0003:00001690       _swigt__p_qvectorT_rangeset_t_const_p_t 000000018002e690     tryblks.obj
 0003:000016c0       _swigt__p_qvectorT_rangeset_t_t 000000018002e6c0     tryblks.obj
 0003:000016f0       _swigt__p_qvectorT_refinfo_desc_t_t 000000018002e6f0     tryblks.obj
 0003:00001720       _swigt__p_qvectorT_simd_info_t_t 000000018002e720     tryblks.obj
 0003:00001750       _swigt__p_qvectorT_simpleline_t_t 000000018002e750     tryblks.obj
 0003:00001780       _swigt__p_qvectorT_size_t_t 000000018002e780     tryblks.obj
 0003:000017b0       _swigt__p_qvectorT_tinfo_t_t 000000018002e7b0     tryblks.obj
 0003:000017e0       _swigt__p_qvectorT_tryblk_t_t 000000018002e7e0     tryblks.obj
 0003:00001810       _swigt__p_qvectorT_type_attr_t_t 000000018002e810     tryblks.obj
 0003:00001840       _swigt__p_qvectorT_udt_member_t_t 000000018002e840     tryblks.obj
 0003:00001870       _swigt__p_qvectorT_unsigned_char_t 000000018002e870     tryblks.obj
 0003:000018a0       _swigt__p_relobj_t         000000018002e8a0     tryblks.obj
 0003:000018d0       _swigt__p_bytevec_t        000000018002e8d0     tryblks.obj
 0003:00001900       _swigt__p_reloc_info_t     000000018002e900     tryblks.obj
 0003:00001930       _swigt__p_qvectorT_unsigned_int_t 000000018002e930     tryblks.obj
 0003:00001960       _swigt__p_range_t          000000018002e960     tryblks.obj
 0003:00001990       _swigt__p_rangevec_t       000000018002e990     tryblks.obj
 0003:000019c0       _swigt__p_seh_t            000000018002e9c0     tryblks.obj
 0003:000019f0       _swigt__p_short            000000018002e9f0     tryblks.obj
 0003:00001a20       _swigt__p_signed_char      000000018002ea20     tryblks.obj
 0003:00001a50       _swigt__p_try_handler_t    000000018002ea50     tryblks.obj
 0003:00001a80       _swigt__p_tryblk_t         000000018002ea80     tryblks.obj
 0003:00001ab0       _swigt__p_unsigned_char    000000018002eab0     tryblks.obj
 0003:00001ae0       _swigt__p_unsigned_int     000000018002eae0     tryblks.obj
 0003:00001b10       _swigt__p_unsigned_long_long 000000018002eb10     tryblks.obj
 0003:00001b40       _swigt__p_unsigned_short   000000018002eb40     tryblks.obj
 0003:00001b70       _swigt__p_value_type       000000018002eb70     tryblks.obj
 0003:00001ba0       swig_type_initial          000000018002eba0     tryblks.obj
 0003:00001df0       _swigc__p__qstringT_char_t 000000018002edf0     tryblks.obj
 0003:00001e30       _swigc__p__qstringT_unsigned_char_t 000000018002ee30     tryblks.obj
 0003:00001e70       _swigc__p__qstringT_unsigned_short_t 000000018002ee70     tryblks.obj
 0003:00001eb0       _swigc__p_action_ctx_base_t 000000018002eeb0     tryblks.obj
 0003:00001ef0       _swigc__p_biggest_t        000000018002eef0     tryblks.obj
 0003:00001f30       _swigc__p_catch_t          000000018002ef30     tryblks.obj
 0003:00001f70       _swigc__p_char             000000018002ef70     tryblks.obj
 0003:00001fb0       _swigc__p_const_iterator   000000018002efb0     tryblks.obj
 0003:00001ff0       _swigc__p_f_p_TWidget_int_int_p_void__bool 000000018002eff0     tryblks.obj
 0003:00002030       _swigc__p_f_p_TWidget_int_p_view_mouse_event_t_p_void__void 000000018002f030     tryblks.obj
 0003:00002070       _swigc__p_f_p_TWidget_int_p_void__bool 000000018002f070     tryblks.obj
 0003:000020b0       _swigc__p_f_p_TWidget_p_lochist_entry_t_p_void__void 000000018002f0b0     tryblks.obj
 0003:000020f0       _swigc__p_f_p_TWidget_p_q_const__lochist_entry_t_p_q_const__lochist_entry_t_r_q_const__locchange_md_t_p_void__void 000000018002f0f0     tryblks.obj
 0003:00002130       _swigc__p_f_p_TWidget_p_q_const__lochist_entry_t_r_q_const__locchange_md_t_p_void__int 000000018002f130     tryblks.obj
 0003:00002170       _swigc__p_f_p_TWidget_p_q_const__place_t_int_int_p_void__void 000000018002f170     tryblks.obj
 0003:000021b0       _swigc__p_f_p_TWidget_p_q_const__place_t_p_int_p_void__int 000000018002f1b0     tryblks.obj
 0003:000021f0       _swigc__p_f_p_TWidget_p_q_const__place_t_p_q_const__place_t_p_void__int 000000018002f1f0     tryblks.obj
 0003:00002230       _swigc__p_f_p_TWidget_p_q_const__place_t_p_unsigned_int_p_void__bool 000000018002f230     tryblks.obj
 0003:00002270       _swigc__p_f_p_TWidget_p_void__int 000000018002f270     tryblks.obj
 0003:000022b0       _swigc__p_f_p_TWidget_p_void__void 000000018002f2b0     tryblks.obj
 0003:000022f0       _swigc__p_f_p_chooser_multi_t_p_sizevec_t__chooser_base_t__cbres_t 000000018002f2f0     tryblks.obj
 0003:00002330       _swigc__p_f_p_chooser_t_ssize_t__chooser_t__cbret_t 000000018002f330     tryblks.obj
 0003:00002370       _swigc__p_f_p_lochist_entry_t_r_q_const__lochist_entry_t_p_TWidget__bool 000000018002f370     tryblks.obj
 0003:000023b0       _swigc__p_f_p_q_const__char_p_void__void 000000018002f3b0     tryblks.obj
 0003:000023f0       _swigc__p_f_p_q_const__char_r_q_const__tinfo_t_p_q_const__char_p_q_const__unsigned_long_long_p_void__int 000000018002f3f0     tryblks.obj
 0003:00002430       _swigc__p_f_p_q_const__char_v_______int 000000018002f430     tryblks.obj
 0003:00002470       _swigc__p_f_p_void_int_va_list__ssize_t 000000018002f470     tryblks.obj
 0003:000024b0       _swigc__p_f_r_q_const__insn_t_p_int_p_int__bool 000000018002f4b0     tryblks.obj
 0003:000024f0       _swigc__p_f_r_q_const__insn_t_r_q_const__op_t_r_q_const__tinfo_t_p_q_const__char__bool 000000018002f4f0     tryblks.obj
 0003:00002530       _swigc__p_f_unsigned_int__bool 000000018002f530     tryblks.obj
 0003:00002570       _swigc__p_f_unsigned_int_p_q_const__char_unsigned_int_p_void__int 000000018002f570     tryblks.obj
 0003:000025b0       _swigc__p_f_unsigned_int_p_void__bool 000000018002f5b0     tryblks.obj
 0003:000025f0       _swigc__p_f_unsigned_int_r_q_const__tinfo_t_p_void__int 000000018002f5f0     tryblks.obj
 0003:00002630       _swigc__p_f_unsigned_int_unsigned_int__unsigned_int 000000018002f630     tryblks.obj
 0003:00002670       _swigc__p_int              000000018002f670     tryblks.obj
 0003:000026b0       _swigc__p_iterator         000000018002f6b0     tryblks.obj
 0003:000026f0       _swigc__p_location_t       000000018002f6f0     tryblks.obj
 0003:00002730       _swigc__p_long_long        000000018002f730     tryblks.obj
 0003:00002770       _swigc__p_qvectorT__qstringT_unsigned_short_t_t 000000018002f770     tryblks.obj
 0003:000027b0       _swigc__p_qvectorT_argloc_t_t 000000018002f7b0     tryblks.obj
 0003:000027f0       _swigc__p_qvectorT_bool_t  000000018002f7f0     tryblks.obj
 0003:00002830       _swigc__p_qvectorT_catch_t_t 000000018002f830     tryblks.obj
 0003:00002870       _swigc__p_qvectorT_channel_redir_t_t 000000018002f870     tryblks.obj
 0003:000028b0       _swigc__p_qvectorT_compiled_binpat_t_t 000000018002f8b0     tryblks.obj
 0003:000028f0       _swigc__p_qvectorT_funcarg_t_t 000000018002f8f0     tryblks.obj
 0003:00002930       _swigc__p_qvectorT_int_t   000000018002f930     tryblks.obj
 0003:00002970       _swigc__p_qvectorT_range_t_t 000000018002f970     tryblks.obj
 0003:00002a50       _swigc__p_qvectorT_rangeset_t_const_p_t 000000018002fa50     tryblks.obj
 0003:00002a90       _swigc__p_qvectorT_rangeset_t_t 000000018002fa90     tryblks.obj
 0003:00002ad0       _swigc__p_qvectorT_refinfo_desc_t_t 000000018002fad0     tryblks.obj
 0003:00002b10       _swigc__p_qvectorT_simd_info_t_t 000000018002fb10     tryblks.obj
 0003:00002b50       _swigc__p_qvectorT_simpleline_t_t 000000018002fb50     tryblks.obj
 0003:00002b90       _swigc__p_qvectorT_size_t_t 000000018002fb90     tryblks.obj
 0003:00002bd0       _swigc__p_qvectorT_tinfo_t_t 000000018002fbd0     tryblks.obj
 0003:00002c10       _swigc__p_qvectorT_tryblk_t_t 000000018002fc10     tryblks.obj
 0003:00002c50       _swigc__p_qvectorT_type_attr_t_t 000000018002fc50     tryblks.obj
 0003:00002c90       _swigc__p_qvectorT_udt_member_t_t 000000018002fc90     tryblks.obj
 0003:00002cd0       _swigc__p_relobj_t         000000018002fcd0     tryblks.obj
 0003:00002d10       _swigc__p_bytevec_t        000000018002fd10     tryblks.obj
 0003:00002d50       _swigc__p_reloc_info_t     000000018002fd50     tryblks.obj
 0003:00002d90       _swigc__p_qvectorT_unsigned_char_t 000000018002fd90     tryblks.obj
 0003:00002e30       _swigc__p_qvectorT_unsigned_int_t 000000018002fe30     tryblks.obj
 0003:00002e70       _swigc__p_range_t          000000018002fe70     tryblks.obj
 0003:00002eb0       _swigc__p_rangevec_t       000000018002feb0     tryblks.obj
 0003:00002f70       _swigc__p_seh_t            000000018002ff70     tryblks.obj
 0003:00002fb0       _swigc__p_short            000000018002ffb0     tryblks.obj
 0003:00002ff0       _swigc__p_signed_char      000000018002fff0     tryblks.obj
 0003:00003030       _swigc__p_try_handler_t    0000000180030030     tryblks.obj
 0003:000030b0       _swigc__p_tryblk_t         00000001800300b0     tryblks.obj
 0003:000030f0       _swigc__p_unsigned_char    00000001800300f0     tryblks.obj
 0003:00003130       _swigc__p_unsigned_int     0000000180030130     tryblks.obj
 0003:00003170       _swigc__p_unsigned_long_long 0000000180030170     tryblks.obj
 0003:000031b0       _swigc__p_unsigned_short   00000001800301b0     tryblks.obj
 0003:000031f0       _swigc__p_value_type       00000001800301f0     tryblks.obj
 0003:00003230       swig_cast_initial          0000000180030230     tryblks.obj
 0003:00003480       ?swig_module@@3Uswig_module_info@@A 0000000180030480     tryblks.obj
 0003:000034b0       swigobject_methods         00000001800304b0     tryblks.obj
 0003:00003590       ?swigobject_doc@?1??SwigPyObject_TypeOnce@@9@4PADA 0000000180030590     tryblks.obj
 0003:000035c0       ?swigpacked_doc@?1??SwigPyPacked_TypeOnce@@9@4PADA 00000001800305c0     tryblks.obj
 0003:000035f0       ?SWIG_module@?1??PyInit__ida_tryblks@@9@4UPyModuleDef@@A 00000001800305f0     tryblks.obj
 0003:000037e0       ?swig_types@@3PAPEAUswig_type_info@@A 00000001800307e0     tryblks.obj
 0003:00003a38       swig_const_table           0000000180030a38     tryblks.obj
 0003:00003a68       Swig_This_global           0000000180030a68     tryblks.obj
 0003:00003a78       ?type@?1??SwigPyObject_type@@9@4PEAU_typeobject@@EA 0000000180030a78     tryblks.obj
 0003:00003a80       ?$TSS0@?1??SwigPyObject_type@@9@4HA 0000000180030a80     tryblks.obj
 0003:00003a88       ?type@?1??SwigPyPacked_type@@9@4PEAU_typeobject@@EA 0000000180030a88     tryblks.obj
 0003:00003a90       ?$TSS0@?1??SwigPyPacked_type@@9@4HA 0000000180030a90     tryblks.obj
 0003:00003a98       ?type_pointer@?1??SWIG_Python_GetModule@@9@4PEAXEA 0000000180030a98     tryblks.obj
 0003:00003aa0       ?cache@?1??SWIG_Python_TypeCache@@9@4PEAU_object@@EA 0000000180030aa0     tryblks.obj
 0003:00003aa8       ?$TSS0@?1??SWIG_Python_TypeCache@@9@4HA 0000000180030aa8     tryblks.obj
 0003:00003ab0       ?_Tss_mutex@@3U_RTL_CRITICAL_SECTION@@A 0000000180030ab0     MSVCRT:thread_safe_statics.obj
 0003:00003ad8       ?_Tss_cv@@3U_RTL_CONDITION_VARIABLE@@A 0000000180030ad8     MSVCRT:thread_safe_statics.obj
 0003:00003ae0       ?_Tss_event@@3PEAXEA       0000000180030ae0     MSVCRT:thread_safe_statics.obj
 0003:00003ae8       ?encoded_sleep_condition_variable_cs@@3P6AHPEAU_RTL_CONDITION_VARIABLE@@PEAU_RTL_CRITICAL_SECTION@@K@ZEA 0000000180030ae8     MSVCRT:thread_safe_statics.obj
 0003:00003af0       ?encoded_wake_all_condition_variable@@3P6AXPEAU_RTL_CONDITION_VARIABLE@@@ZEA 0000000180030af0     MSVCRT:thread_safe_statics.obj
 0003:00003afc       ?__proc_attached@@3HA      0000000180030afc     MSVCRT:dll_dllmain.obj
 0003:00003b10       ?is_initialized_as_dll@@3_NA 0000000180030b10     MSVCRT:utility.obj
 0003:00003b11       ?module_local_atexit_table_initialized@@3_NA 0000000180030b11     MSVCRT:utility.obj
 0003:00003b18       ?module_local_atexit_table@@3U_onexit_table_t@@A 0000000180030b18     MSVCRT:utility.obj
 0003:00003b30       ?module_local_at_quick_exit_table@@3U_onexit_table_t@@A 0000000180030b30     MSVCRT:utility.obj
 0003:00003b50       GS_ExceptionRecord         0000000180030b50     MSVCRT:gs_report.obj
 0003:00003bf0       GS_ContextRecord           0000000180030bf0     MSVCRT:gs_report.obj
 0004:00000000       $pdata$printf              0000000180032000     tryblks.obj
 0004:0000000c       $pdata$SWIG_TypeClientData 000000018003200c     tryblks.obj
 0004:00000018       $pdata$SWIG_MangledTypeQueryModule 0000000180032018     tryblks.obj
 0004:00000024       $pdata$?SWIG_Python_RaiseOrModifyTypeError@@YAXPEBD@Z 0000000180032024     tryblks.obj
 0004:00000030       $pdata$?SWIG_Python_UnpackTuple@@YA_JPEAU_object@@PEBD_J2PEAPEAU1@@Z 0000000180032030     tryblks.obj
 0004:0000003c       $pdata$0$?SWIG_Python_UnpackTuple@@YA_JPEAU_object@@PEBD_J2PEAPEAU1@@Z 000000018003203c     tryblks.obj
 0004:00000048       $pdata$1$?SWIG_Python_UnpackTuple@@YA_JPEAU_object@@PEBD_J2PEAPEAU1@@Z 0000000180032048     tryblks.obj
 0004:00000054       $pdata$SwigPyClientData_New 0000000180032054     tryblks.obj
 0004:00000060       $pdata$2$SwigPyClientData_New 0000000180032060     tryblks.obj
 0004:0000006c       $pdata$3$SwigPyClientData_New 000000018003206c     tryblks.obj
 0004:00000078       $pdata$SwigPyObject_repr   0000000180032078     tryblks.obj
 0004:00000084       $pdata$0$SwigPyObject_repr 0000000180032084     tryblks.obj
 0004:00000090       $pdata$1$SwigPyObject_repr 0000000180032090     tryblks.obj
 0004:0000009c       $pdata$SwigPyObject_type   000000018003209c     tryblks.obj
 0004:000000a8       $pdata$SwigPyObject_Check  00000001800320a8     tryblks.obj
 0004:000000b4       $pdata$SwigPyObject_New    00000001800320b4     tryblks.obj
 0004:000000c0       $pdata$SwigPyObject_dealloc 00000001800320c0     tryblks.obj
 0004:000000cc       $pdata$2$SwigPyObject_dealloc 00000001800320cc     tryblks.obj
 0004:000000d8       $pdata$3$SwigPyObject_dealloc 00000001800320d8     tryblks.obj
 0004:000000e4       $pdata$SwigPyObject_append 00000001800320e4     tryblks.obj
 0004:000000f0       $pdata$SwigPyObject_own    00000001800320f0     tryblks.obj
 0004:000000fc       $pdata$0$SwigPyObject_own  00000001800320fc     tryblks.obj
 0004:00000108       $pdata$2$SwigPyObject_own  0000000180032108     tryblks.obj
 0004:00000114       $pdata$SwigPyPacked_repr   0000000180032114     tryblks.obj
 0004:00000120       $pdata$0$SwigPyPacked_repr 0000000180032120     tryblks.obj
 0004:0000012c       $pdata$1$SwigPyPacked_repr 000000018003212c     tryblks.obj
 0004:00000138       $pdata$SwigPyPacked_str    0000000180032138     tryblks.obj
 0004:00000144       $pdata$0$SwigPyPacked_str  0000000180032144     tryblks.obj
 0004:00000150       $pdata$1$SwigPyPacked_str  0000000180032150     tryblks.obj
 0004:0000015c       $pdata$SwigPyPacked_type   000000018003215c     tryblks.obj
 0004:00000168       $pdata$SwigPyPacked_Check  0000000180032168     tryblks.obj
 0004:00000174       $pdata$SwigPyPacked_dealloc 0000000180032174     tryblks.obj
 0004:00000180       $pdata$SWIG_This           0000000180032180     tryblks.obj
 0004:0000018c       $pdata$SWIG_Python_GetSwigThis 000000018003218c     tryblks.obj
 0004:00000198       $pdata$SWIG_Python_InitShadowInstance 0000000180032198     tryblks.obj
 0004:000001a4       $pdata$SWIG_Python_NewPointerObj 00000001800321a4     tryblks.obj
 0004:000001b0       $pdata$SWIG_Python_DestroyModule 00000001800321b0     tryblks.obj
 0004:000001bc       $pdata$2$SWIG_Python_DestroyModule 00000001800321bc     tryblks.obj
 0004:000001c8       $pdata$3$SWIG_Python_DestroyModule 00000001800321c8     tryblks.obj
 0004:000001d4       $pdata$4$SWIG_Python_DestroyModule 00000001800321d4     tryblks.obj
 0004:000001e0       $pdata$5$SWIG_Python_DestroyModule 00000001800321e0     tryblks.obj
 0004:000001ec       $pdata$??0exception@std@@QEAA@AEBV01@@Z 00000001800321ec     tryblks.obj
 0004:000001f8       $pdata$??_Gout_of_range@std@@UEAAPEAXI@Z 00000001800321f8     tryblks.obj
 0004:000001f8       $pdata$??_Gexception@std@@UEAAPEAXI@Z 00000001800321f8     tryblks.obj
 0004:000001f8       $pdata$??_Glogic_error@std@@UEAAPEAXI@Z 00000001800321f8     tryblks.obj
 0004:00000204       $pdata$??0logic_error@std@@QEAA@AEBV01@@Z 0000000180032204     tryblks.obj
 0004:00000210       $pdata$??0out_of_range@std@@QEAA@PEBD@Z 0000000180032210     tryblks.obj
 0004:0000021c       $pdata$??0out_of_range@std@@QEAA@AEBV01@@Z 000000018003221c     tryblks.obj
 0004:00000228       $pdata$?sprnt@?$_qstring@D@@QEAAAEAV1@PEBDZZ 0000000180032228     tryblks.obj
 0004:00000234       $pdata$?__raise_e@@YAXAEBVexception@std@@@Z 0000000180032234     tryblks.obj
 0004:00000240       $pdata$?__raise_ie@@YAXAEBUinterr_exc_t@@@Z 0000000180032240     tryblks.obj
 0004:0000024c       $pdata$??0rangevec_t@@QEAA@AEBU0@@Z 000000018003224c     tryblks.obj
 0004:00000258       $pdata$??4rangevec_t@@QEAAAEAU0@AEBU0@@Z 0000000180032258     tryblks.obj
 0004:00000264       $pdata$?clear@seh_t@@QEAAXXZ 0000000180032264     tryblks.obj
 0004:00000270       $pdata$??_Gseh_t@@QEAAPEAXI@Z 0000000180032270     tryblks.obj
 0004:0000027c       $pdata$??1catch_t@@QEAA@XZ 000000018003227c     tryblks.obj
 0004:00000288       $pdata$??0?$qvector@Ucatch_t@@@@QEAA@AEBV0@@Z 0000000180032288     tryblks.obj
 0004:00000294       $pdata$1$??0?$qvector@Ucatch_t@@@@QEAA@AEBV0@@Z 0000000180032294     tryblks.obj
 0004:000002a0       $pdata$2$??0?$qvector@Ucatch_t@@@@QEAA@AEBV0@@Z 00000001800322a0     tryblks.obj
 0004:000002ac       $pdata$?push_back@?$qvector@Ucatch_t@@@@QEAAXAEBUcatch_t@@@Z 00000001800322ac     tryblks.obj
 0004:000002b8       $pdata$?qclear@?$qvector@Ucatch_t@@@@QEAAXXZ 00000001800322b8     tryblks.obj
 0004:000002c4       $pdata$1$?qclear@?$qvector@Ucatch_t@@@@QEAAXXZ 00000001800322c4     tryblks.obj
 0004:000002d0       $pdata$2$?qclear@?$qvector@Ucatch_t@@@@QEAAXXZ 00000001800322d0     tryblks.obj
 0004:000002dc       $pdata$?resize@?$qvector@Ucatch_t@@@@QEAAX_KAEBUcatch_t@@@Z 00000001800322dc     tryblks.obj
 0004:000002e8       $pdata$1$?resize@?$qvector@Ucatch_t@@@@QEAAX_KAEBUcatch_t@@@Z 00000001800322e8     tryblks.obj
 0004:000002f4       $pdata$2$?resize@?$qvector@Ucatch_t@@@@QEAAX_KAEBUcatch_t@@@Z 00000001800322f4     tryblks.obj
 0004:00000300       $pdata$??8?$qvector@Ucatch_t@@@@QEBA_NAEBV0@@Z 0000000180032300     tryblks.obj
 0004:0000030c       $pdata$?erase@?$qvector@Ucatch_t@@@@QEAAPEAUcatch_t@@PEAU2@@Z 000000018003230c     tryblks.obj
 0004:00000318       $pdata$?find@?$qvector@Ucatch_t@@@@QEAAPEAUcatch_t@@AEBU2@@Z 0000000180032318     tryblks.obj
 0004:00000318       $pdata$?find@?$qvector@Ucatch_t@@@@QEBAPEBUcatch_t@@AEBU2@@Z 0000000180032318     tryblks.obj
 0004:00000324       $pdata$??1tryblk_t@@QEAA@XZ 0000000180032324     tryblks.obj
 0004:00000330       $pdata$??4tryblk_t@@QEAAAEAV0@AEBV0@@Z 0000000180032330     tryblks.obj
 0004:0000033c       $pdata$0$??4tryblk_t@@QEAAAEAV0@AEBV0@@Z 000000018003233c     tryblks.obj
 0004:00000348       $pdata$1$??4tryblk_t@@QEAAAEAV0@AEBV0@@Z 0000000180032348     tryblks.obj
 0004:00000354       $pdata$?clear@tryblk_t@@QEAAXXZ 0000000180032354     tryblks.obj
 0004:00000360       $pdata$0$?clear@tryblk_t@@QEAAXXZ 0000000180032360     tryblks.obj
 0004:0000036c       $pdata$2$?clear@tryblk_t@@QEAAXXZ 000000018003236c     tryblks.obj
 0004:00000378       $pdata$3$?clear@tryblk_t@@QEAAXXZ 0000000180032378     tryblks.obj
 0004:00000384       $pdata$?push_back@?$qvector@Vtryblk_t@@@@QEAAXAEBVtryblk_t@@@Z 0000000180032384     tryblks.obj
 0004:00000390       $pdata$?qclear@?$qvector@Vtryblk_t@@@@QEAAXXZ 0000000180032390     tryblks.obj
 0004:0000039c       $pdata$1$?qclear@?$qvector@Vtryblk_t@@@@QEAAXXZ 000000018003239c     tryblks.obj
 0004:000003a8       $pdata$2$?qclear@?$qvector@Vtryblk_t@@@@QEAAXXZ 00000001800323a8     tryblks.obj
 0004:000003b4       $pdata$?resize@?$qvector@Vtryblk_t@@@@QEAAX_KAEBVtryblk_t@@@Z 00000001800323b4     tryblks.obj
 0004:000003c0       $pdata$0$?resize@?$qvector@Vtryblk_t@@@@QEAAX_KAEBVtryblk_t@@@Z 00000001800323c0     tryblks.obj
 0004:000003cc       $pdata$1$?resize@?$qvector@Vtryblk_t@@@@QEAAX_KAEBVtryblk_t@@@Z 00000001800323cc     tryblks.obj
 0004:000003d8       $pdata$2$?resize@?$qvector@Vtryblk_t@@@@QEAAX_KAEBVtryblk_t@@@Z 00000001800323d8     tryblks.obj
 0004:000003e4       $pdata$3$?resize@?$qvector@Vtryblk_t@@@@QEAAX_KAEBVtryblk_t@@@Z 00000001800323e4     tryblks.obj
 0004:000003f0       $pdata$??8?$qvector@Vtryblk_t@@@@QEBA_NAEBV0@@Z 00000001800323f0     tryblks.obj
 0004:000003fc       $pdata$?erase@?$qvector@Vtryblk_t@@@@QEAAPEAVtryblk_t@@PEAV2@@Z 00000001800323fc     tryblks.obj
 0004:00000408       $pdata$?find@?$qvector@Vtryblk_t@@@@QEBAPEBVtryblk_t@@AEBV2@@Z 0000000180032408     tryblks.obj
 0004:00000408       $pdata$?find@?$qvector@Vtryblk_t@@@@QEAAPEAVtryblk_t@@AEBV2@@Z 0000000180032408     tryblks.obj
 0004:00000414       $pdata$_wrap_new_tryblks_t__SWIG_0 0000000180032414     tryblks.obj
 0004:00000420       $pdata$_wrap_new_tryblks_t__SWIG_0$catch$6 0000000180032420     tryblks.obj
 0004:0000042c       $pdata$_wrap_new_tryblks_t__SWIG_0$catch$5 000000018003242c     tryblks.obj
 0004:00000438       $pdata$_wrap_new_tryblks_t__SWIG_0$catch$4 0000000180032438     tryblks.obj
 0004:00000444       $pdata$_wrap_new_tryblks_t__SWIG_0$catch$3 0000000180032444     tryblks.obj
 0004:00000450       $pdata$_wrap_new_tryblks_t__SWIG_0$catch$2 0000000180032450     tryblks.obj
 0004:0000045c       $pdata$_wrap_new_tryblks_t__SWIG_0$catch$1 000000018003245c     tryblks.obj
 0004:00000468       $pdata$_wrap_new_tryblks_t__SWIG_1 0000000180032468     tryblks.obj
 0004:00000474       $pdata$_wrap_new_tryblks_t__SWIG_1$catch$6 0000000180032474     tryblks.obj
 0004:00000480       $pdata$_wrap_new_tryblks_t__SWIG_1$catch$5 0000000180032480     tryblks.obj
 0004:0000048c       $pdata$_wrap_new_tryblks_t__SWIG_1$catch$4 000000018003248c     tryblks.obj
 0004:00000498       $pdata$_wrap_new_tryblks_t__SWIG_1$catch$3 0000000180032498     tryblks.obj
 0004:000004a4       $pdata$_wrap_new_tryblks_t__SWIG_1$catch$2 00000001800324a4     tryblks.obj
 0004:000004b0       $pdata$_wrap_new_tryblks_t__SWIG_1$catch$1 00000001800324b0     tryblks.obj
 0004:000004bc       $pdata$_wrap_new_tryblks_t 00000001800324bc     tryblks.obj
 0004:000004c8       $pdata$_wrap_delete_tryblks_t 00000001800324c8     tryblks.obj
 0004:000004d4       $pdata$_wrap_delete_tryblks_t$catch$5 00000001800324d4     tryblks.obj
 0004:000004e0       $pdata$_wrap_delete_tryblks_t$catch$4 00000001800324e0     tryblks.obj
 0004:000004ec       $pdata$_wrap_delete_tryblks_t$catch$3 00000001800324ec     tryblks.obj
 0004:000004f8       $pdata$_wrap_delete_tryblks_t$catch$2 00000001800324f8     tryblks.obj
 0004:00000504       $pdata$_wrap_delete_tryblks_t$catch$1 0000000180032504     tryblks.obj
 0004:00000510       $pdata$_wrap_delete_tryblks_t$catch$0 0000000180032510     tryblks.obj
 0004:0000051c       $pdata$_wrap_tryblks_t_push_back__SWIG_0 000000018003251c     tryblks.obj
 0004:00000528       $pdata$_wrap_tryblks_t_push_back__SWIG_0$catch$5 0000000180032528     tryblks.obj
 0004:00000534       $pdata$_wrap_tryblks_t_push_back__SWIG_0$catch$4 0000000180032534     tryblks.obj
 0004:00000540       $pdata$_wrap_tryblks_t_push_back__SWIG_0$catch$3 0000000180032540     tryblks.obj
 0004:0000054c       $pdata$_wrap_tryblks_t_push_back__SWIG_0$catch$2 000000018003254c     tryblks.obj
 0004:00000558       $pdata$_wrap_tryblks_t_push_back__SWIG_0$catch$1 0000000180032558     tryblks.obj
 0004:00000564       $pdata$_wrap_tryblks_t_push_back__SWIG_0$catch$0 0000000180032564     tryblks.obj
 0004:00000570       $pdata$_wrap_tryblks_t_push_back__SWIG_1 0000000180032570     tryblks.obj
 0004:0000057c       $pdata$_wrap_tryblks_t_push_back__SWIG_1$catch$7 000000018003257c     tryblks.obj
 0004:00000588       $pdata$_wrap_tryblks_t_push_back__SWIG_1$catch$6 0000000180032588     tryblks.obj
 0004:00000594       $pdata$_wrap_tryblks_t_push_back__SWIG_1$catch$5 0000000180032594     tryblks.obj
 0004:000005a0       $pdata$_wrap_tryblks_t_push_back__SWIG_1$catch$4 00000001800325a0     tryblks.obj
 0004:000005ac       $pdata$_wrap_tryblks_t_push_back__SWIG_1$catch$3 00000001800325ac     tryblks.obj
 0004:000005b8       $pdata$_wrap_tryblks_t_push_back__SWIG_1$catch$2 00000001800325b8     tryblks.obj
 0004:000005c4       $pdata$_wrap_tryblks_t_push_back 00000001800325c4     tryblks.obj
 0004:000005d0       $pdata$_wrap_tryblks_t_pop_back 00000001800325d0     tryblks.obj
 0004:000005dc       $pdata$_wrap_tryblks_t_pop_back$catch$7 00000001800325dc     tryblks.obj
 0004:000005e8       $pdata$_wrap_tryblks_t_pop_back$catch$6 00000001800325e8     tryblks.obj
 0004:000005f4       $pdata$_wrap_tryblks_t_pop_back$catch$5 00000001800325f4     tryblks.obj
 0004:00000600       $pdata$_wrap_tryblks_t_pop_back$catch$4 0000000180032600     tryblks.obj
 0004:0000060c       $pdata$_wrap_tryblks_t_pop_back$catch$3 000000018003260c     tryblks.obj
 0004:00000618       $pdata$_wrap_tryblks_t_pop_back$catch$2 0000000180032618     tryblks.obj
 0004:00000624       $pdata$_wrap_tryblks_t_size 0000000180032624     tryblks.obj
 0004:00000630       $pdata$_wrap_tryblks_t_size$catch$5 0000000180032630     tryblks.obj
 0004:0000063c       $pdata$_wrap_tryblks_t_size$catch$4 000000018003263c     tryblks.obj
 0004:00000648       $pdata$_wrap_tryblks_t_size$catch$3 0000000180032648     tryblks.obj
 0004:00000654       $pdata$_wrap_tryblks_t_size$catch$2 0000000180032654     tryblks.obj
 0004:00000660       $pdata$_wrap_tryblks_t_size$catch$1 0000000180032660     tryblks.obj
 0004:0000066c       $pdata$_wrap_tryblks_t_size$catch$0 000000018003266c     tryblks.obj
 0004:00000678       $pdata$_wrap_tryblks_t_empty 0000000180032678     tryblks.obj
 0004:00000684       $pdata$_wrap_tryblks_t_empty$catch$5 0000000180032684     tryblks.obj
 0004:00000690       $pdata$_wrap_tryblks_t_empty$catch$4 0000000180032690     tryblks.obj
 0004:0000069c       $pdata$_wrap_tryblks_t_empty$catch$3 000000018003269c     tryblks.obj
 0004:000006a8       $pdata$_wrap_tryblks_t_empty$catch$2 00000001800326a8     tryblks.obj
 0004:000006b4       $pdata$_wrap_tryblks_t_empty$catch$1 00000001800326b4     tryblks.obj
 0004:000006c0       $pdata$_wrap_tryblks_t_empty$catch$0 00000001800326c0     tryblks.obj
 0004:000006cc       $pdata$_wrap_tryblks_t_at  00000001800326cc     tryblks.obj
 0004:000006d8       $pdata$_wrap_tryblks_t_at$catch$5 00000001800326d8     tryblks.obj
 0004:000006e4       $pdata$_wrap_tryblks_t_at$catch$4 00000001800326e4     tryblks.obj
 0004:000006f0       $pdata$_wrap_tryblks_t_at$catch$3 00000001800326f0     tryblks.obj
 0004:000006fc       $pdata$_wrap_tryblks_t_at$catch$2 00000001800326fc     tryblks.obj
 0004:00000708       $pdata$_wrap_tryblks_t_at$catch$1 0000000180032708     tryblks.obj
 0004:00000714       $pdata$_wrap_tryblks_t_at$catch$0 0000000180032714     tryblks.obj
 0004:00000720       $pdata$_wrap_tryblks_t_qclear 0000000180032720     tryblks.obj
 0004:0000072c       $pdata$_wrap_tryblks_t_qclear$catch$5 000000018003272c     tryblks.obj
 0004:00000738       $pdata$_wrap_tryblks_t_qclear$catch$4 0000000180032738     tryblks.obj
 0004:00000744       $pdata$_wrap_tryblks_t_qclear$catch$3 0000000180032744     tryblks.obj
 0004:00000750       $pdata$_wrap_tryblks_t_qclear$catch$2 0000000180032750     tryblks.obj
 0004:0000075c       $pdata$_wrap_tryblks_t_qclear$catch$1 000000018003275c     tryblks.obj
 0004:00000768       $pdata$_wrap_tryblks_t_qclear$catch$0 0000000180032768     tryblks.obj
 0004:00000774       $pdata$_wrap_tryblks_t_clear 0000000180032774     tryblks.obj
 0004:00000780       $pdata$_wrap_tryblks_t_clear$catch$5 0000000180032780     tryblks.obj
 0004:0000078c       $pdata$_wrap_tryblks_t_clear$catch$4 000000018003278c     tryblks.obj
 0004:00000798       $pdata$_wrap_tryblks_t_clear$catch$3 0000000180032798     tryblks.obj
 0004:000007a4       $pdata$_wrap_tryblks_t_clear$catch$2 00000001800327a4     tryblks.obj
 0004:000007b0       $pdata$_wrap_tryblks_t_clear$catch$1 00000001800327b0     tryblks.obj
 0004:000007bc       $pdata$_wrap_tryblks_t_clear$catch$0 00000001800327bc     tryblks.obj
 0004:000007c8       $pdata$_wrap_tryblks_t_resize__SWIG_0 00000001800327c8     tryblks.obj
 0004:000007d4       $pdata$_wrap_tryblks_t_resize__SWIG_0$catch$5 00000001800327d4     tryblks.obj
 0004:000007e0       $pdata$_wrap_tryblks_t_resize__SWIG_0$catch$4 00000001800327e0     tryblks.obj
 0004:000007ec       $pdata$_wrap_tryblks_t_resize__SWIG_0$catch$3 00000001800327ec     tryblks.obj
 0004:000007f8       $pdata$_wrap_tryblks_t_resize__SWIG_0$catch$2 00000001800327f8     tryblks.obj
 0004:00000804       $pdata$_wrap_tryblks_t_resize__SWIG_0$catch$1 0000000180032804     tryblks.obj
 0004:00000810       $pdata$_wrap_tryblks_t_resize__SWIG_0$catch$0 0000000180032810     tryblks.obj
 0004:0000081c       $pdata$_wrap_tryblks_t_resize__SWIG_1 000000018003281c     tryblks.obj
 0004:00000828       $pdata$_wrap_tryblks_t_resize__SWIG_1$catch$9 0000000180032828     tryblks.obj
 0004:00000834       $pdata$_wrap_tryblks_t_resize__SWIG_1$catch$8 0000000180032834     tryblks.obj
 0004:00000840       $pdata$_wrap_tryblks_t_resize__SWIG_1$catch$7 0000000180032840     tryblks.obj
 0004:0000084c       $pdata$_wrap_tryblks_t_resize__SWIG_1$catch$6 000000018003284c     tryblks.obj
 0004:00000858       $pdata$_wrap_tryblks_t_resize__SWIG_1$catch$5 0000000180032858     tryblks.obj
 0004:00000864       $pdata$_wrap_tryblks_t_resize__SWIG_1$catch$4 0000000180032864     tryblks.obj
 0004:00000870       $pdata$_wrap_tryblks_t_resize 0000000180032870     tryblks.obj
 0004:0000087c       $pdata$_wrap_tryblks_t_grow 000000018003287c     tryblks.obj
 0004:00000888       $pdata$_wrap_tryblks_t_grow$catch$12 0000000180032888     tryblks.obj
 0004:00000894       $pdata$_wrap_tryblks_t_grow$catch$11 0000000180032894     tryblks.obj
 0004:000008a0       $pdata$_wrap_tryblks_t_grow$catch$10 00000001800328a0     tryblks.obj
 0004:000008ac       $pdata$_wrap_tryblks_t_grow$catch$9 00000001800328ac     tryblks.obj
 0004:000008b8       $pdata$_wrap_tryblks_t_grow$catch$8 00000001800328b8     tryblks.obj
 0004:000008c4       $pdata$_wrap_tryblks_t_grow$catch$7 00000001800328c4     tryblks.obj
 0004:000008d0       $pdata$_wrap_tryblks_t_capacity 00000001800328d0     tryblks.obj
 0004:000008dc       $pdata$_wrap_tryblks_t_capacity$catch$5 00000001800328dc     tryblks.obj
 0004:000008e8       $pdata$_wrap_tryblks_t_capacity$catch$4 00000001800328e8     tryblks.obj
 0004:000008f4       $pdata$_wrap_tryblks_t_capacity$catch$3 00000001800328f4     tryblks.obj
 0004:00000900       $pdata$_wrap_tryblks_t_capacity$catch$2 0000000180032900     tryblks.obj
 0004:0000090c       $pdata$_wrap_tryblks_t_capacity$catch$1 000000018003290c     tryblks.obj
 0004:00000918       $pdata$_wrap_tryblks_t_capacity$catch$0 0000000180032918     tryblks.obj
 0004:00000924       $pdata$_wrap_tryblks_t_reserve 0000000180032924     tryblks.obj
 0004:00000930       $pdata$_wrap_tryblks_t_reserve$catch$7 0000000180032930     tryblks.obj
 0004:0000093c       $pdata$_wrap_tryblks_t_reserve$catch$6 000000018003293c     tryblks.obj
 0004:00000948       $pdata$_wrap_tryblks_t_reserve$catch$5 0000000180032948     tryblks.obj
 0004:00000954       $pdata$_wrap_tryblks_t_reserve$catch$4 0000000180032954     tryblks.obj
 0004:00000960       $pdata$_wrap_tryblks_t_reserve$catch$3 0000000180032960     tryblks.obj
 0004:0000096c       $pdata$_wrap_tryblks_t_reserve$catch$2 000000018003296c     tryblks.obj
 0004:00000978       $pdata$_wrap_tryblks_t_truncate 0000000180032978     tryblks.obj
 0004:00000984       $pdata$_wrap_tryblks_t_truncate$catch$5 0000000180032984     tryblks.obj
 0004:00000990       $pdata$_wrap_tryblks_t_truncate$catch$4 0000000180032990     tryblks.obj
 0004:0000099c       $pdata$_wrap_tryblks_t_truncate$catch$3 000000018003299c     tryblks.obj
 0004:000009a8       $pdata$_wrap_tryblks_t_truncate$catch$2 00000001800329a8     tryblks.obj
 0004:000009b4       $pdata$_wrap_tryblks_t_truncate$catch$1 00000001800329b4     tryblks.obj
 0004:000009c0       $pdata$_wrap_tryblks_t_truncate$catch$0 00000001800329c0     tryblks.obj
 0004:000009cc       $pdata$_wrap_tryblks_t_swap 00000001800329cc     tryblks.obj
 0004:000009d8       $pdata$_wrap_tryblks_t_swap$catch$5 00000001800329d8     tryblks.obj
 0004:000009e4       $pdata$_wrap_tryblks_t_swap$catch$4 00000001800329e4     tryblks.obj
 0004:000009f0       $pdata$_wrap_tryblks_t_swap$catch$3 00000001800329f0     tryblks.obj
 0004:000009fc       $pdata$_wrap_tryblks_t_swap$catch$2 00000001800329fc     tryblks.obj
 0004:00000a08       $pdata$_wrap_tryblks_t_swap$catch$1 0000000180032a08     tryblks.obj
 0004:00000a14       $pdata$_wrap_tryblks_t_swap$catch$0 0000000180032a14     tryblks.obj
 0004:00000a20       $pdata$_wrap_tryblks_t_extract 0000000180032a20     tryblks.obj
 0004:00000a2c       $pdata$_wrap_tryblks_t_extract$catch$5 0000000180032a2c     tryblks.obj
 0004:00000a38       $pdata$_wrap_tryblks_t_extract$catch$4 0000000180032a38     tryblks.obj
 0004:00000a44       $pdata$_wrap_tryblks_t_extract$catch$3 0000000180032a44     tryblks.obj
 0004:00000a50       $pdata$_wrap_tryblks_t_extract$catch$2 0000000180032a50     tryblks.obj
 0004:00000a5c       $pdata$_wrap_tryblks_t_extract$catch$1 0000000180032a5c     tryblks.obj
 0004:00000a68       $pdata$_wrap_tryblks_t_extract$catch$0 0000000180032a68     tryblks.obj
 0004:00000a74       $pdata$_wrap_tryblks_t_inject 0000000180032a74     tryblks.obj
 0004:00000a80       $pdata$_wrap_tryblks_t_inject$catch$5 0000000180032a80     tryblks.obj
 0004:00000a8c       $pdata$_wrap_tryblks_t_inject$catch$4 0000000180032a8c     tryblks.obj
 0004:00000a98       $pdata$_wrap_tryblks_t_inject$catch$3 0000000180032a98     tryblks.obj
 0004:00000aa4       $pdata$_wrap_tryblks_t_inject$catch$2 0000000180032aa4     tryblks.obj
 0004:00000ab0       $pdata$_wrap_tryblks_t_inject$catch$1 0000000180032ab0     tryblks.obj
 0004:00000abc       $pdata$_wrap_tryblks_t_inject$catch$0 0000000180032abc     tryblks.obj
 0004:00000ac8       $pdata$_wrap_tryblks_t___eq__ 0000000180032ac8     tryblks.obj
 0004:00000ad4       $pdata$_wrap_tryblks_t___eq__$catch$5 0000000180032ad4     tryblks.obj
 0004:00000ae0       $pdata$_wrap_tryblks_t___eq__$catch$4 0000000180032ae0     tryblks.obj
 0004:00000aec       $pdata$_wrap_tryblks_t___eq__$catch$3 0000000180032aec     tryblks.obj
 0004:00000af8       $pdata$_wrap_tryblks_t___eq__$catch$2 0000000180032af8     tryblks.obj
 0004:00000b04       $pdata$_wrap_tryblks_t___eq__$catch$1 0000000180032b04     tryblks.obj
 0004:00000b10       $pdata$_wrap_tryblks_t___eq__$catch$0 0000000180032b10     tryblks.obj
 0004:00000b1c       $pdata$_wrap_tryblks_t___ne__ 0000000180032b1c     tryblks.obj
 0004:00000b28       $pdata$_wrap_tryblks_t___ne__$catch$5 0000000180032b28     tryblks.obj
 0004:00000b34       $pdata$_wrap_tryblks_t___ne__$catch$4 0000000180032b34     tryblks.obj
 0004:00000b40       $pdata$_wrap_tryblks_t___ne__$catch$3 0000000180032b40     tryblks.obj
 0004:00000b4c       $pdata$_wrap_tryblks_t___ne__$catch$2 0000000180032b4c     tryblks.obj
 0004:00000b58       $pdata$_wrap_tryblks_t___ne__$catch$1 0000000180032b58     tryblks.obj
 0004:00000b64       $pdata$_wrap_tryblks_t___ne__$catch$0 0000000180032b64     tryblks.obj
 0004:00000b70       $pdata$_wrap_tryblks_t_begin__SWIG_0 0000000180032b70     tryblks.obj
 0004:00000b7c       $pdata$_wrap_tryblks_t_begin__SWIG_0$catch$5 0000000180032b7c     tryblks.obj
 0004:00000b88       $pdata$_wrap_tryblks_t_begin__SWIG_0$catch$4 0000000180032b88     tryblks.obj
 0004:00000b94       $pdata$_wrap_tryblks_t_begin__SWIG_0$catch$3 0000000180032b94     tryblks.obj
 0004:00000ba0       $pdata$_wrap_tryblks_t_begin__SWIG_0$catch$2 0000000180032ba0     tryblks.obj
 0004:00000bac       $pdata$_wrap_tryblks_t_begin__SWIG_0$catch$1 0000000180032bac     tryblks.obj
 0004:00000bb8       $pdata$_wrap_tryblks_t_begin__SWIG_0$catch$0 0000000180032bb8     tryblks.obj
 0004:00000bc4       $pdata$_wrap_tryblks_t_end__SWIG_0 0000000180032bc4     tryblks.obj
 0004:00000bd0       $pdata$_wrap_tryblks_t_end__SWIG_0$catch$5 0000000180032bd0     tryblks.obj
 0004:00000bdc       $pdata$_wrap_tryblks_t_end__SWIG_0$catch$4 0000000180032bdc     tryblks.obj
 0004:00000be8       $pdata$_wrap_tryblks_t_end__SWIG_0$catch$3 0000000180032be8     tryblks.obj
 0004:00000bf4       $pdata$_wrap_tryblks_t_end__SWIG_0$catch$2 0000000180032bf4     tryblks.obj
 0004:00000c00       $pdata$_wrap_tryblks_t_end__SWIG_0$catch$1 0000000180032c00     tryblks.obj
 0004:00000c0c       $pdata$_wrap_tryblks_t_end__SWIG_0$catch$0 0000000180032c0c     tryblks.obj
 0004:00000c18       $pdata$_wrap_tryblks_t_begin__SWIG_1 0000000180032c18     tryblks.obj
 0004:00000c24       $pdata$_wrap_tryblks_t_begin__SWIG_1$catch$5 0000000180032c24     tryblks.obj
 0004:00000c30       $pdata$_wrap_tryblks_t_begin__SWIG_1$catch$4 0000000180032c30     tryblks.obj
 0004:00000c3c       $pdata$_wrap_tryblks_t_begin__SWIG_1$catch$3 0000000180032c3c     tryblks.obj
 0004:00000c48       $pdata$_wrap_tryblks_t_begin__SWIG_1$catch$2 0000000180032c48     tryblks.obj
 0004:00000c54       $pdata$_wrap_tryblks_t_begin__SWIG_1$catch$1 0000000180032c54     tryblks.obj
 0004:00000c60       $pdata$_wrap_tryblks_t_begin__SWIG_1$catch$0 0000000180032c60     tryblks.obj
 0004:00000c6c       $pdata$_wrap_tryblks_t_begin 0000000180032c6c     tryblks.obj
 0004:00000c78       $pdata$_wrap_tryblks_t_end__SWIG_1 0000000180032c78     tryblks.obj
 0004:00000c84       $pdata$_wrap_tryblks_t_end__SWIG_1$catch$5 0000000180032c84     tryblks.obj
 0004:00000c90       $pdata$_wrap_tryblks_t_end__SWIG_1$catch$4 0000000180032c90     tryblks.obj
 0004:00000c9c       $pdata$_wrap_tryblks_t_end__SWIG_1$catch$3 0000000180032c9c     tryblks.obj
 0004:00000ca8       $pdata$_wrap_tryblks_t_end__SWIG_1$catch$2 0000000180032ca8     tryblks.obj
 0004:00000cb4       $pdata$_wrap_tryblks_t_end__SWIG_1$catch$1 0000000180032cb4     tryblks.obj
 0004:00000cc0       $pdata$_wrap_tryblks_t_end__SWIG_1$catch$0 0000000180032cc0     tryblks.obj
 0004:00000ccc       $pdata$_wrap_tryblks_t_end 0000000180032ccc     tryblks.obj
 0004:00000cd8       $pdata$_wrap_tryblks_t_insert 0000000180032cd8     tryblks.obj
 0004:00000ce4       $pdata$_wrap_tryblks_t_insert$catch$9 0000000180032ce4     tryblks.obj
 0004:00000cf0       $pdata$_wrap_tryblks_t_insert$catch$8 0000000180032cf0     tryblks.obj
 0004:00000cfc       $pdata$_wrap_tryblks_t_insert$catch$7 0000000180032cfc     tryblks.obj
 0004:00000d08       $pdata$_wrap_tryblks_t_insert$catch$6 0000000180032d08     tryblks.obj
 0004:00000d14       $pdata$_wrap_tryblks_t_insert$catch$5 0000000180032d14     tryblks.obj
 0004:00000d20       $pdata$_wrap_tryblks_t_insert$catch$4 0000000180032d20     tryblks.obj
 0004:00000d2c       $pdata$_wrap_tryblks_t_erase__SWIG_0 0000000180032d2c     tryblks.obj
 0004:00000d38       $pdata$_wrap_tryblks_t_erase__SWIG_0$catch$5 0000000180032d38     tryblks.obj
 0004:00000d44       $pdata$_wrap_tryblks_t_erase__SWIG_0$catch$4 0000000180032d44     tryblks.obj
 0004:00000d50       $pdata$_wrap_tryblks_t_erase__SWIG_0$catch$3 0000000180032d50     tryblks.obj
 0004:00000d5c       $pdata$_wrap_tryblks_t_erase__SWIG_0$catch$2 0000000180032d5c     tryblks.obj
 0004:00000d68       $pdata$_wrap_tryblks_t_erase__SWIG_0$catch$1 0000000180032d68     tryblks.obj
 0004:00000d74       $pdata$_wrap_tryblks_t_erase__SWIG_0$catch$0 0000000180032d74     tryblks.obj
 0004:00000d80       $pdata$_wrap_tryblks_t_erase__SWIG_1 0000000180032d80     tryblks.obj
 0004:00000d8c       $pdata$_wrap_tryblks_t_erase__SWIG_1$catch$9 0000000180032d8c     tryblks.obj
 0004:00000d98       $pdata$_wrap_tryblks_t_erase__SWIG_1$catch$8 0000000180032d98     tryblks.obj
 0004:00000da4       $pdata$_wrap_tryblks_t_erase__SWIG_1$catch$7 0000000180032da4     tryblks.obj
 0004:00000db0       $pdata$_wrap_tryblks_t_erase__SWIG_1$catch$6 0000000180032db0     tryblks.obj
 0004:00000dbc       $pdata$_wrap_tryblks_t_erase__SWIG_1$catch$5 0000000180032dbc     tryblks.obj
 0004:00000dc8       $pdata$_wrap_tryblks_t_erase__SWIG_1$catch$4 0000000180032dc8     tryblks.obj
 0004:00000dd4       $pdata$_wrap_tryblks_t_erase 0000000180032dd4     tryblks.obj
 0004:00000de0       $pdata$_wrap_tryblks_t_find__SWIG_0 0000000180032de0     tryblks.obj
 0004:00000dec       $pdata$_wrap_tryblks_t_find__SWIG_0$catch$5 0000000180032dec     tryblks.obj
 0004:00000df8       $pdata$_wrap_tryblks_t_find__SWIG_0$catch$4 0000000180032df8     tryblks.obj
 0004:00000e04       $pdata$_wrap_tryblks_t_find__SWIG_0$catch$3 0000000180032e04     tryblks.obj
 0004:00000e10       $pdata$_wrap_tryblks_t_find__SWIG_0$catch$2 0000000180032e10     tryblks.obj
 0004:00000e1c       $pdata$_wrap_tryblks_t_find__SWIG_0$catch$1 0000000180032e1c     tryblks.obj
 0004:00000e28       $pdata$_wrap_tryblks_t_find__SWIG_0$catch$0 0000000180032e28     tryblks.obj
 0004:00000e34       $pdata$_wrap_tryblks_t_find__SWIG_1 0000000180032e34     tryblks.obj
 0004:00000e40       $pdata$_wrap_tryblks_t_find__SWIG_1$catch$5 0000000180032e40     tryblks.obj
 0004:00000e4c       $pdata$_wrap_tryblks_t_find__SWIG_1$catch$4 0000000180032e4c     tryblks.obj
 0004:00000e58       $pdata$_wrap_tryblks_t_find__SWIG_1$catch$3 0000000180032e58     tryblks.obj
 0004:00000e64       $pdata$_wrap_tryblks_t_find__SWIG_1$catch$2 0000000180032e64     tryblks.obj
 0004:00000e70       $pdata$_wrap_tryblks_t_find__SWIG_1$catch$1 0000000180032e70     tryblks.obj
 0004:00000e7c       $pdata$_wrap_tryblks_t_find__SWIG_1$catch$0 0000000180032e7c     tryblks.obj
 0004:00000e88       $pdata$_wrap_tryblks_t_find 0000000180032e88     tryblks.obj
 0004:00000e94       $pdata$_wrap_tryblks_t_has 0000000180032e94     tryblks.obj
 0004:00000ea0       $pdata$_wrap_tryblks_t_has$catch$5 0000000180032ea0     tryblks.obj
 0004:00000eac       $pdata$_wrap_tryblks_t_has$catch$4 0000000180032eac     tryblks.obj
 0004:00000eb8       $pdata$_wrap_tryblks_t_has$catch$3 0000000180032eb8     tryblks.obj
 0004:00000ec4       $pdata$_wrap_tryblks_t_has$catch$2 0000000180032ec4     tryblks.obj
 0004:00000ed0       $pdata$_wrap_tryblks_t_has$catch$1 0000000180032ed0     tryblks.obj
 0004:00000edc       $pdata$_wrap_tryblks_t_has$catch$0 0000000180032edc     tryblks.obj
 0004:00000ee8       $pdata$_wrap_tryblks_t_add_unique 0000000180032ee8     tryblks.obj
 0004:00000ef4       $pdata$_wrap_tryblks_t_add_unique$catch$5 0000000180032ef4     tryblks.obj
 0004:00000f00       $pdata$_wrap_tryblks_t_add_unique$catch$4 0000000180032f00     tryblks.obj
 0004:00000f0c       $pdata$_wrap_tryblks_t_add_unique$catch$3 0000000180032f0c     tryblks.obj
 0004:00000f18       $pdata$_wrap_tryblks_t_add_unique$catch$2 0000000180032f18     tryblks.obj
 0004:00000f24       $pdata$_wrap_tryblks_t_add_unique$catch$1 0000000180032f24     tryblks.obj
 0004:00000f30       $pdata$_wrap_tryblks_t_add_unique$catch$0 0000000180032f30     tryblks.obj
 0004:00000f3c       $pdata$_wrap_tryblks_t__del 0000000180032f3c     tryblks.obj
 0004:00000f48       $pdata$_wrap_tryblks_t__del$catch$5 0000000180032f48     tryblks.obj
 0004:00000f54       $pdata$_wrap_tryblks_t__del$catch$4 0000000180032f54     tryblks.obj
 0004:00000f60       $pdata$_wrap_tryblks_t__del$catch$3 0000000180032f60     tryblks.obj
 0004:00000f6c       $pdata$_wrap_tryblks_t__del$catch$2 0000000180032f6c     tryblks.obj
 0004:00000f78       $pdata$_wrap_tryblks_t__del$catch$1 0000000180032f78     tryblks.obj
 0004:00000f84       $pdata$_wrap_tryblks_t__del$catch$0 0000000180032f84     tryblks.obj
 0004:00000f90       $pdata$_wrap_tryblks_t___len__ 0000000180032f90     tryblks.obj
 0004:00000f9c       $pdata$_wrap_tryblks_t___len__$catch$5 0000000180032f9c     tryblks.obj
 0004:00000fa8       $pdata$_wrap_tryblks_t___len__$catch$4 0000000180032fa8     tryblks.obj
 0004:00000fb4       $pdata$_wrap_tryblks_t___len__$catch$3 0000000180032fb4     tryblks.obj
 0004:00000fc0       $pdata$_wrap_tryblks_t___len__$catch$2 0000000180032fc0     tryblks.obj
 0004:00000fcc       $pdata$_wrap_tryblks_t___len__$catch$1 0000000180032fcc     tryblks.obj
 0004:00000fd8       $pdata$_wrap_tryblks_t___len__$catch$0 0000000180032fd8     tryblks.obj
 0004:00000fe4       $pdata$_wrap_tryblks_t___getitem__ 0000000180032fe4     tryblks.obj
 0004:00000ff0       $pdata$_wrap_tryblks_t___getitem__$catch$0 0000000180032ff0     tryblks.obj
 0004:00000ffc       $pdata$_wrap_tryblks_t___getitem__$catch$1 0000000180032ffc     tryblks.obj
 0004:00001008       $pdata$_wrap_tryblks_t___getitem__$catch$2 0000000180033008     tryblks.obj
 0004:00001014       $pdata$_wrap_tryblks_t___getitem__$catch$3 0000000180033014     tryblks.obj
 0004:00001020       $pdata$_wrap_tryblks_t___getitem__$catch$4 0000000180033020     tryblks.obj
 0004:0000102c       $pdata$_wrap_tryblks_t___getitem__$catch$5 000000018003302c     tryblks.obj
 0004:00001038       $pdata$_wrap_tryblks_t___setitem__ 0000000180033038     tryblks.obj
 0004:00001044       $pdata$_wrap_tryblks_t___setitem__$catch$0 0000000180033044     tryblks.obj
 0004:00001050       $pdata$_wrap_tryblks_t___setitem__$catch$1 0000000180033050     tryblks.obj
 0004:0000105c       $pdata$_wrap_tryblks_t___setitem__$catch$2 000000018003305c     tryblks.obj
 0004:00001068       $pdata$_wrap_tryblks_t___setitem__$catch$3 0000000180033068     tryblks.obj
 0004:00001074       $pdata$_wrap_tryblks_t___setitem__$catch$4 0000000180033074     tryblks.obj
 0004:00001080       $pdata$_wrap_tryblks_t___setitem__$catch$5 0000000180033080     tryblks.obj
 0004:0000108c       $pdata$tryblks_t_swigregister 000000018003308c     tryblks.obj
 0004:00001098       $pdata$_wrap_new_catchvec_t__SWIG_0 0000000180033098     tryblks.obj
 0004:000010a4       $pdata$_wrap_new_catchvec_t__SWIG_0$catch$6 00000001800330a4     tryblks.obj
 0004:000010b0       $pdata$_wrap_new_catchvec_t__SWIG_0$catch$5 00000001800330b0     tryblks.obj
 0004:000010bc       $pdata$_wrap_new_catchvec_t__SWIG_0$catch$4 00000001800330bc     tryblks.obj
 0004:000010c8       $pdata$_wrap_new_catchvec_t__SWIG_0$catch$3 00000001800330c8     tryblks.obj
 0004:000010d4       $pdata$_wrap_new_catchvec_t__SWIG_0$catch$2 00000001800330d4     tryblks.obj
 0004:000010e0       $pdata$_wrap_new_catchvec_t__SWIG_0$catch$1 00000001800330e0     tryblks.obj
 0004:000010ec       $pdata$_wrap_new_catchvec_t__SWIG_1 00000001800330ec     tryblks.obj
 0004:000010f8       $pdata$_wrap_new_catchvec_t__SWIG_1$catch$6 00000001800330f8     tryblks.obj
 0004:00001104       $pdata$_wrap_new_catchvec_t__SWIG_1$catch$5 0000000180033104     tryblks.obj
 0004:00001110       $pdata$_wrap_new_catchvec_t__SWIG_1$catch$4 0000000180033110     tryblks.obj
 0004:0000111c       $pdata$_wrap_new_catchvec_t__SWIG_1$catch$3 000000018003311c     tryblks.obj
 0004:00001128       $pdata$_wrap_new_catchvec_t__SWIG_1$catch$2 0000000180033128     tryblks.obj
 0004:00001134       $pdata$_wrap_new_catchvec_t__SWIG_1$catch$1 0000000180033134     tryblks.obj
 0004:00001140       $pdata$_wrap_new_catchvec_t 0000000180033140     tryblks.obj
 0004:0000114c       $pdata$_wrap_delete_catchvec_t 000000018003314c     tryblks.obj
 0004:00001158       $pdata$_wrap_delete_catchvec_t$catch$5 0000000180033158     tryblks.obj
 0004:00001164       $pdata$_wrap_delete_catchvec_t$catch$4 0000000180033164     tryblks.obj
 0004:00001170       $pdata$_wrap_delete_catchvec_t$catch$3 0000000180033170     tryblks.obj
 0004:0000117c       $pdata$_wrap_delete_catchvec_t$catch$2 000000018003317c     tryblks.obj
 0004:00001188       $pdata$_wrap_delete_catchvec_t$catch$1 0000000180033188     tryblks.obj
 0004:00001194       $pdata$_wrap_delete_catchvec_t$catch$0 0000000180033194     tryblks.obj
 0004:000011a0       $pdata$_wrap_catchvec_t_push_back__SWIG_0 00000001800331a0     tryblks.obj
 0004:000011ac       $pdata$_wrap_catchvec_t_push_back__SWIG_0$catch$5 00000001800331ac     tryblks.obj
 0004:000011b8       $pdata$_wrap_catchvec_t_push_back__SWIG_0$catch$4 00000001800331b8     tryblks.obj
 0004:000011c4       $pdata$_wrap_catchvec_t_push_back__SWIG_0$catch$3 00000001800331c4     tryblks.obj
 0004:000011d0       $pdata$_wrap_catchvec_t_push_back__SWIG_0$catch$2 00000001800331d0     tryblks.obj
 0004:000011dc       $pdata$_wrap_catchvec_t_push_back__SWIG_0$catch$1 00000001800331dc     tryblks.obj
 0004:000011e8       $pdata$_wrap_catchvec_t_push_back__SWIG_0$catch$0 00000001800331e8     tryblks.obj
 0004:000011f4       $pdata$_wrap_catchvec_t_push_back__SWIG_1 00000001800331f4     tryblks.obj
 0004:00001200       $pdata$_wrap_catchvec_t_push_back__SWIG_1$catch$8 0000000180033200     tryblks.obj
 0004:0000120c       $pdata$_wrap_catchvec_t_push_back__SWIG_1$catch$7 000000018003320c     tryblks.obj
 0004:00001218       $pdata$_wrap_catchvec_t_push_back__SWIG_1$catch$6 0000000180033218     tryblks.obj
 0004:00001224       $pdata$_wrap_catchvec_t_push_back__SWIG_1$catch$5 0000000180033224     tryblks.obj
 0004:00001230       $pdata$_wrap_catchvec_t_push_back__SWIG_1$catch$4 0000000180033230     tryblks.obj
 0004:0000123c       $pdata$_wrap_catchvec_t_push_back__SWIG_1$catch$3 000000018003323c     tryblks.obj
 0004:00001248       $pdata$_wrap_catchvec_t_push_back 0000000180033248     tryblks.obj
 0004:00001254       $pdata$_wrap_catchvec_t_pop_back 0000000180033254     tryblks.obj
 0004:00001260       $pdata$_wrap_catchvec_t_pop_back$catch$8 0000000180033260     tryblks.obj
 0004:0000126c       $pdata$_wrap_catchvec_t_pop_back$catch$7 000000018003326c     tryblks.obj
 0004:00001278       $pdata$_wrap_catchvec_t_pop_back$catch$6 0000000180033278     tryblks.obj
 0004:00001284       $pdata$_wrap_catchvec_t_pop_back$catch$5 0000000180033284     tryblks.obj
 0004:00001290       $pdata$_wrap_catchvec_t_pop_back$catch$4 0000000180033290     tryblks.obj
 0004:0000129c       $pdata$_wrap_catchvec_t_pop_back$catch$3 000000018003329c     tryblks.obj
 0004:000012a8       $pdata$_wrap_catchvec_t_size 00000001800332a8     tryblks.obj
 0004:000012b4       $pdata$_wrap_catchvec_t_size$catch$5 00000001800332b4     tryblks.obj
 0004:000012c0       $pdata$_wrap_catchvec_t_size$catch$4 00000001800332c0     tryblks.obj
 0004:000012cc       $pdata$_wrap_catchvec_t_size$catch$3 00000001800332cc     tryblks.obj
 0004:000012d8       $pdata$_wrap_catchvec_t_size$catch$2 00000001800332d8     tryblks.obj
 0004:000012e4       $pdata$_wrap_catchvec_t_size$catch$1 00000001800332e4     tryblks.obj
 0004:000012f0       $pdata$_wrap_catchvec_t_size$catch$0 00000001800332f0     tryblks.obj
 0004:000012fc       $pdata$_wrap_catchvec_t_empty 00000001800332fc     tryblks.obj
 0004:00001308       $pdata$_wrap_catchvec_t_empty$catch$5 0000000180033308     tryblks.obj
 0004:00001314       $pdata$_wrap_catchvec_t_empty$catch$4 0000000180033314     tryblks.obj
 0004:00001320       $pdata$_wrap_catchvec_t_empty$catch$3 0000000180033320     tryblks.obj
 0004:0000132c       $pdata$_wrap_catchvec_t_empty$catch$2 000000018003332c     tryblks.obj
 0004:00001338       $pdata$_wrap_catchvec_t_empty$catch$1 0000000180033338     tryblks.obj
 0004:00001344       $pdata$_wrap_catchvec_t_empty$catch$0 0000000180033344     tryblks.obj
 0004:00001350       $pdata$_wrap_catchvec_t_at 0000000180033350     tryblks.obj
 0004:0000135c       $pdata$_wrap_catchvec_t_at$catch$5 000000018003335c     tryblks.obj
 0004:00001368       $pdata$_wrap_catchvec_t_at$catch$4 0000000180033368     tryblks.obj
 0004:00001374       $pdata$_wrap_catchvec_t_at$catch$3 0000000180033374     tryblks.obj
 0004:00001380       $pdata$_wrap_catchvec_t_at$catch$2 0000000180033380     tryblks.obj
 0004:0000138c       $pdata$_wrap_catchvec_t_at$catch$1 000000018003338c     tryblks.obj
 0004:00001398       $pdata$_wrap_catchvec_t_at$catch$0 0000000180033398     tryblks.obj
 0004:000013a4       $pdata$_wrap_catchvec_t_qclear 00000001800333a4     tryblks.obj
 0004:000013b0       $pdata$_wrap_catchvec_t_qclear$catch$5 00000001800333b0     tryblks.obj
 0004:000013bc       $pdata$_wrap_catchvec_t_qclear$catch$4 00000001800333bc     tryblks.obj
 0004:000013c8       $pdata$_wrap_catchvec_t_qclear$catch$3 00000001800333c8     tryblks.obj
 0004:000013d4       $pdata$_wrap_catchvec_t_qclear$catch$2 00000001800333d4     tryblks.obj
 0004:000013e0       $pdata$_wrap_catchvec_t_qclear$catch$1 00000001800333e0     tryblks.obj
 0004:000013ec       $pdata$_wrap_catchvec_t_qclear$catch$0 00000001800333ec     tryblks.obj
 0004:000013f8       $pdata$_wrap_catchvec_t_clear 00000001800333f8     tryblks.obj
 0004:00001404       $pdata$_wrap_catchvec_t_clear$catch$5 0000000180033404     tryblks.obj
 0004:00001410       $pdata$_wrap_catchvec_t_clear$catch$4 0000000180033410     tryblks.obj
 0004:0000141c       $pdata$_wrap_catchvec_t_clear$catch$3 000000018003341c     tryblks.obj
 0004:00001428       $pdata$_wrap_catchvec_t_clear$catch$2 0000000180033428     tryblks.obj
 0004:00001434       $pdata$_wrap_catchvec_t_clear$catch$1 0000000180033434     tryblks.obj
 0004:00001440       $pdata$_wrap_catchvec_t_clear$catch$0 0000000180033440     tryblks.obj
 0004:0000144c       $pdata$_wrap_catchvec_t_resize__SWIG_0 000000018003344c     tryblks.obj
 0004:00001458       $pdata$_wrap_catchvec_t_resize__SWIG_0$catch$5 0000000180033458     tryblks.obj
 0004:00001464       $pdata$_wrap_catchvec_t_resize__SWIG_0$catch$4 0000000180033464     tryblks.obj
 0004:00001470       $pdata$_wrap_catchvec_t_resize__SWIG_0$catch$3 0000000180033470     tryblks.obj
 0004:0000147c       $pdata$_wrap_catchvec_t_resize__SWIG_0$catch$2 000000018003347c     tryblks.obj
 0004:00001488       $pdata$_wrap_catchvec_t_resize__SWIG_0$catch$1 0000000180033488     tryblks.obj
 0004:00001494       $pdata$_wrap_catchvec_t_resize__SWIG_0$catch$0 0000000180033494     tryblks.obj
 0004:000014a0       $pdata$_wrap_catchvec_t_resize__SWIG_1 00000001800334a0     tryblks.obj
 0004:000014ac       $pdata$_wrap_catchvec_t_resize__SWIG_1$catch$11 00000001800334ac     tryblks.obj
 0004:000014b8       $pdata$_wrap_catchvec_t_resize__SWIG_1$catch$10 00000001800334b8     tryblks.obj
 0004:000014c4       $pdata$_wrap_catchvec_t_resize__SWIG_1$catch$9 00000001800334c4     tryblks.obj
 0004:000014d0       $pdata$_wrap_catchvec_t_resize__SWIG_1$catch$8 00000001800334d0     tryblks.obj
 0004:000014dc       $pdata$_wrap_catchvec_t_resize__SWIG_1$catch$7 00000001800334dc     tryblks.obj
 0004:000014e8       $pdata$_wrap_catchvec_t_resize__SWIG_1$catch$6 00000001800334e8     tryblks.obj
 0004:000014f4       $pdata$_wrap_catchvec_t_resize 00000001800334f4     tryblks.obj
 0004:00001500       $pdata$_wrap_catchvec_t_grow 0000000180033500     tryblks.obj
 0004:0000150c       $pdata$_wrap_catchvec_t_grow$catch$15 000000018003350c     tryblks.obj
 0004:00001518       $pdata$_wrap_catchvec_t_grow$catch$14 0000000180033518     tryblks.obj
 0004:00001524       $pdata$_wrap_catchvec_t_grow$catch$13 0000000180033524     tryblks.obj
 0004:00001530       $pdata$_wrap_catchvec_t_grow$catch$12 0000000180033530     tryblks.obj
 0004:0000153c       $pdata$_wrap_catchvec_t_grow$catch$11 000000018003353c     tryblks.obj
 0004:00001548       $pdata$_wrap_catchvec_t_grow$catch$10 0000000180033548     tryblks.obj
 0004:00001554       $pdata$_wrap_catchvec_t_capacity 0000000180033554     tryblks.obj
 0004:00001560       $pdata$_wrap_catchvec_t_capacity$catch$5 0000000180033560     tryblks.obj
 0004:0000156c       $pdata$_wrap_catchvec_t_capacity$catch$4 000000018003356c     tryblks.obj
 0004:00001578       $pdata$_wrap_catchvec_t_capacity$catch$3 0000000180033578     tryblks.obj
 0004:00001584       $pdata$_wrap_catchvec_t_capacity$catch$2 0000000180033584     tryblks.obj
 0004:00001590       $pdata$_wrap_catchvec_t_capacity$catch$1 0000000180033590     tryblks.obj
 0004:0000159c       $pdata$_wrap_catchvec_t_capacity$catch$0 000000018003359c     tryblks.obj
 0004:000015a8       $pdata$_wrap_catchvec_t_reserve 00000001800335a8     tryblks.obj
 0004:000015b4       $pdata$_wrap_catchvec_t_reserve$catch$8 00000001800335b4     tryblks.obj
 0004:000015c0       $pdata$_wrap_catchvec_t_reserve$catch$7 00000001800335c0     tryblks.obj
 0004:000015cc       $pdata$_wrap_catchvec_t_reserve$catch$6 00000001800335cc     tryblks.obj
 0004:000015d8       $pdata$_wrap_catchvec_t_reserve$catch$5 00000001800335d8     tryblks.obj
 0004:000015e4       $pdata$_wrap_catchvec_t_reserve$catch$4 00000001800335e4     tryblks.obj
 0004:000015f0       $pdata$_wrap_catchvec_t_reserve$catch$3 00000001800335f0     tryblks.obj
 0004:000015fc       $pdata$_wrap_catchvec_t_truncate 00000001800335fc     tryblks.obj
 0004:00001608       $pdata$_wrap_catchvec_t_truncate$catch$5 0000000180033608     tryblks.obj
 0004:00001614       $pdata$_wrap_catchvec_t_truncate$catch$4 0000000180033614     tryblks.obj
 0004:00001620       $pdata$_wrap_catchvec_t_truncate$catch$3 0000000180033620     tryblks.obj
 0004:0000162c       $pdata$_wrap_catchvec_t_truncate$catch$2 000000018003362c     tryblks.obj
 0004:00001638       $pdata$_wrap_catchvec_t_truncate$catch$1 0000000180033638     tryblks.obj
 0004:00001644       $pdata$_wrap_catchvec_t_truncate$catch$0 0000000180033644     tryblks.obj
 0004:00001650       $pdata$_wrap_catchvec_t_swap 0000000180033650     tryblks.obj
 0004:0000165c       $pdata$_wrap_catchvec_t_swap$catch$5 000000018003365c     tryblks.obj
 0004:00001668       $pdata$_wrap_catchvec_t_swap$catch$4 0000000180033668     tryblks.obj
 0004:00001674       $pdata$_wrap_catchvec_t_swap$catch$3 0000000180033674     tryblks.obj
 0004:00001680       $pdata$_wrap_catchvec_t_swap$catch$2 0000000180033680     tryblks.obj
 0004:0000168c       $pdata$_wrap_catchvec_t_swap$catch$1 000000018003368c     tryblks.obj
 0004:00001698       $pdata$_wrap_catchvec_t_swap$catch$0 0000000180033698     tryblks.obj
 0004:000016a4       $pdata$_wrap_catchvec_t_extract 00000001800336a4     tryblks.obj
 0004:000016b0       $pdata$_wrap_catchvec_t_extract$catch$5 00000001800336b0     tryblks.obj
 0004:000016bc       $pdata$_wrap_catchvec_t_extract$catch$4 00000001800336bc     tryblks.obj
 0004:000016c8       $pdata$_wrap_catchvec_t_extract$catch$3 00000001800336c8     tryblks.obj
 0004:000016d4       $pdata$_wrap_catchvec_t_extract$catch$2 00000001800336d4     tryblks.obj
 0004:000016e0       $pdata$_wrap_catchvec_t_extract$catch$1 00000001800336e0     tryblks.obj
 0004:000016ec       $pdata$_wrap_catchvec_t_extract$catch$0 00000001800336ec     tryblks.obj
 0004:000016f8       $pdata$_wrap_catchvec_t_inject 00000001800336f8     tryblks.obj
 0004:00001704       $pdata$_wrap_catchvec_t_inject$catch$5 0000000180033704     tryblks.obj
 0004:00001710       $pdata$_wrap_catchvec_t_inject$catch$4 0000000180033710     tryblks.obj
 0004:0000171c       $pdata$_wrap_catchvec_t_inject$catch$3 000000018003371c     tryblks.obj
 0004:00001728       $pdata$_wrap_catchvec_t_inject$catch$2 0000000180033728     tryblks.obj
 0004:00001734       $pdata$_wrap_catchvec_t_inject$catch$1 0000000180033734     tryblks.obj
 0004:00001740       $pdata$_wrap_catchvec_t_inject$catch$0 0000000180033740     tryblks.obj
 0004:0000174c       $pdata$_wrap_catchvec_t___eq__ 000000018003374c     tryblks.obj
 0004:00001758       $pdata$_wrap_catchvec_t___eq__$catch$5 0000000180033758     tryblks.obj
 0004:00001764       $pdata$_wrap_catchvec_t___eq__$catch$4 0000000180033764     tryblks.obj
 0004:00001770       $pdata$_wrap_catchvec_t___eq__$catch$3 0000000180033770     tryblks.obj
 0004:0000177c       $pdata$_wrap_catchvec_t___eq__$catch$2 000000018003377c     tryblks.obj
 0004:00001788       $pdata$_wrap_catchvec_t___eq__$catch$1 0000000180033788     tryblks.obj
 0004:00001794       $pdata$_wrap_catchvec_t___eq__$catch$0 0000000180033794     tryblks.obj
 0004:000017a0       $pdata$_wrap_catchvec_t___ne__ 00000001800337a0     tryblks.obj
 0004:000017ac       $pdata$_wrap_catchvec_t___ne__$catch$5 00000001800337ac     tryblks.obj
 0004:000017b8       $pdata$_wrap_catchvec_t___ne__$catch$4 00000001800337b8     tryblks.obj
 0004:000017c4       $pdata$_wrap_catchvec_t___ne__$catch$3 00000001800337c4     tryblks.obj
 0004:000017d0       $pdata$_wrap_catchvec_t___ne__$catch$2 00000001800337d0     tryblks.obj
 0004:000017dc       $pdata$_wrap_catchvec_t___ne__$catch$1 00000001800337dc     tryblks.obj
 0004:000017e8       $pdata$_wrap_catchvec_t___ne__$catch$0 00000001800337e8     tryblks.obj
 0004:000017f4       $pdata$_wrap_catchvec_t_begin__SWIG_0 00000001800337f4     tryblks.obj
 0004:00001800       $pdata$_wrap_catchvec_t_begin__SWIG_0$catch$5 0000000180033800     tryblks.obj
 0004:0000180c       $pdata$_wrap_catchvec_t_begin__SWIG_0$catch$4 000000018003380c     tryblks.obj
 0004:00001818       $pdata$_wrap_catchvec_t_begin__SWIG_0$catch$3 0000000180033818     tryblks.obj
 0004:00001824       $pdata$_wrap_catchvec_t_begin__SWIG_0$catch$2 0000000180033824     tryblks.obj
 0004:00001830       $pdata$_wrap_catchvec_t_begin__SWIG_0$catch$1 0000000180033830     tryblks.obj
 0004:0000183c       $pdata$_wrap_catchvec_t_begin__SWIG_0$catch$0 000000018003383c     tryblks.obj
 0004:00001848       $pdata$_wrap_catchvec_t_end__SWIG_0 0000000180033848     tryblks.obj
 0004:00001854       $pdata$_wrap_catchvec_t_end__SWIG_0$catch$5 0000000180033854     tryblks.obj
 0004:00001860       $pdata$_wrap_catchvec_t_end__SWIG_0$catch$4 0000000180033860     tryblks.obj
 0004:0000186c       $pdata$_wrap_catchvec_t_end__SWIG_0$catch$3 000000018003386c     tryblks.obj
 0004:00001878       $pdata$_wrap_catchvec_t_end__SWIG_0$catch$2 0000000180033878     tryblks.obj
 0004:00001884       $pdata$_wrap_catchvec_t_end__SWIG_0$catch$1 0000000180033884     tryblks.obj
 0004:00001890       $pdata$_wrap_catchvec_t_end__SWIG_0$catch$0 0000000180033890     tryblks.obj
 0004:0000189c       $pdata$_wrap_catchvec_t_begin__SWIG_1 000000018003389c     tryblks.obj
 0004:000018a8       $pdata$_wrap_catchvec_t_begin__SWIG_1$catch$5 00000001800338a8     tryblks.obj
 0004:000018b4       $pdata$_wrap_catchvec_t_begin__SWIG_1$catch$4 00000001800338b4     tryblks.obj
 0004:000018c0       $pdata$_wrap_catchvec_t_begin__SWIG_1$catch$3 00000001800338c0     tryblks.obj
 0004:000018cc       $pdata$_wrap_catchvec_t_begin__SWIG_1$catch$2 00000001800338cc     tryblks.obj
 0004:000018d8       $pdata$_wrap_catchvec_t_begin__SWIG_1$catch$1 00000001800338d8     tryblks.obj
 0004:000018e4       $pdata$_wrap_catchvec_t_begin__SWIG_1$catch$0 00000001800338e4     tryblks.obj
 0004:000018f0       $pdata$_wrap_catchvec_t_begin 00000001800338f0     tryblks.obj
 0004:000018fc       $pdata$_wrap_catchvec_t_end__SWIG_1 00000001800338fc     tryblks.obj
 0004:00001908       $pdata$_wrap_catchvec_t_end__SWIG_1$catch$5 0000000180033908     tryblks.obj
 0004:00001914       $pdata$_wrap_catchvec_t_end__SWIG_1$catch$4 0000000180033914     tryblks.obj
 0004:00001920       $pdata$_wrap_catchvec_t_end__SWIG_1$catch$3 0000000180033920     tryblks.obj
 0004:0000192c       $pdata$_wrap_catchvec_t_end__SWIG_1$catch$2 000000018003392c     tryblks.obj
 0004:00001938       $pdata$_wrap_catchvec_t_end__SWIG_1$catch$1 0000000180033938     tryblks.obj
 0004:00001944       $pdata$_wrap_catchvec_t_end__SWIG_1$catch$0 0000000180033944     tryblks.obj
 0004:00001950       $pdata$_wrap_catchvec_t_end 0000000180033950     tryblks.obj
 0004:0000195c       $pdata$_wrap_catchvec_t_insert 000000018003395c     tryblks.obj
 0004:00001968       $pdata$_wrap_catchvec_t_insert$catch$11 0000000180033968     tryblks.obj
 0004:00001974       $pdata$_wrap_catchvec_t_insert$catch$10 0000000180033974     tryblks.obj
 0004:00001980       $pdata$_wrap_catchvec_t_insert$catch$9 0000000180033980     tryblks.obj
 0004:0000198c       $pdata$_wrap_catchvec_t_insert$catch$8 000000018003398c     tryblks.obj
 0004:00001998       $pdata$_wrap_catchvec_t_insert$catch$7 0000000180033998     tryblks.obj
 0004:000019a4       $pdata$_wrap_catchvec_t_insert$catch$6 00000001800339a4     tryblks.obj
 0004:000019b0       $pdata$_wrap_catchvec_t_erase__SWIG_0 00000001800339b0     tryblks.obj
 0004:000019bc       $pdata$_wrap_catchvec_t_erase__SWIG_0$catch$5 00000001800339bc     tryblks.obj
 0004:000019c8       $pdata$_wrap_catchvec_t_erase__SWIG_0$catch$4 00000001800339c8     tryblks.obj
 0004:000019d4       $pdata$_wrap_catchvec_t_erase__SWIG_0$catch$3 00000001800339d4     tryblks.obj
 0004:000019e0       $pdata$_wrap_catchvec_t_erase__SWIG_0$catch$2 00000001800339e0     tryblks.obj
 0004:000019ec       $pdata$_wrap_catchvec_t_erase__SWIG_0$catch$1 00000001800339ec     tryblks.obj
 0004:000019f8       $pdata$_wrap_catchvec_t_erase__SWIG_0$catch$0 00000001800339f8     tryblks.obj
 0004:00001a04       $pdata$_wrap_catchvec_t_erase__SWIG_1 0000000180033a04     tryblks.obj
 0004:00001a10       $pdata$_wrap_catchvec_t_erase__SWIG_1$catch$11 0000000180033a10     tryblks.obj
 0004:00001a1c       $pdata$_wrap_catchvec_t_erase__SWIG_1$catch$10 0000000180033a1c     tryblks.obj
 0004:00001a28       $pdata$_wrap_catchvec_t_erase__SWIG_1$catch$9 0000000180033a28     tryblks.obj
 0004:00001a34       $pdata$_wrap_catchvec_t_erase__SWIG_1$catch$8 0000000180033a34     tryblks.obj
 0004:00001a40       $pdata$_wrap_catchvec_t_erase__SWIG_1$catch$7 0000000180033a40     tryblks.obj
 0004:00001a4c       $pdata$_wrap_catchvec_t_erase__SWIG_1$catch$6 0000000180033a4c     tryblks.obj
 0004:00001a58       $pdata$_wrap_catchvec_t_erase 0000000180033a58     tryblks.obj
 0004:00001a64       $pdata$_wrap_catchvec_t_find__SWIG_0 0000000180033a64     tryblks.obj
 0004:00001a70       $pdata$_wrap_catchvec_t_find__SWIG_0$catch$5 0000000180033a70     tryblks.obj
 0004:00001a7c       $pdata$_wrap_catchvec_t_find__SWIG_0$catch$4 0000000180033a7c     tryblks.obj
 0004:00001a88       $pdata$_wrap_catchvec_t_find__SWIG_0$catch$3 0000000180033a88     tryblks.obj
 0004:00001a94       $pdata$_wrap_catchvec_t_find__SWIG_0$catch$2 0000000180033a94     tryblks.obj
 0004:00001aa0       $pdata$_wrap_catchvec_t_find__SWIG_0$catch$1 0000000180033aa0     tryblks.obj
 0004:00001aac       $pdata$_wrap_catchvec_t_find__SWIG_0$catch$0 0000000180033aac     tryblks.obj
 0004:00001ab8       $pdata$_wrap_catchvec_t_find__SWIG_1 0000000180033ab8     tryblks.obj
 0004:00001ac4       $pdata$_wrap_catchvec_t_find__SWIG_1$catch$5 0000000180033ac4     tryblks.obj
 0004:00001ad0       $pdata$_wrap_catchvec_t_find__SWIG_1$catch$4 0000000180033ad0     tryblks.obj
 0004:00001adc       $pdata$_wrap_catchvec_t_find__SWIG_1$catch$3 0000000180033adc     tryblks.obj
 0004:00001ae8       $pdata$_wrap_catchvec_t_find__SWIG_1$catch$2 0000000180033ae8     tryblks.obj
 0004:00001af4       $pdata$_wrap_catchvec_t_find__SWIG_1$catch$1 0000000180033af4     tryblks.obj
 0004:00001b00       $pdata$_wrap_catchvec_t_find__SWIG_1$catch$0 0000000180033b00     tryblks.obj
 0004:00001b0c       $pdata$_wrap_catchvec_t_find 0000000180033b0c     tryblks.obj
 0004:00001b18       $pdata$_wrap_catchvec_t_has 0000000180033b18     tryblks.obj
 0004:00001b24       $pdata$_wrap_catchvec_t_has$catch$5 0000000180033b24     tryblks.obj
 0004:00001b30       $pdata$_wrap_catchvec_t_has$catch$4 0000000180033b30     tryblks.obj
 0004:00001b3c       $pdata$_wrap_catchvec_t_has$catch$3 0000000180033b3c     tryblks.obj
 0004:00001b48       $pdata$_wrap_catchvec_t_has$catch$2 0000000180033b48     tryblks.obj
 0004:00001b54       $pdata$_wrap_catchvec_t_has$catch$1 0000000180033b54     tryblks.obj
 0004:00001b60       $pdata$_wrap_catchvec_t_has$catch$0 0000000180033b60     tryblks.obj
 0004:00001b6c       $pdata$_wrap_catchvec_t_add_unique 0000000180033b6c     tryblks.obj
 0004:00001b78       $pdata$_wrap_catchvec_t_add_unique$catch$5 0000000180033b78     tryblks.obj
 0004:00001b84       $pdata$_wrap_catchvec_t_add_unique$catch$4 0000000180033b84     tryblks.obj
 0004:00001b90       $pdata$_wrap_catchvec_t_add_unique$catch$3 0000000180033b90     tryblks.obj
 0004:00001b9c       $pdata$_wrap_catchvec_t_add_unique$catch$2 0000000180033b9c     tryblks.obj
 0004:00001ba8       $pdata$_wrap_catchvec_t_add_unique$catch$1 0000000180033ba8     tryblks.obj
 0004:00001bb4       $pdata$_wrap_catchvec_t_add_unique$catch$0 0000000180033bb4     tryblks.obj
 0004:00001bc0       $pdata$_wrap_catchvec_t__del 0000000180033bc0     tryblks.obj
 0004:00001bcc       $pdata$_wrap_catchvec_t__del$catch$11 0000000180033bcc     tryblks.obj
 0004:00001bd8       $pdata$_wrap_catchvec_t__del$catch$10 0000000180033bd8     tryblks.obj
 0004:00001be4       $pdata$_wrap_catchvec_t__del$catch$9 0000000180033be4     tryblks.obj
 0004:00001bf0       $pdata$_wrap_catchvec_t__del$catch$8 0000000180033bf0     tryblks.obj
 0004:00001bfc       $pdata$_wrap_catchvec_t__del$catch$7 0000000180033bfc     tryblks.obj
 0004:00001c08       $pdata$_wrap_catchvec_t__del$catch$6 0000000180033c08     tryblks.obj
 0004:00001c14       $pdata$_wrap_catchvec_t___len__ 0000000180033c14     tryblks.obj
 0004:00001c20       $pdata$_wrap_catchvec_t___len__$catch$5 0000000180033c20     tryblks.obj
 0004:00001c2c       $pdata$_wrap_catchvec_t___len__$catch$4 0000000180033c2c     tryblks.obj
 0004:00001c38       $pdata$_wrap_catchvec_t___len__$catch$3 0000000180033c38     tryblks.obj
 0004:00001c44       $pdata$_wrap_catchvec_t___len__$catch$2 0000000180033c44     tryblks.obj
 0004:00001c50       $pdata$_wrap_catchvec_t___len__$catch$1 0000000180033c50     tryblks.obj
 0004:00001c5c       $pdata$_wrap_catchvec_t___len__$catch$0 0000000180033c5c     tryblks.obj
 0004:00001c68       $pdata$_wrap_catchvec_t___getitem__ 0000000180033c68     tryblks.obj
 0004:00001c74       $pdata$_wrap_catchvec_t___getitem__$catch$0 0000000180033c74     tryblks.obj
 0004:00001c80       $pdata$_wrap_catchvec_t___getitem__$catch$1 0000000180033c80     tryblks.obj
 0004:00001c8c       $pdata$_wrap_catchvec_t___getitem__$catch$2 0000000180033c8c     tryblks.obj
 0004:00001c98       $pdata$_wrap_catchvec_t___getitem__$catch$3 0000000180033c98     tryblks.obj
 0004:00001ca4       $pdata$_wrap_catchvec_t___getitem__$catch$4 0000000180033ca4     tryblks.obj
 0004:00001cb0       $pdata$_wrap_catchvec_t___getitem__$catch$5 0000000180033cb0     tryblks.obj
 0004:00001cbc       $pdata$_wrap_catchvec_t___setitem__ 0000000180033cbc     tryblks.obj
 0004:00001cc8       $pdata$_wrap_catchvec_t___setitem__$catch$0 0000000180033cc8     tryblks.obj
 0004:00001cd4       $pdata$_wrap_catchvec_t___setitem__$catch$1 0000000180033cd4     tryblks.obj
 0004:00001ce0       $pdata$_wrap_catchvec_t___setitem__$catch$2 0000000180033ce0     tryblks.obj
 0004:00001cec       $pdata$_wrap_catchvec_t___setitem__$catch$3 0000000180033cec     tryblks.obj
 0004:00001cf8       $pdata$_wrap_catchvec_t___setitem__$catch$4 0000000180033cf8     tryblks.obj
 0004:00001d04       $pdata$_wrap_catchvec_t___setitem__$catch$5 0000000180033d04     tryblks.obj
 0004:00001d10       $pdata$catchvec_t_swigregister 0000000180033d10     tryblks.obj
 0004:00001d1c       $pdata$_wrap_try_handler_t_disp_set 0000000180033d1c     tryblks.obj
 0004:00001d28       $pdata$0$_wrap_try_handler_t_disp_set 0000000180033d28     tryblks.obj
 0004:00001d34       $pdata$1$_wrap_try_handler_t_disp_set 0000000180033d34     tryblks.obj
 0004:00001d40       $pdata$_wrap_try_handler_t_disp_get 0000000180033d40     tryblks.obj
 0004:00001d4c       $pdata$0$_wrap_try_handler_t_disp_get 0000000180033d4c     tryblks.obj
 0004:00001d58       $pdata$1$_wrap_try_handler_t_disp_get 0000000180033d58     tryblks.obj
 0004:00001d64       $pdata$_wrap_try_handler_t_fpreg_set 0000000180033d64     tryblks.obj
 0004:00001d70       $pdata$0$_wrap_try_handler_t_fpreg_set 0000000180033d70     tryblks.obj
 0004:00001d7c       $pdata$1$_wrap_try_handler_t_fpreg_set 0000000180033d7c     tryblks.obj
 0004:00001d88       $pdata$_wrap_try_handler_t_fpreg_get 0000000180033d88     tryblks.obj
 0004:00001d94       $pdata$0$_wrap_try_handler_t_fpreg_get 0000000180033d94     tryblks.obj
 0004:00001da0       $pdata$1$_wrap_try_handler_t_fpreg_get 0000000180033da0     tryblks.obj
 0004:00001dac       $pdata$_wrap_new_try_handler_t 0000000180033dac     tryblks.obj
 0004:00001db8       $pdata$_wrap_new_try_handler_t$catch$6 0000000180033db8     tryblks.obj
 0004:00001dc4       $pdata$_wrap_new_try_handler_t$catch$5 0000000180033dc4     tryblks.obj
 0004:00001dd0       $pdata$_wrap_new_try_handler_t$catch$4 0000000180033dd0     tryblks.obj
 0004:00001ddc       $pdata$_wrap_new_try_handler_t$catch$3 0000000180033ddc     tryblks.obj
 0004:00001de8       $pdata$_wrap_new_try_handler_t$catch$2 0000000180033de8     tryblks.obj
 0004:00001df4       $pdata$_wrap_new_try_handler_t$catch$1 0000000180033df4     tryblks.obj
 0004:00001e00       $pdata$_wrap_try_handler_t_clear 0000000180033e00     tryblks.obj
 0004:00001e0c       $pdata$_wrap_try_handler_t_clear$catch$5 0000000180033e0c     tryblks.obj
 0004:00001e18       $pdata$_wrap_try_handler_t_clear$catch$4 0000000180033e18     tryblks.obj
 0004:00001e24       $pdata$_wrap_try_handler_t_clear$catch$3 0000000180033e24     tryblks.obj
 0004:00001e30       $pdata$_wrap_try_handler_t_clear$catch$2 0000000180033e30     tryblks.obj
 0004:00001e3c       $pdata$_wrap_try_handler_t_clear$catch$1 0000000180033e3c     tryblks.obj
 0004:00001e48       $pdata$_wrap_try_handler_t_clear$catch$0 0000000180033e48     tryblks.obj
 0004:00001e54       $pdata$_wrap_delete_try_handler_t 0000000180033e54     tryblks.obj
 0004:00001e60       $pdata$_wrap_delete_try_handler_t$catch$7 0000000180033e60     tryblks.obj
 0004:00001e6c       $pdata$_wrap_delete_try_handler_t$catch$6 0000000180033e6c     tryblks.obj
 0004:00001e78       $pdata$_wrap_delete_try_handler_t$catch$5 0000000180033e78     tryblks.obj
 0004:00001e84       $pdata$_wrap_delete_try_handler_t$catch$4 0000000180033e84     tryblks.obj
 0004:00001e90       $pdata$_wrap_delete_try_handler_t$catch$3 0000000180033e90     tryblks.obj
 0004:00001e9c       $pdata$_wrap_delete_try_handler_t$catch$2 0000000180033e9c     tryblks.obj
 0004:00001ea8       $pdata$try_handler_t_swigregister 0000000180033ea8     tryblks.obj
 0004:00001eb4       $pdata$_wrap_seh_t_filter_set 0000000180033eb4     tryblks.obj
 0004:00001ec0       $pdata$_wrap_seh_t_filter_get 0000000180033ec0     tryblks.obj
 0004:00001ecc       $pdata$0$_wrap_seh_t_filter_get 0000000180033ecc     tryblks.obj
 0004:00001ed8       $pdata$1$_wrap_seh_t_filter_get 0000000180033ed8     tryblks.obj
 0004:00001ee4       $pdata$_wrap_seh_t_seh_code_set 0000000180033ee4     tryblks.obj
 0004:00001ef0       $pdata$0$_wrap_seh_t_seh_code_set 0000000180033ef0     tryblks.obj
 0004:00001efc       $pdata$1$_wrap_seh_t_seh_code_set 0000000180033efc     tryblks.obj
 0004:00001f08       $pdata$_wrap_seh_t_seh_code_get 0000000180033f08     tryblks.obj
 0004:00001f14       $pdata$0$_wrap_seh_t_seh_code_get 0000000180033f14     tryblks.obj
 0004:00001f20       $pdata$1$_wrap_seh_t_seh_code_get 0000000180033f20     tryblks.obj
 0004:00001f2c       $pdata$_wrap_seh_t_clear   0000000180033f2c     tryblks.obj
 0004:00001f38       $pdata$_wrap_seh_t_clear$catch$5 0000000180033f38     tryblks.obj
 0004:00001f44       $pdata$_wrap_seh_t_clear$catch$4 0000000180033f44     tryblks.obj
 0004:00001f50       $pdata$_wrap_seh_t_clear$catch$3 0000000180033f50     tryblks.obj
 0004:00001f5c       $pdata$_wrap_seh_t_clear$catch$2 0000000180033f5c     tryblks.obj
 0004:00001f68       $pdata$_wrap_seh_t_clear$catch$1 0000000180033f68     tryblks.obj
 0004:00001f74       $pdata$_wrap_seh_t_clear$catch$0 0000000180033f74     tryblks.obj
 0004:00001f80       $pdata$_wrap_new_seh_t     0000000180033f80     tryblks.obj
 0004:00001f8c       $pdata$_wrap_new_seh_t$catch$6 0000000180033f8c     tryblks.obj
 0004:00001f98       $pdata$_wrap_new_seh_t$catch$5 0000000180033f98     tryblks.obj
 0004:00001fa4       $pdata$_wrap_new_seh_t$catch$4 0000000180033fa4     tryblks.obj
 0004:00001fb0       $pdata$_wrap_new_seh_t$catch$3 0000000180033fb0     tryblks.obj
 0004:00001fbc       $pdata$_wrap_new_seh_t$catch$2 0000000180033fbc     tryblks.obj
 0004:00001fc8       $pdata$_wrap_new_seh_t$catch$1 0000000180033fc8     tryblks.obj
 0004:00001fd4       $pdata$_wrap_delete_seh_t  0000000180033fd4     tryblks.obj
 0004:00001fe0       $pdata$_wrap_delete_seh_t$catch$9 0000000180033fe0     tryblks.obj
 0004:00001fec       $pdata$_wrap_delete_seh_t$catch$8 0000000180033fec     tryblks.obj
 0004:00001ff8       $pdata$_wrap_delete_seh_t$catch$7 0000000180033ff8     tryblks.obj
 0004:00002004       $pdata$_wrap_delete_seh_t$catch$6 0000000180034004     tryblks.obj
 0004:00002010       $pdata$_wrap_delete_seh_t$catch$5 0000000180034010     tryblks.obj
 0004:0000201c       $pdata$_wrap_delete_seh_t$catch$4 000000018003401c     tryblks.obj
 0004:00002028       $pdata$seh_t_swigregister  0000000180034028     tryblks.obj
 0004:00002034       $pdata$_wrap_catch_t_obj_set 0000000180034034     tryblks.obj
 0004:00002040       $pdata$0$_wrap_catch_t_obj_set 0000000180034040     tryblks.obj
 0004:0000204c       $pdata$1$_wrap_catch_t_obj_set 000000018003404c     tryblks.obj
 0004:00002058       $pdata$_wrap_catch_t_obj_get 0000000180034058     tryblks.obj
 0004:00002064       $pdata$0$_wrap_catch_t_obj_get 0000000180034064     tryblks.obj
 0004:00002070       $pdata$1$_wrap_catch_t_obj_get 0000000180034070     tryblks.obj
 0004:0000207c       $pdata$_wrap_catch_t_type_id_set 000000018003407c     tryblks.obj
 0004:00002088       $pdata$0$_wrap_catch_t_type_id_set 0000000180034088     tryblks.obj
 0004:00002094       $pdata$1$_wrap_catch_t_type_id_set 0000000180034094     tryblks.obj
 0004:000020a0       $pdata$_wrap_catch_t_type_id_get 00000001800340a0     tryblks.obj
 0004:000020ac       $pdata$0$_wrap_catch_t_type_id_get 00000001800340ac     tryblks.obj
 0004:000020b8       $pdata$1$_wrap_catch_t_type_id_get 00000001800340b8     tryblks.obj
 0004:000020c4       $pdata$_wrap_new_catch_t   00000001800340c4     tryblks.obj
 0004:000020d0       $pdata$_wrap_new_catch_t$catch$6 00000001800340d0     tryblks.obj
 0004:000020dc       $pdata$_wrap_new_catch_t$catch$5 00000001800340dc     tryblks.obj
 0004:000020e8       $pdata$_wrap_new_catch_t$catch$4 00000001800340e8     tryblks.obj
 0004:000020f4       $pdata$_wrap_new_catch_t$catch$3 00000001800340f4     tryblks.obj
 0004:00002100       $pdata$_wrap_new_catch_t$catch$2 0000000180034100     tryblks.obj
 0004:0000210c       $pdata$_wrap_new_catch_t$catch$1 000000018003410c     tryblks.obj
 0004:00002118       $pdata$_wrap_delete_catch_t 0000000180034118     tryblks.obj
 0004:00002124       $pdata$_wrap_delete_catch_t$catch$8 0000000180034124     tryblks.obj
 0004:00002130       $pdata$_wrap_delete_catch_t$catch$7 0000000180034130     tryblks.obj
 0004:0000213c       $pdata$_wrap_delete_catch_t$catch$6 000000018003413c     tryblks.obj
 0004:00002148       $pdata$_wrap_delete_catch_t$catch$5 0000000180034148     tryblks.obj
 0004:00002154       $pdata$_wrap_delete_catch_t$catch$4 0000000180034154     tryblks.obj
 0004:00002160       $pdata$_wrap_delete_catch_t$catch$3 0000000180034160     tryblks.obj
 0004:0000216c       $pdata$catch_t_swigregister 000000018003416c     tryblks.obj
 0004:00002178       $pdata$_wrap_tryblk_t_level_set 0000000180034178     tryblks.obj
 0004:00002184       $pdata$0$_wrap_tryblk_t_level_set 0000000180034184     tryblks.obj
 0004:00002190       $pdata$1$_wrap_tryblk_t_level_set 0000000180034190     tryblks.obj
 0004:0000219c       $pdata$_wrap_tryblk_t_level_get 000000018003419c     tryblks.obj
 0004:000021a8       $pdata$0$_wrap_tryblk_t_level_get 00000001800341a8     tryblks.obj
 0004:000021b4       $pdata$1$_wrap_tryblk_t_level_get 00000001800341b4     tryblks.obj
 0004:000021c0       $pdata$_wrap_tryblk_t_cpp  00000001800341c0     tryblks.obj
 0004:000021cc       $pdata$_wrap_tryblk_t_cpp$catch$5 00000001800341cc     tryblks.obj
 0004:000021d8       $pdata$_wrap_tryblk_t_cpp$catch$4 00000001800341d8     tryblks.obj
 0004:000021e4       $pdata$_wrap_tryblk_t_cpp$catch$3 00000001800341e4     tryblks.obj
 0004:000021f0       $pdata$_wrap_tryblk_t_cpp$catch$2 00000001800341f0     tryblks.obj
 0004:000021fc       $pdata$_wrap_tryblk_t_cpp$catch$1 00000001800341fc     tryblks.obj
 0004:00002208       $pdata$_wrap_tryblk_t_cpp$catch$0 0000000180034208     tryblks.obj
 0004:00002214       $pdata$_wrap_tryblk_t_seh  0000000180034214     tryblks.obj
 0004:00002220       $pdata$_wrap_tryblk_t_seh$catch$5 0000000180034220     tryblks.obj
 0004:0000222c       $pdata$_wrap_tryblk_t_seh$catch$4 000000018003422c     tryblks.obj
 0004:00002238       $pdata$_wrap_tryblk_t_seh$catch$3 0000000180034238     tryblks.obj
 0004:00002244       $pdata$_wrap_tryblk_t_seh$catch$2 0000000180034244     tryblks.obj
 0004:00002250       $pdata$_wrap_tryblk_t_seh$catch$1 0000000180034250     tryblks.obj
 0004:0000225c       $pdata$_wrap_tryblk_t_seh$catch$0 000000018003425c     tryblks.obj
 0004:00002268       $pdata$_wrap_new_tryblk_t__SWIG_0 0000000180034268     tryblks.obj
 0004:00002274       $pdata$_wrap_new_tryblk_t__SWIG_0$catch$6 0000000180034274     tryblks.obj
 0004:00002280       $pdata$_wrap_new_tryblk_t__SWIG_0$catch$5 0000000180034280     tryblks.obj
 0004:0000228c       $pdata$_wrap_new_tryblk_t__SWIG_0$catch$4 000000018003428c     tryblks.obj
 0004:00002298       $pdata$_wrap_new_tryblk_t__SWIG_0$catch$3 0000000180034298     tryblks.obj
 0004:000022a4       $pdata$_wrap_new_tryblk_t__SWIG_0$catch$2 00000001800342a4     tryblks.obj
 0004:000022b0       $pdata$_wrap_new_tryblk_t__SWIG_0$catch$1 00000001800342b0     tryblks.obj
 0004:000022bc       $pdata$_wrap_delete_tryblk_t 00000001800342bc     tryblks.obj
 0004:000022c8       $pdata$_wrap_delete_tryblk_t$catch$7 00000001800342c8     tryblks.obj
 0004:000022d4       $pdata$_wrap_delete_tryblk_t$catch$6 00000001800342d4     tryblks.obj
 0004:000022e0       $pdata$_wrap_delete_tryblk_t$catch$5 00000001800342e0     tryblks.obj
 0004:000022ec       $pdata$_wrap_delete_tryblk_t$catch$4 00000001800342ec     tryblks.obj
 0004:000022f8       $pdata$_wrap_delete_tryblk_t$catch$3 00000001800342f8     tryblks.obj
 0004:00002304       $pdata$_wrap_delete_tryblk_t$catch$2 0000000180034304     tryblks.obj
 0004:00002310       $pdata$_wrap_new_tryblk_t__SWIG_1 0000000180034310     tryblks.obj
 0004:0000231c       $pdata$_wrap_new_tryblk_t__SWIG_1$catch$6 000000018003431c     tryblks.obj
 0004:00002328       $pdata$_wrap_new_tryblk_t__SWIG_1$catch$5 0000000180034328     tryblks.obj
 0004:00002334       $pdata$_wrap_new_tryblk_t__SWIG_1$catch$4 0000000180034334     tryblks.obj
 0004:00002340       $pdata$_wrap_new_tryblk_t__SWIG_1$catch$3 0000000180034340     tryblks.obj
 0004:0000234c       $pdata$_wrap_new_tryblk_t__SWIG_1$catch$2 000000018003434c     tryblks.obj
 0004:00002358       $pdata$_wrap_new_tryblk_t__SWIG_1$catch$1 0000000180034358     tryblks.obj
 0004:00002364       $pdata$_wrap_new_tryblk_t  0000000180034364     tryblks.obj
 0004:00002370       $pdata$_wrap_tryblk_t_get_kind 0000000180034370     tryblks.obj
 0004:0000237c       $pdata$_wrap_tryblk_t_get_kind$catch$5 000000018003437c     tryblks.obj
 0004:00002388       $pdata$_wrap_tryblk_t_get_kind$catch$4 0000000180034388     tryblks.obj
 0004:00002394       $pdata$_wrap_tryblk_t_get_kind$catch$3 0000000180034394     tryblks.obj
 0004:000023a0       $pdata$_wrap_tryblk_t_get_kind$catch$2 00000001800343a0     tryblks.obj
 0004:000023ac       $pdata$_wrap_tryblk_t_get_kind$catch$1 00000001800343ac     tryblks.obj
 0004:000023b8       $pdata$_wrap_tryblk_t_get_kind$catch$0 00000001800343b8     tryblks.obj
 0004:000023c4       $pdata$_wrap_tryblk_t_empty 00000001800343c4     tryblks.obj
 0004:000023d0       $pdata$_wrap_tryblk_t_empty$catch$5 00000001800343d0     tryblks.obj
 0004:000023dc       $pdata$_wrap_tryblk_t_empty$catch$4 00000001800343dc     tryblks.obj
 0004:000023e8       $pdata$_wrap_tryblk_t_empty$catch$3 00000001800343e8     tryblks.obj
 0004:000023f4       $pdata$_wrap_tryblk_t_empty$catch$2 00000001800343f4     tryblks.obj
 0004:00002400       $pdata$_wrap_tryblk_t_empty$catch$1 0000000180034400     tryblks.obj
 0004:0000240c       $pdata$_wrap_tryblk_t_empty$catch$0 000000018003440c     tryblks.obj
 0004:00002418       $pdata$_wrap_tryblk_t_is_seh 0000000180034418     tryblks.obj
 0004:00002424       $pdata$_wrap_tryblk_t_is_seh$catch$5 0000000180034424     tryblks.obj
 0004:00002430       $pdata$_wrap_tryblk_t_is_seh$catch$4 0000000180034430     tryblks.obj
 0004:0000243c       $pdata$_wrap_tryblk_t_is_seh$catch$3 000000018003443c     tryblks.obj
 0004:00002448       $pdata$_wrap_tryblk_t_is_seh$catch$2 0000000180034448     tryblks.obj
 0004:00002454       $pdata$_wrap_tryblk_t_is_seh$catch$1 0000000180034454     tryblks.obj
 0004:00002460       $pdata$_wrap_tryblk_t_is_seh$catch$0 0000000180034460     tryblks.obj
 0004:0000246c       $pdata$_wrap_tryblk_t_is_cpp 000000018003446c     tryblks.obj
 0004:00002478       $pdata$_wrap_tryblk_t_is_cpp$catch$5 0000000180034478     tryblks.obj
 0004:00002484       $pdata$_wrap_tryblk_t_is_cpp$catch$4 0000000180034484     tryblks.obj
 0004:00002490       $pdata$_wrap_tryblk_t_is_cpp$catch$3 0000000180034490     tryblks.obj
 0004:0000249c       $pdata$_wrap_tryblk_t_is_cpp$catch$2 000000018003449c     tryblks.obj
 0004:000024a8       $pdata$_wrap_tryblk_t_is_cpp$catch$1 00000001800344a8     tryblks.obj
 0004:000024b4       $pdata$_wrap_tryblk_t_is_cpp$catch$0 00000001800344b4     tryblks.obj
 0004:000024c0       $pdata$_wrap_tryblk_t_clear 00000001800344c0     tryblks.obj
 0004:000024cc       $pdata$_wrap_tryblk_t_clear$catch$5 00000001800344cc     tryblks.obj
 0004:000024d8       $pdata$_wrap_tryblk_t_clear$catch$4 00000001800344d8     tryblks.obj
 0004:000024e4       $pdata$_wrap_tryblk_t_clear$catch$3 00000001800344e4     tryblks.obj
 0004:000024f0       $pdata$_wrap_tryblk_t_clear$catch$2 00000001800344f0     tryblks.obj
 0004:000024fc       $pdata$_wrap_tryblk_t_clear$catch$1 00000001800344fc     tryblks.obj
 0004:00002508       $pdata$_wrap_tryblk_t_clear$catch$0 0000000180034508     tryblks.obj
 0004:00002514       $pdata$_wrap_tryblk_t_set_seh 0000000180034514     tryblks.obj
 0004:00002520       $pdata$_wrap_tryblk_t_set_seh$catch$5 0000000180034520     tryblks.obj
 0004:0000252c       $pdata$_wrap_tryblk_t_set_seh$catch$4 000000018003452c     tryblks.obj
 0004:00002538       $pdata$_wrap_tryblk_t_set_seh$catch$3 0000000180034538     tryblks.obj
 0004:00002544       $pdata$_wrap_tryblk_t_set_seh$catch$2 0000000180034544     tryblks.obj
 0004:00002550       $pdata$_wrap_tryblk_t_set_seh$catch$1 0000000180034550     tryblks.obj
 0004:0000255c       $pdata$_wrap_tryblk_t_set_seh$catch$0 000000018003455c     tryblks.obj
 0004:00002568       $pdata$_wrap_tryblk_t_set_cpp 0000000180034568     tryblks.obj
 0004:00002574       $pdata$_wrap_tryblk_t_set_cpp$catch$5 0000000180034574     tryblks.obj
 0004:00002580       $pdata$_wrap_tryblk_t_set_cpp$catch$4 0000000180034580     tryblks.obj
 0004:0000258c       $pdata$_wrap_tryblk_t_set_cpp$catch$3 000000018003458c     tryblks.obj
 0004:00002598       $pdata$_wrap_tryblk_t_set_cpp$catch$2 0000000180034598     tryblks.obj
 0004:000025a4       $pdata$_wrap_tryblk_t_set_cpp$catch$1 00000001800345a4     tryblks.obj
 0004:000025b0       $pdata$_wrap_tryblk_t_set_cpp$catch$0 00000001800345b0     tryblks.obj
 0004:000025bc       $pdata$tryblk_t_swigregister 00000001800345bc     tryblks.obj
 0004:000025c8       $pdata$_wrap_get_tryblks   00000001800345c8     tryblks.obj
 0004:000025d4       $pdata$_wrap_get_tryblks$catch$5 00000001800345d4     tryblks.obj
 0004:000025e0       $pdata$_wrap_get_tryblks$catch$4 00000001800345e0     tryblks.obj
 0004:000025ec       $pdata$_wrap_get_tryblks$catch$3 00000001800345ec     tryblks.obj
 0004:000025f8       $pdata$_wrap_get_tryblks$catch$2 00000001800345f8     tryblks.obj
 0004:00002604       $pdata$_wrap_get_tryblks$catch$1 0000000180034604     tryblks.obj
 0004:00002610       $pdata$_wrap_get_tryblks$catch$0 0000000180034610     tryblks.obj
 0004:0000261c       $pdata$_wrap_del_tryblks   000000018003461c     tryblks.obj
 0004:00002628       $pdata$_wrap_del_tryblks$catch$5 0000000180034628     tryblks.obj
 0004:00002634       $pdata$_wrap_del_tryblks$catch$4 0000000180034634     tryblks.obj
 0004:00002640       $pdata$_wrap_del_tryblks$catch$3 0000000180034640     tryblks.obj
 0004:0000264c       $pdata$_wrap_del_tryblks$catch$2 000000018003464c     tryblks.obj
 0004:00002658       $pdata$_wrap_del_tryblks$catch$1 0000000180034658     tryblks.obj
 0004:00002664       $pdata$_wrap_del_tryblks$catch$0 0000000180034664     tryblks.obj
 0004:00002670       $pdata$_wrap_add_tryblk    0000000180034670     tryblks.obj
 0004:0000267c       $pdata$_wrap_add_tryblk$catch$5 000000018003467c     tryblks.obj
 0004:00002688       $pdata$_wrap_add_tryblk$catch$4 0000000180034688     tryblks.obj
 0004:00002694       $pdata$_wrap_add_tryblk$catch$3 0000000180034694     tryblks.obj
 0004:000026a0       $pdata$_wrap_add_tryblk$catch$2 00000001800346a0     tryblks.obj
 0004:000026ac       $pdata$_wrap_add_tryblk$catch$1 00000001800346ac     tryblks.obj
 0004:000026b8       $pdata$_wrap_add_tryblk$catch$0 00000001800346b8     tryblks.obj
 0004:000026c4       $pdata$_wrap_find_syseh    00000001800346c4     tryblks.obj
 0004:000026d0       $pdata$_wrap_find_syseh$catch$5 00000001800346d0     tryblks.obj
 0004:000026dc       $pdata$_wrap_find_syseh$catch$4 00000001800346dc     tryblks.obj
 0004:000026e8       $pdata$_wrap_find_syseh$catch$3 00000001800346e8     tryblks.obj
 0004:000026f4       $pdata$_wrap_find_syseh$catch$2 00000001800346f4     tryblks.obj
 0004:00002700       $pdata$_wrap_find_syseh$catch$1 0000000180034700     tryblks.obj
 0004:0000270c       $pdata$_wrap_find_syseh$catch$0 000000018003470c     tryblks.obj
 0004:00002718       $pdata$SWIG_InitializeModule 0000000180034718     tryblks.obj
 0004:00002724       $pdata$1$SWIG_InitializeModule 0000000180034724     tryblks.obj
 0004:00002730       $pdata$4$SWIG_InitializeModule 0000000180034730     tryblks.obj
 0004:0000273c       $pdata$5$SWIG_InitializeModule 000000018003473c     tryblks.obj
 0004:00002748       $pdata$6$SWIG_InitializeModule 0000000180034748     tryblks.obj
 0004:00002754       $pdata$SWIG_Python_FixMethods 0000000180034754     tryblks.obj
 0004:00002760       $pdata$4$SWIG_Python_FixMethods 0000000180034760     tryblks.obj
 0004:0000276c       $pdata$5$SWIG_Python_FixMethods 000000018003476c     tryblks.obj
 0004:00002778       $pdata$PyInit__ida_tryblks 0000000180034778     tryblks.obj
 0004:00002784       $pdata$1$PyInit__ida_tryblks 0000000180034784     tryblks.obj
 0004:00002790       $pdata$2$PyInit__ida_tryblks 0000000180034790     tryblks.obj
 0004:0000279c       $pdata$3$PyInit__ida_tryblks 000000018003479c     tryblks.obj
 0004:000027a8       $pdata$4$PyInit__ida_tryblks 00000001800347a8     tryblks.obj
 0004:000027b4       $pdata$5$PyInit__ida_tryblks 00000001800347b4     tryblks.obj
 0004:000027c0       $pdata$_Init_thread_header 00000001800347c0     MSVCRT:thread_safe_statics.obj
 0004:000027cc       $pdata$_Init_thread_footer 00000001800347cc     MSVCRT:thread_safe_statics.obj
 0004:000027d8       $pdata$_Init_thread_wait   00000001800347d8     MSVCRT:thread_safe_statics.obj
 0004:000027e4       $pdata$_Init_thread_notify 00000001800347e4     MSVCRT:thread_safe_statics.obj
 0004:000027f0       $pdata$?__scrt_uninitialize_thread_safe_statics@@YAXXZ 00000001800347f0     MSVCRT:thread_safe_statics.obj
 0004:000027fc       $pdata$?__scrt_initialize_thread_safe_statics@@YAHXZ 00000001800347fc     MSVCRT:thread_safe_statics.obj
 0004:00002808       $pdata$__GSHandlerCheckCommon 0000000180034808     MSVCRT:gshandler.obj
 0004:00002814       $pdata$__GSHandlerCheck    0000000180034814     MSVCRT:gshandler.obj
 0004:00002820       $pdata$__GSHandlerCheck_EH 0000000180034820     MSVCRT:gshandlereh.obj
 0004:00002838       $pdata$??_Gtype_info@@UEAAPEAXI@Z 0000000180034838     MSVCRT:std_type_info_static.obj
 0004:00002844       $pdata$?dllmain_crt_process_attach@@YAHQEAUHINSTANCE__@@QEAX@Z 0000000180034844     MSVCRT:dll_dllmain.obj
 0004:00002850       $pdata$?fin$0@?0??dllmain_crt_process_attach@@YAHQEAUHINSTANCE__@@QEAX@Z@4HA 0000000180034850     MSVCRT:dll_dllmain.obj
 0004:0000285c       $pdata$?dllmain_crt_process_detach@@YAH_N@Z 000000018003485c     MSVCRT:dll_dllmain.obj
 0004:00002868       $pdata$?fin$0@?0??dllmain_crt_process_detach@@YAH_N@Z@4HA 0000000180034868     MSVCRT:dll_dllmain.obj
 0004:00002874       $pdata$?dllmain_crt_dispatch@@YAHQEAUHINSTANCE__@@KQEAX@Z 0000000180034874     MSVCRT:dll_dllmain.obj
 0004:00002880       $pdata$?dllmain_dispatch@@YAHQEAUHINSTANCE__@@KQEAX@Z 0000000180034880     MSVCRT:dll_dllmain.obj
 0004:0000288c       $pdata$?filt$0@?0??dllmain_dispatch@@YAHQEAUHINSTANCE__@@KQEAX@Z@4HA 000000018003488c     MSVCRT:dll_dllmain.obj
 0004:00002898       $pdata$_DllMainCRTStartup  0000000180034898     MSVCRT:dll_dllmain.obj
 0004:000028a4       $pdata$atexit              00000001800348a4     MSVCRT:utility.obj
 0004:000028b0       $pdata$_onexit             00000001800348b0     MSVCRT:utility.obj
 0004:000028bc       $pdata$__scrt_is_nonwritable_in_current_image 00000001800348bc     MSVCRT:utility.obj
 0004:000028c8       $pdata$__scrt_is_nonwritable_in_current_image$filt$0 00000001800348c8     MSVCRT:utility.obj
 0004:000028d4       $pdata$__scrt_acquire_startup_lock 00000001800348d4     MSVCRT:utility.obj
 0004:000028e0       $pdata$__scrt_release_startup_lock 00000001800348e0     MSVCRT:utility.obj
 0004:000028ec       $pdata$__scrt_initialize_crt 00000001800348ec     MSVCRT:utility.obj
 0004:000028f8       $pdata$__scrt_uninitialize_crt 00000001800348f8     MSVCRT:utility.obj
 0004:00002904       $pdata$__scrt_initialize_onexit_tables 0000000180034904     MSVCRT:utility.obj
 0004:00002910       $pdata$__scrt_dllmain_exception_filter 0000000180034910     MSVCRT:utility.obj
 0004:0000291c       $pdata$__scrt_dllmain_before_initialize_c 000000018003491c     MSVCRT:utility.obj
 0004:00002928       $pdata$__scrt_dllmain_after_initialize_c 0000000180034928     MSVCRT:utility.obj
 0004:00002934       $pdata$__scrt_dllmain_uninitialize_c 0000000180034934     MSVCRT:utility.obj
 0004:00002940       $pdata$__scrt_dllmain_uninitialize_critical 0000000180034940     MSVCRT:utility.obj
 0004:0000294c       $pdata$__scrt_dllmain_crt_thread_attach 000000018003494c     MSVCRT:utility.obj
 0004:00002958       $pdata$__scrt_dllmain_crt_thread_detach 0000000180034958     MSVCRT:utility.obj
 0004:00002964       $pdata$__scrt_fastfail     0000000180034964     MSVCRT:utility_desktop.obj
 0004:00002970       $pdata$__report_gsfailure  0000000180034970     MSVCRT:gs_report.obj
 0004:0000297c       $pdata$capture_previous_context 000000018003497c     MSVCRT:gs_report.obj
 0004:00002988       $pdata$__raise_securityfailure 0000000180034988     MSVCRT:gs_report.obj
 0004:00002994       $pdata$__security_init_cookie 0000000180034994     MSVCRT:gs_support.obj
 0004:000029a0       $pdata$DllMain             00000001800349a0     MSVCRT:dll_dllmain_stub.obj
 0004:000029ac       $pdata$__scrt_initialize_default_local_stdio_options 00000001800349ac     MSVCRT:default_local_stdio_options.obj
 0004:000029b8       $pdata$_RTC_Initialize     00000001800349b8     MSVCRT:initsect.obj
 0004:000029c4       $pdata$_RTC_Terminate      00000001800349c4     MSVCRT:initsect.obj
 0004:000029d0       $pdata$__isa_available_init 00000001800349d0     MSVCRT:cpu_disp.obj
