 _ida_name

 Timestamp is 5e3da0a5 (Fri Feb  7 17:38:45 2020)

 Preferred load address is 0000000180000000

 Start         Length     Name                   Class
 0001:00000000 00010a30H .text$mn                CODE
 0001:00010a30 00000020H .text$mn$00             CODE
 0001:00010a50 00006d53H .text$x                 CODE
 0002:00000000 00000650H .idata$5                DATA
 0002:00000650 00000010H .00cfg                  DATA
 0002:00000660 00000008H .CRT$XCA                DATA
 0002:00000668 00000008H .CRT$XCZ                DATA
 0002:00000670 00000008H .CRT$XIA                DATA
 0002:00000678 00000008H .CRT$XIC                DATA
 0002:00000680 00000008H .CRT$XIZ                DATA
 0002:00000688 00000008H .CRT$XLA                DATA
 0002:00000690 00000008H .CRT$XLZ                DATA
 0002:00000698 00000008H .CRT$XPA                DATA
 0002:000006a0 00000008H .CRT$XPZ                DATA
 0002:000006a8 00000008H .CRT$XTA                DATA
 0002:000006b0 00000010H .CRT$XTZ                DATA
 0002:000006b8 00000000H .gfids$y                DATA
 0002:000006c0 000083d0H .rdata                  DATA
 0002:00008a90 00000028H .rdata$T                DATA
 0002:00008ab8 000002fcH .rdata$r                DATA
 0002:00008db4 00000314H .rdata$zzzdbg           DATA
 0002:000090c8 00000008H .rtc$IAA                DATA
 0002:000090d0 00000008H .rtc$IZZ                DATA
 0002:000090d8 00000008H .rtc$TAA                DATA
 0002:000090e0 00000008H .rtc$TZZ                DATA
 0002:000090e8 00000004H .tls                    DATA
 0002:000090ec 00000004H .tls$                   DATA
 0002:000090f0 00000008H .tls$ZZZ                DATA
 0002:000090f8 00005688H .xdata                  DATA
 0002:0000e780 00000180H .xdata$x                DATA
 0002:0000e900 00000054H .edata                  DATA
 0002:0000e954 000000b4H .idata$2                DATA
 0002:0000ea08 00000018H .idata$3                DATA
 0002:0000ea20 00000650H .idata$4                DATA
 0002:0000f070 00000f92H .idata$6                DATA
 0003:00000000 000030a8H .data                   DATA
 0003:000030a8 00000148H .data$r                 DATA
 0003:000031f0 00000928H .bss                    DATA
 0004:00000000 00002610H .pdata                  DATA

  Address         Publics by Value              Rva+Base               Lib:Object

 0000:00000000       __guard_iat_table          0000000000000000     <absolute>
 0000:00000000       ___safe_se_handler_count   0000000000000000     <absolute>
 0000:00000000       __guard_longjmp_table      0000000000000000     <absolute>
 0000:00000000       __guard_longjmp_count      0000000000000000     <absolute>
 0000:00000000       __enclave_config           0000000000000000     <absolute>
 0000:00000000       __dynamic_value_reloc_table 0000000000000000     <absolute>
 0000:00000000       __guard_iat_count          0000000000000000     <absolute>
 0000:00000000       __volatile_metadata        0000000000000000     <absolute>
 0000:00000000       __guard_fids_count         0000000000000000     <absolute>
 0000:00000000       ___safe_se_handler_table   0000000000000000     <absolute>
 0000:00000000       __hybrid_code_map_count    0000000000000000     <absolute>
 0000:00000000       __guard_fids_table         0000000000000000     <absolute>
 0000:00000000       __hybrid_code_map          0000000000000000     <absolute>
 0000:00000000       __hybrid_auxiliary_iat     0000000000000000     <absolute>
 0000:00000100       __guard_flags              0000000000000100     <absolute>
 0000:00000000       __ImageBase                0000000180000000     <linker-defined>
 0001:0000ab80       ??0?$_qstring@D@@QEAA@AEBV0@@Z 000000018000bb80 f i name.obj
 0001:0000abf0       ??0?$_qstring@D@@QEAA@PEBD_K@Z 000000018000bbf0 f i name.obj
 0001:0000ac80       ??0exception@std@@QEAA@AEBV01@@Z 000000018000bc80 f i name.obj
 0001:0000acc0       ??0logic_error@std@@QEAA@AEBV01@@Z 000000018000bcc0 f i name.obj
 0001:0000ad00       ??0out_of_range@std@@QEAA@AEBV01@@Z 000000018000bd00 f i name.obj
 0001:0000ad40       ??0out_of_range@std@@QEAA@PEBD@Z 000000018000bd40 f i name.obj
 0001:0000ad90       ??1?$SwigValueWrapper@V?$_qstring@D@@@@QEAA@XZ 000000018000bd90 f i name.obj
 0001:0000adc0       ??1?$qvector@I@@QEAA@XZ    000000018000bdc0 f i name.obj
 0001:0000adc0       ??1?$_qstring@D@@QEAA@XZ   000000018000bdc0 f i name.obj
 0001:0000add0       ??1?$qvector@Uea_name_t@@@@QEAA@XZ 000000018000bdd0 f i name.obj
 0001:0000ade0       ??1ea_name_t@@QEAA@XZ      000000018000bde0 f i name.obj
 0001:0000adf0       ??1out_of_range@std@@UEAA@XZ 000000018000bdf0 f i name.obj
 0001:0000adf0       ??1bad_array_new_length@std@@UEAA@XZ 000000018000bdf0 f i MSVCRT:throw_bad_alloc.obj
 0001:0000adf0       ??1bad_alloc@std@@UEAA@XZ  000000018000bdf0 f i MSVCRT:throw_bad_alloc.obj
 0001:0000ae10       ??4?$SwigValueWrapper@V?$_qstring@D@@@@QEAAAEAV0@AEBV?$_qstring@D@@@Z 000000018000be10 f i name.obj
 0001:0000ae90       ??4?$_qstring@D@@QEAAAEAV0@AEBV0@@Z 000000018000be90 f i name.obj
 0001:0000af10       ??_Eout_of_range@std@@UEAAPEAXI@Z 000000018000bf10 f i name.obj
 0001:0000af10       ??_Gbad_array_new_length@std@@UEAAPEAXI@Z 000000018000bf10 f i MSVCRT:throw_bad_alloc.obj
 0001:0000af10       ??_Ebad_alloc@std@@UEAAPEAXI@Z 000000018000bf10 f i MSVCRT:throw_bad_alloc.obj
 0001:0000af10       ??_Gout_of_range@std@@UEAAPEAXI@Z 000000018000bf10 f i name.obj
 0001:0000af10       ??_Elogic_error@std@@UEAAPEAXI@Z 000000018000bf10 f i name.obj
 0001:0000af10       ??_Gbad_alloc@std@@UEAAPEAXI@Z 000000018000bf10 f i MSVCRT:throw_bad_alloc.obj
 0001:0000af10       ??_Eexception@std@@UEAAPEAXI@Z 000000018000bf10 f i name.obj
 0001:0000af10       ??_Glogic_error@std@@UEAAPEAXI@Z 000000018000bf10 f i name.obj
 0001:0000af10       ??_Ebad_array_new_length@std@@UEAAPEAXI@Z 000000018000bf10 f i MSVCRT:throw_bad_alloc.obj
 0001:0000af10       ??_Gexception@std@@UEAAPEAXI@Z 000000018000bf10 f i name.obj
 0001:0000b500       ?clear@?$qvector@Uea_name_t@@@@QEAAXXZ 000000018000c500 f i name.obj
 0001:0000b560       ?resize@?$qvector@D@@QEAAX_K@Z 000000018000c560 f i name.obj
 0001:0000b5c0       ?resize@?$qvector@Uea_name_t@@@@QEAAX_KAEBUea_name_t@@@Z 000000018000c5c0 f i name.obj
 0001:0000b690       ?sprnt@?$_qstring@D@@QEAAAEAV1@PEBDZZ 000000018000c690 f i name.obj
 0001:0000b750       ?what@exception@std@@UEBAPEBDXZ 000000018000c750 f i name.obj
 0001:0000b770       PyInit__ida_name           000000018000c770 f   name.obj
 0001:0000d790       __local_stdio_printf_options 000000018000e790 f i name.obj
 0001:0000f250       printf                     0000000180010250 f i name.obj
 0001:0000f553       interr                     0000000180010553 f   ida:ida.dll
 0001:0000f559       qrealloc                   0000000180010559 f   ida:ida.dll
 0001:0000f55f       qfree                      000000018001055f f   ida:ida.dll
 0001:0000f565       qvsnprintf                 0000000180010565 f   ida:ida.dll
 0001:0000f56b       qalloc_or_throw            000000018001056b f   ida:ida.dll
 0001:0000f571       qvector_reserve            0000000180010571 f   ida:ida.dll
 0001:0000f577       is_main_thread             0000000180010577 f   ida:ida.dll
 0001:0000f57d       set_name                   000000018001057d f   ida:ida.dll
 0001:0000f583       set_dummy_name             0000000180010583 f   ida:ida.dll
 0001:0000f589       make_name_auto             0000000180010589 f   ida:ida.dll
 0001:0000f58f       make_name_user             000000018001058f f   ida:ida.dll
 0001:0000f595       validate_name              0000000180010595 f   ida:ida.dll
 0001:0000f59b       is_valid_cp                000000018001059b f   ida:ida.dll
 0001:0000f5a1       set_cp_validity            00000001800105a1 f   ida:ida.dll
 0001:0000f5a7       is_ident                   00000001800105a7 f   ida:ida.dll
 0001:0000f5ad       is_uname                   00000001800105ad f   ida:ida.dll
 0001:0000f5b3       is_valid_typename          00000001800105b3 f   ida:ida.dll
 0001:0000f5b9       extract_name               00000001800105b9 f   ida:ida.dll
 0001:0000f5bf       hide_name                  00000001800105bf f   ida:ida.dll
 0001:0000f5c5       show_name                  00000001800105c5 f   ida:ida.dll
 0001:0000f5cb       get_name_ea                00000001800105cb f   ida:ida.dll
 0001:0000f5d1       get_name_base_ea           00000001800105d1 f   ida:ida.dll
 0001:0000f5d7       get_name_value             00000001800105d7 f   ida:ida.dll
 0001:0000f5dd       get_ea_name                00000001800105dd f   ida:ida.dll
 0001:0000f5e3       get_name_color             00000001800105e3 f   ida:ida.dll
 0001:0000f5e9       get_name_expr              00000001800105e9 f   ida:ida.dll
 0001:0000f5ef       get_nice_colored_name      00000001800105ef f   ida:ida.dll
 0001:0000f5f5       append_struct_fields       00000001800105f5 f   ida:ida.dll
 0001:0000f5fb       is_public_name             00000001800105fb f   ida:ida.dll
 0001:0000f601       make_name_public           0000000180010601 f   ida:ida.dll
 0001:0000f607       make_name_non_public       0000000180010607 f   ida:ida.dll
 0001:0000f60d       is_weak_name               000000018001060d f   ida:ida.dll
 0001:0000f613       make_name_weak             0000000180010613 f   ida:ida.dll
 0001:0000f619       make_name_non_weak         0000000180010619 f   ida:ida.dll
 0001:0000f61f       get_nlist_size             000000018001061f f   ida:ida.dll
 0001:0000f625       get_nlist_idx              0000000180010625 f   ida:ida.dll
 0001:0000f62b       is_in_nlist                000000018001062b f   ida:ida.dll
 0001:0000f631       get_nlist_ea               0000000180010631 f   ida:ida.dll
 0001:0000f637       get_nlist_name             0000000180010637 f   ida:ida.dll
 0001:0000f63d       rebuild_nlist              000000018001063d f   ida:ida.dll
 0001:0000f643       reorder_dummy_names        0000000180010643 f   ida:ida.dll
 0001:0000f649       set_debug_name             0000000180010649 f   ida:ida.dll
 0001:0000f64f       get_debug_name             000000018001064f f   ida:ida.dll
 0001:0000f655       del_debug_names            0000000180010655 f   ida:ida.dll
 0001:0000f65b       get_debug_name_ea          000000018001065b f   ida:ida.dll
 0001:0000f661       get_debug_names            0000000180010661 f   ida:ida.dll
 0001:0000f667       demangle_name              0000000180010667 f   ida:ida.dll
 0001:0000f66d       is_name_defined_locally    000000018001066d f   ida:ida.dll
 0001:0000f673       cleanup_name               0000000180010673 f   ida:ida.dll
 0001:0000f679       PyW_GetNumber              0000000180010679 f   python:python.dll
 0001:0000f680       ??2@YAPEAX_K@Z             0000000180010680 f   MSVCRT:new_scalar.obj
 0001:0000f6bc       ??3@YAXPEAX_K@Z            00000001800106bc f   MSVCRT:delete_scalar_size.obj
 0001:0000f6bc       ??_V@YAXPEAX@Z             00000001800106bc f   MSVCRT:delete_array.obj
 0001:0000f6c4       ??_U@YAPEAX_K@Z            00000001800106c4 f   MSVCRT:new_array.obj
 0001:0000f854       _Init_thread_footer        0000000180010854 f   MSVCRT:thread_safe_statics.obj
 0001:0000f8b4       _Init_thread_header        00000001800108b4 f   MSVCRT:thread_safe_statics.obj
 0001:0000f91c       _Init_thread_notify        000000018001091c f   MSVCRT:thread_safe_statics.obj
 0001:0000f96c       _Init_thread_wait          000000018001096c f   MSVCRT:thread_safe_statics.obj
 0001:0000f9e4       __GSHandlerCheck           00000001800109e4 f   MSVCRT:gshandler.obj
 0001:0000fa04       __GSHandlerCheckCommon     0000000180010a04 f   MSVCRT:gshandler.obj
 0001:0000fa60       __GSHandlerCheck_EH        0000000180010a60 f   MSVCRT:gshandlereh.obj
 0001:0000faf0       __security_check_cookie    0000000180010af0 f   MSVCRT:amdsecgs.obj
 0001:0000fb14       ??_Gtype_info@@UEAAPEAXI@Z 0000000180010b14 f i MSVCRT:std_type_info_static.obj
 0001:0000fb14       ??_Etype_info@@UEAAPEAXI@Z 0000000180010b14 f i MSVCRT:std_type_info_static.obj
 0001:0000fe70       _DllMainCRTStartup         0000000180010e70 f   MSVCRT:dll_dllmain.obj
 0001:0000feb0       ??0bad_alloc@std@@QEAA@AEBV01@@Z 0000000180010eb0 f i MSVCRT:throw_bad_alloc.obj
 0001:0000fef0       ??0bad_alloc@std@@QEAA@XZ  0000000180010ef0 f i MSVCRT:throw_bad_alloc.obj
 0001:0000ff10       ??0bad_array_new_length@std@@QEAA@AEBV01@@Z 0000000180010f10 f i MSVCRT:throw_bad_alloc.obj
 0001:0000ff50       ??0bad_array_new_length@std@@QEAA@XZ 0000000180010f50 f i MSVCRT:throw_bad_alloc.obj
 0001:0000ff70       ?__scrt_throw_std_bad_alloc@@YAXXZ 0000000180010f70 f   MSVCRT:throw_bad_alloc.obj
 0001:0000ff90       ?__scrt_throw_std_bad_array_new_length@@YAXXZ 0000000180010f90 f   MSVCRT:throw_bad_alloc.obj
 0001:0000ffb0       ??3@YAXPEAX@Z              0000000180010fb0 f   MSVCRT:delete_scalar.obj
 0001:0000ffb8       __scrt_acquire_startup_lock 0000000180010fb8 f   MSVCRT:utility.obj
 0001:0000fff4       __scrt_dllmain_after_initialize_c 0000000180010ff4 f   MSVCRT:utility.obj
 0001:00010028       __scrt_dllmain_before_initialize_c 0000000180011028 f   MSVCRT:utility.obj
 0001:00010040       __scrt_dllmain_crt_thread_attach 0000000180011040 f   MSVCRT:utility.obj
 0001:00010068       __scrt_dllmain_crt_thread_detach 0000000180011068 f   MSVCRT:utility.obj
 0001:00010080       __scrt_dllmain_exception_filter 0000000180011080 f   MSVCRT:utility.obj
 0001:000100e0       __scrt_dllmain_uninitialize_c 00000001800110e0 f   MSVCRT:utility.obj
 0001:00010110       __scrt_dllmain_uninitialize_critical 0000000180011110 f   MSVCRT:utility.obj
 0001:00010124       __scrt_initialize_crt      0000000180011124 f   MSVCRT:utility.obj
 0001:00010170       __scrt_initialize_onexit_tables 0000000180011170 f   MSVCRT:utility.obj
 0001:00010248       __scrt_is_nonwritable_in_current_image 0000000180011248 f   MSVCRT:utility.obj
 0001:000102e4       __scrt_release_startup_lock 00000001800112e4 f   MSVCRT:utility.obj
 0001:00010308       __scrt_uninitialize_crt    0000000180011308 f   MSVCRT:utility.obj
 0001:00010334       _onexit                    0000000180011334 f   MSVCRT:utility.obj
 0001:00010384       atexit                     0000000180011384 f   MSVCRT:utility.obj
 0001:0001039c       __crt_debugger_hook        000000018001139c f   MSVCRT:utility_desktop.obj
 0001:000103a4       __scrt_fastfail            00000001800113a4 f   MSVCRT:utility_desktop.obj
 0001:000104f0       _guard_check_icall_nop     00000001800114f0 f i MSVCRT:guard_support.obj
 0001:000104f4       __raise_securityfailure    00000001800114f4 f   MSVCRT:gs_report.obj
 0001:00010528       __report_gsfailure         0000000180011528 f   MSVCRT:gs_report.obj
 0001:00010670       __security_init_cookie     0000000180011670 f   MSVCRT:gs_support.obj
 0001:0001071c       DllMain                    000000018001171c f   MSVCRT:dll_dllmain_stub.obj
 0001:00010740       ?__scrt_initialize_type_info@@YAXXZ 0000000180011740 f   MSVCRT:tncleanup.obj
 0001:00010750       ?__scrt_uninitialize_type_info@@YAXXZ 0000000180011750 f   MSVCRT:tncleanup.obj
 0001:0001075c       __local_stdio_scanf_options 000000018001175c f i MSVCRT:default_local_stdio_options.obj
 0001:00010764       __scrt_initialize_default_local_stdio_options 0000000180011764 f   MSVCRT:default_local_stdio_options.obj
 0001:00010780       __scrt_get_dyn_tls_init_callback 0000000180011780 f   MSVCRT:dyn_tls_init.obj
 0001:00010788       _RTC_Initialize            0000000180011788 f   MSVCRT:initsect.obj
 0001:000107c4       _RTC_Terminate             00000001800117c4 f   MSVCRT:initsect.obj
 0001:00010800       __isa_available_init       0000000180011800 f   MSVCRT:cpu_disp.obj
 0001:0001097c       _get_startup_argv_mode     000000018001197c f   MSVCRT:argv_mode.obj
 0001:00010984       __scrt_is_ucrt_dll_in_use  0000000180011984 f   MSVCRT:ucrt_detection.obj
 0001:00010990       IsProcessorFeaturePresent  0000000180011990 f   kernel32:KERNEL32.dll
 0001:00010996       strstr                     0000000180011996 f   vcruntime:VCRUNTIME140.dll
 0001:0001099c       __std_exception_copy       000000018001199c f   vcruntime:VCRUNTIME140.dll
 0001:000109a2       __std_exception_destroy    00000001800119a2 f   vcruntime:VCRUNTIME140.dll
 0001:000109a8       _CxxThrowException         00000001800119a8 f   vcruntime:VCRUNTIME140.dll
 0001:000109ae       __CxxFrameHandler3         00000001800119ae f   vcruntime:VCRUNTIME140.dll
 0001:000109b4       memcpy                     00000001800119b4 f   vcruntime:VCRUNTIME140.dll
 0001:000109ba       memmove                    00000001800119ba f   vcruntime:VCRUNTIME140.dll
 0001:000109c0       memset                     00000001800119c0 f   vcruntime:VCRUNTIME140.dll
 0001:000109c6       __std_terminate            00000001800119c6 f   vcruntime:VCRUNTIME140.dll
 0001:000109cc       __C_specific_handler       00000001800119cc f   vcruntime:VCRUNTIME140.dll
 0001:000109d2       __std_type_info_destroy_list 00000001800119d2 f   vcruntime:VCRUNTIME140.dll
 0001:000109d8       free                       00000001800119d8 f   ucrt:api-ms-win-crt-heap-l1-1-0.dll
 0001:000109de       malloc                     00000001800119de f   ucrt:api-ms-win-crt-heap-l1-1-0.dll
 0001:000109e4       _callnewh                  00000001800119e4 f   ucrt:api-ms-win-crt-heap-l1-1-0.dll
 0001:000109ea       _initterm                  00000001800119ea f   ucrt:api-ms-win-crt-runtime-l1-1-0.dll
 0001:000109f0       _initterm_e                00000001800119f0 f   ucrt:api-ms-win-crt-runtime-l1-1-0.dll
 0001:000109f6       _seh_filter_dll            00000001800119f6 f   ucrt:api-ms-win-crt-runtime-l1-1-0.dll
 0001:000109fc       _configure_narrow_argv     00000001800119fc f   ucrt:api-ms-win-crt-runtime-l1-1-0.dll
 0001:00010a02       _initialize_narrow_environment 0000000180011a02 f   ucrt:api-ms-win-crt-runtime-l1-1-0.dll
 0001:00010a08       _initialize_onexit_table   0000000180011a08 f   ucrt:api-ms-win-crt-runtime-l1-1-0.dll
 0001:00010a0e       _register_onexit_function  0000000180011a0e f   ucrt:api-ms-win-crt-runtime-l1-1-0.dll
 0001:00010a14       _execute_onexit_table      0000000180011a14 f   ucrt:api-ms-win-crt-runtime-l1-1-0.dll
 0001:00010a1a       _crt_atexit                0000000180011a1a f   ucrt:api-ms-win-crt-runtime-l1-1-0.dll
 0001:00010a20       _cexit                     0000000180011a20 f   ucrt:api-ms-win-crt-runtime-l1-1-0.dll
 0001:00010a28       __vcrt_uninitialize_critical 0000000180011a28 f   MSVCRT:ucrt_stubs.obj
 0001:00010a28       __vcrt_thread_attach       0000000180011a28 f   MSVCRT:ucrt_stubs.obj
 0001:00010a28       __acrt_thread_attach       0000000180011a28 f   MSVCRT:ucrt_stubs.obj
 0001:00010a28       __acrt_thread_detach       0000000180011a28 f   MSVCRT:ucrt_stubs.obj
 0001:00010a28       __vcrt_thread_detach       0000000180011a28 f   MSVCRT:ucrt_stubs.obj
 0001:00010a28       __scrt_stub_for_acrt_thread_attach 0000000180011a28 f   MSVCRT:ucrt_stubs.obj
 0001:00010a28       __acrt_uninitialize        0000000180011a28 f   MSVCRT:ucrt_stubs.obj
 0001:00010a28       __acrt_initialize          0000000180011a28 f   MSVCRT:ucrt_stubs.obj
 0001:00010a28       __vcrt_initialize          0000000180011a28 f   MSVCRT:ucrt_stubs.obj
 0001:00010a28       __scrt_stub_for_acrt_thread_detach 0000000180011a28 f   MSVCRT:ucrt_stubs.obj
 0001:00010a28       __scrt_stub_for_acrt_uninitialize_critical 0000000180011a28 f   MSVCRT:ucrt_stubs.obj
 0001:00010a28       __scrt_stub_for_acrt_uninitialize 0000000180011a28 f   MSVCRT:ucrt_stubs.obj
 0001:00010a28       __acrt_uninitialize_critical 0000000180011a28 f   MSVCRT:ucrt_stubs.obj
 0001:00010a28       __scrt_stub_for_acrt_initialize 0000000180011a28 f   MSVCRT:ucrt_stubs.obj
 0001:00010a28       __vcrt_uninitialize        0000000180011a28 f   MSVCRT:ucrt_stubs.obj
 0001:00010a2c       __scrt_stub_for_is_c_termination_complete 0000000180011a2c f   MSVCRT:ucrt_stubs.obj
 0001:00010a2c       _is_c_termination_complete 0000000180011a2c f   MSVCRT:ucrt_stubs.obj
 0001:00010a40       _guard_dispatch_icall_nop  0000000180011a40 f   MSVCRT:guard_dispatch.obj
 0002:00000000       __imp_CloseHandle          0000000180019000     kernel32:KERNEL32.dll
 0002:00000008       __imp_EnterCriticalSection 0000000180019008     kernel32:KERNEL32.dll
 0002:00000010       __imp_LeaveCriticalSection 0000000180019010     kernel32:KERNEL32.dll
 0002:00000018       __imp_InitializeCriticalSectionAndSpinCount 0000000180019018     kernel32:KERNEL32.dll
 0002:00000020       __imp_DeleteCriticalSection 0000000180019020     kernel32:KERNEL32.dll
 0002:00000028       __imp_SetEvent             0000000180019028     kernel32:KERNEL32.dll
 0002:00000030       __imp_ResetEvent           0000000180019030     kernel32:KERNEL32.dll
 0002:00000038       __imp_WaitForSingleObjectEx 0000000180019038     kernel32:KERNEL32.dll
 0002:00000040       __imp_CreateEventW         0000000180019040     kernel32:KERNEL32.dll
 0002:00000048       __imp_GetModuleHandleW     0000000180019048     kernel32:KERNEL32.dll
 0002:00000050       __imp_GetProcAddress       0000000180019050     kernel32:KERNEL32.dll
 0002:00000058       __imp_RtlCaptureContext    0000000180019058     kernel32:KERNEL32.dll
 0002:00000060       __imp_RtlLookupFunctionEntry 0000000180019060     kernel32:KERNEL32.dll
 0002:00000068       __imp_RtlVirtualUnwind     0000000180019068     kernel32:KERNEL32.dll
 0002:00000070       __imp_IsDebuggerPresent    0000000180019070     kernel32:KERNEL32.dll
 0002:00000078       __imp_UnhandledExceptionFilter 0000000180019078     kernel32:KERNEL32.dll
 0002:00000080       __imp_SetUnhandledExceptionFilter 0000000180019080     kernel32:KERNEL32.dll
 0002:00000088       __imp_IsProcessorFeaturePresent 0000000180019088     kernel32:KERNEL32.dll
 0002:00000090       __imp_GetCurrentProcess    0000000180019090     kernel32:KERNEL32.dll
 0002:00000098       __imp_TerminateProcess     0000000180019098     kernel32:KERNEL32.dll
 0002:000000a0       __imp_QueryPerformanceCounter 00000001800190a0     kernel32:KERNEL32.dll
 0002:000000a8       __imp_GetCurrentProcessId  00000001800190a8     kernel32:KERNEL32.dll
 0002:000000b0       __imp_GetCurrentThreadId   00000001800190b0     kernel32:KERNEL32.dll
 0002:000000b8       __imp_GetSystemTimeAsFileTime 00000001800190b8     kernel32:KERNEL32.dll
 0002:000000c0       __imp_DisableThreadLibraryCalls 00000001800190c0     kernel32:KERNEL32.dll
 0002:000000c8       __imp_InitializeSListHead  00000001800190c8     kernel32:KERNEL32.dll
 0002:000000d0       \177KERNEL32_NULL_THUNK_DATA 00000001800190d0     kernel32:KERNEL32.dll
 0002:000000d8       __imp_strstr               00000001800190d8     vcruntime:VCRUNTIME140.dll
 0002:000000e0       __imp___std_exception_copy 00000001800190e0     vcruntime:VCRUNTIME140.dll
 0002:000000e8       __imp___std_exception_destroy 00000001800190e8     vcruntime:VCRUNTIME140.dll
 0002:000000f0       __imp__CxxThrowException   00000001800190f0     vcruntime:VCRUNTIME140.dll
 0002:000000f8       __imp___CxxFrameHandler3   00000001800190f8     vcruntime:VCRUNTIME140.dll
 0002:00000100       __imp_memcpy               0000000180019100     vcruntime:VCRUNTIME140.dll
 0002:00000108       __imp_memmove              0000000180019108     vcruntime:VCRUNTIME140.dll
 0002:00000110       __imp_memset               0000000180019110     vcruntime:VCRUNTIME140.dll
 0002:00000118       __imp___std_terminate      0000000180019118     vcruntime:VCRUNTIME140.dll
 0002:00000120       __imp___C_specific_handler 0000000180019120     vcruntime:VCRUNTIME140.dll
 0002:00000128       __imp___std_type_info_destroy_list 0000000180019128     vcruntime:VCRUNTIME140.dll
 0002:00000130       \177VCRUNTIME140_NULL_THUNK_DATA 0000000180019130     vcruntime:VCRUNTIME140.dll
 0002:00000138       __imp_malloc               0000000180019138     ucrt:api-ms-win-crt-heap-l1-1-0.dll
 0002:00000140       __imp__callnewh            0000000180019140     ucrt:api-ms-win-crt-heap-l1-1-0.dll
 0002:00000148       __imp_free                 0000000180019148     ucrt:api-ms-win-crt-heap-l1-1-0.dll
 0002:00000150       \177api-ms-win-crt-heap-l1-1-0_NULL_THUNK_DATA 0000000180019150     ucrt:api-ms-win-crt-heap-l1-1-0.dll
 0002:00000158       __imp__seh_filter_dll      0000000180019158     ucrt:api-ms-win-crt-runtime-l1-1-0.dll
 0002:00000160       __imp__initterm            0000000180019160     ucrt:api-ms-win-crt-runtime-l1-1-0.dll
 0002:00000168       __imp__initialize_narrow_environment 0000000180019168     ucrt:api-ms-win-crt-runtime-l1-1-0.dll
 0002:00000170       __imp__initialize_onexit_table 0000000180019170     ucrt:api-ms-win-crt-runtime-l1-1-0.dll
 0002:00000178       __imp__register_onexit_function 0000000180019178     ucrt:api-ms-win-crt-runtime-l1-1-0.dll
 0002:00000180       __imp__execute_onexit_table 0000000180019180     ucrt:api-ms-win-crt-runtime-l1-1-0.dll
 0002:00000188       __imp__configure_narrow_argv 0000000180019188     ucrt:api-ms-win-crt-runtime-l1-1-0.dll
 0002:00000190       __imp__initterm_e          0000000180019190     ucrt:api-ms-win-crt-runtime-l1-1-0.dll
 0002:00000198       __imp__crt_atexit          0000000180019198     ucrt:api-ms-win-crt-runtime-l1-1-0.dll
 0002:000001a0       __imp__cexit               00000001800191a0     ucrt:api-ms-win-crt-runtime-l1-1-0.dll
 0002:000001a8       \177api-ms-win-crt-runtime-l1-1-0_NULL_THUNK_DATA 00000001800191a8     ucrt:api-ms-win-crt-runtime-l1-1-0.dll
 0002:000001b0       __imp___acrt_iob_func      00000001800191b0     ucrt:api-ms-win-crt-stdio-l1-1-0.dll
 0002:000001b8       __imp___stdio_common_vfprintf 00000001800191b8     ucrt:api-ms-win-crt-stdio-l1-1-0.dll
 0002:000001c0       \177api-ms-win-crt-stdio-l1-1-0_NULL_THUNK_DATA 00000001800191c0     ucrt:api-ms-win-crt-stdio-l1-1-0.dll
 0002:000001c8       __imp_strncmp              00000001800191c8     ucrt:api-ms-win-crt-string-l1-1-0.dll
 0002:000001d0       \177api-ms-win-crt-string-l1-1-0_NULL_THUNK_DATA 00000001800191d0     ucrt:api-ms-win-crt-string-l1-1-0.dll
 0002:000001d8       __imp_get_debug_name_ea    00000001800191d8     ida:ida.dll
 0002:000001e0       __imp_demangle_name        00000001800191e0     ida:ida.dll
 0002:000001e8       __imp_get_debug_name       00000001800191e8     ida:ida.dll
 0002:000001f0       __imp_set_debug_name       00000001800191f0     ida:ida.dll
 0002:000001f8       __imp_reorder_dummy_names  00000001800191f8     ida:ida.dll
 0002:00000200       __imp_is_name_defined_locally 0000000180019200     ida:ida.dll
 0002:00000208       __imp_del_debug_names      0000000180019208     ida:ida.dll
 0002:00000210       __imp_get_debug_names      0000000180019210     ida:ida.dll
 0002:00000218       __imp_under_debugger       0000000180019218     ida:ida.dll
 0002:00000220       __imp_rebuild_nlist        0000000180019220     ida:ida.dll
 0002:00000228       __imp_get_nlist_name       0000000180019228     ida:ida.dll
 0002:00000230       __imp_get_nlist_ea         0000000180019230     ida:ida.dll
 0002:00000238       __imp_is_in_nlist          0000000180019238     ida:ida.dll
 0002:00000240       __imp_get_nlist_idx        0000000180019240     ida:ida.dll
 0002:00000248       __imp_get_nlist_size       0000000180019248     ida:ida.dll
 0002:00000250       __imp_make_name_non_weak   0000000180019250     ida:ida.dll
 0002:00000258       __imp_make_name_weak       0000000180019258     ida:ida.dll
 0002:00000260       __imp_is_weak_name         0000000180019260     ida:ida.dll
 0002:00000268       __imp_make_name_non_public 0000000180019268     ida:ida.dll
 0002:00000270       __imp_make_name_public     0000000180019270     ida:ida.dll
 0002:00000278       __imp_is_public_name       0000000180019278     ida:ida.dll
 0002:00000280       __imp_cleanup_name         0000000180019280     ida:ida.dll
 0002:00000288       __imp_get_nice_colored_name 0000000180019288     ida:ida.dll
 0002:00000290       __imp_get_name_expr        0000000180019290     ida:ida.dll
 0002:00000298       __imp_get_name_color       0000000180019298     ida:ida.dll
 0002:000002a0       __imp_get_ea_name          00000001800192a0     ida:ida.dll
 0002:000002a8       __imp_get_name_value       00000001800192a8     ida:ida.dll
 0002:000002b0       __imp_get_name_base_ea     00000001800192b0     ida:ida.dll
 0002:000002b8       __imp_get_name_ea          00000001800192b8     ida:ida.dll
 0002:000002c0       __imp_show_name            00000001800192c0     ida:ida.dll
 0002:000002c8       __imp_hide_name            00000001800192c8     ida:ida.dll
 0002:000002d0       __imp_extract_name         00000001800192d0     ida:ida.dll
 0002:000002d8       __imp_is_valid_typename    00000001800192d8     ida:ida.dll
 0002:000002e0       __imp_is_uname             00000001800192e0     ida:ida.dll
 0002:000002e8       __imp_is_ident             00000001800192e8     ida:ida.dll
 0002:000002f0       __imp_set_cp_validity      00000001800192f0     ida:ida.dll
 0002:000002f8       __imp_is_valid_cp          00000001800192f8     ida:ida.dll
 0002:00000300       __imp_validate_name        0000000180019300     ida:ida.dll
 0002:00000308       __imp_make_name_user       0000000180019308     ida:ida.dll
 0002:00000310       __imp_interr               0000000180019310     ida:ida.dll
 0002:00000318       __imp_make_name_auto       0000000180019318     ida:ida.dll
 0002:00000320       __imp_set_dummy_name       0000000180019320     ida:ida.dll
 0002:00000328       __imp_set_name             0000000180019328     ida:ida.dll
 0002:00000330       __imp_is_main_thread       0000000180019330     ida:ida.dll
 0002:00000338       __imp_qvector_reserve      0000000180019338     ida:ida.dll
 0002:00000340       __imp_qalloc_or_throw      0000000180019340     ida:ida.dll
 0002:00000348       __imp_qvsnprintf           0000000180019348     ida:ida.dll
 0002:00000350       __imp_qfree                0000000180019350     ida:ida.dll
 0002:00000358       __imp_qrealloc             0000000180019358     ida:ida.dll
 0002:00000360       __imp_append_struct_fields 0000000180019360     ida:ida.dll
 0002:00000368       \177ida_NULL_THUNK_DATA    0000000180019368     ida:ida.dll
 0002:00000370       __imp_PyW_GetNumber        0000000180019370     python:python.dll
 0002:00000378       \177python_NULL_THUNK_DATA 0000000180019378     python:python.dll
 0002:00000380       __imp_PyEval_RestoreThread 0000000180019380     python38:python38.dll
 0002:00000388       __imp_PyEval_InitThreads   0000000180019388     python38:python38.dll
 0002:00000390       __imp_PyImport_AddModule   0000000180019390     python38:python38.dll
 0002:00000398       __imp_PyObject_Call        0000000180019398     python38:python38.dll
 0002:000003a0       __imp_PyObject_CallFunctionObjArgs 00000001800193a0     python38:python38.dll
 0002:000003a8       __imp_PySequence_Check     00000001800193a8     python38:python38.dll
 0002:000003b0       __imp_PySequence_Size      00000001800193b0     python38:python38.dll
 0002:000003b8       __imp_PySequence_GetItem   00000001800193b8     python38:python38.dll
 0002:000003c0       __imp_PyObject_IsInstance  00000001800193c0     python38:python38.dll
 0002:000003c8       __imp_PyType_Type          00000001800193c8     python38:python38.dll
 0002:000003d0       __imp__Py_NoneStruct       00000001800193d0     python38:python38.dll
 0002:000003d8       __imp_PyEval_SaveThread    00000001800193d8     python38:python38.dll
 0002:000003e0       __imp_PyBool_Type          00000001800193e0     python38:python38.dll
 0002:000003e8       __imp_PyExc_AttributeError 00000001800193e8     python38:python38.dll
 0002:000003f0       __imp_PyExc_IndexError     00000001800193f0     python38:python38.dll
 0002:000003f8       __imp_PyExc_MemoryError    00000001800193f8     python38:python38.dll
 0002:00000400       __imp_PyExc_OverflowError  0000000180019400     python38:python38.dll
 0002:00000408       __imp_PyExc_RuntimeError   0000000180019408     python38:python38.dll
 0002:00000410       __imp_PyExc_SyntaxError    0000000180019410     python38:python38.dll
 0002:00000418       __imp_PyExc_SystemError    0000000180019418     python38:python38.dll
 0002:00000420       __imp_PyExc_TypeError      0000000180019420     python38:python38.dll
 0002:00000428       __imp_PyExc_ValueError     0000000180019428     python38:python38.dll
 0002:00000430       __imp_PyExc_ZeroDivisionError 0000000180019430     python38:python38.dll
 0002:00000438       __imp_PyExc_IOError        0000000180019438     python38:python38.dll
 0002:00000440       __imp_PyModule_Create2     0000000180019440     python38:python38.dll
 0002:00000448       __imp__Py_NotImplementedStruct 0000000180019448     python38:python38.dll
 0002:00000450       __imp_PyModule_AddObject   0000000180019450     python38:python38.dll
 0002:00000458       __imp_Py_BuildValue        0000000180019458     python38:python38.dll
 0002:00000460       __imp_PyArg_UnpackTuple    0000000180019460     python38:python38.dll
 0002:00000468       __imp_PyGILState_Release   0000000180019468     python38:python38.dll
 0002:00000470       __imp_PyGILState_Ensure    0000000180019470     python38:python38.dll
 0002:00000478       __imp_PyErr_WriteUnraisable 0000000180019478     python38:python38.dll
 0002:00000480       __imp_PyErr_Format         0000000180019480     python38:python38.dll
 0002:00000488       __imp_PyErr_GivenExceptionMatches 0000000180019488     python38:python38.dll
 0002:00000490       __imp_PyErr_Restore        0000000180019490     python38:python38.dll
 0002:00000498       __imp_PyErr_Fetch          0000000180019498     python38:python38.dll
 0002:000004a0       __imp_PyErr_Clear          00000001800194a0     python38:python38.dll
 0002:000004a8       __imp_PyErr_SetString      00000001800194a8     python38:python38.dll
 0002:000004b0       __imp_PyCapsule_Import     00000001800194b0     python38:python38.dll
 0002:000004b8       __imp_PyCapsule_GetPointer 00000001800194b8     python38:python38.dll
 0002:000004c0       __imp_PyCapsule_New        00000001800194c0     python38:python38.dll
 0002:000004c8       __imp_PyModule_GetDict     00000001800194c8     python38:python38.dll
 0002:000004d0       __imp_PyCFunction_GetFlags 00000001800194d0     python38:python38.dll
 0002:000004d8       __imp_PyCFunction_GetSelf  00000001800194d8     python38:python38.dll
 0002:000004e0       __imp_PyCFunction_GetFunction 00000001800194e0     python38:python38.dll
 0002:000004e8       __imp_PyDict_SetItemString 00000001800194e8     python38:python38.dll
 0002:000004f0       __imp_PyDict_SetItem       00000001800194f0     python38:python38.dll
 0002:000004f8       __imp_PyDict_GetItem       00000001800194f8     python38:python38.dll
 0002:00000500       __imp_PyDict_New           0000000180019500     python38:python38.dll
 0002:00000508       __imp_PyList_Append        0000000180019508     python38:python38.dll
 0002:00000510       __imp_PyList_SetItem       0000000180019510     python38:python38.dll
 0002:00000518       __imp_PyList_New           0000000180019518     python38:python38.dll
 0002:00000520       __imp_PyTuple_SetItem      0000000180019520     python38:python38.dll
 0002:00000528       __imp_PyTuple_GetItem      0000000180019528     python38:python38.dll
 0002:00000530       __imp_PyTuple_Size         0000000180019530     python38:python38.dll
 0002:00000538       __imp_PyTuple_New          0000000180019538     python38:python38.dll
 0002:00000540       __imp_PyBool_FromLong      0000000180019540     python38:python38.dll
 0002:00000548       __imp_PyLong_AsUnsignedLongLong 0000000180019548     python38:python38.dll
 0002:00000550       __imp_PyLong_FromUnsignedLongLong 0000000180019550     python38:python38.dll
 0002:00000558       __imp_PyLong_FromLongLong  0000000180019558     python38:python38.dll
 0002:00000560       __imp_PyLong_FromVoidPtr   0000000180019560     python38:python38.dll
 0002:00000568       __imp_PyLong_AsUnsignedLong 0000000180019568     python38:python38.dll
 0002:00000570       __imp_PyLong_AsLong        0000000180019570     python38:python38.dll
 0002:00000578       __imp_PyLong_FromSize_t    0000000180019578     python38:python38.dll
 0002:00000580       __imp_PyLong_FromUnsignedLong 0000000180019580     python38:python38.dll
 0002:00000588       __imp_PyLong_FromLong      0000000180019588     python38:python38.dll
 0002:00000590       __imp_PyUnicode_CompareWithASCIIString 0000000180019590     python38:python38.dll
 0002:00000598       __imp_PyUnicode_Concat     0000000180019598     python38:python38.dll
 0002:000005a0       __imp_PyUnicode_AsUTF8String 00000001800195a0     python38:python38.dll
 0002:000005a8       __imp_PyUnicode_DecodeUTF8 00000001800195a8     python38:python38.dll
 0002:000005b0       __imp_PyUnicode_InternFromString 00000001800195b0     python38:python38.dll
 0002:000005b8       __imp_PyUnicode_FromFormat 00000001800195b8     python38:python38.dll
 0002:000005c0       __imp_PyUnicode_FromString 00000001800195c0     python38:python38.dll
 0002:000005c8       __imp_PyUnicode_FromStringAndSize 00000001800195c8     python38:python38.dll
 0002:000005d0       __imp_PyBytes_AsStringAndSize 00000001800195d0     python38:python38.dll
 0002:000005d8       __imp__PyObject_New        00000001800195d8     python38:python38.dll
 0002:000005e0       __imp_PyObject_Free        00000001800195e0     python38:python38.dll
 0002:000005e8       __imp_Py_DecRef            00000001800195e8     python38:python38.dll
 0002:000005f0       __imp__Py_Dealloc          00000001800195f0     python38:python38.dll
 0002:000005f8       __imp_PyObject_IsTrue      00000001800195f8     python38:python38.dll
 0002:00000600       __imp_PyObject_GenericGetAttr 0000000180019600     python38:python38.dll
 0002:00000608       __imp_PyObject_SetAttr     0000000180019608     python38:python38.dll
 0002:00000610       __imp_PyObject_GetAttr     0000000180019610     python38:python38.dll
 0002:00000618       __imp_PyObject_GetAttrString 0000000180019618     python38:python38.dll
 0002:00000620       __imp_PyType_Modified      0000000180019620     python38:python38.dll
 0002:00000628       __imp_PyType_GetFlags      0000000180019628     python38:python38.dll
 0002:00000630       __imp_PyType_GetSlot       0000000180019630     python38:python38.dll
 0002:00000638       __imp_PyType_FromSpec      0000000180019638     python38:python38.dll
 0002:00000640       __imp_PyErr_Occurred       0000000180019640     python38:python38.dll
 0002:00000648       \177python38_NULL_THUNK_DATA 0000000180019648     python38:python38.dll
 0002:00000650       __guard_check_icall_fptr   0000000180019650     MSVCRT:guard_support.obj
 0002:00000658       __guard_dispatch_icall_fptr 0000000180019658     MSVCRT:guard_support.obj
 0002:00000660       __xc_a                     0000000180019660     MSVCRT:initializers.obj
 0002:00000668       __xc_z                     0000000180019668     MSVCRT:initializers.obj
 0002:00000670       __xi_a                     0000000180019670     MSVCRT:initializers.obj
 0002:00000680       __xi_z                     0000000180019680     MSVCRT:initializers.obj
 0002:00000688       __xl_a                     0000000180019688     MSVCRT:tlssup.obj
 0002:00000690       __xl_z                     0000000180019690     MSVCRT:tlssup.obj
 0002:00000698       __xp_a                     0000000180019698     MSVCRT:initializers.obj
 0002:000006a0       __xp_z                     00000001800196a0     MSVCRT:initializers.obj
 0002:000006a8       __xt_a                     00000001800196a8     MSVCRT:initializers.obj
 0002:000006b0       __xt_z                     00000001800196b0     MSVCRT:initializers.obj
 0002:000006c0       ??_C@_0N@HAMILBJA@extract_name@ 00000001800196c0     name.obj
 0002:000006d0       ??_C@_0M@HKGHAJA@get_name_ea@ 00000001800196d0     name.obj
 0002:000006e0       ??_C@_0BB@FPLIPCAL@get_name_base_ea@ 00000001800196e0     name.obj
 0002:000006f8       ??_C@_0P@FDJLMKAL@get_name_value@ 00000001800196f8     name.obj
 0002:00000708       ??_C@_0BB@BCICAANH@get_visible_name@ 0000000180019708     name.obj
 0002:00000720       ??_C@_0P@BNHCPMOF@get_short_name@ 0000000180019720     name.obj
 0002:00000730       ??_C@_0O@NLDGBHGF@get_long_name@ 0000000180019730     name.obj
 0002:00000740       ??_C@_0BH@BIIADHLJ@get_colored_short_name@ 0000000180019740     name.obj
 0002:00000758       ??_C@_0BG@CJKKFIKC@get_colored_long_name@ 0000000180019758     name.obj
 0002:00000770       ??_C@_0BD@JGKBGG@get_demangled_name@ 0000000180019770     name.obj
 0002:00000788       ??_C@_0BL@EKFHBPGN@get_colored_demangled_name@ 0000000180019788     name.obj
 0002:000007a8       ??_C@_0P@KLICEFHC@get_name_color@ 00000001800197a8     name.obj
 0002:000007b8       ??_C@_0O@EFKNJHLB@get_name_expr@ 00000001800197b8     name.obj
 0002:000007c8       ??_C@_0BG@FEILHMMO@get_nice_colored_name@ 00000001800197c8     name.obj
 0002:000007e0       ??_C@_0BF@OPDILINJ@append_struct_fields@ 00000001800197e0     name.obj
 0002:000007f8       ??_C@_0P@IKOGGCGO@get_nlist_size@ 00000001800197f8     name.obj
 0002:00000808       ??_C@_0O@FOOKNILK@rebuild_nlist@ 0000000180019808     name.obj
 0002:00000818       ??_C@_0BE@OGFGKMOP@reorder_dummy_names@ 0000000180019818     name.obj
 0002:00000830       ??_C@_0BB@EKMIPDAN@ea_name_t_ea_set@ 0000000180019830     name.obj
 0002:00000848       ??_C@_0BD@IKDFHBKE@ea_name_t_name_set@ 0000000180019848     name.obj
 0002:00000860       ??_C@_0O@GIFCEFAJ@new_ea_name_t@ 0000000180019860     name.obj
 0002:00000870       ??_C@_0P@MODDECM@set_debug_name@ 0000000180019870     name.obj
 0002:00000880       ??_C@_0P@MCPNMOAA@get_debug_name@ 0000000180019880     name.obj
 0002:00000890       ??_C@_0BA@HIPDEBFD@del_debug_names@ 0000000180019890     name.obj
 0002:000008a0       ??_C@_0O@CGGNOBLI@demangle_name@ 00000001800198a0     name.obj
 0002:000008b0       ??_C@_0BI@NLPOODIN@is_name_defined_locally@ 00000001800198b0     name.obj
 0002:000008c8       ??_C@_0N@ONPAEKEA@cleanup_name@ 00000001800198c8     name.obj
 0002:000008d8       ??_C@_0BA@ENANHPL@get_debug_names@ 00000001800198d8     name.obj
 0002:000008e8       ??_C@_0M@BOCFOAFP@get_ea_name@ 00000001800198e8     name.obj
 0002:000008f8       ??_C@_0O@ILAIBNBI@validate_name@ 00000001800198f8     name.obj
 0002:00000908       ??_C@_0DI@JPKFPJPA@?6ea_name_vec_t?$CI?$CJ?6new_ea_name_ve@ 0000000180019908     name.obj
 0002:00000940       ??_C@_0BF@NCEPEBJ@delete_ea_name_vec_t@ 0000000180019940     name.obj
 0002:00000958       ??_C@_0BL@OHDPJOJP@delete_ea_name_vec_t?$CIself?$CJ@ 0000000180019958     name.obj
 0002:00000980       ??_C@_0EO@LJFCCAFC@?6ea_name_vec_t_push_back?$CIself?0?5@ 0000000180019980     name.obj
 0002:000009d0       ??_C@_0BH@HLHODKAM@ea_name_vec_t_pop_back@ 00000001800199d0     name.obj
 0002:000009e8       ??_C@_0BN@BGMNKACJ@ea_name_vec_t_pop_back?$CIself?$CJ@ 00000001800199e8     name.obj
 0002:00000a08       ??_C@_0BD@OEBBDDPJ@ea_name_vec_t_size@ 0000000180019a08     name.obj
 0002:00000a20       ??_C@_0CD@JGENGIPC@ea_name_vec_t_size?$CIself?$CJ?5?9?$DO?5siz@ 0000000180019a20     name.obj
 0002:00000a48       ??_C@_0BE@GICOPHFB@ea_name_vec_t_empty@ 0000000180019a48     name.obj
 0002:00000a60       ??_C@_0CC@DHBHBHEK@ea_name_vec_t_empty?$CIself?$CJ?5?9?$DO?5bo@ 0000000180019a60     name.obj
 0002:00000a88       ??_C@_0CK@JFFANKLG@ea_name_vec_t_at?$CIself?0?5_idx?$CJ?5?9?$DO@ 0000000180019a88     name.obj
 0002:00000ab8       ??_C@_0BF@PHBGDFPN@ea_name_vec_t_qclear@ 0000000180019ab8     name.obj
 0002:00000ad0       ??_C@_0BL@FMOOMAEM@ea_name_vec_t_qclear?$CIself?$CJ@ 0000000180019ad0     name.obj
 0002:00000af0       ??_C@_0BE@BNMJCCAB@ea_name_vec_t_clear@ 0000000180019af0     name.obj
 0002:00000b08       ??_C@_0BK@DGDMKOAF@ea_name_vec_t_clear?$CIself?$CJ@ 0000000180019b08     name.obj
 0002:00000b30       ??_C@_0EP@JPHLLLAF@?6ea_name_vec_t_resize?$CIself?0?5_ne@ 0000000180019b30     name.obj
 0002:00000b80       ??_C@_0CI@OBFJIOE@ea_name_vec_t_grow?$CIself?0?5x?$DNea_n@ 0000000180019b80     name.obj
 0002:00000ba8       ??_C@_0BH@FMIAPECO@ea_name_vec_t_capacity@ 0000000180019ba8     name.obj
 0002:00000bc0       ??_C@_0CH@GFLDBIGG@ea_name_vec_t_capacity?$CIself?$CJ?5?9?$DO@ 0000000180019bc0     name.obj
 0002:00000be8       ??_C@_0CB@IHCKNNOE@ea_name_vec_t_reserve?$CIself?0?5cnt@ 0000000180019be8     name.obj
 0002:00000c10       ??_C@_0BH@OGLIAFJO@ea_name_vec_t_truncate@ 0000000180019c10     name.obj
 0002:00000c28       ??_C@_0BN@MDPPKCEP@ea_name_vec_t_truncate?$CIself?$CJ@ 0000000180019c28     name.obj
 0002:00000c48       ??_C@_0BM@LJIFPCHD@ea_name_vec_t_swap?$CIself?0?5r?$CJ@ 0000000180019c48     name.obj
 0002:00000c68       ??_C@_0BG@DFCBNBKA@ea_name_vec_t_extract@ 0000000180019c68     name.obj
 0002:00000c80       ??_C@_0CJ@INHIEBJO@ea_name_vec_t_extract?$CIself?$CJ?5?9?$DO?5@ 0000000180019c80     name.obj
 0002:00000cb0       ??_C@_0CD@LODHJCOA@ea_name_vec_t_inject?$CIself?0?5s?0?5l@ 0000000180019cb0     name.obj
 0002:00000ce0       ??_C@_0FA@MPJMFGB@?6ea_name_vec_t_begin?$CIself?$CJ?5?9?$DO?5e@ 0000000180019ce0     name.obj
 0002:00000d30       ??_C@_0EM@IPJPPDMH@?6ea_name_vec_t_end?$CIself?$CJ?5?9?$DO?5ea_@ 0000000180019d30     name.obj
 0002:00000d80       ??_C@_0CP@LDJOIMKC@ea_name_vec_t_insert?$CIself?0?5it?0?5@ 0000000180019d80     name.obj
 0002:00000db0       ??_C@_0GB@EEOPBNKG@?6ea_name_vec_t_erase?$CIself?0?5it?$CJ?5@ 0000000180019db0     name.obj
 0002:00000e18       ??_C@_0BG@BFBBKDKI@ea_name_vec_t___len__@ 0000000180019e18     name.obj
 0002:00000e30       ??_C@_0CG@DNJBNOOF@ea_name_vec_t___len__?$CIself?$CJ?5?9?$DO?5@ 0000000180019e30     name.obj
 0002:00000e58       ??_C@_0DA@PFKOHPKG@ea_name_vec_t___getitem__?$CIself?0@ 0000000180019e58     name.obj
 0002:00000e88       ??_C@_0CG@OKKOIGIL@ea_name_vec_t___setitem__?$CIself?0@ 0000000180019e88     name.obj
 0002:00000eb0       ??_C@_0BL@JEDHJKIE@ea_name_vec_t_swigregister@ 0000000180019eb0     name.obj
 0002:00000ed0       ??_C@_0BH@BILMNKIF@ea_name_vec_t_swiginit@ 0000000180019ed0     name.obj
 0002:00000ee8       ??_C@_08KBBNHJCC@get_name@ 0000000180019ee8     name.obj
 0002:00000ef8       ??_C@_0BI@GFFMOAMC@get_name?$CIea?$CJ?5?9?$DO?5qstring@ 0000000180019ef8     name.obj
 0002:00000f10       ??_C@_0BB@HBHPKCFK@get_colored_name@ 0000000180019f10     name.obj
 0002:00000f28       ??_C@_0CA@HFNKLDIC@get_colored_name?$CIea?$CJ?5?9?$DO?5qstring@ 0000000180019f28     name.obj
 0002:00000f48       ??_C@_0CE@FMABGOPA@set_name?$CIea?0?5name?0?5flags?$DN0?$CJ?5?9?$DO?5@ 0000000180019f48     name.obj
 0002:00000f70       ??_C@_0CG@BJCNIPKJ@force_name?$CIea?0?5name?0?5flags?$DN0?$CJ?5?9@ 0000000180019f70     name.obj
 0002:00000f98       ??_C@_0BA@DLAKHGI@del_global_name@ 0000000180019f98     name.obj
 0002:00000fa8       ??_C@_0BM@CPPLKFHA@del_global_name?$CIea?$CJ?5?9?$DO?5bool@ 0000000180019fa8     name.obj
 0002:00000fc8       ??_C@_0P@HNOINPCK@del_local_name@ 0000000180019fc8     name.obj
 0002:00000fd8       ??_C@_0BL@CFOAOBFC@del_local_name?$CIea?$CJ?5?9?$DO?5bool@ 0000000180019fd8     name.obj
 0002:00000ff8       ??_C@_0CC@EJLAKMKM@set_dummy_name?$CI_from?0?5ea?$CJ?5?9?$DO?5bo@ 0000000180019ff8     name.obj
 0002:00001020       ??_C@_0P@JHODIGDG@make_name_auto@ 000000018001a020     name.obj
 0002:00001030       ??_C@_0BL@HIPJFCAM@make_name_auto?$CIea?$CJ?5?9?$DO?5bool@ 000000018001a030     name.obj
 0002:00001050       ??_C@_0P@MFGAENPD@make_name_user@ 000000018001a050     name.obj
 0002:00001060       ??_C@_0BL@GDOAINMK@make_name_user?$CIea?$CJ?5?9?$DO?5bool@ 000000018001a060     name.obj
 0002:00001080       ??_C@_0CJ@OPHDBBMH@is_valid_cp?$CIcp?0?5kind?0?5data?$DNNone@ 000000018001a080     name.obj
 0002:000010b0       ??_C@_0DL@KNOJKFLI@set_cp_validity?$CIkind?0?5cp?0?5endcp@ 000000018001a0b0     name.obj
 0002:000010f0       ??_C@_0M@KLINEHJM@is_ident_cp@ 000000018001a0f0     name.obj
 0002:00001100       ??_C@_0BI@NHBEECL@is_ident_cp?$CIcp?$CJ?5?9?$DO?5bool@ 000000018001a100     name.obj
 0002:00001118       ??_C@_0CP@HGFIFGBL@is_strlit_cp?$CIcp?0?5specific_range@ 000000018001a118     name.obj
 0002:00001148       ??_C@_0O@LMPMKJEH@is_visible_cp@ 000000018001a148     name.obj
 0002:00001158       ??_C@_0BK@IEDGJMHG@is_visible_cp?$CIcp?$CJ?5?9?$DO?5bool@ 000000018001a158     name.obj
 0002:00001178       ??_C@_08FINPABHF@is_ident@ 000000018001a178     name.obj
 0002:00001188       ??_C@_0BH@LNFAIDGP@is_ident?$CIname?$CJ?5?9?$DO?5bool@ 000000018001a188     name.obj
 0002:000011a0       ??_C@_08LIIGNBCK@is_uname@ 000000018001a1a0     name.obj
 0002:000011b0       ??_C@_0BH@ODMICNFI@is_uname?$CIname?$CJ?5?9?$DO?5bool@ 000000018001a1b0     name.obj
 0002:000011c8       ??_C@_0BC@BNHJHPJP@is_valid_typename@ 000000018001a1c8     name.obj
 0002:000011e0       ??_C@_0CA@BAAPONFO@is_valid_typename?$CIname?$CJ?5?9?$DO?5bool@ 000000018001a1e0     name.obj
 0002:00001200       ??_C@_0CB@CBBBPEFB@extract_name?$CIline?0?5x?$CJ?5?9?$DO?5ssize_@ 000000018001a200     name.obj
 0002:00001228       ??_C@_09KDGPANAI@hide_name@ 000000018001a228     name.obj
 0002:00001238       ??_C@_0O@JAMMGDIO@hide_name?$CIea?$CJ@ 000000018001a238     name.obj
 0002:00001248       ??_C@_09MGHBPCOF@show_name@ 000000018001a248     name.obj
 0002:00001258       ??_C@_0O@ODNIGEIO@show_name?$CIea?$CJ@ 000000018001a258     name.obj
 0002:00001268       ??_C@_0CB@KMIOOHJ@get_name_ea?$CI_from?0?5name?$CJ?5?9?$DO?5ea_@ 000000018001a268     name.obj
 0002:00001290       ??_C@_0CE@MDOFPDPJ@get_name_base_ea?$CI_from?0?5to?$CJ?5?9?$DO?5@ 000000018001a290     name.obj
 0002:000012b8       ??_C@_0CD@HKAEOAIJ@get_name_value?$CI_from?0?5name?$CJ?5?9?$DO?5@ 000000018001a2b8     name.obj
 0002:000012e0       ??_C@_0CN@KFBDKMAK@get_visible_name?$CIea?0?5gtn_flags?$DN@ 000000018001a2e0     name.obj
 0002:00001310       ??_C@_0CL@KHJALEPM@get_short_name?$CIea?0?5gtn_flags?$DN0?$CJ@ 000000018001a310     name.obj
 0002:00001340       ??_C@_0CK@BPJGFLPA@get_long_name?$CIea?0?5gtn_flags?$DN0?$CJ?5@ 000000018001a340     name.obj
 0002:00001370       ??_C@_0DD@GPKPOLLA@get_colored_short_name?$CIea?0?5gtn_@ 000000018001a370     name.obj
 0002:000013a8       ??_C@_0DC@PHJIJHMC@get_colored_long_name?$CIea?0?5gtn_f@ 000000018001a3a8     name.obj
 0002:000013e0       ??_C@_0ED@LLPACFH@get_demangled_name?$CIea?0?5inhibito@ 000000018001a3e0     name.obj
 0002:00001430       ??_C@_0EL@PKICAHBB@get_colored_demangled_name?$CIea?0?5@ 000000018001a430     name.obj
 0002:00001480       ??_C@_0CF@OJEAFLMO@get_name_color?$CI_from?0?5ea?$CJ?5?9?$DO?5co@ 000000018001a480     name.obj
 0002:000014a8       ??_C@_0DK@EGILHAIP@get_name_expr?$CI_from?0?5n?0?5ea?0?5off@ 000000018001a4a8     name.obj
 0002:000014e8       ??_C@_0CO@GHOLDMHN@get_nice_colored_name?$CIea?0?5flags@ 000000018001a4e8     name.obj
 0002:00001520       ??_C@_0EG@FAIAOLAI@append_struct_fields?$CIdisp?0?5n?0?5p@ 000000018001a520     name.obj
 0002:00001568       ??_C@_0P@BFNBMKOH@is_public_name@ 000000018001a568     name.obj
 0002:00001578       ??_C@_0BL@EHBHNKGL@is_public_name?$CIea?$CJ?5?9?$DO?5bool@ 000000018001a578     name.obj
 0002:00001598       ??_C@_0BB@LIKNLCPO@make_name_public@ 000000018001a598     name.obj
 0002:000015b0       ??_C@_0BF@IOGKOPPI@make_name_public?$CIea?$CJ@ 000000018001a5b0     name.obj
 0002:000015c8       ??_C@_0BF@ODBHHHFA@make_name_non_public@ 000000018001a5c8     name.obj
 0002:000015e0       ??_C@_0BJ@FGCJBLCL@make_name_non_public?$CIea?$CJ@ 000000018001a5e0     name.obj
 0002:00001600       ??_C@_0N@FGCLNFOE@is_weak_name@ 000000018001a600     name.obj
 0002:00001610       ??_C@_0BJ@ONPGBLAE@is_weak_name?$CIea?$CJ?5?9?$DO?5bool@ 000000018001a610     name.obj
 0002:00001630       ??_C@_0P@FGNLBHBE@make_name_weak@ 000000018001a630     name.obj
 0002:00001640       ??_C@_0BD@NGMMMACA@make_name_weak?$CIea?$CJ@ 000000018001a640     name.obj
 0002:00001658       ??_C@_0BD@FGMAGIAN@make_name_non_weak@ 000000018001a658     name.obj
 0002:00001670       ??_C@_0BH@NEGDMMC@make_name_non_weak?$CIea?$CJ@ 000000018001a670     name.obj
 0002:00001688       ??_C@_0BL@COFBNOFM@get_nlist_size?$CI?$CJ?5?9?$DO?5size_t@ 000000018001a688     name.obj
 0002:000016a8       ??_C@_0O@LLDJFBOG@get_nlist_idx@ 000000018001a6a8     name.obj
 0002:000016b8       ??_C@_0BM@INHNABJB@get_nlist_idx?$CIea?$CJ?5?9?$DO?5size_t@ 000000018001a6b8     name.obj
 0002:000016d8       ??_C@_0M@MLMELMAC@is_in_nlist@ 000000018001a6d8     name.obj
 0002:000016e8       ??_C@_0BI@JMPEOGCE@is_in_nlist?$CIea?$CJ?5?9?$DO?5bool@ 000000018001a6e8     name.obj
 0002:00001700       ??_C@_0N@BIKFBBJK@get_nlist_ea@ 000000018001a700     name.obj
 0002:00001710       ??_C@_0BK@EHPDHKNE@get_nlist_ea?$CIidx?$CJ?5?9?$DO?5ea_t@ 000000018001a710     name.obj
 0002:00001730       ??_C@_0P@MOELKMEH@get_nlist_name@ 000000018001a730     name.obj
 0002:00001740       ??_C@_0CE@DEGMGOHJ@get_nlist_name?$CIidx?$CJ?5?9?$DO?5char?5con@ 000000018001a740     name.obj
 0002:00001768       ??_C@_0BA@OEDKMKIN@rebuild_nlist?$CI?$CJ@ 000000018001a768     name.obj
 0002:00001778       ??_C@_0BG@HEJOGOAF@reorder_dummy_names?$CI?$CJ@ 000000018001a778     name.obj
 0002:00001790       ??_C@_0BL@PLEOIJBH@ea_name_t_ea_set?$CIself?0?5ea?$CJ@ 000000018001a790     name.obj
 0002:000017b0       ??_C@_0BB@JFLDDDMF@ea_name_t_ea_get@ 000000018001a7b0     name.obj
 0002:000017c8       ??_C@_0BP@FCIMOKIG@ea_name_t_ea_get?$CIself?$CJ?5?9?$DO?5ea_t@ 000000018001a7c8     name.obj
 0002:000017e8       ??_C@_0BP@HCKLOLGD@ea_name_t_name_set?$CIself?0?5name?$CJ@ 000000018001a7e8     name.obj
 0002:00001808       ??_C@_0BD@FFEOLBGM@ea_name_t_name_get@ 000000018001a808     name.obj
 0002:00001820       ??_C@_0CG@DDLOIND@ea_name_t_name_get?$CIself?$CJ?5?9?$DO?5qst@ 000000018001a820     name.obj
 0002:00001848       ??_C@_0DF@BFKDPINM@?6ea_name_t?$CI?$CJ?6new_ea_name_t?$CI_ea?0@ 000000018001a848     name.obj
 0002:00001880       ??_C@_0BB@PCLCDGPF@delete_ea_name_t@ 000000018001a880     name.obj
 0002:00001898       ??_C@_0BH@DDNPHEEI@delete_ea_name_t?$CIself?$CJ@ 000000018001a898     name.obj
 0002:000018b0       ??_C@_0BH@HEMDOLOF@ea_name_t_swigregister@ 000000018001a8b0     name.obj
 0002:000018c8       ??_C@_0BD@FBOBFCDG@ea_name_t_swiginit@ 000000018001a8c8     name.obj
 0002:000018e0       ??_C@_0CB@EHFIBLHA@set_debug_name?$CIea?0?5name?$CJ?5?9?$DO?5boo@ 000000018001a8e0     name.obj
 0002:00001908       ??_C@_0CH@NHJPFPPF@get_debug_name?$CIea_ptr?0?5how?$CJ?5?9?$DO?5@ 000000018001a908     name.obj
 0002:00001930       ??_C@_0BK@ICBHFANI@del_debug_names?$CIea1?0?5ea2?$CJ@ 000000018001a930     name.obj
 0002:00001950       ??_C@_0BC@DHOBDIHK@get_debug_name_ea@ 000000018001a950     name.obj
 0002:00001968       ??_C@_0CA@KBJDIBFA@get_debug_name_ea?$CIname?$CJ?5?9?$DO?5ea_t@ 000000018001a968     name.obj
 0002:00001988       ??_C@_0DM@FFOCGDIP@demangle_name?$CIname?0?5disable_mas@ 000000018001a988     name.obj
 0002:000019d0       ??_C@_0FG@GBGENIL@is_name_defined_locally?$CIpfn?0?5na@ 000000018001a9d0     name.obj
 0002:00001a28       ??_C@_0CI@NIFBGMLH@cleanup_name?$CIea?0?5name?0?5flags?$DN0?$CJ@ 000000018001aa28     name.obj
 0002:00001a50       ??_C@_0EL@FIAGMAPF@?6get_debug_names?$CInames?0?5ea1?0?5ea@ 000000018001aa50     name.obj
 0002:00001aa0       ??_C@_0CI@CAFLLNGK@get_ea_name?$CIea?0?5gtn_flags?$DN0?$CJ?5?9?$DO@ 000000018001aaa0     name.obj
 0002:00001ac8       ??_C@_0DB@KMLNCGPJ@validate_name?$CIname?0?5type?0?5flags@ 000000018001aac8     name.obj
 0002:00001b00       ??_C@_0BE@LADBKDLC@_p__qstringT_char_t@ 000000018001ab00     name.obj
 0002:00001b18       ??_C@_0BN@OHJFNODI@_qstring?$DM?5char?5?$DO?5?$CK?$HMqstring?5?$CK@ 000000018001ab18     name.obj
 0002:00001b38       ??_C@_0BN@OGMFMNEO@_p__qstringT_unsigned_char_t@ 000000018001ab38     name.obj
 0002:00001b58       ??_C@_0CE@FCOOCMMP@qtype?5?$CK?$HM_qstring?$DM?5unsigned?5char@ 000000018001ab58     name.obj
 0002:00001b80       ??_C@_0BO@NPELMEMN@_p__qstringT_unsigned_short_t@ 000000018001ab80     name.obj
 0002:00001ba0       ??_C@_0CI@MOGIECDE@_qstring?$DM?5unsigned?5short?5?$DO?5?$CK?$HMqw@ 000000018001aba0     name.obj
 0002:00001bc8       ??_C@_0BF@FIODJLOI@_p_action_ctx_base_t@ 000000018001abc8     name.obj
 0002:00001be0       ??_C@_0EE@ODNBPOJC@action_ctx_base_t?5?$CK?$HMaction_upda@ 000000018001abe0     name.obj
 0002:00001c28       ??_C@_0N@IODFCNBG@_p_biggest_t@ 000000018001ac28     name.obj
 0002:00001c38       ??_C@_0M@LMODFOHJ@biggest_t?5?$CK@ 000000018001ac38     name.obj
 0002:00001c48       ??_C@_0O@HOPHBKAL@char?5?$CK?$HMint8?5?$CK@ 000000018001ac48     name.obj
 0002:00001c58       ??_C@_0BC@KJKOCNNG@_p_const_iterator@ 000000018001ac58     name.obj
 0002:00001c70       ??_C@_0BB@LAJPCFIO@const_iterator?5?$CK@ 000000018001ac70     name.obj
 0002:00001c88       ??_C@_0N@LIGFMCGD@_p_ea_name_t@ 000000018001ac88     name.obj
 0002:00001ca0       ??_C@_0FA@FPHIOLEB@ea_name_t?5?$CK?$HMqvector?$DM?5ea_name_t?5@ 000000018001aca0     name.obj
 0002:00001cf0       ??_C@_0CE@DHGPAIMI@_p_f_p_TWidget_int_int_p_void__@ 000000018001acf0     name.obj
 0002:00001d18       ??_C@_0DN@DFPOHMBA@custom_viewer_keydown_t?5?$CK?$HMbool?5@ 000000018001ad18     name.obj
 0002:00001d58       ??_C@_0DF@PENMGFJK@_p_f_p_TWidget_int_p_view_mouse@ 000000018001ad58     name.obj
 0002:00001d90       ??_C@_0FC@NPHKCCPL@void?5?$CI?$CK?$CJ?$CITWidget?5?$CK?0int?0view_mou@ 000000018001ad90     name.obj
 0002:00001de8       ??_C@_0CA@IGCEDJID@_p_f_p_TWidget_int_p_void__bool@ 000000018001ade8     name.obj
 0002:00001e10       ??_C@_0FC@PJNOFHGN@custom_viewer_click_t?5?$CK?$HMcustom_@ 000000018001ae10     name.obj
 0002:00001e68       ??_C@_0CO@MIHLPJDD@_p_f_p_TWidget_p_lochist_entry_@ 000000018001ae68     name.obj
 0002:00001ea0       ??_C@_0EM@HBPJNBB@custom_viewer_adjust_place_t?5?$CK?$HM@ 000000018001aea0     name.obj
 0002:00001ef0       ??_C@_0GM@LBGPKCPI@_p_f_p_TWidget_p_q_const__lochi@ 000000018001aef0     name.obj
 0002:00001f60       ??_C@_0IF@FKBGALIG@void?5?$CI?$CK?$CJ?$CITWidget?5?$CK?0lochist_entr@ 000000018001af60     name.obj
 0002:00001ff0       ??_C@_0FA@DFBJAGBE@_p_f_p_TWidget_p_q_const__lochi@ 000000018001aff0     name.obj
 0002:00002040       ??_C@_0GI@FMPBFLEM@custom_viewer_can_navigate_t?5?$CK?$HM@ 000000018001b040     name.obj
 0002:000020a8       ??_C@_0DH@JJEDBLDE@_p_f_p_TWidget_p_q_const__place@ 000000018001b0a8     name.obj
 0002:000020e0       ??_C@_0EP@PJDAMEBK@code_viewer_lines_click_t?5?$CK?$HMvoi@ 000000018001b0e0     name.obj
 0002:00002130       ??_C@_0DE@PBNPHPNC@_p_f_p_TWidget_p_q_const__place@ 000000018001b130     name.obj
 0002:00002170       ??_C@_0EL@JKPIBDKO@code_viewer_lines_icon_t?5?$CK?$HMint?5@ 000000018001b170     name.obj
 0002:000021c0       ??_C@_0EB@FDCGDBJI@_p_f_p_TWidget_p_q_const__place@ 000000018001b1c0     name.obj
 0002:00002210       ??_C@_0FN@GGLCMJJK@custom_viewer_get_place_xcoord_@ 000000018001b210     name.obj
 0002:00002270       ??_C@_0DO@KLDLOPHE@_p_f_p_TWidget_p_q_const__place@ 000000018001b270     name.obj
 0002:000022b0       ??_C@_0FI@GOMHMLF@code_viewer_lines_linenum_t?5?$CK?$HMb@ 000000018001b2b0     name.obj
 0002:00002308       ??_C@_0BL@BMEJNHDD@_p_f_p_TWidget_p_void__int@ 000000018001b308     name.obj
 0002:00002328       ??_C@_0DB@GMPMLKDG@custom_viewer_help_t?5?$CK?$HMint?5?$CI?$CK?$CJ?$CI@ 000000018001b328     name.obj
 0002:00002360       ??_C@_0BM@PAKPNBHH@_p_f_p_TWidget_p_void__void@ 000000018001b360     name.obj
 0002:00002380       ??_C@_0GE@BLLNJKNN@custom_viewer_popup_t?5?$CK?$HMcustom_@ 000000018001b380     name.obj
 0002:000023e8       ??_C@_0DM@PKHFKJJF@_p_f_p_chooser_multi_t_p_sizeve@ 000000018001b3e8     name.obj
 0002:00002430       ??_C@_0FA@INGPHNGB@chooser_base_t?3?3cbres_t?5?$CI?$CK?$CJ?$CIcho@ 000000018001b430     name.obj
 0002:00002480       ??_C@_0CN@LJCPBILN@_p_f_p_chooser_t_ssize_t__choos@ 000000018001b480     name.obj
 0002:000024b0       ??_C@_0DL@IKAMODJA@chooser_t?3?3cbret_t?5?$CI?$CK?$CJ?$CIchooser_@ 000000018001b4b0     name.obj
 0002:000024f0       ??_C@_0EC@GIKOMIMG@_p_f_p_lochist_entry_t_r_q_cons@ 000000018001b4f0     name.obj
 0002:00002540       ??_C@_0FE@OJIOMBOE@bool?5?$CI?$CK?$CJ?$CIlochist_entry_t?5?$CK?0loch@ 000000018001b540     name.obj
 0002:00002598       ??_C@_0CC@HPECDOJE@_p_f_p_q_const__char_p_void__vo@ 000000018001b598     name.obj
 0002:000025c0       ??_C@_0DA@LKJNDOAC@void?5?$CI?$CK?$CJ?$CIchar?5const?5?$CK?0void?5?$CK?$CJ?$HMs@ 000000018001b5c0     name.obj
 0002:000025f0       ??_C@_0GC@HKCHLFJ@_p_f_p_q_const__char_r_q_const_@ 000000018001b5f0     name.obj
 0002:00002660       ??_C@_0GE@CDAMLIPA@h2ti_type_cb?5?$CK?$HMint?5?$CI?$CK?$CJ?$CIchar?5con@ 000000018001b660     name.obj
 0002:000026c8       ??_C@_0CB@PLKCNJF@_p_f_p_q_const__char_v_______in@ 000000018001b6c8     name.obj
 0002:000026f0       ??_C@_0CG@EHKOJEHN@int?5?$CI?$CK?$CJ?$CIchar?5const?5?$CK?0?4?4?4?$CJ?$HMprint@ 000000018001b6f0     name.obj
 0002:00002718       ??_C@_0CB@PPFKEDBB@_p_f_p_void_int_va_list__ssize_@ 000000018001b718     name.obj
 0002:00002740       ??_C@_0CM@ODIKDJIA@ssize_t?5?$CI?$CK?$CJ?$CIvoid?5?$CK?0int?0va_list?$CJ@ 000000018001b740     name.obj
 0002:00002770       ??_C@_0CJ@KNMLBMOG@_p_f_r_q_const__insn_t_p_int_p_@ 000000018001b770     name.obj
 0002:000027a0       ??_C@_0DI@CGFAFNOI@bool?5?$CI?$CK?$CJ?$CIinsn_t?5const?5?$CG?0int?5?$CK?0i@ 000000018001b7a0     name.obj
 0002:000027e0       ??_C@_0FA@JJBGCIIH@_p_f_r_q_const__insn_t_r_q_cons@ 000000018001b7e0     name.obj
 0002:00002830       ??_C@_0FE@IBKJNBMI@bool?5?$CI?$CK?$CJ?$CIinsn_t?5const?5?$CG?0op_t?5co@ 000000018001b830     name.obj
 0002:00002888       ??_C@_0BI@PGCOIKGG@_p_f_unsigned_int__bool@ 000000018001b888     name.obj
 0002:000028a0       ??_C@_0DN@OGOBIPP@bool?5?$CI?$CK?$CJ?$CIunsigned?5int?$CJ?$HMhas_dela@ 000000018001b8a0     name.obj
 0002:000028e0       ??_C@_0DL@FFEHDPON@_p_f_unsigned_int_p_q_const__ch@ 000000018001b8e0     name.obj
 0002:00002920       ??_C@_0EK@MACPDLHN@int?5?$CI?$CK?$CJ?$CIunsigned?5int?0char?5const@ 000000018001b920     name.obj
 0002:00002970       ??_C@_0BP@HNIFGGKH@_p_f_unsigned_int_p_void__bool@ 000000018001b970     name.obj
 0002:00002990       ??_C@_0CI@PMEGIBIK@testf_t?5?$CK?$HMbool?5?$CI?$CK?$CJ?$CIunsigned?5int@ 000000018001b990     name.obj
 0002:000029b8       ??_C@_0DB@CEAPILAH@_p_f_unsigned_int_r_q_const__ti@ 000000018001b9b8     name.obj
 0002:000029f0       ??_C@_0EH@MLDNCCKC@local_tinfo_predicate_t?5?$CK?$HMint?5?$CI@ 000000018001b9f0     name.obj
 0002:00002a38       ??_C@_0CN@BPIIPJKN@_p_f_unsigned_int_unsigned_int_@ 000000018001ba38     name.obj
 0002:00002a68       ??_C@_0DO@CKIBBIPB@unsigned?5int?5?$CI?$CK?$CJ?$CIunsigned?5int?0u@ 000000018001ba68     name.obj
 0002:00002aa8       ??_C@_09LIGEMJOA@_p_func_t@ 000000018001baa8     name.obj
 0002:00002ab8       ??_C@_08IOOOCDNO@func_t?5?$CK@ 000000018001bab8     name.obj
 0002:00002ac4       ??_C@_06EJFLAOFF@_p_int@   000000018001bac4     name.obj
 0002:00002ad0       ??_C@_0JK@KEGAPOFN@adiff_t?5?$CK?$HMint?5?$CK?$HMint32?5?$CK?$HMsval_t?5@ 000000018001bad0     name.obj
 0002:00002b70       ??_C@_0M@CFMLOKJJ@_p_iterator@ 000000018001bb70     name.obj
 0002:00002b80       ??_C@_0L@IIMCJLIP@iterator?5?$CK@ 000000018001bb80     name.obj
 0002:00002b90       ??_C@_0O@HDLJBJJF@_p_location_t@ 000000018001bb90     name.obj
 0002:00002ba0       ??_C@_0N@ONMECIKA@location_t?5?$CK@ 000000018001bba0     name.obj
 0002:00002bb0       ??_C@_0N@HIKGEFDH@_p_long_long@ 000000018001bbb0     name.obj
 0002:00002bc0       ??_C@_0BP@FECEFBLL@int64?5?$CK?$HMlonglong?5?$CK?$HMlong?5long?5?$CK@ 000000018001bbc0     name.obj
 0002:00002be0       ??_C@_0CJ@KBPLCHCN@_p_qvectorT__qstringT_unsigned_@ 000000018001bbe0     name.obj
 0002:00002c10       ??_C@_0DF@GOALPBDM@qvector?$DM?5_qstring?$DM?5unsigned?5sho@ 000000018001bc10     name.obj
 0002:00002c48       ??_C@_0BH@EHIHPDFP@_p_qvectorT_argloc_t_t@ 000000018001bc48     name.obj
 0002:00002c60       ??_C@_0CC@PMMGEEHP@qvector?$DM?5argloc_t?5?$DO?5?$CK?$HMarglocs_t@ 000000018001bc60     name.obj
 0002:00002c88       ??_C@_0BD@IFPOLGLB@_p_qvectorT_bool_t@ 000000018001bc88     name.obj
 0002:00002ca0       ??_C@_0BO@JEOEHDBE@boolvec_t?5?$CK?$HMqvector?$DM?5bool?5?$DO?5?$CK@ 000000018001bca0     name.obj
 0002:00002cc0       ??_C@_0BO@BMBALGLA@_p_qvectorT_channel_redir_t_t@ 000000018001bcc0     name.obj
 0002:00002ce0       ??_C@_0DA@DFOFPPPA@qvector?$DM?5channel_redir_t?5?$DO?5?$CK?$HMch@ 000000018001bce0     name.obj
 0002:00002d10       ??_C@_0CA@KLOIFAIM@_p_qvectorT_compiled_binpat_t_t@ 000000018001bd10     name.obj
 0002:00002d30       ??_C@_0DH@JJMOBCIB@compiled_binpat_vec_t?5?$CK?$HMqvector@ 000000018001bd30     name.obj
 0002:00002d68       ??_C@_0BI@MEGONGBE@_p_qvectorT_ea_name_t_t@ 000000018001bd68     name.obj
 0002:00002d80       ??_C@_0CH@BJLCLFNJ@ea_name_vec_t?5?$CK?$HMqvector?$DM?5ea_nam@ 000000018001bd80     name.obj
 0002:00002da8       ??_C@_0BI@HPPPANA@_p_qvectorT_funcarg_t_t@ 000000018001bda8     name.obj
 0002:00002dc0       ??_C@_0CG@BKJABKPP@funcargvec_t?5?$CK?$HMqvector?$DM?5funcarg@ 000000018001bdc0     name.obj
 0002:00002de8       ??_C@_0BC@EMAMHDDK@_p_qvectorT_int_t@ 000000018001bde8     name.obj
 0002:00002e00       ??_C@_0CI@OEOLBAGE@svalvec_t?5?$CK?$HMintvec_t?5?$CK?$HMqvector?$DM@ 000000018001be00     name.obj
 0002:00002e28       ??_C@_0BG@NGNJJEPD@_p_qvectorT_range_t_t@ 000000018001be28     name.obj
 0002:00002e40       ??_C@_0CH@CMPFLCHN@rangevec_base_t?5?$CK?$HMqvector?$DM?5rang@ 000000018001be40     name.obj
 0002:00002e68       ??_C@_0CB@DLEFICAI@_p_qvectorT_rangeset_t_const_p_@ 000000018001be68     name.obj
 0002:00002e90       ??_C@_0DF@CPGECBJE@rangeset_crefvec_t?5?$CK?$HMqvector?$DM?5r@ 000000018001be90     name.obj
 0002:00002ec8       ??_C@_0BJ@CBEEABAG@_p_qvectorT_rangeset_t_t@ 000000018001bec8     name.obj
 0002:00002ee8       ??_C@_0CN@NEPIOIFG@qvector?$DM?5rangeset_t?5?$DO?5?$CK?$HMarray_o@ 000000018001bee8     name.obj
 0002:00002f18       ??_C@_0BN@HCIAELAH@_p_qvectorT_refinfo_desc_t_t@ 000000018001bf18     name.obj
 0002:00002f38       ??_C@_0DB@OEPGJFJL@refinfo_desc_vec_t?5?$CK?$HMqvector?$DM?5r@ 000000018001bf38     name.obj
 0002:00002f70       ??_C@_0BK@JBDFAIAF@_p_qvectorT_simd_info_t_t@ 000000018001bf70     name.obj
 0002:00002f90       ??_C@_0CL@IAEHADMA@simd_info_vec_t?5?$CK?$HMqvector?$DM?5simd@ 000000018001bf90     name.obj
 0002:00002fc0       ??_C@_0BL@JOHIOMBL@_p_qvectorT_simpleline_t_t@ 000000018001bfc0     name.obj
 0002:00002fe0       ??_C@_0CF@LMLHENLN@strvec_t?5?$CK?$HMqvector?$DM?5simpleline_@ 000000018001bfe0     name.obj
 0002:00003008       ??_C@_0BF@JMFCGENF@_p_qvectorT_size_t_t@ 000000018001c008     name.obj
 0002:00003020       ??_C@_0CA@PKGFIBKP@sizevec_t?5?$CK?$HMqvector?$DM?5size_t?5?$DO?5?$CK@ 000000018001c020     name.obj
 0002:00003040       ??_C@_0BG@GHPDGOHO@_p_qvectorT_tinfo_t_t@ 000000018001c040     name.obj
 0002:00003058       ??_C@_0CC@CEHAEEKI@tinfovec_t?5?$CK?$HMqvector?$DM?5tinfo_t?5?$DO@ 000000018001c058     name.obj
 0002:00003080       ??_C@_0BK@KGMCEJE@_p_qvectorT_type_attr_t_t@ 000000018001c080     name.obj
 0002:000030a0       ??_C@_0CI@PENEDOEG@type_attrs_t?5?$CK?$HMqvector?$DM?5type_at@ 000000018001c0a0     name.obj
 0002:000030c8       ??_C@_0BL@MFAEBBAF@_p_qvectorT_udt_member_t_t@ 000000018001c0c8     name.obj
 0002:000030e8       ??_C@_0CL@HFANAPIM@udtmembervec_t?5?$CK?$HMqvector?$DM?5udt_m@ 000000018001c0e8     name.obj
 0002:00003118       ??_C@_0BM@DFOCNGNJ@_p_qvectorT_unsigned_char_t@ 000000018001c118     name.obj
 0002:00003138       ??_C@_0CH@MCODNJGI@qvector?$DM?5unsigned?5char?5?$DO?5?$CK?$HMcomp@ 000000018001c138     name.obj
 0002:00003160       ??_C@_0M@BEMIELHM@_p_relobj_t@ 000000018001c160     name.obj
 0002:00003170       ??_C@_0N@OAHCDFLH@_p_bytevec_t@ 000000018001c170     name.obj
 0002:00003180       ??_C@_0BA@KOPDLMDG@_p_reloc_info_t@ 000000018001c180     name.obj
 0002:00003190       ??_C@_0BL@POPMPLM@_p_qvectorT_unsigned_int_t@ 000000018001c190     name.obj
 0002:000031b0       ??_C@_0DL@HDEADPMO@eavec_t?5?$CK?$HMordvec_t?5?$CK?$HMuvalvec_t?5@ 000000018001c1b0     name.obj
 0002:000031f0       ??_C@_08JGEHMJEC@_p_short@ 000000018001c1f0     name.obj
 0002:00003200       ??_C@_0BA@BBDCPKKI@int16?5?$CK?$HMshort?5?$CK@ 000000018001c200     name.obj
 0002:00003210       ??_C@_0P@IHEJCACJ@_p_signed_char@ 000000018001c210     name.obj
 0002:00003220       ??_C@_0BG@CGJIOBCI@signed?5char?5?$CK?$HMsint8?5?$CK@ 000000018001c220     name.obj
 0002:00003238       ??_C@_0BB@JEMKPEPB@_p_unsigned_char@ 000000018001c238     name.obj
 0002:00003250       ??_C@_0HI@NBHOBBOJ@uchar?5?$CK?$HMunsigned?5char?5?$CK?$HMcm_t?5?$CK?$HM@ 000000018001c250     name.obj
 0002:000032c8       ??_C@_0BA@EMEBBPFL@_p_unsigned_int@ 000000018001c2c8     name.obj
 0002:000032e0       ??_C@_0JE@GCFOGLMK@bgcolor_t?5?$CK?$HMenum_t?5?$CK?$HMtid_t?5?$CK?$HMbm@ 000000018001c2e0     name.obj
 0002:00003378       ??_C@_0BG@CGEDOPGF@_p_unsigned_long_long@ 000000018001c378     name.obj
 0002:00003390       ??_C@_0CK@FCLCDGJM@uint64?5?$CK?$HMulonglong?5?$CK?$HMunsigned?5l@ 000000018001c390     name.obj
 0002:000033c0       ??_C@_0BC@GCHEMBCE@_p_unsigned_short@ 000000018001c3c0     name.obj
 0002:000033d8       ??_C@_0CP@HNCAPCKA@uint16?5?$CK?$HMunsigned?5short?5?$CK?$HMushor@ 000000018001c3d8     name.obj
 0002:00003408       ??_C@_0O@KPNNNNNL@_p_value_type@ 000000018001c408     name.obj
 0002:00003418       ??_C@_0N@BPDHJAOG@value_type?5?$CK@ 000000018001c418     name.obj
 0002:00003428       ??_C@_03BHDOPPEK@own@      000000018001c428     name.obj
 0002:0000342c       ??_C@_06EFGGFDFD@disown@   000000018001c42c     name.obj
 0002:00003438       ??_C@_0CC@CFIMIIPD@releases?5ownership?5of?5the?5point@ 000000018001c438     name.obj
 0002:00003460       ??_C@_07MEFPPMEF@acquire@  000000018001c460     name.obj
 0002:00003468       ??_C@_0CC@BAIBAPCI@acquires?5ownership?5of?5the?5point@ 000000018001c468     name.obj
 0002:00003490       ??_C@_0CG@GKPKGEFE@returns?1sets?5ownership?5of?5the?5p@ 000000018001c490     name.obj
 0002:000034b8       ??_C@_06PCICMFGG@append@   000000018001c4b8     name.obj
 0002:000034c0       ??_C@_0BO@NCOOMDHM@appends?5another?5?8this?8?5object@ 000000018001c4c0     name.obj
 0002:000034e0       ??_C@_04CJGEDOF@next@      000000018001c4e0     name.obj
 0002:000034e8       ??_C@_0BP@IMIAEPNG@returns?5the?5next?5?8this?8?5object@ 000000018001c4e8     name.obj
 0002:00003508       ??_C@_08HJPCHLLJ@__repr__@ 000000018001c508     name.obj
 0002:00003518       ??_C@_0BO@PNCCHPAD@returns?5object?5representation@ 000000018001c518     name.obj
 0002:00003538       ??_C@_07HDHHMDOH@_p_char@  000000018001c538     name.obj
 0002:00003540       ??_C@_0BC@NJIHACLJ@new_ea_name_vec_t@ 000000018001c540     name.obj
 0002:00003558       ??_C@_0BI@ODPCDDN@ea_name_vec_t_push_back@ 000000018001c558     name.obj
 0002:00003570       ??_C@_0BB@HGGPGBJG@ea_name_vec_t_at@ 000000018001c570     name.obj
 0002:00003588       ??_C@_0BF@KNDBLLJB@ea_name_vec_t_resize@ 000000018001c588     name.obj
 0002:000035a0       ??_C@_0BD@JEHAMDGN@ea_name_vec_t_grow@ 000000018001c5a0     name.obj
 0002:000035b8       ??_C@_0BG@IBALNFEM@ea_name_vec_t_reserve@ 000000018001c5b8     name.obj
 0002:000035d0       ??_C@_0BD@HDBBLJNA@ea_name_vec_t_swap@ 000000018001c5d0     name.obj
 0002:000035e8       ??_C@_0BF@MFCHHCMC@ea_name_vec_t_inject@ 000000018001c5e8     name.obj
 0002:00003600       ??_C@_0BE@JJOIFHLL@ea_name_vec_t_begin@ 000000018001c600     name.obj
 0002:00003618       ??_C@_0BC@IGFIEGEC@ea_name_vec_t_end@ 000000018001c618     name.obj
 0002:00003630       ??_C@_0BF@LFDDEOHG@ea_name_vec_t_insert@ 000000018001c630     name.obj
 0002:00003648       ??_C@_0BE@IBADIMCA@ea_name_vec_t_erase@ 000000018001c648     name.obj
 0002:00003660       ??_C@_0BK@BMPLFJFE@ea_name_vec_t___getitem__@ 000000018001c660     name.obj
 0002:00003680       ??_C@_0BK@DCLOHIMG@ea_name_vec_t___setitem__@ 000000018001c680     name.obj
 0002:000036a0       ??_C@_08FADBGKFP@set_name@ 000000018001c6a0     name.obj
 0002:000036b0       ??_C@_0L@FFIPEGCF@force_name@ 000000018001c6b0     name.obj
 0002:000036c0       ??_C@_0P@GMELLHBI@set_dummy_name@ 000000018001c6c0     name.obj
 0002:000036d0       ??_C@_0M@HIGJCGLB@is_valid_cp@ 000000018001c6d0     name.obj
 0002:000036e0       ??_C@_0BA@NLBHKOLD@set_cp_validity@ 000000018001c6e0     name.obj
 0002:000036f0       ??_C@_0N@GEEAEPF@is_strlit_cp@ 000000018001c6f0     name.obj
 0002:00004550       ??_C@_0BO@CMHFAAKD@?$CFS?6Additional?5information?3?6?$CFs@ 000000018001d550     name.obj
 0002:0000456e       ??_C@_00CNPNBAHC@@         000000018001d56e     name.obj
 0002:00004570       ??_C@_09HJOCAFJB@at?5least?5@ 000000018001d570     name.obj
 0002:00004580       ??_C@_0CF@KFFOGCID@?$CFs?5expected?5?$CFs?$CFd?5arguments?0?5got@ 000000018001d580     name.obj
 0002:000045a8       ??_C@_0CL@NPJGKHAI@UnpackTuple?$CI?$CJ?5argument?5list?5is?5@ 000000018001d5a8     name.obj
 0002:000045d8       ??_C@_0CD@DMIOPJCG@?$CFs?5expected?5?$CFs?$CFd?5arguments?0?5got@ 000000018001d5d8     name.obj
 0002:00004600       ??_C@_08KFLHMPAE@at?5most?5@ 000000018001d600     name.obj
 0002:00004610       ??_C@_07MEBHOIG@__new__@   000000018001d610     name.obj
 0002:00004618       ??_C@_0BB@LPCDDCDP@__swig_destroy__@ 000000018001d618     name.obj
 0002:00004630       ??_C@_07CIFAGBMG@unknown@  000000018001d630     name.obj
 0002:00004638       ??_C@_0CB@HIOLGNHE@?$DMSwig?5Object?5of?5type?5?8?$CFs?8?5at?5?$CFp@ 000000018001d638     name.obj
 0002:00004660       ??_C@_08BHKDPDAA@__name__@ 000000018001d660     name.obj
 0002:00004670       ??_C@_0N@OEDBPMFH@SwigPyObject@ 000000018001d670     name.obj
 0002:00004680       ??_C@_0EH@KGGHIIII@swig?1python?5detected?5a?5memory?5l@ 000000018001d680     name.obj
 0002:000046c8       ??_C@_0CF@NBDOMJMA@Attempt?5to?5append?5a?5non?5SwigPyO@ 000000018001d6c8     name.obj
 0002:000046f0       ??_C@_0BG@BEMBDPAG@?$DMSwig?5Packed?5at?5?$CFs?$CFs?$DO@ 000000018001d6f0     name.obj
 0002:00004708       ??_C@_0BB@KEMDDLH@?$DMSwig?5Packed?5?$CFs?$DO@ 000000018001d708     name.obj
 0002:0000471c       ??_C@_04HDOCAJNK@?$CFs?$CFs@ 000000018001d71c     name.obj
 0002:00004728       ??_C@_0N@FALDBJHP@SwigPyPacked@ 000000018001d728     name.obj
 0002:00004738       ??_C@_04IIAJELJL@this@     000000018001d738     name.obj
 0002:00004740       ??_C@_0L@GCGAIEDO@swig_ptr?3?5@ 000000018001d740     name.obj
 0002:00004750       ??_C@_08IBFKALI@__dict__@  000000018001d750     name.obj
 0002:00004760       ??_C@_08DOBMGDEN@swiginit@ 000000018001d760     name.obj
 0002:00004770       ??_C@_0CO@FOLKHJOC@swig_runtime_data4?4type_pointer@ 000000018001d770     name.obj
 0002:000047a0       ??_C@_0BD@BFIMCAOH@swig_runtime_data4@ 000000018001d7a0     name.obj
 0002:000047b8       ??_C@_0BL@LFDLKGPB@type_pointer_capsuleidaapi@ 000000018001d7b8     name.obj
 0002:000047e0       ??_7exception@std@@6B@     000000018001d7e0     name.obj
 0002:000047f0       ??_C@_0BC@EOODALEL@Unknown?5exception@ 000000018001d7f0     name.obj
 0002:00004810       ??_7logic_error@std@@6B@   000000018001d810     name.obj
 0002:00004828       ??_7out_of_range@std@@6B@  000000018001d828     name.obj
 0002:00004838       ??_C@_0BK@NPFFDHAP@Out?5of?5memory?5?$CIbad_alloc?$CJ@ 000000018001d838     name.obj
 0002:00004860       ??_C@_0BCP@OKJACFO@Internal?5error?5?$CFd?5occurred?5when@ 000000018001d860     name.obj
 0002:00004990       ??_C@_0DB@OCJMLGAO@Function?5can?5be?5called?5from?5the@ 000000018001d990     name.obj
 0002:000049c8       ??_C@_0BF@NPFMAGNK@out?5of?5bounds?5access@ 000000018001d9c8     name.obj
 0002:000049e0       ??_C@_0BA@GMJLDMKP@surrogateescape@ 000000018001d9e0     name.obj
 0002:000049f0       ??_C@_02MCILKGOH@?$HL?$HN@ 000000018001d9f0     name.obj
 0002:000049f4       ??_C@_01KNKLHLMO@K@        000000018001d9f4     name.obj
 0002:00004a00       ??_C@_0FB@JFJFKGIN@in?5method?5?8new_ea_name_vec_t?8?0?5@ 000000018001da00     name.obj
 0002:00004a60       ??_C@_0GI@IIEGLMGL@invalid?5null?5reference?5in?5metho@ 000000018001da60     name.obj
 0002:00004ad0       ??_C@_0NF@LGBGJNDI@Wrong?5number?5or?5type?5of?5argumen@ 000000018001dad0     name.obj
 0002:00004bb0       ??_C@_0EO@LPGIMBFI@in?5method?5?8delete_ea_name_vec_t@ 000000018001dbb0     name.obj
 0002:00004c00       ??_C@_0FB@KDGDMIOI@in?5method?5?8ea_name_vec_t_push_b@ 000000018001dc00     name.obj
 0002:00004c60       ??_C@_0EM@POFHJFDP@in?5method?5?8ea_name_vec_t_push_b@ 000000018001dc60     name.obj
 0002:00004cb0       ??_C@_0GD@PKLDKMIF@invalid?5null?5reference?5in?5metho@ 000000018001dcb0     name.obj
 0002:00004d20       ??_C@_0NE@FMEPFHFH@Wrong?5number?5or?5type?5of?5argumen@ 000000018001dd20     name.obj
 0002:00004e00       ??_C@_0FA@IAMKICLO@in?5method?5?8ea_name_vec_t_pop_ba@ 000000018001de00     name.obj
 0002:00004e50       ??_C@_0FC@PANKOKP@in?5method?5?8ea_name_vec_t_size?8?0@ 000000018001de50     name.obj
 0002:00004eb0       ??_C@_0FD@POONHMNP@in?5method?5?8ea_name_vec_t_empty?8@ 000000018001deb0     name.obj
 0002:00004f10       ??_C@_0FA@IGKKEELL@in?5method?5?8ea_name_vec_t_at?8?0?5a@ 000000018001df10     name.obj
 0002:00004f60       ??_C@_0DK@NOKOLCLO@in?5method?5?8ea_name_vec_t_at?8?0?5a@ 000000018001df60     name.obj
 0002:00004fa0       ??_C@_0EO@PPGANDDG@in?5method?5?8ea_name_vec_t_qclear@ 000000018001dfa0     name.obj
 0002:00004ff0       ??_C@_0EN@IDKMDLFK@in?5method?5?8ea_name_vec_t_clear?8@ 000000018001dff0     name.obj
 0002:00005040       ??_C@_0EO@BDJOGJMO@in?5method?5?8ea_name_vec_t_resize@ 000000018001e040     name.obj
 0002:00005090       ??_C@_0DO@MLPBAMGI@in?5method?5?8ea_name_vec_t_resize@ 000000018001e090     name.obj
 0002:000050d0       ??_C@_0EJ@HIMEAMIO@in?5method?5?8ea_name_vec_t_resize@ 000000018001e0d0     name.obj
 0002:00005120       ??_C@_0GA@NLNDPFOA@invalid?5null?5reference?5in?5metho@ 000000018001e120     name.obj
 0002:00005180       ??_C@_0NI@MDFJBGAF@Wrong?5number?5or?5type?5of?5argumen@ 000000018001e180     name.obj
 0002:00005260       ??_C@_0EM@PDMCHJGA@in?5method?5?8ea_name_vec_t_grow?8?0@ 000000018001e260     name.obj
 0002:000052b0       ??_C@_0EH@CGCDLANL@in?5method?5?8ea_name_vec_t_grow?8?0@ 000000018001e2b0     name.obj
 0002:00005300       ??_C@_0FO@OAEILPE@invalid?5null?5reference?5in?5metho@ 000000018001e300     name.obj
 0002:00005360       ??_C@_0FG@DDMKBAE@in?5method?5?8ea_name_vec_t_capaci@ 000000018001e360     name.obj
 0002:000053c0       ??_C@_0EP@EFMJBECF@in?5method?5?8ea_name_vec_t_reserv@ 000000018001e3c0     name.obj
 0002:00005410       ??_C@_0DP@ILAKDLPG@in?5method?5?8ea_name_vec_t_reserv@ 000000018001e410     name.obj
 0002:00005450       ??_C@_0FA@KCLJJIIK@in?5method?5?8ea_name_vec_t_trunca@ 000000018001e450     name.obj
 0002:000054a0       ??_C@_0EM@FIJMLEB@in?5method?5?8ea_name_vec_t_swap?8?0@ 000000018001e4a0     name.obj
 0002:000054f0       ??_C@_0EM@IHEAAMDM@in?5method?5?8ea_name_vec_t_swap?8?0@ 000000018001e4f0     name.obj
 0002:00005540       ??_C@_0GD@IDKEDFIG@invalid?5null?5reference?5in?5metho@ 000000018001e540     name.obj
 0002:000055b0       ??_C@_0EP@GDNHOCAO@in?5method?5?8ea_name_vec_t_extrac@ 000000018001e5b0     name.obj
 0002:00005600       ??_C@_0EO@ELHDLHDM@in?5method?5?8ea_name_vec_t_inject@ 000000018001e600     name.obj
 0002:00005650       ??_C@_0ED@NCADBJAK@in?5method?5?8ea_name_vec_t_inject@ 000000018001e650     name.obj
 0002:00005698       ??_C@_0DO@KELMMIDH@in?5method?5?8ea_name_vec_t_inject@ 000000018001e698     name.obj
 0002:000056e0       ??_C@_0EN@BICNPNDH@in?5method?5?8ea_name_vec_t_begin?8@ 000000018001e6e0     name.obj
 0002:00005730       ??_C@_0EL@EKKNOHJF@in?5method?5?8ea_name_vec_t_end?8?0?5@ 000000018001e730     name.obj
 0002:00005780       ??_C@_0FD@HELPJKGD@in?5method?5?8ea_name_vec_t_begin?8@ 000000018001e780     name.obj
 0002:000057e0       ??_C@_0LN@KNHNHOFE@Wrong?5number?5or?5type?5of?5argumen@ 000000018001e7e0     name.obj
 0002:000058a0       ??_C@_0FB@IIFKOJEA@in?5method?5?8ea_name_vec_t_end?8?0?5@ 000000018001e8a0     name.obj
 0002:00005900       ??_C@_0LH@GHHHGAAI@Wrong?5number?5or?5type?5of?5argumen@ 000000018001e900     name.obj
 0002:000059c0       ??_C@_0EO@GEBMDFOH@in?5method?5?8ea_name_vec_t_insert@ 000000018001e9c0     name.obj
 0002:00005a10       ??_C@_0FG@FMKNGFC@in?5method?5?8ea_name_vec_t_insert@ 000000018001ea10     name.obj
 0002:00005a70       ??_C@_0EJ@LLKCGBME@in?5method?5?8ea_name_vec_t_insert@ 000000018001ea70     name.obj
 0002:00005ac0       ??_C@_0GA@BILFJIKK@invalid?5null?5reference?5in?5metho@ 000000018001eac0     name.obj
 0002:00005b20       ??_C@_0EN@PCBEDKPB@in?5method?5?8ea_name_vec_t_erase?8@ 000000018001eb20     name.obj
 0002:00005b70       ??_C@_0FF@PLEDMOMK@in?5method?5?8ea_name_vec_t_erase?8@ 000000018001eb70     name.obj
 0002:00005bd0       ??_C@_0FF@LMFADIDB@in?5method?5?8ea_name_vec_t_erase?8@ 000000018001ebd0     name.obj
 0002:00005c30       ??_C@_0BBC@NKILHGKG@Wrong?5number?5or?5type?5of?5argumen@ 000000018001ec30     name.obj
 0002:00005d50       ??_C@_0FF@ECDLNNBH@in?5method?5?8ea_name_vec_t___len_@ 000000018001ed50     name.obj
 0002:00005db0       ??_C@_0FJ@GFIIKCNO@in?5method?5?8ea_name_vec_t___geti@ 000000018001edb0     name.obj
 0002:00005e10       ??_C@_0ED@GBNDJBFE@in?5method?5?8ea_name_vec_t___geti@ 000000018001ee10     name.obj
 0002:00005e60       ??_C@_0FD@MCHKCCMB@in?5method?5?8ea_name_vec_t___seti@ 000000018001ee60     name.obj
 0002:00005ec0       ??_C@_0ED@EFLFNBHF@in?5method?5?8ea_name_vec_t___seti@ 000000018001eec0     name.obj
 0002:00005f10       ??_C@_0EO@HCIGEEFI@in?5method?5?8ea_name_vec_t___seti@ 000000018001ef10     name.obj
 0002:00005f60       ??_C@_0GF@DDKJIOIG@invalid?5null?5reference?5in?5metho@ 000000018001ef60     name.obj
 0002:00005fc8       ??_C@_0N@JBELKAOG@swigregister@ 000000018001efc8     name.obj
 0002:00005fd8       ??_C@_0DA@DIBCEKDP@in?5method?5?8get_name?8?0?5argument?5@ 000000018001efd8     name.obj
 0002:00006008       ??_C@_0DI@CNEPCBBI@in?5method?5?8get_colored_name?8?0?5a@ 000000018001f008     name.obj
 0002:00006040       ??_C@_0DA@DEHNEADN@in?5method?5?8set_name?8?0?5argument?5@ 000000018001f040     name.obj
 0002:00006070       ??_C@_0DI@HNHACPGC@in?5method?5?8set_name?8?0?5argument?5@ 000000018001f070     name.obj
 0002:000060a8       ??_C@_0CP@JCOALKA@in?5method?5?8set_name?8?0?5argument?5@ 000000018001f0a8     name.obj
 0002:000060d8       ??_C@_0DC@DFENEGAM@in?5method?5?8force_name?8?0?5argumen@ 000000018001f0d8     name.obj
 0002:00006110       ??_C@_0DK@GONNGHKG@in?5method?5?8force_name?8?0?5argumen@ 000000018001f110     name.obj
 0002:00006150       ??_C@_0DB@OCFJDMOB@in?5method?5?8force_name?8?0?5argumen@ 000000018001f150     name.obj
 0002:00006188       ??_C@_0DH@EGLMGJEF@in?5method?5?8del_global_name?8?0?5ar@ 000000018001f188     name.obj
 0002:000061c0       ??_C@_0DG@GFGCGICO@in?5method?5?8del_local_name?8?0?5arg@ 000000018001f1c0     name.obj
 0002:000061f8       ??_C@_0DG@EFPKOJHP@in?5method?5?8set_dummy_name?8?0?5arg@ 000000018001f1f8     name.obj
 0002:00006230       ??_C@_0DG@BGGALCPL@in?5method?5?8set_dummy_name?8?0?5arg@ 000000018001f230     name.obj
 0002:00006268       ??_C@_0DG@JIKGPJNB@in?5method?5?8make_name_auto?8?0?5arg@ 000000018001f268     name.obj
 0002:000062a0       ??_C@_0DG@LGAIIGHK@in?5method?5?8make_name_user?8?0?5arg@ 000000018001f2a0     name.obj
 0002:000062d8       ??_C@_0DI@JMJJKLME@in?5method?5?8is_valid_cp?8?0?5argume@ 000000018001f2d8     name.obj
 0002:00006310       ??_C@_0DJ@NEHBHAJI@in?5method?5?8is_valid_cp?8?0?5argume@ 000000018001f310     name.obj
 0002:00006350       ??_C@_0DF@FCMLNEE@in?5method?5?8is_valid_cp?8?0?5argume@ 000000018001f350     name.obj
 0002:00006388       ??_C@_0DO@ECECDJFA@in?5method?5?8set_cp_validity?8?0?5ar@ 000000018001f388     name.obj
 0002:000063c8       ??_C@_0DM@DOPAOKJJ@in?5method?5?8set_cp_validity?8?0?5ar@ 000000018001f3c8     name.obj
 0002:00006408       ??_C@_0DM@CJNIIOFJ@in?5method?5?8set_cp_validity?8?0?5ar@ 000000018001f408     name.obj
 0002:00006448       ??_C@_0DH@JKFACGGO@in?5method?5?8set_cp_validity?8?0?5ar@ 000000018001f448     name.obj
 0002:00006480       ??_C@_0DI@PLJKGOHJ@in?5method?5?8is_ident_cp?8?0?5argume@ 000000018001f480     name.obj
 0002:000064b8       ??_C@_0DJ@LFMBJFBO@in?5method?5?8is_strlit_cp?8?0?5argum@ 000000018001f4b8     name.obj
 0002:00006500       ??_C@_0EK@NKGKCLHC@in?5method?5?8is_strlit_cp?8?0?5argum@ 000000018001f500     name.obj
 0002:00006550       ??_C@_0DK@ELKKOJLE@in?5method?5?8is_visible_cp?8?0?5argu@ 000000018001f550     name.obj
 0002:00006590       ??_C@_0DI@IJFKDDGF@in?5method?5?8is_ident?8?0?5argument?5@ 000000018001f590     name.obj
 0002:000065c8       ??_C@_0DI@GHIEJNGD@in?5method?5?8is_uname?8?0?5argument?5@ 000000018001f5c8     name.obj
 0002:00006600       ??_C@_0EB@PJAPKGFM@in?5method?5?8is_valid_typename?8?0?5@ 000000018001f600     name.obj
 0002:00006648       ??_C@_0DM@JMGMCNPE@in?5method?5?8extract_name?8?0?5argum@ 000000018001f648     name.obj
 0002:00006688       ??_C@_0DD@HEEHPNAK@in?5method?5?8extract_name?8?0?5argum@ 000000018001f688     name.obj
 0002:000066c0       ??_C@_0DB@DDGDDJGC@in?5method?5?8hide_name?8?0?5argument@ 000000018001f6c0     name.obj
 0002:000066f8       ??_C@_0DB@ODFPIAKL@in?5method?5?8show_name?8?0?5argument@ 000000018001f6f8     name.obj
 0002:00006730       ??_C@_0DD@FNCFCOMG@in?5method?5?8get_name_ea?8?0?5argume@ 000000018001f730     name.obj
 0002:00006768       ??_C@_0DL@HAAHIPGA@in?5method?5?8get_name_ea?8?0?5argume@ 000000018001f768     name.obj
 0002:000067a8       ??_C@_0DI@BPCPCPBK@in?5method?5?8get_name_base_ea?8?0?5a@ 000000018001f7a8     name.obj
 0002:000067e0       ??_C@_0DI@EMLFHEJO@in?5method?5?8get_name_base_ea?8?0?5a@ 000000018001f7e0     name.obj
 0002:00006818       ??_C@_0DG@LELPGGJJ@in?5method?5?8get_name_value?8?0?5arg@ 000000018001f818     name.obj
 0002:00006850       ??_C@_0DO@ICLKODMC@in?5method?5?8get_name_value?8?0?5arg@ 000000018001f850     name.obj
 0002:00006890       ??_C@_0DI@BHGNEEDE@in?5method?5?8get_visible_name?8?0?5a@ 000000018001f890     name.obj
 0002:000068c8       ??_C@_0DH@GOCFCMMG@in?5method?5?8get_visible_name?8?0?5a@ 000000018001f8c8     name.obj
 0002:00006900       ??_C@_0DG@GHMPOBLF@in?5method?5?8get_short_name?8?0?5arg@ 000000018001f900     name.obj
 0002:00006938       ??_C@_0DF@KGHECCMD@in?5method?5?8get_short_name?8?0?5arg@ 000000018001f938     name.obj
 0002:00006970       ??_C@_0DF@BJAANMLD@in?5method?5?8get_long_name?8?0?5argu@ 000000018001f970     name.obj
 0002:000069a8       ??_C@_0DE@NIDFJJMO@in?5method?5?8get_long_name?8?0?5argu@ 000000018001f9a8     name.obj
 0002:000069e0       ??_C@_0DO@LAAOCEID@in?5method?5?8get_colored_short_na@ 000000018001f9e0     name.obj
 0002:00006a20       ??_C@_0DN@GKGDPKCC@in?5method?5?8get_colored_short_na@ 000000018001fa20     name.obj
 0002:00006a60       ??_C@_0DN@NFBHAEFC@in?5method?5?8get_colored_long_nam@ 000000018001fa60     name.obj
 0002:00006aa0       ??_C@_0DM@MDJKONHK@in?5method?5?8get_colored_long_nam@ 000000018001faa0     name.obj
 0002:00006ae0       ??_C@_0DK@DAIMMGON@in?5method?5?8get_demangled_name?8?0@ 000000018001fae0     name.obj
 0002:00006b20       ??_C@_0DL@HCABLKKP@in?5method?5?8get_demangled_name?8?0@ 000000018001fb20     name.obj
 0002:00006b60       ??_C@_0DJ@CDIOMOCG@in?5method?5?8get_demangled_name?8?0@ 000000018001fb60     name.obj
 0002:00006ba0       ??_C@_0DJ@NOHHDGFD@in?5method?5?8get_demangled_name?8?0@ 000000018001fba0     name.obj
 0002:00006be0       ??_C@_0EC@LIPOJEED@in?5method?5?8get_colored_demangle@ 000000018001fbe0     name.obj
 0002:00006c30       ??_C@_0ED@EDOHEGBC@in?5method?5?8get_colored_demangle@ 000000018001fc30     name.obj
 0002:00006c80       ??_C@_0EB@FJIGIGPO@in?5method?5?8get_colored_demangle@ 000000018001fc80     name.obj
 0002:00006cd0       ??_C@_0EB@KEHPHOIL@in?5method?5?8get_colored_demangle@ 000000018001fcd0     name.obj
 0002:00006d18       ??_C@_0DG@OPJCFNKD@in?5method?5?8get_name_color?8?0?5arg@ 000000018001fd18     name.obj
 0002:00006d50       ??_C@_0DG@LMAIAGCH@in?5method?5?8get_name_color?8?0?5arg@ 000000018001fd50     name.obj
 0002:00006d88       ??_C@_0DF@JDKBIBMP@in?5method?5?8get_name_expr?8?0?5argu@ 000000018001fd88     name.obj
 0002:00006dc0       ??_C@_0DE@JLABCMLG@in?5method?5?8get_name_expr?8?0?5argu@ 000000018001fdc0     name.obj
 0002:00006df8       ??_C@_0DF@DEJFDGMH@in?5method?5?8get_name_expr?8?0?5argu@ 000000018001fdf8     name.obj
 0002:00006e30       ??_C@_0DH@LHHLDLC@in?5method?5?8get_name_expr?8?0?5argu@ 000000018001fe30     name.obj
 0002:00006e68       ??_C@_0DE@OBFIPBKA@in?5method?5?8get_name_expr?8?0?5argu@ 000000018001fe68     name.obj
 0002:00006ea0       ??_C@_0DN@ECHMDHGK@in?5method?5?8get_nice_colored_nam@ 000000018001fea0     name.obj
 0002:00006ee0       ??_C@_0DM@PNNAHIBC@in?5method?5?8get_nice_colored_nam@ 000000018001fee0     name.obj
 0002:00006f20       ??_C@_0DP@HKEHLJFH@in?5method?5?8append_struct_fields@ 000000018001ff20     name.obj
 0002:00006f60       ??_C@_0DL@DHNKOHPD@in?5method?5?8append_struct_fields@ 000000018001ff60     name.obj
 0002:00006fa0       ??_C@_0BF@JLKOMHPI@Expecting?5a?5sequence@ 000000018001ffa0     name.obj
 0002:00006fb8       ??_C@_0CD@PIAPPPG@Sequence?5must?5have?5at?5least?51?5i@ 000000018001ffb8     name.obj
 0002:00006fe0       ??_C@_0CG@EFOGGKIJ@Expecting?5a?5sequence?5of?5long?5in@ 000000018001ffe0     name.obj
 0002:00007008       ??_C@_0DP@NDJNKBEC@in?5method?5?8append_struct_fields@ 0000000180020008     name.obj
 0002:00007048       ??_C@_0DP@FBMNGJEI@in?5method?5?8append_struct_fields@ 0000000180020048     name.obj
 0002:00007088       ??_C@_0DM@OHLMLEPC@in?5method?5?8append_struct_fields@ 0000000180020088     name.obj
 0002:000070c8       ??_C@_0DG@DJCMLNEO@in?5method?5?8is_public_name?8?0?5arg@ 00000001800200c8     name.obj
 0002:00007100       ??_C@_0DI@CPCNEFNJ@in?5method?5?8make_name_public?8?0?5a@ 0000000180020100     name.obj
 0002:00007138       ??_C@_0DM@OJIOHLPP@in?5method?5?8make_name_non_public@ 0000000180020138     name.obj
 0002:00007178       ??_C@_0DE@LCIOEJE@in?5method?5?8is_weak_name?8?0?5argum@ 0000000180020178     name.obj
 0002:000071b0       ??_C@_0DG@MAJOLMAF@in?5method?5?8make_name_weak?8?0?5arg@ 00000001800201b0     name.obj
 0002:000071e8       ??_C@_0DK@CNBBMKKM@in?5method?5?8make_name_non_weak?8?0@ 00000001800201e8     name.obj
 0002:00007228       ??_C@_0DF@FJDDCAHJ@in?5method?5?8get_nlist_idx?8?0?5argu@ 0000000180020228     name.obj
 0002:00007260       ??_C@_0DD@JPENCCOG@in?5method?5?8is_in_nlist?8?0?5argume@ 0000000180020260     name.obj
 0002:00007298       ??_C@_0DG@OMMPELBJ@in?5method?5?8get_nlist_ea?8?0?5argum@ 0000000180020298     name.obj
 0002:000072d0       ??_C@_0DI@ECLPLCAD@in?5method?5?8get_nlist_name?8?0?5arg@ 00000001800202d0     name.obj
 0002:00007308       ??_C@_0DP@NKMCEOEK@in?5method?5?8ea_name_t_ea_set?8?0?5a@ 0000000180020308     name.obj
 0002:00007348       ??_C@_0DI@MAPJBAOA@in?5method?5?8ea_name_t_ea_set?8?0?5a@ 0000000180020348     name.obj
 0002:00007380       ??_C@_0DP@ICBMJLJ@in?5method?5?8ea_name_t_ea_get?8?0?5a@ 0000000180020380     name.obj
 0002:000073c0       ??_C@_0EB@BNAEFODF@in?5method?5?8ea_name_t_name_set?8?0@ 00000001800203c0     name.obj
 0002:00007410       ??_C@_0EJ@KFMAPFEB@Expected?5string?5in?5method?5?8ea_n@ 0000000180020410     name.obj
 0002:00007460       ??_C@_0EB@MPOHNJMG@in?5method?5?8ea_name_t_name_get?8?0@ 0000000180020460     name.obj
 0002:000074a8       ??_C@_0DF@HJBCLNBD@in?5method?5?8new_ea_name_t?8?0?5argu@ 00000001800204a8     name.obj
 0002:000074e0       ??_C@_0EE@LBJHNLKJ@Expected?5string?5in?5method?5?8new_@ 00000001800204e0     name.obj
 0002:00007530       ??_C@_0LH@GIIBLHAP@Wrong?5number?5or?5type?5of?5argumen@ 0000000180020530     name.obj
 0002:000075e8       ??_C@_0DP@KPBEPEJK@in?5method?5?8delete_ea_name_t?8?0?5a@ 00000001800205e8     name.obj
 0002:00007628       ??_C@_0DG@MAFFJCPM@in?5method?5?8set_debug_name?8?0?5arg@ 0000000180020628     name.obj
 0002:00007660       ??_C@_0DO@KBGLALGB@in?5method?5?8set_debug_name?8?0?5arg@ 0000000180020660     name.obj
 0002:000076a0       ??_C@_0DG@POOIGOOD@in?5method?5?8get_debug_name?8?0?5arg@ 00000001800206a0     name.obj
 0002:000076e0       ??_C@_0EC@GIJHAKCG@in?5method?5?8get_debug_name?8?0?5arg@ 00000001800206e0     name.obj
 0002:00007728       ??_C@_0DH@CEHHFJJN@in?5method?5?8del_debug_names?8?0?5ar@ 0000000180020728     name.obj
 0002:00007760       ??_C@_0DH@HHONACBJ@in?5method?5?8del_debug_names?8?0?5ar@ 0000000180020760     name.obj
 0002:000077a0       ??_C@_0EB@LLNGOAHG@in?5method?5?8get_debug_name_ea?8?0?5@ 00000001800207a0     name.obj
 0002:000077f0       ??_C@_0EC@HBNHNHKP@in?5method?5?8get_debug_names?8?0?5ar@ 00000001800207f0     name.obj
 0002:00007838       ??_C@_0DH@BDDIBHGG@in?5method?5?8get_debug_names?8?0?5ar@ 0000000180020838     name.obj
 0002:00007870       ??_C@_0DH@JEJONMCF@in?5method?5?8get_debug_names?8?0?5ar@ 0000000180020870     name.obj
 0002:000078a8       ??_C@_0DN@KHPEFKDM@in?5method?5?8demangle_name?8?0?5argu@ 00000001800208a8     name.obj
 0002:000078e8       ??_C@_0DH@KKNBIGM@in?5method?5?8demangle_name?8?0?5argu@ 00000001800208e8     name.obj
 0002:00007920       ??_C@_0DO@KGHFCCNM@in?5method?5?8demangle_name?8?0?5argu@ 0000000180020920     name.obj
 0002:00007960       ??_C@_0CD@IHMAIFBG@Variable?5ignore_none?5is?5read?9on@ 0000000180020960     name.obj
 0002:00007988       ??_C@_0CF@COAAHLCH@Variable?5ignore_regvar?5is?5read?9@ 0000000180020988     name.obj
 0002:000079b0       ??_C@_0CF@EDONOHHI@Variable?5ignore_llabel?5is?5read?9@ 00000001800209b0     name.obj
 0002:000079d8       ??_C@_0CF@NELCHILN@Variable?5ignore_stkvar?5is?5read?9@ 00000001800209d8     name.obj
 0002:00007a00       ??_C@_0CF@BNABGMON@Variable?5ignore_glabel?5is?5read?9@ 0000000180020a00     name.obj
 0002:00007a30       ??_C@_0ED@HBGOIGNG@in?5method?5?8is_name_defined_loca@ 0000000180020a30     name.obj
 0002:00007a80       ??_C@_0EH@DOAILOBB@in?5method?5?8is_name_defined_loca@ 0000000180020a80     name.obj
 0002:00007ad0       ??_C@_0EM@NENFDNAL@in?5method?5?8is_name_defined_loca@ 0000000180020ad0     name.obj
 0002:00007b20       ??_C@_0DP@ILFFMJJF@in?5method?5?8is_name_defined_loca@ 0000000180020b20     name.obj
 0002:00007b60       ??_C@_0DP@MPDACNG@in?5method?5?8is_name_defined_loca@ 0000000180020b60     name.obj
 0002:00007ba0       ??_C@_0DE@KFPHEEIL@in?5method?5?8cleanup_name?8?0?5argum@ 0000000180020ba0     name.obj
 0002:00007bd8       ??_C@_0DM@FKINMLBC@in?5method?5?8cleanup_name?8?0?5argum@ 0000000180020bd8     name.obj
 0002:00007c18       ??_C@_0DG@JGDJICPK@in?5method?5?8cleanup_name?8?0?5argum@ 0000000180020c18     name.obj
 0002:00007c50       ??_C@_0DH@EAKCEMOC@in?5method?5?8get_debug_names?8?0?5ar@ 0000000180020c50     name.obj
 0002:00007c90       ??_C@_0LN@CCCAHBDP@Wrong?5number?5or?5type?5of?5argumen@ 0000000180020c90     name.obj
 0002:00007d50       ??_C@_0DD@FCEFAGKL@in?5method?5?8get_ea_name?8?0?5argume@ 0000000180020d50     name.obj
 0002:00007d88       ??_C@_0DC@JJDLMGOL@in?5method?5?8get_ea_name?8?0?5argume@ 0000000180020d88     name.obj
 0002:00007dc0       ??_C@_0DN@HCMFDFMM@in?5method?5?8validate_name?8?0?5argu@ 0000000180020dc0     name.obj
 0002:00007e00       ??_C@_0DL@CNKAFIIP@in?5method?5?8validate_name?8?0?5argu@ 0000000180020e00     name.obj
 0002:00007e40       ??_C@_0DE@ENBBINMD@in?5method?5?8validate_name?8?0?5argu@ 0000000180020e40     name.obj
 0002:00007e78       ??_C@_0BI@JNLIJMPE@?$DMSwig?5global?5variables?$DO@ 0000000180020e78     name.obj
 0002:00007e90       ??_C@_01ODHLEDKK@?$CI@     0000000180020e90     name.obj
 0002:00007e94       ??_C@_02KEGNLNML@?0?5@     0000000180020e94     name.obj
 0002:00007e98       ??_C@_01PKGAHCOL@?$CJ@     0000000180020e98     name.obj
 0002:00007ea0       ??_C@_0BP@NDJOEMD@Unknown?5C?5global?5variable?5?8?$CFs?8@ 0000000180020ea0     name.obj
 0002:00007ec0       ??_C@_0M@MKKPOLDM@swigvarlink@ 0000000180020ec0     name.obj
 0002:00007ed0       ??_C@_09NNAPLAFK@_ida_name@ 0000000180020ed0     name.obj
 0002:00008310       ??_C@_0L@FIBDPLH@MAXNAMELEN@ 0000000180021310     name.obj
 0002:00008320       ??_C@_08JHHHLJHB@SN_CHECK@ 0000000180021320     name.obj
 0002:00008330       ??_C@_0L@PKDMPPNP@SN_NOCHECK@ 0000000180021330     name.obj
 0002:00008340       ??_C@_09PMHIKFOL@SN_PUBLIC@ 0000000180021340     name.obj
 0002:00008350       ??_C@_0O@CFALFBPF@SN_NON_PUBLIC@ 0000000180021350     name.obj
 0002:00008360       ??_C@_07OMLEKKFI@SN_WEAK@  0000000180021360     name.obj
 0002:00008368       ??_C@_0M@EIMDCIHP@SN_NON_WEAK@ 0000000180021368     name.obj
 0002:00008378       ??_C@_07CNIMDLHK@SN_AUTO@  0000000180021378     name.obj
 0002:00008380       ??_C@_0M@IJPLLJFN@SN_NON_AUTO@ 0000000180021380     name.obj
 0002:00008390       ??_C@_09PFAIIPOG@SN_NOLIST@ 0000000180021390     name.obj
 0002:000083a0       ??_C@_09JGGDJBHG@SN_NOWARN@ 00000001800213a0     name.obj
 0002:000083b0       ??_C@_08LNKPMKMB@SN_LOCAL@ 00000001800213b0     name.obj
 0002:000083c0       ??_C@_09LOPDPEMH@SN_IDBENC@ 00000001800213c0     name.obj
 0002:000083d0       ??_C@_08CGNHLGHK@SN_FORCE@ 00000001800213d0     name.obj
 0002:000083e0       ??_C@_0O@OHPFKNBB@URK_NameChars@ 00000001800213e0     name.obj
 0002:000083f0       ??_C@_0BA@MBCDGJPO@URK_MangleChars@ 00000001800213f0     name.obj
 0002:00008400       ??_C@_0BA@MNCFFJDA@URK_StrlitChars@ 0000000180021400     name.obj
 0002:00008410       ??_C@_0BC@HHNIFEBA@URK_TypeNameChars@ 0000000180021410     name.obj
 0002:00008428       ??_C@_09DHODOIMJ@VNT_IDENT@ 0000000180021428     name.obj
 0002:00008438       ??_C@_08JEMPMICH@VNT_TYPE@ 0000000180021438     name.obj
 0002:00008448       ??_C@_0L@FFPHIGJF@VNT_UDTMEM@ 0000000180021448     name.obj
 0002:00008458       ??_C@_0L@JABHHDIN@VNT_STRLIT@ 0000000180021458     name.obj
 0002:00008468       ??_C@_0M@JGPGIJNI@VNT_VISIBLE@ 0000000180021468     name.obj
 0002:00008478       ??_C@_07FPDGDCAG@NT_NONE@  0000000180021478     name.obj
 0002:00008480       ??_C@_07POAFPBOC@NT_BYTE@  0000000180021480     name.obj
 0002:00008488       ??_C@_08NFLECAE@NT_LOCAL@  0000000180021488     name.obj
 0002:00008498       ??_C@_09ICAMAJEG@NT_STKVAR@ 0000000180021498     name.obj
 0002:000084a8       ??_C@_07EIPAKCOL@NT_ENUM@  00000001800214a8     name.obj
 0002:000084b0       ??_C@_06JKNLFEDP@NT_ABS@   00000001800214b0     name.obj
 0002:000084b8       ??_C@_06ELCKAKPL@NT_SEG@   00000001800214b8     name.obj
 0002:000084c0       ??_C@_09OJAMCFHA@NT_STROFF@ 00000001800214c0     name.obj
 0002:000084d0       ??_C@_08LHHLFJEG@NT_BMASK@ 00000001800214d0     name.obj
 0002:000084e0       ??_C@_09CJABDOMN@NT_REGVAR@ 00000001800214e0     name.obj
 0002:000084f0       ??_C@_0L@BOCDCOBD@GN_VISIBLE@ 00000001800214f0     name.obj
 0002:00008500       ??_C@_0L@HCLLDMNJ@GN_COLORED@ 0000000180021500     name.obj
 0002:00008510       ??_C@_0N@LNNGOGAL@GN_DEMANGLED@ 0000000180021510     name.obj
 0002:00008520       ??_C@_09HHKDCLLB@GN_STRICT@ 0000000180021520     name.obj
 0002:00008530       ??_C@_08NKIOIPCK@GN_SHORT@ 0000000180021530     name.obj
 0002:00008540       ??_C@_07MLCBNLEP@GN_LONG@  0000000180021540     name.obj
 0002:00008548       ??_C@_08EMIDNJLM@GN_LOCAL@ 0000000180021548     name.obj
 0002:00008558       ??_C@_08NEOJDCPD@GN_ISRET@ 0000000180021558     name.obj
 0002:00008568       ??_C@_0N@BJKOACMI@GN_NOT_ISRET@ 0000000180021568     name.obj
 0002:00008578       ??_C@_0N@JJLHIMIK@GN_NOT_DUMMY@ 0000000180021578     name.obj
 0002:00008588       ??_C@_0N@HBJGAMDO@GETN_APPZERO@ 0000000180021588     name.obj
 0002:00008598       ??_C@_0N@KBIJGJDI@GETN_NOFIXUP@ 0000000180021598     name.obj
 0002:000085a8       ??_C@_0N@ONGBFMJM@GETN_NODUMMY@ 00000001800215a8     name.obj
 0002:000085b8       ??_C@_0L@BKMNJBAO@GNCN_NOSEG@ 00000001800215b8     name.obj
 0002:000085c8       ??_C@_0N@HEKHPMIB@GNCN_NOCOLOR@ 00000001800215c8     name.obj
 0002:000085d8       ??_C@_0N@DMIDNAP@GNCN_NOLABEL@ 00000001800215d8     name.obj
 0002:000085e8       ??_C@_0M@MLDOIILC@GNCN_NOFUNC@ 00000001800215e8     name.obj
 0002:000085f8       ??_C@_0O@BKGBGCKE@GNCN_SEG_FUNC@ 00000001800215f8     name.obj
 0002:00008608       ??_C@_0M@FICEMOOL@GNCN_SEGNUM@ 0000000180021608     name.obj
 0002:00008618       ??_C@_0N@MHMHBHHI@GNCN_REQFUNC@ 0000000180021618     name.obj
 0002:00008628       ??_C@_0N@HMNAIFKO@GNCN_REQNAME@ 0000000180021628     name.obj
 0002:00008638       ??_C@_0N@IKKLOLCA@GNCN_NODBGNM@ 0000000180021638     name.obj
 0002:00008648       ??_C@_0N@DKAPPOFC@GNCN_PREFDBG@ 0000000180021648     name.obj
 0002:00008658       ??_C@_0O@LMIFJBLB@DEBNAME_EXACT@ 0000000180021658     name.obj
 0002:00008668       ??_C@_0O@GOOPFIJM@DEBNAME_LOWER@ 0000000180021668     name.obj
 0002:00008678       ??_C@_0O@DFFBDDCF@DEBNAME_UPPER@ 0000000180021678     name.obj
 0002:00008688       ??_C@_0N@EFLPEMFP@DEBNAME_NICE@ 0000000180021688     name.obj
 0002:00008698       ??_C@_0O@MLJMNMBP@DQT_NPURGED_8@ 0000000180021698     name.obj
 0002:000086a8       ??_C@_0O@GHCJJDBD@DQT_NPURGED_4@ 00000001800216a8     name.obj
 0002:000086b8       ??_C@_0O@DBHDDEJF@DQT_NPURGED_2@ 00000001800216b8     name.obj
 0002:000086c8       ??_C@_0N@OOBEHJMN@DQT_COMPILER@ 00000001800216c8     name.obj
 0002:000086d8       ??_C@_0O@PMLLPDPD@DQT_NAME_TYPE@ 00000001800216d8     name.obj
 0002:000086e8       ??_C@_08CHGKBLFA@DQT_FULL@ 00000001800216e8     name.obj
 0002:000086f8       ??_C@_0BJ@GIMECKGP@CN_KEEP_TRAILING__DIGITS@ 00000001800216f8     name.obj
 0002:00008714       ??_C@_06HOGKBANE@__imp_@   0000000180021714     name.obj
 0002:00008720       ??_C@_0BD@HHDIHMFF@FUNC_IMPORT_PREFIX@ 0000000180021720     name.obj
 0002:00008738       ??_C@_0CA@CMAAGIH@Failure?5to?5create?5SWIG?5globals?4@ 0000000180021738     name.obj
 0002:00008758       ??_C@_04PNAHEAFM@cvar@     0000000180021758     name.obj
 0002:00008760       ??_C@_0M@NBGNIODI@ignore_none@ 0000000180021760     name.obj
 0002:00008770       ??_C@_0O@HNKDGAO@ignore_regvar@ 0000000180021770     name.obj
 0002:00008780       ??_C@_0O@JEEHCCDO@ignore_llabel@ 0000000180021780     name.obj
 0002:00008790       ??_C@_0O@KMNHABIF@ignore_stkvar@ 0000000180021790     name.obj
 0002:000087a0       ??_C@_0O@JGEAHGME@ignore_glabel@ 00000001800217a0     name.obj
 0002:000087ae       ?nullstr@?1??c_str@?$_qstring@D@@QEBAPEBDXZ@4QBDB 00000001800217ae     name.obj
 0002:000087e0       ??_C@_1EC@JIJBPKFM@?$AAa?$AAp?$AAi?$AA?9?$AAm?$AAs?$AA?9?$AAw?$AAi?$AAn?$AA?9?$AAc?$AAo?$AAr?$AAe@ 00000001800217e0     MSVCRT:thread_safe_statics.obj
 0002:00008828       ??_C@_1BK@MGMFAEKH@?$AAk?$AAe?$AAr?$AAn?$AAe?$AAl?$AA3?$AA2?$AA?4?$AAd?$AAl?$AAl@ 0000000180021828     MSVCRT:thread_safe_statics.obj
 0002:00008848       ??_C@_0BM@HLJJNPAH@InitializeConditionVariable@ 0000000180021848     MSVCRT:thread_safe_statics.obj
 0002:00008868       ??_C@_0BJ@JEBJOJFJ@SleepConditionVariableCS@ 0000000180021868     MSVCRT:thread_safe_statics.obj
 0002:00008888       ??_C@_0BJ@PGPPEPCC@WakeAllConditionVariable@ 0000000180021888     MSVCRT:thread_safe_statics.obj
 0002:000088b0       ??_7type_info@@6B@         00000001800218b0     MSVCRT:std_type_info_static.obj
 0002:000088b8       _pRawDllMain               00000001800218b8     MSVCRT:dll_dllmain.obj
 0002:000088b8       _pDefaultRawDllMain        00000001800218b8     MSVCRT:dll_dllmain.obj
 0002:000088c8       ??_7bad_alloc@std@@6B@     00000001800218c8     MSVCRT:throw_bad_alloc.obj
 0002:000088d8       ??_C@_0P@GHFPNOJB@bad?5allocation@ 00000001800218d8     MSVCRT:throw_bad_alloc.obj
 0002:000088f0       ??_7bad_array_new_length@std@@6B@ 00000001800218f0     MSVCRT:throw_bad_alloc.obj
 0002:00008900       ??_C@_0BF@KINCDENJ@bad?5array?5new?5length@ 0000000180021900     MSVCRT:throw_bad_alloc.obj
 0002:00008990       _load_config_used          0000000180021990     MSVCRT:loadcfg.obj
 0002:00008a90       _tls_used                  0000000180021a90     MSVCRT:tlssup.obj
 0002:00008ab8       ??_R4exception@std@@6B@    0000000180021ab8     name.obj
 0002:00008ae0       ??_R3exception@std@@8      0000000180021ae0     name.obj
 0002:00008af8       ??_R2exception@std@@8      0000000180021af8     name.obj
 0002:00008b08       ??_R1A@?0A@EA@exception@std@@8 0000000180021b08     name.obj
 0002:00008b30       ??_R4logic_error@std@@6B@  0000000180021b30     name.obj
 0002:00008b58       ??_R3logic_error@std@@8    0000000180021b58     name.obj
 0002:00008b70       ??_R2logic_error@std@@8    0000000180021b70     name.obj
 0002:00008b88       ??_R1A@?0A@EA@logic_error@std@@8 0000000180021b88     name.obj
 0002:00008bb0       ??_R4out_of_range@std@@6B@ 0000000180021bb0     name.obj
 0002:00008bd8       ??_R3out_of_range@std@@8   0000000180021bd8     name.obj
 0002:00008bf0       ??_R2out_of_range@std@@8   0000000180021bf0     name.obj
 0002:00008c10       ??_R1A@?0A@EA@out_of_range@std@@8 0000000180021c10     name.obj
 0002:00008c38       ??_R4type_info@@6B@        0000000180021c38     MSVCRT:std_type_info_static.obj
 0002:00008c60       ??_R3type_info@@8          0000000180021c60     MSVCRT:std_type_info_static.obj
 0002:00008c78       ??_R2type_info@@8          0000000180021c78     MSVCRT:std_type_info_static.obj
 0002:00008c88       ??_R1A@?0A@EA@type_info@@8 0000000180021c88     MSVCRT:std_type_info_static.obj
 0002:00008cb0       ??_R4bad_alloc@std@@6B@    0000000180021cb0     MSVCRT:throw_bad_alloc.obj
 0002:00008cd8       ??_R3bad_alloc@std@@8      0000000180021cd8     MSVCRT:throw_bad_alloc.obj
 0002:00008cf0       ??_R2bad_alloc@std@@8      0000000180021cf0     MSVCRT:throw_bad_alloc.obj
 0002:00008d08       ??_R1A@?0A@EA@bad_alloc@std@@8 0000000180021d08     MSVCRT:throw_bad_alloc.obj
 0002:00008d30       ??_R4bad_array_new_length@std@@6B@ 0000000180021d30     MSVCRT:throw_bad_alloc.obj
 0002:00008d58       ??_R3bad_array_new_length@std@@8 0000000180021d58     MSVCRT:throw_bad_alloc.obj
 0002:00008d70       ??_R2bad_array_new_length@std@@8 0000000180021d70     MSVCRT:throw_bad_alloc.obj
 0002:00008d90       ??_R1A@?0A@EA@bad_array_new_length@std@@8 0000000180021d90     MSVCRT:throw_bad_alloc.obj
 0002:000090c8       __rtc_iaa                  00000001800220c8     MSVCRT:initsect.obj
 0002:000090d0       __rtc_izz                  00000001800220d0     MSVCRT:initsect.obj
 0002:000090d8       __rtc_taa                  00000001800220d8     MSVCRT:initsect.obj
 0002:000090e0       __rtc_tzz                  00000001800220e0     MSVCRT:initsect.obj
 0002:000090e8       _tls_start                 00000001800220e8     MSVCRT:tlssup.obj
 0002:000090ec       _Init_thread_epoch         00000001800220ec     MSVCRT:thread_safe_statics.obj
 0002:000090f0       _tls_end                   00000001800220f0     MSVCRT:tlssup.obj
 0002:0000e780       _CT??_R0?AVexception@std@@@8??0exception@std@@QEAA@AEBV01@@Z24 0000000180027780     name.obj
 0002:0000e7a8       _TI3?AVout_of_range@std@@  00000001800277a8     name.obj
 0002:0000e7c8       _CTA3?AVout_of_range@std@@ 00000001800277c8     name.obj
 0002:0000e7e8       _CT??_R0?AVout_of_range@std@@@8??0out_of_range@std@@QEAA@AEBV01@@Z24 00000001800277e8     name.obj
 0002:0000e810       _CT??_R0?AVlogic_error@std@@@8??0logic_error@std@@QEAA@AEBV01@@Z24 0000000180027810     name.obj
 0002:0000e838       _TI2?AVbad_alloc@std@@     0000000180027838     MSVCRT:throw_bad_alloc.obj
 0002:0000e858       _CTA2?AVbad_alloc@std@@    0000000180027858     MSVCRT:throw_bad_alloc.obj
 0002:0000e870       _CT??_R0?AVbad_alloc@std@@@8??0bad_alloc@std@@QEAA@AEBV01@@Z24 0000000180027870     MSVCRT:throw_bad_alloc.obj
 0002:0000e898       _TI3?AVbad_array_new_length@std@@ 0000000180027898     MSVCRT:throw_bad_alloc.obj
 0002:0000e8b8       _CTA3?AVbad_array_new_length@std@@ 00000001800278b8     MSVCRT:throw_bad_alloc.obj
 0002:0000e8d8       _CT??_R0?AVbad_array_new_length@std@@@8??0bad_array_new_length@std@@QEAA@AEBV01@@Z24 00000001800278d8     MSVCRT:throw_bad_alloc.obj
 0002:0000e954       __IMPORT_DESCRIPTOR_ida    0000000180027954     ida:ida.dll
 0002:0000e968       __IMPORT_DESCRIPTOR_python38 0000000180027968     python38:python38.dll
 0002:0000e97c       __IMPORT_DESCRIPTOR_python 000000018002797c     python:python.dll
 0002:0000e990       __IMPORT_DESCRIPTOR_KERNEL32 0000000180027990     kernel32:KERNEL32.dll
 0002:0000e9a4       __IMPORT_DESCRIPTOR_VCRUNTIME140 00000001800279a4     vcruntime:VCRUNTIME140.dll
 0002:0000e9b8       __IMPORT_DESCRIPTOR_api-ms-win-crt-stdio-l1-1-0 00000001800279b8     ucrt:api-ms-win-crt-stdio-l1-1-0.dll
 0002:0000e9cc       __IMPORT_DESCRIPTOR_api-ms-win-crt-string-l1-1-0 00000001800279cc     ucrt:api-ms-win-crt-string-l1-1-0.dll
 0002:0000e9e0       __IMPORT_DESCRIPTOR_api-ms-win-crt-heap-l1-1-0 00000001800279e0     ucrt:api-ms-win-crt-heap-l1-1-0.dll
 0002:0000e9f4       __IMPORT_DESCRIPTOR_api-ms-win-crt-runtime-l1-1-0 00000001800279f4     ucrt:api-ms-win-crt-runtime-l1-1-0.dll
 0002:0000ea08       __NULL_IMPORT_DESCRIPTOR   0000000180027a08     ida:ida.dll
 0003:00003068       _Init_global_epoch         000000018002d068     MSVCRT:thread_safe_statics.obj
 0003:00003070       __security_cookie_complement 000000018002d070     MSVCRT:gs_cookie.obj
 0003:00003078       __security_cookie          000000018002d078     MSVCRT:gs_cookie.obj
 0003:00003080       __scrt_native_dllmain_reason 000000018002d080     MSVCRT:utility.obj
 0003:00003088       __isa_available            000000018002d088     MSVCRT:cpu_disp.obj
 0003:0000308c       __isa_enabled              000000018002d08c     MSVCRT:cpu_disp.obj
 0003:00003090       __memcpy_nt_iters          000000018002d090     MSVCRT:cpu_disp.obj
 0003:000030a0       __scrt_ucrt_dll_is_in_use  000000018002d0a0     MSVCRT:ucrt_stubs.obj
 0003:000030a8       ??_R0?AVexception@std@@@8  000000018002d0a8     name.obj
 0003:000030d0       ??_R0?AVDirectorException@Swig@@@8 000000018002d0d0     name.obj
 0003:00003100       ??_R0?AVout_of_range@std@@@8 000000018002d100     name.obj
 0003:00003128       ??_R0?AVlogic_error@std@@@8 000000018002d128     name.obj
 0003:00003150       ??_R0?AVbad_alloc@std@@@8  000000018002d150     name.obj
 0003:00003178       ??_R0?AUinterr_exc_t@@@8   000000018002d178     name.obj
 0003:000031a0       ??_R0?AVtype_info@@@8      000000018002d1a0     MSVCRT:std_type_info_static.obj
 0003:000031c0       ??_R0?AVbad_array_new_length@std@@@8 000000018002d1c0     MSVCRT:throw_bad_alloc.obj
 0003:00003220       ?swig_mutex_own@Director@Swig@@0U_RTL_CRITICAL_SECTION@2@A 000000018002d220     name.obj
 0003:00003488       ?_OptionsStorage@?1??__local_stdio_printf_options@@9@4_KA 000000018002d488     name.obj
 0003:00003520       _tls_index                 000000018002d520     MSVCRT:tlssup.obj
 0003:00003528       __scrt_current_native_startup_state 000000018002d528     MSVCRT:utility.obj
 0003:00003530       __scrt_native_startup_lock 000000018002d530     MSVCRT:utility.obj
 0003:00003570       __scrt_debugger_hook_flag  000000018002d570     MSVCRT:utility_desktop.obj
 0003:00003af0       ?__type_info_root_node@@3U__type_info_node@@A 000000018002daf0     MSVCRT:tncleanup.obj
 0003:00003b00       ?_OptionsStorage@?1??__local_stdio_scanf_options@@9@4_KA 000000018002db00     MSVCRT:default_local_stdio_options.obj
 0003:00003b08       __favor                    000000018002db08     MSVCRT:cpu_disp.obj
 0003:00003b10       __dyn_tls_init_callback    000000018002db10     <common>

 entry point at        0001:0000fe70

 Static symbols

 0000:fffce000       .debug$S                   0000000180000000     ida:ida.dll
 0000:fffce000       .debug$S                   0000000180000000     ida:ida.dll
 0000:fffce000       .debug$S                   0000000180000000     ida:ida.dll
 0000:fffce000       .debug$S                   0000000180000000     ida:ida.dll
 0000:fffce000       .debug$S                   0000000180000000     ida:ida.dll
 0000:fffce000       .debug$S                   0000000180000000     _ida_name.exp
 0000:fffce000       .debug$S                   0000000180000000     ida:ida.dll
 0000:fffce000       .debug$S                   0000000180000000     ida:ida.dll
 0000:fffce000       .debug$S                   0000000180000000     ida:ida.dll
 0000:fffce000       .debug$S                   0000000180000000     ida:ida.dll
 0000:fffce000       .debug$S                   0000000180000000     ida:ida.dll
 0000:fffce000       .debug$S                   0000000180000000     ucrt:api-ms-win-crt-runtime-l1-1-0.dll
 0000:fffce000       .debug$S                   0000000180000000     ucrt:api-ms-win-crt-runtime-l1-1-0.dll
 0000:fffce000       .debug$S                   0000000180000000     ucrt:api-ms-win-crt-runtime-l1-1-0.dll
 0000:fffce000       .debug$S                   0000000180000000     ucrt:api-ms-win-crt-runtime-l1-1-0.dll
 0000:fffce000       .debug$S                   0000000180000000     ucrt:api-ms-win-crt-runtime-l1-1-0.dll
 0000:fffce000       .debug$S                   0000000180000000     ucrt:api-ms-win-crt-runtime-l1-1-0.dll
 0000:fffce000       .debug$S                   0000000180000000     ucrt:api-ms-win-crt-runtime-l1-1-0.dll
 0000:fffce000       .debug$S                   0000000180000000     ucrt:api-ms-win-crt-runtime-l1-1-0.dll
 0000:fffce000       .debug$S                   0000000180000000     ucrt:api-ms-win-crt-runtime-l1-1-0.dll
 0000:fffce000       .debug$S                   0000000180000000     ucrt:api-ms-win-crt-runtime-l1-1-0.dll
 0000:fffce000       .debug$S                   0000000180000000     ucrt:api-ms-win-crt-runtime-l1-1-0.dll
 0000:fffce000       .debug$S                   0000000180000000     ucrt:api-ms-win-crt-runtime-l1-1-0.dll
 0000:fffce000       .debug$S                   0000000180000000     ucrt:api-ms-win-crt-heap-l1-1-0.dll
 0000:fffce000       .debug$S                   0000000180000000     ucrt:api-ms-win-crt-heap-l1-1-0.dll
 0000:fffce000       .debug$S                   0000000180000000     ucrt:api-ms-win-crt-heap-l1-1-0.dll
 0000:fffce000       .debug$S                   0000000180000000     ucrt:api-ms-win-crt-string-l1-1-0.dll
 0000:fffce000       .debug$S                   0000000180000000     ucrt:api-ms-win-crt-string-l1-1-0.dll
 0000:fffce000       .debug$S                   0000000180000000     ucrt:api-ms-win-crt-stdio-l1-1-0.dll
 0000:fffce000       .debug$S                   0000000180000000     ucrt:api-ms-win-crt-stdio-l1-1-0.dll
 0000:fffce000       .debug$S                   0000000180000000     ida:ida.dll
 0000:fffce000       .debug$S                   0000000180000000     vcruntime:VCRUNTIME140.dll
 0000:fffce000       .debug$S                   0000000180000000     vcruntime:VCRUNTIME140.dll
 0000:fffce000       .debug$S                   0000000180000000     vcruntime:VCRUNTIME140.dll
 0000:fffce000       .debug$S                   0000000180000000     vcruntime:VCRUNTIME140.dll
 0000:fffce000       .debug$S                   0000000180000000     vcruntime:VCRUNTIME140.dll
 0000:fffce000       .debug$S                   0000000180000000     vcruntime:VCRUNTIME140.dll
 0000:fffce000       .debug$S                   0000000180000000     vcruntime:VCRUNTIME140.dll
 0000:fffce000       .debug$S                   0000000180000000     vcruntime:VCRUNTIME140.dll
 0000:fffce000       .debug$S                   0000000180000000     vcruntime:VCRUNTIME140.dll
 0000:fffce000       .debug$S                   0000000180000000     vcruntime:VCRUNTIME140.dll
 0000:fffce000       .debug$S                   0000000180000000     vcruntime:VCRUNTIME140.dll
 0000:fffce000       .debug$S                   0000000180000000     ida:ida.dll
 0000:fffce000       .debug$S                   0000000180000000     kernel32:KERNEL32.dll
 0000:fffce000       .debug$S                   0000000180000000     kernel32:KERNEL32.dll
 0000:fffce000       .debug$S                   0000000180000000     kernel32:KERNEL32.dll
 0000:fffce000       .debug$S                   0000000180000000     kernel32:KERNEL32.dll
 0000:fffce000       .debug$S                   0000000180000000     kernel32:KERNEL32.dll
 0000:fffce000       .debug$S                   0000000180000000     kernel32:KERNEL32.dll
 0000:fffce000       .debug$S                   0000000180000000     kernel32:KERNEL32.dll
 0000:fffce000       .debug$S                   0000000180000000     kernel32:KERNEL32.dll
 0000:fffce000       .debug$S                   0000000180000000     kernel32:KERNEL32.dll
 0000:fffce000       .debug$S                   0000000180000000     kernel32:KERNEL32.dll
 0000:fffce000       .debug$S                   0000000180000000     kernel32:KERNEL32.dll
 0000:fffce000       .debug$S                   0000000180000000     kernel32:KERNEL32.dll
 0000:fffce000       .debug$S                   0000000180000000     kernel32:KERNEL32.dll
 0000:fffce000       .debug$S                   0000000180000000     kernel32:KERNEL32.dll
 0000:fffce000       .debug$S                   0000000180000000     kernel32:KERNEL32.dll
 0000:fffce000       .debug$S                   0000000180000000     kernel32:KERNEL32.dll
 0000:fffce000       .debug$S                   0000000180000000     kernel32:KERNEL32.dll
 0000:fffce000       .debug$S                   0000000180000000     kernel32:KERNEL32.dll
 0000:fffce000       .debug$S                   0000000180000000     kernel32:KERNEL32.dll
 0000:fffce000       .debug$S                   0000000180000000     kernel32:KERNEL32.dll
 0000:fffce000       .debug$S                   0000000180000000     kernel32:KERNEL32.dll
 0000:fffce000       .debug$S                   0000000180000000     kernel32:KERNEL32.dll
 0000:fffce000       .debug$S                   0000000180000000     kernel32:KERNEL32.dll
 0000:fffce000       .debug$S                   0000000180000000     kernel32:KERNEL32.dll
 0000:fffce000       .debug$S                   0000000180000000     kernel32:KERNEL32.dll
 0000:fffce000       .debug$S                   0000000180000000     kernel32:KERNEL32.dll
 0000:fffce000       .debug$S                   0000000180000000     kernel32:KERNEL32.dll
 0000:fffce000       .debug$S                   0000000180000000     ida:ida.dll
 0000:fffce000       .debug$S                   0000000180000000     ida:ida.dll
 0000:fffce000       .debug$S                   0000000180000000     ida:ida.dll
 0000:fffce000       .debug$S                   0000000180000000     ida:ida.dll
 0000:fffce000       .debug$S                   0000000180000000     ida:ida.dll
 0000:fffce000       .debug$S                   0000000180000000     ida:ida.dll
 0000:fffce000       .debug$S                   0000000180000000     ida:ida.dll
 0000:fffce000       .debug$S                   0000000180000000     ida:ida.dll
 0000:fffce000       .debug$S                   0000000180000000     ida:ida.dll
 0000:fffce000       .debug$S                   0000000180000000     ida:ida.dll
 0000:fffce000       .debug$S                   0000000180000000     ida:ida.dll
 0000:fffce000       .debug$S                   0000000180000000     ida:ida.dll
 0000:fffce000       .debug$S                   0000000180000000     ida:ida.dll
 0000:fffce000       .debug$S                   0000000180000000     ida:ida.dll
 0000:fffce000       .debug$S                   0000000180000000     ida:ida.dll
 0000:fffce000       .debug$S                   0000000180000000     ida:ida.dll
 0000:fffce000       .debug$S                   0000000180000000     ida:ida.dll
 0000:fffce000       .debug$S                   0000000180000000     ida:ida.dll
 0000:fffce000       .debug$S                   0000000180000000     ida:ida.dll
 0000:fffce000       .debug$S                   0000000180000000     ida:ida.dll
 0000:fffce000       .debug$S                   0000000180000000     python38:python38.dll
 0000:fffce000       .debug$S                   0000000180000000     ida:ida.dll
 0000:fffce000       .debug$S                   0000000180000000     ida:ida.dll
 0000:fffce000       .debug$S                   0000000180000000     ida:ida.dll
 0000:fffce000       .debug$S                   0000000180000000     ida:ida.dll
 0000:fffce000       .debug$S                   0000000180000000     ida:ida.dll
 0000:fffce000       .debug$S                   0000000180000000     ida:ida.dll
 0000:fffce000       .debug$S                   0000000180000000     ida:ida.dll
 0000:fffce000       .debug$S                   0000000180000000     ida:ida.dll
 0000:fffce000       .debug$S                   0000000180000000     ida:ida.dll
 0000:fffce000       .debug$S                   0000000180000000     ida:ida.dll
 0000:fffce000       .debug$S                   0000000180000000     ida:ida.dll
 0000:fffce000       .debug$S                   0000000180000000     ida:ida.dll
 0000:fffce000       .debug$S                   0000000180000000     ida:ida.dll
 0000:fffce000       .debug$S                   0000000180000000     ida:ida.dll
 0000:fffce000       .debug$S                   0000000180000000     ida:ida.dll
 0000:fffce000       .debug$S                   0000000180000000     ida:ida.dll
 0000:fffce000       .debug$S                   0000000180000000     ida:ida.dll
 0000:fffce000       .debug$S                   0000000180000000     ida:ida.dll
 0000:fffce000       .debug$S                   0000000180000000     ida:ida.dll
 0000:fffce000       .debug$S                   0000000180000000     python38:python38.dll
 0000:fffce000       .debug$S                   0000000180000000     python38:python38.dll
 0000:fffce000       .debug$S                   0000000180000000     python38:python38.dll
 0000:fffce000       .debug$S                   0000000180000000     python38:python38.dll
 0000:fffce000       .debug$S                   0000000180000000     python38:python38.dll
 0000:fffce000       .debug$S                   0000000180000000     python38:python38.dll
 0000:fffce000       .debug$S                   0000000180000000     python38:python38.dll
 0000:fffce000       .debug$S                   0000000180000000     python38:python38.dll
 0000:fffce000       .debug$S                   0000000180000000     python38:python38.dll
 0000:fffce000       .debug$S                   0000000180000000     python38:python38.dll
 0000:fffce000       .debug$S                   0000000180000000     python38:python38.dll
 0000:fffce000       .debug$S                   0000000180000000     python38:python38.dll
 0000:fffce000       .debug$S                   0000000180000000     python38:python38.dll
 0000:fffce000       .debug$S                   0000000180000000     python38:python38.dll
 0000:fffce000       .debug$S                   0000000180000000     python38:python38.dll
 0000:fffce000       .debug$S                   0000000180000000     python38:python38.dll
 0000:fffce000       .debug$S                   0000000180000000     python38:python38.dll
 0000:fffce000       .debug$S                   0000000180000000     python38:python38.dll
 0000:fffce000       .debug$S                   0000000180000000     python38:python38.dll
 0000:fffce000       .debug$S                   0000000180000000     python38:python38.dll
 0000:fffce000       .debug$S                   0000000180000000     python38:python38.dll
 0000:fffce000       .debug$S                   0000000180000000     python38:python38.dll
 0000:fffce000       .debug$S                   0000000180000000     python38:python38.dll
 0000:fffce000       .debug$S                   0000000180000000     python38:python38.dll
 0000:fffce000       .debug$S                   0000000180000000     python38:python38.dll
 0000:fffce000       .debug$S                   0000000180000000     python38:python38.dll
 0000:fffce000       .debug$S                   0000000180000000     python38:python38.dll
 0000:fffce000       .debug$S                   0000000180000000     python38:python38.dll
 0000:fffce000       .debug$S                   0000000180000000     python38:python38.dll
 0000:fffce000       .debug$S                   0000000180000000     python38:python38.dll
 0000:fffce000       .debug$S                   0000000180000000     python38:python38.dll
 0000:fffce000       .debug$S                   0000000180000000     python38:python38.dll
 0000:fffce000       .debug$S                   0000000180000000     python38:python38.dll
 0000:fffce000       .debug$S                   0000000180000000     python38:python38.dll
 0000:fffce000       .debug$S                   0000000180000000     python38:python38.dll
 0000:fffce000       .debug$S                   0000000180000000     python38:python38.dll
 0000:fffce000       .debug$S                   0000000180000000     python38:python38.dll
 0000:fffce000       .debug$S                   0000000180000000     python38:python38.dll
 0000:fffce000       .debug$S                   0000000180000000     python38:python38.dll
 0000:fffce000       .debug$S                   0000000180000000     python38:python38.dll
 0000:fffce000       .debug$S                   0000000180000000     python38:python38.dll
 0000:fffce000       .debug$S                   0000000180000000     python38:python38.dll
 0000:fffce000       .debug$S                   0000000180000000     python38:python38.dll
 0000:fffce000       .debug$S                   0000000180000000     python38:python38.dll
 0000:fffce000       .debug$S                   0000000180000000     python38:python38.dll
 0000:fffce000       .debug$S                   0000000180000000     python38:python38.dll
 0000:fffce000       .debug$S                   0000000180000000     python38:python38.dll
 0000:fffce000       .debug$S                   0000000180000000     python38:python38.dll
 0000:fffce000       .debug$S                   0000000180000000     python38:python38.dll
 0000:fffce000       .debug$S                   0000000180000000     python38:python38.dll
 0000:fffce000       .debug$S                   0000000180000000     python38:python38.dll
 0000:fffce000       .debug$S                   0000000180000000     python38:python38.dll
 0000:fffce000       .debug$S                   0000000180000000     python38:python38.dll
 0000:fffce000       .debug$S                   0000000180000000     python38:python38.dll
 0000:fffce000       .debug$S                   0000000180000000     python38:python38.dll
 0000:fffce000       .debug$S                   0000000180000000     python38:python38.dll
 0000:fffce000       .debug$S                   0000000180000000     python38:python38.dll
 0000:fffce000       .debug$S                   0000000180000000     python38:python38.dll
 0000:fffce000       .debug$S                   0000000180000000     python38:python38.dll
 0000:fffce000       .debug$S                   0000000180000000     python38:python38.dll
 0000:fffce000       .debug$S                   0000000180000000     python38:python38.dll
 0000:fffce000       .debug$S                   0000000180000000     python38:python38.dll
 0000:fffce000       .debug$S                   0000000180000000     python38:python38.dll
 0000:fffce000       .debug$S                   0000000180000000     python38:python38.dll
 0000:fffce000       .debug$S                   0000000180000000     python38:python38.dll
 0000:fffce000       .debug$S                   0000000180000000     python38:python38.dll
 0000:fffce000       .debug$S                   0000000180000000     python38:python38.dll
 0000:fffce000       .debug$S                   0000000180000000     python38:python38.dll
 0000:fffce000       .debug$S                   0000000180000000     python38:python38.dll
 0000:fffce000       .debug$S                   0000000180000000     python38:python38.dll
 0000:fffce000       .debug$S                   0000000180000000     python38:python38.dll
 0000:fffce000       .debug$S                   0000000180000000     python38:python38.dll
 0000:fffce000       .debug$S                   0000000180000000     python38:python38.dll
 0000:fffce000       .debug$S                   0000000180000000     python38:python38.dll
 0000:fffce000       .debug$S                   0000000180000000     python38:python38.dll
 0000:fffce000       .debug$S                   0000000180000000     python38:python38.dll
 0000:fffce000       .debug$S                   0000000180000000     python38:python38.dll
 0000:fffce000       .debug$S                   0000000180000000     python38:python38.dll
 0000:fffce000       .debug$S                   0000000180000000     python38:python38.dll
 0000:fffce000       .debug$S                   0000000180000000     python38:python38.dll
 0000:fffce000       .debug$S                   0000000180000000     python38:python38.dll
 0000:fffce000       .debug$S                   0000000180000000     python38:python38.dll
 0000:fffce000       .debug$S                   0000000180000000     python38:python38.dll
 0000:fffce000       .debug$S                   0000000180000000     python38:python38.dll
 0000:fffce000       .debug$S                   0000000180000000     python38:python38.dll
 0000:fffce000       .debug$S                   0000000180000000     python38:python38.dll
 0000:fffce000       .debug$S                   0000000180000000     python38:python38.dll
 0000:fffce000       .debug$S                   0000000180000000     python38:python38.dll
 0000:fffce000       .debug$S                   0000000180000000     python:python.dll
 0001:00000000       _wrap_extract_name         0000000180001000 f   name.obj
 0001:00000370       _wrap_hide_name            0000000180001370 f   name.obj
 0001:00000440       _wrap_show_name            0000000180001440 f   name.obj
 0001:00000510       _wrap_get_name_ea          0000000180001510 f   name.obj
 0001:000007a0       _wrap_get_name_base_ea     00000001800017a0 f   name.obj
 0001:000008e0       _wrap_get_name_value       00000001800018e0 f   name.obj
 0001:00000ba0       _wrap_get_visible_name     0000000180001ba0 f   name.obj
 0001:00000da0       _wrap_get_short_name       0000000180001da0 f   name.obj
 0001:00000fa0       _wrap_get_long_name        0000000180001fa0 f   name.obj
 0001:000011a0       _wrap_get_colored_short_name 00000001800021a0 f   name.obj
 0001:000013a0       _wrap_get_colored_long_name 00000001800023a0 f   name.obj
 0001:000015a0       _wrap_get_demangled_name   00000001800025a0 f   name.obj
 0001:000018a0       _wrap_get_colored_demangled_name 00000001800028a0 f   name.obj
 0001:00001ba0       _wrap_get_name_color       0000000180002ba0 f   name.obj
 0001:00001ce0       _wrap_get_name_expr        0000000180002ce0 f   name.obj
 0001:00002000       _wrap_get_nice_colored_name 0000000180003000 f   name.obj
 0001:000021f0       _wrap_append_struct_fields 00000001800031f0 f   name.obj
 0001:00002810       _wrap_is_public_name       0000000180003810 f   name.obj
 0001:000028e0       _wrap_make_name_public     00000001800038e0 f   name.obj
 0001:000029b0       _wrap_make_name_non_public 00000001800039b0 f   name.obj
 0001:00002a80       _wrap_is_weak_name         0000000180003a80 f   name.obj
 0001:00002b50       _wrap_make_name_weak       0000000180003b50 f   name.obj
 0001:00002c20       _wrap_make_name_non_weak   0000000180003c20 f   name.obj
 0001:00002cf0       _wrap_get_nlist_size       0000000180003cf0 f   name.obj
 0001:00002d90       _wrap_get_nlist_idx        0000000180003d90 f   name.obj
 0001:00002e80       _wrap_is_in_nlist          0000000180003e80 f   name.obj
 0001:00002f50       _wrap_get_nlist_ea         0000000180003f50 f   name.obj
 0001:00003060       _wrap_get_nlist_name       0000000180004060 f   name.obj
 0001:00003170       _wrap_rebuild_nlist        0000000180004170 f   name.obj
 0001:00003200       _wrap_reorder_dummy_names  0000000180004200 f   name.obj
 0001:00003290       _wrap_ea_name_t_ea_set     0000000180004290 f   name.obj
 0001:00003400       _wrap_ea_name_t_ea_get     0000000180004400 f   name.obj
 0001:00003500       _wrap_ea_name_t_name_set   0000000180004500 f   name.obj
 0001:000036f0       _wrap_ea_name_t_name_get   00000001800046f0 f   name.obj
 0001:00003810       _wrap_new_ea_name_t        0000000180004810 f   name.obj
 0001:00003a80       _wrap_delete_ea_name_t     0000000180004a80 f   name.obj
 0001:00003bc0       ea_name_t_swigregister     0000000180004bc0 f   name.obj
 0001:00003c50       ea_name_t_swiginit         0000000180004c50 f   name.obj
 0001:00003c50       ea_name_vec_t_swiginit     0000000180004c50 f   name.obj
 0001:00003c60       _wrap_set_debug_name       0000000180004c60 f   name.obj
 0001:00003f00       _wrap_get_debug_name       0000000180004f00 f   name.obj
 0001:00004230       _wrap_del_debug_names      0000000180005230 f   name.obj
 0001:00004370       _wrap_get_debug_name_ea    0000000180005370 f   name.obj
 0001:000045b0       _wrap_demangle_name        00000001800055b0 f   name.obj
 0001:00004970       _wrap_is_name_defined_locally 0000000180005970 f   name.obj
 0001:00004da0       _wrap_cleanup_name         0000000180005da0 f   name.obj
 0001:00005140       _wrap_get_debug_names      0000000180006140 f   name.obj
 0001:00005410       _wrap_get_ea_name          0000000180006410 f   name.obj
 0001:00005610       _wrap_validate_name        0000000180006610 f   name.obj
 0001:00005a20       _p_relobj_tTo_p_qvectorT_unsigned_char_t 0000000180006a20 f   name.obj
 0001:00005a20       _p_bytevec_tTo_p_qvectorT_unsigned_char_t 0000000180006a20 f   name.obj
 0001:00005a20       _p_reloc_info_tTo_p_qvectorT_unsigned_char_t 0000000180006a20 f   name.obj
 0001:00005a30       SwigPyObject_repr2         0000000180006a30 f   name.obj
 0001:00005a40       SwigPyObject_append        0000000180006a40 f   name.obj
 0001:00005aa0       SwigPyObject_next          0000000180006aa0 f   name.obj
 0001:00005ac0       SwigPyObject_disown        0000000180006ac0 f   name.obj
 0001:00005ae0       SwigPyObject_acquire       0000000180006ae0 f   name.obj
 0001:00005b00       SwigPyObject_own           0000000180006b00 f   name.obj
 0001:00005bb0       _wrap_new_ea_name_vec_t    0000000180006bb0 f   name.obj
 0001:00005db0       _wrap_delete_ea_name_vec_t 0000000180006db0 f   name.obj
 0001:00005ee0       _wrap_ea_name_vec_t_push_back 0000000180006ee0 f   name.obj
 0001:00006210       _wrap_ea_name_vec_t_pop_back 0000000180007210 f   name.obj
 0001:00006340       _wrap_ea_name_vec_t_size   0000000180007340 f   name.obj
 0001:00006470       _wrap_ea_name_vec_t_empty  0000000180007470 f   name.obj
 0001:000065a0       _wrap_ea_name_vec_t_at     00000001800075a0 f   name.obj
 0001:00006770       _wrap_ea_name_vec_t_qclear 0000000180007770 f   name.obj
 0001:000068b0       _wrap_ea_name_vec_t_clear  00000001800078b0 f   name.obj
 0001:000069d0       _wrap_ea_name_vec_t_resize 00000001800079d0 f   name.obj
 0001:00006dc0       _wrap_ea_name_vec_t_grow   0000000180007dc0 f   name.obj
 0001:00007090       _wrap_ea_name_vec_t_capacity 0000000180008090 f   name.obj
 0001:000071c0       _wrap_ea_name_vec_t_reserve 00000001800081c0 f   name.obj
 0001:000073a0       _wrap_ea_name_vec_t_truncate 00000001800083a0 f   name.obj
 0001:000074d0       _wrap_ea_name_vec_t_swap   00000001800084d0 f   name.obj
 0001:00007720       _wrap_ea_name_vec_t_extract 0000000180008720 f   name.obj
 0001:00007880       _wrap_ea_name_vec_t_inject 0000000180008880 f   name.obj
 0001:00007b30       _wrap_ea_name_vec_t_begin  0000000180008b30 f   name.obj
 0001:00007db0       _wrap_ea_name_vec_t_end    0000000180008db0 f   name.obj
 0001:00008030       _wrap_ea_name_vec_t_insert 0000000180009030 f   name.obj
 0001:000083b0       _wrap_ea_name_vec_t_erase  00000001800093b0 f   name.obj
 0001:000087e0       _wrap_ea_name_vec_t___len__ 00000001800097e0 f   name.obj
 0001:00008910       _wrap_ea_name_vec_t___getitem__ 0000000180009910 f   name.obj
 0001:00008b10       _wrap_ea_name_vec_t___setitem__ 0000000180009b10 f   name.obj
 0001:00008e20       ea_name_vec_t_swigregister 0000000180009e20 f   name.obj
 0001:00008eb0       _wrap_get_name             0000000180009eb0 f   name.obj
 0001:00009040       _wrap_get_colored_name     000000018000a040 f   name.obj
 0001:000091d0       _wrap_set_name             000000018000a1d0 f   name.obj
 0001:000094f0       _wrap_force_name           000000018000a4f0 f   name.obj
 0001:00009820       _wrap_del_global_name      000000018000a820 f   name.obj
 0001:00009900       _wrap_del_local_name       000000018000a900 f   name.obj
 0001:000099e0       _wrap_set_dummy_name       000000018000a9e0 f   name.obj
 0001:00009b30       _wrap_make_name_auto       000000018000ab30 f   name.obj
 0001:00009c00       _wrap_make_name_user       000000018000ac00 f   name.obj
 0001:00009cd0       _wrap_is_valid_cp          000000018000acd0 f   name.obj
 0001:00009eb0       _wrap_set_cp_validity      000000018000aeb0 f   name.obj
 0001:0000a100       _wrap_is_ident_cp          000000018000b100 f   name.obj
 0001:0000a1f0       _wrap_is_strlit_cp         000000018000b1f0 f   name.obj
 0001:0000a3d0       _wrap_is_visible_cp        000000018000b3d0 f   name.obj
 0001:0000a4c0       _wrap_is_ident             000000018000b4c0 f   name.obj
 0001:0000a700       _wrap_is_uname             000000018000b700 f   name.obj
 0001:0000a940       _wrap_is_valid_typename    000000018000b940 f   name.obj
 0001:0000af60       ?SWIG_AsVal_unsigned_SS_int@@YAHPEAU_object@@PEAI@Z 000000018000bf60 f   name.obj
 0001:0000afd0       ?SWIG_FromCharPtr@@YAPEAU_object@@PEBD@Z 000000018000bfd0 f   name.obj
 0001:0000b070       ?SWIG_Python_AppendOutput@@YAPEAU_object@@PEAU1@0@Z 000000018000c070 f   name.obj
 0001:0000b110       ?SWIG_Python_ErrorType@@YAPEAU_object@@H@Z 000000018000c110 f   name.obj
 0001:0000b1ac       $LN17                      000000018000c1ac     name.obj
 0001:0000b1e0       ?SWIG_Python_RaiseOrModifyTypeError@@YAXPEBD@Z 000000018000c1e0 f   name.obj
 0001:0000b2a0       ?SWIG_Python_UnpackTuple@@YA_JPEAU_object@@PEBD_J2PEAPEAU1@@Z 000000018000c2a0 f   name.obj
 0001:0000b470       ?__raise_e@@YAXAEBVexception@std@@@Z 000000018000c470 f   name.obj
 0001:0000b4b0       ?__raise_ie@@YAXAEBUinterr_exc_t@@@Z 000000018000c4b0 f   name.obj
 0001:0000bd50       SWIG_InitializeModule      000000018000cd50 f   name.obj
 0001:0000c070       SWIG_MangledTypeQueryModule 000000018000d070 f   name.obj
 0001:0000c140       SWIG_Python_DestroyModule  000000018000d140 f   name.obj
 0001:0000c230       SWIG_Python_FixMethods     000000018000d230 f   name.obj
 0001:0000c470       SWIG_Python_GetSwigThis    000000018000d470 f   name.obj
 0001:0000c500       SWIG_Python_InitShadowInstance 000000018000d500 f   name.obj
 0001:0000c600       SWIG_Python_NewPointerObj  000000018000d600 f   name.obj
 0001:0000c820       SWIG_Python_TypeCache      000000018000d820 f   name.obj
 0001:0000c890       SWIG_Python_TypeQuery      000000018000d890 f   name.obj
 0001:0000cad0       SWIG_This                  000000018000dad0 f   name.obj
 0001:0000cb00       SWIG_TypeCheck             000000018000db00 f   name.obj
 0001:0000cba0       SWIG_TypeClientData        000000018000dba0 f   name.obj
 0001:0000cbf0       SwigPyClientData_New       000000018000dbf0 f   name.obj
 0001:0000cd00       SwigPyObject_Check         000000018000dd00 f   name.obj
 0001:0000cd80       SwigPyObject_New           000000018000dd80 f   name.obj
 0001:0000cdd0       SwigPyObject_dealloc       000000018000ddd0 f   name.obj
 0001:0000cf60       SwigPyObject_long          000000018000df60 f   name.obj
 0001:0000cf70       SwigPyObject_repr          000000018000df70 f   name.obj
 0001:0000d030       SwigPyObject_richcompare   000000018000e030 f   name.obj
 0001:0000d080       SwigPyObject_type          000000018000e080 f   name.obj
 0001:0000d1c0       SwigPyPacked_Check         000000018000e1c0 f   name.obj
 0001:0000d240       SwigPyPacked_dealloc       000000018000e240 f   name.obj
 0001:0000d270       SwigPyPacked_repr          000000018000e270 f   name.obj
 0001:0000d370       SwigPyPacked_str           000000018000e370 f   name.obj
 0001:0000d470       SwigPyPacked_type          000000018000e470 f   name.obj
 0001:0000d5b0       Swig_var_ignore_glabel_get 000000018000e5b0 f   name.obj
 0001:0000d5c0       Swig_var_ignore_glabel_set 000000018000e5c0 f   name.obj
 0001:0000d610       Swig_var_ignore_llabel_get 000000018000e610 f   name.obj
 0001:0000d620       Swig_var_ignore_llabel_set 000000018000e620 f   name.obj
 0001:0000d670       Swig_var_ignore_none_get   000000018000e670 f   name.obj
 0001:0000d680       Swig_var_ignore_none_set   000000018000e680 f   name.obj
 0001:0000d6d0       Swig_var_ignore_regvar_get 000000018000e6d0 f   name.obj
 0001:0000d6e0       Swig_var_ignore_regvar_set 000000018000e6e0 f   name.obj
 0001:0000d730       Swig_var_ignore_stkvar_get 000000018000e730 f   name.obj
 0001:0000d740       Swig_var_ignore_stkvar_set 000000018000e740 f   name.obj
 0001:0000d7a0       _wrap_ea_name_vec_t_begin__SWIG_0 000000018000e7a0 f   name.obj
 0001:0000d8d0       _wrap_ea_name_vec_t_begin__SWIG_1 000000018000e8d0 f   name.obj
 0001:0000da00       _wrap_ea_name_vec_t_end__SWIG_0 000000018000ea00 f   name.obj
 0001:0000db40       _wrap_ea_name_vec_t_end__SWIG_1 000000018000eb40 f   name.obj
 0001:0000dc80       _wrap_ea_name_vec_t_erase__SWIG_0 000000018000ec80 f   name.obj
 0001:0000dec0       _wrap_ea_name_vec_t_erase__SWIG_1 000000018000eec0 f   name.obj
 0001:0000e1f0       _wrap_ea_name_vec_t_push_back__SWIG_0 000000018000f1f0 f   name.obj
 0001:0000e460       _wrap_ea_name_vec_t_push_back__SWIG_1 000000018000f460 f   name.obj
 0001:0000e5e0       _wrap_ea_name_vec_t_resize__SWIG_0 000000018000f5e0 f   name.obj
 0001:0000e880       _wrap_ea_name_vec_t_resize__SWIG_1 000000018000f880 f   name.obj
 0001:0000ea60       _wrap_get_debug_names__SWIG_0 000000018000fa60 f   name.obj
 0001:0000ec10       _wrap_get_debug_names__SWIG_1 000000018000fc10 f   name.obj
 0001:0000ede0       _wrap_new_ea_name_t__SWIG_0 000000018000fde0 f   name.obj
 0001:0000ee50       _wrap_new_ea_name_t__SWIG_1 000000018000fe50 f   name.obj
 0001:0000f010       _wrap_new_ea_name_vec_t__SWIG_0 0000000180010010 f   name.obj
 0001:0000f070       _wrap_new_ea_name_vec_t__SWIG_1 0000000180010070 f   name.obj
 0001:0000f2b0       swig_varlink_dealloc       00000001800102b0 f   name.obj
 0001:0000f300       swig_varlink_getattr       0000000180010300 f   name.obj
 0001:0000f3a0       swig_varlink_repr          00000001800103a0 f   name.obj
 0001:0000f3b0       swig_varlink_setattr       00000001800103b0 f   name.obj
 0001:0000f450       swig_varlink_str           0000000180010450 f   name.obj
 0001:0000f6cc       ?__scrt_initialize_thread_safe_statics@@YAHXZ 00000001800106cc f   MSVCRT:thread_safe_statics.obj
 0001:0000f82c       ?__scrt_uninitialize_thread_safe_statics@@YAXXZ 000000018001082c f   MSVCRT:thread_safe_statics.obj
 0001:0000fae0       $$000000                   0000000180010ae0     MSVCRT:amdsecgs.obj
 0001:0000fb40       ?dllmain_crt_dispatch@@YAHQEAUHINSTANCE__@@KQEAX@Z 0000000180010b40 f   MSVCRT:dll_dllmain.obj
 0001:0000fb90       ?dllmain_crt_process_attach@@YAHQEAUHINSTANCE__@@QEAX@Z 0000000180010b90 f   MSVCRT:dll_dllmain.obj
 0001:0000fcac       ?dllmain_crt_process_detach@@YAH_N@Z 0000000180010cac f   MSVCRT:dll_dllmain.obj
 0001:0000fd3c       ?dllmain_dispatch@@YAHQEAUHINSTANCE__@@KQEAX@Z 0000000180010d3c f   MSVCRT:dll_dllmain.obj
 0001:000105fc       capture_previous_context   00000001800115fc f   MSVCRT:gs_report.obj
 0001:00010a30       $$000000                   0000000180011a30     MSVCRT:guard_dispatch.obj
 0001:00010a50       _wrap_append_struct_fields$catch$15 0000000180011a50 f   name.obj
 0001:00010a5d       __catch$_wrap_append_struct_fields$6 0000000180011a5d f   name.obj
 0001:00010a83       _wrap_append_struct_fields$catch$14 0000000180011a83 f   name.obj
 0001:00010a90       __catch$_wrap_append_struct_fields$8 0000000180011a90 f   name.obj
 0001:00010abf       _wrap_append_struct_fields$catch$13 0000000180011abf f   name.obj
 0001:00010acc       __catch$_wrap_append_struct_fields$10 0000000180011acc f   name.obj
 0001:00010ae7       _wrap_append_struct_fields$catch$12 0000000180011ae7 f   name.obj
 0001:00010af4       __catch$_wrap_append_struct_fields$12 0000000180011af4 f   name.obj
 0001:00010b0f       _wrap_append_struct_fields$catch$11 0000000180011b0f f   name.obj
 0001:00010b1c       __catch$_wrap_append_struct_fields$14 0000000180011b1c f   name.obj
 0001:00010b4b       _wrap_append_struct_fields$catch$10 0000000180011b4b f   name.obj
 0001:00010b58       __catch$_wrap_append_struct_fields$16 0000000180011b58 f   name.obj
 0001:00010b80       _wrap_append_struct_fields$dtor$0 0000000180011b80 f   name.obj
 0001:00010b90       _wrap_append_struct_fields$dtor$1 0000000180011b90 f   name.obj
 0001:00010ba0       _wrap_cleanup_name$catch$8 0000000180011ba0 f   name.obj
 0001:00010bad       __catch$_wrap_cleanup_name$4 0000000180011bad f   name.obj
 0001:00010bd3       _wrap_cleanup_name$catch$7 0000000180011bd3 f   name.obj
 0001:00010be0       __catch$_wrap_cleanup_name$6 0000000180011be0 f   name.obj
 0001:00010c0f       _wrap_cleanup_name$catch$6 0000000180011c0f f   name.obj
 0001:00010c1c       __catch$_wrap_cleanup_name$8 0000000180011c1c f   name.obj
 0001:00010c37       _wrap_cleanup_name$catch$5 0000000180011c37 f   name.obj
 0001:00010c44       __catch$_wrap_cleanup_name$10 0000000180011c44 f   name.obj
 0001:00010c5f       _wrap_cleanup_name$catch$4 0000000180011c5f f   name.obj
 0001:00010c6c       __catch$_wrap_cleanup_name$12 0000000180011c6c f   name.obj
 0001:00010c98       _wrap_cleanup_name$catch$3 0000000180011c98 f   name.obj
 0001:00010ca5       __catch$_wrap_cleanup_name$14 0000000180011ca5 f   name.obj
 0001:00010cd0       _wrap_cleanup_name$dtor$0  0000000180011cd0 f   name.obj
 0001:00010cd0       _wrap_get_colored_name$dtor$1 0000000180011cd0 f   name.obj
 0001:00010cd0       _wrap_demangle_name$dtor$0 0000000180011cd0 f   name.obj
 0001:00010cd0       _wrap_get_name$dtor$1      0000000180011cd0 f   name.obj
 0001:00010ce0       _wrap_del_debug_names$catch$5 0000000180011ce0 f   name.obj
 0001:00010ced       __catch$_wrap_del_debug_names$3 0000000180011ced f   name.obj
 0001:00010d13       _wrap_del_debug_names$catch$4 0000000180011d13 f   name.obj
 0001:00010d20       __catch$_wrap_del_debug_names$5 0000000180011d20 f   name.obj
 0001:00010d4c       _wrap_del_debug_names$catch$3 0000000180011d4c f   name.obj
 0001:00010d59       __catch$_wrap_del_debug_names$7 0000000180011d59 f   name.obj
 0001:00010d71       _wrap_del_debug_names$catch$2 0000000180011d71 f   name.obj
 0001:00010d7e       __catch$_wrap_del_debug_names$9 0000000180011d7e f   name.obj
 0001:00010d96       _wrap_del_debug_names$catch$1 0000000180011d96 f   name.obj
 0001:00010da3       __catch$_wrap_del_debug_names$11 0000000180011da3 f   name.obj
 0001:00010dcf       _wrap_del_debug_names$catch$0 0000000180011dcf f   name.obj
 0001:00010ddc       __catch$_wrap_del_debug_names$13 0000000180011ddc f   name.obj
 0001:00010e10       _wrap_del_global_name$catch$5 0000000180011e10 f   name.obj
 0001:00010e1d       __catch$_wrap_del_global_name$2 0000000180011e1d f   name.obj
 0001:00010e43       _wrap_del_global_name$catch$4 0000000180011e43 f   name.obj
 0001:00010e50       __catch$_wrap_del_global_name$4 0000000180011e50 f   name.obj
 0001:00010e7c       _wrap_del_global_name$catch$3 0000000180011e7c f   name.obj
 0001:00010e89       __catch$_wrap_del_global_name$6 0000000180011e89 f   name.obj
 0001:00010ea1       _wrap_del_global_name$catch$2 0000000180011ea1 f   name.obj
 0001:00010eae       __catch$_wrap_del_global_name$8 0000000180011eae f   name.obj
 0001:00010ec6       _wrap_del_global_name$catch$1 0000000180011ec6 f   name.obj
 0001:00010ed3       __catch$_wrap_del_global_name$10 0000000180011ed3 f   name.obj
 0001:00010eff       _wrap_del_global_name$catch$0 0000000180011eff f   name.obj
 0001:00010f0c       __catch$_wrap_del_global_name$12 0000000180011f0c f   name.obj
 0001:00010f40       _wrap_del_local_name$catch$5 0000000180011f40 f   name.obj
 0001:00010f4d       __catch$_wrap_del_local_name$2 0000000180011f4d f   name.obj
 0001:00010f73       _wrap_del_local_name$catch$4 0000000180011f73 f   name.obj
 0001:00010f80       __catch$_wrap_del_local_name$4 0000000180011f80 f   name.obj
 0001:00010fac       _wrap_del_local_name$catch$3 0000000180011fac f   name.obj
 0001:00010fb9       __catch$_wrap_del_local_name$6 0000000180011fb9 f   name.obj
 0001:00010fd1       _wrap_del_local_name$catch$2 0000000180011fd1 f   name.obj
 0001:00010fde       __catch$_wrap_del_local_name$8 0000000180011fde f   name.obj
 0001:00010ff6       _wrap_del_local_name$catch$1 0000000180011ff6 f   name.obj
 0001:00011003       __catch$_wrap_del_local_name$10 0000000180012003 f   name.obj
 0001:0001102f       _wrap_del_local_name$catch$0 000000018001202f f   name.obj
 0001:0001103c       __catch$_wrap_del_local_name$12 000000018001203c f   name.obj
 0001:00011070       _wrap_delete_ea_name_t$catch$7 0000000180012070 f   name.obj
 0001:0001107d       __catch$_wrap_delete_ea_name_t$2 000000018001207d f   name.obj
 0001:000110a3       _wrap_delete_ea_name_t$catch$6 00000001800120a3 f   name.obj
 0001:000110b0       __catch$_wrap_delete_ea_name_t$4 00000001800120b0 f   name.obj
 0001:000110dc       _wrap_delete_ea_name_t$catch$5 00000001800120dc f   name.obj
 0001:000110e9       __catch$_wrap_delete_ea_name_t$6 00000001800120e9 f   name.obj
 0001:00011101       _wrap_delete_ea_name_t$catch$4 0000000180012101 f   name.obj
 0001:0001110e       __catch$_wrap_delete_ea_name_t$8 000000018001210e f   name.obj
 0001:00011126       _wrap_delete_ea_name_t$catch$3 0000000180012126 f   name.obj
 0001:00011133       __catch$_wrap_delete_ea_name_t$10 0000000180012133 f   name.obj
 0001:0001115f       _wrap_delete_ea_name_t$catch$2 000000018001215f f   name.obj
 0001:0001116c       __catch$_wrap_delete_ea_name_t$12 000000018001216c f   name.obj
 0001:000111a0       _wrap_delete_ea_name_vec_t$catch$5 00000001800121a0 f   name.obj
 0001:000111ad       __catch$_wrap_delete_ea_name_vec_t$2 00000001800121ad f   name.obj
 0001:000111d3       _wrap_delete_ea_name_vec_t$catch$4 00000001800121d3 f   name.obj
 0001:000111e0       __catch$_wrap_delete_ea_name_vec_t$4 00000001800121e0 f   name.obj
 0001:0001120c       _wrap_delete_ea_name_vec_t$catch$3 000000018001220c f   name.obj
 0001:00011219       __catch$_wrap_delete_ea_name_vec_t$6 0000000180012219 f   name.obj
 0001:00011231       _wrap_delete_ea_name_vec_t$catch$2 0000000180012231 f   name.obj
 0001:0001123e       __catch$_wrap_delete_ea_name_vec_t$8 000000018001223e f   name.obj
 0001:00011256       _wrap_delete_ea_name_vec_t$catch$1 0000000180012256 f   name.obj
 0001:00011263       __catch$_wrap_delete_ea_name_vec_t$10 0000000180012263 f   name.obj
 0001:0001128f       _wrap_delete_ea_name_vec_t$catch$0 000000018001228f f   name.obj
 0001:0001129c       __catch$_wrap_delete_ea_name_vec_t$12 000000018001229c f   name.obj
 0001:000112d0       _wrap_demangle_name$catch$8 00000001800122d0 f   name.obj
 0001:000112dd       __catch$_wrap_demangle_name$4 00000001800122dd f   name.obj
 0001:00011303       _wrap_demangle_name$catch$7 0000000180012303 f   name.obj
 0001:00011310       __catch$_wrap_demangle_name$6 0000000180012310 f   name.obj
 0001:0001133f       _wrap_demangle_name$catch$6 000000018001233f f   name.obj
 0001:0001134c       __catch$_wrap_demangle_name$8 000000018001234c f   name.obj
 0001:00011367       _wrap_demangle_name$catch$5 0000000180012367 f   name.obj
 0001:00011374       __catch$_wrap_demangle_name$10 0000000180012374 f   name.obj
 0001:0001138c       _wrap_demangle_name$catch$4 000000018001238c f   name.obj
 0001:00011399       __catch$_wrap_demangle_name$12 0000000180012399 f   name.obj
 0001:000113c5       _wrap_demangle_name$catch$3 00000001800123c5 f   name.obj
 0001:000113d2       __catch$_wrap_demangle_name$14 00000001800123d2 f   name.obj
 0001:00011400       _wrap_ea_name_vec_t___getitem__$catch$0 0000000180012400 f   name.obj
 0001:0001140d       __catch$_wrap_ea_name_vec_t___getitem__$3 000000018001240d f   name.obj
 0001:00011433       _wrap_ea_name_vec_t___getitem__$catch$1 0000000180012433 f   name.obj
 0001:00011440       __catch$_wrap_ea_name_vec_t___getitem__$5 0000000180012440 f   name.obj
 0001:0001146c       _wrap_ea_name_vec_t___getitem__$catch$2 000000018001246c f   name.obj
 0001:00011479       __catch$_wrap_ea_name_vec_t___getitem__$7 0000000180012479 f   name.obj
 0001:00011491       _wrap_ea_name_vec_t___getitem__$catch$3 0000000180012491 f   name.obj
 0001:0001149e       __catch$_wrap_ea_name_vec_t___getitem__$9 000000018001249e f   name.obj
 0001:000114b6       _wrap_ea_name_vec_t___getitem__$catch$4 00000001800124b6 f   name.obj
 0001:000114c3       __catch$_wrap_ea_name_vec_t___getitem__$11 00000001800124c3 f   name.obj
 0001:000114ef       _wrap_ea_name_vec_t___getitem__$catch$5 00000001800124ef f   name.obj
 0001:000114fc       __catch$_wrap_ea_name_vec_t___getitem__$13 00000001800124fc f   name.obj
 0001:00011530       _wrap_ea_name_vec_t___len__$catch$5 0000000180012530 f   name.obj
 0001:0001153d       __catch$_wrap_ea_name_vec_t___len__$2 000000018001253d f   name.obj
 0001:00011563       _wrap_ea_name_vec_t___len__$catch$4 0000000180012563 f   name.obj
 0001:00011570       __catch$_wrap_ea_name_vec_t___len__$4 0000000180012570 f   name.obj
 0001:0001159c       _wrap_ea_name_vec_t___len__$catch$3 000000018001259c f   name.obj
 0001:000115a9       __catch$_wrap_ea_name_vec_t___len__$6 00000001800125a9 f   name.obj
 0001:000115c1       _wrap_ea_name_vec_t___len__$catch$2 00000001800125c1 f   name.obj
 0001:000115ce       __catch$_wrap_ea_name_vec_t___len__$8 00000001800125ce f   name.obj
 0001:000115e6       _wrap_ea_name_vec_t___len__$catch$1 00000001800125e6 f   name.obj
 0001:000115f3       __catch$_wrap_ea_name_vec_t___len__$10 00000001800125f3 f   name.obj
 0001:0001161f       _wrap_ea_name_vec_t___len__$catch$0 000000018001261f f   name.obj
 0001:0001162c       __catch$_wrap_ea_name_vec_t___len__$12 000000018001262c f   name.obj
 0001:00011660       _wrap_ea_name_vec_t___setitem__$catch$0 0000000180012660 f   name.obj
 0001:0001166d       __catch$_wrap_ea_name_vec_t___setitem__$5 000000018001266d f   name.obj
 0001:00011693       _wrap_ea_name_vec_t___setitem__$catch$1 0000000180012693 f   name.obj
 0001:000116a0       __catch$_wrap_ea_name_vec_t___setitem__$7 00000001800126a0 f   name.obj
 0001:000116cc       _wrap_ea_name_vec_t___setitem__$catch$2 00000001800126cc f   name.obj
 0001:000116d9       __catch$_wrap_ea_name_vec_t___setitem__$9 00000001800126d9 f   name.obj
 0001:000116f1       _wrap_ea_name_vec_t___setitem__$catch$3 00000001800126f1 f   name.obj
 0001:000116fe       __catch$_wrap_ea_name_vec_t___setitem__$11 00000001800126fe f   name.obj
 0001:00011716       _wrap_ea_name_vec_t___setitem__$catch$4 0000000180012716 f   name.obj
 0001:00011723       __catch$_wrap_ea_name_vec_t___setitem__$13 0000000180012723 f   name.obj
 0001:0001174f       _wrap_ea_name_vec_t___setitem__$catch$5 000000018001274f f   name.obj
 0001:0001175c       __catch$_wrap_ea_name_vec_t___setitem__$15 000000018001275c f   name.obj
 0001:00011790       _wrap_ea_name_vec_t_at$catch$5 0000000180012790 f   name.obj
 0001:0001179d       __catch$_wrap_ea_name_vec_t_at$3 000000018001279d f   name.obj
 0001:000117c3       _wrap_ea_name_vec_t_at$catch$4 00000001800127c3 f   name.obj
 0001:000117d0       __catch$_wrap_ea_name_vec_t_at$5 00000001800127d0 f   name.obj
 0001:000117fc       _wrap_ea_name_vec_t_at$catch$3 00000001800127fc f   name.obj
 0001:00011809       __catch$_wrap_ea_name_vec_t_at$7 0000000180012809 f   name.obj
 0001:00011821       _wrap_ea_name_vec_t_at$catch$2 0000000180012821 f   name.obj
 0001:0001182e       __catch$_wrap_ea_name_vec_t_at$9 000000018001282e f   name.obj
 0001:00011846       _wrap_ea_name_vec_t_at$catch$1 0000000180012846 f   name.obj
 0001:00011853       __catch$_wrap_ea_name_vec_t_at$11 0000000180012853 f   name.obj
 0001:0001187f       _wrap_ea_name_vec_t_at$catch$0 000000018001287f f   name.obj
 0001:0001188c       __catch$_wrap_ea_name_vec_t_at$13 000000018001288c f   name.obj
 0001:000118c0       _wrap_ea_name_vec_t_begin__SWIG_0$catch$5 00000001800128c0 f   name.obj
 0001:000118cd       __catch$_wrap_ea_name_vec_t_begin__SWIG_0$2 00000001800128cd f   name.obj
 0001:000118f3       _wrap_ea_name_vec_t_begin__SWIG_0$catch$4 00000001800128f3 f   name.obj
 0001:00011900       __catch$_wrap_ea_name_vec_t_begin__SWIG_0$4 0000000180012900 f   name.obj
 0001:0001192c       _wrap_ea_name_vec_t_begin__SWIG_0$catch$3 000000018001292c f   name.obj
 0001:00011939       __catch$_wrap_ea_name_vec_t_begin__SWIG_0$6 0000000180012939 f   name.obj
 0001:00011951       _wrap_ea_name_vec_t_begin__SWIG_0$catch$2 0000000180012951 f   name.obj
 0001:0001195e       __catch$_wrap_ea_name_vec_t_begin__SWIG_0$8 000000018001295e f   name.obj
 0001:00011976       _wrap_ea_name_vec_t_begin__SWIG_0$catch$1 0000000180012976 f   name.obj
 0001:00011983       __catch$_wrap_ea_name_vec_t_begin__SWIG_0$10 0000000180012983 f   name.obj
 0001:000119af       _wrap_ea_name_vec_t_begin__SWIG_0$catch$0 00000001800129af f   name.obj
 0001:000119bc       __catch$_wrap_ea_name_vec_t_begin__SWIG_0$12 00000001800129bc f   name.obj
 0001:000119f0       _wrap_ea_name_vec_t_begin__SWIG_1$catch$5 00000001800129f0 f   name.obj
 0001:000119fd       __catch$_wrap_ea_name_vec_t_begin__SWIG_1$2 00000001800129fd f   name.obj
 0001:00011a23       _wrap_ea_name_vec_t_begin__SWIG_1$catch$4 0000000180012a23 f   name.obj
 0001:00011a30       __catch$_wrap_ea_name_vec_t_begin__SWIG_1$4 0000000180012a30 f   name.obj
 0001:00011a5c       _wrap_ea_name_vec_t_begin__SWIG_1$catch$3 0000000180012a5c f   name.obj
 0001:00011a69       __catch$_wrap_ea_name_vec_t_begin__SWIG_1$6 0000000180012a69 f   name.obj
 0001:00011a81       _wrap_ea_name_vec_t_begin__SWIG_1$catch$2 0000000180012a81 f   name.obj
 0001:00011a8e       __catch$_wrap_ea_name_vec_t_begin__SWIG_1$8 0000000180012a8e f   name.obj
 0001:00011aa6       _wrap_ea_name_vec_t_begin__SWIG_1$catch$1 0000000180012aa6 f   name.obj
 0001:00011ab3       __catch$_wrap_ea_name_vec_t_begin__SWIG_1$10 0000000180012ab3 f   name.obj
 0001:00011adf       _wrap_ea_name_vec_t_begin__SWIG_1$catch$0 0000000180012adf f   name.obj
 0001:00011aec       __catch$_wrap_ea_name_vec_t_begin__SWIG_1$12 0000000180012aec f   name.obj
 0001:00011b20       _wrap_ea_name_vec_t_capacity$catch$5 0000000180012b20 f   name.obj
 0001:00011b2d       __catch$_wrap_ea_name_vec_t_capacity$2 0000000180012b2d f   name.obj
 0001:00011b53       _wrap_ea_name_vec_t_capacity$catch$4 0000000180012b53 f   name.obj
 0001:00011b60       __catch$_wrap_ea_name_vec_t_capacity$4 0000000180012b60 f   name.obj
 0001:00011b8c       _wrap_ea_name_vec_t_capacity$catch$3 0000000180012b8c f   name.obj
 0001:00011b99       __catch$_wrap_ea_name_vec_t_capacity$6 0000000180012b99 f   name.obj
 0001:00011bb1       _wrap_ea_name_vec_t_capacity$catch$2 0000000180012bb1 f   name.obj
 0001:00011bbe       __catch$_wrap_ea_name_vec_t_capacity$8 0000000180012bbe f   name.obj
 0001:00011bd6       _wrap_ea_name_vec_t_capacity$catch$1 0000000180012bd6 f   name.obj
 0001:00011be3       __catch$_wrap_ea_name_vec_t_capacity$10 0000000180012be3 f   name.obj
 0001:00011c0f       _wrap_ea_name_vec_t_capacity$catch$0 0000000180012c0f f   name.obj
 0001:00011c1c       __catch$_wrap_ea_name_vec_t_capacity$12 0000000180012c1c f   name.obj
 0001:00011c50       _wrap_ea_name_vec_t_clear$catch$5 0000000180012c50 f   name.obj
 0001:00011c5d       __catch$_wrap_ea_name_vec_t_clear$2 0000000180012c5d f   name.obj
 0001:00011c83       _wrap_ea_name_vec_t_clear$catch$4 0000000180012c83 f   name.obj
 0001:00011c90       __catch$_wrap_ea_name_vec_t_clear$4 0000000180012c90 f   name.obj
 0001:00011cbc       _wrap_ea_name_vec_t_clear$catch$3 0000000180012cbc f   name.obj
 0001:00011cc9       __catch$_wrap_ea_name_vec_t_clear$6 0000000180012cc9 f   name.obj
 0001:00011ce1       _wrap_ea_name_vec_t_clear$catch$2 0000000180012ce1 f   name.obj
 0001:00011cee       __catch$_wrap_ea_name_vec_t_clear$8 0000000180012cee f   name.obj
 0001:00011d06       _wrap_ea_name_vec_t_clear$catch$1 0000000180012d06 f   name.obj
 0001:00011d13       __catch$_wrap_ea_name_vec_t_clear$10 0000000180012d13 f   name.obj
 0001:00011d3f       _wrap_ea_name_vec_t_clear$catch$0 0000000180012d3f f   name.obj
 0001:00011d4c       __catch$_wrap_ea_name_vec_t_clear$12 0000000180012d4c f   name.obj
 0001:00011d80       _wrap_ea_name_vec_t_empty$catch$5 0000000180012d80 f   name.obj
 0001:00011d8d       __catch$_wrap_ea_name_vec_t_empty$2 0000000180012d8d f   name.obj
 0001:00011db3       _wrap_ea_name_vec_t_empty$catch$4 0000000180012db3 f   name.obj
 0001:00011dc0       __catch$_wrap_ea_name_vec_t_empty$4 0000000180012dc0 f   name.obj
 0001:00011dec       _wrap_ea_name_vec_t_empty$catch$3 0000000180012dec f   name.obj
 0001:00011df9       __catch$_wrap_ea_name_vec_t_empty$6 0000000180012df9 f   name.obj
 0001:00011e11       _wrap_ea_name_vec_t_empty$catch$2 0000000180012e11 f   name.obj
 0001:00011e1e       __catch$_wrap_ea_name_vec_t_empty$8 0000000180012e1e f   name.obj
 0001:00011e36       _wrap_ea_name_vec_t_empty$catch$1 0000000180012e36 f   name.obj
 0001:00011e43       __catch$_wrap_ea_name_vec_t_empty$10 0000000180012e43 f   name.obj
 0001:00011e6f       _wrap_ea_name_vec_t_empty$catch$0 0000000180012e6f f   name.obj
 0001:00011e7c       __catch$_wrap_ea_name_vec_t_empty$12 0000000180012e7c f   name.obj
 0001:00011eb0       _wrap_ea_name_vec_t_end__SWIG_0$catch$5 0000000180012eb0 f   name.obj
 0001:00011ebd       __catch$_wrap_ea_name_vec_t_end__SWIG_0$2 0000000180012ebd f   name.obj
 0001:00011ee3       _wrap_ea_name_vec_t_end__SWIG_0$catch$4 0000000180012ee3 f   name.obj
 0001:00011ef0       __catch$_wrap_ea_name_vec_t_end__SWIG_0$4 0000000180012ef0 f   name.obj
 0001:00011f1c       _wrap_ea_name_vec_t_end__SWIG_0$catch$3 0000000180012f1c f   name.obj
 0001:00011f29       __catch$_wrap_ea_name_vec_t_end__SWIG_0$6 0000000180012f29 f   name.obj
 0001:00011f41       _wrap_ea_name_vec_t_end__SWIG_0$catch$2 0000000180012f41 f   name.obj
 0001:00011f4e       __catch$_wrap_ea_name_vec_t_end__SWIG_0$8 0000000180012f4e f   name.obj
 0001:00011f66       _wrap_ea_name_vec_t_end__SWIG_0$catch$1 0000000180012f66 f   name.obj
 0001:00011f73       __catch$_wrap_ea_name_vec_t_end__SWIG_0$10 0000000180012f73 f   name.obj
 0001:00011f9f       _wrap_ea_name_vec_t_end__SWIG_0$catch$0 0000000180012f9f f   name.obj
 0001:00011fac       __catch$_wrap_ea_name_vec_t_end__SWIG_0$12 0000000180012fac f   name.obj
 0001:00011fe0       _wrap_ea_name_vec_t_end__SWIG_1$catch$5 0000000180012fe0 f   name.obj
 0001:00011fed       __catch$_wrap_ea_name_vec_t_end__SWIG_1$2 0000000180012fed f   name.obj
 0001:00012013       _wrap_ea_name_vec_t_end__SWIG_1$catch$4 0000000180013013 f   name.obj
 0001:00012020       __catch$_wrap_ea_name_vec_t_end__SWIG_1$4 0000000180013020 f   name.obj
 0001:0001204c       _wrap_ea_name_vec_t_end__SWIG_1$catch$3 000000018001304c f   name.obj
 0001:00012059       __catch$_wrap_ea_name_vec_t_end__SWIG_1$6 0000000180013059 f   name.obj
 0001:00012071       _wrap_ea_name_vec_t_end__SWIG_1$catch$2 0000000180013071 f   name.obj
 0001:0001207e       __catch$_wrap_ea_name_vec_t_end__SWIG_1$8 000000018001307e f   name.obj
 0001:00012096       _wrap_ea_name_vec_t_end__SWIG_1$catch$1 0000000180013096 f   name.obj
 0001:000120a3       __catch$_wrap_ea_name_vec_t_end__SWIG_1$10 00000001800130a3 f   name.obj
 0001:000120cf       _wrap_ea_name_vec_t_end__SWIG_1$catch$0 00000001800130cf f   name.obj
 0001:000120dc       __catch$_wrap_ea_name_vec_t_end__SWIG_1$12 00000001800130dc f   name.obj
 0001:00012110       _wrap_ea_name_vec_t_erase__SWIG_0$catch$9 0000000180013110 f   name.obj
 0001:0001211d       __catch$_wrap_ea_name_vec_t_erase__SWIG_0$3 000000018001311d f   name.obj
 0001:00012143       _wrap_ea_name_vec_t_erase__SWIG_0$catch$8 0000000180013143 f   name.obj
 0001:00012150       __catch$_wrap_ea_name_vec_t_erase__SWIG_0$5 0000000180013150 f   name.obj
 0001:0001217c       _wrap_ea_name_vec_t_erase__SWIG_0$catch$7 000000018001317c f   name.obj
 0001:00012189       __catch$_wrap_ea_name_vec_t_erase__SWIG_0$7 0000000180013189 f   name.obj
 0001:000121a1       _wrap_ea_name_vec_t_erase__SWIG_0$catch$6 00000001800131a1 f   name.obj
 0001:000121ae       __catch$_wrap_ea_name_vec_t_erase__SWIG_0$9 00000001800131ae f   name.obj
 0001:000121c6       _wrap_ea_name_vec_t_erase__SWIG_0$catch$5 00000001800131c6 f   name.obj
 0001:000121d3       __catch$_wrap_ea_name_vec_t_erase__SWIG_0$11 00000001800131d3 f   name.obj
 0001:000121ff       _wrap_ea_name_vec_t_erase__SWIG_0$catch$4 00000001800131ff f   name.obj
 0001:0001220c       __catch$_wrap_ea_name_vec_t_erase__SWIG_0$13 000000018001320c f   name.obj
 0001:00012240       _wrap_ea_name_vec_t_erase__SWIG_1$catch$9 0000000180013240 f   name.obj
 0001:0001224d       __catch$_wrap_ea_name_vec_t_erase__SWIG_1$4 000000018001324d f   name.obj
 0001:00012273       _wrap_ea_name_vec_t_erase__SWIG_1$catch$8 0000000180013273 f   name.obj
 0001:00012280       __catch$_wrap_ea_name_vec_t_erase__SWIG_1$6 0000000180013280 f   name.obj
 0001:000122ac       _wrap_ea_name_vec_t_erase__SWIG_1$catch$7 00000001800132ac f   name.obj
 0001:000122b9       __catch$_wrap_ea_name_vec_t_erase__SWIG_1$8 00000001800132b9 f   name.obj
 0001:000122d1       _wrap_ea_name_vec_t_erase__SWIG_1$catch$6 00000001800132d1 f   name.obj
 0001:000122de       __catch$_wrap_ea_name_vec_t_erase__SWIG_1$10 00000001800132de f   name.obj
 0001:000122f6       _wrap_ea_name_vec_t_erase__SWIG_1$catch$5 00000001800132f6 f   name.obj
 0001:00012303       __catch$_wrap_ea_name_vec_t_erase__SWIG_1$12 0000000180013303 f   name.obj
 0001:0001232f       _wrap_ea_name_vec_t_erase__SWIG_1$catch$4 000000018001332f f   name.obj
 0001:0001233c       __catch$_wrap_ea_name_vec_t_erase__SWIG_1$14 000000018001333c f   name.obj
 0001:00012370       _wrap_ea_name_vec_t_extract$catch$5 0000000180013370 f   name.obj
 0001:0001237d       __catch$_wrap_ea_name_vec_t_extract$2 000000018001337d f   name.obj
 0001:000123a3       _wrap_ea_name_vec_t_extract$catch$4 00000001800133a3 f   name.obj
 0001:000123b0       __catch$_wrap_ea_name_vec_t_extract$4 00000001800133b0 f   name.obj
 0001:000123dc       _wrap_ea_name_vec_t_extract$catch$3 00000001800133dc f   name.obj
 0001:000123e9       __catch$_wrap_ea_name_vec_t_extract$6 00000001800133e9 f   name.obj
 0001:00012401       _wrap_ea_name_vec_t_extract$catch$2 0000000180013401 f   name.obj
 0001:0001240e       __catch$_wrap_ea_name_vec_t_extract$8 000000018001340e f   name.obj
 0001:00012426       _wrap_ea_name_vec_t_extract$catch$1 0000000180013426 f   name.obj
 0001:00012433       __catch$_wrap_ea_name_vec_t_extract$10 0000000180013433 f   name.obj
 0001:0001245f       _wrap_ea_name_vec_t_extract$catch$0 000000018001345f f   name.obj
 0001:0001246c       __catch$_wrap_ea_name_vec_t_extract$12 000000018001346c f   name.obj
 0001:000124a0       _wrap_ea_name_vec_t_grow$catch$12 00000001800134a0 f   name.obj
 0001:000124ad       __catch$_wrap_ea_name_vec_t_grow$4 00000001800134ad f   name.obj
 0001:000124d3       _wrap_ea_name_vec_t_grow$catch$11 00000001800134d3 f   name.obj
 0001:000124e0       __catch$_wrap_ea_name_vec_t_grow$6 00000001800134e0 f   name.obj
 0001:0001250c       _wrap_ea_name_vec_t_grow$catch$10 000000018001350c f   name.obj
 0001:00012519       __catch$_wrap_ea_name_vec_t_grow$8 0000000180013519 f   name.obj
 0001:00012531       _wrap_ea_name_vec_t_grow$catch$9 0000000180013531 f   name.obj
 0001:0001253e       __catch$_wrap_ea_name_vec_t_grow$10 000000018001353e f   name.obj
 0001:00012556       _wrap_ea_name_vec_t_grow$catch$8 0000000180013556 f   name.obj
 0001:00012563       __catch$_wrap_ea_name_vec_t_grow$12 0000000180013563 f   name.obj
 0001:0001258f       _wrap_ea_name_vec_t_grow$catch$7 000000018001358f f   name.obj
 0001:0001259c       __catch$_wrap_ea_name_vec_t_grow$14 000000018001359c f   name.obj
 0001:000125d0       _wrap_ea_name_vec_t_grow$dtor$0 00000001800135d0 f   name.obj
 0001:000125e0       _wrap_ea_name_vec_t_inject$catch$5 00000001800135e0 f   name.obj
 0001:000125ed       __catch$_wrap_ea_name_vec_t_inject$4 00000001800135ed f   name.obj
 0001:00012613       _wrap_ea_name_vec_t_inject$catch$4 0000000180013613 f   name.obj
 0001:00012620       __catch$_wrap_ea_name_vec_t_inject$6 0000000180013620 f   name.obj
 0001:0001264c       _wrap_ea_name_vec_t_inject$catch$3 000000018001364c f   name.obj
 0001:00012659       __catch$_wrap_ea_name_vec_t_inject$8 0000000180013659 f   name.obj
 0001:00012671       _wrap_ea_name_vec_t_inject$catch$2 0000000180013671 f   name.obj
 0001:0001267e       __catch$_wrap_ea_name_vec_t_inject$10 000000018001367e f   name.obj
 0001:00012696       _wrap_ea_name_vec_t_inject$catch$1 0000000180013696 f   name.obj
 0001:000126a3       __catch$_wrap_ea_name_vec_t_inject$12 00000001800136a3 f   name.obj
 0001:000126cf       _wrap_ea_name_vec_t_inject$catch$0 00000001800136cf f   name.obj
 0001:000126dc       __catch$_wrap_ea_name_vec_t_inject$14 00000001800136dc f   name.obj
 0001:00012710       _wrap_ea_name_vec_t_insert$catch$9 0000000180013710 f   name.obj
 0001:0001271d       __catch$_wrap_ea_name_vec_t_insert$5 000000018001371d f   name.obj
 0001:00012743       _wrap_ea_name_vec_t_insert$catch$8 0000000180013743 f   name.obj
 0001:00012750       __catch$_wrap_ea_name_vec_t_insert$7 0000000180013750 f   name.obj
 0001:0001277c       _wrap_ea_name_vec_t_insert$catch$7 000000018001377c f   name.obj
 0001:00012789       __catch$_wrap_ea_name_vec_t_insert$9 0000000180013789 f   name.obj
 0001:000127a1       _wrap_ea_name_vec_t_insert$catch$6 00000001800137a1 f   name.obj
 0001:000127ae       __catch$_wrap_ea_name_vec_t_insert$11 00000001800137ae f   name.obj
 0001:000127c6       _wrap_ea_name_vec_t_insert$catch$5 00000001800137c6 f   name.obj
 0001:000127d3       __catch$_wrap_ea_name_vec_t_insert$13 00000001800137d3 f   name.obj
 0001:000127ff       _wrap_ea_name_vec_t_insert$catch$4 00000001800137ff f   name.obj
 0001:0001280c       __catch$_wrap_ea_name_vec_t_insert$15 000000018001380c f   name.obj
 0001:00012840       _wrap_ea_name_vec_t_pop_back$catch$7 0000000180013840 f   name.obj
 0001:0001284d       __catch$_wrap_ea_name_vec_t_pop_back$2 000000018001384d f   name.obj
 0001:00012873       _wrap_ea_name_vec_t_pop_back$catch$6 0000000180013873 f   name.obj
 0001:00012880       __catch$_wrap_ea_name_vec_t_pop_back$4 0000000180013880 f   name.obj
 0001:000128ac       _wrap_ea_name_vec_t_pop_back$catch$5 00000001800138ac f   name.obj
 0001:000128b9       __catch$_wrap_ea_name_vec_t_pop_back$6 00000001800138b9 f   name.obj
 0001:000128d1       _wrap_ea_name_vec_t_pop_back$catch$4 00000001800138d1 f   name.obj
 0001:000128de       __catch$_wrap_ea_name_vec_t_pop_back$8 00000001800138de f   name.obj
 0001:000128f6       _wrap_ea_name_vec_t_pop_back$catch$3 00000001800138f6 f   name.obj
 0001:00012903       __catch$_wrap_ea_name_vec_t_pop_back$10 0000000180013903 f   name.obj
 0001:0001292f       _wrap_ea_name_vec_t_pop_back$catch$2 000000018001392f f   name.obj
 0001:0001293c       __catch$_wrap_ea_name_vec_t_pop_back$12 000000018001393c f   name.obj
 0001:00012970       _wrap_ea_name_vec_t_push_back__SWIG_0$catch$7 0000000180013970 f   name.obj
 0001:0001297d       __catch$_wrap_ea_name_vec_t_push_back__SWIG_0$4 000000018001397d f   name.obj
 0001:000129a3       _wrap_ea_name_vec_t_push_back__SWIG_0$catch$6 00000001800139a3 f   name.obj
 0001:000129b0       __catch$_wrap_ea_name_vec_t_push_back__SWIG_0$6 00000001800139b0 f   name.obj
 0001:000129dc       _wrap_ea_name_vec_t_push_back__SWIG_0$catch$5 00000001800139dc f   name.obj
 0001:000129e9       __catch$_wrap_ea_name_vec_t_push_back__SWIG_0$8 00000001800139e9 f   name.obj
 0001:00012a01       _wrap_ea_name_vec_t_push_back__SWIG_0$catch$4 0000000180013a01 f   name.obj
 0001:00012a0e       __catch$_wrap_ea_name_vec_t_push_back__SWIG_0$10 0000000180013a0e f   name.obj
 0001:00012a26       _wrap_ea_name_vec_t_push_back__SWIG_0$catch$3 0000000180013a26 f   name.obj
 0001:00012a33       __catch$_wrap_ea_name_vec_t_push_back__SWIG_0$12 0000000180013a33 f   name.obj
 0001:00012a5f       _wrap_ea_name_vec_t_push_back__SWIG_0$catch$2 0000000180013a5f f   name.obj
 0001:00012a6c       __catch$_wrap_ea_name_vec_t_push_back__SWIG_0$14 0000000180013a6c f   name.obj
 0001:00012aa0       _wrap_ea_name_vec_t_push_back__SWIG_1$catch$7 0000000180013aa0 f   name.obj
 0001:00012aad       __catch$_wrap_ea_name_vec_t_push_back__SWIG_1$2 0000000180013aad f   name.obj
 0001:00012ad3       _wrap_ea_name_vec_t_push_back__SWIG_1$catch$6 0000000180013ad3 f   name.obj
 0001:00012ae0       __catch$_wrap_ea_name_vec_t_push_back__SWIG_1$4 0000000180013ae0 f   name.obj
 0001:00012b0c       _wrap_ea_name_vec_t_push_back__SWIG_1$catch$5 0000000180013b0c f   name.obj
 0001:00012b19       __catch$_wrap_ea_name_vec_t_push_back__SWIG_1$6 0000000180013b19 f   name.obj
 0001:00012b31       _wrap_ea_name_vec_t_push_back__SWIG_1$catch$4 0000000180013b31 f   name.obj
 0001:00012b3e       __catch$_wrap_ea_name_vec_t_push_back__SWIG_1$8 0000000180013b3e f   name.obj
 0001:00012b56       _wrap_ea_name_vec_t_push_back__SWIG_1$catch$3 0000000180013b56 f   name.obj
 0001:00012b63       __catch$_wrap_ea_name_vec_t_push_back__SWIG_1$10 0000000180013b63 f   name.obj
 0001:00012b8f       _wrap_ea_name_vec_t_push_back__SWIG_1$catch$2 0000000180013b8f f   name.obj
 0001:00012b9c       __catch$_wrap_ea_name_vec_t_push_back__SWIG_1$12 0000000180013b9c f   name.obj
 0001:00012bd0       _wrap_ea_name_vec_t_qclear$catch$7 0000000180013bd0 f   name.obj
 0001:00012bdd       __catch$_wrap_ea_name_vec_t_qclear$2 0000000180013bdd f   name.obj
 0001:00012c03       _wrap_ea_name_vec_t_qclear$catch$6 0000000180013c03 f   name.obj
 0001:00012c10       __catch$_wrap_ea_name_vec_t_qclear$4 0000000180013c10 f   name.obj
 0001:00012c3c       _wrap_ea_name_vec_t_qclear$catch$5 0000000180013c3c f   name.obj
 0001:00012c49       __catch$_wrap_ea_name_vec_t_qclear$6 0000000180013c49 f   name.obj
 0001:00012c61       _wrap_ea_name_vec_t_qclear$catch$4 0000000180013c61 f   name.obj
 0001:00012c6e       __catch$_wrap_ea_name_vec_t_qclear$8 0000000180013c6e f   name.obj
 0001:00012c86       _wrap_ea_name_vec_t_qclear$catch$3 0000000180013c86 f   name.obj
 0001:00012c93       __catch$_wrap_ea_name_vec_t_qclear$10 0000000180013c93 f   name.obj
 0001:00012cbf       _wrap_ea_name_vec_t_qclear$catch$2 0000000180013cbf f   name.obj
 0001:00012ccc       __catch$_wrap_ea_name_vec_t_qclear$12 0000000180013ccc f   name.obj
 0001:00012d00       _wrap_ea_name_vec_t_reserve$catch$7 0000000180013d00 f   name.obj
 0001:00012d0d       __catch$_wrap_ea_name_vec_t_reserve$3 0000000180013d0d f   name.obj
 0001:00012d33       _wrap_ea_name_vec_t_reserve$catch$6 0000000180013d33 f   name.obj
 0001:00012d40       __catch$_wrap_ea_name_vec_t_reserve$5 0000000180013d40 f   name.obj
 0001:00012d6c       _wrap_ea_name_vec_t_reserve$catch$5 0000000180013d6c f   name.obj
 0001:00012d79       __catch$_wrap_ea_name_vec_t_reserve$7 0000000180013d79 f   name.obj
 0001:00012d91       _wrap_ea_name_vec_t_reserve$catch$4 0000000180013d91 f   name.obj
 0001:00012d9e       __catch$_wrap_ea_name_vec_t_reserve$9 0000000180013d9e f   name.obj
 0001:00012db6       _wrap_ea_name_vec_t_reserve$catch$3 0000000180013db6 f   name.obj
 0001:00012dc3       __catch$_wrap_ea_name_vec_t_reserve$11 0000000180013dc3 f   name.obj
 0001:00012def       _wrap_ea_name_vec_t_reserve$catch$2 0000000180013def f   name.obj
 0001:00012dfc       __catch$_wrap_ea_name_vec_t_reserve$13 0000000180013dfc f   name.obj
 0001:00012e30       _wrap_ea_name_vec_t_resize__SWIG_0$catch$5 0000000180013e30 f   name.obj
 0001:00012e3d       __catch$_wrap_ea_name_vec_t_resize__SWIG_0$5 0000000180013e3d f   name.obj
 0001:00012e63       _wrap_ea_name_vec_t_resize__SWIG_0$catch$4 0000000180013e63 f   name.obj
 0001:00012e70       __catch$_wrap_ea_name_vec_t_resize__SWIG_0$7 0000000180013e70 f   name.obj
 0001:00012e9c       _wrap_ea_name_vec_t_resize__SWIG_0$catch$3 0000000180013e9c f   name.obj
 0001:00012ea9       __catch$_wrap_ea_name_vec_t_resize__SWIG_0$9 0000000180013ea9 f   name.obj
 0001:00012ec1       _wrap_ea_name_vec_t_resize__SWIG_0$catch$2 0000000180013ec1 f   name.obj
 0001:00012ece       __catch$_wrap_ea_name_vec_t_resize__SWIG_0$11 0000000180013ece f   name.obj
 0001:00012ee6       _wrap_ea_name_vec_t_resize__SWIG_0$catch$1 0000000180013ee6 f   name.obj
 0001:00012ef3       __catch$_wrap_ea_name_vec_t_resize__SWIG_0$13 0000000180013ef3 f   name.obj
 0001:00012f1f       _wrap_ea_name_vec_t_resize__SWIG_0$catch$0 0000000180013f1f f   name.obj
 0001:00012f2c       __catch$_wrap_ea_name_vec_t_resize__SWIG_0$15 0000000180013f2c f   name.obj
 0001:00012f60       _wrap_ea_name_vec_t_resize__SWIG_1$catch$9 0000000180013f60 f   name.obj
 0001:00012f6d       __catch$_wrap_ea_name_vec_t_resize__SWIG_1$3 0000000180013f6d f   name.obj
 0001:00012f93       _wrap_ea_name_vec_t_resize__SWIG_1$catch$8 0000000180013f93 f   name.obj
 0001:00012fa0       __catch$_wrap_ea_name_vec_t_resize__SWIG_1$5 0000000180013fa0 f   name.obj
 0001:00012fcc       _wrap_ea_name_vec_t_resize__SWIG_1$catch$7 0000000180013fcc f   name.obj
 0001:00012fd9       __catch$_wrap_ea_name_vec_t_resize__SWIG_1$7 0000000180013fd9 f   name.obj
 0001:00012ff1       _wrap_ea_name_vec_t_resize__SWIG_1$catch$6 0000000180013ff1 f   name.obj
 0001:00012ffe       __catch$_wrap_ea_name_vec_t_resize__SWIG_1$9 0000000180013ffe f   name.obj
 0001:00013016       _wrap_ea_name_vec_t_resize__SWIG_1$catch$5 0000000180014016 f   name.obj
 0001:00013023       __catch$_wrap_ea_name_vec_t_resize__SWIG_1$11 0000000180014023 f   name.obj
 0001:0001304f       _wrap_ea_name_vec_t_resize__SWIG_1$catch$4 000000018001404f f   name.obj
 0001:0001305c       __catch$_wrap_ea_name_vec_t_resize__SWIG_1$13 000000018001405c f   name.obj
 0001:00013090       _wrap_ea_name_vec_t_size$catch$5 0000000180014090 f   name.obj
 0001:0001309d       __catch$_wrap_ea_name_vec_t_size$2 000000018001409d f   name.obj
 0001:000130c3       _wrap_ea_name_vec_t_size$catch$4 00000001800140c3 f   name.obj
 0001:000130d0       __catch$_wrap_ea_name_vec_t_size$4 00000001800140d0 f   name.obj
 0001:000130fc       _wrap_ea_name_vec_t_size$catch$3 00000001800140fc f   name.obj
 0001:00013109       __catch$_wrap_ea_name_vec_t_size$6 0000000180014109 f   name.obj
 0001:00013121       _wrap_ea_name_vec_t_size$catch$2 0000000180014121 f   name.obj
 0001:0001312e       __catch$_wrap_ea_name_vec_t_size$8 000000018001412e f   name.obj
 0001:00013146       _wrap_ea_name_vec_t_size$catch$1 0000000180014146 f   name.obj
 0001:00013153       __catch$_wrap_ea_name_vec_t_size$10 0000000180014153 f   name.obj
 0001:0001317f       _wrap_ea_name_vec_t_size$catch$0 000000018001417f f   name.obj
 0001:0001318c       __catch$_wrap_ea_name_vec_t_size$12 000000018001418c f   name.obj
 0001:000131c0       _wrap_ea_name_vec_t_swap$catch$5 00000001800141c0 f   name.obj
 0001:000131cd       __catch$_wrap_ea_name_vec_t_swap$4 00000001800141cd f   name.obj
 0001:000131f3       _wrap_ea_name_vec_t_swap$catch$4 00000001800141f3 f   name.obj
 0001:00013200       __catch$_wrap_ea_name_vec_t_swap$6 0000000180014200 f   name.obj
 0001:0001322c       _wrap_ea_name_vec_t_swap$catch$3 000000018001422c f   name.obj
 0001:00013239       __catch$_wrap_ea_name_vec_t_swap$8 0000000180014239 f   name.obj
 0001:00013251       _wrap_ea_name_vec_t_swap$catch$2 0000000180014251 f   name.obj
 0001:0001325e       __catch$_wrap_ea_name_vec_t_swap$10 000000018001425e f   name.obj
 0001:00013276       _wrap_ea_name_vec_t_swap$catch$1 0000000180014276 f   name.obj
 0001:00013283       __catch$_wrap_ea_name_vec_t_swap$12 0000000180014283 f   name.obj
 0001:000132af       _wrap_ea_name_vec_t_swap$catch$0 00000001800142af f   name.obj
 0001:000132bc       __catch$_wrap_ea_name_vec_t_swap$14 00000001800142bc f   name.obj
 0001:000132f0       _wrap_ea_name_vec_t_truncate$catch$5 00000001800142f0 f   name.obj
 0001:000132fd       __catch$_wrap_ea_name_vec_t_truncate$2 00000001800142fd f   name.obj
 0001:00013323       _wrap_ea_name_vec_t_truncate$catch$4 0000000180014323 f   name.obj
 0001:00013330       __catch$_wrap_ea_name_vec_t_truncate$4 0000000180014330 f   name.obj
 0001:0001335c       _wrap_ea_name_vec_t_truncate$catch$3 000000018001435c f   name.obj
 0001:00013369       __catch$_wrap_ea_name_vec_t_truncate$6 0000000180014369 f   name.obj
 0001:00013381       _wrap_ea_name_vec_t_truncate$catch$2 0000000180014381 f   name.obj
 0001:0001338e       __catch$_wrap_ea_name_vec_t_truncate$8 000000018001438e f   name.obj
 0001:000133a6       _wrap_ea_name_vec_t_truncate$catch$1 00000001800143a6 f   name.obj
 0001:000133b3       __catch$_wrap_ea_name_vec_t_truncate$10 00000001800143b3 f   name.obj
 0001:000133df       _wrap_ea_name_vec_t_truncate$catch$0 00000001800143df f   name.obj
 0001:000133ec       __catch$_wrap_ea_name_vec_t_truncate$12 00000001800143ec f   name.obj
 0001:00013420       _wrap_extract_name$catch$8 0000000180014420 f   name.obj
 0001:0001342d       __catch$_wrap_extract_name$3 000000018001442d f   name.obj
 0001:00013453       _wrap_extract_name$catch$7 0000000180014453 f   name.obj
 0001:00013460       __catch$_wrap_extract_name$5 0000000180014460 f   name.obj
 0001:0001348f       _wrap_extract_name$catch$6 000000018001448f f   name.obj
 0001:0001349c       __catch$_wrap_extract_name$7 000000018001449c f   name.obj
 0001:000134b7       _wrap_extract_name$catch$5 00000001800144b7 f   name.obj
 0001:000134c4       __catch$_wrap_extract_name$9 00000001800144c4 f   name.obj
 0001:000134dc       _wrap_extract_name$catch$4 00000001800144dc f   name.obj
 0001:000134e9       __catch$_wrap_extract_name$11 00000001800144e9 f   name.obj
 0001:00013515       _wrap_extract_name$catch$3 0000000180014515 f   name.obj
 0001:00013522       __catch$_wrap_extract_name$13 0000000180014522 f   name.obj
 0001:00013550       _wrap_get_debug_name$dtor$0 0000000180014550 f   name.obj
 0001:00013550       _wrap_extract_name$dtor$0  0000000180014550 f   name.obj
 0001:00013560       _wrap_force_name$catch$5   0000000180014560 f   name.obj
 0001:0001356d       __catch$_wrap_force_name$4 000000018001456d f   name.obj
 0001:00013593       _wrap_force_name$catch$4   0000000180014593 f   name.obj
 0001:000135a0       __catch$_wrap_force_name$6 00000001800145a0 f   name.obj
 0001:000135cc       _wrap_force_name$catch$3   00000001800145cc f   name.obj
 0001:000135d9       __catch$_wrap_force_name$8 00000001800145d9 f   name.obj
 0001:000135f1       _wrap_force_name$catch$2   00000001800145f1 f   name.obj
 0001:000135fe       __catch$_wrap_force_name$10 00000001800145fe f   name.obj
 0001:00013616       _wrap_force_name$catch$1   0000000180014616 f   name.obj
 0001:00013623       __catch$_wrap_force_name$12 0000000180014623 f   name.obj
 0001:0001364f       _wrap_force_name$catch$0   000000018001464f f   name.obj
 0001:0001365c       __catch$_wrap_force_name$14 000000018001465c f   name.obj
 0001:00013690       _wrap_get_colored_demangled_name$catch$7 0000000180014690 f   name.obj
 0001:0001369d       __catch$_wrap_get_colored_demangled_name$5 000000018001469d f   name.obj
 0001:000136c3       _wrap_get_colored_demangled_name$catch$8 00000001800146c3 f   name.obj
 0001:000136d0       __catch$_wrap_get_colored_demangled_name$7 00000001800146d0 f   name.obj
 0001:000136fc       _wrap_get_colored_demangled_name$catch$9 00000001800146fc f   name.obj
 0001:00013709       __catch$_wrap_get_colored_demangled_name$9 0000000180014709 f   name.obj
 0001:00013721       _wrap_get_colored_demangled_name$catch$10 0000000180014721 f   name.obj
 0001:0001372e       __catch$_wrap_get_colored_demangled_name$11 000000018001472e f   name.obj
 0001:00013746       _wrap_get_colored_demangled_name$catch$11 0000000180014746 f   name.obj
 0001:00013753       __catch$_wrap_get_colored_demangled_name$13 0000000180014753 f   name.obj
 0001:0001377f       _wrap_get_colored_demangled_name$catch$12 000000018001477f f   name.obj
 0001:0001378c       __catch$_wrap_get_colored_demangled_name$15 000000018001478c f   name.obj
 0001:000137c0       _wrap_get_colored_demangled_name$dtor$0 00000001800147c0 f   name.obj
 0001:000137c0       _wrap_get_demangled_name$dtor$0 00000001800147c0 f   name.obj
 0001:000137d0       _wrap_get_demangled_name$dtor$1 00000001800147d0 f   name.obj
 0001:000137d0       _wrap_get_colored_demangled_name$dtor$1 00000001800147d0 f   name.obj
 0001:000137e0       _wrap_get_colored_long_name$catch$11 00000001800147e0 f   name.obj
 0001:000137ed       __catch$_wrap_get_colored_long_name$3 00000001800147ed f   name.obj
 0001:00013813       _wrap_get_colored_long_name$catch$12 0000000180014813 f   name.obj
 0001:00013820       __catch$_wrap_get_colored_long_name$5 0000000180014820 f   name.obj
 0001:0001384c       _wrap_get_colored_long_name$catch$13 000000018001484c f   name.obj
 0001:00013859       __catch$_wrap_get_colored_long_name$7 0000000180014859 f   name.obj
 0001:00013871       _wrap_get_colored_long_name$catch$14 0000000180014871 f   name.obj
 0001:0001387e       __catch$_wrap_get_colored_long_name$9 000000018001487e f   name.obj
 0001:00013896       _wrap_get_colored_long_name$catch$15 0000000180014896 f   name.obj
 0001:000138a3       __catch$_wrap_get_colored_long_name$11 00000001800148a3 f   name.obj
 0001:000138cf       _wrap_get_colored_long_name$catch$16 00000001800148cf f   name.obj
 0001:000138dc       __catch$_wrap_get_colored_long_name$13 00000001800148dc f   name.obj
 0001:00013910       _wrap_get_short_name$dtor$0 0000000180014910 f   name.obj
 0001:00013910       _wrap_get_ea_name$dtor$0   0000000180014910 f   name.obj
 0001:00013910       _wrap_get_visible_name$dtor$0 0000000180014910 f   name.obj
 0001:00013910       _wrap_get_colored_short_name$dtor$0 0000000180014910 f   name.obj
 0001:00013910       _wrap_get_long_name$dtor$0 0000000180014910 f   name.obj
 0001:00013910       _wrap_get_colored_long_name$dtor$0 0000000180014910 f   name.obj
 0001:00013920       _wrap_get_long_name$dtor$1 0000000180014920 f   name.obj
 0001:00013920       _wrap_get_ea_name$dtor$1   0000000180014920 f   name.obj
 0001:00013920       _wrap_get_visible_name$dtor$1 0000000180014920 f   name.obj
 0001:00013920       _wrap_get_short_name$dtor$1 0000000180014920 f   name.obj
 0001:00013920       _wrap_get_colored_long_name$dtor$1 0000000180014920 f   name.obj
 0001:00013920       _wrap_get_colored_short_name$dtor$1 0000000180014920 f   name.obj
 0001:00013930       _wrap_get_colored_name$catch$11 0000000180014930 f   name.obj
 0001:0001393d       __catch$_wrap_get_colored_name$2 000000018001493d f   name.obj
 0001:00013963       _wrap_get_colored_name$catch$12 0000000180014963 f   name.obj
 0001:00013970       __catch$_wrap_get_colored_name$4 0000000180014970 f   name.obj
 0001:0001399c       _wrap_get_colored_name$catch$13 000000018001499c f   name.obj
 0001:000139a9       __catch$_wrap_get_colored_name$6 00000001800149a9 f   name.obj
 0001:000139c1       _wrap_get_colored_name$catch$14 00000001800149c1 f   name.obj
 0001:000139ce       __catch$_wrap_get_colored_name$8 00000001800149ce f   name.obj
 0001:000139e6       _wrap_get_colored_name$catch$15 00000001800149e6 f   name.obj
 0001:000139f3       __catch$_wrap_get_colored_name$10 00000001800149f3 f   name.obj
 0001:00013a1f       _wrap_get_colored_name$catch$16 0000000180014a1f f   name.obj
 0001:00013a2c       __catch$_wrap_get_colored_name$12 0000000180014a2c f   name.obj
 0001:00013a60       _wrap_get_colored_name$dtor$0 0000000180014a60 f   name.obj
 0001:00013a60       _wrap_get_name$dtor$0      0000000180014a60 f   name.obj
 0001:00013a70       _wrap_get_colored_short_name$catch$11 0000000180014a70 f   name.obj
 0001:00013a7d       __catch$_wrap_get_colored_short_name$3 0000000180014a7d f   name.obj
 0001:00013aa3       _wrap_get_colored_short_name$catch$12 0000000180014aa3 f   name.obj
 0001:00013ab0       __catch$_wrap_get_colored_short_name$5 0000000180014ab0 f   name.obj
 0001:00013adc       _wrap_get_colored_short_name$catch$13 0000000180014adc f   name.obj
 0001:00013ae9       __catch$_wrap_get_colored_short_name$7 0000000180014ae9 f   name.obj
 0001:00013b01       _wrap_get_colored_short_name$catch$14 0000000180014b01 f   name.obj
 0001:00013b0e       __catch$_wrap_get_colored_short_name$9 0000000180014b0e f   name.obj
 0001:00013b26       _wrap_get_colored_short_name$catch$15 0000000180014b26 f   name.obj
 0001:00013b33       __catch$_wrap_get_colored_short_name$11 0000000180014b33 f   name.obj
 0001:00013b5f       _wrap_get_colored_short_name$catch$16 0000000180014b5f f   name.obj
 0001:00013b6c       __catch$_wrap_get_colored_short_name$13 0000000180014b6c f   name.obj
 0001:00013ba0       _wrap_get_debug_name$catch$8 0000000180014ba0 f   name.obj
 0001:00013bad       __catch$_wrap_get_debug_name$3 0000000180014bad f   name.obj
 0001:00013bd3       _wrap_get_debug_name$catch$7 0000000180014bd3 f   name.obj
 0001:00013be0       __catch$_wrap_get_debug_name$5 0000000180014be0 f   name.obj
 0001:00013c0f       _wrap_get_debug_name$catch$6 0000000180014c0f f   name.obj
 0001:00013c1c       __catch$_wrap_get_debug_name$7 0000000180014c1c f   name.obj
 0001:00013c34       _wrap_get_debug_name$catch$5 0000000180014c34 f   name.obj
 0001:00013c41       __catch$_wrap_get_debug_name$9 0000000180014c41 f   name.obj
 0001:00013c59       _wrap_get_debug_name$catch$4 0000000180014c59 f   name.obj
 0001:00013c66       __catch$_wrap_get_debug_name$11 0000000180014c66 f   name.obj
 0001:00013c92       _wrap_get_debug_name$catch$3 0000000180014c92 f   name.obj
 0001:00013c9f       __catch$_wrap_get_debug_name$13 0000000180014c9f f   name.obj
 0001:00013cd0       _wrap_get_debug_name_ea$catch$5 0000000180014cd0 f   name.obj
 0001:00013cdd       __catch$_wrap_get_debug_name_ea$2 0000000180014cdd f   name.obj
 0001:00013d03       _wrap_get_debug_name_ea$catch$4 0000000180014d03 f   name.obj
 0001:00013d10       __catch$_wrap_get_debug_name_ea$4 0000000180014d10 f   name.obj
 0001:00013d3c       _wrap_get_debug_name_ea$catch$3 0000000180014d3c f   name.obj
 0001:00013d49       __catch$_wrap_get_debug_name_ea$6 0000000180014d49 f   name.obj
 0001:00013d61       _wrap_get_debug_name_ea$catch$2 0000000180014d61 f   name.obj
 0001:00013d6e       __catch$_wrap_get_debug_name_ea$8 0000000180014d6e f   name.obj
 0001:00013d86       _wrap_get_debug_name_ea$catch$1 0000000180014d86 f   name.obj
 0001:00013d93       __catch$_wrap_get_debug_name_ea$10 0000000180014d93 f   name.obj
 0001:00013dbf       _wrap_get_debug_name_ea$catch$0 0000000180014dbf f   name.obj
 0001:00013dcc       __catch$_wrap_get_debug_name_ea$12 0000000180014dcc f   name.obj
 0001:00013e00       _wrap_get_debug_names__SWIG_0$catch$5 0000000180014e00 f   name.obj
 0001:00013e0d       __catch$_wrap_get_debug_names__SWIG_0$4 0000000180014e0d f   name.obj
 0001:00013e33       _wrap_get_debug_names__SWIG_0$catch$4 0000000180014e33 f   name.obj
 0001:00013e40       __catch$_wrap_get_debug_names__SWIG_0$6 0000000180014e40 f   name.obj
 0001:00013e6c       _wrap_get_debug_names__SWIG_0$catch$3 0000000180014e6c f   name.obj
 0001:00013e79       __catch$_wrap_get_debug_names__SWIG_0$8 0000000180014e79 f   name.obj
 0001:00013e91       _wrap_get_debug_names__SWIG_0$catch$2 0000000180014e91 f   name.obj
 0001:00013e9e       __catch$_wrap_get_debug_names__SWIG_0$10 0000000180014e9e f   name.obj
 0001:00013eb6       _wrap_get_debug_names__SWIG_0$catch$1 0000000180014eb6 f   name.obj
 0001:00013ec3       __catch$_wrap_get_debug_names__SWIG_0$12 0000000180014ec3 f   name.obj
 0001:00013eef       _wrap_get_debug_names__SWIG_0$catch$0 0000000180014eef f   name.obj
 0001:00013efc       __catch$_wrap_get_debug_names__SWIG_0$14 0000000180014efc f   name.obj
 0001:00013f30       _wrap_get_debug_names__SWIG_1$catch$8 0000000180014f30 f   name.obj
 0001:00013f3d       __catch$_wrap_get_debug_names__SWIG_1$3 0000000180014f3d f   name.obj
 0001:00013f63       _wrap_get_debug_names__SWIG_1$catch$7 0000000180014f63 f   name.obj
 0001:00013f70       __catch$_wrap_get_debug_names__SWIG_1$5 0000000180014f70 f   name.obj
 0001:00013f9c       _wrap_get_debug_names__SWIG_1$catch$6 0000000180014f9c f   name.obj
 0001:00013fa9       __catch$_wrap_get_debug_names__SWIG_1$7 0000000180014fa9 f   name.obj
 0001:00013fc1       _wrap_get_debug_names__SWIG_1$catch$5 0000000180014fc1 f   name.obj
 0001:00013fce       __catch$_wrap_get_debug_names__SWIG_1$9 0000000180014fce f   name.obj
 0001:00013fe6       _wrap_get_debug_names__SWIG_1$catch$4 0000000180014fe6 f   name.obj
 0001:00013ff3       __catch$_wrap_get_debug_names__SWIG_1$11 0000000180014ff3 f   name.obj
 0001:0001401f       _wrap_get_debug_names__SWIG_1$catch$3 000000018001501f f   name.obj
 0001:0001402c       __catch$_wrap_get_debug_names__SWIG_1$13 000000018001502c f   name.obj
 0001:00014060       _wrap_get_debug_names__SWIG_1$dtor$0 0000000180015060 f   name.obj
 0001:00014070       _wrap_get_demangled_name$catch$7 0000000180015070 f   name.obj
 0001:0001407d       __catch$_wrap_get_demangled_name$5 000000018001507d f   name.obj
 0001:000140a3       _wrap_get_demangled_name$catch$8 00000001800150a3 f   name.obj
 0001:000140b0       __catch$_wrap_get_demangled_name$7 00000001800150b0 f   name.obj
 0001:000140dc       _wrap_get_demangled_name$catch$9 00000001800150dc f   name.obj
 0001:000140e9       __catch$_wrap_get_demangled_name$9 00000001800150e9 f   name.obj
 0001:00014101       _wrap_get_demangled_name$catch$10 0000000180015101 f   name.obj
 0001:0001410e       __catch$_wrap_get_demangled_name$11 000000018001510e f   name.obj
 0001:00014126       _wrap_get_demangled_name$catch$11 0000000180015126 f   name.obj
 0001:00014133       __catch$_wrap_get_demangled_name$13 0000000180015133 f   name.obj
 0001:0001415f       _wrap_get_demangled_name$catch$12 000000018001515f f   name.obj
 0001:0001416c       __catch$_wrap_get_demangled_name$15 000000018001516c f   name.obj
 0001:000141a0       _wrap_get_ea_name$catch$11 00000001800151a0 f   name.obj
 0001:000141ad       __catch$_wrap_get_ea_name$3 00000001800151ad f   name.obj
 0001:000141d3       _wrap_get_ea_name$catch$12 00000001800151d3 f   name.obj
 0001:000141e0       __catch$_wrap_get_ea_name$5 00000001800151e0 f   name.obj
 0001:0001420c       _wrap_get_ea_name$catch$13 000000018001520c f   name.obj
 0001:00014219       __catch$_wrap_get_ea_name$7 0000000180015219 f   name.obj
 0001:00014231       _wrap_get_ea_name$catch$14 0000000180015231 f   name.obj
 0001:0001423e       __catch$_wrap_get_ea_name$9 000000018001523e f   name.obj
 0001:00014256       _wrap_get_ea_name$catch$15 0000000180015256 f   name.obj
 0001:00014263       __catch$_wrap_get_ea_name$11 0000000180015263 f   name.obj
 0001:0001428f       _wrap_get_ea_name$catch$16 000000018001528f f   name.obj
 0001:0001429c       __catch$_wrap_get_ea_name$13 000000018001529c f   name.obj
 0001:000142d0       _wrap_get_long_name$catch$11 00000001800152d0 f   name.obj
 0001:000142dd       __catch$_wrap_get_long_name$3 00000001800152dd f   name.obj
 0001:00014303       _wrap_get_long_name$catch$12 0000000180015303 f   name.obj
 0001:00014310       __catch$_wrap_get_long_name$5 0000000180015310 f   name.obj
 0001:0001433c       _wrap_get_long_name$catch$13 000000018001533c f   name.obj
 0001:00014349       __catch$_wrap_get_long_name$7 0000000180015349 f   name.obj
 0001:00014361       _wrap_get_long_name$catch$14 0000000180015361 f   name.obj
 0001:0001436e       __catch$_wrap_get_long_name$9 000000018001536e f   name.obj
 0001:00014386       _wrap_get_long_name$catch$15 0000000180015386 f   name.obj
 0001:00014393       __catch$_wrap_get_long_name$11 0000000180015393 f   name.obj
 0001:000143bf       _wrap_get_long_name$catch$16 00000001800153bf f   name.obj
 0001:000143cc       __catch$_wrap_get_long_name$13 00000001800153cc f   name.obj
 0001:00014400       _wrap_get_name$catch$11    0000000180015400 f   name.obj
 0001:0001440d       __catch$_wrap_get_name$2   000000018001540d f   name.obj
 0001:00014433       _wrap_get_name$catch$12    0000000180015433 f   name.obj
 0001:00014440       __catch$_wrap_get_name$4   0000000180015440 f   name.obj
 0001:0001446c       _wrap_get_name$catch$13    000000018001546c f   name.obj
 0001:00014479       __catch$_wrap_get_name$6   0000000180015479 f   name.obj
 0001:00014491       _wrap_get_name$catch$14    0000000180015491 f   name.obj
 0001:0001449e       __catch$_wrap_get_name$8   000000018001549e f   name.obj
 0001:000144b6       _wrap_get_name$catch$15    00000001800154b6 f   name.obj
 0001:000144c3       __catch$_wrap_get_name$10  00000001800154c3 f   name.obj
 0001:000144ef       _wrap_get_name$catch$16    00000001800154ef f   name.obj
 0001:000144fc       __catch$_wrap_get_name$12  00000001800154fc f   name.obj
 0001:00014530       _wrap_get_name_base_ea$catch$5 0000000180015530 f   name.obj
 0001:0001453d       __catch$_wrap_get_name_base_ea$3 000000018001553d f   name.obj
 0001:00014563       _wrap_get_name_base_ea$catch$4 0000000180015563 f   name.obj
 0001:00014570       __catch$_wrap_get_name_base_ea$5 0000000180015570 f   name.obj
 0001:0001459c       _wrap_get_name_base_ea$catch$3 000000018001559c f   name.obj
 0001:000145a9       __catch$_wrap_get_name_base_ea$7 00000001800155a9 f   name.obj
 0001:000145c1       _wrap_get_name_base_ea$catch$2 00000001800155c1 f   name.obj
 0001:000145ce       __catch$_wrap_get_name_base_ea$9 00000001800155ce f   name.obj
 0001:000145e6       _wrap_get_name_base_ea$catch$1 00000001800155e6 f   name.obj
 0001:000145f3       __catch$_wrap_get_name_base_ea$11 00000001800155f3 f   name.obj
 0001:0001461f       _wrap_get_name_base_ea$catch$0 000000018001561f f   name.obj
 0001:0001462c       __catch$_wrap_get_name_base_ea$13 000000018001562c f   name.obj
 0001:00014660       _wrap_get_name_color$catch$5 0000000180015660 f   name.obj
 0001:0001466d       __catch$_wrap_get_name_color$3 000000018001566d f   name.obj
 0001:00014693       _wrap_get_name_color$catch$4 0000000180015693 f   name.obj
 0001:000146a0       __catch$_wrap_get_name_color$5 00000001800156a0 f   name.obj
 0001:000146cc       _wrap_get_name_color$catch$3 00000001800156cc f   name.obj
 0001:000146d9       __catch$_wrap_get_name_color$7 00000001800156d9 f   name.obj
 0001:000146f1       _wrap_get_name_color$catch$2 00000001800156f1 f   name.obj
 0001:000146fe       __catch$_wrap_get_name_color$9 00000001800156fe f   name.obj
 0001:00014716       _wrap_get_name_color$catch$1 0000000180015716 f   name.obj
 0001:00014723       __catch$_wrap_get_name_color$11 0000000180015723 f   name.obj
 0001:0001474f       _wrap_get_name_color$catch$0 000000018001574f f   name.obj
 0001:0001475c       __catch$_wrap_get_name_color$13 000000018001575c f   name.obj
 0001:00014790       _wrap_get_name_ea$catch$5  0000000180015790 f   name.obj
 0001:0001479d       __catch$_wrap_get_name_ea$3 000000018001579d f   name.obj
 0001:000147c3       _wrap_get_name_ea$catch$4  00000001800157c3 f   name.obj
 0001:000147d0       __catch$_wrap_get_name_ea$5 00000001800157d0 f   name.obj
 0001:000147fc       _wrap_get_name_ea$catch$3  00000001800157fc f   name.obj
 0001:00014809       __catch$_wrap_get_name_ea$7 0000000180015809 f   name.obj
 0001:00014821       _wrap_get_name_ea$catch$2  0000000180015821 f   name.obj
 0001:0001482e       __catch$_wrap_get_name_ea$9 000000018001582e f   name.obj
 0001:00014846       _wrap_get_name_ea$catch$1  0000000180015846 f   name.obj
 0001:00014853       __catch$_wrap_get_name_ea$11 0000000180015853 f   name.obj
 0001:0001487f       _wrap_get_name_ea$catch$0  000000018001587f f   name.obj
 0001:0001488c       __catch$_wrap_get_name_ea$13 000000018001588c f   name.obj
 0001:000148c0       _wrap_get_name_expr$catch$8 00000001800158c0 f   name.obj
 0001:000148cd       __catch$_wrap_get_name_expr$6 00000001800158cd f   name.obj
 0001:000148f3       _wrap_get_name_expr$catch$7 00000001800158f3 f   name.obj
 0001:00014900       __catch$_wrap_get_name_expr$8 0000000180015900 f   name.obj
 0001:0001492c       _wrap_get_name_expr$catch$6 000000018001592c f   name.obj
 0001:00014939       __catch$_wrap_get_name_expr$10 0000000180015939 f   name.obj
 0001:00014951       _wrap_get_name_expr$catch$5 0000000180015951 f   name.obj
 0001:0001495e       __catch$_wrap_get_name_expr$12 000000018001595e f   name.obj
 0001:00014976       _wrap_get_name_expr$catch$4 0000000180015976 f   name.obj
 0001:00014983       __catch$_wrap_get_name_expr$14 0000000180015983 f   name.obj
 0001:000149af       _wrap_get_name_expr$catch$3 00000001800159af f   name.obj
 0001:000149bc       __catch$_wrap_get_name_expr$16 00000001800159bc f   name.obj
 0001:000149f0       _wrap_get_name_expr$dtor$0 00000001800159f0 f   name.obj
 0001:00014a00       _wrap_get_name_value$catch$5 0000000180015a00 f   name.obj
 0001:00014a0d       __catch$_wrap_get_name_value$3 0000000180015a0d f   name.obj
 0001:00014a33       _wrap_get_name_value$catch$4 0000000180015a33 f   name.obj
 0001:00014a40       __catch$_wrap_get_name_value$5 0000000180015a40 f   name.obj
 0001:00014a6c       _wrap_get_name_value$catch$3 0000000180015a6c f   name.obj
 0001:00014a79       __catch$_wrap_get_name_value$7 0000000180015a79 f   name.obj
 0001:00014a91       _wrap_get_name_value$catch$2 0000000180015a91 f   name.obj
 0001:00014a9e       __catch$_wrap_get_name_value$9 0000000180015a9e f   name.obj
 0001:00014ab6       _wrap_get_name_value$catch$1 0000000180015ab6 f   name.obj
 0001:00014ac3       __catch$_wrap_get_name_value$11 0000000180015ac3 f   name.obj
 0001:00014aef       _wrap_get_name_value$catch$0 0000000180015aef f   name.obj
 0001:00014afc       __catch$_wrap_get_name_value$13 0000000180015afc f   name.obj
 0001:00014b30       _wrap_get_nice_colored_name$catch$8 0000000180015b30 f   name.obj
 0001:00014b3d       __catch$_wrap_get_nice_colored_name$3 0000000180015b3d f   name.obj
 0001:00014b63       _wrap_get_nice_colored_name$catch$7 0000000180015b63 f   name.obj
 0001:00014b70       __catch$_wrap_get_nice_colored_name$5 0000000180015b70 f   name.obj
 0001:00014b9c       _wrap_get_nice_colored_name$catch$6 0000000180015b9c f   name.obj
 0001:00014ba9       __catch$_wrap_get_nice_colored_name$7 0000000180015ba9 f   name.obj
 0001:00014bc1       _wrap_get_nice_colored_name$catch$5 0000000180015bc1 f   name.obj
 0001:00014bce       __catch$_wrap_get_nice_colored_name$9 0000000180015bce f   name.obj
 0001:00014be6       _wrap_get_nice_colored_name$catch$4 0000000180015be6 f   name.obj
 0001:00014bf3       __catch$_wrap_get_nice_colored_name$11 0000000180015bf3 f   name.obj
 0001:00014c1f       _wrap_get_nice_colored_name$catch$3 0000000180015c1f f   name.obj
 0001:00014c2c       __catch$_wrap_get_nice_colored_name$13 0000000180015c2c f   name.obj
 0001:00014c60       _wrap_get_nice_colored_name$dtor$0 0000000180015c60 f   name.obj
 0001:00014c70       _wrap_get_nlist_ea$catch$5 0000000180015c70 f   name.obj
 0001:00014c7d       __catch$_wrap_get_nlist_ea$2 0000000180015c7d f   name.obj
 0001:00014ca3       _wrap_get_nlist_ea$catch$4 0000000180015ca3 f   name.obj
 0001:00014cb0       __catch$_wrap_get_nlist_ea$4 0000000180015cb0 f   name.obj
 0001:00014cdc       _wrap_get_nlist_ea$catch$3 0000000180015cdc f   name.obj
 0001:00014ce9       __catch$_wrap_get_nlist_ea$6 0000000180015ce9 f   name.obj
 0001:00014d01       _wrap_get_nlist_ea$catch$2 0000000180015d01 f   name.obj
 0001:00014d0e       __catch$_wrap_get_nlist_ea$8 0000000180015d0e f   name.obj
 0001:00014d26       _wrap_get_nlist_ea$catch$1 0000000180015d26 f   name.obj
 0001:00014d33       __catch$_wrap_get_nlist_ea$10 0000000180015d33 f   name.obj
 0001:00014d5f       _wrap_get_nlist_ea$catch$0 0000000180015d5f f   name.obj
 0001:00014d6c       __catch$_wrap_get_nlist_ea$12 0000000180015d6c f   name.obj
 0001:00014da0       _wrap_get_nlist_idx$catch$5 0000000180015da0 f   name.obj
 0001:00014dad       __catch$_wrap_get_nlist_idx$2 0000000180015dad f   name.obj
 0001:00014dd3       _wrap_get_nlist_idx$catch$4 0000000180015dd3 f   name.obj
 0001:00014de0       __catch$_wrap_get_nlist_idx$4 0000000180015de0 f   name.obj
 0001:00014e0c       _wrap_get_nlist_idx$catch$3 0000000180015e0c f   name.obj
 0001:00014e19       __catch$_wrap_get_nlist_idx$6 0000000180015e19 f   name.obj
 0001:00014e31       _wrap_get_nlist_idx$catch$2 0000000180015e31 f   name.obj
 0001:00014e3e       __catch$_wrap_get_nlist_idx$8 0000000180015e3e f   name.obj
 0001:00014e56       _wrap_get_nlist_idx$catch$1 0000000180015e56 f   name.obj
 0001:00014e63       __catch$_wrap_get_nlist_idx$10 0000000180015e63 f   name.obj
 0001:00014e8f       _wrap_get_nlist_idx$catch$0 0000000180015e8f f   name.obj
 0001:00014e9c       __catch$_wrap_get_nlist_idx$12 0000000180015e9c f   name.obj
 0001:00014ed0       _wrap_get_nlist_name$catch$5 0000000180015ed0 f   name.obj
 0001:00014edd       __catch$_wrap_get_nlist_name$2 0000000180015edd f   name.obj
 0001:00014f03       _wrap_get_nlist_name$catch$4 0000000180015f03 f   name.obj
 0001:00014f10       __catch$_wrap_get_nlist_name$4 0000000180015f10 f   name.obj
 0001:00014f3c       _wrap_get_nlist_name$catch$3 0000000180015f3c f   name.obj
 0001:00014f49       __catch$_wrap_get_nlist_name$6 0000000180015f49 f   name.obj
 0001:00014f61       _wrap_get_nlist_name$catch$2 0000000180015f61 f   name.obj
 0001:00014f6e       __catch$_wrap_get_nlist_name$8 0000000180015f6e f   name.obj
 0001:00014f86       _wrap_get_nlist_name$catch$1 0000000180015f86 f   name.obj
 0001:00014f93       __catch$_wrap_get_nlist_name$10 0000000180015f93 f   name.obj
 0001:00014fbf       _wrap_get_nlist_name$catch$0 0000000180015fbf f   name.obj
 0001:00014fcc       __catch$_wrap_get_nlist_name$12 0000000180015fcc f   name.obj
 0001:00015000       _wrap_get_nlist_size$catch$5 0000000180016000 f   name.obj
 0001:0001500d       __catch$_wrap_get_nlist_size$1 000000018001600d f   name.obj
 0001:00015033       _wrap_get_nlist_size$catch$4 0000000180016033 f   name.obj
 0001:00015040       __catch$_wrap_get_nlist_size$3 0000000180016040 f   name.obj
 0001:0001506c       _wrap_get_nlist_size$catch$3 000000018001606c f   name.obj
 0001:00015079       __catch$_wrap_get_nlist_size$5 0000000180016079 f   name.obj
 0001:00015091       _wrap_get_nlist_size$catch$2 0000000180016091 f   name.obj
 0001:0001509e       __catch$_wrap_get_nlist_size$7 000000018001609e f   name.obj
 0001:000150b6       _wrap_get_nlist_size$catch$1 00000001800160b6 f   name.obj
 0001:000150c3       __catch$_wrap_get_nlist_size$9 00000001800160c3 f   name.obj
 0001:000150ef       _wrap_get_nlist_size$catch$0 00000001800160ef f   name.obj
 0001:000150fc       __catch$_wrap_get_nlist_size$11 00000001800160fc f   name.obj
 0001:00015130       _wrap_get_short_name$catch$11 0000000180016130 f   name.obj
 0001:0001513d       __catch$_wrap_get_short_name$3 000000018001613d f   name.obj
 0001:00015163       _wrap_get_short_name$catch$12 0000000180016163 f   name.obj
 0001:00015170       __catch$_wrap_get_short_name$5 0000000180016170 f   name.obj
 0001:0001519c       _wrap_get_short_name$catch$13 000000018001619c f   name.obj
 0001:000151a9       __catch$_wrap_get_short_name$7 00000001800161a9 f   name.obj
 0001:000151c1       _wrap_get_short_name$catch$14 00000001800161c1 f   name.obj
 0001:000151ce       __catch$_wrap_get_short_name$9 00000001800161ce f   name.obj
 0001:000151e6       _wrap_get_short_name$catch$15 00000001800161e6 f   name.obj
 0001:000151f3       __catch$_wrap_get_short_name$11 00000001800161f3 f   name.obj
 0001:0001521f       _wrap_get_short_name$catch$16 000000018001621f f   name.obj
 0001:0001522c       __catch$_wrap_get_short_name$13 000000018001622c f   name.obj
 0001:00015260       _wrap_get_visible_name$catch$11 0000000180016260 f   name.obj
 0001:0001526d       __catch$_wrap_get_visible_name$3 000000018001626d f   name.obj
 0001:00015293       _wrap_get_visible_name$catch$12 0000000180016293 f   name.obj
 0001:000152a0       __catch$_wrap_get_visible_name$5 00000001800162a0 f   name.obj
 0001:000152cc       _wrap_get_visible_name$catch$13 00000001800162cc f   name.obj
 0001:000152d9       __catch$_wrap_get_visible_name$7 00000001800162d9 f   name.obj
 0001:000152f1       _wrap_get_visible_name$catch$14 00000001800162f1 f   name.obj
 0001:000152fe       __catch$_wrap_get_visible_name$9 00000001800162fe f   name.obj
 0001:00015316       _wrap_get_visible_name$catch$15 0000000180016316 f   name.obj
 0001:00015323       __catch$_wrap_get_visible_name$11 0000000180016323 f   name.obj
 0001:0001534f       _wrap_get_visible_name$catch$16 000000018001634f f   name.obj
 0001:0001535c       __catch$_wrap_get_visible_name$13 000000018001635c f   name.obj
 0001:00015390       _wrap_hide_name$catch$5    0000000180016390 f   name.obj
 0001:0001539d       __catch$_wrap_hide_name$2  000000018001639d f   name.obj
 0001:000153c3       _wrap_hide_name$catch$4    00000001800163c3 f   name.obj
 0001:000153d0       __catch$_wrap_hide_name$4  00000001800163d0 f   name.obj
 0001:000153fc       _wrap_hide_name$catch$3    00000001800163fc f   name.obj
 0001:00015409       __catch$_wrap_hide_name$6  0000000180016409 f   name.obj
 0001:00015421       _wrap_hide_name$catch$2    0000000180016421 f   name.obj
 0001:0001542e       __catch$_wrap_hide_name$8  000000018001642e f   name.obj
 0001:00015446       _wrap_hide_name$catch$1    0000000180016446 f   name.obj
 0001:00015453       __catch$_wrap_hide_name$10 0000000180016453 f   name.obj
 0001:0001547f       _wrap_hide_name$catch$0    000000018001647f f   name.obj
 0001:0001548c       __catch$_wrap_hide_name$12 000000018001648c f   name.obj
 0001:000154c0       _wrap_is_ident$catch$5     00000001800164c0 f   name.obj
 0001:000154cd       __catch$_wrap_is_ident$2   00000001800164cd f   name.obj
 0001:000154f3       _wrap_is_ident$catch$4     00000001800164f3 f   name.obj
 0001:00015500       __catch$_wrap_is_ident$4   0000000180016500 f   name.obj
 0001:0001552c       _wrap_is_ident$catch$3     000000018001652c f   name.obj
 0001:00015539       __catch$_wrap_is_ident$6   0000000180016539 f   name.obj
 0001:00015551       _wrap_is_ident$catch$2     0000000180016551 f   name.obj
 0001:0001555e       __catch$_wrap_is_ident$8   000000018001655e f   name.obj
 0001:00015576       _wrap_is_ident$catch$1     0000000180016576 f   name.obj
 0001:00015583       __catch$_wrap_is_ident$10  0000000180016583 f   name.obj
 0001:000155af       _wrap_is_ident$catch$0     00000001800165af f   name.obj
 0001:000155bc       __catch$_wrap_is_ident$12  00000001800165bc f   name.obj
 0001:000155f0       _wrap_is_ident_cp$catch$5  00000001800165f0 f   name.obj
 0001:000155fd       __catch$_wrap_is_ident_cp$2 00000001800165fd f   name.obj
 0001:00015623       _wrap_is_ident_cp$catch$4  0000000180016623 f   name.obj
 0001:00015630       __catch$_wrap_is_ident_cp$4 0000000180016630 f   name.obj
 0001:0001565c       _wrap_is_ident_cp$catch$3  000000018001665c f   name.obj
 0001:00015669       __catch$_wrap_is_ident_cp$6 0000000180016669 f   name.obj
 0001:00015681       _wrap_is_ident_cp$catch$2  0000000180016681 f   name.obj
 0001:0001568e       __catch$_wrap_is_ident_cp$8 000000018001668e f   name.obj
 0001:000156a6       _wrap_is_ident_cp$catch$1  00000001800166a6 f   name.obj
 0001:000156b3       __catch$_wrap_is_ident_cp$10 00000001800166b3 f   name.obj
 0001:000156df       _wrap_is_ident_cp$catch$0  00000001800166df f   name.obj
 0001:000156ec       __catch$_wrap_is_ident_cp$12 00000001800166ec f   name.obj
 0001:00015720       _wrap_is_in_nlist$catch$5  0000000180016720 f   name.obj
 0001:0001572d       __catch$_wrap_is_in_nlist$2 000000018001672d f   name.obj
 0001:00015753       _wrap_is_in_nlist$catch$4  0000000180016753 f   name.obj
 0001:00015760       __catch$_wrap_is_in_nlist$4 0000000180016760 f   name.obj
 0001:0001578c       _wrap_is_in_nlist$catch$3  000000018001678c f   name.obj
 0001:00015799       __catch$_wrap_is_in_nlist$6 0000000180016799 f   name.obj
 0001:000157b1       _wrap_is_in_nlist$catch$2  00000001800167b1 f   name.obj
 0001:000157be       __catch$_wrap_is_in_nlist$8 00000001800167be f   name.obj
 0001:000157d6       _wrap_is_in_nlist$catch$1  00000001800167d6 f   name.obj
 0001:000157e3       __catch$_wrap_is_in_nlist$10 00000001800167e3 f   name.obj
 0001:0001580f       _wrap_is_in_nlist$catch$0  000000018001680f f   name.obj
 0001:0001581c       __catch$_wrap_is_in_nlist$12 000000018001681c f   name.obj
 0001:00015850       _wrap_is_name_defined_locally$catch$5 0000000180016850 f   name.obj
 0001:0001585d       __catch$_wrap_is_name_defined_locally$6 000000018001685d f   name.obj
 0001:00015883       _wrap_is_name_defined_locally$catch$4 0000000180016883 f   name.obj
 0001:00015890       __catch$_wrap_is_name_defined_locally$8 0000000180016890 f   name.obj
 0001:000158bc       _wrap_is_name_defined_locally$catch$3 00000001800168bc f   name.obj
 0001:000158c9       __catch$_wrap_is_name_defined_locally$10 00000001800168c9 f   name.obj
 0001:000158e1       _wrap_is_name_defined_locally$catch$2 00000001800168e1 f   name.obj
 0001:000158ee       __catch$_wrap_is_name_defined_locally$12 00000001800168ee f   name.obj
 0001:00015906       _wrap_is_name_defined_locally$catch$1 0000000180016906 f   name.obj
 0001:00015913       __catch$_wrap_is_name_defined_locally$14 0000000180016913 f   name.obj
 0001:0001593f       _wrap_is_name_defined_locally$catch$0 000000018001693f f   name.obj
 0001:0001594c       __catch$_wrap_is_name_defined_locally$16 000000018001694c f   name.obj
 0001:00015980       _wrap_is_public_name$catch$5 0000000180016980 f   name.obj
 0001:0001598d       __catch$_wrap_is_public_name$2 000000018001698d f   name.obj
 0001:000159b3       _wrap_is_public_name$catch$4 00000001800169b3 f   name.obj
 0001:000159c0       __catch$_wrap_is_public_name$4 00000001800169c0 f   name.obj
 0001:000159ec       _wrap_is_public_name$catch$3 00000001800169ec f   name.obj
 0001:000159f9       __catch$_wrap_is_public_name$6 00000001800169f9 f   name.obj
 0001:00015a11       _wrap_is_public_name$catch$2 0000000180016a11 f   name.obj
 0001:00015a1e       __catch$_wrap_is_public_name$8 0000000180016a1e f   name.obj
 0001:00015a36       _wrap_is_public_name$catch$1 0000000180016a36 f   name.obj
 0001:00015a43       __catch$_wrap_is_public_name$10 0000000180016a43 f   name.obj
 0001:00015a6f       _wrap_is_public_name$catch$0 0000000180016a6f f   name.obj
 0001:00015a7c       __catch$_wrap_is_public_name$12 0000000180016a7c f   name.obj
 0001:00015ab0       _wrap_is_strlit_cp$catch$5 0000000180016ab0 f   name.obj
 0001:00015abd       __catch$_wrap_is_strlit_cp$3 0000000180016abd f   name.obj
 0001:00015ae3       _wrap_is_strlit_cp$catch$4 0000000180016ae3 f   name.obj
 0001:00015af0       __catch$_wrap_is_strlit_cp$5 0000000180016af0 f   name.obj
 0001:00015b1c       _wrap_is_strlit_cp$catch$3 0000000180016b1c f   name.obj
 0001:00015b29       __catch$_wrap_is_strlit_cp$7 0000000180016b29 f   name.obj
 0001:00015b41       _wrap_is_strlit_cp$catch$2 0000000180016b41 f   name.obj
 0001:00015b4e       __catch$_wrap_is_strlit_cp$9 0000000180016b4e f   name.obj
 0001:00015b66       _wrap_is_strlit_cp$catch$1 0000000180016b66 f   name.obj
 0001:00015b73       __catch$_wrap_is_strlit_cp$11 0000000180016b73 f   name.obj
 0001:00015b9f       _wrap_is_strlit_cp$catch$0 0000000180016b9f f   name.obj
 0001:00015bac       __catch$_wrap_is_strlit_cp$13 0000000180016bac f   name.obj
 0001:00015be0       _wrap_is_uname$catch$5     0000000180016be0 f   name.obj
 0001:00015bed       __catch$_wrap_is_uname$2   0000000180016bed f   name.obj
 0001:00015c13       _wrap_is_uname$catch$4     0000000180016c13 f   name.obj
 0001:00015c20       __catch$_wrap_is_uname$4   0000000180016c20 f   name.obj
 0001:00015c4c       _wrap_is_uname$catch$3     0000000180016c4c f   name.obj
 0001:00015c59       __catch$_wrap_is_uname$6   0000000180016c59 f   name.obj
 0001:00015c71       _wrap_is_uname$catch$2     0000000180016c71 f   name.obj
 0001:00015c7e       __catch$_wrap_is_uname$8   0000000180016c7e f   name.obj
 0001:00015c96       _wrap_is_uname$catch$1     0000000180016c96 f   name.obj
 0001:00015ca3       __catch$_wrap_is_uname$10  0000000180016ca3 f   name.obj
 0001:00015ccf       _wrap_is_uname$catch$0     0000000180016ccf f   name.obj
 0001:00015cdc       __catch$_wrap_is_uname$12  0000000180016cdc f   name.obj
 0001:00015d10       _wrap_is_valid_cp$catch$5  0000000180016d10 f   name.obj
 0001:00015d1d       __catch$_wrap_is_valid_cp$4 0000000180016d1d f   name.obj
 0001:00015d43       _wrap_is_valid_cp$catch$4  0000000180016d43 f   name.obj
 0001:00015d50       __catch$_wrap_is_valid_cp$6 0000000180016d50 f   name.obj
 0001:00015d7c       _wrap_is_valid_cp$catch$3  0000000180016d7c f   name.obj
 0001:00015d89       __catch$_wrap_is_valid_cp$8 0000000180016d89 f   name.obj
 0001:00015da1       _wrap_is_valid_cp$catch$2  0000000180016da1 f   name.obj
 0001:00015dae       __catch$_wrap_is_valid_cp$10 0000000180016dae f   name.obj
 0001:00015dc6       _wrap_is_valid_cp$catch$1  0000000180016dc6 f   name.obj
 0001:00015dd3       __catch$_wrap_is_valid_cp$12 0000000180016dd3 f   name.obj
 0001:00015dff       _wrap_is_valid_cp$catch$0  0000000180016dff f   name.obj
 0001:00015e0c       __catch$_wrap_is_valid_cp$14 0000000180016e0c f   name.obj
 0001:00015e40       _wrap_is_valid_typename$catch$5 0000000180016e40 f   name.obj
 0001:00015e4d       __catch$_wrap_is_valid_typename$2 0000000180016e4d f   name.obj
 0001:00015e73       _wrap_is_valid_typename$catch$4 0000000180016e73 f   name.obj
 0001:00015e80       __catch$_wrap_is_valid_typename$4 0000000180016e80 f   name.obj
 0001:00015eac       _wrap_is_valid_typename$catch$3 0000000180016eac f   name.obj
 0001:00015eb9       __catch$_wrap_is_valid_typename$6 0000000180016eb9 f   name.obj
 0001:00015ed1       _wrap_is_valid_typename$catch$2 0000000180016ed1 f   name.obj
 0001:00015ede       __catch$_wrap_is_valid_typename$8 0000000180016ede f   name.obj
 0001:00015ef6       _wrap_is_valid_typename$catch$1 0000000180016ef6 f   name.obj
 0001:00015f03       __catch$_wrap_is_valid_typename$10 0000000180016f03 f   name.obj
 0001:00015f2f       _wrap_is_valid_typename$catch$0 0000000180016f2f f   name.obj
 0001:00015f3c       __catch$_wrap_is_valid_typename$12 0000000180016f3c f   name.obj
 0001:00015f70       _wrap_is_visible_cp$catch$5 0000000180016f70 f   name.obj
 0001:00015f7d       __catch$_wrap_is_visible_cp$2 0000000180016f7d f   name.obj
 0001:00015fa3       _wrap_is_visible_cp$catch$4 0000000180016fa3 f   name.obj
 0001:00015fb0       __catch$_wrap_is_visible_cp$4 0000000180016fb0 f   name.obj
 0001:00015fdc       _wrap_is_visible_cp$catch$3 0000000180016fdc f   name.obj
 0001:00015fe9       __catch$_wrap_is_visible_cp$6 0000000180016fe9 f   name.obj
 0001:00016001       _wrap_is_visible_cp$catch$2 0000000180017001 f   name.obj
 0001:0001600e       __catch$_wrap_is_visible_cp$8 000000018001700e f   name.obj
 0001:00016026       _wrap_is_visible_cp$catch$1 0000000180017026 f   name.obj
 0001:00016033       __catch$_wrap_is_visible_cp$10 0000000180017033 f   name.obj
 0001:0001605f       _wrap_is_visible_cp$catch$0 000000018001705f f   name.obj
 0001:0001606c       __catch$_wrap_is_visible_cp$12 000000018001706c f   name.obj
 0001:000160a0       _wrap_is_weak_name$catch$5 00000001800170a0 f   name.obj
 0001:000160ad       __catch$_wrap_is_weak_name$2 00000001800170ad f   name.obj
 0001:000160d3       _wrap_is_weak_name$catch$4 00000001800170d3 f   name.obj
 0001:000160e0       __catch$_wrap_is_weak_name$4 00000001800170e0 f   name.obj
 0001:0001610c       _wrap_is_weak_name$catch$3 000000018001710c f   name.obj
 0001:00016119       __catch$_wrap_is_weak_name$6 0000000180017119 f   name.obj
 0001:00016131       _wrap_is_weak_name$catch$2 0000000180017131 f   name.obj
 0001:0001613e       __catch$_wrap_is_weak_name$8 000000018001713e f   name.obj
 0001:00016156       _wrap_is_weak_name$catch$1 0000000180017156 f   name.obj
 0001:00016163       __catch$_wrap_is_weak_name$10 0000000180017163 f   name.obj
 0001:0001618f       _wrap_is_weak_name$catch$0 000000018001718f f   name.obj
 0001:0001619c       __catch$_wrap_is_weak_name$12 000000018001719c f   name.obj
 0001:000161d0       _wrap_make_name_auto$catch$5 00000001800171d0 f   name.obj
 0001:000161dd       __catch$_wrap_make_name_auto$2 00000001800171dd f   name.obj
 0001:00016203       _wrap_make_name_auto$catch$4 0000000180017203 f   name.obj
 0001:00016210       __catch$_wrap_make_name_auto$4 0000000180017210 f   name.obj
 0001:0001623c       _wrap_make_name_auto$catch$3 000000018001723c f   name.obj
 0001:00016249       __catch$_wrap_make_name_auto$6 0000000180017249 f   name.obj
 0001:00016261       _wrap_make_name_auto$catch$2 0000000180017261 f   name.obj
 0001:0001626e       __catch$_wrap_make_name_auto$8 000000018001726e f   name.obj
 0001:00016286       _wrap_make_name_auto$catch$1 0000000180017286 f   name.obj
 0001:00016293       __catch$_wrap_make_name_auto$10 0000000180017293 f   name.obj
 0001:000162bf       _wrap_make_name_auto$catch$0 00000001800172bf f   name.obj
 0001:000162cc       __catch$_wrap_make_name_auto$12 00000001800172cc f   name.obj
 0001:00016300       _wrap_make_name_non_public$catch$5 0000000180017300 f   name.obj
 0001:0001630d       __catch$_wrap_make_name_non_public$2 000000018001730d f   name.obj
 0001:00016333       _wrap_make_name_non_public$catch$4 0000000180017333 f   name.obj
 0001:00016340       __catch$_wrap_make_name_non_public$4 0000000180017340 f   name.obj
 0001:0001636c       _wrap_make_name_non_public$catch$3 000000018001736c f   name.obj
 0001:00016379       __catch$_wrap_make_name_non_public$6 0000000180017379 f   name.obj
 0001:00016391       _wrap_make_name_non_public$catch$2 0000000180017391 f   name.obj
 0001:0001639e       __catch$_wrap_make_name_non_public$8 000000018001739e f   name.obj
 0001:000163b6       _wrap_make_name_non_public$catch$1 00000001800173b6 f   name.obj
 0001:000163c3       __catch$_wrap_make_name_non_public$10 00000001800173c3 f   name.obj
 0001:000163ef       _wrap_make_name_non_public$catch$0 00000001800173ef f   name.obj
 0001:000163fc       __catch$_wrap_make_name_non_public$12 00000001800173fc f   name.obj
 0001:00016430       _wrap_make_name_non_weak$catch$5 0000000180017430 f   name.obj
 0001:0001643d       __catch$_wrap_make_name_non_weak$2 000000018001743d f   name.obj
 0001:00016463       _wrap_make_name_non_weak$catch$4 0000000180017463 f   name.obj
 0001:00016470       __catch$_wrap_make_name_non_weak$4 0000000180017470 f   name.obj
 0001:0001649c       _wrap_make_name_non_weak$catch$3 000000018001749c f   name.obj
 0001:000164a9       __catch$_wrap_make_name_non_weak$6 00000001800174a9 f   name.obj
 0001:000164c1       _wrap_make_name_non_weak$catch$2 00000001800174c1 f   name.obj
 0001:000164ce       __catch$_wrap_make_name_non_weak$8 00000001800174ce f   name.obj
 0001:000164e6       _wrap_make_name_non_weak$catch$1 00000001800174e6 f   name.obj
 0001:000164f3       __catch$_wrap_make_name_non_weak$10 00000001800174f3 f   name.obj
 0001:0001651f       _wrap_make_name_non_weak$catch$0 000000018001751f f   name.obj
 0001:0001652c       __catch$_wrap_make_name_non_weak$12 000000018001752c f   name.obj
 0001:00016560       _wrap_make_name_public$catch$5 0000000180017560 f   name.obj
 0001:0001656d       __catch$_wrap_make_name_public$2 000000018001756d f   name.obj
 0001:00016593       _wrap_make_name_public$catch$4 0000000180017593 f   name.obj
 0001:000165a0       __catch$_wrap_make_name_public$4 00000001800175a0 f   name.obj
 0001:000165cc       _wrap_make_name_public$catch$3 00000001800175cc f   name.obj
 0001:000165d9       __catch$_wrap_make_name_public$6 00000001800175d9 f   name.obj
 0001:000165f1       _wrap_make_name_public$catch$2 00000001800175f1 f   name.obj
 0001:000165fe       __catch$_wrap_make_name_public$8 00000001800175fe f   name.obj
 0001:00016616       _wrap_make_name_public$catch$1 0000000180017616 f   name.obj
 0001:00016623       __catch$_wrap_make_name_public$10 0000000180017623 f   name.obj
 0001:0001664f       _wrap_make_name_public$catch$0 000000018001764f f   name.obj
 0001:0001665c       __catch$_wrap_make_name_public$12 000000018001765c f   name.obj
 0001:00016690       _wrap_make_name_user$catch$5 0000000180017690 f   name.obj
 0001:0001669d       __catch$_wrap_make_name_user$2 000000018001769d f   name.obj
 0001:000166c3       _wrap_make_name_user$catch$4 00000001800176c3 f   name.obj
 0001:000166d0       __catch$_wrap_make_name_user$4 00000001800176d0 f   name.obj
 0001:000166fc       _wrap_make_name_user$catch$3 00000001800176fc f   name.obj
 0001:00016709       __catch$_wrap_make_name_user$6 0000000180017709 f   name.obj
 0001:00016721       _wrap_make_name_user$catch$2 0000000180017721 f   name.obj
 0001:0001672e       __catch$_wrap_make_name_user$8 000000018001772e f   name.obj
 0001:00016746       _wrap_make_name_user$catch$1 0000000180017746 f   name.obj
 0001:00016753       __catch$_wrap_make_name_user$10 0000000180017753 f   name.obj
 0001:0001677f       _wrap_make_name_user$catch$0 000000018001777f f   name.obj
 0001:0001678c       __catch$_wrap_make_name_user$12 000000018001778c f   name.obj
 0001:000167c0       _wrap_make_name_weak$catch$5 00000001800177c0 f   name.obj
 0001:000167cd       __catch$_wrap_make_name_weak$2 00000001800177cd f   name.obj
 0001:000167f3       _wrap_make_name_weak$catch$4 00000001800177f3 f   name.obj
 0001:00016800       __catch$_wrap_make_name_weak$4 0000000180017800 f   name.obj
 0001:0001682c       _wrap_make_name_weak$catch$3 000000018001782c f   name.obj
 0001:00016839       __catch$_wrap_make_name_weak$6 0000000180017839 f   name.obj
 0001:00016851       _wrap_make_name_weak$catch$2 0000000180017851 f   name.obj
 0001:0001685e       __catch$_wrap_make_name_weak$8 000000018001785e f   name.obj
 0001:00016876       _wrap_make_name_weak$catch$1 0000000180017876 f   name.obj
 0001:00016883       __catch$_wrap_make_name_weak$10 0000000180017883 f   name.obj
 0001:000168af       _wrap_make_name_weak$catch$0 00000001800178af f   name.obj
 0001:000168bc       __catch$_wrap_make_name_weak$12 00000001800178bc f   name.obj
 0001:000168f0       _wrap_new_ea_name_t__SWIG_0$catch$1 00000001800178f0 f   name.obj
 0001:000168fd       __catch$_wrap_new_ea_name_t__SWIG_0$1 00000001800178fd f   name.obj
 0001:00016923       _wrap_new_ea_name_t__SWIG_0$catch$2 0000000180017923 f   name.obj
 0001:00016930       __catch$_wrap_new_ea_name_t__SWIG_0$3 0000000180017930 f   name.obj
 0001:0001695c       _wrap_new_ea_name_t__SWIG_0$catch$3 000000018001795c f   name.obj
 0001:00016969       __catch$_wrap_new_ea_name_t__SWIG_0$5 0000000180017969 f   name.obj
 0001:00016981       _wrap_new_ea_name_t__SWIG_0$catch$4 0000000180017981 f   name.obj
 0001:0001698e       __catch$_wrap_new_ea_name_t__SWIG_0$7 000000018001798e f   name.obj
 0001:000169a6       _wrap_new_ea_name_t__SWIG_0$catch$5 00000001800179a6 f   name.obj
 0001:000169b3       __catch$_wrap_new_ea_name_t__SWIG_0$9 00000001800179b3 f   name.obj
 0001:000169df       _wrap_new_ea_name_t__SWIG_0$catch$6 00000001800179df f   name.obj
 0001:000169ec       __catch$_wrap_new_ea_name_t__SWIG_0$11 00000001800179ec f   name.obj
 0001:00016a20       _wrap_new_ea_name_t__SWIG_1$catch$4 0000000180017a20 f   name.obj
 0001:00016a2d       __catch$_wrap_new_ea_name_t__SWIG_1$3 0000000180017a2d f   name.obj
 0001:00016a53       _wrap_new_ea_name_t__SWIG_1$catch$5 0000000180017a53 f   name.obj
 0001:00016a60       __catch$_wrap_new_ea_name_t__SWIG_1$5 0000000180017a60 f   name.obj
 0001:00016a8c       _wrap_new_ea_name_t__SWIG_1$catch$6 0000000180017a8c f   name.obj
 0001:00016a99       __catch$_wrap_new_ea_name_t__SWIG_1$7 0000000180017a99 f   name.obj
 0001:00016ab1       _wrap_new_ea_name_t__SWIG_1$catch$7 0000000180017ab1 f   name.obj
 0001:00016abe       __catch$_wrap_new_ea_name_t__SWIG_1$9 0000000180017abe f   name.obj
 0001:00016ad6       _wrap_new_ea_name_t__SWIG_1$catch$8 0000000180017ad6 f   name.obj
 0001:00016ae3       __catch$_wrap_new_ea_name_t__SWIG_1$11 0000000180017ae3 f   name.obj
 0001:00016b0f       _wrap_new_ea_name_t__SWIG_1$catch$9 0000000180017b0f f   name.obj
 0001:00016b1c       __catch$_wrap_new_ea_name_t__SWIG_1$13 0000000180017b1c f   name.obj
 0001:00016b50       _wrap_new_ea_name_vec_t__SWIG_0$catch$6 0000000180017b50 f   name.obj
 0001:00016b5d       __catch$_wrap_new_ea_name_vec_t__SWIG_0$1 0000000180017b5d f   name.obj
 0001:00016b83       _wrap_new_ea_name_vec_t__SWIG_0$catch$5 0000000180017b83 f   name.obj
 0001:00016b90       __catch$_wrap_new_ea_name_vec_t__SWIG_0$3 0000000180017b90 f   name.obj
 0001:00016bbc       _wrap_new_ea_name_vec_t__SWIG_0$catch$4 0000000180017bbc f   name.obj
 0001:00016bc9       __catch$_wrap_new_ea_name_vec_t__SWIG_0$5 0000000180017bc9 f   name.obj
 0001:00016be1       _wrap_new_ea_name_vec_t__SWIG_0$catch$3 0000000180017be1 f   name.obj
 0001:00016bee       __catch$_wrap_new_ea_name_vec_t__SWIG_0$7 0000000180017bee f   name.obj
 0001:00016c06       _wrap_new_ea_name_vec_t__SWIG_0$catch$2 0000000180017c06 f   name.obj
 0001:00016c13       __catch$_wrap_new_ea_name_vec_t__SWIG_0$9 0000000180017c13 f   name.obj
 0001:00016c3f       _wrap_new_ea_name_vec_t__SWIG_0$catch$1 0000000180017c3f f   name.obj
 0001:00016c4c       __catch$_wrap_new_ea_name_vec_t__SWIG_0$11 0000000180017c4c f   name.obj
 0001:00016c80       _wrap_new_ea_name_vec_t__SWIG_1$catch$6 0000000180017c80 f   name.obj
 0001:00016c8d       __catch$_wrap_new_ea_name_vec_t__SWIG_1$3 0000000180017c8d f   name.obj
 0001:00016cb3       _wrap_new_ea_name_vec_t__SWIG_1$catch$5 0000000180017cb3 f   name.obj
 0001:00016cc0       __catch$_wrap_new_ea_name_vec_t__SWIG_1$5 0000000180017cc0 f   name.obj
 0001:00016cec       _wrap_new_ea_name_vec_t__SWIG_1$catch$4 0000000180017cec f   name.obj
 0001:00016cf9       __catch$_wrap_new_ea_name_vec_t__SWIG_1$7 0000000180017cf9 f   name.obj
 0001:00016d11       _wrap_new_ea_name_vec_t__SWIG_1$catch$3 0000000180017d11 f   name.obj
 0001:00016d1e       __catch$_wrap_new_ea_name_vec_t__SWIG_1$9 0000000180017d1e f   name.obj
 0001:00016d36       _wrap_new_ea_name_vec_t__SWIG_1$catch$2 0000000180017d36 f   name.obj
 0001:00016d43       __catch$_wrap_new_ea_name_vec_t__SWIG_1$11 0000000180017d43 f   name.obj
 0001:00016d6f       _wrap_new_ea_name_vec_t__SWIG_1$catch$1 0000000180017d6f f   name.obj
 0001:00016d7c       __catch$_wrap_new_ea_name_vec_t__SWIG_1$13 0000000180017d7c f   name.obj
 0001:00016db0       _wrap_rebuild_nlist$catch$5 0000000180017db0 f   name.obj
 0001:00016dbd       __catch$_wrap_rebuild_nlist$1 0000000180017dbd f   name.obj
 0001:00016de3       _wrap_rebuild_nlist$catch$4 0000000180017de3 f   name.obj
 0001:00016df0       __catch$_wrap_rebuild_nlist$3 0000000180017df0 f   name.obj
 0001:00016e1c       _wrap_rebuild_nlist$catch$3 0000000180017e1c f   name.obj
 0001:00016e29       __catch$_wrap_rebuild_nlist$5 0000000180017e29 f   name.obj
 0001:00016e41       _wrap_rebuild_nlist$catch$2 0000000180017e41 f   name.obj
 0001:00016e4e       __catch$_wrap_rebuild_nlist$7 0000000180017e4e f   name.obj
 0001:00016e66       _wrap_rebuild_nlist$catch$1 0000000180017e66 f   name.obj
 0001:00016e73       __catch$_wrap_rebuild_nlist$9 0000000180017e73 f   name.obj
 0001:00016e9f       _wrap_rebuild_nlist$catch$0 0000000180017e9f f   name.obj
 0001:00016eac       __catch$_wrap_rebuild_nlist$11 0000000180017eac f   name.obj
 0001:00016ee0       _wrap_reorder_dummy_names$catch$5 0000000180017ee0 f   name.obj
 0001:00016eed       __catch$_wrap_reorder_dummy_names$1 0000000180017eed f   name.obj
 0001:00016f13       _wrap_reorder_dummy_names$catch$4 0000000180017f13 f   name.obj
 0001:00016f20       __catch$_wrap_reorder_dummy_names$3 0000000180017f20 f   name.obj
 0001:00016f4c       _wrap_reorder_dummy_names$catch$3 0000000180017f4c f   name.obj
 0001:00016f59       __catch$_wrap_reorder_dummy_names$5 0000000180017f59 f   name.obj
 0001:00016f71       _wrap_reorder_dummy_names$catch$2 0000000180017f71 f   name.obj
 0001:00016f7e       __catch$_wrap_reorder_dummy_names$7 0000000180017f7e f   name.obj
 0001:00016f96       _wrap_reorder_dummy_names$catch$1 0000000180017f96 f   name.obj
 0001:00016fa3       __catch$_wrap_reorder_dummy_names$9 0000000180017fa3 f   name.obj
 0001:00016fcf       _wrap_reorder_dummy_names$catch$0 0000000180017fcf f   name.obj
 0001:00016fdc       __catch$_wrap_reorder_dummy_names$11 0000000180017fdc f   name.obj
 0001:00017010       _wrap_set_cp_validity$catch$5 0000000180018010 f   name.obj
 0001:0001701d       __catch$_wrap_set_cp_validity$5 000000018001801d f   name.obj
 0001:00017043       _wrap_set_cp_validity$catch$4 0000000180018043 f   name.obj
 0001:00017050       __catch$_wrap_set_cp_validity$7 0000000180018050 f   name.obj
 0001:0001707c       _wrap_set_cp_validity$catch$3 000000018001807c f   name.obj
 0001:00017089       __catch$_wrap_set_cp_validity$9 0000000180018089 f   name.obj
 0001:000170a1       _wrap_set_cp_validity$catch$2 00000001800180a1 f   name.obj
 0001:000170ae       __catch$_wrap_set_cp_validity$11 00000001800180ae f   name.obj
 0001:000170c6       _wrap_set_cp_validity$catch$1 00000001800180c6 f   name.obj
 0001:000170d3       __catch$_wrap_set_cp_validity$13 00000001800180d3 f   name.obj
 0001:000170ff       _wrap_set_cp_validity$catch$0 00000001800180ff f   name.obj
 0001:0001710c       __catch$_wrap_set_cp_validity$15 000000018001810c f   name.obj
 0001:00017140       _wrap_set_debug_name$catch$5 0000000180018140 f   name.obj
 0001:0001714d       __catch$_wrap_set_debug_name$3 000000018001814d f   name.obj
 0001:00017173       _wrap_set_debug_name$catch$4 0000000180018173 f   name.obj
 0001:00017180       __catch$_wrap_set_debug_name$5 0000000180018180 f   name.obj
 0001:000171ac       _wrap_set_debug_name$catch$3 00000001800181ac f   name.obj
 0001:000171b9       __catch$_wrap_set_debug_name$7 00000001800181b9 f   name.obj
 0001:000171d1       _wrap_set_debug_name$catch$2 00000001800181d1 f   name.obj
 0001:000171de       __catch$_wrap_set_debug_name$9 00000001800181de f   name.obj
 0001:000171f6       _wrap_set_debug_name$catch$1 00000001800181f6 f   name.obj
 0001:00017203       __catch$_wrap_set_debug_name$11 0000000180018203 f   name.obj
 0001:0001722f       _wrap_set_debug_name$catch$0 000000018001822f f   name.obj
 0001:0001723c       __catch$_wrap_set_debug_name$13 000000018001823c f   name.obj
 0001:00017270       _wrap_set_dummy_name$catch$5 0000000180018270 f   name.obj
 0001:0001727d       __catch$_wrap_set_dummy_name$3 000000018001827d f   name.obj
 0001:000172a3       _wrap_set_dummy_name$catch$4 00000001800182a3 f   name.obj
 0001:000172b0       __catch$_wrap_set_dummy_name$5 00000001800182b0 f   name.obj
 0001:000172dc       _wrap_set_dummy_name$catch$3 00000001800182dc f   name.obj
 0001:000172e9       __catch$_wrap_set_dummy_name$7 00000001800182e9 f   name.obj
 0001:00017301       _wrap_set_dummy_name$catch$2 0000000180018301 f   name.obj
 0001:0001730e       __catch$_wrap_set_dummy_name$9 000000018001830e f   name.obj
 0001:00017326       _wrap_set_dummy_name$catch$1 0000000180018326 f   name.obj
 0001:00017333       __catch$_wrap_set_dummy_name$11 0000000180018333 f   name.obj
 0001:0001735f       _wrap_set_dummy_name$catch$0 000000018001835f f   name.obj
 0001:0001736c       __catch$_wrap_set_dummy_name$13 000000018001836c f   name.obj
 0001:000173a0       _wrap_set_name$catch$5     00000001800183a0 f   name.obj
 0001:000173ad       __catch$_wrap_set_name$4   00000001800183ad f   name.obj
 0001:000173d3       _wrap_set_name$catch$4     00000001800183d3 f   name.obj
 0001:000173e0       __catch$_wrap_set_name$6   00000001800183e0 f   name.obj
 0001:0001740c       _wrap_set_name$catch$3     000000018001840c f   name.obj
 0001:00017419       __catch$_wrap_set_name$8   0000000180018419 f   name.obj
 0001:00017431       _wrap_set_name$catch$2     0000000180018431 f   name.obj
 0001:0001743e       __catch$_wrap_set_name$10  000000018001843e f   name.obj
 0001:00017456       _wrap_set_name$catch$1     0000000180018456 f   name.obj
 0001:00017463       __catch$_wrap_set_name$12  0000000180018463 f   name.obj
 0001:0001748f       _wrap_set_name$catch$0     000000018001848f f   name.obj
 0001:0001749c       __catch$_wrap_set_name$14  000000018001849c f   name.obj
 0001:000174d0       _wrap_show_name$catch$5    00000001800184d0 f   name.obj
 0001:000174dd       __catch$_wrap_show_name$2  00000001800184dd f   name.obj
 0001:00017503       _wrap_show_name$catch$4    0000000180018503 f   name.obj
 0001:00017510       __catch$_wrap_show_name$4  0000000180018510 f   name.obj
 0001:0001753c       _wrap_show_name$catch$3    000000018001853c f   name.obj
 0001:00017549       __catch$_wrap_show_name$6  0000000180018549 f   name.obj
 0001:00017561       _wrap_show_name$catch$2    0000000180018561 f   name.obj
 0001:0001756e       __catch$_wrap_show_name$8  000000018001856e f   name.obj
 0001:00017586       _wrap_show_name$catch$1    0000000180018586 f   name.obj
 0001:00017593       __catch$_wrap_show_name$10 0000000180018593 f   name.obj
 0001:000175bf       _wrap_show_name$catch$0    00000001800185bf f   name.obj
 0001:000175cc       __catch$_wrap_show_name$12 00000001800185cc f   name.obj
 0001:00017600       _wrap_validate_name$catch$8 0000000180018600 f   name.obj
 0001:0001760d       __catch$_wrap_validate_name$4 000000018001860d f   name.obj
 0001:00017633       _wrap_validate_name$catch$7 0000000180018633 f   name.obj
 0001:00017640       __catch$_wrap_validate_name$6 0000000180018640 f   name.obj
 0001:0001766c       _wrap_validate_name$catch$6 000000018001866c f   name.obj
 0001:00017679       __catch$_wrap_validate_name$8 0000000180018679 f   name.obj
 0001:00017691       _wrap_validate_name$catch$5 0000000180018691 f   name.obj
 0001:0001769e       __catch$_wrap_validate_name$10 000000018001869e f   name.obj
 0001:000176b6       _wrap_validate_name$catch$4 00000001800186b6 f   name.obj
 0001:000176c3       __catch$_wrap_validate_name$12 00000001800186c3 f   name.obj
 0001:000176ef       _wrap_validate_name$catch$3 00000001800186ef f   name.obj
 0001:000176fc       __catch$_wrap_validate_name$14 00000001800186fc f   name.obj
 0001:00017722       ?fin$0@?0??dllmain_crt_process_attach@@YAHQEAUHINSTANCE__@@QEAX@Z@4HA 0000000180018722 f   MSVCRT:dll_dllmain.obj
 0001:00017739       ?fin$0@?0??dllmain_crt_process_detach@@YAH_N@Z@4HA 0000000180018739 f   MSVCRT:dll_dllmain.obj
 0001:00017755       ?filt$0@?0??dllmain_dispatch@@YAHQEAUHINSTANCE__@@KQEAX@Z@4HA 0000000180018755 f   MSVCRT:dll_dllmain.obj
 0001:0001778b       __scrt_is_nonwritable_in_current_image$filt$0 000000018001878b f   MSVCRT:utility.obj
 0002:00000678       ?__scrt_initialize_tss_var@@3P6AHXZEA 0000000180019678     MSVCRT:thread_safe_statics.obj
 0002:00003700       $cppxdata$_wrap_new_ea_name_vec_t__SWIG_0 000000018001c700     name.obj
 0002:00003728       $cppxdata$_wrap_new_ea_name_vec_t__SWIG_1 000000018001c728     name.obj
 0002:00003750       $cppxdata$_wrap_delete_ea_name_vec_t 000000018001c750     name.obj
 0002:00003778       $cppxdata$_wrap_ea_name_vec_t_push_back__SWIG_0 000000018001c778     name.obj
 0002:000037a0       $cppxdata$_wrap_ea_name_vec_t_push_back__SWIG_1 000000018001c7a0     name.obj
 0002:000037c8       $cppxdata$_wrap_ea_name_vec_t_pop_back 000000018001c7c8     name.obj
 0002:000037f0       $cppxdata$_wrap_ea_name_vec_t_size 000000018001c7f0     name.obj
 0002:00003818       $cppxdata$_wrap_ea_name_vec_t_empty 000000018001c818     name.obj
 0002:00003840       $cppxdata$_wrap_ea_name_vec_t_at 000000018001c840     name.obj
 0002:00003868       $cppxdata$_wrap_ea_name_vec_t_qclear 000000018001c868     name.obj
 0002:00003890       $cppxdata$_wrap_ea_name_vec_t_clear 000000018001c890     name.obj
 0002:000038b8       $cppxdata$_wrap_ea_name_vec_t_resize__SWIG_0 000000018001c8b8     name.obj
 0002:000038e0       $cppxdata$_wrap_ea_name_vec_t_resize__SWIG_1 000000018001c8e0     name.obj
 0002:00003908       $cppxdata$_wrap_ea_name_vec_t_grow 000000018001c908     name.obj
 0002:00003930       $cppxdata$_wrap_ea_name_vec_t_capacity 000000018001c930     name.obj
 0002:00003958       $cppxdata$_wrap_ea_name_vec_t_reserve 000000018001c958     name.obj
 0002:00003980       $cppxdata$_wrap_ea_name_vec_t_truncate 000000018001c980     name.obj
 0002:000039a8       $cppxdata$_wrap_ea_name_vec_t_swap 000000018001c9a8     name.obj
 0002:000039d0       $cppxdata$_wrap_ea_name_vec_t_extract 000000018001c9d0     name.obj
 0002:000039f8       $cppxdata$_wrap_ea_name_vec_t_inject 000000018001c9f8     name.obj
 0002:00003a20       $cppxdata$_wrap_ea_name_vec_t_begin__SWIG_0 000000018001ca20     name.obj
 0002:00003a48       $cppxdata$_wrap_ea_name_vec_t_end__SWIG_0 000000018001ca48     name.obj
 0002:00003a70       $cppxdata$_wrap_ea_name_vec_t_begin__SWIG_1 000000018001ca70     name.obj
 0002:00003a98       $cppxdata$_wrap_ea_name_vec_t_end__SWIG_1 000000018001ca98     name.obj
 0002:00003ac0       $cppxdata$_wrap_ea_name_vec_t_insert 000000018001cac0     name.obj
 0002:00003ae8       $cppxdata$_wrap_ea_name_vec_t_erase__SWIG_0 000000018001cae8     name.obj
 0002:00003b10       $cppxdata$_wrap_ea_name_vec_t_erase__SWIG_1 000000018001cb10     name.obj
 0002:00003b38       $cppxdata$_wrap_ea_name_vec_t___len__ 000000018001cb38     name.obj
 0002:00003b60       $cppxdata$_wrap_ea_name_vec_t___getitem__ 000000018001cb60     name.obj
 0002:00003b88       $cppxdata$_wrap_ea_name_vec_t___setitem__ 000000018001cb88     name.obj
 0002:00003bb0       $cppxdata$_wrap_get_name   000000018001cbb0     name.obj
 0002:00003bd8       $cppxdata$_wrap_get_colored_name 000000018001cbd8     name.obj
 0002:00003c00       $cppxdata$_wrap_set_name   000000018001cc00     name.obj
 0002:00003c28       $cppxdata$_wrap_force_name 000000018001cc28     name.obj
 0002:00003c50       $cppxdata$_wrap_del_global_name 000000018001cc50     name.obj
 0002:00003c78       $cppxdata$_wrap_del_local_name 000000018001cc78     name.obj
 0002:00003ca0       $cppxdata$_wrap_set_dummy_name 000000018001cca0     name.obj
 0002:00003cc8       $cppxdata$_wrap_make_name_auto 000000018001ccc8     name.obj
 0002:00003cf0       $cppxdata$_wrap_make_name_user 000000018001ccf0     name.obj
 0002:00003d18       $cppxdata$_wrap_is_valid_cp 000000018001cd18     name.obj
 0002:00003d40       $cppxdata$_wrap_set_cp_validity 000000018001cd40     name.obj
 0002:00003d68       $cppxdata$_wrap_is_ident_cp 000000018001cd68     name.obj
 0002:00003d90       $cppxdata$_wrap_is_strlit_cp 000000018001cd90     name.obj
 0002:00003db8       $cppxdata$_wrap_is_visible_cp 000000018001cdb8     name.obj
 0002:00003de0       $cppxdata$_wrap_is_ident   000000018001cde0     name.obj
 0002:00003e08       $cppxdata$_wrap_is_uname   000000018001ce08     name.obj
 0002:00003e30       $cppxdata$_wrap_is_valid_typename 000000018001ce30     name.obj
 0002:00003e58       $cppxdata$_wrap_extract_name 000000018001ce58     name.obj
 0002:00003e80       $cppxdata$_wrap_hide_name  000000018001ce80     name.obj
 0002:00003ea8       $cppxdata$_wrap_show_name  000000018001cea8     name.obj
 0002:00003ed0       $cppxdata$_wrap_get_name_ea 000000018001ced0     name.obj
 0002:00003ef8       $cppxdata$_wrap_get_name_base_ea 000000018001cef8     name.obj
 0002:00003f20       $cppxdata$_wrap_get_name_value 000000018001cf20     name.obj
 0002:00003f48       $cppxdata$_wrap_get_visible_name 000000018001cf48     name.obj
 0002:00003f70       $cppxdata$_wrap_get_short_name 000000018001cf70     name.obj
 0002:00003f98       $cppxdata$_wrap_get_long_name 000000018001cf98     name.obj
 0002:00003fc0       $cppxdata$_wrap_get_colored_short_name 000000018001cfc0     name.obj
 0002:00003fe8       $cppxdata$_wrap_get_colored_long_name 000000018001cfe8     name.obj
 0002:00004010       $cppxdata$_wrap_get_demangled_name 000000018001d010     name.obj
 0002:00004038       $cppxdata$_wrap_get_colored_demangled_name 000000018001d038     name.obj
 0002:00004060       $cppxdata$_wrap_get_name_color 000000018001d060     name.obj
 0002:00004088       $cppxdata$_wrap_get_name_expr 000000018001d088     name.obj
 0002:000040b0       $cppxdata$_wrap_get_nice_colored_name 000000018001d0b0     name.obj
 0002:000040d8       $cppxdata$_wrap_append_struct_fields 000000018001d0d8     name.obj
 0002:00004100       $cppxdata$_wrap_is_public_name 000000018001d100     name.obj
 0002:00004128       $cppxdata$_wrap_make_name_public 000000018001d128     name.obj
 0002:00004150       $cppxdata$_wrap_make_name_non_public 000000018001d150     name.obj
 0002:00004178       $cppxdata$_wrap_is_weak_name 000000018001d178     name.obj
 0002:000041a0       $cppxdata$_wrap_make_name_weak 000000018001d1a0     name.obj
 0002:000041c8       $cppxdata$_wrap_make_name_non_weak 000000018001d1c8     name.obj
 0002:000041f0       $cppxdata$_wrap_get_nlist_size 000000018001d1f0     name.obj
 0002:00004218       $cppxdata$_wrap_get_nlist_idx 000000018001d218     name.obj
 0002:00004240       $cppxdata$_wrap_is_in_nlist 000000018001d240     name.obj
 0002:00004268       $cppxdata$_wrap_get_nlist_ea 000000018001d268     name.obj
 0002:00004290       $cppxdata$_wrap_get_nlist_name 000000018001d290     name.obj
 0002:000042b8       $cppxdata$_wrap_rebuild_nlist 000000018001d2b8     name.obj
 0002:000042e0       $cppxdata$_wrap_reorder_dummy_names 000000018001d2e0     name.obj
 0002:00004308       $cppxdata$_wrap_new_ea_name_t__SWIG_0 000000018001d308     name.obj
 0002:00004330       $cppxdata$_wrap_new_ea_name_t__SWIG_1 000000018001d330     name.obj
 0002:00004358       $cppxdata$_wrap_delete_ea_name_t 000000018001d358     name.obj
 0002:00004380       $cppxdata$_wrap_set_debug_name 000000018001d380     name.obj
 0002:000043a8       $cppxdata$_wrap_get_debug_name 000000018001d3a8     name.obj
 0002:000043d0       $cppxdata$_wrap_del_debug_names 000000018001d3d0     name.obj
 0002:000043f8       $cppxdata$_wrap_get_debug_name_ea 000000018001d3f8     name.obj
 0002:00004420       $cppxdata$_wrap_get_debug_names__SWIG_0 000000018001d420     name.obj
 0002:00004448       $cppxdata$_wrap_demangle_name 000000018001d448     name.obj
 0002:00004470       $cppxdata$_wrap_is_name_defined_locally 000000018001d470     name.obj
 0002:00004498       $cppxdata$_wrap_cleanup_name 000000018001d498     name.obj
 0002:000044c0       $cppxdata$_wrap_get_debug_names__SWIG_1 000000018001d4c0     name.obj
 0002:000044e8       $cppxdata$_wrap_get_ea_name 000000018001d4e8     name.obj
 0002:00004510       $cppxdata$_wrap_validate_name 000000018001d510     name.obj
 0002:00004538       ?hex@?1??SWIG_PackData@@9@4QBDB 000000018001d538     name.obj
 0002:00007ee0       ?cis@?1??PyInit__ida_name@@9@4QBUci_t@?1??1@YAPEAU_object@@XZ@B 0000000180020ee0     name.obj
 0002:000087b0       $cppxdata$?__scrt_initialize_thread_safe_statics@@YAHXZ 00000001800217b0     MSVCRT:thread_safe_statics.obj
 0002:00008918       GS_ExceptionPointers       0000000180021918     MSVCRT:gs_report.obj
 0002:000090f8       $unwind$printf             00000001800220f8     name.obj
 0002:00009104       $unwind$_RTC_Terminate     0000000180022104     MSVCRT:initsect.obj
 0002:00009104       $unwind$?resize@?$qvector@D@@QEAAX_K@Z 0000000180022104     name.obj
 0002:00009104       $unwind$Swig_var_ignore_stkvar_set 0000000180022104     name.obj
 0002:00009104       $unwind$??_Gout_of_range@std@@UEAAPEAXI@Z 0000000180022104     name.obj
 0002:00009104       $unwind$_RTC_Initialize    0000000180022104     MSVCRT:initsect.obj
 0002:00009104       $unwind$Swig_var_ignore_glabel_set 0000000180022104     name.obj
 0002:00009104       $unwind$Swig_var_ignore_llabel_set 0000000180022104     name.obj
 0002:00009104       $unwind$Swig_var_ignore_regvar_set 0000000180022104     name.obj
 0002:00009104       $unwind$Swig_var_ignore_none_set 0000000180022104     name.obj
 0002:00009104       $unwind$??_Gbad_alloc@std@@UEAAPEAXI@Z 0000000180022104     MSVCRT:throw_bad_alloc.obj
 0002:00009104       $unwind$SwigPyObject_append 0000000180022104     name.obj
 0002:00009104       $unwind$?SWIG_AsVal_unsigned_SS_int@@YAHPEAU_object@@PEAI@Z 0000000180022104     name.obj
 0002:00009104       $unwind$SWIG_TypeClientData 0000000180022104     name.obj
 0002:00009104       $unwind$??_Gbad_array_new_length@std@@UEAAPEAXI@Z 0000000180022104     MSVCRT:throw_bad_alloc.obj
 0002:00009104       $unwind$swig_varlink_getattr 0000000180022104     name.obj
 0002:00009104       $unwind$??_Glogic_error@std@@UEAAPEAXI@Z 0000000180022104     name.obj
 0002:00009104       $unwind$swig_varlink_setattr 0000000180022104     name.obj
 0002:00009104       $unwind$??_Gexception@std@@UEAAPEAXI@Z 0000000180022104     name.obj
 0002:00009110       $unwind$SWIG_MangledTypeQueryModule 0000000180022110     name.obj
 0002:00009120       $unwind$__scrt_initialize_crt 0000000180022120     MSVCRT:utility.obj
 0002:00009120       $unwind$?SWIG_FromCharPtr@@YAPEAU_object@@PEBD@Z 0000000180022120     name.obj
 0002:00009120       $unwind$__scrt_release_startup_lock 0000000180022120     MSVCRT:utility.obj
 0002:00009120       $unwind$?clear@?$qvector@Uea_name_t@@@@QEAAXXZ 0000000180022120     name.obj
 0002:00009120       $unwind$__scrt_uninitialize_crt 0000000180022120     MSVCRT:utility.obj
 0002:00009120       $unwind$??2@YAPEAX_K@Z     0000000180022120     MSVCRT:new_scalar.obj
 0002:00009120       $unwind$?SWIG_Python_RaiseOrModifyTypeError@@YAXPEBD@Z 0000000180022120     name.obj
 0002:00009120       $unwind$??1?$SwigValueWrapper@V?$_qstring@D@@@@QEAA@XZ 0000000180022120     name.obj
 0002:00009120       $unwind$_onexit            0000000180022120     MSVCRT:utility.obj
 0002:00009120       $unwind$??0bad_array_new_length@std@@QEAA@AEBV01@@Z 0000000180022120     MSVCRT:throw_bad_alloc.obj
 0002:00009120       $unwind$??0bad_alloc@std@@QEAA@AEBV01@@Z 0000000180022120     MSVCRT:throw_bad_alloc.obj
 0002:00009120       $unwind$??_Gtype_info@@UEAAPEAXI@Z 0000000180022120     MSVCRT:std_type_info_static.obj
 0002:00009120       $unwind$??0out_of_range@std@@QEAA@AEBV01@@Z 0000000180022120     name.obj
 0002:00009120       $unwind$swig_varlink_dealloc 0000000180022120     name.obj
 0002:00009120       $unwind$??0logic_error@std@@QEAA@AEBV01@@Z 0000000180022120     name.obj
 0002:00009120       $unwind$_Init_thread_wait  0000000180022120     MSVCRT:thread_safe_statics.obj
 0002:00009120       $unwind$??0exception@std@@QEAA@AEBV01@@Z 0000000180022120     name.obj
 0002:00009120       $unwind$_Init_thread_footer 0000000180022120     MSVCRT:thread_safe_statics.obj
 0002:00009120       $unwind$_Init_thread_header 0000000180022120     MSVCRT:thread_safe_statics.obj
 0002:00009120       $unwind$__raise_securityfailure 0000000180022120     MSVCRT:gs_report.obj
 0002:00009120       $unwind$SwigPyPacked_dealloc 0000000180022120     name.obj
 0002:00009120       $unwind$SWIG_Python_GetSwigThis 0000000180022120     name.obj
 0002:00009128       $unwind$?SWIG_Python_AppendOutput@@YAPEAU_object@@PEAU1@0@Z 0000000180022128     name.obj
 0002:00009134       $chain$0$?SWIG_Python_AppendOutput@@YAPEAU_object@@PEAU1@0@Z 0000000180022134     name.obj
 0002:00009148       $chain$1$?SWIG_Python_AppendOutput@@YAPEAU_object@@PEAU1@0@Z 0000000180022148     name.obj
 0002:00009158       $unwind$?SWIG_Python_UnpackTuple@@YA_JPEAU_object@@PEBD_J2PEAPEAU1@@Z 0000000180022158     name.obj
 0002:0000916c       $chain$0$?SWIG_Python_UnpackTuple@@YA_JPEAU_object@@PEBD_J2PEAPEAU1@@Z 000000018002216c     name.obj
 0002:00009180       $chain$1$?SWIG_Python_UnpackTuple@@YA_JPEAU_object@@PEBD_J2PEAPEAU1@@Z 0000000180022180     name.obj
 0002:00009190       $unwind$SwigPyClientData_New 0000000180022190     name.obj
 0002:000091a0       $chain$2$SwigPyClientData_New 00000001800221a0     name.obj
 0002:000091b4       $chain$3$SwigPyClientData_New 00000001800221b4     name.obj
 0002:000091c4       $unwind$??4?$_qstring@D@@QEAAAEAV0@AEBV0@@Z 00000001800221c4     name.obj
 0002:000091c4       $unwind$SwigPyObject_repr  00000001800221c4     name.obj
 0002:000091d0       $chain$0$SwigPyObject_repr 00000001800221d0     name.obj
 0002:000091e4       $chain$1$SwigPyObject_repr 00000001800221e4     name.obj
 0002:000091f4       $unwind$SwigPyObject_type  00000001800221f4     name.obj
 0002:00009208       $unwind$SwigPyObject_Check 0000000180022208     name.obj
 0002:00009208       $unwind$SwigPyPacked_Check 0000000180022208     name.obj
 0002:00009214       $unwind$SwigPyObject_New   0000000180022214     name.obj
 0002:00009214       $unwind$_DllMainCRTStartup 0000000180022214     MSVCRT:dll_dllmain.obj
 0002:00009214       $unwind$??0?$_qstring@D@@QEAA@AEBV0@@Z 0000000180022214     name.obj
 0002:00009224       $unwind$SwigPyObject_dealloc 0000000180022224     name.obj
 0002:00009230       $chain$2$SwigPyObject_dealloc 0000000180022230     name.obj
 0002:0000924c       $chain$3$SwigPyObject_dealloc 000000018002224c     name.obj
 0002:0000925c       $unwind$SwigPyObject_own   000000018002225c     name.obj
 0002:0000925c       $unwind$??0out_of_range@std@@QEAA@PEBD@Z 000000018002225c     name.obj
 0002:00009264       $chain$0$SwigPyObject_own  0000000180022264     name.obj
 0002:00009278       $chain$2$SwigPyObject_own  0000000180022278     name.obj
 0002:0000928c       $unwind$SwigPyPacked_str   000000018002228c     name.obj
 0002:0000928c       $unwind$SwigPyPacked_repr  000000018002228c     name.obj
 0002:0000929c       $chain$0$SwigPyPacked_repr 000000018002229c     name.obj
 0002:000092b0       $chain$1$SwigPyPacked_repr 00000001800222b0     name.obj
 0002:000092c0       $chain$0$SwigPyPacked_str  00000001800222c0     name.obj
 0002:000092d4       $chain$1$SwigPyPacked_str  00000001800222d4     name.obj
 0002:000092e4       $unwind$SwigPyPacked_type  00000001800222e4     name.obj
 0002:000092f4       $unwind$?dllmain_crt_dispatch@@YAHQEAUHINSTANCE__@@KQEAX@Z 00000001800222f4     MSVCRT:dll_dllmain.obj
 0002:000092f4       $unwind$__scrt_dllmain_after_initialize_c 00000001800222f4     MSVCRT:utility.obj
 0002:000092f4       $unwind$__scrt_dllmain_uninitialize_c 00000001800222f4     MSVCRT:utility.obj
 0002:000092f4       $unwind$__scrt_initialize_default_local_stdio_options 00000001800222f4     MSVCRT:default_local_stdio_options.obj
 0002:000092f4       $unwind$__scrt_dllmain_uninitialize_critical 00000001800222f4     MSVCRT:utility.obj
 0002:000092f4       $unwind$?__scrt_uninitialize_thread_safe_statics@@YAXXZ 00000001800222f4     MSVCRT:thread_safe_statics.obj
 0002:000092f4       $unwind$__GSHandlerCheck   00000001800222f4     MSVCRT:gshandler.obj
 0002:000092f4       $unwind$_Init_thread_notify 00000001800222f4     MSVCRT:thread_safe_statics.obj
 0002:000092f4       $unwind$__scrt_dllmain_crt_thread_detach 00000001800222f4     MSVCRT:utility.obj
 0002:000092f4       $unwind$?__raise_e@@YAXAEBVexception@std@@@Z 00000001800222f4     name.obj
 0002:000092f4       $unwind$atexit             00000001800222f4     MSVCRT:utility.obj
 0002:000092f4       $unwind$SWIG_Python_TypeCache 00000001800222f4     name.obj
 0002:000092f4       $unwind$SWIG_Python_DestroyModule 00000001800222f4     name.obj
 0002:000092f4       $unwind$__scrt_acquire_startup_lock 00000001800222f4     MSVCRT:utility.obj
 0002:000092f4       $unwind$DllMain            00000001800222f4     MSVCRT:dll_dllmain_stub.obj
 0002:000092f4       $unwind$__scrt_dllmain_crt_thread_attach 00000001800222f4     MSVCRT:utility.obj
 0002:000092f4       $unwind$SWIG_This          00000001800222f4     name.obj
 0002:000092f4       $unwind$__scrt_dllmain_before_initialize_c 00000001800222f4     MSVCRT:utility.obj
 0002:000092fc       $unwind$SWIG_Python_InitShadowInstance 00000001800222fc     name.obj
 0002:0000930c       $unwind$SWIG_Python_NewPointerObj 000000018002230c     name.obj
 0002:00009328       $chain$2$SWIG_Python_DestroyModule 0000000180022328     name.obj
 0002:00009344       $chain$3$SWIG_Python_DestroyModule 0000000180022344     name.obj
 0002:00009358       $chain$4$SWIG_Python_DestroyModule 0000000180022358     name.obj
 0002:00009368       $chain$5$SWIG_Python_DestroyModule 0000000180022368     name.obj
 0002:00009378       $unwind$SWIG_Python_TypeQuery 0000000180022378     name.obj
 0002:00009384       $chain$1$SWIG_Python_TypeQuery 0000000180022384     name.obj
 0002:0000939c       $chain$5$SWIG_Python_TypeQuery 000000018002239c     name.obj
 0002:000093bc       $chain$6$SWIG_Python_TypeQuery 00000001800223bc     name.obj
 0002:000093cc       $chain$7$SWIG_Python_TypeQuery 00000001800223cc     name.obj
 0002:000093dc       $unwind$??0?$_qstring@D@@QEAA@PEBD_K@Z 00000001800223dc     name.obj
 0002:000093ec       $chain$0$??0?$_qstring@D@@QEAA@PEBD_K@Z 00000001800223ec     name.obj
 0002:00009400       $chain$1$??0?$_qstring@D@@QEAA@PEBD_K@Z 0000000180022400     name.obj
 0002:00009410       $chain$0$??4?$_qstring@D@@QEAAAEAV0@AEBV0@@Z 0000000180022410     name.obj
 0002:00009424       $chain$2$??4?$_qstring@D@@QEAAAEAV0@AEBV0@@Z 0000000180022424     name.obj
 0002:00009438       $chain$3$??4?$_qstring@D@@QEAAAEAV0@AEBV0@@Z 0000000180022438     name.obj
 0002:00009448       $unwind$?sprnt@?$_qstring@D@@QEAAAEAV1@PEBDZZ 0000000180022448     name.obj
 0002:00009458       $unwind$?__raise_ie@@YAXAEBUinterr_exc_t@@@Z 0000000180022458     name.obj
 0002:00009458       $unwind$?__scrt_throw_std_bad_alloc@@YAXXZ 0000000180022458     MSVCRT:throw_bad_alloc.obj
 0002:00009458       $unwind$?__scrt_throw_std_bad_array_new_length@@YAXXZ 0000000180022458     MSVCRT:throw_bad_alloc.obj
 0002:00009460       $unwind$__scrt_dllmain_exception_filter 0000000180022460     MSVCRT:utility.obj
 0002:00009460       $unwind$?resize@?$qvector@Uea_name_t@@@@QEAAX_KAEBUea_name_t@@@Z 0000000180022460     name.obj
 0002:00009474       $unwind$_wrap_new_ea_name_vec_t__SWIG_0 0000000180022474     name.obj
 0002:00009484       $stateUnwindMap$_wrap_get_name_ea 0000000180022484     name.obj
 0002:00009484       $stateUnwindMap$_wrap_ea_name_vec_t_erase__SWIG_0 0000000180022484     name.obj
 0002:00009484       $stateUnwindMap$_wrap_new_ea_name_t__SWIG_1 0000000180022484     name.obj
 0002:00009484       $stateUnwindMap$_wrap_set_dummy_name 0000000180022484     name.obj
 0002:00009484       $stateUnwindMap$_wrap_ea_name_vec_t_resize__SWIG_1 0000000180022484     name.obj
 0002:00009484       $stateUnwindMap$_wrap_ea_name_vec_t_resize__SWIG_0 0000000180022484     name.obj
 0002:00009484       $stateUnwindMap$_wrap_ea_name_vec_t___getitem__ 0000000180022484     name.obj
 0002:00009484       $stateUnwindMap$_wrap_set_cp_validity 0000000180022484     name.obj
 0002:00009484       $stateUnwindMap$_wrap_new_ea_name_vec_t__SWIG_0 0000000180022484     name.obj
 0002:00009484       $stateUnwindMap$_wrap_is_ident_cp 0000000180022484     name.obj
 0002:00009484       $stateUnwindMap$_wrap_ea_name_vec_t___len__ 0000000180022484     name.obj
 0002:00009484       $stateUnwindMap$_wrap_make_name_auto 0000000180022484     name.obj
 0002:00009484       $stateUnwindMap$_wrap_ea_name_vec_t_clear 0000000180022484     name.obj
 0002:00009484       $stateUnwindMap$_wrap_ea_name_vec_t_empty 0000000180022484     name.obj
 0002:00009484       $stateUnwindMap$_wrap_delete_ea_name_vec_t 0000000180022484     name.obj
 0002:00009484       $stateUnwindMap$_wrap_new_ea_name_t__SWIG_0 0000000180022484     name.obj
 0002:00009484       $stateUnwindMap$_wrap_del_local_name 0000000180022484     name.obj
 0002:00009484       $stateUnwindMap$_wrap_ea_name_vec_t_insert 0000000180022484     name.obj
 0002:00009484       $stateUnwindMap$_wrap_get_name_base_ea 0000000180022484     name.obj
 0002:00009484       $stateUnwindMap$_wrap_ea_name_vec_t_size 0000000180022484     name.obj
 0002:00009484       $stateUnwindMap$_wrap_ea_name_vec_t_capacity 0000000180022484     name.obj
 0002:00009484       $stateUnwindMap$_wrap_show_name 0000000180022484     name.obj
 0002:00009484       $stateUnwindMap$_wrap_del_debug_names 0000000180022484     name.obj
 0002:00009484       $stateUnwindMap$_wrap_get_name_color 0000000180022484     name.obj
 0002:00009484       $stateUnwindMap$_wrap_get_name_value 0000000180022484     name.obj
 0002:00009484       $stateUnwindMap$_wrap_is_strlit_cp 0000000180022484     name.obj
 0002:00009484       $stateUnwindMap$_wrap_ea_name_vec_t_reserve 0000000180022484     name.obj
 0002:00009484       $stateUnwindMap$_wrap_ea_name_vec_t___setitem__ 0000000180022484     name.obj
 0002:00009484       $stateUnwindMap$_wrap_del_global_name 0000000180022484     name.obj
 0002:00009484       $stateUnwindMap$_wrap_ea_name_vec_t_push_back__SWIG_0 0000000180022484     name.obj
 0002:00009484       $stateUnwindMap$_wrap_ea_name_vec_t_truncate 0000000180022484     name.obj
 0002:00009484       $stateUnwindMap$_wrap_get_debug_name_ea 0000000180022484     name.obj
 0002:00009484       $stateUnwindMap$_wrap_is_visible_cp 0000000180022484     name.obj
 0002:00009484       $stateUnwindMap$_wrap_is_public_name 0000000180022484     name.obj
 0002:00009484       $stateUnwindMap$_wrap_new_ea_name_vec_t__SWIG_1 0000000180022484     name.obj
 0002:00009484       $stateUnwindMap$_wrap_reorder_dummy_names 0000000180022484     name.obj
 0002:00009484       $stateUnwindMap$_wrap_is_valid_cp 0000000180022484     name.obj
 0002:00009484       $stateUnwindMap$_wrap_ea_name_vec_t_swap 0000000180022484     name.obj
 0002:00009484       $stateUnwindMap$_wrap_ea_name_vec_t_end__SWIG_1 0000000180022484     name.obj
 0002:00009484       $stateUnwindMap$_wrap_ea_name_vec_t_qclear 0000000180022484     name.obj
 0002:00009484       $stateUnwindMap$_wrap_hide_name 0000000180022484     name.obj
 0002:00009484       $stateUnwindMap$_wrap_rebuild_nlist 0000000180022484     name.obj
 0002:00009484       $stateUnwindMap$_wrap_force_name 0000000180022484     name.obj
 0002:00009484       $stateUnwindMap$_wrap_delete_ea_name_t 0000000180022484     name.obj
 0002:00009484       $stateUnwindMap$_wrap_make_name_public 0000000180022484     name.obj
 0002:00009484       $stateUnwindMap$_wrap_get_debug_names__SWIG_0 0000000180022484     name.obj
 0002:00009484       $stateUnwindMap$_wrap_get_nlist_name 0000000180022484     name.obj
 0002:00009484       $stateUnwindMap$_wrap_set_debug_name 0000000180022484     name.obj
 0002:00009484       $stateUnwindMap$_wrap_validate_name 0000000180022484     name.obj
 0002:00009484       $stateUnwindMap$_wrap_ea_name_vec_t_extract 0000000180022484     name.obj
 0002:00009484       $stateUnwindMap$_wrap_ea_name_vec_t_at 0000000180022484     name.obj
 0002:00009484       $stateUnwindMap$_wrap_get_nlist_ea 0000000180022484     name.obj
 0002:00009484       $stateUnwindMap$_wrap_make_name_non_public 0000000180022484     name.obj
 0002:00009484       $stateUnwindMap$_wrap_is_in_nlist 0000000180022484     name.obj
 0002:00009484       $stateUnwindMap$_wrap_make_name_user 0000000180022484     name.obj
 0002:00009484       $stateUnwindMap$_wrap_is_ident 0000000180022484     name.obj
 0002:00009484       $stateUnwindMap$_wrap_ea_name_vec_t_erase__SWIG_1 0000000180022484     name.obj
 0002:00009484       $stateUnwindMap$_wrap_ea_name_vec_t_inject 0000000180022484     name.obj
 0002:00009484       $stateUnwindMap$_wrap_ea_name_vec_t_push_back__SWIG_1 0000000180022484     name.obj
 0002:00009484       $stateUnwindMap$_wrap_ea_name_vec_t_begin__SWIG_1 0000000180022484     name.obj
 0002:00009484       $stateUnwindMap$_wrap_set_name 0000000180022484     name.obj
 0002:00009484       $stateUnwindMap$_wrap_is_weak_name 0000000180022484     name.obj
 0002:00009484       $stateUnwindMap$_wrap_is_uname 0000000180022484     name.obj
 0002:00009484       $stateUnwindMap$_wrap_ea_name_vec_t_pop_back 0000000180022484     name.obj
 0002:00009484       $stateUnwindMap$_wrap_ea_name_vec_t_begin__SWIG_0 0000000180022484     name.obj
 0002:00009484       $stateUnwindMap$_wrap_make_name_weak 0000000180022484     name.obj
 0002:00009484       $stateUnwindMap$_wrap_get_nlist_idx 0000000180022484     name.obj
 0002:00009484       $stateUnwindMap$_wrap_is_valid_typename 0000000180022484     name.obj
 0002:00009484       $stateUnwindMap$_wrap_is_name_defined_locally 0000000180022484     name.obj
 0002:00009484       $stateUnwindMap$_wrap_get_nlist_size 0000000180022484     name.obj
 0002:00009484       $stateUnwindMap$_wrap_ea_name_vec_t_end__SWIG_0 0000000180022484     name.obj
 0002:00009484       $stateUnwindMap$_wrap_make_name_non_weak 0000000180022484     name.obj
 0002:00009494       $tryMap$_wrap_new_ea_name_vec_t__SWIG_0 0000000180022494     name.obj
 0002:000094a8       $handlerMap$0$_wrap_new_ea_name_vec_t__SWIG_0 00000001800224a8     name.obj
 0002:00009520       $ip2state$_wrap_new_ea_name_vec_t__SWIG_0 0000000180022520     name.obj
 0002:00009538       $unwind$_wrap_new_ea_name_vec_t__SWIG_0$catch$6 0000000180022538     name.obj
 0002:00009538       $unwind$_wrap_new_ea_name_vec_t__SWIG_0$catch$5 0000000180022538     name.obj
 0002:00009538       $unwind$_wrap_new_ea_name_vec_t__SWIG_0$catch$1 0000000180022538     name.obj
 0002:00009538       $unwind$_wrap_new_ea_name_vec_t__SWIG_0$catch$3 0000000180022538     name.obj
 0002:00009538       $unwind$_wrap_new_ea_name_vec_t__SWIG_0$catch$2 0000000180022538     name.obj
 0002:00009538       $unwind$_wrap_new_ea_name_vec_t__SWIG_0$catch$4 0000000180022538     name.obj
 0002:00009548       $unwind$_wrap_new_ea_name_vec_t__SWIG_1 0000000180022548     name.obj
 0002:00009568       $tryMap$_wrap_new_ea_name_vec_t__SWIG_1 0000000180022568     name.obj
 0002:0000957c       $handlerMap$0$_wrap_new_ea_name_vec_t__SWIG_1 000000018002257c     name.obj
 0002:000095f8       $ip2state$_wrap_new_ea_name_vec_t__SWIG_1 00000001800225f8     name.obj
 0002:00009618       $unwind$_wrap_new_ea_name_vec_t__SWIG_1$catch$6 0000000180022618     name.obj
 0002:00009618       $unwind$_wrap_new_ea_name_vec_t__SWIG_1$catch$1 0000000180022618     name.obj
 0002:00009618       $unwind$_wrap_new_ea_name_vec_t__SWIG_1$catch$2 0000000180022618     name.obj
 0002:00009618       $unwind$_wrap_new_ea_name_vec_t__SWIG_1$catch$3 0000000180022618     name.obj
 0002:00009618       $unwind$_wrap_new_ea_name_vec_t__SWIG_1$catch$5 0000000180022618     name.obj
 0002:00009618       $unwind$_wrap_new_ea_name_vec_t__SWIG_1$catch$4 0000000180022618     name.obj
 0002:00009628       $unwind$_wrap_new_ea_name_vec_t 0000000180022628     name.obj
 0002:00009640       $unwind$_wrap_delete_ea_name_vec_t 0000000180022640     name.obj
 0002:0000965c       $tryMap$_wrap_delete_ea_name_vec_t 000000018002265c     name.obj
 0002:00009670       $handlerMap$0$_wrap_delete_ea_name_vec_t 0000000180022670     name.obj
 0002:000096e8       $ip2state$_wrap_delete_ea_name_vec_t 00000001800226e8     name.obj
 0002:00009708       $unwind$_wrap_delete_ea_name_vec_t$catch$2 0000000180022708     name.obj
 0002:00009708       $unwind$_wrap_delete_ea_name_vec_t$catch$5 0000000180022708     name.obj
 0002:00009708       $unwind$_wrap_delete_ea_name_vec_t$catch$1 0000000180022708     name.obj
 0002:00009708       $unwind$_wrap_delete_ea_name_vec_t$catch$0 0000000180022708     name.obj
 0002:00009708       $unwind$_wrap_delete_ea_name_vec_t$catch$4 0000000180022708     name.obj
 0002:00009708       $unwind$_wrap_delete_ea_name_vec_t$catch$3 0000000180022708     name.obj
 0002:00009718       $unwind$_wrap_ea_name_vec_t_push_back__SWIG_0 0000000180022718     name.obj
 0002:00009738       $tryMap$_wrap_ea_name_vec_t_push_back__SWIG_0 0000000180022738     name.obj
 0002:0000974c       $handlerMap$0$_wrap_ea_name_vec_t_push_back__SWIG_0 000000018002274c     name.obj
 0002:000097c8       $ip2state$_wrap_ea_name_vec_t_push_back__SWIG_0 00000001800227c8     name.obj
 0002:000097f0       $unwind$_wrap_ea_name_vec_t_push_back__SWIG_0$catch$4 00000001800227f0     name.obj
 0002:000097f0       $unwind$_wrap_ea_name_vec_t_push_back__SWIG_0$catch$2 00000001800227f0     name.obj
 0002:000097f0       $unwind$_wrap_ea_name_vec_t_push_back__SWIG_0$catch$5 00000001800227f0     name.obj
 0002:000097f0       $unwind$_wrap_ea_name_vec_t_push_back__SWIG_0$catch$3 00000001800227f0     name.obj
 0002:000097f0       $unwind$_wrap_ea_name_vec_t_push_back__SWIG_0$catch$7 00000001800227f0     name.obj
 0002:000097f0       $unwind$_wrap_ea_name_vec_t_push_back__SWIG_0$catch$6 00000001800227f0     name.obj
 0002:00009800       $unwind$_wrap_ea_name_vec_t_push_back__SWIG_1 0000000180022800     name.obj
 0002:00009820       $tryMap$_wrap_ea_name_vec_t_push_back__SWIG_1 0000000180022820     name.obj
 0002:00009834       $handlerMap$0$_wrap_ea_name_vec_t_push_back__SWIG_1 0000000180022834     name.obj
 0002:000098b0       $ip2state$_wrap_ea_name_vec_t_push_back__SWIG_1 00000001800228b0     name.obj
 0002:000098d0       $unwind$_wrap_ea_name_vec_t_push_back__SWIG_1$catch$4 00000001800228d0     name.obj
 0002:000098d0       $unwind$_wrap_ea_name_vec_t_push_back__SWIG_1$catch$3 00000001800228d0     name.obj
 0002:000098d0       $unwind$_wrap_ea_name_vec_t_push_back__SWIG_1$catch$5 00000001800228d0     name.obj
 0002:000098d0       $unwind$_wrap_ea_name_vec_t_push_back__SWIG_1$catch$2 00000001800228d0     name.obj
 0002:000098d0       $unwind$_wrap_ea_name_vec_t_push_back__SWIG_1$catch$7 00000001800228d0     name.obj
 0002:000098d0       $unwind$_wrap_ea_name_vec_t_push_back__SWIG_1$catch$6 00000001800228d0     name.obj
 0002:000098e0       $unwind$_wrap_ea_name_vec_t_push_back 00000001800228e0     name.obj
 0002:00009900       $unwind$_wrap_ea_name_vec_t_pop_back 0000000180022900     name.obj
 0002:0000991c       $tryMap$_wrap_ea_name_vec_t_pop_back 000000018002291c     name.obj
 0002:00009930       $handlerMap$0$_wrap_ea_name_vec_t_pop_back 0000000180022930     name.obj
 0002:000099a8       $ip2state$_wrap_ea_name_vec_t_pop_back 00000001800229a8     name.obj
 0002:000099c8       $unwind$_wrap_ea_name_vec_t_pop_back$catch$3 00000001800229c8     name.obj
 0002:000099c8       $unwind$_wrap_ea_name_vec_t_pop_back$catch$4 00000001800229c8     name.obj
 0002:000099c8       $unwind$_wrap_ea_name_vec_t_pop_back$catch$6 00000001800229c8     name.obj
 0002:000099c8       $unwind$_wrap_ea_name_vec_t_pop_back$catch$5 00000001800229c8     name.obj
 0002:000099c8       $unwind$_wrap_ea_name_vec_t_pop_back$catch$2 00000001800229c8     name.obj
 0002:000099c8       $unwind$_wrap_ea_name_vec_t_pop_back$catch$7 00000001800229c8     name.obj
 0002:000099d8       $unwind$_wrap_ea_name_vec_t_size 00000001800229d8     name.obj
 0002:000099f4       $tryMap$_wrap_ea_name_vec_t_size 00000001800229f4     name.obj
 0002:00009a08       $handlerMap$0$_wrap_ea_name_vec_t_size 0000000180022a08     name.obj
 0002:00009a80       $ip2state$_wrap_ea_name_vec_t_size 0000000180022a80     name.obj
 0002:00009aa0       $unwind$_wrap_ea_name_vec_t_size$catch$2 0000000180022aa0     name.obj
 0002:00009aa0       $unwind$_wrap_ea_name_vec_t_size$catch$4 0000000180022aa0     name.obj
 0002:00009aa0       $unwind$_wrap_ea_name_vec_t_size$catch$3 0000000180022aa0     name.obj
 0002:00009aa0       $unwind$_wrap_ea_name_vec_t_size$catch$0 0000000180022aa0     name.obj
 0002:00009aa0       $unwind$_wrap_ea_name_vec_t_size$catch$5 0000000180022aa0     name.obj
 0002:00009aa0       $unwind$_wrap_ea_name_vec_t_size$catch$1 0000000180022aa0     name.obj
 0002:00009ab0       $unwind$_wrap_ea_name_vec_t_empty 0000000180022ab0     name.obj
 0002:00009ad0       $tryMap$_wrap_ea_name_vec_t_empty 0000000180022ad0     name.obj
 0002:00009ae4       $handlerMap$0$_wrap_ea_name_vec_t_empty 0000000180022ae4     name.obj
 0002:00009b60       $ip2state$_wrap_ea_name_vec_t_empty 0000000180022b60     name.obj
 0002:00009b80       $unwind$_wrap_ea_name_vec_t_empty$catch$5 0000000180022b80     name.obj
 0002:00009b80       $unwind$_wrap_ea_name_vec_t_empty$catch$1 0000000180022b80     name.obj
 0002:00009b80       $unwind$_wrap_ea_name_vec_t_empty$catch$2 0000000180022b80     name.obj
 0002:00009b80       $unwind$_wrap_ea_name_vec_t_empty$catch$3 0000000180022b80     name.obj
 0002:00009b80       $unwind$_wrap_ea_name_vec_t_empty$catch$4 0000000180022b80     name.obj
 0002:00009b80       $unwind$_wrap_ea_name_vec_t_empty$catch$0 0000000180022b80     name.obj
 0002:00009b90       $unwind$_wrap_ea_name_vec_t_at 0000000180022b90     name.obj
 0002:00009bac       $tryMap$_wrap_ea_name_vec_t_at 0000000180022bac     name.obj
 0002:00009bc0       $handlerMap$0$_wrap_ea_name_vec_t_at 0000000180022bc0     name.obj
 0002:00009c38       $ip2state$_wrap_ea_name_vec_t_at 0000000180022c38     name.obj
 0002:00009c58       $unwind$_wrap_ea_name_vec_t_at$catch$3 0000000180022c58     name.obj
 0002:00009c58       $unwind$_wrap_ea_name_vec_t_at$catch$1 0000000180022c58     name.obj
 0002:00009c58       $unwind$_wrap_ea_name_vec_t_at$catch$5 0000000180022c58     name.obj
 0002:00009c58       $unwind$_wrap_ea_name_vec_t_at$catch$0 0000000180022c58     name.obj
 0002:00009c58       $unwind$_wrap_ea_name_vec_t_at$catch$2 0000000180022c58     name.obj
 0002:00009c58       $unwind$_wrap_ea_name_vec_t_at$catch$4 0000000180022c58     name.obj
 0002:00009c68       $unwind$_wrap_ea_name_vec_t_qclear 0000000180022c68     name.obj
 0002:00009c84       $tryMap$_wrap_ea_name_vec_t_qclear 0000000180022c84     name.obj
 0002:00009c98       $handlerMap$0$_wrap_ea_name_vec_t_qclear 0000000180022c98     name.obj
 0002:00009d10       $ip2state$_wrap_ea_name_vec_t_qclear 0000000180022d10     name.obj
 0002:00009d30       $unwind$_wrap_ea_name_vec_t_qclear$catch$3 0000000180022d30     name.obj
 0002:00009d30       $unwind$_wrap_ea_name_vec_t_qclear$catch$4 0000000180022d30     name.obj
 0002:00009d30       $unwind$_wrap_ea_name_vec_t_qclear$catch$6 0000000180022d30     name.obj
 0002:00009d30       $unwind$_wrap_ea_name_vec_t_qclear$catch$7 0000000180022d30     name.obj
 0002:00009d30       $unwind$_wrap_ea_name_vec_t_qclear$catch$2 0000000180022d30     name.obj
 0002:00009d30       $unwind$_wrap_ea_name_vec_t_qclear$catch$5 0000000180022d30     name.obj
 0002:00009d40       $unwind$_wrap_ea_name_vec_t_clear 0000000180022d40     name.obj
 0002:00009d5c       $tryMap$_wrap_ea_name_vec_t_clear 0000000180022d5c     name.obj
 0002:00009d70       $handlerMap$0$_wrap_ea_name_vec_t_clear 0000000180022d70     name.obj
 0002:00009de8       $ip2state$_wrap_ea_name_vec_t_clear 0000000180022de8     name.obj
 0002:00009e08       $unwind$_wrap_ea_name_vec_t_clear$catch$4 0000000180022e08     name.obj
 0002:00009e08       $unwind$_wrap_ea_name_vec_t_clear$catch$1 0000000180022e08     name.obj
 0002:00009e08       $unwind$_wrap_ea_name_vec_t_clear$catch$2 0000000180022e08     name.obj
 0002:00009e08       $unwind$_wrap_ea_name_vec_t_clear$catch$0 0000000180022e08     name.obj
 0002:00009e08       $unwind$_wrap_ea_name_vec_t_clear$catch$5 0000000180022e08     name.obj
 0002:00009e08       $unwind$_wrap_ea_name_vec_t_clear$catch$3 0000000180022e08     name.obj
 0002:00009e18       $unwind$_wrap_ea_name_vec_t_resize__SWIG_0 0000000180022e18     name.obj
 0002:00009e38       $tryMap$_wrap_ea_name_vec_t_resize__SWIG_0 0000000180022e38     name.obj
 0002:00009e4c       $handlerMap$0$_wrap_ea_name_vec_t_resize__SWIG_0 0000000180022e4c     name.obj
 0002:00009ec8       $ip2state$_wrap_ea_name_vec_t_resize__SWIG_0 0000000180022ec8     name.obj
 0002:00009ef0       $unwind$_wrap_ea_name_vec_t_resize__SWIG_0$catch$2 0000000180022ef0     name.obj
 0002:00009ef0       $unwind$_wrap_ea_name_vec_t_resize__SWIG_0$catch$0 0000000180022ef0     name.obj
 0002:00009ef0       $unwind$_wrap_ea_name_vec_t_resize__SWIG_0$catch$1 0000000180022ef0     name.obj
 0002:00009ef0       $unwind$_wrap_ea_name_vec_t_resize__SWIG_0$catch$4 0000000180022ef0     name.obj
 0002:00009ef0       $unwind$_wrap_ea_name_vec_t_resize__SWIG_0$catch$3 0000000180022ef0     name.obj
 0002:00009ef0       $unwind$_wrap_ea_name_vec_t_resize__SWIG_0$catch$5 0000000180022ef0     name.obj
 0002:00009f00       $unwind$_wrap_ea_name_vec_t_resize__SWIG_1 0000000180022f00     name.obj
 0002:00009f20       $tryMap$_wrap_ea_name_vec_t_resize__SWIG_1 0000000180022f20     name.obj
 0002:00009f34       $handlerMap$0$_wrap_ea_name_vec_t_resize__SWIG_1 0000000180022f34     name.obj
 0002:00009fb0       $ip2state$_wrap_ea_name_vec_t_resize__SWIG_1 0000000180022fb0     name.obj
 0002:00009fd0       $unwind$_wrap_ea_name_vec_t_resize__SWIG_1$catch$4 0000000180022fd0     name.obj
 0002:00009fd0       $unwind$_wrap_ea_name_vec_t_resize__SWIG_1$catch$7 0000000180022fd0     name.obj
 0002:00009fd0       $unwind$_wrap_ea_name_vec_t_resize__SWIG_1$catch$6 0000000180022fd0     name.obj
 0002:00009fd0       $unwind$_wrap_ea_name_vec_t_resize__SWIG_1$catch$9 0000000180022fd0     name.obj
 0002:00009fd0       $unwind$_wrap_ea_name_vec_t_resize__SWIG_1$catch$5 0000000180022fd0     name.obj
 0002:00009fd0       $unwind$_wrap_ea_name_vec_t_resize__SWIG_1$catch$8 0000000180022fd0     name.obj
 0002:00009fe0       $unwind$_wrap_ea_name_vec_t_resize 0000000180022fe0     name.obj
 0002:0000a000       $unwind$_wrap_ea_name_vec_t_grow 0000000180023000     name.obj
 0002:0000a024       $stateUnwindMap$_wrap_ea_name_vec_t_grow 0000000180023024     name.obj
 0002:0000a03c       $tryMap$_wrap_ea_name_vec_t_grow 000000018002303c     name.obj
 0002:0000a050       $handlerMap$0$_wrap_ea_name_vec_t_grow 0000000180023050     name.obj
 0002:0000a0c8       $ip2state$_wrap_ea_name_vec_t_grow 00000001800230c8     name.obj
 0002:0000a0f0       $unwind$_wrap_ea_name_vec_t_grow$catch$11 00000001800230f0     name.obj
 0002:0000a0f0       $unwind$_wrap_ea_name_vec_t_grow$catch$12 00000001800230f0     name.obj
 0002:0000a0f0       $unwind$_wrap_ea_name_vec_t_grow$catch$9 00000001800230f0     name.obj
 0002:0000a0f0       $unwind$_wrap_ea_name_vec_t_grow$catch$7 00000001800230f0     name.obj
 0002:0000a0f0       $unwind$_wrap_ea_name_vec_t_grow$catch$10 00000001800230f0     name.obj
 0002:0000a0f0       $unwind$_wrap_ea_name_vec_t_grow$catch$8 00000001800230f0     name.obj
 0002:0000a100       $unwind$_wrap_ea_name_vec_t_capacity 0000000180023100     name.obj
 0002:0000a11c       $tryMap$_wrap_ea_name_vec_t_capacity 000000018002311c     name.obj
 0002:0000a130       $handlerMap$0$_wrap_ea_name_vec_t_capacity 0000000180023130     name.obj
 0002:0000a1a8       $ip2state$_wrap_ea_name_vec_t_capacity 00000001800231a8     name.obj
 0002:0000a1c8       $unwind$_wrap_ea_name_vec_t_capacity$catch$4 00000001800231c8     name.obj
 0002:0000a1c8       $unwind$_wrap_ea_name_vec_t_capacity$catch$3 00000001800231c8     name.obj
 0002:0000a1c8       $unwind$_wrap_ea_name_vec_t_capacity$catch$5 00000001800231c8     name.obj
 0002:0000a1c8       $unwind$_wrap_ea_name_vec_t_capacity$catch$1 00000001800231c8     name.obj
 0002:0000a1c8       $unwind$_wrap_ea_name_vec_t_capacity$catch$0 00000001800231c8     name.obj
 0002:0000a1c8       $unwind$_wrap_ea_name_vec_t_capacity$catch$2 00000001800231c8     name.obj
 0002:0000a1d8       $unwind$_wrap_ea_name_vec_t_reserve 00000001800231d8     name.obj
 0002:0000a1f4       $tryMap$_wrap_ea_name_vec_t_reserve 00000001800231f4     name.obj
 0002:0000a208       $handlerMap$0$_wrap_ea_name_vec_t_reserve 0000000180023208     name.obj
 0002:0000a280       $ip2state$_wrap_ea_name_vec_t_reserve 0000000180023280     name.obj
 0002:0000a2a0       $unwind$_wrap_ea_name_vec_t_reserve$catch$6 00000001800232a0     name.obj
 0002:0000a2a0       $unwind$_wrap_ea_name_vec_t_reserve$catch$7 00000001800232a0     name.obj
 0002:0000a2a0       $unwind$_wrap_ea_name_vec_t_reserve$catch$4 00000001800232a0     name.obj
 0002:0000a2a0       $unwind$_wrap_ea_name_vec_t_reserve$catch$3 00000001800232a0     name.obj
 0002:0000a2a0       $unwind$_wrap_ea_name_vec_t_reserve$catch$2 00000001800232a0     name.obj
 0002:0000a2a0       $unwind$_wrap_ea_name_vec_t_reserve$catch$5 00000001800232a0     name.obj
 0002:0000a2b0       $unwind$_wrap_ea_name_vec_t_truncate 00000001800232b0     name.obj
 0002:0000a2cc       $tryMap$_wrap_ea_name_vec_t_truncate 00000001800232cc     name.obj
 0002:0000a2e0       $handlerMap$0$_wrap_ea_name_vec_t_truncate 00000001800232e0     name.obj
 0002:0000a358       $ip2state$_wrap_ea_name_vec_t_truncate 0000000180023358     name.obj
 0002:0000a378       $unwind$_wrap_ea_name_vec_t_truncate$catch$0 0000000180023378     name.obj
 0002:0000a378       $unwind$_wrap_ea_name_vec_t_truncate$catch$2 0000000180023378     name.obj
 0002:0000a378       $unwind$_wrap_ea_name_vec_t_truncate$catch$1 0000000180023378     name.obj
 0002:0000a378       $unwind$_wrap_ea_name_vec_t_truncate$catch$5 0000000180023378     name.obj
 0002:0000a378       $unwind$_wrap_ea_name_vec_t_truncate$catch$3 0000000180023378     name.obj
 0002:0000a378       $unwind$_wrap_ea_name_vec_t_truncate$catch$4 0000000180023378     name.obj
 0002:0000a388       $unwind$_wrap_ea_name_vec_t_swap 0000000180023388     name.obj
 0002:0000a3a8       $tryMap$_wrap_ea_name_vec_t_swap 00000001800233a8     name.obj
 0002:0000a3bc       $handlerMap$0$_wrap_ea_name_vec_t_swap 00000001800233bc     name.obj
 0002:0000a438       $ip2state$_wrap_ea_name_vec_t_swap 0000000180023438     name.obj
 0002:0000a460       $unwind$_wrap_ea_name_vec_t_swap$catch$2 0000000180023460     name.obj
 0002:0000a460       $unwind$_wrap_ea_name_vec_t_swap$catch$4 0000000180023460     name.obj
 0002:0000a460       $unwind$_wrap_ea_name_vec_t_swap$catch$5 0000000180023460     name.obj
 0002:0000a460       $unwind$_wrap_ea_name_vec_t_swap$catch$3 0000000180023460     name.obj
 0002:0000a460       $unwind$_wrap_ea_name_vec_t_swap$catch$0 0000000180023460     name.obj
 0002:0000a460       $unwind$_wrap_ea_name_vec_t_swap$catch$1 0000000180023460     name.obj
 0002:0000a470       $unwind$_wrap_ea_name_vec_t_extract 0000000180023470     name.obj
 0002:0000a490       $tryMap$_wrap_ea_name_vec_t_extract 0000000180023490     name.obj
 0002:0000a4a4       $handlerMap$0$_wrap_ea_name_vec_t_extract 00000001800234a4     name.obj
 0002:0000a520       $ip2state$_wrap_ea_name_vec_t_extract 0000000180023520     name.obj
 0002:0000a540       $unwind$_wrap_ea_name_vec_t_extract$catch$5 0000000180023540     name.obj
 0002:0000a540       $unwind$_wrap_ea_name_vec_t_extract$catch$4 0000000180023540     name.obj
 0002:0000a540       $unwind$_wrap_ea_name_vec_t_extract$catch$3 0000000180023540     name.obj
 0002:0000a540       $unwind$_wrap_ea_name_vec_t_extract$catch$2 0000000180023540     name.obj
 0002:0000a540       $unwind$_wrap_ea_name_vec_t_extract$catch$1 0000000180023540     name.obj
 0002:0000a540       $unwind$_wrap_ea_name_vec_t_extract$catch$0 0000000180023540     name.obj
 0002:0000a550       $unwind$_wrap_ea_name_vec_t_inject 0000000180023550     name.obj
 0002:0000a578       $tryMap$_wrap_ea_name_vec_t_inject 0000000180023578     name.obj
 0002:0000a58c       $handlerMap$0$_wrap_ea_name_vec_t_inject 000000018002358c     name.obj
 0002:0000a608       $ip2state$_wrap_ea_name_vec_t_inject 0000000180023608     name.obj
 0002:0000a638       $unwind$_wrap_ea_name_vec_t_inject$catch$4 0000000180023638     name.obj
 0002:0000a638       $unwind$_wrap_ea_name_vec_t_inject$catch$5 0000000180023638     name.obj
 0002:0000a638       $unwind$_wrap_ea_name_vec_t_inject$catch$0 0000000180023638     name.obj
 0002:0000a638       $unwind$_wrap_ea_name_vec_t_inject$catch$3 0000000180023638     name.obj
 0002:0000a638       $unwind$_wrap_ea_name_vec_t_inject$catch$2 0000000180023638     name.obj
 0002:0000a638       $unwind$_wrap_ea_name_vec_t_inject$catch$1 0000000180023638     name.obj
 0002:0000a648       $unwind$_wrap_ea_name_vec_t_begin__SWIG_0 0000000180023648     name.obj
 0002:0000a664       $tryMap$_wrap_ea_name_vec_t_begin__SWIG_0 0000000180023664     name.obj
 0002:0000a678       $handlerMap$0$_wrap_ea_name_vec_t_begin__SWIG_0 0000000180023678     name.obj
 0002:0000a6f0       $ip2state$_wrap_ea_name_vec_t_begin__SWIG_0 00000001800236f0     name.obj
 0002:0000a710       $unwind$_wrap_ea_name_vec_t_begin__SWIG_0$catch$4 0000000180023710     name.obj
 0002:0000a710       $unwind$_wrap_ea_name_vec_t_begin__SWIG_0$catch$5 0000000180023710     name.obj
 0002:0000a710       $unwind$_wrap_ea_name_vec_t_begin__SWIG_0$catch$3 0000000180023710     name.obj
 0002:0000a710       $unwind$_wrap_ea_name_vec_t_begin__SWIG_0$catch$0 0000000180023710     name.obj
 0002:0000a710       $unwind$_wrap_ea_name_vec_t_begin__SWIG_0$catch$2 0000000180023710     name.obj
 0002:0000a710       $unwind$_wrap_ea_name_vec_t_begin__SWIG_0$catch$1 0000000180023710     name.obj
 0002:0000a720       $unwind$_wrap_ea_name_vec_t_end__SWIG_0 0000000180023720     name.obj
 0002:0000a73c       $tryMap$_wrap_ea_name_vec_t_end__SWIG_0 000000018002373c     name.obj
 0002:0000a750       $handlerMap$0$_wrap_ea_name_vec_t_end__SWIG_0 0000000180023750     name.obj
 0002:0000a7c8       $ip2state$_wrap_ea_name_vec_t_end__SWIG_0 00000001800237c8     name.obj
 0002:0000a7e8       $unwind$_wrap_ea_name_vec_t_end__SWIG_0$catch$3 00000001800237e8     name.obj
 0002:0000a7e8       $unwind$_wrap_ea_name_vec_t_end__SWIG_0$catch$0 00000001800237e8     name.obj
 0002:0000a7e8       $unwind$_wrap_ea_name_vec_t_end__SWIG_0$catch$2 00000001800237e8     name.obj
 0002:0000a7e8       $unwind$_wrap_ea_name_vec_t_end__SWIG_0$catch$1 00000001800237e8     name.obj
 0002:0000a7e8       $unwind$_wrap_ea_name_vec_t_end__SWIG_0$catch$5 00000001800237e8     name.obj
 0002:0000a7e8       $unwind$_wrap_ea_name_vec_t_end__SWIG_0$catch$4 00000001800237e8     name.obj
 0002:0000a7f8       $unwind$_wrap_ea_name_vec_t_begin__SWIG_1 00000001800237f8     name.obj
 0002:0000a814       $tryMap$_wrap_ea_name_vec_t_begin__SWIG_1 0000000180023814     name.obj
 0002:0000a828       $handlerMap$0$_wrap_ea_name_vec_t_begin__SWIG_1 0000000180023828     name.obj
 0002:0000a8a0       $ip2state$_wrap_ea_name_vec_t_begin__SWIG_1 00000001800238a0     name.obj
 0002:0000a8c0       $unwind$_wrap_ea_name_vec_t_begin__SWIG_1$catch$3 00000001800238c0     name.obj
 0002:0000a8c0       $unwind$_wrap_ea_name_vec_t_begin__SWIG_1$catch$5 00000001800238c0     name.obj
 0002:0000a8c0       $unwind$_wrap_ea_name_vec_t_begin__SWIG_1$catch$4 00000001800238c0     name.obj
 0002:0000a8c0       $unwind$_wrap_ea_name_vec_t_begin__SWIG_1$catch$1 00000001800238c0     name.obj
 0002:0000a8c0       $unwind$_wrap_ea_name_vec_t_begin__SWIG_1$catch$2 00000001800238c0     name.obj
 0002:0000a8c0       $unwind$_wrap_ea_name_vec_t_begin__SWIG_1$catch$0 00000001800238c0     name.obj
 0002:0000a8d0       $unwind$_wrap_ea_name_vec_t_begin 00000001800238d0     name.obj
 0002:0000a8d0       $unwind$_wrap_ea_name_vec_t_end 00000001800238d0     name.obj
 0002:0000a8e4       $unwind$_wrap_ea_name_vec_t_end__SWIG_1 00000001800238e4     name.obj
 0002:0000a900       $tryMap$_wrap_ea_name_vec_t_end__SWIG_1 0000000180023900     name.obj
 0002:0000a914       $handlerMap$0$_wrap_ea_name_vec_t_end__SWIG_1 0000000180023914     name.obj
 0002:0000a990       $ip2state$_wrap_ea_name_vec_t_end__SWIG_1 0000000180023990     name.obj
 0002:0000a9b0       $unwind$_wrap_ea_name_vec_t_end__SWIG_1$catch$3 00000001800239b0     name.obj
 0002:0000a9b0       $unwind$_wrap_ea_name_vec_t_end__SWIG_1$catch$4 00000001800239b0     name.obj
 0002:0000a9b0       $unwind$_wrap_ea_name_vec_t_end__SWIG_1$catch$5 00000001800239b0     name.obj
 0002:0000a9b0       $unwind$_wrap_ea_name_vec_t_end__SWIG_1$catch$2 00000001800239b0     name.obj
 0002:0000a9b0       $unwind$_wrap_ea_name_vec_t_end__SWIG_1$catch$1 00000001800239b0     name.obj
 0002:0000a9b0       $unwind$_wrap_ea_name_vec_t_end__SWIG_1$catch$0 00000001800239b0     name.obj
 0002:0000a9c0       $unwind$_wrap_ea_name_vec_t_insert 00000001800239c0     name.obj
 0002:0000a9e8       $tryMap$_wrap_ea_name_vec_t_insert 00000001800239e8     name.obj
 0002:0000a9fc       $handlerMap$0$_wrap_ea_name_vec_t_insert 00000001800239fc     name.obj
 0002:0000aa78       $ip2state$_wrap_ea_name_vec_t_insert 0000000180023a78     name.obj
 0002:0000aaa8       $unwind$_wrap_ea_name_vec_t_insert$catch$9 0000000180023aa8     name.obj
 0002:0000aaa8       $unwind$_wrap_ea_name_vec_t_insert$catch$8 0000000180023aa8     name.obj
 0002:0000aaa8       $unwind$_wrap_ea_name_vec_t_insert$catch$7 0000000180023aa8     name.obj
 0002:0000aaa8       $unwind$_wrap_ea_name_vec_t_insert$catch$6 0000000180023aa8     name.obj
 0002:0000aaa8       $unwind$_wrap_ea_name_vec_t_insert$catch$5 0000000180023aa8     name.obj
 0002:0000aaa8       $unwind$_wrap_ea_name_vec_t_insert$catch$4 0000000180023aa8     name.obj
 0002:0000aab8       $unwind$_wrap_ea_name_vec_t_erase__SWIG_0 0000000180023ab8     name.obj
 0002:0000aad8       $tryMap$_wrap_ea_name_vec_t_erase__SWIG_0 0000000180023ad8     name.obj
 0002:0000aaec       $handlerMap$0$_wrap_ea_name_vec_t_erase__SWIG_0 0000000180023aec     name.obj
 0002:0000ab68       $ip2state$_wrap_ea_name_vec_t_erase__SWIG_0 0000000180023b68     name.obj
 0002:0000ab90       $unwind$_wrap_ea_name_vec_t_erase__SWIG_0$catch$5 0000000180023b90     name.obj
 0002:0000ab90       $unwind$_wrap_ea_name_vec_t_erase__SWIG_0$catch$9 0000000180023b90     name.obj
 0002:0000ab90       $unwind$_wrap_ea_name_vec_t_erase__SWIG_0$catch$8 0000000180023b90     name.obj
 0002:0000ab90       $unwind$_wrap_ea_name_vec_t_erase__SWIG_0$catch$7 0000000180023b90     name.obj
 0002:0000ab90       $unwind$_wrap_ea_name_vec_t_erase__SWIG_0$catch$6 0000000180023b90     name.obj
 0002:0000ab90       $unwind$_wrap_ea_name_vec_t_erase__SWIG_0$catch$4 0000000180023b90     name.obj
 0002:0000aba0       $unwind$_wrap_ea_name_vec_t_erase__SWIG_1 0000000180023ba0     name.obj
 0002:0000abbc       $tryMap$_wrap_ea_name_vec_t_erase__SWIG_1 0000000180023bbc     name.obj
 0002:0000abd0       $handlerMap$0$_wrap_ea_name_vec_t_erase__SWIG_1 0000000180023bd0     name.obj
 0002:0000ac48       $ip2state$_wrap_ea_name_vec_t_erase__SWIG_1 0000000180023c48     name.obj
 0002:0000ac70       $unwind$_wrap_ea_name_vec_t_erase__SWIG_1$catch$5 0000000180023c70     name.obj
 0002:0000ac70       $unwind$_wrap_ea_name_vec_t_erase__SWIG_1$catch$9 0000000180023c70     name.obj
 0002:0000ac70       $unwind$_wrap_ea_name_vec_t_erase__SWIG_1$catch$8 0000000180023c70     name.obj
 0002:0000ac70       $unwind$_wrap_ea_name_vec_t_erase__SWIG_1$catch$7 0000000180023c70     name.obj
 0002:0000ac70       $unwind$_wrap_ea_name_vec_t_erase__SWIG_1$catch$6 0000000180023c70     name.obj
 0002:0000ac70       $unwind$_wrap_ea_name_vec_t_erase__SWIG_1$catch$4 0000000180023c70     name.obj
 0002:0000ac80       $unwind$_wrap_ea_name_vec_t_erase 0000000180023c80     name.obj
 0002:0000aca4       $unwind$_wrap_ea_name_vec_t___len__ 0000000180023ca4     name.obj
 0002:0000acc0       $tryMap$_wrap_ea_name_vec_t___len__ 0000000180023cc0     name.obj
 0002:0000acd4       $handlerMap$0$_wrap_ea_name_vec_t___len__ 0000000180023cd4     name.obj
 0002:0000ad50       $ip2state$_wrap_ea_name_vec_t___len__ 0000000180023d50     name.obj
 0002:0000ad70       $unwind$_wrap_ea_name_vec_t___len__$catch$4 0000000180023d70     name.obj
 0002:0000ad70       $unwind$_wrap_ea_name_vec_t___len__$catch$5 0000000180023d70     name.obj
 0002:0000ad70       $unwind$_wrap_ea_name_vec_t___len__$catch$0 0000000180023d70     name.obj
 0002:0000ad70       $unwind$_wrap_ea_name_vec_t___len__$catch$3 0000000180023d70     name.obj
 0002:0000ad70       $unwind$_wrap_ea_name_vec_t___len__$catch$2 0000000180023d70     name.obj
 0002:0000ad70       $unwind$_wrap_ea_name_vec_t___len__$catch$1 0000000180023d70     name.obj
 0002:0000ad80       $unwind$_wrap_ea_name_vec_t___getitem__ 0000000180023d80     name.obj
 0002:0000ada0       $tryMap$_wrap_ea_name_vec_t___getitem__ 0000000180023da0     name.obj
 0002:0000adb4       $handlerMap$0$_wrap_ea_name_vec_t___getitem__ 0000000180023db4     name.obj
 0002:0000ae30       $ip2state$_wrap_ea_name_vec_t___getitem__ 0000000180023e30     name.obj
 0002:0000ae58       $unwind$_wrap_ea_name_vec_t___getitem__$catch$5 0000000180023e58     name.obj
 0002:0000ae58       $unwind$_wrap_ea_name_vec_t___getitem__$catch$0 0000000180023e58     name.obj
 0002:0000ae58       $unwind$_wrap_ea_name_vec_t___getitem__$catch$1 0000000180023e58     name.obj
 0002:0000ae58       $unwind$_wrap_ea_name_vec_t___getitem__$catch$2 0000000180023e58     name.obj
 0002:0000ae58       $unwind$_wrap_ea_name_vec_t___getitem__$catch$3 0000000180023e58     name.obj
 0002:0000ae58       $unwind$_wrap_ea_name_vec_t___getitem__$catch$4 0000000180023e58     name.obj
 0002:0000ae68       $unwind$_wrap_ea_name_vec_t___setitem__ 0000000180023e68     name.obj
 0002:0000ae90       $tryMap$_wrap_ea_name_vec_t___setitem__ 0000000180023e90     name.obj
 0002:0000aea4       $handlerMap$0$_wrap_ea_name_vec_t___setitem__ 0000000180023ea4     name.obj
 0002:0000af20       $ip2state$_wrap_ea_name_vec_t___setitem__ 0000000180023f20     name.obj
 0002:0000af58       $unwind$_wrap_ea_name_vec_t___setitem__$catch$2 0000000180023f58     name.obj
 0002:0000af58       $unwind$_wrap_ea_name_vec_t___setitem__$catch$0 0000000180023f58     name.obj
 0002:0000af58       $unwind$_wrap_ea_name_vec_t___setitem__$catch$1 0000000180023f58     name.obj
 0002:0000af58       $unwind$_wrap_ea_name_vec_t___setitem__$catch$4 0000000180023f58     name.obj
 0002:0000af58       $unwind$_wrap_ea_name_vec_t___setitem__$catch$3 0000000180023f58     name.obj
 0002:0000af58       $unwind$_wrap_ea_name_vec_t___setitem__$catch$5 0000000180023f58     name.obj
 0002:0000af68       $unwind$ea_name_t_swigregister 0000000180023f68     name.obj
 0002:0000af68       $unwind$ea_name_vec_t_swigregister 0000000180023f68     name.obj
 0002:0000af70       $unwind$_wrap_get_name     0000000180023f70     name.obj
 0002:0000af88       $stateUnwindMap$_wrap_get_name 0000000180023f88     name.obj
 0002:0000af88       $stateUnwindMap$_wrap_get_colored_name 0000000180023f88     name.obj
 0002:0000afa8       $tryMap$_wrap_get_name     0000000180023fa8     name.obj
 0002:0000afbc       $handlerMap$0$_wrap_get_name 0000000180023fbc     name.obj
 0002:0000b038       $ip2state$_wrap_get_name   0000000180024038     name.obj
 0002:0000b058       $unwind$_wrap_get_name$catch$13 0000000180024058     name.obj
 0002:0000b058       $unwind$_wrap_get_name$catch$14 0000000180024058     name.obj
 0002:0000b058       $unwind$_wrap_get_name$catch$15 0000000180024058     name.obj
 0002:0000b058       $unwind$_wrap_get_name$catch$12 0000000180024058     name.obj
 0002:0000b058       $unwind$_wrap_get_name$catch$11 0000000180024058     name.obj
 0002:0000b058       $unwind$_wrap_get_name$catch$16 0000000180024058     name.obj
 0002:0000b068       $unwind$??4?$SwigValueWrapper@V?$_qstring@D@@@@QEAAAEAV0@AEBV?$_qstring@D@@@Z 0000000180024068     name.obj
 0002:0000b078       $unwind$_wrap_get_colored_name 0000000180024078     name.obj
 0002:0000b090       $tryMap$_wrap_get_colored_name 0000000180024090     name.obj
 0002:0000b0a4       $handlerMap$0$_wrap_get_colored_name 00000001800240a4     name.obj
 0002:0000b120       $ip2state$_wrap_get_colored_name 0000000180024120     name.obj
 0002:0000b140       $unwind$_wrap_get_colored_name$catch$13 0000000180024140     name.obj
 0002:0000b140       $unwind$_wrap_get_colored_name$catch$11 0000000180024140     name.obj
 0002:0000b140       $unwind$_wrap_get_colored_name$catch$12 0000000180024140     name.obj
 0002:0000b140       $unwind$_wrap_get_colored_name$catch$16 0000000180024140     name.obj
 0002:0000b140       $unwind$_wrap_get_colored_name$catch$14 0000000180024140     name.obj
 0002:0000b140       $unwind$_wrap_get_colored_name$catch$15 0000000180024140     name.obj
 0002:0000b150       $unwind$_wrap_set_name     0000000180024150     name.obj
 0002:0000b174       $tryMap$_wrap_set_name     0000000180024174     name.obj
 0002:0000b188       $handlerMap$0$_wrap_set_name 0000000180024188     name.obj
 0002:0000b200       $ip2state$_wrap_set_name   0000000180024200     name.obj
 0002:0000b228       $unwind$_wrap_set_name$catch$2 0000000180024228     name.obj
 0002:0000b228       $unwind$_wrap_set_name$catch$5 0000000180024228     name.obj
 0002:0000b228       $unwind$_wrap_set_name$catch$4 0000000180024228     name.obj
 0002:0000b228       $unwind$_wrap_set_name$catch$3 0000000180024228     name.obj
 0002:0000b228       $unwind$_wrap_set_name$catch$0 0000000180024228     name.obj
 0002:0000b228       $unwind$_wrap_set_name$catch$1 0000000180024228     name.obj
 0002:0000b238       $unwind$_wrap_force_name   0000000180024238     name.obj
 0002:0000b25c       $tryMap$_wrap_force_name   000000018002425c     name.obj
 0002:0000b270       $handlerMap$0$_wrap_force_name 0000000180024270     name.obj
 0002:0000b2e8       $ip2state$_wrap_force_name 00000001800242e8     name.obj
 0002:0000b310       $unwind$_wrap_force_name$catch$5 0000000180024310     name.obj
 0002:0000b310       $unwind$_wrap_force_name$catch$4 0000000180024310     name.obj
 0002:0000b310       $unwind$_wrap_force_name$catch$3 0000000180024310     name.obj
 0002:0000b310       $unwind$_wrap_force_name$catch$0 0000000180024310     name.obj
 0002:0000b310       $unwind$_wrap_force_name$catch$1 0000000180024310     name.obj
 0002:0000b310       $unwind$_wrap_force_name$catch$2 0000000180024310     name.obj
 0002:0000b320       $unwind$_wrap_del_global_name 0000000180024320     name.obj
 0002:0000b334       $tryMap$_wrap_del_global_name 0000000180024334     name.obj
 0002:0000b348       $handlerMap$0$_wrap_del_global_name 0000000180024348     name.obj
 0002:0000b3c0       $ip2state$_wrap_del_global_name 00000001800243c0     name.obj
 0002:0000b3d8       $unwind$_wrap_del_global_name$catch$0 00000001800243d8     name.obj
 0002:0000b3d8       $unwind$_wrap_del_global_name$catch$1 00000001800243d8     name.obj
 0002:0000b3d8       $unwind$_wrap_del_global_name$catch$5 00000001800243d8     name.obj
 0002:0000b3d8       $unwind$_wrap_del_global_name$catch$2 00000001800243d8     name.obj
 0002:0000b3d8       $unwind$_wrap_del_global_name$catch$3 00000001800243d8     name.obj
 0002:0000b3d8       $unwind$_wrap_del_global_name$catch$4 00000001800243d8     name.obj
 0002:0000b3e8       $unwind$_wrap_del_local_name 00000001800243e8     name.obj
 0002:0000b3fc       $tryMap$_wrap_del_local_name 00000001800243fc     name.obj
 0002:0000b410       $handlerMap$0$_wrap_del_local_name 0000000180024410     name.obj
 0002:0000b488       $ip2state$_wrap_del_local_name 0000000180024488     name.obj
 0002:0000b4a0       $unwind$_wrap_del_local_name$catch$2 00000001800244a0     name.obj
 0002:0000b4a0       $unwind$_wrap_del_local_name$catch$3 00000001800244a0     name.obj
 0002:0000b4a0       $unwind$_wrap_del_local_name$catch$5 00000001800244a0     name.obj
 0002:0000b4a0       $unwind$_wrap_del_local_name$catch$1 00000001800244a0     name.obj
 0002:0000b4a0       $unwind$_wrap_del_local_name$catch$0 00000001800244a0     name.obj
 0002:0000b4a0       $unwind$_wrap_del_local_name$catch$4 00000001800244a0     name.obj
 0002:0000b4b0       $unwind$_wrap_set_dummy_name 00000001800244b0     name.obj
 0002:0000b4c4       $tryMap$_wrap_set_dummy_name 00000001800244c4     name.obj
 0002:0000b4d8       $handlerMap$0$_wrap_set_dummy_name 00000001800244d8     name.obj
 0002:0000b550       $ip2state$_wrap_set_dummy_name 0000000180024550     name.obj
 0002:0000b568       $unwind$_wrap_set_dummy_name$catch$0 0000000180024568     name.obj
 0002:0000b568       $unwind$_wrap_set_dummy_name$catch$3 0000000180024568     name.obj
 0002:0000b568       $unwind$_wrap_set_dummy_name$catch$4 0000000180024568     name.obj
 0002:0000b568       $unwind$_wrap_set_dummy_name$catch$2 0000000180024568     name.obj
 0002:0000b568       $unwind$_wrap_set_dummy_name$catch$1 0000000180024568     name.obj
 0002:0000b568       $unwind$_wrap_set_dummy_name$catch$5 0000000180024568     name.obj
 0002:0000b578       $unwind$_wrap_make_name_auto 0000000180024578     name.obj
 0002:0000b58c       $tryMap$_wrap_make_name_auto 000000018002458c     name.obj
 0002:0000b5a0       $handlerMap$0$_wrap_make_name_auto 00000001800245a0     name.obj
 0002:0000b618       $ip2state$_wrap_make_name_auto 0000000180024618     name.obj
 0002:0000b630       $unwind$_wrap_make_name_auto$catch$2 0000000180024630     name.obj
 0002:0000b630       $unwind$_wrap_make_name_auto$catch$3 0000000180024630     name.obj
 0002:0000b630       $unwind$_wrap_make_name_auto$catch$4 0000000180024630     name.obj
 0002:0000b630       $unwind$_wrap_make_name_auto$catch$5 0000000180024630     name.obj
 0002:0000b630       $unwind$_wrap_make_name_auto$catch$1 0000000180024630     name.obj
 0002:0000b630       $unwind$_wrap_make_name_auto$catch$0 0000000180024630     name.obj
 0002:0000b640       $unwind$_wrap_make_name_user 0000000180024640     name.obj
 0002:0000b654       $tryMap$_wrap_make_name_user 0000000180024654     name.obj
 0002:0000b668       $handlerMap$0$_wrap_make_name_user 0000000180024668     name.obj
 0002:0000b6e0       $ip2state$_wrap_make_name_user 00000001800246e0     name.obj
 0002:0000b6f8       $unwind$_wrap_make_name_user$catch$0 00000001800246f8     name.obj
 0002:0000b6f8       $unwind$_wrap_make_name_user$catch$4 00000001800246f8     name.obj
 0002:0000b6f8       $unwind$_wrap_make_name_user$catch$1 00000001800246f8     name.obj
 0002:0000b6f8       $unwind$_wrap_make_name_user$catch$2 00000001800246f8     name.obj
 0002:0000b6f8       $unwind$_wrap_make_name_user$catch$3 00000001800246f8     name.obj
 0002:0000b6f8       $unwind$_wrap_make_name_user$catch$5 00000001800246f8     name.obj
 0002:0000b708       $unwind$_wrap_is_valid_cp  0000000180024708     name.obj
 0002:0000b728       $tryMap$_wrap_is_valid_cp  0000000180024728     name.obj
 0002:0000b73c       $handlerMap$0$_wrap_is_valid_cp 000000018002473c     name.obj
 0002:0000b7b8       $ip2state$_wrap_is_valid_cp 00000001800247b8     name.obj
 0002:0000b7d8       $unwind$_wrap_is_valid_cp$catch$1 00000001800247d8     name.obj
 0002:0000b7d8       $unwind$_wrap_is_valid_cp$catch$3 00000001800247d8     name.obj
 0002:0000b7d8       $unwind$_wrap_is_valid_cp$catch$4 00000001800247d8     name.obj
 0002:0000b7d8       $unwind$_wrap_is_valid_cp$catch$5 00000001800247d8     name.obj
 0002:0000b7d8       $unwind$_wrap_is_valid_cp$catch$0 00000001800247d8     name.obj
 0002:0000b7d8       $unwind$_wrap_is_valid_cp$catch$2 00000001800247d8     name.obj
 0002:0000b7e8       $unwind$_wrap_set_cp_validity 00000001800247e8     name.obj
 0002:0000b80c       $tryMap$_wrap_set_cp_validity 000000018002480c     name.obj
 0002:0000b820       $handlerMap$0$_wrap_set_cp_validity 0000000180024820     name.obj
 0002:0000b898       $ip2state$_wrap_set_cp_validity 0000000180024898     name.obj
 0002:0000b8b8       $unwind$_wrap_set_cp_validity$catch$5 00000001800248b8     name.obj
 0002:0000b8b8       $unwind$_wrap_set_cp_validity$catch$2 00000001800248b8     name.obj
 0002:0000b8b8       $unwind$_wrap_set_cp_validity$catch$0 00000001800248b8     name.obj
 0002:0000b8b8       $unwind$_wrap_set_cp_validity$catch$4 00000001800248b8     name.obj
 0002:0000b8b8       $unwind$_wrap_set_cp_validity$catch$3 00000001800248b8     name.obj
 0002:0000b8b8       $unwind$_wrap_set_cp_validity$catch$1 00000001800248b8     name.obj
 0002:0000b8c8       $unwind$_wrap_is_ident_cp  00000001800248c8     name.obj
 0002:0000b8dc       $tryMap$_wrap_is_ident_cp  00000001800248dc     name.obj
 0002:0000b8f0       $handlerMap$0$_wrap_is_ident_cp 00000001800248f0     name.obj
 0002:0000b968       $ip2state$_wrap_is_ident_cp 0000000180024968     name.obj
 0002:0000b980       $unwind$_wrap_is_ident_cp$catch$0 0000000180024980     name.obj
 0002:0000b980       $unwind$_wrap_is_ident_cp$catch$3 0000000180024980     name.obj
 0002:0000b980       $unwind$_wrap_is_ident_cp$catch$1 0000000180024980     name.obj
 0002:0000b980       $unwind$_wrap_is_ident_cp$catch$5 0000000180024980     name.obj
 0002:0000b980       $unwind$_wrap_is_ident_cp$catch$2 0000000180024980     name.obj
 0002:0000b980       $unwind$_wrap_is_ident_cp$catch$4 0000000180024980     name.obj
 0002:0000b990       $unwind$_wrap_is_strlit_cp 0000000180024990     name.obj
 0002:0000b9b0       $tryMap$_wrap_is_strlit_cp 00000001800249b0     name.obj
 0002:0000b9c4       $handlerMap$0$_wrap_is_strlit_cp 00000001800249c4     name.obj
 0002:0000ba40       $ip2state$_wrap_is_strlit_cp 0000000180024a40     name.obj
 0002:0000ba60       $unwind$_wrap_is_strlit_cp$catch$4 0000000180024a60     name.obj
 0002:0000ba60       $unwind$_wrap_is_strlit_cp$catch$3 0000000180024a60     name.obj
 0002:0000ba60       $unwind$_wrap_is_strlit_cp$catch$1 0000000180024a60     name.obj
 0002:0000ba60       $unwind$_wrap_is_strlit_cp$catch$0 0000000180024a60     name.obj
 0002:0000ba60       $unwind$_wrap_is_strlit_cp$catch$5 0000000180024a60     name.obj
 0002:0000ba60       $unwind$_wrap_is_strlit_cp$catch$2 0000000180024a60     name.obj
 0002:0000ba70       $unwind$_wrap_is_visible_cp 0000000180024a70     name.obj
 0002:0000ba84       $tryMap$_wrap_is_visible_cp 0000000180024a84     name.obj
 0002:0000ba98       $handlerMap$0$_wrap_is_visible_cp 0000000180024a98     name.obj
 0002:0000bb10       $ip2state$_wrap_is_visible_cp 0000000180024b10     name.obj
 0002:0000bb28       $unwind$_wrap_is_visible_cp$catch$5 0000000180024b28     name.obj
 0002:0000bb28       $unwind$_wrap_is_visible_cp$catch$4 0000000180024b28     name.obj
 0002:0000bb28       $unwind$_wrap_is_visible_cp$catch$0 0000000180024b28     name.obj
 0002:0000bb28       $unwind$_wrap_is_visible_cp$catch$2 0000000180024b28     name.obj
 0002:0000bb28       $unwind$_wrap_is_visible_cp$catch$1 0000000180024b28     name.obj
 0002:0000bb28       $unwind$_wrap_is_visible_cp$catch$3 0000000180024b28     name.obj
 0002:0000bb38       $unwind$_wrap_is_ident     0000000180024b38     name.obj
 0002:0000bb50       $tryMap$_wrap_is_ident     0000000180024b50     name.obj
 0002:0000bb64       $handlerMap$0$_wrap_is_ident 0000000180024b64     name.obj
 0002:0000bbe0       $ip2state$_wrap_is_ident   0000000180024be0     name.obj
 0002:0000bc08       $unwind$_wrap_is_ident$catch$2 0000000180024c08     name.obj
 0002:0000bc08       $unwind$_wrap_is_ident$catch$3 0000000180024c08     name.obj
 0002:0000bc08       $unwind$_wrap_is_ident$catch$4 0000000180024c08     name.obj
 0002:0000bc08       $unwind$_wrap_is_ident$catch$5 0000000180024c08     name.obj
 0002:0000bc08       $unwind$_wrap_is_ident$catch$1 0000000180024c08     name.obj
 0002:0000bc08       $unwind$_wrap_is_ident$catch$0 0000000180024c08     name.obj
 0002:0000bc18       $unwind$_wrap_is_uname     0000000180024c18     name.obj
 0002:0000bc30       $tryMap$_wrap_is_uname     0000000180024c30     name.obj
 0002:0000bc44       $handlerMap$0$_wrap_is_uname 0000000180024c44     name.obj
 0002:0000bcc0       $ip2state$_wrap_is_uname   0000000180024cc0     name.obj
 0002:0000bce8       $unwind$_wrap_is_uname$catch$2 0000000180024ce8     name.obj
 0002:0000bce8       $unwind$_wrap_is_uname$catch$5 0000000180024ce8     name.obj
 0002:0000bce8       $unwind$_wrap_is_uname$catch$1 0000000180024ce8     name.obj
 0002:0000bce8       $unwind$_wrap_is_uname$catch$4 0000000180024ce8     name.obj
 0002:0000bce8       $unwind$_wrap_is_uname$catch$3 0000000180024ce8     name.obj
 0002:0000bce8       $unwind$_wrap_is_uname$catch$0 0000000180024ce8     name.obj
 0002:0000bcf8       $unwind$_wrap_is_valid_typename 0000000180024cf8     name.obj
 0002:0000bd10       $tryMap$_wrap_is_valid_typename 0000000180024d10     name.obj
 0002:0000bd24       $handlerMap$0$_wrap_is_valid_typename 0000000180024d24     name.obj
 0002:0000bda0       $ip2state$_wrap_is_valid_typename 0000000180024da0     name.obj
 0002:0000bdc8       $unwind$_wrap_is_valid_typename$catch$0 0000000180024dc8     name.obj
 0002:0000bdc8       $unwind$_wrap_is_valid_typename$catch$1 0000000180024dc8     name.obj
 0002:0000bdc8       $unwind$_wrap_is_valid_typename$catch$5 0000000180024dc8     name.obj
 0002:0000bdc8       $unwind$_wrap_is_valid_typename$catch$2 0000000180024dc8     name.obj
 0002:0000bdc8       $unwind$_wrap_is_valid_typename$catch$4 0000000180024dc8     name.obj
 0002:0000bdc8       $unwind$_wrap_is_valid_typename$catch$3 0000000180024dc8     name.obj
 0002:0000bdd8       $unwind$_wrap_extract_name 0000000180024dd8     name.obj
 0002:0000bdf4       $stateUnwindMap$_wrap_get_debug_name 0000000180024df4     name.obj
 0002:0000bdf4       $stateUnwindMap$_wrap_extract_name 0000000180024df4     name.obj
 0002:0000be0c       $tryMap$_wrap_extract_name 0000000180024e0c     name.obj
 0002:0000be20       $handlerMap$0$_wrap_extract_name 0000000180024e20     name.obj
 0002:0000be98       $ip2state$_wrap_extract_name 0000000180024e98     name.obj
 0002:0000bec0       $unwind$_wrap_extract_name$catch$7 0000000180024ec0     name.obj
 0002:0000bec0       $unwind$_wrap_extract_name$catch$6 0000000180024ec0     name.obj
 0002:0000bec0       $unwind$_wrap_extract_name$catch$4 0000000180024ec0     name.obj
 0002:0000bec0       $unwind$_wrap_extract_name$catch$3 0000000180024ec0     name.obj
 0002:0000bec0       $unwind$_wrap_extract_name$catch$8 0000000180024ec0     name.obj
 0002:0000bec0       $unwind$_wrap_extract_name$catch$5 0000000180024ec0     name.obj
 0002:0000bed0       $unwind$_wrap_hide_name    0000000180024ed0     name.obj
 0002:0000bee4       $tryMap$_wrap_hide_name    0000000180024ee4     name.obj
 0002:0000bef8       $handlerMap$0$_wrap_hide_name 0000000180024ef8     name.obj
 0002:0000bf70       $ip2state$_wrap_hide_name  0000000180024f70     name.obj
 0002:0000bf88       $unwind$_wrap_hide_name$catch$0 0000000180024f88     name.obj
 0002:0000bf88       $unwind$_wrap_hide_name$catch$5 0000000180024f88     name.obj
 0002:0000bf88       $unwind$_wrap_hide_name$catch$1 0000000180024f88     name.obj
 0002:0000bf88       $unwind$_wrap_hide_name$catch$2 0000000180024f88     name.obj
 0002:0000bf88       $unwind$_wrap_hide_name$catch$3 0000000180024f88     name.obj
 0002:0000bf88       $unwind$_wrap_hide_name$catch$4 0000000180024f88     name.obj
 0002:0000bf98       $unwind$_wrap_show_name    0000000180024f98     name.obj
 0002:0000bfac       $tryMap$_wrap_show_name    0000000180024fac     name.obj
 0002:0000bfc0       $handlerMap$0$_wrap_show_name 0000000180024fc0     name.obj
 0002:0000c038       $ip2state$_wrap_show_name  0000000180025038     name.obj
 0002:0000c050       $unwind$_wrap_show_name$catch$5 0000000180025050     name.obj
 0002:0000c050       $unwind$_wrap_show_name$catch$4 0000000180025050     name.obj
 0002:0000c050       $unwind$_wrap_show_name$catch$3 0000000180025050     name.obj
 0002:0000c050       $unwind$_wrap_show_name$catch$2 0000000180025050     name.obj
 0002:0000c050       $unwind$_wrap_show_name$catch$1 0000000180025050     name.obj
 0002:0000c050       $unwind$_wrap_show_name$catch$0 0000000180025050     name.obj
 0002:0000c060       $unwind$_wrap_get_name_ea  0000000180025060     name.obj
 0002:0000c078       $tryMap$_wrap_get_name_ea  0000000180025078     name.obj
 0002:0000c08c       $handlerMap$0$_wrap_get_name_ea 000000018002508c     name.obj
 0002:0000c108       $ip2state$_wrap_get_name_ea 0000000180025108     name.obj
 0002:0000c130       $unwind$_wrap_get_name_ea$catch$0 0000000180025130     name.obj
 0002:0000c130       $unwind$_wrap_get_name_ea$catch$1 0000000180025130     name.obj
 0002:0000c130       $unwind$_wrap_get_name_ea$catch$3 0000000180025130     name.obj
 0002:0000c130       $unwind$_wrap_get_name_ea$catch$2 0000000180025130     name.obj
 0002:0000c130       $unwind$_wrap_get_name_ea$catch$4 0000000180025130     name.obj
 0002:0000c130       $unwind$_wrap_get_name_ea$catch$5 0000000180025130     name.obj
 0002:0000c140       $unwind$_wrap_get_name_base_ea 0000000180025140     name.obj
 0002:0000c154       $tryMap$_wrap_get_name_base_ea 0000000180025154     name.obj
 0002:0000c168       $handlerMap$0$_wrap_get_name_base_ea 0000000180025168     name.obj
 0002:0000c1e0       $ip2state$_wrap_get_name_base_ea 00000001800251e0     name.obj
 0002:0000c1f8       $unwind$_wrap_get_name_base_ea$catch$5 00000001800251f8     name.obj
 0002:0000c1f8       $unwind$_wrap_get_name_base_ea$catch$4 00000001800251f8     name.obj
 0002:0000c1f8       $unwind$_wrap_get_name_base_ea$catch$3 00000001800251f8     name.obj
 0002:0000c1f8       $unwind$_wrap_get_name_base_ea$catch$2 00000001800251f8     name.obj
 0002:0000c1f8       $unwind$_wrap_get_name_base_ea$catch$1 00000001800251f8     name.obj
 0002:0000c1f8       $unwind$_wrap_get_name_base_ea$catch$0 00000001800251f8     name.obj
 0002:0000c208       $unwind$_wrap_get_name_value 0000000180025208     name.obj
 0002:0000c224       $tryMap$_wrap_get_name_value 0000000180025224     name.obj
 0002:0000c238       $handlerMap$0$_wrap_get_name_value 0000000180025238     name.obj
 0002:0000c2b0       $ip2state$_wrap_get_name_value 00000001800252b0     name.obj
 0002:0000c2d8       $unwind$_wrap_get_name_value$catch$5 00000001800252d8     name.obj
 0002:0000c2d8       $unwind$_wrap_get_name_value$catch$4 00000001800252d8     name.obj
 0002:0000c2d8       $unwind$_wrap_get_name_value$catch$3 00000001800252d8     name.obj
 0002:0000c2d8       $unwind$_wrap_get_name_value$catch$2 00000001800252d8     name.obj
 0002:0000c2d8       $unwind$_wrap_get_name_value$catch$1 00000001800252d8     name.obj
 0002:0000c2d8       $unwind$_wrap_get_name_value$catch$0 00000001800252d8     name.obj
 0002:0000c2e8       $unwind$_wrap_get_visible_name 00000001800252e8     name.obj
 0002:0000c300       $stateUnwindMap$_wrap_get_ea_name 0000000180025300     name.obj
 0002:0000c300       $stateUnwindMap$_wrap_get_short_name 0000000180025300     name.obj
 0002:0000c300       $stateUnwindMap$_wrap_get_long_name 0000000180025300     name.obj
 0002:0000c300       $stateUnwindMap$_wrap_get_visible_name 0000000180025300     name.obj
 0002:0000c300       $stateUnwindMap$_wrap_get_colored_long_name 0000000180025300     name.obj
 0002:0000c300       $stateUnwindMap$_wrap_get_colored_short_name 0000000180025300     name.obj
 0002:0000c320       $tryMap$_wrap_get_visible_name 0000000180025320     name.obj
 0002:0000c334       $handlerMap$0$_wrap_get_visible_name 0000000180025334     name.obj
 0002:0000c3b0       $ip2state$_wrap_get_visible_name 00000001800253b0     name.obj
 0002:0000c3d0       $unwind$_wrap_get_visible_name$catch$11 00000001800253d0     name.obj
 0002:0000c3d0       $unwind$_wrap_get_visible_name$catch$14 00000001800253d0     name.obj
 0002:0000c3d0       $unwind$_wrap_get_visible_name$catch$15 00000001800253d0     name.obj
 0002:0000c3d0       $unwind$_wrap_get_visible_name$catch$16 00000001800253d0     name.obj
 0002:0000c3d0       $unwind$_wrap_get_visible_name$catch$13 00000001800253d0     name.obj
 0002:0000c3d0       $unwind$_wrap_get_visible_name$catch$12 00000001800253d0     name.obj
 0002:0000c3e0       $unwind$_wrap_get_short_name 00000001800253e0     name.obj
 0002:0000c3f8       $tryMap$_wrap_get_short_name 00000001800253f8     name.obj
 0002:0000c40c       $handlerMap$0$_wrap_get_short_name 000000018002540c     name.obj
 0002:0000c488       $ip2state$_wrap_get_short_name 0000000180025488     name.obj
 0002:0000c4a8       $unwind$_wrap_get_short_name$catch$16 00000001800254a8     name.obj
 0002:0000c4a8       $unwind$_wrap_get_short_name$catch$11 00000001800254a8     name.obj
 0002:0000c4a8       $unwind$_wrap_get_short_name$catch$12 00000001800254a8     name.obj
 0002:0000c4a8       $unwind$_wrap_get_short_name$catch$13 00000001800254a8     name.obj
 0002:0000c4a8       $unwind$_wrap_get_short_name$catch$14 00000001800254a8     name.obj
 0002:0000c4a8       $unwind$_wrap_get_short_name$catch$15 00000001800254a8     name.obj
 0002:0000c4b8       $unwind$_wrap_get_long_name 00000001800254b8     name.obj
 0002:0000c4d0       $tryMap$_wrap_get_long_name 00000001800254d0     name.obj
 0002:0000c4e4       $handlerMap$0$_wrap_get_long_name 00000001800254e4     name.obj
 0002:0000c560       $ip2state$_wrap_get_long_name 0000000180025560     name.obj
 0002:0000c580       $unwind$_wrap_get_long_name$catch$12 0000000180025580     name.obj
 0002:0000c580       $unwind$_wrap_get_long_name$catch$13 0000000180025580     name.obj
 0002:0000c580       $unwind$_wrap_get_long_name$catch$14 0000000180025580     name.obj
 0002:0000c580       $unwind$_wrap_get_long_name$catch$15 0000000180025580     name.obj
 0002:0000c580       $unwind$_wrap_get_long_name$catch$16 0000000180025580     name.obj
 0002:0000c580       $unwind$_wrap_get_long_name$catch$11 0000000180025580     name.obj
 0002:0000c590       $unwind$_wrap_get_colored_short_name 0000000180025590     name.obj
 0002:0000c5a8       $tryMap$_wrap_get_colored_short_name 00000001800255a8     name.obj
 0002:0000c5bc       $handlerMap$0$_wrap_get_colored_short_name 00000001800255bc     name.obj
 0002:0000c638       $ip2state$_wrap_get_colored_short_name 0000000180025638     name.obj
 0002:0000c658       $unwind$_wrap_get_colored_short_name$catch$14 0000000180025658     name.obj
 0002:0000c658       $unwind$_wrap_get_colored_short_name$catch$11 0000000180025658     name.obj
 0002:0000c658       $unwind$_wrap_get_colored_short_name$catch$12 0000000180025658     name.obj
 0002:0000c658       $unwind$_wrap_get_colored_short_name$catch$13 0000000180025658     name.obj
 0002:0000c658       $unwind$_wrap_get_colored_short_name$catch$15 0000000180025658     name.obj
 0002:0000c658       $unwind$_wrap_get_colored_short_name$catch$16 0000000180025658     name.obj
 0002:0000c668       $unwind$_wrap_get_colored_long_name 0000000180025668     name.obj
 0002:0000c680       $tryMap$_wrap_get_colored_long_name 0000000180025680     name.obj
 0002:0000c694       $handlerMap$0$_wrap_get_colored_long_name 0000000180025694     name.obj
 0002:0000c710       $ip2state$_wrap_get_colored_long_name 0000000180025710     name.obj
 0002:0000c730       $unwind$_wrap_get_colored_long_name$catch$13 0000000180025730     name.obj
 0002:0000c730       $unwind$_wrap_get_colored_long_name$catch$14 0000000180025730     name.obj
 0002:0000c730       $unwind$_wrap_get_colored_long_name$catch$11 0000000180025730     name.obj
 0002:0000c730       $unwind$_wrap_get_colored_long_name$catch$16 0000000180025730     name.obj
 0002:0000c730       $unwind$_wrap_get_colored_long_name$catch$12 0000000180025730     name.obj
 0002:0000c730       $unwind$_wrap_get_colored_long_name$catch$15 0000000180025730     name.obj
 0002:0000c740       $unwind$_wrap_get_demangled_name 0000000180025740     name.obj
 0002:0000c764       $stateUnwindMap$_wrap_get_demangled_name 0000000180025764     name.obj
 0002:0000c764       $stateUnwindMap$_wrap_get_colored_demangled_name 0000000180025764     name.obj
 0002:0000c784       $tryMap$_wrap_get_demangled_name 0000000180025784     name.obj
 0002:0000c798       $handlerMap$0$_wrap_get_demangled_name 0000000180025798     name.obj
 0002:0000c810       $ip2state$_wrap_get_demangled_name 0000000180025810     name.obj
 0002:0000c838       $unwind$_wrap_get_demangled_name$catch$7 0000000180025838     name.obj
 0002:0000c838       $unwind$_wrap_get_demangled_name$catch$8 0000000180025838     name.obj
 0002:0000c838       $unwind$_wrap_get_demangled_name$catch$9 0000000180025838     name.obj
 0002:0000c838       $unwind$_wrap_get_demangled_name$catch$11 0000000180025838     name.obj
 0002:0000c838       $unwind$_wrap_get_demangled_name$catch$12 0000000180025838     name.obj
 0002:0000c838       $unwind$_wrap_get_demangled_name$catch$10 0000000180025838     name.obj
 0002:0000c848       $unwind$_wrap_get_colored_demangled_name 0000000180025848     name.obj
 0002:0000c86c       $tryMap$_wrap_get_colored_demangled_name 000000018002586c     name.obj
 0002:0000c880       $handlerMap$0$_wrap_get_colored_demangled_name 0000000180025880     name.obj
 0002:0000c8f8       $ip2state$_wrap_get_colored_demangled_name 00000001800258f8     name.obj
 0002:0000c920       $unwind$_wrap_get_colored_demangled_name$catch$12 0000000180025920     name.obj
 0002:0000c920       $unwind$_wrap_get_colored_demangled_name$catch$7 0000000180025920     name.obj
 0002:0000c920       $unwind$_wrap_get_colored_demangled_name$catch$8 0000000180025920     name.obj
 0002:0000c920       $unwind$_wrap_get_colored_demangled_name$catch$11 0000000180025920     name.obj
 0002:0000c920       $unwind$_wrap_get_colored_demangled_name$catch$10 0000000180025920     name.obj
 0002:0000c920       $unwind$_wrap_get_colored_demangled_name$catch$9 0000000180025920     name.obj
 0002:0000c930       $unwind$_wrap_get_name_color 0000000180025930     name.obj
 0002:0000c944       $tryMap$_wrap_get_name_color 0000000180025944     name.obj
 0002:0000c958       $handlerMap$0$_wrap_get_name_color 0000000180025958     name.obj
 0002:0000c9d0       $ip2state$_wrap_get_name_color 00000001800259d0     name.obj
 0002:0000c9e8       $unwind$_wrap_get_name_color$catch$1 00000001800259e8     name.obj
 0002:0000c9e8       $unwind$_wrap_get_name_color$catch$0 00000001800259e8     name.obj
 0002:0000c9e8       $unwind$_wrap_get_name_color$catch$3 00000001800259e8     name.obj
 0002:0000c9e8       $unwind$_wrap_get_name_color$catch$2 00000001800259e8     name.obj
 0002:0000c9e8       $unwind$_wrap_get_name_color$catch$4 00000001800259e8     name.obj
 0002:0000c9e8       $unwind$_wrap_get_name_color$catch$5 00000001800259e8     name.obj
 0002:0000c9f8       $unwind$_wrap_get_name_expr 00000001800259f8     name.obj
 0002:0000ca1c       $stateUnwindMap$_wrap_get_name_expr 0000000180025a1c     name.obj
 0002:0000ca34       $tryMap$_wrap_get_name_expr 0000000180025a34     name.obj
 0002:0000ca48       $handlerMap$0$_wrap_get_name_expr 0000000180025a48     name.obj
 0002:0000cac0       $ip2state$_wrap_get_name_expr 0000000180025ac0     name.obj
 0002:0000cae0       $unwind$_wrap_get_name_expr$catch$8 0000000180025ae0     name.obj
 0002:0000cae0       $unwind$_wrap_get_name_expr$catch$7 0000000180025ae0     name.obj
 0002:0000cae0       $unwind$_wrap_get_name_expr$catch$6 0000000180025ae0     name.obj
 0002:0000cae0       $unwind$_wrap_get_name_expr$catch$5 0000000180025ae0     name.obj
 0002:0000cae0       $unwind$_wrap_get_name_expr$catch$4 0000000180025ae0     name.obj
 0002:0000cae0       $unwind$_wrap_get_name_expr$catch$3 0000000180025ae0     name.obj
 0002:0000caf0       $unwind$_wrap_get_nice_colored_name 0000000180025af0     name.obj
 0002:0000cb0c       $stateUnwindMap$_wrap_get_nice_colored_name 0000000180025b0c     name.obj
 0002:0000cb24       $tryMap$_wrap_get_nice_colored_name 0000000180025b24     name.obj
 0002:0000cb38       $handlerMap$0$_wrap_get_nice_colored_name 0000000180025b38     name.obj
 0002:0000cbb0       $ip2state$_wrap_get_nice_colored_name 0000000180025bb0     name.obj
 0002:0000cbc8       $unwind$_wrap_get_nice_colored_name$catch$8 0000000180025bc8     name.obj
 0002:0000cbc8       $unwind$_wrap_get_nice_colored_name$catch$7 0000000180025bc8     name.obj
 0002:0000cbc8       $unwind$_wrap_get_nice_colored_name$catch$3 0000000180025bc8     name.obj
 0002:0000cbc8       $unwind$_wrap_get_nice_colored_name$catch$5 0000000180025bc8     name.obj
 0002:0000cbc8       $unwind$_wrap_get_nice_colored_name$catch$4 0000000180025bc8     name.obj
 0002:0000cbc8       $unwind$_wrap_get_nice_colored_name$catch$6 0000000180025bc8     name.obj
 0002:0000cbd8       $unwind$_wrap_append_struct_fields 0000000180025bd8     name.obj
 0002:0000cc00       $stateUnwindMap$_wrap_append_struct_fields 0000000180025c00     name.obj
 0002:0000cc20       $tryMap$_wrap_append_struct_fields 0000000180025c20     name.obj
 0002:0000cc34       $handlerMap$0$_wrap_append_struct_fields 0000000180025c34     name.obj
 0002:0000ccb0       $ip2state$_wrap_append_struct_fields 0000000180025cb0     name.obj
 0002:0000ccd8       $unwind$_wrap_append_struct_fields$catch$14 0000000180025cd8     name.obj
 0002:0000ccd8       $unwind$_wrap_append_struct_fields$catch$13 0000000180025cd8     name.obj
 0002:0000ccd8       $unwind$_wrap_append_struct_fields$catch$12 0000000180025cd8     name.obj
 0002:0000ccd8       $unwind$_wrap_append_struct_fields$catch$11 0000000180025cd8     name.obj
 0002:0000ccd8       $unwind$_wrap_append_struct_fields$catch$10 0000000180025cd8     name.obj
 0002:0000ccd8       $unwind$_wrap_append_struct_fields$catch$15 0000000180025cd8     name.obj
 0002:0000cce8       $unwind$_wrap_is_public_name 0000000180025ce8     name.obj
 0002:0000ccfc       $tryMap$_wrap_is_public_name 0000000180025cfc     name.obj
 0002:0000cd10       $handlerMap$0$_wrap_is_public_name 0000000180025d10     name.obj
 0002:0000cd88       $ip2state$_wrap_is_public_name 0000000180025d88     name.obj
 0002:0000cda0       $unwind$_wrap_is_public_name$catch$2 0000000180025da0     name.obj
 0002:0000cda0       $unwind$_wrap_is_public_name$catch$5 0000000180025da0     name.obj
 0002:0000cda0       $unwind$_wrap_is_public_name$catch$4 0000000180025da0     name.obj
 0002:0000cda0       $unwind$_wrap_is_public_name$catch$3 0000000180025da0     name.obj
 0002:0000cda0       $unwind$_wrap_is_public_name$catch$0 0000000180025da0     name.obj
 0002:0000cda0       $unwind$_wrap_is_public_name$catch$1 0000000180025da0     name.obj
 0002:0000cdb0       $unwind$_wrap_make_name_public 0000000180025db0     name.obj
 0002:0000cdc4       $tryMap$_wrap_make_name_public 0000000180025dc4     name.obj
 0002:0000cdd8       $handlerMap$0$_wrap_make_name_public 0000000180025dd8     name.obj
 0002:0000ce50       $ip2state$_wrap_make_name_public 0000000180025e50     name.obj
 0002:0000ce68       $unwind$_wrap_make_name_public$catch$2 0000000180025e68     name.obj
 0002:0000ce68       $unwind$_wrap_make_name_public$catch$1 0000000180025e68     name.obj
 0002:0000ce68       $unwind$_wrap_make_name_public$catch$0 0000000180025e68     name.obj
 0002:0000ce68       $unwind$_wrap_make_name_public$catch$4 0000000180025e68     name.obj
 0002:0000ce68       $unwind$_wrap_make_name_public$catch$5 0000000180025e68     name.obj
 0002:0000ce68       $unwind$_wrap_make_name_public$catch$3 0000000180025e68     name.obj
 0002:0000ce78       $unwind$_wrap_make_name_non_public 0000000180025e78     name.obj
 0002:0000ce8c       $tryMap$_wrap_make_name_non_public 0000000180025e8c     name.obj
 0002:0000cea0       $handlerMap$0$_wrap_make_name_non_public 0000000180025ea0     name.obj
 0002:0000cf18       $ip2state$_wrap_make_name_non_public 0000000180025f18     name.obj
 0002:0000cf30       $unwind$_wrap_make_name_non_public$catch$1 0000000180025f30     name.obj
 0002:0000cf30       $unwind$_wrap_make_name_non_public$catch$5 0000000180025f30     name.obj
 0002:0000cf30       $unwind$_wrap_make_name_non_public$catch$4 0000000180025f30     name.obj
 0002:0000cf30       $unwind$_wrap_make_name_non_public$catch$3 0000000180025f30     name.obj
 0002:0000cf30       $unwind$_wrap_make_name_non_public$catch$2 0000000180025f30     name.obj
 0002:0000cf30       $unwind$_wrap_make_name_non_public$catch$0 0000000180025f30     name.obj
 0002:0000cf40       $unwind$_wrap_is_weak_name 0000000180025f40     name.obj
 0002:0000cf54       $tryMap$_wrap_is_weak_name 0000000180025f54     name.obj
 0002:0000cf68       $handlerMap$0$_wrap_is_weak_name 0000000180025f68     name.obj
 0002:0000cfe0       $ip2state$_wrap_is_weak_name 0000000180025fe0     name.obj
 0002:0000cff8       $unwind$_wrap_is_weak_name$catch$4 0000000180025ff8     name.obj
 0002:0000cff8       $unwind$_wrap_is_weak_name$catch$3 0000000180025ff8     name.obj
 0002:0000cff8       $unwind$_wrap_is_weak_name$catch$2 0000000180025ff8     name.obj
 0002:0000cff8       $unwind$_wrap_is_weak_name$catch$5 0000000180025ff8     name.obj
 0002:0000cff8       $unwind$_wrap_is_weak_name$catch$0 0000000180025ff8     name.obj
 0002:0000cff8       $unwind$_wrap_is_weak_name$catch$1 0000000180025ff8     name.obj
 0002:0000d008       $unwind$_wrap_make_name_weak 0000000180026008     name.obj
 0002:0000d01c       $tryMap$_wrap_make_name_weak 000000018002601c     name.obj
 0002:0000d030       $handlerMap$0$_wrap_make_name_weak 0000000180026030     name.obj
 0002:0000d0a8       $ip2state$_wrap_make_name_weak 00000001800260a8     name.obj
 0002:0000d0c0       $unwind$_wrap_make_name_weak$catch$2 00000001800260c0     name.obj
 0002:0000d0c0       $unwind$_wrap_make_name_weak$catch$1 00000001800260c0     name.obj
 0002:0000d0c0       $unwind$_wrap_make_name_weak$catch$0 00000001800260c0     name.obj
 0002:0000d0c0       $unwind$_wrap_make_name_weak$catch$5 00000001800260c0     name.obj
 0002:0000d0c0       $unwind$_wrap_make_name_weak$catch$3 00000001800260c0     name.obj
 0002:0000d0c0       $unwind$_wrap_make_name_weak$catch$4 00000001800260c0     name.obj
 0002:0000d0d0       $unwind$_wrap_make_name_non_weak 00000001800260d0     name.obj
 0002:0000d0e4       $tryMap$_wrap_make_name_non_weak 00000001800260e4     name.obj
 0002:0000d0f8       $handlerMap$0$_wrap_make_name_non_weak 00000001800260f8     name.obj
 0002:0000d170       $ip2state$_wrap_make_name_non_weak 0000000180026170     name.obj
 0002:0000d188       $unwind$_wrap_make_name_non_weak$catch$1 0000000180026188     name.obj
 0002:0000d188       $unwind$_wrap_make_name_non_weak$catch$0 0000000180026188     name.obj
 0002:0000d188       $unwind$_wrap_make_name_non_weak$catch$3 0000000180026188     name.obj
 0002:0000d188       $unwind$_wrap_make_name_non_weak$catch$5 0000000180026188     name.obj
 0002:0000d188       $unwind$_wrap_make_name_non_weak$catch$4 0000000180026188     name.obj
 0002:0000d188       $unwind$_wrap_make_name_non_weak$catch$2 0000000180026188     name.obj
 0002:0000d198       $unwind$_wrap_get_nlist_size 0000000180026198     name.obj
 0002:0000d1a8       $tryMap$_wrap_get_nlist_size 00000001800261a8     name.obj
 0002:0000d1bc       $handlerMap$0$_wrap_get_nlist_size 00000001800261bc     name.obj
 0002:0000d238       $ip2state$_wrap_get_nlist_size 0000000180026238     name.obj
 0002:0000d250       $unwind$_wrap_get_nlist_size$catch$5 0000000180026250     name.obj
 0002:0000d250       $unwind$_wrap_get_nlist_size$catch$0 0000000180026250     name.obj
 0002:0000d250       $unwind$_wrap_get_nlist_size$catch$1 0000000180026250     name.obj
 0002:0000d250       $unwind$_wrap_get_nlist_size$catch$2 0000000180026250     name.obj
 0002:0000d250       $unwind$_wrap_get_nlist_size$catch$3 0000000180026250     name.obj
 0002:0000d250       $unwind$_wrap_get_nlist_size$catch$4 0000000180026250     name.obj
 0002:0000d260       $unwind$_wrap_get_nlist_idx 0000000180026260     name.obj
 0002:0000d274       $tryMap$_wrap_get_nlist_idx 0000000180026274     name.obj
 0002:0000d288       $handlerMap$0$_wrap_get_nlist_idx 0000000180026288     name.obj
 0002:0000d300       $ip2state$_wrap_get_nlist_idx 0000000180026300     name.obj
 0002:0000d318       $unwind$_wrap_get_nlist_idx$catch$5 0000000180026318     name.obj
 0002:0000d318       $unwind$_wrap_get_nlist_idx$catch$4 0000000180026318     name.obj
 0002:0000d318       $unwind$_wrap_get_nlist_idx$catch$3 0000000180026318     name.obj
 0002:0000d318       $unwind$_wrap_get_nlist_idx$catch$2 0000000180026318     name.obj
 0002:0000d318       $unwind$_wrap_get_nlist_idx$catch$1 0000000180026318     name.obj
 0002:0000d318       $unwind$_wrap_get_nlist_idx$catch$0 0000000180026318     name.obj
 0002:0000d328       $unwind$_wrap_is_in_nlist  0000000180026328     name.obj
 0002:0000d33c       $tryMap$_wrap_is_in_nlist  000000018002633c     name.obj
 0002:0000d350       $handlerMap$0$_wrap_is_in_nlist 0000000180026350     name.obj
 0002:0000d3c8       $ip2state$_wrap_is_in_nlist 00000001800263c8     name.obj
 0002:0000d3e0       $unwind$_wrap_is_in_nlist$catch$5 00000001800263e0     name.obj
 0002:0000d3e0       $unwind$_wrap_is_in_nlist$catch$4 00000001800263e0     name.obj
 0002:0000d3e0       $unwind$_wrap_is_in_nlist$catch$3 00000001800263e0     name.obj
 0002:0000d3e0       $unwind$_wrap_is_in_nlist$catch$2 00000001800263e0     name.obj
 0002:0000d3e0       $unwind$_wrap_is_in_nlist$catch$1 00000001800263e0     name.obj
 0002:0000d3e0       $unwind$_wrap_is_in_nlist$catch$0 00000001800263e0     name.obj
 0002:0000d3f0       $unwind$_wrap_get_nlist_ea 00000001800263f0     name.obj
 0002:0000d404       $tryMap$_wrap_get_nlist_ea 0000000180026404     name.obj
 0002:0000d418       $handlerMap$0$_wrap_get_nlist_ea 0000000180026418     name.obj
 0002:0000d490       $ip2state$_wrap_get_nlist_ea 0000000180026490     name.obj
 0002:0000d4a8       $unwind$_wrap_get_nlist_ea$catch$0 00000001800264a8     name.obj
 0002:0000d4a8       $unwind$_wrap_get_nlist_ea$catch$3 00000001800264a8     name.obj
 0002:0000d4a8       $unwind$_wrap_get_nlist_ea$catch$5 00000001800264a8     name.obj
 0002:0000d4a8       $unwind$_wrap_get_nlist_ea$catch$2 00000001800264a8     name.obj
 0002:0000d4a8       $unwind$_wrap_get_nlist_ea$catch$4 00000001800264a8     name.obj
 0002:0000d4a8       $unwind$_wrap_get_nlist_ea$catch$1 00000001800264a8     name.obj
 0002:0000d4b8       $unwind$_wrap_get_nlist_name 00000001800264b8     name.obj
 0002:0000d4cc       $tryMap$_wrap_get_nlist_name 00000001800264cc     name.obj
 0002:0000d4e0       $handlerMap$0$_wrap_get_nlist_name 00000001800264e0     name.obj
 0002:0000d558       $ip2state$_wrap_get_nlist_name 0000000180026558     name.obj
 0002:0000d570       $unwind$_wrap_get_nlist_name$catch$5 0000000180026570     name.obj
 0002:0000d570       $unwind$_wrap_get_nlist_name$catch$3 0000000180026570     name.obj
 0002:0000d570       $unwind$_wrap_get_nlist_name$catch$2 0000000180026570     name.obj
 0002:0000d570       $unwind$_wrap_get_nlist_name$catch$1 0000000180026570     name.obj
 0002:0000d570       $unwind$_wrap_get_nlist_name$catch$0 0000000180026570     name.obj
 0002:0000d570       $unwind$_wrap_get_nlist_name$catch$4 0000000180026570     name.obj
 0002:0000d580       $unwind$_wrap_rebuild_nlist 0000000180026580     name.obj
 0002:0000d590       $tryMap$_wrap_rebuild_nlist 0000000180026590     name.obj
 0002:0000d5a4       $handlerMap$0$_wrap_rebuild_nlist 00000001800265a4     name.obj
 0002:0000d620       $ip2state$_wrap_rebuild_nlist 0000000180026620     name.obj
 0002:0000d638       $unwind$_wrap_rebuild_nlist$catch$0 0000000180026638     name.obj
 0002:0000d638       $unwind$_wrap_rebuild_nlist$catch$1 0000000180026638     name.obj
 0002:0000d638       $unwind$_wrap_rebuild_nlist$catch$2 0000000180026638     name.obj
 0002:0000d638       $unwind$_wrap_rebuild_nlist$catch$5 0000000180026638     name.obj
 0002:0000d638       $unwind$_wrap_rebuild_nlist$catch$4 0000000180026638     name.obj
 0002:0000d638       $unwind$_wrap_rebuild_nlist$catch$3 0000000180026638     name.obj
 0002:0000d648       $unwind$_wrap_reorder_dummy_names 0000000180026648     name.obj
 0002:0000d658       $tryMap$_wrap_reorder_dummy_names 0000000180026658     name.obj
 0002:0000d66c       $handlerMap$0$_wrap_reorder_dummy_names 000000018002666c     name.obj
 0002:0000d6e8       $ip2state$_wrap_reorder_dummy_names 00000001800266e8     name.obj
 0002:0000d700       $unwind$_wrap_reorder_dummy_names$catch$1 0000000180026700     name.obj
 0002:0000d700       $unwind$_wrap_reorder_dummy_names$catch$2 0000000180026700     name.obj
 0002:0000d700       $unwind$_wrap_reorder_dummy_names$catch$3 0000000180026700     name.obj
 0002:0000d700       $unwind$_wrap_reorder_dummy_names$catch$5 0000000180026700     name.obj
 0002:0000d700       $unwind$_wrap_reorder_dummy_names$catch$4 0000000180026700     name.obj
 0002:0000d700       $unwind$_wrap_reorder_dummy_names$catch$0 0000000180026700     name.obj
 0002:0000d710       $unwind$_wrap_ea_name_t_ea_set 0000000180026710     name.obj
 0002:0000d720       $chain$0$_wrap_ea_name_t_ea_set 0000000180026720     name.obj
 0002:0000d734       $chain$1$_wrap_ea_name_t_ea_set 0000000180026734     name.obj
 0002:0000d744       $unwind$_wrap_ea_name_t_ea_get 0000000180026744     name.obj
 0002:0000d754       $chain$0$_wrap_ea_name_t_ea_get 0000000180026754     name.obj
 0002:0000d768       $chain$1$_wrap_ea_name_t_ea_get 0000000180026768     name.obj
 0002:0000d778       $unwind$_wrap_ea_name_t_name_set 0000000180026778     name.obj
 0002:0000d788       $chain$0$_wrap_ea_name_t_name_set 0000000180026788     name.obj
 0002:0000d79c       $chain$1$_wrap_ea_name_t_name_set 000000018002679c     name.obj
 0002:0000d7ac       $unwind$_wrap_ea_name_t_name_get 00000001800267ac     name.obj
 0002:0000d7c0       $chain$0$_wrap_ea_name_t_name_get 00000001800267c0     name.obj
 0002:0000d7d4       $chain$1$_wrap_ea_name_t_name_get 00000001800267d4     name.obj
 0002:0000d7e4       $unwind$_wrap_new_ea_name_t__SWIG_0 00000001800267e4     name.obj
 0002:0000d7f4       $tryMap$_wrap_new_ea_name_t__SWIG_0 00000001800267f4     name.obj
 0002:0000d808       $handlerMap$0$_wrap_new_ea_name_t__SWIG_0 0000000180026808     name.obj
 0002:0000d880       $ip2state$_wrap_new_ea_name_t__SWIG_0 0000000180026880     name.obj
 0002:0000d8a0       $unwind$_wrap_new_ea_name_t__SWIG_0$catch$2 00000001800268a0     name.obj
 0002:0000d8a0       $unwind$_wrap_new_ea_name_t__SWIG_0$catch$4 00000001800268a0     name.obj
 0002:0000d8a0       $unwind$_wrap_new_ea_name_t__SWIG_0$catch$1 00000001800268a0     name.obj
 0002:0000d8a0       $unwind$_wrap_new_ea_name_t__SWIG_0$catch$3 00000001800268a0     name.obj
 0002:0000d8a0       $unwind$_wrap_new_ea_name_t__SWIG_0$catch$6 00000001800268a0     name.obj
 0002:0000d8a0       $unwind$_wrap_new_ea_name_t__SWIG_0$catch$5 00000001800268a0     name.obj
 0002:0000d8b0       $unwind$_wrap_new_ea_name_t__SWIG_1 00000001800268b0     name.obj
 0002:0000d8c4       $tryMap$_wrap_new_ea_name_t__SWIG_1 00000001800268c4     name.obj
 0002:0000d8d8       $handlerMap$0$_wrap_new_ea_name_t__SWIG_1 00000001800268d8     name.obj
 0002:0000d950       $ip2state$_wrap_new_ea_name_t__SWIG_1 0000000180026950     name.obj
 0002:0000d978       $unwind$_wrap_new_ea_name_t__SWIG_1$catch$9 0000000180026978     name.obj
 0002:0000d978       $unwind$_wrap_new_ea_name_t__SWIG_1$catch$4 0000000180026978     name.obj
 0002:0000d978       $unwind$_wrap_new_ea_name_t__SWIG_1$catch$7 0000000180026978     name.obj
 0002:0000d978       $unwind$_wrap_new_ea_name_t__SWIG_1$catch$5 0000000180026978     name.obj
 0002:0000d978       $unwind$_wrap_new_ea_name_t__SWIG_1$catch$6 0000000180026978     name.obj
 0002:0000d978       $unwind$_wrap_new_ea_name_t__SWIG_1$catch$8 0000000180026978     name.obj
 0002:0000d988       $unwind$_wrap_new_ea_name_t 0000000180026988     name.obj
 0002:0000d9a8       $unwind$_wrap_delete_ea_name_t 00000001800269a8     name.obj
 0002:0000d9c4       $tryMap$_wrap_delete_ea_name_t 00000001800269c4     name.obj
 0002:0000d9d8       $handlerMap$0$_wrap_delete_ea_name_t 00000001800269d8     name.obj
 0002:0000da50       $ip2state$_wrap_delete_ea_name_t 0000000180026a50     name.obj
 0002:0000da70       $unwind$_wrap_delete_ea_name_t$catch$7 0000000180026a70     name.obj
 0002:0000da70       $unwind$_wrap_delete_ea_name_t$catch$4 0000000180026a70     name.obj
 0002:0000da70       $unwind$_wrap_delete_ea_name_t$catch$2 0000000180026a70     name.obj
 0002:0000da70       $unwind$_wrap_delete_ea_name_t$catch$3 0000000180026a70     name.obj
 0002:0000da70       $unwind$_wrap_delete_ea_name_t$catch$5 0000000180026a70     name.obj
 0002:0000da70       $unwind$_wrap_delete_ea_name_t$catch$6 0000000180026a70     name.obj
 0002:0000da80       $unwind$_wrap_set_debug_name 0000000180026a80     name.obj
 0002:0000da98       $tryMap$_wrap_set_debug_name 0000000180026a98     name.obj
 0002:0000daac       $handlerMap$0$_wrap_set_debug_name 0000000180026aac     name.obj
 0002:0000db28       $ip2state$_wrap_set_debug_name 0000000180026b28     name.obj
 0002:0000db50       $unwind$_wrap_set_debug_name$catch$2 0000000180026b50     name.obj
 0002:0000db50       $unwind$_wrap_set_debug_name$catch$1 0000000180026b50     name.obj
 0002:0000db50       $unwind$_wrap_set_debug_name$catch$5 0000000180026b50     name.obj
 0002:0000db50       $unwind$_wrap_set_debug_name$catch$3 0000000180026b50     name.obj
 0002:0000db50       $unwind$_wrap_set_debug_name$catch$0 0000000180026b50     name.obj
 0002:0000db50       $unwind$_wrap_set_debug_name$catch$4 0000000180026b50     name.obj
 0002:0000db60       $unwind$_wrap_get_debug_name 0000000180026b60     name.obj
 0002:0000db80       $tryMap$_wrap_get_debug_name 0000000180026b80     name.obj
 0002:0000db94       $handlerMap$0$_wrap_get_debug_name 0000000180026b94     name.obj
 0002:0000dc10       $ip2state$_wrap_get_debug_name 0000000180026c10     name.obj
 0002:0000dc30       $unwind$_wrap_get_debug_name$catch$8 0000000180026c30     name.obj
 0002:0000dc30       $unwind$_wrap_get_debug_name$catch$7 0000000180026c30     name.obj
 0002:0000dc30       $unwind$_wrap_get_debug_name$catch$5 0000000180026c30     name.obj
 0002:0000dc30       $unwind$_wrap_get_debug_name$catch$4 0000000180026c30     name.obj
 0002:0000dc30       $unwind$_wrap_get_debug_name$catch$6 0000000180026c30     name.obj
 0002:0000dc30       $unwind$_wrap_get_debug_name$catch$3 0000000180026c30     name.obj
 0002:0000dc40       $unwind$_wrap_del_debug_names 0000000180026c40     name.obj
 0002:0000dc54       $tryMap$_wrap_del_debug_names 0000000180026c54     name.obj
 0002:0000dc68       $handlerMap$0$_wrap_del_debug_names 0000000180026c68     name.obj
 0002:0000dce0       $ip2state$_wrap_del_debug_names 0000000180026ce0     name.obj
 0002:0000dcf8       $unwind$_wrap_del_debug_names$catch$3 0000000180026cf8     name.obj
 0002:0000dcf8       $unwind$_wrap_del_debug_names$catch$4 0000000180026cf8     name.obj
 0002:0000dcf8       $unwind$_wrap_del_debug_names$catch$5 0000000180026cf8     name.obj
 0002:0000dcf8       $unwind$_wrap_del_debug_names$catch$0 0000000180026cf8     name.obj
 0002:0000dcf8       $unwind$_wrap_del_debug_names$catch$2 0000000180026cf8     name.obj
 0002:0000dcf8       $unwind$_wrap_del_debug_names$catch$1 0000000180026cf8     name.obj
 0002:0000dd08       $unwind$_wrap_get_debug_name_ea 0000000180026d08     name.obj
 0002:0000dd20       $tryMap$_wrap_get_debug_name_ea 0000000180026d20     name.obj
 0002:0000dd34       $handlerMap$0$_wrap_get_debug_name_ea 0000000180026d34     name.obj
 0002:0000ddb0       $ip2state$_wrap_get_debug_name_ea 0000000180026db0     name.obj
 0002:0000ddd8       $unwind$_wrap_get_debug_name_ea$catch$5 0000000180026dd8     name.obj
 0002:0000ddd8       $unwind$_wrap_get_debug_name_ea$catch$0 0000000180026dd8     name.obj
 0002:0000ddd8       $unwind$_wrap_get_debug_name_ea$catch$4 0000000180026dd8     name.obj
 0002:0000ddd8       $unwind$_wrap_get_debug_name_ea$catch$1 0000000180026dd8     name.obj
 0002:0000ddd8       $unwind$_wrap_get_debug_name_ea$catch$3 0000000180026dd8     name.obj
 0002:0000ddd8       $unwind$_wrap_get_debug_name_ea$catch$2 0000000180026dd8     name.obj
 0002:0000dde8       $unwind$_wrap_get_debug_names__SWIG_0 0000000180026de8     name.obj
 0002:0000de04       $tryMap$_wrap_get_debug_names__SWIG_0 0000000180026e04     name.obj
 0002:0000de18       $handlerMap$0$_wrap_get_debug_names__SWIG_0 0000000180026e18     name.obj
 0002:0000de90       $ip2state$_wrap_get_debug_names__SWIG_0 0000000180026e90     name.obj
 0002:0000deb0       $unwind$_wrap_get_debug_names__SWIG_0$catch$3 0000000180026eb0     name.obj
 0002:0000deb0       $unwind$_wrap_get_debug_names__SWIG_0$catch$4 0000000180026eb0     name.obj
 0002:0000deb0       $unwind$_wrap_get_debug_names__SWIG_0$catch$2 0000000180026eb0     name.obj
 0002:0000deb0       $unwind$_wrap_get_debug_names__SWIG_0$catch$0 0000000180026eb0     name.obj
 0002:0000deb0       $unwind$_wrap_get_debug_names__SWIG_0$catch$5 0000000180026eb0     name.obj
 0002:0000deb0       $unwind$_wrap_get_debug_names__SWIG_0$catch$1 0000000180026eb0     name.obj
 0002:0000dec0       $unwind$_wrap_demangle_name 0000000180026ec0     name.obj
 0002:0000dee4       $stateUnwindMap$_wrap_cleanup_name 0000000180026ee4     name.obj
 0002:0000dee4       $stateUnwindMap$_wrap_demangle_name 0000000180026ee4     name.obj
 0002:0000defc       $tryMap$_wrap_demangle_name 0000000180026efc     name.obj
 0002:0000df10       $handlerMap$0$_wrap_demangle_name 0000000180026f10     name.obj
 0002:0000df88       $ip2state$_wrap_demangle_name 0000000180026f88     name.obj
 0002:0000dfb8       $unwind$_wrap_demangle_name$catch$8 0000000180026fb8     name.obj
 0002:0000dfb8       $unwind$_wrap_demangle_name$catch$7 0000000180026fb8     name.obj
 0002:0000dfb8       $unwind$_wrap_demangle_name$catch$3 0000000180026fb8     name.obj
 0002:0000dfb8       $unwind$_wrap_demangle_name$catch$4 0000000180026fb8     name.obj
 0002:0000dfb8       $unwind$_wrap_demangle_name$catch$6 0000000180026fb8     name.obj
 0002:0000dfb8       $unwind$_wrap_demangle_name$catch$5 0000000180026fb8     name.obj
 0002:0000dfc8       $unwind$_wrap_is_name_defined_locally 0000000180026fc8     name.obj
 0002:0000dff0       $tryMap$_wrap_is_name_defined_locally 0000000180026ff0     name.obj
 0002:0000e004       $handlerMap$0$_wrap_is_name_defined_locally 0000000180027004     name.obj
 0002:0000e080       $ip2state$_wrap_is_name_defined_locally 0000000180027080     name.obj
 0002:0000e0a8       $unwind$_wrap_is_name_defined_locally$catch$1 00000001800270a8     name.obj
 0002:0000e0a8       $unwind$_wrap_is_name_defined_locally$catch$2 00000001800270a8     name.obj
 0002:0000e0a8       $unwind$_wrap_is_name_defined_locally$catch$3 00000001800270a8     name.obj
 0002:0000e0a8       $unwind$_wrap_is_name_defined_locally$catch$0 00000001800270a8     name.obj
 0002:0000e0a8       $unwind$_wrap_is_name_defined_locally$catch$5 00000001800270a8     name.obj
 0002:0000e0a8       $unwind$_wrap_is_name_defined_locally$catch$4 00000001800270a8     name.obj
 0002:0000e0b8       $unwind$_wrap_cleanup_name 00000001800270b8     name.obj
 0002:0000e0dc       $tryMap$_wrap_cleanup_name 00000001800270dc     name.obj
 0002:0000e0f0       $handlerMap$0$_wrap_cleanup_name 00000001800270f0     name.obj
 0002:0000e168       $ip2state$_wrap_cleanup_name 0000000180027168     name.obj
 0002:0000e198       $unwind$_wrap_cleanup_name$catch$4 0000000180027198     name.obj
 0002:0000e198       $unwind$_wrap_cleanup_name$catch$8 0000000180027198     name.obj
 0002:0000e198       $unwind$_wrap_cleanup_name$catch$3 0000000180027198     name.obj
 0002:0000e198       $unwind$_wrap_cleanup_name$catch$5 0000000180027198     name.obj
 0002:0000e198       $unwind$_wrap_cleanup_name$catch$7 0000000180027198     name.obj
 0002:0000e198       $unwind$_wrap_cleanup_name$catch$6 0000000180027198     name.obj
 0002:0000e1a8       $unwind$_wrap_get_debug_names__SWIG_1 00000001800271a8     name.obj
 0002:0000e1c0       $stateUnwindMap$_wrap_get_debug_names__SWIG_1 00000001800271c0     name.obj
 0002:0000e1d8       $tryMap$_wrap_get_debug_names__SWIG_1 00000001800271d8     name.obj
 0002:0000e1ec       $handlerMap$0$_wrap_get_debug_names__SWIG_1 00000001800271ec     name.obj
 0002:0000e268       $ip2state$_wrap_get_debug_names__SWIG_1 0000000180027268     name.obj
 0002:0000e280       $unwind$_wrap_get_debug_names__SWIG_1$catch$6 0000000180027280     name.obj
 0002:0000e280       $unwind$_wrap_get_debug_names__SWIG_1$catch$4 0000000180027280     name.obj
 0002:0000e280       $unwind$_wrap_get_debug_names__SWIG_1$catch$5 0000000180027280     name.obj
 0002:0000e280       $unwind$_wrap_get_debug_names__SWIG_1$catch$3 0000000180027280     name.obj
 0002:0000e280       $unwind$_wrap_get_debug_names__SWIG_1$catch$8 0000000180027280     name.obj
 0002:0000e280       $unwind$_wrap_get_debug_names__SWIG_1$catch$7 0000000180027280     name.obj
 0002:0000e290       $unwind$_wrap_get_debug_names 0000000180027290     name.obj
 0002:0000e2a4       $chain$2$_wrap_get_debug_names 00000001800272a4     name.obj
 0002:0000e2c0       $chain$3$_wrap_get_debug_names 00000001800272c0     name.obj
 0002:0000e2d0       $chain$4$_wrap_get_debug_names 00000001800272d0     name.obj
 0002:0000e2ec       $unwind$_wrap_get_ea_name  00000001800272ec     name.obj
 0002:0000e304       $tryMap$_wrap_get_ea_name  0000000180027304     name.obj
 0002:0000e318       $handlerMap$0$_wrap_get_ea_name 0000000180027318     name.obj
 0002:0000e390       $ip2state$_wrap_get_ea_name 0000000180027390     name.obj
 0002:0000e3b0       $unwind$_wrap_get_ea_name$catch$12 00000001800273b0     name.obj
 0002:0000e3b0       $unwind$_wrap_get_ea_name$catch$11 00000001800273b0     name.obj
 0002:0000e3b0       $unwind$_wrap_get_ea_name$catch$13 00000001800273b0     name.obj
 0002:0000e3b0       $unwind$_wrap_get_ea_name$catch$16 00000001800273b0     name.obj
 0002:0000e3b0       $unwind$_wrap_get_ea_name$catch$15 00000001800273b0     name.obj
 0002:0000e3b0       $unwind$_wrap_get_ea_name$catch$14 00000001800273b0     name.obj
 0002:0000e3c0       $unwind$_wrap_validate_name 00000001800273c0     name.obj
 0002:0000e3e4       $tryMap$_wrap_validate_name 00000001800273e4     name.obj
 0002:0000e3f8       $handlerMap$0$_wrap_validate_name 00000001800273f8     name.obj
 0002:0000e470       $ip2state$_wrap_validate_name 0000000180027470     name.obj
 0002:0000e498       $unwind$_wrap_validate_name$catch$7 0000000180027498     name.obj
 0002:0000e498       $unwind$_wrap_validate_name$catch$6 0000000180027498     name.obj
 0002:0000e498       $unwind$_wrap_validate_name$catch$3 0000000180027498     name.obj
 0002:0000e498       $unwind$_wrap_validate_name$catch$8 0000000180027498     name.obj
 0002:0000e498       $unwind$_wrap_validate_name$catch$4 0000000180027498     name.obj
 0002:0000e498       $unwind$_wrap_validate_name$catch$5 0000000180027498     name.obj
 0002:0000e4a8       $unwind$SWIG_InitializeModule 00000001800274a8     name.obj
 0002:0000e4b8       $chain$1$SWIG_InitializeModule 00000001800274b8     name.obj
 0002:0000e4cc       $chain$4$SWIG_InitializeModule 00000001800274cc     name.obj
 0002:0000e4e8       $chain$5$SWIG_InitializeModule 00000001800274e8     name.obj
 0002:0000e4f8       $chain$6$SWIG_InitializeModule 00000001800274f8     name.obj
 0002:0000e508       $unwind$swig_varlink_str   0000000180027508     name.obj
 0002:0000e518       $chain$1$swig_varlink_str  0000000180027518     name.obj
 0002:0000e530       $chain$2$swig_varlink_str  0000000180027530     name.obj
 0002:0000e540       $chain$0$swig_varlink_dealloc 0000000180027540     name.obj
 0002:0000e554       $chain$1$swig_varlink_dealloc 0000000180027554     name.obj
 0002:0000e564       $unwind$SWIG_Python_FixMethods 0000000180027564     name.obj
 0002:0000e570       $chain$4$SWIG_Python_FixMethods 0000000180027570     name.obj
 0002:0000e594       $chain$5$SWIG_Python_FixMethods 0000000180027594     name.obj
 0002:0000e5a4       $unwind$PyInit__ida_name   00000001800275a4     name.obj
 0002:0000e5bc       $chain$2$PyInit__ida_name  00000001800275bc     name.obj
 0002:0000e5d8       $chain$3$PyInit__ida_name  00000001800275d8     name.obj
 0002:0000e5ec       $chain$4$PyInit__ida_name  00000001800275ec     name.obj
 0002:0000e5fc       $chain$5$PyInit__ida_name  00000001800275fc     name.obj
 0002:0000e610       $unwind$?__scrt_initialize_thread_safe_statics@@YAHXZ 0000000180027610     MSVCRT:thread_safe_statics.obj
 0002:0000e628       $stateUnwindMap$?__scrt_initialize_thread_safe_statics@@YAHXZ 0000000180027628     MSVCRT:thread_safe_statics.obj
 0002:0000e630       $ip2state$?__scrt_initialize_thread_safe_statics@@YAHXZ 0000000180027630     MSVCRT:thread_safe_statics.obj
 0002:0000e638       $unwind$__GSHandlerCheckCommon 0000000180027638     MSVCRT:gshandler.obj
 0002:0000e640       $unwind$__GSHandlerCheck_EH 0000000180027640     MSVCRT:gshandlereh.obj
 0002:0000e658       $xdatasym                  0000000180027658     MSVCRT:amdsecgs.obj
 0002:0000e65c       $unwind$?dllmain_crt_process_attach@@YAHQEAUHINSTANCE__@@QEAX@Z 000000018002765c     MSVCRT:dll_dllmain.obj
 0002:0000e698       $unwind$?fin$0@?0??dllmain_crt_process_attach@@YAHQEAUHINSTANCE__@@QEAX@Z@4HA 0000000180027698     MSVCRT:dll_dllmain.obj
 0002:0000e698       $unwind$?fin$0@?0??dllmain_crt_process_detach@@YAH_N@Z@4HA 0000000180027698     MSVCRT:dll_dllmain.obj
 0002:0000e6a0       $unwind$?dllmain_crt_process_detach@@YAH_N@Z 00000001800276a0     MSVCRT:dll_dllmain.obj
 0002:0000e6d8       $unwind$?dllmain_dispatch@@YAHQEAUHINSTANCE__@@KQEAX@Z 00000001800276d8     MSVCRT:dll_dllmain.obj
 0002:0000e700       $unwind$?filt$0@?0??dllmain_dispatch@@YAHQEAUHINSTANCE__@@KQEAX@Z@4HA 0000000180027700     MSVCRT:dll_dllmain.obj
 0002:0000e708       $unwind$__scrt_is_nonwritable_in_current_image 0000000180027708     MSVCRT:utility.obj
 0002:0000e728       $unwind$__scrt_is_nonwritable_in_current_image$filt$0 0000000180027728     MSVCRT:utility.obj
 0002:0000e730       $unwind$__scrt_initialize_onexit_tables 0000000180027730     MSVCRT:utility.obj
 0002:0000e738       $unwind$__scrt_fastfail    0000000180027738     MSVCRT:utility_desktop.obj
 0002:0000e748       $unwind$__report_gsfailure 0000000180027748     MSVCRT:gs_report.obj
 0002:0000e750       $unwind$capture_previous_context 0000000180027750     MSVCRT:gs_report.obj
 0002:0000e75c       $unwind$__security_init_cookie 000000018002775c     MSVCRT:gs_support.obj
 0002:0000e768       $unwind$__isa_available_init 0000000180027768     MSVCRT:cpu_disp.obj
 0002:0000e778       $xdatasym                  0000000180027778     MSVCRT:guard_dispatch.obj
 0002:0000e900       .edata                     0000000180027900     _ida_name.exp
 0002:0000e928       rgpv                       0000000180027928     _ida_name.exp
 0002:0000e92c       rgszName                   000000018002792c     _ida_name.exp
 0002:0000e930       rgwOrd                     0000000180027930     _ida_name.exp
 0002:0000e932       szName                     0000000180027932     _ida_name.exp
 0002:0000e940       $N00001                    0000000180027940     _ida_name.exp
 0002:0000f3c2       .idata$6                   00000001800283c2     ida:ida.dll
 0002:0000faf4       .idata$6                   0000000180028af4     python38:python38.dll
 0002:0000fb12       .idata$6                   0000000180028b12     python:python.dll
 0002:0000fd6a       .idata$6                   0000000180028d6a     kernel32:KERNEL32.dll
 0002:0000fe48       .idata$6                   0000000180028e48     vcruntime:VCRUNTIME140.dll
 0002:0000ff7e       .idata$6                   0000000180028f7e     ucrt:api-ms-win-crt-stdio-l1-1-0.dll
 0002:0000ff9e       .idata$6                   0000000180028f9e     ucrt:api-ms-win-crt-string-l1-1-0.dll
 0002:0000ffc0       .idata$6                   0000000180028fc0     ucrt:api-ms-win-crt-heap-l1-1-0.dll
 0002:0000ffe0       .idata$6                   0000000180028fe0     ucrt:api-ms-win-crt-runtime-l1-1-0.dll
 0003:00000000       SwigMethods                000000018002a000     name.obj
 0003:00000b80       _swigt__p__qstringT_char_t 000000018002ab80     name.obj
 0003:00000bb0       _swigt__p__qstringT_unsigned_char_t 000000018002abb0     name.obj
 0003:00000be0       _swigt__p__qstringT_unsigned_short_t 000000018002abe0     name.obj
 0003:00000c10       _swigt__p_action_ctx_base_t 000000018002ac10     name.obj
 0003:00000c40       _swigt__p_biggest_t        000000018002ac40     name.obj
 0003:00000c70       _swigt__p_char             000000018002ac70     name.obj
 0003:00000ca0       _swigt__p_const_iterator   000000018002aca0     name.obj
 0003:00000cd0       _swigt__p_ea_name_t        000000018002acd0     name.obj
 0003:00000d00       _swigt__p_f_p_TWidget_int_int_p_void__bool 000000018002ad00     name.obj
 0003:00000d30       _swigt__p_f_p_TWidget_int_p_view_mouse_event_t_p_void__void 000000018002ad30     name.obj
 0003:00000d60       _swigt__p_f_p_TWidget_int_p_void__bool 000000018002ad60     name.obj
 0003:00000d90       _swigt__p_f_p_TWidget_p_lochist_entry_t_p_void__void 000000018002ad90     name.obj
 0003:00000dc0       _swigt__p_f_p_TWidget_p_q_const__lochist_entry_t_p_q_const__lochist_entry_t_r_q_const__locchange_md_t_p_void__void 000000018002adc0     name.obj
 0003:00000df0       _swigt__p_f_p_TWidget_p_q_const__lochist_entry_t_r_q_const__locchange_md_t_p_void__int 000000018002adf0     name.obj
 0003:00000e20       _swigt__p_f_p_TWidget_p_q_const__place_t_int_int_p_void__void 000000018002ae20     name.obj
 0003:00000e50       _swigt__p_f_p_TWidget_p_q_const__place_t_p_int_p_void__int 000000018002ae50     name.obj
 0003:00000e80       _swigt__p_f_p_TWidget_p_q_const__place_t_p_q_const__place_t_p_void__int 000000018002ae80     name.obj
 0003:00000eb0       _swigt__p_f_p_TWidget_p_q_const__place_t_p_unsigned_int_p_void__bool 000000018002aeb0     name.obj
 0003:00000ee0       _swigt__p_f_p_TWidget_p_void__int 000000018002aee0     name.obj
 0003:00000f10       _swigt__p_f_p_TWidget_p_void__void 000000018002af10     name.obj
 0003:00000f40       _swigt__p_f_p_chooser_multi_t_p_sizevec_t__chooser_base_t__cbres_t 000000018002af40     name.obj
 0003:00000f70       _swigt__p_f_p_chooser_t_ssize_t__chooser_t__cbret_t 000000018002af70     name.obj
 0003:00000fa0       _swigt__p_f_p_lochist_entry_t_r_q_const__lochist_entry_t_p_TWidget__bool 000000018002afa0     name.obj
 0003:00000fd0       _swigt__p_f_p_q_const__char_p_void__void 000000018002afd0     name.obj
 0003:00001000       _swigt__p_f_p_q_const__char_r_q_const__tinfo_t_p_q_const__char_p_q_const__unsigned_long_long_p_void__int 000000018002b000     name.obj
 0003:00001030       _swigt__p_f_p_q_const__char_v_______int 000000018002b030     name.obj
 0003:00001060       _swigt__p_f_p_void_int_va_list__ssize_t 000000018002b060     name.obj
 0003:00001090       _swigt__p_f_r_q_const__insn_t_p_int_p_int__bool 000000018002b090     name.obj
 0003:000010c0       _swigt__p_f_r_q_const__insn_t_r_q_const__op_t_r_q_const__tinfo_t_p_q_const__char__bool 000000018002b0c0     name.obj
 0003:000010f0       _swigt__p_f_unsigned_int__bool 000000018002b0f0     name.obj
 0003:00001120       _swigt__p_f_unsigned_int_p_q_const__char_unsigned_int_p_void__int 000000018002b120     name.obj
 0003:00001150       _swigt__p_f_unsigned_int_p_void__bool 000000018002b150     name.obj
 0003:00001180       _swigt__p_f_unsigned_int_r_q_const__tinfo_t_p_void__int 000000018002b180     name.obj
 0003:000011b0       _swigt__p_f_unsigned_int_unsigned_int__unsigned_int 000000018002b1b0     name.obj
 0003:000011e0       _swigt__p_func_t           000000018002b1e0     name.obj
 0003:00001210       _swigt__p_int              000000018002b210     name.obj
 0003:00001240       _swigt__p_iterator         000000018002b240     name.obj
 0003:00001270       _swigt__p_location_t       000000018002b270     name.obj
 0003:000012a0       _swigt__p_long_long        000000018002b2a0     name.obj
 0003:000012d0       _swigt__p_qvectorT__qstringT_unsigned_short_t_t 000000018002b2d0     name.obj
 0003:00001300       _swigt__p_qvectorT_argloc_t_t 000000018002b300     name.obj
 0003:00001330       _swigt__p_qvectorT_bool_t  000000018002b330     name.obj
 0003:00001360       _swigt__p_qvectorT_channel_redir_t_t 000000018002b360     name.obj
 0003:00001390       _swigt__p_qvectorT_compiled_binpat_t_t 000000018002b390     name.obj
 0003:000013c0       _swigt__p_qvectorT_ea_name_t_t 000000018002b3c0     name.obj
 0003:000013f0       _swigt__p_qvectorT_funcarg_t_t 000000018002b3f0     name.obj
 0003:00001420       _swigt__p_qvectorT_int_t   000000018002b420     name.obj
 0003:00001450       _swigt__p_qvectorT_range_t_t 000000018002b450     name.obj
 0003:00001480       _swigt__p_qvectorT_rangeset_t_const_p_t 000000018002b480     name.obj
 0003:000014b0       _swigt__p_qvectorT_rangeset_t_t 000000018002b4b0     name.obj
 0003:000014e0       _swigt__p_qvectorT_refinfo_desc_t_t 000000018002b4e0     name.obj
 0003:00001510       _swigt__p_qvectorT_simd_info_t_t 000000018002b510     name.obj
 0003:00001540       _swigt__p_qvectorT_simpleline_t_t 000000018002b540     name.obj
 0003:00001570       _swigt__p_qvectorT_size_t_t 000000018002b570     name.obj
 0003:000015a0       _swigt__p_qvectorT_tinfo_t_t 000000018002b5a0     name.obj
 0003:000015d0       _swigt__p_qvectorT_type_attr_t_t 000000018002b5d0     name.obj
 0003:00001600       _swigt__p_qvectorT_udt_member_t_t 000000018002b600     name.obj
 0003:00001630       _swigt__p_qvectorT_unsigned_char_t 000000018002b630     name.obj
 0003:00001660       _swigt__p_relobj_t         000000018002b660     name.obj
 0003:00001690       _swigt__p_bytevec_t        000000018002b690     name.obj
 0003:000016c0       _swigt__p_reloc_info_t     000000018002b6c0     name.obj
 0003:000016f0       _swigt__p_qvectorT_unsigned_int_t 000000018002b6f0     name.obj
 0003:00001720       _swigt__p_short            000000018002b720     name.obj
 0003:00001750       _swigt__p_signed_char      000000018002b750     name.obj
 0003:00001780       _swigt__p_unsigned_char    000000018002b780     name.obj
 0003:000017b0       _swigt__p_unsigned_int     000000018002b7b0     name.obj
 0003:000017e0       _swigt__p_unsigned_long_long 000000018002b7e0     name.obj
 0003:00001810       _swigt__p_unsigned_short   000000018002b810     name.obj
 0003:00001840       _swigt__p_value_type       000000018002b840     name.obj
 0003:00001870       swig_type_initial          000000018002b870     name.obj
 0003:00001aa0       _swigc__p__qstringT_char_t 000000018002baa0     name.obj
 0003:00001ae0       _swigc__p__qstringT_unsigned_char_t 000000018002bae0     name.obj
 0003:00001b20       _swigc__p__qstringT_unsigned_short_t 000000018002bb20     name.obj
 0003:00001b60       _swigc__p_action_ctx_base_t 000000018002bb60     name.obj
 0003:00001ba0       _swigc__p_biggest_t        000000018002bba0     name.obj
 0003:00001be0       _swigc__p_char             000000018002bbe0     name.obj
 0003:00001c20       _swigc__p_const_iterator   000000018002bc20     name.obj
 0003:00001c60       _swigc__p_ea_name_t        000000018002bc60     name.obj
 0003:00001ca0       _swigc__p_f_p_TWidget_int_int_p_void__bool 000000018002bca0     name.obj
 0003:00001ce0       _swigc__p_f_p_TWidget_int_p_view_mouse_event_t_p_void__void 000000018002bce0     name.obj
 0003:00001d20       _swigc__p_f_p_TWidget_int_p_void__bool 000000018002bd20     name.obj
 0003:00001d60       _swigc__p_f_p_TWidget_p_lochist_entry_t_p_void__void 000000018002bd60     name.obj
 0003:00001da0       _swigc__p_f_p_TWidget_p_q_const__lochist_entry_t_p_q_const__lochist_entry_t_r_q_const__locchange_md_t_p_void__void 000000018002bda0     name.obj
 0003:00001de0       _swigc__p_f_p_TWidget_p_q_const__lochist_entry_t_r_q_const__locchange_md_t_p_void__int 000000018002bde0     name.obj
 0003:00001e20       _swigc__p_f_p_TWidget_p_q_const__place_t_int_int_p_void__void 000000018002be20     name.obj
 0003:00001e60       _swigc__p_f_p_TWidget_p_q_const__place_t_p_int_p_void__int 000000018002be60     name.obj
 0003:00001ea0       _swigc__p_f_p_TWidget_p_q_const__place_t_p_q_const__place_t_p_void__int 000000018002bea0     name.obj
 0003:00001ee0       _swigc__p_f_p_TWidget_p_q_const__place_t_p_unsigned_int_p_void__bool 000000018002bee0     name.obj
 0003:00001f20       _swigc__p_f_p_TWidget_p_void__int 000000018002bf20     name.obj
 0003:00001f60       _swigc__p_f_p_TWidget_p_void__void 000000018002bf60     name.obj
 0003:00001fa0       _swigc__p_f_p_chooser_multi_t_p_sizevec_t__chooser_base_t__cbres_t 000000018002bfa0     name.obj
 0003:00001fe0       _swigc__p_f_p_chooser_t_ssize_t__chooser_t__cbret_t 000000018002bfe0     name.obj
 0003:00002020       _swigc__p_f_p_lochist_entry_t_r_q_const__lochist_entry_t_p_TWidget__bool 000000018002c020     name.obj
 0003:00002060       _swigc__p_f_p_q_const__char_p_void__void 000000018002c060     name.obj
 0003:000020a0       _swigc__p_f_p_q_const__char_r_q_const__tinfo_t_p_q_const__char_p_q_const__unsigned_long_long_p_void__int 000000018002c0a0     name.obj
 0003:000020e0       _swigc__p_f_p_q_const__char_v_______int 000000018002c0e0     name.obj
 0003:00002120       _swigc__p_f_p_void_int_va_list__ssize_t 000000018002c120     name.obj
 0003:00002160       _swigc__p_f_r_q_const__insn_t_p_int_p_int__bool 000000018002c160     name.obj
 0003:000021a0       _swigc__p_f_r_q_const__insn_t_r_q_const__op_t_r_q_const__tinfo_t_p_q_const__char__bool 000000018002c1a0     name.obj
 0003:000021e0       _swigc__p_f_unsigned_int__bool 000000018002c1e0     name.obj
 0003:00002220       _swigc__p_f_unsigned_int_p_q_const__char_unsigned_int_p_void__int 000000018002c220     name.obj
 0003:00002260       _swigc__p_f_unsigned_int_p_void__bool 000000018002c260     name.obj
 0003:000022a0       _swigc__p_f_unsigned_int_r_q_const__tinfo_t_p_void__int 000000018002c2a0     name.obj
 0003:000022e0       _swigc__p_f_unsigned_int_unsigned_int__unsigned_int 000000018002c2e0     name.obj
 0003:00002320       _swigc__p_func_t           000000018002c320     name.obj
 0003:00002360       _swigc__p_int              000000018002c360     name.obj
 0003:000023a0       _swigc__p_iterator         000000018002c3a0     name.obj
 0003:000023e0       _swigc__p_location_t       000000018002c3e0     name.obj
 0003:00002420       _swigc__p_long_long        000000018002c420     name.obj
 0003:00002460       _swigc__p_qvectorT__qstringT_unsigned_short_t_t 000000018002c460     name.obj
 0003:000024a0       _swigc__p_qvectorT_argloc_t_t 000000018002c4a0     name.obj
 0003:000024e0       _swigc__p_qvectorT_bool_t  000000018002c4e0     name.obj
 0003:00002520       _swigc__p_qvectorT_channel_redir_t_t 000000018002c520     name.obj
 0003:00002560       _swigc__p_qvectorT_compiled_binpat_t_t 000000018002c560     name.obj
 0003:000025a0       _swigc__p_qvectorT_ea_name_t_t 000000018002c5a0     name.obj
 0003:000025e0       _swigc__p_qvectorT_funcarg_t_t 000000018002c5e0     name.obj
 0003:00002620       _swigc__p_qvectorT_int_t   000000018002c620     name.obj
 0003:00002660       _swigc__p_qvectorT_range_t_t 000000018002c660     name.obj
 0003:000026a0       _swigc__p_qvectorT_rangeset_t_const_p_t 000000018002c6a0     name.obj
 0003:000026e0       _swigc__p_qvectorT_rangeset_t_t 000000018002c6e0     name.obj
 0003:00002720       _swigc__p_qvectorT_refinfo_desc_t_t 000000018002c720     name.obj
 0003:00002760       _swigc__p_qvectorT_simd_info_t_t 000000018002c760     name.obj
 0003:000027a0       _swigc__p_qvectorT_simpleline_t_t 000000018002c7a0     name.obj
 0003:000027e0       _swigc__p_qvectorT_size_t_t 000000018002c7e0     name.obj
 0003:00002820       _swigc__p_qvectorT_tinfo_t_t 000000018002c820     name.obj
 0003:00002860       _swigc__p_qvectorT_type_attr_t_t 000000018002c860     name.obj
 0003:000028a0       _swigc__p_qvectorT_udt_member_t_t 000000018002c8a0     name.obj
 0003:000028e0       _swigc__p_relobj_t         000000018002c8e0     name.obj
 0003:00002920       _swigc__p_bytevec_t        000000018002c920     name.obj
 0003:00002960       _swigc__p_reloc_info_t     000000018002c960     name.obj
 0003:000029a0       _swigc__p_qvectorT_unsigned_char_t 000000018002c9a0     name.obj
 0003:00002a40       _swigc__p_qvectorT_unsigned_int_t 000000018002ca40     name.obj
 0003:00002a80       _swigc__p_short            000000018002ca80     name.obj
 0003:00002ac0       _swigc__p_signed_char      000000018002cac0     name.obj
 0003:00002b00       _swigc__p_unsigned_char    000000018002cb00     name.obj
 0003:00002b40       _swigc__p_unsigned_int     000000018002cb40     name.obj
 0003:00002b80       _swigc__p_unsigned_long_long 000000018002cb80     name.obj
 0003:00002bc0       _swigc__p_unsigned_short   000000018002cbc0     name.obj
 0003:00002c00       _swigc__p_value_type       000000018002cc00     name.obj
 0003:00002c40       swig_cast_initial          000000018002cc40     name.obj
 0003:00002e68       ?swig_module@@3Uswig_module_info@@A 000000018002ce68     name.obj
 0003:00002ea0       swigobject_methods         000000018002cea0     name.obj
 0003:00002f80       ?swigobject_doc@?1??SwigPyObject_TypeOnce@@9@4PADA 000000018002cf80     name.obj
 0003:00002fb0       ?swigpacked_doc@?1??SwigPyPacked_TypeOnce@@9@4PADA 000000018002cfb0     name.obj
 0003:00002fe0       ?varlink__doc__@?1??swig_varlink_type@@9@4PADA 000000018002cfe0     name.obj
 0003:00003000       ?SWIG_module@?1??PyInit__ida_name@@9@4UPyModuleDef@@A 000000018002d000     name.obj
 0003:000031f0       swig_const_table           000000018002d1f0     name.obj
 0003:00003250       ?swig_types@@3PAPEAUswig_type_info@@A 000000018002d250     name.obj
 0003:00003480       Swig_This_global           000000018002d480     name.obj
 0003:00003490       ?type@?1??SwigPyObject_type@@9@4PEAU_typeobject@@EA 000000018002d490     name.obj
 0003:00003498       ?$TSS0@?1??SwigPyObject_type@@9@4HA 000000018002d498     name.obj
 0003:000034a0       ?type@?1??SwigPyPacked_type@@9@4PEAU_typeobject@@EA 000000018002d4a0     name.obj
 0003:000034a8       ?$TSS0@?1??SwigPyPacked_type@@9@4HA 000000018002d4a8     name.obj
 0003:000034b0       ?type_pointer@?1??SWIG_Python_GetModule@@9@4PEAXEA 000000018002d4b0     name.obj
 0003:000034b8       ?cache@?1??SWIG_Python_TypeCache@@9@4PEAU_object@@EA 000000018002d4b8     name.obj
 0003:000034c0       ?$TSS0@?1??SWIG_Python_TypeCache@@9@4HA 000000018002d4c0     name.obj
 0003:000034c4       ?init@?1??SWIG_pchar_descriptor@@YAPEAUswig_type_info@@XZ@4HA 000000018002d4c4     name.obj
 0003:000034c8       ?info@?1??SWIG_pchar_descriptor@@YAPEAUswig_type_info@@XZ@4PEAU2@EA 000000018002d4c8     name.obj
 0003:000034d0       ?globals@?1??SWIG_globals@@9@4PEAU_object@@EA 000000018002d4d0     name.obj
 0003:000034d8       ?_Tss_mutex@@3U_RTL_CRITICAL_SECTION@@A 000000018002d4d8     MSVCRT:thread_safe_statics.obj
 0003:00003500       ?_Tss_cv@@3U_RTL_CONDITION_VARIABLE@@A 000000018002d500     MSVCRT:thread_safe_statics.obj
 0003:00003508       ?_Tss_event@@3PEAXEA       000000018002d508     MSVCRT:thread_safe_statics.obj
 0003:00003510       ?encoded_sleep_condition_variable_cs@@3P6AHPEAU_RTL_CONDITION_VARIABLE@@PEAU_RTL_CRITICAL_SECTION@@K@ZEA 000000018002d510     MSVCRT:thread_safe_statics.obj
 0003:00003518       ?encoded_wake_all_condition_variable@@3P6AXPEAU_RTL_CONDITION_VARIABLE@@@ZEA 000000018002d518     MSVCRT:thread_safe_statics.obj
 0003:00003524       ?__proc_attached@@3HA      000000018002d524     MSVCRT:dll_dllmain.obj
 0003:00003538       ?is_initialized_as_dll@@3_NA 000000018002d538     MSVCRT:utility.obj
 0003:00003539       ?module_local_atexit_table_initialized@@3_NA 000000018002d539     MSVCRT:utility.obj
 0003:00003540       ?module_local_atexit_table@@3U_onexit_table_t@@A 000000018002d540     MSVCRT:utility.obj
 0003:00003558       ?module_local_at_quick_exit_table@@3U_onexit_table_t@@A 000000018002d558     MSVCRT:utility.obj
 0003:00003580       GS_ExceptionRecord         000000018002d580     MSVCRT:gs_report.obj
 0003:00003620       GS_ContextRecord           000000018002d620     MSVCRT:gs_report.obj
 0004:00000000       $pdata$printf              000000018002e000     name.obj
 0004:0000000c       $pdata$SWIG_TypeClientData 000000018002e00c     name.obj
 0004:00000018       $pdata$SWIG_MangledTypeQueryModule 000000018002e018     name.obj
 0004:00000024       $pdata$?SWIG_Python_RaiseOrModifyTypeError@@YAXPEBD@Z 000000018002e024     name.obj
 0004:00000030       $pdata$?SWIG_Python_AppendOutput@@YAPEAU_object@@PEAU1@0@Z 000000018002e030     name.obj
 0004:0000003c       $pdata$0$?SWIG_Python_AppendOutput@@YAPEAU_object@@PEAU1@0@Z 000000018002e03c     name.obj
 0004:00000048       $pdata$1$?SWIG_Python_AppendOutput@@YAPEAU_object@@PEAU1@0@Z 000000018002e048     name.obj
 0004:00000054       $pdata$?SWIG_Python_UnpackTuple@@YA_JPEAU_object@@PEBD_J2PEAPEAU1@@Z 000000018002e054     name.obj
 0004:00000060       $pdata$0$?SWIG_Python_UnpackTuple@@YA_JPEAU_object@@PEBD_J2PEAPEAU1@@Z 000000018002e060     name.obj
 0004:0000006c       $pdata$1$?SWIG_Python_UnpackTuple@@YA_JPEAU_object@@PEBD_J2PEAPEAU1@@Z 000000018002e06c     name.obj
 0004:00000078       $pdata$SwigPyClientData_New 000000018002e078     name.obj
 0004:00000084       $pdata$2$SwigPyClientData_New 000000018002e084     name.obj
 0004:00000090       $pdata$3$SwigPyClientData_New 000000018002e090     name.obj
 0004:0000009c       $pdata$SwigPyObject_repr   000000018002e09c     name.obj
 0004:000000a8       $pdata$0$SwigPyObject_repr 000000018002e0a8     name.obj
 0004:000000b4       $pdata$1$SwigPyObject_repr 000000018002e0b4     name.obj
 0004:000000c0       $pdata$SwigPyObject_type   000000018002e0c0     name.obj
 0004:000000cc       $pdata$SwigPyObject_Check  000000018002e0cc     name.obj
 0004:000000d8       $pdata$SwigPyObject_New    000000018002e0d8     name.obj
 0004:000000e4       $pdata$SwigPyObject_dealloc 000000018002e0e4     name.obj
 0004:000000f0       $pdata$2$SwigPyObject_dealloc 000000018002e0f0     name.obj
 0004:000000fc       $pdata$3$SwigPyObject_dealloc 000000018002e0fc     name.obj
 0004:00000108       $pdata$SwigPyObject_append 000000018002e108     name.obj
 0004:00000114       $pdata$SwigPyObject_own    000000018002e114     name.obj
 0004:00000120       $pdata$0$SwigPyObject_own  000000018002e120     name.obj
 0004:0000012c       $pdata$2$SwigPyObject_own  000000018002e12c     name.obj
 0004:00000138       $pdata$SwigPyPacked_repr   000000018002e138     name.obj
 0004:00000144       $pdata$0$SwigPyPacked_repr 000000018002e144     name.obj
 0004:00000150       $pdata$1$SwigPyPacked_repr 000000018002e150     name.obj
 0004:0000015c       $pdata$SwigPyPacked_str    000000018002e15c     name.obj
 0004:00000168       $pdata$0$SwigPyPacked_str  000000018002e168     name.obj
 0004:00000174       $pdata$1$SwigPyPacked_str  000000018002e174     name.obj
 0004:00000180       $pdata$SwigPyPacked_type   000000018002e180     name.obj
 0004:0000018c       $pdata$SwigPyPacked_Check  000000018002e18c     name.obj
 0004:00000198       $pdata$SwigPyPacked_dealloc 000000018002e198     name.obj
 0004:000001a4       $pdata$SWIG_This           000000018002e1a4     name.obj
 0004:000001b0       $pdata$SWIG_Python_GetSwigThis 000000018002e1b0     name.obj
 0004:000001bc       $pdata$SWIG_Python_InitShadowInstance 000000018002e1bc     name.obj
 0004:000001c8       $pdata$SWIG_Python_NewPointerObj 000000018002e1c8     name.obj
 0004:000001d4       $pdata$SWIG_Python_DestroyModule 000000018002e1d4     name.obj
 0004:000001e0       $pdata$2$SWIG_Python_DestroyModule 000000018002e1e0     name.obj
 0004:000001ec       $pdata$3$SWIG_Python_DestroyModule 000000018002e1ec     name.obj
 0004:000001f8       $pdata$4$SWIG_Python_DestroyModule 000000018002e1f8     name.obj
 0004:00000204       $pdata$5$SWIG_Python_DestroyModule 000000018002e204     name.obj
 0004:00000210       $pdata$SWIG_Python_TypeCache 000000018002e210     name.obj
 0004:0000021c       $pdata$SWIG_Python_TypeQuery 000000018002e21c     name.obj
 0004:00000228       $pdata$1$SWIG_Python_TypeQuery 000000018002e228     name.obj
 0004:00000234       $pdata$5$SWIG_Python_TypeQuery 000000018002e234     name.obj
 0004:00000240       $pdata$6$SWIG_Python_TypeQuery 000000018002e240     name.obj
 0004:0000024c       $pdata$7$SWIG_Python_TypeQuery 000000018002e24c     name.obj
 0004:00000258       $pdata$??0exception@std@@QEAA@AEBV01@@Z 000000018002e258     name.obj
 0004:00000264       $pdata$??_Gbad_array_new_length@std@@UEAAPEAXI@Z 000000018002e264     MSVCRT:throw_bad_alloc.obj
 0004:00000264       $pdata$??_Gbad_alloc@std@@UEAAPEAXI@Z 000000018002e264     MSVCRT:throw_bad_alloc.obj
 0004:00000264       $pdata$??_Gexception@std@@UEAAPEAXI@Z 000000018002e264     name.obj
 0004:00000264       $pdata$??_Glogic_error@std@@UEAAPEAXI@Z 000000018002e264     name.obj
 0004:00000264       $pdata$??_Gout_of_range@std@@UEAAPEAXI@Z 000000018002e264     name.obj
 0004:00000270       $pdata$??0logic_error@std@@QEAA@AEBV01@@Z 000000018002e270     name.obj
 0004:0000027c       $pdata$??0out_of_range@std@@QEAA@PEBD@Z 000000018002e27c     name.obj
 0004:00000288       $pdata$??0out_of_range@std@@QEAA@AEBV01@@Z 000000018002e288     name.obj
 0004:00000294       $pdata$?resize@?$qvector@D@@QEAAX_K@Z 000000018002e294     name.obj
 0004:000002a0       $pdata$??0?$_qstring@D@@QEAA@PEBD_K@Z 000000018002e2a0     name.obj
 0004:000002ac       $pdata$0$??0?$_qstring@D@@QEAA@PEBD_K@Z 000000018002e2ac     name.obj
 0004:000002b8       $pdata$1$??0?$_qstring@D@@QEAA@PEBD_K@Z 000000018002e2b8     name.obj
 0004:000002c4       $pdata$??4?$_qstring@D@@QEAAAEAV0@AEBV0@@Z 000000018002e2c4     name.obj
 0004:000002d0       $pdata$0$??4?$_qstring@D@@QEAAAEAV0@AEBV0@@Z 000000018002e2d0     name.obj
 0004:000002dc       $pdata$2$??4?$_qstring@D@@QEAAAEAV0@AEBV0@@Z 000000018002e2dc     name.obj
 0004:000002e8       $pdata$3$??4?$_qstring@D@@QEAAAEAV0@AEBV0@@Z 000000018002e2e8     name.obj
 0004:000002f4       $pdata$?sprnt@?$_qstring@D@@QEAAAEAV1@PEBDZZ 000000018002e2f4     name.obj
 0004:00000300       $pdata$??0?$_qstring@D@@QEAA@AEBV0@@Z 000000018002e300     name.obj
 0004:0000030c       $pdata$?__raise_e@@YAXAEBVexception@std@@@Z 000000018002e30c     name.obj
 0004:00000318       $pdata$?__raise_ie@@YAXAEBUinterr_exc_t@@@Z 000000018002e318     name.obj
 0004:00000324       $pdata$?clear@?$qvector@Uea_name_t@@@@QEAAXXZ 000000018002e324     name.obj
 0004:00000330       $pdata$?resize@?$qvector@Uea_name_t@@@@QEAAX_KAEBUea_name_t@@@Z 000000018002e330     name.obj
 0004:0000033c       $pdata$?SWIG_AsVal_unsigned_SS_int@@YAHPEAU_object@@PEAI@Z 000000018002e33c     name.obj
 0004:00000348       $pdata$?SWIG_FromCharPtr@@YAPEAU_object@@PEBD@Z 000000018002e348     name.obj
 0004:00000354       $pdata$_wrap_new_ea_name_vec_t__SWIG_0 000000018002e354     name.obj
 0004:00000360       $pdata$_wrap_new_ea_name_vec_t__SWIG_0$catch$6 000000018002e360     name.obj
 0004:0000036c       $pdata$_wrap_new_ea_name_vec_t__SWIG_0$catch$5 000000018002e36c     name.obj
 0004:00000378       $pdata$_wrap_new_ea_name_vec_t__SWIG_0$catch$4 000000018002e378     name.obj
 0004:00000384       $pdata$_wrap_new_ea_name_vec_t__SWIG_0$catch$3 000000018002e384     name.obj
 0004:00000390       $pdata$_wrap_new_ea_name_vec_t__SWIG_0$catch$2 000000018002e390     name.obj
 0004:0000039c       $pdata$_wrap_new_ea_name_vec_t__SWIG_0$catch$1 000000018002e39c     name.obj
 0004:000003a8       $pdata$_wrap_new_ea_name_vec_t__SWIG_1 000000018002e3a8     name.obj
 0004:000003b4       $pdata$_wrap_new_ea_name_vec_t__SWIG_1$catch$6 000000018002e3b4     name.obj
 0004:000003c0       $pdata$_wrap_new_ea_name_vec_t__SWIG_1$catch$5 000000018002e3c0     name.obj
 0004:000003cc       $pdata$_wrap_new_ea_name_vec_t__SWIG_1$catch$4 000000018002e3cc     name.obj
 0004:000003d8       $pdata$_wrap_new_ea_name_vec_t__SWIG_1$catch$3 000000018002e3d8     name.obj
 0004:000003e4       $pdata$_wrap_new_ea_name_vec_t__SWIG_1$catch$2 000000018002e3e4     name.obj
 0004:000003f0       $pdata$_wrap_new_ea_name_vec_t__SWIG_1$catch$1 000000018002e3f0     name.obj
 0004:000003fc       $pdata$_wrap_new_ea_name_vec_t 000000018002e3fc     name.obj
 0004:00000408       $pdata$_wrap_delete_ea_name_vec_t 000000018002e408     name.obj
 0004:00000414       $pdata$_wrap_delete_ea_name_vec_t$catch$5 000000018002e414     name.obj
 0004:00000420       $pdata$_wrap_delete_ea_name_vec_t$catch$4 000000018002e420     name.obj
 0004:0000042c       $pdata$_wrap_delete_ea_name_vec_t$catch$3 000000018002e42c     name.obj
 0004:00000438       $pdata$_wrap_delete_ea_name_vec_t$catch$2 000000018002e438     name.obj
 0004:00000444       $pdata$_wrap_delete_ea_name_vec_t$catch$1 000000018002e444     name.obj
 0004:00000450       $pdata$_wrap_delete_ea_name_vec_t$catch$0 000000018002e450     name.obj
 0004:0000045c       $pdata$_wrap_ea_name_vec_t_push_back__SWIG_0 000000018002e45c     name.obj
 0004:00000468       $pdata$_wrap_ea_name_vec_t_push_back__SWIG_0$catch$7 000000018002e468     name.obj
 0004:00000474       $pdata$_wrap_ea_name_vec_t_push_back__SWIG_0$catch$6 000000018002e474     name.obj
 0004:00000480       $pdata$_wrap_ea_name_vec_t_push_back__SWIG_0$catch$5 000000018002e480     name.obj
 0004:0000048c       $pdata$_wrap_ea_name_vec_t_push_back__SWIG_0$catch$4 000000018002e48c     name.obj
 0004:00000498       $pdata$_wrap_ea_name_vec_t_push_back__SWIG_0$catch$3 000000018002e498     name.obj
 0004:000004a4       $pdata$_wrap_ea_name_vec_t_push_back__SWIG_0$catch$2 000000018002e4a4     name.obj
 0004:000004b0       $pdata$_wrap_ea_name_vec_t_push_back__SWIG_1 000000018002e4b0     name.obj
 0004:000004bc       $pdata$_wrap_ea_name_vec_t_push_back__SWIG_1$catch$7 000000018002e4bc     name.obj
 0004:000004c8       $pdata$_wrap_ea_name_vec_t_push_back__SWIG_1$catch$6 000000018002e4c8     name.obj
 0004:000004d4       $pdata$_wrap_ea_name_vec_t_push_back__SWIG_1$catch$5 000000018002e4d4     name.obj
 0004:000004e0       $pdata$_wrap_ea_name_vec_t_push_back__SWIG_1$catch$4 000000018002e4e0     name.obj
 0004:000004ec       $pdata$_wrap_ea_name_vec_t_push_back__SWIG_1$catch$3 000000018002e4ec     name.obj
 0004:000004f8       $pdata$_wrap_ea_name_vec_t_push_back__SWIG_1$catch$2 000000018002e4f8     name.obj
 0004:00000504       $pdata$_wrap_ea_name_vec_t_push_back 000000018002e504     name.obj
 0004:00000510       $pdata$_wrap_ea_name_vec_t_pop_back 000000018002e510     name.obj
 0004:0000051c       $pdata$_wrap_ea_name_vec_t_pop_back$catch$7 000000018002e51c     name.obj
 0004:00000528       $pdata$_wrap_ea_name_vec_t_pop_back$catch$6 000000018002e528     name.obj
 0004:00000534       $pdata$_wrap_ea_name_vec_t_pop_back$catch$5 000000018002e534     name.obj
 0004:00000540       $pdata$_wrap_ea_name_vec_t_pop_back$catch$4 000000018002e540     name.obj
 0004:0000054c       $pdata$_wrap_ea_name_vec_t_pop_back$catch$3 000000018002e54c     name.obj
 0004:00000558       $pdata$_wrap_ea_name_vec_t_pop_back$catch$2 000000018002e558     name.obj
 0004:00000564       $pdata$_wrap_ea_name_vec_t_size 000000018002e564     name.obj
 0004:00000570       $pdata$_wrap_ea_name_vec_t_size$catch$5 000000018002e570     name.obj
 0004:0000057c       $pdata$_wrap_ea_name_vec_t_size$catch$4 000000018002e57c     name.obj
 0004:00000588       $pdata$_wrap_ea_name_vec_t_size$catch$3 000000018002e588     name.obj
 0004:00000594       $pdata$_wrap_ea_name_vec_t_size$catch$2 000000018002e594     name.obj
 0004:000005a0       $pdata$_wrap_ea_name_vec_t_size$catch$1 000000018002e5a0     name.obj
 0004:000005ac       $pdata$_wrap_ea_name_vec_t_size$catch$0 000000018002e5ac     name.obj
 0004:000005b8       $pdata$_wrap_ea_name_vec_t_empty 000000018002e5b8     name.obj
 0004:000005c4       $pdata$_wrap_ea_name_vec_t_empty$catch$5 000000018002e5c4     name.obj
 0004:000005d0       $pdata$_wrap_ea_name_vec_t_empty$catch$4 000000018002e5d0     name.obj
 0004:000005dc       $pdata$_wrap_ea_name_vec_t_empty$catch$3 000000018002e5dc     name.obj
 0004:000005e8       $pdata$_wrap_ea_name_vec_t_empty$catch$2 000000018002e5e8     name.obj
 0004:000005f4       $pdata$_wrap_ea_name_vec_t_empty$catch$1 000000018002e5f4     name.obj
 0004:00000600       $pdata$_wrap_ea_name_vec_t_empty$catch$0 000000018002e600     name.obj
 0004:0000060c       $pdata$_wrap_ea_name_vec_t_at 000000018002e60c     name.obj
 0004:00000618       $pdata$_wrap_ea_name_vec_t_at$catch$5 000000018002e618     name.obj
 0004:00000624       $pdata$_wrap_ea_name_vec_t_at$catch$4 000000018002e624     name.obj
 0004:00000630       $pdata$_wrap_ea_name_vec_t_at$catch$3 000000018002e630     name.obj
 0004:0000063c       $pdata$_wrap_ea_name_vec_t_at$catch$2 000000018002e63c     name.obj
 0004:00000648       $pdata$_wrap_ea_name_vec_t_at$catch$1 000000018002e648     name.obj
 0004:00000654       $pdata$_wrap_ea_name_vec_t_at$catch$0 000000018002e654     name.obj
 0004:00000660       $pdata$_wrap_ea_name_vec_t_qclear 000000018002e660     name.obj
 0004:0000066c       $pdata$_wrap_ea_name_vec_t_qclear$catch$7 000000018002e66c     name.obj
 0004:00000678       $pdata$_wrap_ea_name_vec_t_qclear$catch$6 000000018002e678     name.obj
 0004:00000684       $pdata$_wrap_ea_name_vec_t_qclear$catch$5 000000018002e684     name.obj
 0004:00000690       $pdata$_wrap_ea_name_vec_t_qclear$catch$4 000000018002e690     name.obj
 0004:0000069c       $pdata$_wrap_ea_name_vec_t_qclear$catch$3 000000018002e69c     name.obj
 0004:000006a8       $pdata$_wrap_ea_name_vec_t_qclear$catch$2 000000018002e6a8     name.obj
 0004:000006b4       $pdata$_wrap_ea_name_vec_t_clear 000000018002e6b4     name.obj
 0004:000006c0       $pdata$_wrap_ea_name_vec_t_clear$catch$5 000000018002e6c0     name.obj
 0004:000006cc       $pdata$_wrap_ea_name_vec_t_clear$catch$4 000000018002e6cc     name.obj
 0004:000006d8       $pdata$_wrap_ea_name_vec_t_clear$catch$3 000000018002e6d8     name.obj
 0004:000006e4       $pdata$_wrap_ea_name_vec_t_clear$catch$2 000000018002e6e4     name.obj
 0004:000006f0       $pdata$_wrap_ea_name_vec_t_clear$catch$1 000000018002e6f0     name.obj
 0004:000006fc       $pdata$_wrap_ea_name_vec_t_clear$catch$0 000000018002e6fc     name.obj
 0004:00000708       $pdata$_wrap_ea_name_vec_t_resize__SWIG_0 000000018002e708     name.obj
 0004:00000714       $pdata$_wrap_ea_name_vec_t_resize__SWIG_0$catch$5 000000018002e714     name.obj
 0004:00000720       $pdata$_wrap_ea_name_vec_t_resize__SWIG_0$catch$4 000000018002e720     name.obj
 0004:0000072c       $pdata$_wrap_ea_name_vec_t_resize__SWIG_0$catch$3 000000018002e72c     name.obj
 0004:00000738       $pdata$_wrap_ea_name_vec_t_resize__SWIG_0$catch$2 000000018002e738     name.obj
 0004:00000744       $pdata$_wrap_ea_name_vec_t_resize__SWIG_0$catch$1 000000018002e744     name.obj
 0004:00000750       $pdata$_wrap_ea_name_vec_t_resize__SWIG_0$catch$0 000000018002e750     name.obj
 0004:0000075c       $pdata$_wrap_ea_name_vec_t_resize__SWIG_1 000000018002e75c     name.obj
 0004:00000768       $pdata$_wrap_ea_name_vec_t_resize__SWIG_1$catch$9 000000018002e768     name.obj
 0004:00000774       $pdata$_wrap_ea_name_vec_t_resize__SWIG_1$catch$8 000000018002e774     name.obj
 0004:00000780       $pdata$_wrap_ea_name_vec_t_resize__SWIG_1$catch$7 000000018002e780     name.obj
 0004:0000078c       $pdata$_wrap_ea_name_vec_t_resize__SWIG_1$catch$6 000000018002e78c     name.obj
 0004:00000798       $pdata$_wrap_ea_name_vec_t_resize__SWIG_1$catch$5 000000018002e798     name.obj
 0004:000007a4       $pdata$_wrap_ea_name_vec_t_resize__SWIG_1$catch$4 000000018002e7a4     name.obj
 0004:000007b0       $pdata$_wrap_ea_name_vec_t_resize 000000018002e7b0     name.obj
 0004:000007bc       $pdata$_wrap_ea_name_vec_t_grow 000000018002e7bc     name.obj
 0004:000007c8       $pdata$_wrap_ea_name_vec_t_grow$catch$12 000000018002e7c8     name.obj
 0004:000007d4       $pdata$_wrap_ea_name_vec_t_grow$catch$11 000000018002e7d4     name.obj
 0004:000007e0       $pdata$_wrap_ea_name_vec_t_grow$catch$10 000000018002e7e0     name.obj
 0004:000007ec       $pdata$_wrap_ea_name_vec_t_grow$catch$9 000000018002e7ec     name.obj
 0004:000007f8       $pdata$_wrap_ea_name_vec_t_grow$catch$8 000000018002e7f8     name.obj
 0004:00000804       $pdata$_wrap_ea_name_vec_t_grow$catch$7 000000018002e804     name.obj
 0004:00000810       $pdata$_wrap_ea_name_vec_t_capacity 000000018002e810     name.obj
 0004:0000081c       $pdata$_wrap_ea_name_vec_t_capacity$catch$5 000000018002e81c     name.obj
 0004:00000828       $pdata$_wrap_ea_name_vec_t_capacity$catch$4 000000018002e828     name.obj
 0004:00000834       $pdata$_wrap_ea_name_vec_t_capacity$catch$3 000000018002e834     name.obj
 0004:00000840       $pdata$_wrap_ea_name_vec_t_capacity$catch$2 000000018002e840     name.obj
 0004:0000084c       $pdata$_wrap_ea_name_vec_t_capacity$catch$1 000000018002e84c     name.obj
 0004:00000858       $pdata$_wrap_ea_name_vec_t_capacity$catch$0 000000018002e858     name.obj
 0004:00000864       $pdata$_wrap_ea_name_vec_t_reserve 000000018002e864     name.obj
 0004:00000870       $pdata$_wrap_ea_name_vec_t_reserve$catch$7 000000018002e870     name.obj
 0004:0000087c       $pdata$_wrap_ea_name_vec_t_reserve$catch$6 000000018002e87c     name.obj
 0004:00000888       $pdata$_wrap_ea_name_vec_t_reserve$catch$5 000000018002e888     name.obj
 0004:00000894       $pdata$_wrap_ea_name_vec_t_reserve$catch$4 000000018002e894     name.obj
 0004:000008a0       $pdata$_wrap_ea_name_vec_t_reserve$catch$3 000000018002e8a0     name.obj
 0004:000008ac       $pdata$_wrap_ea_name_vec_t_reserve$catch$2 000000018002e8ac     name.obj
 0004:000008b8       $pdata$_wrap_ea_name_vec_t_truncate 000000018002e8b8     name.obj
 0004:000008c4       $pdata$_wrap_ea_name_vec_t_truncate$catch$5 000000018002e8c4     name.obj
 0004:000008d0       $pdata$_wrap_ea_name_vec_t_truncate$catch$4 000000018002e8d0     name.obj
 0004:000008dc       $pdata$_wrap_ea_name_vec_t_truncate$catch$3 000000018002e8dc     name.obj
 0004:000008e8       $pdata$_wrap_ea_name_vec_t_truncate$catch$2 000000018002e8e8     name.obj
 0004:000008f4       $pdata$_wrap_ea_name_vec_t_truncate$catch$1 000000018002e8f4     name.obj
 0004:00000900       $pdata$_wrap_ea_name_vec_t_truncate$catch$0 000000018002e900     name.obj
 0004:0000090c       $pdata$_wrap_ea_name_vec_t_swap 000000018002e90c     name.obj
 0004:00000918       $pdata$_wrap_ea_name_vec_t_swap$catch$5 000000018002e918     name.obj
 0004:00000924       $pdata$_wrap_ea_name_vec_t_swap$catch$4 000000018002e924     name.obj
 0004:00000930       $pdata$_wrap_ea_name_vec_t_swap$catch$3 000000018002e930     name.obj
 0004:0000093c       $pdata$_wrap_ea_name_vec_t_swap$catch$2 000000018002e93c     name.obj
 0004:00000948       $pdata$_wrap_ea_name_vec_t_swap$catch$1 000000018002e948     name.obj
 0004:00000954       $pdata$_wrap_ea_name_vec_t_swap$catch$0 000000018002e954     name.obj
 0004:00000960       $pdata$_wrap_ea_name_vec_t_extract 000000018002e960     name.obj
 0004:0000096c       $pdata$_wrap_ea_name_vec_t_extract$catch$5 000000018002e96c     name.obj
 0004:00000978       $pdata$_wrap_ea_name_vec_t_extract$catch$4 000000018002e978     name.obj
 0004:00000984       $pdata$_wrap_ea_name_vec_t_extract$catch$3 000000018002e984     name.obj
 0004:00000990       $pdata$_wrap_ea_name_vec_t_extract$catch$2 000000018002e990     name.obj
 0004:0000099c       $pdata$_wrap_ea_name_vec_t_extract$catch$1 000000018002e99c     name.obj
 0004:000009a8       $pdata$_wrap_ea_name_vec_t_extract$catch$0 000000018002e9a8     name.obj
 0004:000009b4       $pdata$_wrap_ea_name_vec_t_inject 000000018002e9b4     name.obj
 0004:000009c0       $pdata$_wrap_ea_name_vec_t_inject$catch$5 000000018002e9c0     name.obj
 0004:000009cc       $pdata$_wrap_ea_name_vec_t_inject$catch$4 000000018002e9cc     name.obj
 0004:000009d8       $pdata$_wrap_ea_name_vec_t_inject$catch$3 000000018002e9d8     name.obj
 0004:000009e4       $pdata$_wrap_ea_name_vec_t_inject$catch$2 000000018002e9e4     name.obj
 0004:000009f0       $pdata$_wrap_ea_name_vec_t_inject$catch$1 000000018002e9f0     name.obj
 0004:000009fc       $pdata$_wrap_ea_name_vec_t_inject$catch$0 000000018002e9fc     name.obj
 0004:00000a08       $pdata$_wrap_ea_name_vec_t_begin__SWIG_0 000000018002ea08     name.obj
 0004:00000a14       $pdata$_wrap_ea_name_vec_t_begin__SWIG_0$catch$5 000000018002ea14     name.obj
 0004:00000a20       $pdata$_wrap_ea_name_vec_t_begin__SWIG_0$catch$4 000000018002ea20     name.obj
 0004:00000a2c       $pdata$_wrap_ea_name_vec_t_begin__SWIG_0$catch$3 000000018002ea2c     name.obj
 0004:00000a38       $pdata$_wrap_ea_name_vec_t_begin__SWIG_0$catch$2 000000018002ea38     name.obj
 0004:00000a44       $pdata$_wrap_ea_name_vec_t_begin__SWIG_0$catch$1 000000018002ea44     name.obj
 0004:00000a50       $pdata$_wrap_ea_name_vec_t_begin__SWIG_0$catch$0 000000018002ea50     name.obj
 0004:00000a5c       $pdata$_wrap_ea_name_vec_t_end__SWIG_0 000000018002ea5c     name.obj
 0004:00000a68       $pdata$_wrap_ea_name_vec_t_end__SWIG_0$catch$5 000000018002ea68     name.obj
 0004:00000a74       $pdata$_wrap_ea_name_vec_t_end__SWIG_0$catch$4 000000018002ea74     name.obj
 0004:00000a80       $pdata$_wrap_ea_name_vec_t_end__SWIG_0$catch$3 000000018002ea80     name.obj
 0004:00000a8c       $pdata$_wrap_ea_name_vec_t_end__SWIG_0$catch$2 000000018002ea8c     name.obj
 0004:00000a98       $pdata$_wrap_ea_name_vec_t_end__SWIG_0$catch$1 000000018002ea98     name.obj
 0004:00000aa4       $pdata$_wrap_ea_name_vec_t_end__SWIG_0$catch$0 000000018002eaa4     name.obj
 0004:00000ab0       $pdata$_wrap_ea_name_vec_t_begin__SWIG_1 000000018002eab0     name.obj
 0004:00000abc       $pdata$_wrap_ea_name_vec_t_begin__SWIG_1$catch$5 000000018002eabc     name.obj
 0004:00000ac8       $pdata$_wrap_ea_name_vec_t_begin__SWIG_1$catch$4 000000018002eac8     name.obj
 0004:00000ad4       $pdata$_wrap_ea_name_vec_t_begin__SWIG_1$catch$3 000000018002ead4     name.obj
 0004:00000ae0       $pdata$_wrap_ea_name_vec_t_begin__SWIG_1$catch$2 000000018002eae0     name.obj
 0004:00000aec       $pdata$_wrap_ea_name_vec_t_begin__SWIG_1$catch$1 000000018002eaec     name.obj
 0004:00000af8       $pdata$_wrap_ea_name_vec_t_begin__SWIG_1$catch$0 000000018002eaf8     name.obj
 0004:00000b04       $pdata$_wrap_ea_name_vec_t_begin 000000018002eb04     name.obj
 0004:00000b10       $pdata$_wrap_ea_name_vec_t_end__SWIG_1 000000018002eb10     name.obj
 0004:00000b1c       $pdata$_wrap_ea_name_vec_t_end__SWIG_1$catch$5 000000018002eb1c     name.obj
 0004:00000b28       $pdata$_wrap_ea_name_vec_t_end__SWIG_1$catch$4 000000018002eb28     name.obj
 0004:00000b34       $pdata$_wrap_ea_name_vec_t_end__SWIG_1$catch$3 000000018002eb34     name.obj
 0004:00000b40       $pdata$_wrap_ea_name_vec_t_end__SWIG_1$catch$2 000000018002eb40     name.obj
 0004:00000b4c       $pdata$_wrap_ea_name_vec_t_end__SWIG_1$catch$1 000000018002eb4c     name.obj
 0004:00000b58       $pdata$_wrap_ea_name_vec_t_end__SWIG_1$catch$0 000000018002eb58     name.obj
 0004:00000b64       $pdata$_wrap_ea_name_vec_t_end 000000018002eb64     name.obj
 0004:00000b70       $pdata$_wrap_ea_name_vec_t_insert 000000018002eb70     name.obj
 0004:00000b7c       $pdata$_wrap_ea_name_vec_t_insert$catch$9 000000018002eb7c     name.obj
 0004:00000b88       $pdata$_wrap_ea_name_vec_t_insert$catch$8 000000018002eb88     name.obj
 0004:00000b94       $pdata$_wrap_ea_name_vec_t_insert$catch$7 000000018002eb94     name.obj
 0004:00000ba0       $pdata$_wrap_ea_name_vec_t_insert$catch$6 000000018002eba0     name.obj
 0004:00000bac       $pdata$_wrap_ea_name_vec_t_insert$catch$5 000000018002ebac     name.obj
 0004:00000bb8       $pdata$_wrap_ea_name_vec_t_insert$catch$4 000000018002ebb8     name.obj
 0004:00000bc4       $pdata$_wrap_ea_name_vec_t_erase__SWIG_0 000000018002ebc4     name.obj
 0004:00000bd0       $pdata$_wrap_ea_name_vec_t_erase__SWIG_0$catch$9 000000018002ebd0     name.obj
 0004:00000bdc       $pdata$_wrap_ea_name_vec_t_erase__SWIG_0$catch$8 000000018002ebdc     name.obj
 0004:00000be8       $pdata$_wrap_ea_name_vec_t_erase__SWIG_0$catch$7 000000018002ebe8     name.obj
 0004:00000bf4       $pdata$_wrap_ea_name_vec_t_erase__SWIG_0$catch$6 000000018002ebf4     name.obj
 0004:00000c00       $pdata$_wrap_ea_name_vec_t_erase__SWIG_0$catch$5 000000018002ec00     name.obj
 0004:00000c0c       $pdata$_wrap_ea_name_vec_t_erase__SWIG_0$catch$4 000000018002ec0c     name.obj
 0004:00000c18       $pdata$_wrap_ea_name_vec_t_erase__SWIG_1 000000018002ec18     name.obj
 0004:00000c24       $pdata$_wrap_ea_name_vec_t_erase__SWIG_1$catch$9 000000018002ec24     name.obj
 0004:00000c30       $pdata$_wrap_ea_name_vec_t_erase__SWIG_1$catch$8 000000018002ec30     name.obj
 0004:00000c3c       $pdata$_wrap_ea_name_vec_t_erase__SWIG_1$catch$7 000000018002ec3c     name.obj
 0004:00000c48       $pdata$_wrap_ea_name_vec_t_erase__SWIG_1$catch$6 000000018002ec48     name.obj
 0004:00000c54       $pdata$_wrap_ea_name_vec_t_erase__SWIG_1$catch$5 000000018002ec54     name.obj
 0004:00000c60       $pdata$_wrap_ea_name_vec_t_erase__SWIG_1$catch$4 000000018002ec60     name.obj
 0004:00000c6c       $pdata$_wrap_ea_name_vec_t_erase 000000018002ec6c     name.obj
 0004:00000c78       $pdata$_wrap_ea_name_vec_t___len__ 000000018002ec78     name.obj
 0004:00000c84       $pdata$_wrap_ea_name_vec_t___len__$catch$5 000000018002ec84     name.obj
 0004:00000c90       $pdata$_wrap_ea_name_vec_t___len__$catch$4 000000018002ec90     name.obj
 0004:00000c9c       $pdata$_wrap_ea_name_vec_t___len__$catch$3 000000018002ec9c     name.obj
 0004:00000ca8       $pdata$_wrap_ea_name_vec_t___len__$catch$2 000000018002eca8     name.obj
 0004:00000cb4       $pdata$_wrap_ea_name_vec_t___len__$catch$1 000000018002ecb4     name.obj
 0004:00000cc0       $pdata$_wrap_ea_name_vec_t___len__$catch$0 000000018002ecc0     name.obj
 0004:00000ccc       $pdata$_wrap_ea_name_vec_t___getitem__ 000000018002eccc     name.obj
 0004:00000cd8       $pdata$_wrap_ea_name_vec_t___getitem__$catch$0 000000018002ecd8     name.obj
 0004:00000ce4       $pdata$_wrap_ea_name_vec_t___getitem__$catch$1 000000018002ece4     name.obj
 0004:00000cf0       $pdata$_wrap_ea_name_vec_t___getitem__$catch$2 000000018002ecf0     name.obj
 0004:00000cfc       $pdata$_wrap_ea_name_vec_t___getitem__$catch$3 000000018002ecfc     name.obj
 0004:00000d08       $pdata$_wrap_ea_name_vec_t___getitem__$catch$4 000000018002ed08     name.obj
 0004:00000d14       $pdata$_wrap_ea_name_vec_t___getitem__$catch$5 000000018002ed14     name.obj
 0004:00000d20       $pdata$_wrap_ea_name_vec_t___setitem__ 000000018002ed20     name.obj
 0004:00000d2c       $pdata$_wrap_ea_name_vec_t___setitem__$catch$0 000000018002ed2c     name.obj
 0004:00000d38       $pdata$_wrap_ea_name_vec_t___setitem__$catch$1 000000018002ed38     name.obj
 0004:00000d44       $pdata$_wrap_ea_name_vec_t___setitem__$catch$2 000000018002ed44     name.obj
 0004:00000d50       $pdata$_wrap_ea_name_vec_t___setitem__$catch$3 000000018002ed50     name.obj
 0004:00000d5c       $pdata$_wrap_ea_name_vec_t___setitem__$catch$4 000000018002ed5c     name.obj
 0004:00000d68       $pdata$_wrap_ea_name_vec_t___setitem__$catch$5 000000018002ed68     name.obj
 0004:00000d74       $pdata$ea_name_vec_t_swigregister 000000018002ed74     name.obj
 0004:00000d80       $pdata$_wrap_get_name      000000018002ed80     name.obj
 0004:00000d8c       $pdata$_wrap_get_name$catch$11 000000018002ed8c     name.obj
 0004:00000d98       $pdata$_wrap_get_name$catch$12 000000018002ed98     name.obj
 0004:00000da4       $pdata$_wrap_get_name$catch$13 000000018002eda4     name.obj
 0004:00000db0       $pdata$_wrap_get_name$catch$14 000000018002edb0     name.obj
 0004:00000dbc       $pdata$_wrap_get_name$catch$15 000000018002edbc     name.obj
 0004:00000dc8       $pdata$_wrap_get_name$catch$16 000000018002edc8     name.obj
 0004:00000dd4       $pdata$??4?$SwigValueWrapper@V?$_qstring@D@@@@QEAAAEAV0@AEBV?$_qstring@D@@@Z 000000018002edd4     name.obj
 0004:00000de0       $pdata$??1?$SwigValueWrapper@V?$_qstring@D@@@@QEAA@XZ 000000018002ede0     name.obj
 0004:00000dec       $pdata$_wrap_get_colored_name 000000018002edec     name.obj
 0004:00000df8       $pdata$_wrap_get_colored_name$catch$11 000000018002edf8     name.obj
 0004:00000e04       $pdata$_wrap_get_colored_name$catch$12 000000018002ee04     name.obj
 0004:00000e10       $pdata$_wrap_get_colored_name$catch$13 000000018002ee10     name.obj
 0004:00000e1c       $pdata$_wrap_get_colored_name$catch$14 000000018002ee1c     name.obj
 0004:00000e28       $pdata$_wrap_get_colored_name$catch$15 000000018002ee28     name.obj
 0004:00000e34       $pdata$_wrap_get_colored_name$catch$16 000000018002ee34     name.obj
 0004:00000e40       $pdata$_wrap_set_name      000000018002ee40     name.obj
 0004:00000e4c       $pdata$_wrap_set_name$catch$5 000000018002ee4c     name.obj
 0004:00000e58       $pdata$_wrap_set_name$catch$4 000000018002ee58     name.obj
 0004:00000e64       $pdata$_wrap_set_name$catch$3 000000018002ee64     name.obj
 0004:00000e70       $pdata$_wrap_set_name$catch$2 000000018002ee70     name.obj
 0004:00000e7c       $pdata$_wrap_set_name$catch$1 000000018002ee7c     name.obj
 0004:00000e88       $pdata$_wrap_set_name$catch$0 000000018002ee88     name.obj
 0004:00000e94       $pdata$_wrap_force_name    000000018002ee94     name.obj
 0004:00000ea0       $pdata$_wrap_force_name$catch$5 000000018002eea0     name.obj
 0004:00000eac       $pdata$_wrap_force_name$catch$4 000000018002eeac     name.obj
 0004:00000eb8       $pdata$_wrap_force_name$catch$3 000000018002eeb8     name.obj
 0004:00000ec4       $pdata$_wrap_force_name$catch$2 000000018002eec4     name.obj
 0004:00000ed0       $pdata$_wrap_force_name$catch$1 000000018002eed0     name.obj
 0004:00000edc       $pdata$_wrap_force_name$catch$0 000000018002eedc     name.obj
 0004:00000ee8       $pdata$_wrap_del_global_name 000000018002eee8     name.obj
 0004:00000ef4       $pdata$_wrap_del_global_name$catch$5 000000018002eef4     name.obj
 0004:00000f00       $pdata$_wrap_del_global_name$catch$4 000000018002ef00     name.obj
 0004:00000f0c       $pdata$_wrap_del_global_name$catch$3 000000018002ef0c     name.obj
 0004:00000f18       $pdata$_wrap_del_global_name$catch$2 000000018002ef18     name.obj
 0004:00000f24       $pdata$_wrap_del_global_name$catch$1 000000018002ef24     name.obj
 0004:00000f30       $pdata$_wrap_del_global_name$catch$0 000000018002ef30     name.obj
 0004:00000f3c       $pdata$_wrap_del_local_name 000000018002ef3c     name.obj
 0004:00000f48       $pdata$_wrap_del_local_name$catch$5 000000018002ef48     name.obj
 0004:00000f54       $pdata$_wrap_del_local_name$catch$4 000000018002ef54     name.obj
 0004:00000f60       $pdata$_wrap_del_local_name$catch$3 000000018002ef60     name.obj
 0004:00000f6c       $pdata$_wrap_del_local_name$catch$2 000000018002ef6c     name.obj
 0004:00000f78       $pdata$_wrap_del_local_name$catch$1 000000018002ef78     name.obj
 0004:00000f84       $pdata$_wrap_del_local_name$catch$0 000000018002ef84     name.obj
 0004:00000f90       $pdata$_wrap_set_dummy_name 000000018002ef90     name.obj
 0004:00000f9c       $pdata$_wrap_set_dummy_name$catch$5 000000018002ef9c     name.obj
 0004:00000fa8       $pdata$_wrap_set_dummy_name$catch$4 000000018002efa8     name.obj
 0004:00000fb4       $pdata$_wrap_set_dummy_name$catch$3 000000018002efb4     name.obj
 0004:00000fc0       $pdata$_wrap_set_dummy_name$catch$2 000000018002efc0     name.obj
 0004:00000fcc       $pdata$_wrap_set_dummy_name$catch$1 000000018002efcc     name.obj
 0004:00000fd8       $pdata$_wrap_set_dummy_name$catch$0 000000018002efd8     name.obj
 0004:00000fe4       $pdata$_wrap_make_name_auto 000000018002efe4     name.obj
 0004:00000ff0       $pdata$_wrap_make_name_auto$catch$5 000000018002eff0     name.obj
 0004:00000ffc       $pdata$_wrap_make_name_auto$catch$4 000000018002effc     name.obj
 0004:00001008       $pdata$_wrap_make_name_auto$catch$3 000000018002f008     name.obj
 0004:00001014       $pdata$_wrap_make_name_auto$catch$2 000000018002f014     name.obj
 0004:00001020       $pdata$_wrap_make_name_auto$catch$1 000000018002f020     name.obj
 0004:0000102c       $pdata$_wrap_make_name_auto$catch$0 000000018002f02c     name.obj
 0004:00001038       $pdata$_wrap_make_name_user 000000018002f038     name.obj
 0004:00001044       $pdata$_wrap_make_name_user$catch$5 000000018002f044     name.obj
 0004:00001050       $pdata$_wrap_make_name_user$catch$4 000000018002f050     name.obj
 0004:0000105c       $pdata$_wrap_make_name_user$catch$3 000000018002f05c     name.obj
 0004:00001068       $pdata$_wrap_make_name_user$catch$2 000000018002f068     name.obj
 0004:00001074       $pdata$_wrap_make_name_user$catch$1 000000018002f074     name.obj
 0004:00001080       $pdata$_wrap_make_name_user$catch$0 000000018002f080     name.obj
 0004:0000108c       $pdata$_wrap_is_valid_cp   000000018002f08c     name.obj
 0004:00001098       $pdata$_wrap_is_valid_cp$catch$5 000000018002f098     name.obj
 0004:000010a4       $pdata$_wrap_is_valid_cp$catch$4 000000018002f0a4     name.obj
 0004:000010b0       $pdata$_wrap_is_valid_cp$catch$3 000000018002f0b0     name.obj
 0004:000010bc       $pdata$_wrap_is_valid_cp$catch$2 000000018002f0bc     name.obj
 0004:000010c8       $pdata$_wrap_is_valid_cp$catch$1 000000018002f0c8     name.obj
 0004:000010d4       $pdata$_wrap_is_valid_cp$catch$0 000000018002f0d4     name.obj
 0004:000010e0       $pdata$_wrap_set_cp_validity 000000018002f0e0     name.obj
 0004:000010ec       $pdata$_wrap_set_cp_validity$catch$5 000000018002f0ec     name.obj
 0004:000010f8       $pdata$_wrap_set_cp_validity$catch$4 000000018002f0f8     name.obj
 0004:00001104       $pdata$_wrap_set_cp_validity$catch$3 000000018002f104     name.obj
 0004:00001110       $pdata$_wrap_set_cp_validity$catch$2 000000018002f110     name.obj
 0004:0000111c       $pdata$_wrap_set_cp_validity$catch$1 000000018002f11c     name.obj
 0004:00001128       $pdata$_wrap_set_cp_validity$catch$0 000000018002f128     name.obj
 0004:00001134       $pdata$_wrap_is_ident_cp   000000018002f134     name.obj
 0004:00001140       $pdata$_wrap_is_ident_cp$catch$5 000000018002f140     name.obj
 0004:0000114c       $pdata$_wrap_is_ident_cp$catch$4 000000018002f14c     name.obj
 0004:00001158       $pdata$_wrap_is_ident_cp$catch$3 000000018002f158     name.obj
 0004:00001164       $pdata$_wrap_is_ident_cp$catch$2 000000018002f164     name.obj
 0004:00001170       $pdata$_wrap_is_ident_cp$catch$1 000000018002f170     name.obj
 0004:0000117c       $pdata$_wrap_is_ident_cp$catch$0 000000018002f17c     name.obj
 0004:00001188       $pdata$_wrap_is_strlit_cp  000000018002f188     name.obj
 0004:00001194       $pdata$_wrap_is_strlit_cp$catch$5 000000018002f194     name.obj
 0004:000011a0       $pdata$_wrap_is_strlit_cp$catch$4 000000018002f1a0     name.obj
 0004:000011ac       $pdata$_wrap_is_strlit_cp$catch$3 000000018002f1ac     name.obj
 0004:000011b8       $pdata$_wrap_is_strlit_cp$catch$2 000000018002f1b8     name.obj
 0004:000011c4       $pdata$_wrap_is_strlit_cp$catch$1 000000018002f1c4     name.obj
 0004:000011d0       $pdata$_wrap_is_strlit_cp$catch$0 000000018002f1d0     name.obj
 0004:000011dc       $pdata$_wrap_is_visible_cp 000000018002f1dc     name.obj
 0004:000011e8       $pdata$_wrap_is_visible_cp$catch$5 000000018002f1e8     name.obj
 0004:000011f4       $pdata$_wrap_is_visible_cp$catch$4 000000018002f1f4     name.obj
 0004:00001200       $pdata$_wrap_is_visible_cp$catch$3 000000018002f200     name.obj
 0004:0000120c       $pdata$_wrap_is_visible_cp$catch$2 000000018002f20c     name.obj
 0004:00001218       $pdata$_wrap_is_visible_cp$catch$1 000000018002f218     name.obj
 0004:00001224       $pdata$_wrap_is_visible_cp$catch$0 000000018002f224     name.obj
 0004:00001230       $pdata$_wrap_is_ident      000000018002f230     name.obj
 0004:0000123c       $pdata$_wrap_is_ident$catch$5 000000018002f23c     name.obj
 0004:00001248       $pdata$_wrap_is_ident$catch$4 000000018002f248     name.obj
 0004:00001254       $pdata$_wrap_is_ident$catch$3 000000018002f254     name.obj
 0004:00001260       $pdata$_wrap_is_ident$catch$2 000000018002f260     name.obj
 0004:0000126c       $pdata$_wrap_is_ident$catch$1 000000018002f26c     name.obj
 0004:00001278       $pdata$_wrap_is_ident$catch$0 000000018002f278     name.obj
 0004:00001284       $pdata$_wrap_is_uname      000000018002f284     name.obj
 0004:00001290       $pdata$_wrap_is_uname$catch$5 000000018002f290     name.obj
 0004:0000129c       $pdata$_wrap_is_uname$catch$4 000000018002f29c     name.obj
 0004:000012a8       $pdata$_wrap_is_uname$catch$3 000000018002f2a8     name.obj
 0004:000012b4       $pdata$_wrap_is_uname$catch$2 000000018002f2b4     name.obj
 0004:000012c0       $pdata$_wrap_is_uname$catch$1 000000018002f2c0     name.obj
 0004:000012cc       $pdata$_wrap_is_uname$catch$0 000000018002f2cc     name.obj
 0004:000012d8       $pdata$_wrap_is_valid_typename 000000018002f2d8     name.obj
 0004:000012e4       $pdata$_wrap_is_valid_typename$catch$5 000000018002f2e4     name.obj
 0004:000012f0       $pdata$_wrap_is_valid_typename$catch$4 000000018002f2f0     name.obj
 0004:000012fc       $pdata$_wrap_is_valid_typename$catch$3 000000018002f2fc     name.obj
 0004:00001308       $pdata$_wrap_is_valid_typename$catch$2 000000018002f308     name.obj
 0004:00001314       $pdata$_wrap_is_valid_typename$catch$1 000000018002f314     name.obj
 0004:00001320       $pdata$_wrap_is_valid_typename$catch$0 000000018002f320     name.obj
 0004:0000132c       $pdata$_wrap_extract_name  000000018002f32c     name.obj
 0004:00001338       $pdata$_wrap_extract_name$catch$8 000000018002f338     name.obj
 0004:00001344       $pdata$_wrap_extract_name$catch$7 000000018002f344     name.obj
 0004:00001350       $pdata$_wrap_extract_name$catch$6 000000018002f350     name.obj
 0004:0000135c       $pdata$_wrap_extract_name$catch$5 000000018002f35c     name.obj
 0004:00001368       $pdata$_wrap_extract_name$catch$4 000000018002f368     name.obj
 0004:00001374       $pdata$_wrap_extract_name$catch$3 000000018002f374     name.obj
 0004:00001380       $pdata$_wrap_hide_name     000000018002f380     name.obj
 0004:0000138c       $pdata$_wrap_hide_name$catch$5 000000018002f38c     name.obj
 0004:00001398       $pdata$_wrap_hide_name$catch$4 000000018002f398     name.obj
 0004:000013a4       $pdata$_wrap_hide_name$catch$3 000000018002f3a4     name.obj
 0004:000013b0       $pdata$_wrap_hide_name$catch$2 000000018002f3b0     name.obj
 0004:000013bc       $pdata$_wrap_hide_name$catch$1 000000018002f3bc     name.obj
 0004:000013c8       $pdata$_wrap_hide_name$catch$0 000000018002f3c8     name.obj
 0004:000013d4       $pdata$_wrap_show_name     000000018002f3d4     name.obj
 0004:000013e0       $pdata$_wrap_show_name$catch$5 000000018002f3e0     name.obj
 0004:000013ec       $pdata$_wrap_show_name$catch$4 000000018002f3ec     name.obj
 0004:000013f8       $pdata$_wrap_show_name$catch$3 000000018002f3f8     name.obj
 0004:00001404       $pdata$_wrap_show_name$catch$2 000000018002f404     name.obj
 0004:00001410       $pdata$_wrap_show_name$catch$1 000000018002f410     name.obj
 0004:0000141c       $pdata$_wrap_show_name$catch$0 000000018002f41c     name.obj
 0004:00001428       $pdata$_wrap_get_name_ea   000000018002f428     name.obj
 0004:00001434       $pdata$_wrap_get_name_ea$catch$5 000000018002f434     name.obj
 0004:00001440       $pdata$_wrap_get_name_ea$catch$4 000000018002f440     name.obj
 0004:0000144c       $pdata$_wrap_get_name_ea$catch$3 000000018002f44c     name.obj
 0004:00001458       $pdata$_wrap_get_name_ea$catch$2 000000018002f458     name.obj
 0004:00001464       $pdata$_wrap_get_name_ea$catch$1 000000018002f464     name.obj
 0004:00001470       $pdata$_wrap_get_name_ea$catch$0 000000018002f470     name.obj
 0004:0000147c       $pdata$_wrap_get_name_base_ea 000000018002f47c     name.obj
 0004:00001488       $pdata$_wrap_get_name_base_ea$catch$5 000000018002f488     name.obj
 0004:00001494       $pdata$_wrap_get_name_base_ea$catch$4 000000018002f494     name.obj
 0004:000014a0       $pdata$_wrap_get_name_base_ea$catch$3 000000018002f4a0     name.obj
 0004:000014ac       $pdata$_wrap_get_name_base_ea$catch$2 000000018002f4ac     name.obj
 0004:000014b8       $pdata$_wrap_get_name_base_ea$catch$1 000000018002f4b8     name.obj
 0004:000014c4       $pdata$_wrap_get_name_base_ea$catch$0 000000018002f4c4     name.obj
 0004:000014d0       $pdata$_wrap_get_name_value 000000018002f4d0     name.obj
 0004:000014dc       $pdata$_wrap_get_name_value$catch$5 000000018002f4dc     name.obj
 0004:000014e8       $pdata$_wrap_get_name_value$catch$4 000000018002f4e8     name.obj
 0004:000014f4       $pdata$_wrap_get_name_value$catch$3 000000018002f4f4     name.obj
 0004:00001500       $pdata$_wrap_get_name_value$catch$2 000000018002f500     name.obj
 0004:0000150c       $pdata$_wrap_get_name_value$catch$1 000000018002f50c     name.obj
 0004:00001518       $pdata$_wrap_get_name_value$catch$0 000000018002f518     name.obj
 0004:00001524       $pdata$_wrap_get_visible_name 000000018002f524     name.obj
 0004:00001530       $pdata$_wrap_get_visible_name$catch$11 000000018002f530     name.obj
 0004:0000153c       $pdata$_wrap_get_visible_name$catch$12 000000018002f53c     name.obj
 0004:00001548       $pdata$_wrap_get_visible_name$catch$13 000000018002f548     name.obj
 0004:00001554       $pdata$_wrap_get_visible_name$catch$14 000000018002f554     name.obj
 0004:00001560       $pdata$_wrap_get_visible_name$catch$15 000000018002f560     name.obj
 0004:0000156c       $pdata$_wrap_get_visible_name$catch$16 000000018002f56c     name.obj
 0004:00001578       $pdata$_wrap_get_short_name 000000018002f578     name.obj
 0004:00001584       $pdata$_wrap_get_short_name$catch$11 000000018002f584     name.obj
 0004:00001590       $pdata$_wrap_get_short_name$catch$12 000000018002f590     name.obj
 0004:0000159c       $pdata$_wrap_get_short_name$catch$13 000000018002f59c     name.obj
 0004:000015a8       $pdata$_wrap_get_short_name$catch$14 000000018002f5a8     name.obj
 0004:000015b4       $pdata$_wrap_get_short_name$catch$15 000000018002f5b4     name.obj
 0004:000015c0       $pdata$_wrap_get_short_name$catch$16 000000018002f5c0     name.obj
 0004:000015cc       $pdata$_wrap_get_long_name 000000018002f5cc     name.obj
 0004:000015d8       $pdata$_wrap_get_long_name$catch$11 000000018002f5d8     name.obj
 0004:000015e4       $pdata$_wrap_get_long_name$catch$12 000000018002f5e4     name.obj
 0004:000015f0       $pdata$_wrap_get_long_name$catch$13 000000018002f5f0     name.obj
 0004:000015fc       $pdata$_wrap_get_long_name$catch$14 000000018002f5fc     name.obj
 0004:00001608       $pdata$_wrap_get_long_name$catch$15 000000018002f608     name.obj
 0004:00001614       $pdata$_wrap_get_long_name$catch$16 000000018002f614     name.obj
 0004:00001620       $pdata$_wrap_get_colored_short_name 000000018002f620     name.obj
 0004:0000162c       $pdata$_wrap_get_colored_short_name$catch$11 000000018002f62c     name.obj
 0004:00001638       $pdata$_wrap_get_colored_short_name$catch$12 000000018002f638     name.obj
 0004:00001644       $pdata$_wrap_get_colored_short_name$catch$13 000000018002f644     name.obj
 0004:00001650       $pdata$_wrap_get_colored_short_name$catch$14 000000018002f650     name.obj
 0004:0000165c       $pdata$_wrap_get_colored_short_name$catch$15 000000018002f65c     name.obj
 0004:00001668       $pdata$_wrap_get_colored_short_name$catch$16 000000018002f668     name.obj
 0004:00001674       $pdata$_wrap_get_colored_long_name 000000018002f674     name.obj
 0004:00001680       $pdata$_wrap_get_colored_long_name$catch$11 000000018002f680     name.obj
 0004:0000168c       $pdata$_wrap_get_colored_long_name$catch$12 000000018002f68c     name.obj
 0004:00001698       $pdata$_wrap_get_colored_long_name$catch$13 000000018002f698     name.obj
 0004:000016a4       $pdata$_wrap_get_colored_long_name$catch$14 000000018002f6a4     name.obj
 0004:000016b0       $pdata$_wrap_get_colored_long_name$catch$15 000000018002f6b0     name.obj
 0004:000016bc       $pdata$_wrap_get_colored_long_name$catch$16 000000018002f6bc     name.obj
 0004:000016c8       $pdata$_wrap_get_demangled_name 000000018002f6c8     name.obj
 0004:000016d4       $pdata$_wrap_get_demangled_name$catch$7 000000018002f6d4     name.obj
 0004:000016e0       $pdata$_wrap_get_demangled_name$catch$8 000000018002f6e0     name.obj
 0004:000016ec       $pdata$_wrap_get_demangled_name$catch$9 000000018002f6ec     name.obj
 0004:000016f8       $pdata$_wrap_get_demangled_name$catch$10 000000018002f6f8     name.obj
 0004:00001704       $pdata$_wrap_get_demangled_name$catch$11 000000018002f704     name.obj
 0004:00001710       $pdata$_wrap_get_demangled_name$catch$12 000000018002f710     name.obj
 0004:0000171c       $pdata$_wrap_get_colored_demangled_name 000000018002f71c     name.obj
 0004:00001728       $pdata$_wrap_get_colored_demangled_name$catch$7 000000018002f728     name.obj
 0004:00001734       $pdata$_wrap_get_colored_demangled_name$catch$8 000000018002f734     name.obj
 0004:00001740       $pdata$_wrap_get_colored_demangled_name$catch$9 000000018002f740     name.obj
 0004:0000174c       $pdata$_wrap_get_colored_demangled_name$catch$10 000000018002f74c     name.obj
 0004:00001758       $pdata$_wrap_get_colored_demangled_name$catch$11 000000018002f758     name.obj
 0004:00001764       $pdata$_wrap_get_colored_demangled_name$catch$12 000000018002f764     name.obj
 0004:00001770       $pdata$_wrap_get_name_color 000000018002f770     name.obj
 0004:0000177c       $pdata$_wrap_get_name_color$catch$5 000000018002f77c     name.obj
 0004:00001788       $pdata$_wrap_get_name_color$catch$4 000000018002f788     name.obj
 0004:00001794       $pdata$_wrap_get_name_color$catch$3 000000018002f794     name.obj
 0004:000017a0       $pdata$_wrap_get_name_color$catch$2 000000018002f7a0     name.obj
 0004:000017ac       $pdata$_wrap_get_name_color$catch$1 000000018002f7ac     name.obj
 0004:000017b8       $pdata$_wrap_get_name_color$catch$0 000000018002f7b8     name.obj
 0004:000017c4       $pdata$_wrap_get_name_expr 000000018002f7c4     name.obj
 0004:000017d0       $pdata$_wrap_get_name_expr$catch$8 000000018002f7d0     name.obj
 0004:000017dc       $pdata$_wrap_get_name_expr$catch$7 000000018002f7dc     name.obj
 0004:000017e8       $pdata$_wrap_get_name_expr$catch$6 000000018002f7e8     name.obj
 0004:000017f4       $pdata$_wrap_get_name_expr$catch$5 000000018002f7f4     name.obj
 0004:00001800       $pdata$_wrap_get_name_expr$catch$4 000000018002f800     name.obj
 0004:0000180c       $pdata$_wrap_get_name_expr$catch$3 000000018002f80c     name.obj
 0004:00001818       $pdata$_wrap_get_nice_colored_name 000000018002f818     name.obj
 0004:00001824       $pdata$_wrap_get_nice_colored_name$catch$8 000000018002f824     name.obj
 0004:00001830       $pdata$_wrap_get_nice_colored_name$catch$7 000000018002f830     name.obj
 0004:0000183c       $pdata$_wrap_get_nice_colored_name$catch$6 000000018002f83c     name.obj
 0004:00001848       $pdata$_wrap_get_nice_colored_name$catch$5 000000018002f848     name.obj
 0004:00001854       $pdata$_wrap_get_nice_colored_name$catch$4 000000018002f854     name.obj
 0004:00001860       $pdata$_wrap_get_nice_colored_name$catch$3 000000018002f860     name.obj
 0004:0000186c       $pdata$_wrap_append_struct_fields 000000018002f86c     name.obj
 0004:00001878       $pdata$_wrap_append_struct_fields$catch$15 000000018002f878     name.obj
 0004:00001884       $pdata$_wrap_append_struct_fields$catch$14 000000018002f884     name.obj
 0004:00001890       $pdata$_wrap_append_struct_fields$catch$13 000000018002f890     name.obj
 0004:0000189c       $pdata$_wrap_append_struct_fields$catch$12 000000018002f89c     name.obj
 0004:000018a8       $pdata$_wrap_append_struct_fields$catch$11 000000018002f8a8     name.obj
 0004:000018b4       $pdata$_wrap_append_struct_fields$catch$10 000000018002f8b4     name.obj
 0004:000018c0       $pdata$_wrap_is_public_name 000000018002f8c0     name.obj
 0004:000018cc       $pdata$_wrap_is_public_name$catch$5 000000018002f8cc     name.obj
 0004:000018d8       $pdata$_wrap_is_public_name$catch$4 000000018002f8d8     name.obj
 0004:000018e4       $pdata$_wrap_is_public_name$catch$3 000000018002f8e4     name.obj
 0004:000018f0       $pdata$_wrap_is_public_name$catch$2 000000018002f8f0     name.obj
 0004:000018fc       $pdata$_wrap_is_public_name$catch$1 000000018002f8fc     name.obj
 0004:00001908       $pdata$_wrap_is_public_name$catch$0 000000018002f908     name.obj
 0004:00001914       $pdata$_wrap_make_name_public 000000018002f914     name.obj
 0004:00001920       $pdata$_wrap_make_name_public$catch$5 000000018002f920     name.obj
 0004:0000192c       $pdata$_wrap_make_name_public$catch$4 000000018002f92c     name.obj
 0004:00001938       $pdata$_wrap_make_name_public$catch$3 000000018002f938     name.obj
 0004:00001944       $pdata$_wrap_make_name_public$catch$2 000000018002f944     name.obj
 0004:00001950       $pdata$_wrap_make_name_public$catch$1 000000018002f950     name.obj
 0004:0000195c       $pdata$_wrap_make_name_public$catch$0 000000018002f95c     name.obj
 0004:00001968       $pdata$_wrap_make_name_non_public 000000018002f968     name.obj
 0004:00001974       $pdata$_wrap_make_name_non_public$catch$5 000000018002f974     name.obj
 0004:00001980       $pdata$_wrap_make_name_non_public$catch$4 000000018002f980     name.obj
 0004:0000198c       $pdata$_wrap_make_name_non_public$catch$3 000000018002f98c     name.obj
 0004:00001998       $pdata$_wrap_make_name_non_public$catch$2 000000018002f998     name.obj
 0004:000019a4       $pdata$_wrap_make_name_non_public$catch$1 000000018002f9a4     name.obj
 0004:000019b0       $pdata$_wrap_make_name_non_public$catch$0 000000018002f9b0     name.obj
 0004:000019bc       $pdata$_wrap_is_weak_name  000000018002f9bc     name.obj
 0004:000019c8       $pdata$_wrap_is_weak_name$catch$5 000000018002f9c8     name.obj
 0004:000019d4       $pdata$_wrap_is_weak_name$catch$4 000000018002f9d4     name.obj
 0004:000019e0       $pdata$_wrap_is_weak_name$catch$3 000000018002f9e0     name.obj
 0004:000019ec       $pdata$_wrap_is_weak_name$catch$2 000000018002f9ec     name.obj
 0004:000019f8       $pdata$_wrap_is_weak_name$catch$1 000000018002f9f8     name.obj
 0004:00001a04       $pdata$_wrap_is_weak_name$catch$0 000000018002fa04     name.obj
 0004:00001a10       $pdata$_wrap_make_name_weak 000000018002fa10     name.obj
 0004:00001a1c       $pdata$_wrap_make_name_weak$catch$5 000000018002fa1c     name.obj
 0004:00001a28       $pdata$_wrap_make_name_weak$catch$4 000000018002fa28     name.obj
 0004:00001a34       $pdata$_wrap_make_name_weak$catch$3 000000018002fa34     name.obj
 0004:00001a40       $pdata$_wrap_make_name_weak$catch$2 000000018002fa40     name.obj
 0004:00001a4c       $pdata$_wrap_make_name_weak$catch$1 000000018002fa4c     name.obj
 0004:00001a58       $pdata$_wrap_make_name_weak$catch$0 000000018002fa58     name.obj
 0004:00001a64       $pdata$_wrap_make_name_non_weak 000000018002fa64     name.obj
 0004:00001a70       $pdata$_wrap_make_name_non_weak$catch$5 000000018002fa70     name.obj
 0004:00001a7c       $pdata$_wrap_make_name_non_weak$catch$4 000000018002fa7c     name.obj
 0004:00001a88       $pdata$_wrap_make_name_non_weak$catch$3 000000018002fa88     name.obj
 0004:00001a94       $pdata$_wrap_make_name_non_weak$catch$2 000000018002fa94     name.obj
 0004:00001aa0       $pdata$_wrap_make_name_non_weak$catch$1 000000018002faa0     name.obj
 0004:00001aac       $pdata$_wrap_make_name_non_weak$catch$0 000000018002faac     name.obj
 0004:00001ab8       $pdata$_wrap_get_nlist_size 000000018002fab8     name.obj
 0004:00001ac4       $pdata$_wrap_get_nlist_size$catch$5 000000018002fac4     name.obj
 0004:00001ad0       $pdata$_wrap_get_nlist_size$catch$4 000000018002fad0     name.obj
 0004:00001adc       $pdata$_wrap_get_nlist_size$catch$3 000000018002fadc     name.obj
 0004:00001ae8       $pdata$_wrap_get_nlist_size$catch$2 000000018002fae8     name.obj
 0004:00001af4       $pdata$_wrap_get_nlist_size$catch$1 000000018002faf4     name.obj
 0004:00001b00       $pdata$_wrap_get_nlist_size$catch$0 000000018002fb00     name.obj
 0004:00001b0c       $pdata$_wrap_get_nlist_idx 000000018002fb0c     name.obj
 0004:00001b18       $pdata$_wrap_get_nlist_idx$catch$5 000000018002fb18     name.obj
 0004:00001b24       $pdata$_wrap_get_nlist_idx$catch$4 000000018002fb24     name.obj
 0004:00001b30       $pdata$_wrap_get_nlist_idx$catch$3 000000018002fb30     name.obj
 0004:00001b3c       $pdata$_wrap_get_nlist_idx$catch$2 000000018002fb3c     name.obj
 0004:00001b48       $pdata$_wrap_get_nlist_idx$catch$1 000000018002fb48     name.obj
 0004:00001b54       $pdata$_wrap_get_nlist_idx$catch$0 000000018002fb54     name.obj
 0004:00001b60       $pdata$_wrap_is_in_nlist   000000018002fb60     name.obj
 0004:00001b6c       $pdata$_wrap_is_in_nlist$catch$5 000000018002fb6c     name.obj
 0004:00001b78       $pdata$_wrap_is_in_nlist$catch$4 000000018002fb78     name.obj
 0004:00001b84       $pdata$_wrap_is_in_nlist$catch$3 000000018002fb84     name.obj
 0004:00001b90       $pdata$_wrap_is_in_nlist$catch$2 000000018002fb90     name.obj
 0004:00001b9c       $pdata$_wrap_is_in_nlist$catch$1 000000018002fb9c     name.obj
 0004:00001ba8       $pdata$_wrap_is_in_nlist$catch$0 000000018002fba8     name.obj
 0004:00001bb4       $pdata$_wrap_get_nlist_ea  000000018002fbb4     name.obj
 0004:00001bc0       $pdata$_wrap_get_nlist_ea$catch$5 000000018002fbc0     name.obj
 0004:00001bcc       $pdata$_wrap_get_nlist_ea$catch$4 000000018002fbcc     name.obj
 0004:00001bd8       $pdata$_wrap_get_nlist_ea$catch$3 000000018002fbd8     name.obj
 0004:00001be4       $pdata$_wrap_get_nlist_ea$catch$2 000000018002fbe4     name.obj
 0004:00001bf0       $pdata$_wrap_get_nlist_ea$catch$1 000000018002fbf0     name.obj
 0004:00001bfc       $pdata$_wrap_get_nlist_ea$catch$0 000000018002fbfc     name.obj
 0004:00001c08       $pdata$_wrap_get_nlist_name 000000018002fc08     name.obj
 0004:00001c14       $pdata$_wrap_get_nlist_name$catch$5 000000018002fc14     name.obj
 0004:00001c20       $pdata$_wrap_get_nlist_name$catch$4 000000018002fc20     name.obj
 0004:00001c2c       $pdata$_wrap_get_nlist_name$catch$3 000000018002fc2c     name.obj
 0004:00001c38       $pdata$_wrap_get_nlist_name$catch$2 000000018002fc38     name.obj
 0004:00001c44       $pdata$_wrap_get_nlist_name$catch$1 000000018002fc44     name.obj
 0004:00001c50       $pdata$_wrap_get_nlist_name$catch$0 000000018002fc50     name.obj
 0004:00001c5c       $pdata$_wrap_rebuild_nlist 000000018002fc5c     name.obj
 0004:00001c68       $pdata$_wrap_rebuild_nlist$catch$5 000000018002fc68     name.obj
 0004:00001c74       $pdata$_wrap_rebuild_nlist$catch$4 000000018002fc74     name.obj
 0004:00001c80       $pdata$_wrap_rebuild_nlist$catch$3 000000018002fc80     name.obj
 0004:00001c8c       $pdata$_wrap_rebuild_nlist$catch$2 000000018002fc8c     name.obj
 0004:00001c98       $pdata$_wrap_rebuild_nlist$catch$1 000000018002fc98     name.obj
 0004:00001ca4       $pdata$_wrap_rebuild_nlist$catch$0 000000018002fca4     name.obj
 0004:00001cb0       $pdata$_wrap_reorder_dummy_names 000000018002fcb0     name.obj
 0004:00001cbc       $pdata$_wrap_reorder_dummy_names$catch$5 000000018002fcbc     name.obj
 0004:00001cc8       $pdata$_wrap_reorder_dummy_names$catch$4 000000018002fcc8     name.obj
 0004:00001cd4       $pdata$_wrap_reorder_dummy_names$catch$3 000000018002fcd4     name.obj
 0004:00001ce0       $pdata$_wrap_reorder_dummy_names$catch$2 000000018002fce0     name.obj
 0004:00001cec       $pdata$_wrap_reorder_dummy_names$catch$1 000000018002fcec     name.obj
 0004:00001cf8       $pdata$_wrap_reorder_dummy_names$catch$0 000000018002fcf8     name.obj
 0004:00001d04       $pdata$_wrap_ea_name_t_ea_set 000000018002fd04     name.obj
 0004:00001d10       $pdata$0$_wrap_ea_name_t_ea_set 000000018002fd10     name.obj
 0004:00001d1c       $pdata$1$_wrap_ea_name_t_ea_set 000000018002fd1c     name.obj
 0004:00001d28       $pdata$_wrap_ea_name_t_ea_get 000000018002fd28     name.obj
 0004:00001d34       $pdata$0$_wrap_ea_name_t_ea_get 000000018002fd34     name.obj
 0004:00001d40       $pdata$1$_wrap_ea_name_t_ea_get 000000018002fd40     name.obj
 0004:00001d4c       $pdata$_wrap_ea_name_t_name_set 000000018002fd4c     name.obj
 0004:00001d58       $pdata$0$_wrap_ea_name_t_name_set 000000018002fd58     name.obj
 0004:00001d64       $pdata$1$_wrap_ea_name_t_name_set 000000018002fd64     name.obj
 0004:00001d70       $pdata$_wrap_ea_name_t_name_get 000000018002fd70     name.obj
 0004:00001d7c       $pdata$0$_wrap_ea_name_t_name_get 000000018002fd7c     name.obj
 0004:00001d88       $pdata$1$_wrap_ea_name_t_name_get 000000018002fd88     name.obj
 0004:00001d94       $pdata$_wrap_new_ea_name_t__SWIG_0 000000018002fd94     name.obj
 0004:00001da0       $pdata$_wrap_new_ea_name_t__SWIG_0$catch$1 000000018002fda0     name.obj
 0004:00001dac       $pdata$_wrap_new_ea_name_t__SWIG_0$catch$2 000000018002fdac     name.obj
 0004:00001db8       $pdata$_wrap_new_ea_name_t__SWIG_0$catch$3 000000018002fdb8     name.obj
 0004:00001dc4       $pdata$_wrap_new_ea_name_t__SWIG_0$catch$4 000000018002fdc4     name.obj
 0004:00001dd0       $pdata$_wrap_new_ea_name_t__SWIG_0$catch$5 000000018002fdd0     name.obj
 0004:00001ddc       $pdata$_wrap_new_ea_name_t__SWIG_0$catch$6 000000018002fddc     name.obj
 0004:00001de8       $pdata$_wrap_new_ea_name_t__SWIG_1 000000018002fde8     name.obj
 0004:00001df4       $pdata$_wrap_new_ea_name_t__SWIG_1$catch$4 000000018002fdf4     name.obj
 0004:00001e00       $pdata$_wrap_new_ea_name_t__SWIG_1$catch$5 000000018002fe00     name.obj
 0004:00001e0c       $pdata$_wrap_new_ea_name_t__SWIG_1$catch$6 000000018002fe0c     name.obj
 0004:00001e18       $pdata$_wrap_new_ea_name_t__SWIG_1$catch$7 000000018002fe18     name.obj
 0004:00001e24       $pdata$_wrap_new_ea_name_t__SWIG_1$catch$8 000000018002fe24     name.obj
 0004:00001e30       $pdata$_wrap_new_ea_name_t__SWIG_1$catch$9 000000018002fe30     name.obj
 0004:00001e3c       $pdata$_wrap_new_ea_name_t 000000018002fe3c     name.obj
 0004:00001e48       $pdata$_wrap_delete_ea_name_t 000000018002fe48     name.obj
 0004:00001e54       $pdata$_wrap_delete_ea_name_t$catch$7 000000018002fe54     name.obj
 0004:00001e60       $pdata$_wrap_delete_ea_name_t$catch$6 000000018002fe60     name.obj
 0004:00001e6c       $pdata$_wrap_delete_ea_name_t$catch$5 000000018002fe6c     name.obj
 0004:00001e78       $pdata$_wrap_delete_ea_name_t$catch$4 000000018002fe78     name.obj
 0004:00001e84       $pdata$_wrap_delete_ea_name_t$catch$3 000000018002fe84     name.obj
 0004:00001e90       $pdata$_wrap_delete_ea_name_t$catch$2 000000018002fe90     name.obj
 0004:00001e9c       $pdata$ea_name_t_swigregister 000000018002fe9c     name.obj
 0004:00001ea8       $pdata$_wrap_set_debug_name 000000018002fea8     name.obj
 0004:00001eb4       $pdata$_wrap_set_debug_name$catch$5 000000018002feb4     name.obj
 0004:00001ec0       $pdata$_wrap_set_debug_name$catch$4 000000018002fec0     name.obj
 0004:00001ecc       $pdata$_wrap_set_debug_name$catch$3 000000018002fecc     name.obj
 0004:00001ed8       $pdata$_wrap_set_debug_name$catch$2 000000018002fed8     name.obj
 0004:00001ee4       $pdata$_wrap_set_debug_name$catch$1 000000018002fee4     name.obj
 0004:00001ef0       $pdata$_wrap_set_debug_name$catch$0 000000018002fef0     name.obj
 0004:00001efc       $pdata$_wrap_get_debug_name 000000018002fefc     name.obj
 0004:00001f08       $pdata$_wrap_get_debug_name$catch$8 000000018002ff08     name.obj
 0004:00001f14       $pdata$_wrap_get_debug_name$catch$7 000000018002ff14     name.obj
 0004:00001f20       $pdata$_wrap_get_debug_name$catch$6 000000018002ff20     name.obj
 0004:00001f2c       $pdata$_wrap_get_debug_name$catch$5 000000018002ff2c     name.obj
 0004:00001f38       $pdata$_wrap_get_debug_name$catch$4 000000018002ff38     name.obj
 0004:00001f44       $pdata$_wrap_get_debug_name$catch$3 000000018002ff44     name.obj
 0004:00001f50       $pdata$_wrap_del_debug_names 000000018002ff50     name.obj
 0004:00001f5c       $pdata$_wrap_del_debug_names$catch$5 000000018002ff5c     name.obj
 0004:00001f68       $pdata$_wrap_del_debug_names$catch$4 000000018002ff68     name.obj
 0004:00001f74       $pdata$_wrap_del_debug_names$catch$3 000000018002ff74     name.obj
 0004:00001f80       $pdata$_wrap_del_debug_names$catch$2 000000018002ff80     name.obj
 0004:00001f8c       $pdata$_wrap_del_debug_names$catch$1 000000018002ff8c     name.obj
 0004:00001f98       $pdata$_wrap_del_debug_names$catch$0 000000018002ff98     name.obj
 0004:00001fa4       $pdata$_wrap_get_debug_name_ea 000000018002ffa4     name.obj
 0004:00001fb0       $pdata$_wrap_get_debug_name_ea$catch$5 000000018002ffb0     name.obj
 0004:00001fbc       $pdata$_wrap_get_debug_name_ea$catch$4 000000018002ffbc     name.obj
 0004:00001fc8       $pdata$_wrap_get_debug_name_ea$catch$3 000000018002ffc8     name.obj
 0004:00001fd4       $pdata$_wrap_get_debug_name_ea$catch$2 000000018002ffd4     name.obj
 0004:00001fe0       $pdata$_wrap_get_debug_name_ea$catch$1 000000018002ffe0     name.obj
 0004:00001fec       $pdata$_wrap_get_debug_name_ea$catch$0 000000018002ffec     name.obj
 0004:00001ff8       $pdata$_wrap_get_debug_names__SWIG_0 000000018002fff8     name.obj
 0004:00002004       $pdata$_wrap_get_debug_names__SWIG_0$catch$5 0000000180030004     name.obj
 0004:00002010       $pdata$_wrap_get_debug_names__SWIG_0$catch$4 0000000180030010     name.obj
 0004:0000201c       $pdata$_wrap_get_debug_names__SWIG_0$catch$3 000000018003001c     name.obj
 0004:00002028       $pdata$_wrap_get_debug_names__SWIG_0$catch$2 0000000180030028     name.obj
 0004:00002034       $pdata$_wrap_get_debug_names__SWIG_0$catch$1 0000000180030034     name.obj
 0004:00002040       $pdata$_wrap_get_debug_names__SWIG_0$catch$0 0000000180030040     name.obj
 0004:0000204c       $pdata$_wrap_demangle_name 000000018003004c     name.obj
 0004:00002058       $pdata$_wrap_demangle_name$catch$8 0000000180030058     name.obj
 0004:00002064       $pdata$_wrap_demangle_name$catch$7 0000000180030064     name.obj
 0004:00002070       $pdata$_wrap_demangle_name$catch$6 0000000180030070     name.obj
 0004:0000207c       $pdata$_wrap_demangle_name$catch$5 000000018003007c     name.obj
 0004:00002088       $pdata$_wrap_demangle_name$catch$4 0000000180030088     name.obj
 0004:00002094       $pdata$_wrap_demangle_name$catch$3 0000000180030094     name.obj
 0004:000020a0       $pdata$Swig_var_ignore_none_set 00000001800300a0     name.obj
 0004:000020ac       $pdata$Swig_var_ignore_regvar_set 00000001800300ac     name.obj
 0004:000020b8       $pdata$Swig_var_ignore_llabel_set 00000001800300b8     name.obj
 0004:000020c4       $pdata$Swig_var_ignore_stkvar_set 00000001800300c4     name.obj
 0004:000020d0       $pdata$Swig_var_ignore_glabel_set 00000001800300d0     name.obj
 0004:000020dc       $pdata$_wrap_is_name_defined_locally 00000001800300dc     name.obj
 0004:000020e8       $pdata$_wrap_is_name_defined_locally$catch$5 00000001800300e8     name.obj
 0004:000020f4       $pdata$_wrap_is_name_defined_locally$catch$4 00000001800300f4     name.obj
 0004:00002100       $pdata$_wrap_is_name_defined_locally$catch$3 0000000180030100     name.obj
 0004:0000210c       $pdata$_wrap_is_name_defined_locally$catch$2 000000018003010c     name.obj
 0004:00002118       $pdata$_wrap_is_name_defined_locally$catch$1 0000000180030118     name.obj
 0004:00002124       $pdata$_wrap_is_name_defined_locally$catch$0 0000000180030124     name.obj
 0004:00002130       $pdata$_wrap_cleanup_name  0000000180030130     name.obj
 0004:0000213c       $pdata$_wrap_cleanup_name$catch$8 000000018003013c     name.obj
 0004:00002148       $pdata$_wrap_cleanup_name$catch$7 0000000180030148     name.obj
 0004:00002154       $pdata$_wrap_cleanup_name$catch$6 0000000180030154     name.obj
 0004:00002160       $pdata$_wrap_cleanup_name$catch$5 0000000180030160     name.obj
 0004:0000216c       $pdata$_wrap_cleanup_name$catch$4 000000018003016c     name.obj
 0004:00002178       $pdata$_wrap_cleanup_name$catch$3 0000000180030178     name.obj
 0004:00002184       $pdata$_wrap_get_debug_names__SWIG_1 0000000180030184     name.obj
 0004:00002190       $pdata$_wrap_get_debug_names__SWIG_1$catch$8 0000000180030190     name.obj
 0004:0000219c       $pdata$_wrap_get_debug_names__SWIG_1$catch$7 000000018003019c     name.obj
 0004:000021a8       $pdata$_wrap_get_debug_names__SWIG_1$catch$6 00000001800301a8     name.obj
 0004:000021b4       $pdata$_wrap_get_debug_names__SWIG_1$catch$5 00000001800301b4     name.obj
 0004:000021c0       $pdata$_wrap_get_debug_names__SWIG_1$catch$4 00000001800301c0     name.obj
 0004:000021cc       $pdata$_wrap_get_debug_names__SWIG_1$catch$3 00000001800301cc     name.obj
 0004:000021d8       $pdata$_wrap_get_debug_names 00000001800301d8     name.obj
 0004:000021e4       $pdata$2$_wrap_get_debug_names 00000001800301e4     name.obj
 0004:000021f0       $pdata$3$_wrap_get_debug_names 00000001800301f0     name.obj
 0004:000021fc       $pdata$4$_wrap_get_debug_names 00000001800301fc     name.obj
 0004:00002208       $pdata$_wrap_get_ea_name   0000000180030208     name.obj
 0004:00002214       $pdata$_wrap_get_ea_name$catch$11 0000000180030214     name.obj
 0004:00002220       $pdata$_wrap_get_ea_name$catch$12 0000000180030220     name.obj
 0004:0000222c       $pdata$_wrap_get_ea_name$catch$13 000000018003022c     name.obj
 0004:00002238       $pdata$_wrap_get_ea_name$catch$14 0000000180030238     name.obj
 0004:00002244       $pdata$_wrap_get_ea_name$catch$15 0000000180030244     name.obj
 0004:00002250       $pdata$_wrap_get_ea_name$catch$16 0000000180030250     name.obj
 0004:0000225c       $pdata$_wrap_validate_name 000000018003025c     name.obj
 0004:00002268       $pdata$_wrap_validate_name$catch$8 0000000180030268     name.obj
 0004:00002274       $pdata$_wrap_validate_name$catch$7 0000000180030274     name.obj
 0004:00002280       $pdata$_wrap_validate_name$catch$6 0000000180030280     name.obj
 0004:0000228c       $pdata$_wrap_validate_name$catch$5 000000018003028c     name.obj
 0004:00002298       $pdata$_wrap_validate_name$catch$4 0000000180030298     name.obj
 0004:000022a4       $pdata$_wrap_validate_name$catch$3 00000001800302a4     name.obj
 0004:000022b0       $pdata$SWIG_InitializeModule 00000001800302b0     name.obj
 0004:000022bc       $pdata$1$SWIG_InitializeModule 00000001800302bc     name.obj
 0004:000022c8       $pdata$4$SWIG_InitializeModule 00000001800302c8     name.obj
 0004:000022d4       $pdata$5$SWIG_InitializeModule 00000001800302d4     name.obj
 0004:000022e0       $pdata$6$SWIG_InitializeModule 00000001800302e0     name.obj
 0004:000022ec       $pdata$swig_varlink_str    00000001800302ec     name.obj
 0004:000022f8       $pdata$1$swig_varlink_str  00000001800302f8     name.obj
 0004:00002304       $pdata$2$swig_varlink_str  0000000180030304     name.obj
 0004:00002310       $pdata$swig_varlink_dealloc 0000000180030310     name.obj
 0004:0000231c       $pdata$0$swig_varlink_dealloc 000000018003031c     name.obj
 0004:00002328       $pdata$1$swig_varlink_dealloc 0000000180030328     name.obj
 0004:00002334       $pdata$swig_varlink_getattr 0000000180030334     name.obj
 0004:00002340       $pdata$swig_varlink_setattr 0000000180030340     name.obj
 0004:0000234c       $pdata$SWIG_Python_FixMethods 000000018003034c     name.obj
 0004:00002358       $pdata$4$SWIG_Python_FixMethods 0000000180030358     name.obj
 0004:00002364       $pdata$5$SWIG_Python_FixMethods 0000000180030364     name.obj
 0004:00002370       $pdata$PyInit__ida_name    0000000180030370     name.obj
 0004:0000237c       $pdata$2$PyInit__ida_name  000000018003037c     name.obj
 0004:00002388       $pdata$3$PyInit__ida_name  0000000180030388     name.obj
 0004:00002394       $pdata$4$PyInit__ida_name  0000000180030394     name.obj
 0004:000023a0       $pdata$5$PyInit__ida_name  00000001800303a0     name.obj
 0004:000023ac       $pdata$??2@YAPEAX_K@Z      00000001800303ac     MSVCRT:new_scalar.obj
 0004:000023b8       $pdata$_Init_thread_header 00000001800303b8     MSVCRT:thread_safe_statics.obj
 0004:000023c4       $pdata$_Init_thread_footer 00000001800303c4     MSVCRT:thread_safe_statics.obj
 0004:000023d0       $pdata$_Init_thread_wait   00000001800303d0     MSVCRT:thread_safe_statics.obj
 0004:000023dc       $pdata$_Init_thread_notify 00000001800303dc     MSVCRT:thread_safe_statics.obj
 0004:000023e8       $pdata$?__scrt_uninitialize_thread_safe_statics@@YAXXZ 00000001800303e8     MSVCRT:thread_safe_statics.obj
 0004:000023f4       $pdata$?__scrt_initialize_thread_safe_statics@@YAHXZ 00000001800303f4     MSVCRT:thread_safe_statics.obj
 0004:00002400       $pdata$__GSHandlerCheckCommon 0000000180030400     MSVCRT:gshandler.obj
 0004:0000240c       $pdata$__GSHandlerCheck    000000018003040c     MSVCRT:gshandler.obj
 0004:00002418       $pdata$__GSHandlerCheck_EH 0000000180030418     MSVCRT:gshandlereh.obj
 0004:00002430       $pdata$??_Gtype_info@@UEAAPEAXI@Z 0000000180030430     MSVCRT:std_type_info_static.obj
 0004:0000243c       $pdata$?dllmain_crt_process_attach@@YAHQEAUHINSTANCE__@@QEAX@Z 000000018003043c     MSVCRT:dll_dllmain.obj
 0004:00002448       $pdata$?fin$0@?0??dllmain_crt_process_attach@@YAHQEAUHINSTANCE__@@QEAX@Z@4HA 0000000180030448     MSVCRT:dll_dllmain.obj
 0004:00002454       $pdata$?dllmain_crt_process_detach@@YAH_N@Z 0000000180030454     MSVCRT:dll_dllmain.obj
 0004:00002460       $pdata$?fin$0@?0??dllmain_crt_process_detach@@YAH_N@Z@4HA 0000000180030460     MSVCRT:dll_dllmain.obj
 0004:0000246c       $pdata$?dllmain_crt_dispatch@@YAHQEAUHINSTANCE__@@KQEAX@Z 000000018003046c     MSVCRT:dll_dllmain.obj
 0004:00002478       $pdata$?dllmain_dispatch@@YAHQEAUHINSTANCE__@@KQEAX@Z 0000000180030478     MSVCRT:dll_dllmain.obj
 0004:00002484       $pdata$?filt$0@?0??dllmain_dispatch@@YAHQEAUHINSTANCE__@@KQEAX@Z@4HA 0000000180030484     MSVCRT:dll_dllmain.obj
 0004:00002490       $pdata$_DllMainCRTStartup  0000000180030490     MSVCRT:dll_dllmain.obj
 0004:0000249c       $pdata$??0bad_alloc@std@@QEAA@AEBV01@@Z 000000018003049c     MSVCRT:throw_bad_alloc.obj
 0004:000024a8       $pdata$??0bad_array_new_length@std@@QEAA@AEBV01@@Z 00000001800304a8     MSVCRT:throw_bad_alloc.obj
 0004:000024b4       $pdata$?__scrt_throw_std_bad_alloc@@YAXXZ 00000001800304b4     MSVCRT:throw_bad_alloc.obj
 0004:000024c0       $pdata$?__scrt_throw_std_bad_array_new_length@@YAXXZ 00000001800304c0     MSVCRT:throw_bad_alloc.obj
 0004:000024cc       $pdata$atexit              00000001800304cc     MSVCRT:utility.obj
 0004:000024d8       $pdata$_onexit             00000001800304d8     MSVCRT:utility.obj
 0004:000024e4       $pdata$__scrt_is_nonwritable_in_current_image 00000001800304e4     MSVCRT:utility.obj
 0004:000024f0       $pdata$__scrt_is_nonwritable_in_current_image$filt$0 00000001800304f0     MSVCRT:utility.obj
 0004:000024fc       $pdata$__scrt_acquire_startup_lock 00000001800304fc     MSVCRT:utility.obj
 0004:00002508       $pdata$__scrt_release_startup_lock 0000000180030508     MSVCRT:utility.obj
 0004:00002514       $pdata$__scrt_initialize_crt 0000000180030514     MSVCRT:utility.obj
 0004:00002520       $pdata$__scrt_uninitialize_crt 0000000180030520     MSVCRT:utility.obj
 0004:0000252c       $pdata$__scrt_initialize_onexit_tables 000000018003052c     MSVCRT:utility.obj
 0004:00002538       $pdata$__scrt_dllmain_exception_filter 0000000180030538     MSVCRT:utility.obj
 0004:00002544       $pdata$__scrt_dllmain_before_initialize_c 0000000180030544     MSVCRT:utility.obj
 0004:00002550       $pdata$__scrt_dllmain_after_initialize_c 0000000180030550     MSVCRT:utility.obj
 0004:0000255c       $pdata$__scrt_dllmain_uninitialize_c 000000018003055c     MSVCRT:utility.obj
 0004:00002568       $pdata$__scrt_dllmain_uninitialize_critical 0000000180030568     MSVCRT:utility.obj
 0004:00002574       $pdata$__scrt_dllmain_crt_thread_attach 0000000180030574     MSVCRT:utility.obj
 0004:00002580       $pdata$__scrt_dllmain_crt_thread_detach 0000000180030580     MSVCRT:utility.obj
 0004:0000258c       $pdata$__scrt_fastfail     000000018003058c     MSVCRT:utility_desktop.obj
 0004:00002598       $pdata$__report_gsfailure  0000000180030598     MSVCRT:gs_report.obj
 0004:000025a4       $pdata$capture_previous_context 00000001800305a4     MSVCRT:gs_report.obj
 0004:000025b0       $pdata$__raise_securityfailure 00000001800305b0     MSVCRT:gs_report.obj
 0004:000025bc       $pdata$__security_init_cookie 00000001800305bc     MSVCRT:gs_support.obj
 0004:000025c8       $pdata$DllMain             00000001800305c8     MSVCRT:dll_dllmain_stub.obj
 0004:000025d4       $pdata$__scrt_initialize_default_local_stdio_options 00000001800305d4     MSVCRT:default_local_stdio_options.obj
 0004:000025e0       $pdata$_RTC_Initialize     00000001800305e0     MSVCRT:initsect.obj
 0004:000025ec       $pdata$_RTC_Terminate      00000001800305ec     MSVCRT:initsect.obj
 0004:000025f8       $pdata$__isa_available_init 00000001800305f8     MSVCRT:cpu_disp.obj
