 _ida_idp

 Timestamp is 5e3da097 (Fri Feb  7 17:38:31 2020)

 Preferred load address is 0000000180000000

 Start         Length     Name                   Class
 0001:00000000 000596c0H .text$mn                CODE
 0001:000596c0 00000020H .text$mn$00             CODE
 0001:000596e0 000155f0H .text$x                 CODE
 0001:0006ecd0 000000d8H .text$yd                CODE
 0002:00000000 00000610H .idata$5                DATA
 0002:00000610 00000010H .00cfg                  DATA
 0002:00000620 00000008H .CRT$XCA                DATA
 0002:00000628 00000008H .CRT$XCZ                DATA
 0002:00000630 00000008H .CRT$XIA                DATA
 0002:00000638 00000008H .CRT$XIC                DATA
 0002:00000640 00000008H .CRT$XIZ                DATA
 0002:00000648 00000008H .CRT$XLA                DATA
 0002:00000650 00000008H .CRT$XLZ                DATA
 0002:00000658 00000008H .CRT$XPA                DATA
 0002:00000660 00000008H .CRT$XPZ                DATA
 0002:00000668 00000008H .CRT$XTA                DATA
 0002:00000670 00000010H .CRT$XTZ                DATA
 0002:00000678 00000000H .gfids$y                DATA
 0002:00000680 000276d0H .rdata                  DATA
 0002:00027d50 00000028H .rdata$T                DATA
 0002:00027d78 00000674H .rdata$r                DATA
 0002:000283ec 00000324H .rdata$zzzdbg           DATA
 0002:00028710 00000008H .rtc$IAA                DATA
 0002:00028718 00000008H .rtc$IZZ                DATA
 0002:00028720 00000008H .rtc$TAA                DATA
 0002:00028728 00000008H .rtc$TZZ                DATA
 0002:00028730 00000004H .tls                    DATA
 0002:00028734 00000004H .tls$                   DATA
 0002:00028738 00000008H .tls$ZZZ                DATA
 0002:00028740 000163a8H .xdata                  DATA
 0002:0003eae8 00000228H .xdata$x                DATA
 0002:0003ed10 00000050H .edata                  DATA
 0002:0003ed60 000000c8H .idata$2                DATA
 0002:0003ee28 00000018H .idata$3                DATA
 0002:0003ee40 00000610H .idata$4                DATA
 0002:0003f450 00000f3aH .idata$6                DATA
 0003:00000000 00006bc8H .data                   DATA
 0003:00006bc8 00000268H .data$r                 DATA
 0003:00006e30 00000a90H .bss                    DATA
 0004:00000000 00008448H .pdata                  DATA

  Address         Publics by Value              Rva+Base               Lib:Object

 0000:00000000       __guard_iat_count          0000000000000000     <absolute>
 0000:00000000       __hybrid_code_map          0000000000000000     <absolute>
 0000:00000000       __guard_longjmp_table      0000000000000000     <absolute>
 0000:00000000       ___safe_se_handler_count   0000000000000000     <absolute>
 0000:00000000       __guard_longjmp_count      0000000000000000     <absolute>
 0000:00000000       __guard_iat_table          0000000000000000     <absolute>
 0000:00000000       __volatile_metadata        0000000000000000     <absolute>
 0000:00000000       ___safe_se_handler_table   0000000000000000     <absolute>
 0000:00000000       __enclave_config           0000000000000000     <absolute>
 0000:00000000       __guard_fids_table         0000000000000000     <absolute>
 0000:00000000       __hybrid_code_map_count    0000000000000000     <absolute>
 0000:00000000       __guard_fids_count         0000000000000000     <absolute>
 0000:00000000       __hybrid_auxiliary_iat     0000000000000000     <absolute>
 0000:00000000       __dynamic_value_reloc_table 0000000000000000     <absolute>
 0000:00000100       __guard_flags              0000000000000100     <absolute>
 0000:00000000       __ImageBase                0000000180000000     <linker-defined>
 0001:00038840       ??$_Buynode@AEBUpiecewise_construct_t@std@@V?$tuple@$$QEAV?$basic_string@DU?$char_traits@D@std@@V?$allocator@D@2@@std@@@2@V?$tuple@$$V@2@@?$_Tree_comp_alloc@V?$_Tmap_traits@V?$basic_string@DU?$char_traits@D@std@@V?$allocator@D@2@@std@@_NU?$less@V?$basic_string@DU?$char_traits@D@std@@V?$allocator@D@2@@std@@@2@V?$allocator@U?$pair@$$CBV?$basic_string@DU?$char_traits@D@std@@V?$allocator@D@2@@std@@_N@std@@@2@$0A@@std@@@std@@QEAAPEAU?$_Tree_node@U?$pair@$$CBV?$basic_string@DU?$char_traits@D@std@@V?$allocator@D@2@@std@@_N@std@@PEAX@1@AEBUpiecewise_construct_t@1@$$QEAV?$tuple@$$QEAV?$basic_string@DU?$char_traits@D@std@@V?$allocator@D@2@@std@@@1@$$QEAV?$tuple@$$V@1@@Z 0000000180039840 f i idp.obj
 0001:000388a0       ??$_Buynode@AEBUpiecewise_construct_t@std@@V?$tuple@AEBQEAX@2@V?$tuple@$$V@2@@?$_Tree_comp_alloc@V?$_Tmap_traits@PEAXPEAVDirector@Swig@@U?$less@PEAX@std@@V?$allocator@U?$pair@QEAXPEAVDirector@Swig@@@std@@@4@$0A@@std@@@std@@QEAAPEAU?$_Tree_node@U?$pair@QEAXPEAVDirector@Swig@@@std@@PEAX@1@AEBUpiecewise_construct_t@1@$$QEAV?$tuple@AEBQEAX@1@$$QEAV?$tuple@$$V@1@@Z 00000001800398a0 f i idp.obj
 0001:000388f0       ??$_Insert_at@AEAU?$pair@$$CBV?$basic_string@DU?$char_traits@D@std@@V?$allocator@D@2@@std@@_N@std@@PEAU?$_Tree_node@U?$pair@$$CBV?$basic_string@DU?$char_traits@D@std@@V?$allocator@D@2@@std@@_N@std@@PEAX@2@@?$_Tree@V?$_Tmap_traits@V?$basic_string@DU?$char_traits@D@std@@V?$allocator@D@2@@std@@_NU?$less@V?$basic_string@DU?$char_traits@D@std@@V?$allocator@D@2@@std@@@2@V?$allocator@U?$pair@$$CBV?$basic_string@DU?$char_traits@D@std@@V?$allocator@D@2@@std@@_N@std@@@2@$0A@@std@@@std@@IEAA?AV?$_Tree_iterator@V?$_Tree_val@U?$_Tree_simple_types@U?$pair@$$CBV?$basic_string@DU?$char_traits@D@std@@V?$allocator@D@2@@std@@_N@std@@@std@@@std@@@1@_NPEAU?$_Tree_node@U?$pair@$$CBV?$basic_string@DU?$char_traits@D@std@@V?$allocator@D@2@@std@@_N@std@@PEAX@1@AEAU?$pair@$$CBV?$basic_string@DU?$char_traits@D@std@@V?$allocator@D@2@@std@@_N@1@1@Z 00000001800398f0 f i idp.obj
 0001:00038b70       ??$_Insert_at@AEAU?$pair@QEAXPEAVDirector@Swig@@@std@@PEAU?$_Tree_node@U?$pair@QEAXPEAVDirector@Swig@@@std@@PEAX@2@@?$_Tree@V?$_Tmap_traits@PEAXPEAVDirector@Swig@@U?$less@PEAX@std@@V?$allocator@U?$pair@QEAXPEAVDirector@Swig@@@std@@@4@$0A@@std@@@std@@IEAA?AV?$_Tree_iterator@V?$_Tree_val@U?$_Tree_simple_types@U?$pair@QEAXPEAVDirector@Swig@@@std@@@std@@@std@@@1@_NPEAU?$_Tree_node@U?$pair@QEAXPEAVDirector@Swig@@@std@@PEAX@1@AEAU?$pair@QEAXPEAVDirector@Swig@@@1@1@Z 0000000180039b70 f i idp.obj
 0001:00038df0       ??$_Insert_hint@AEAU?$pair@$$CBV?$basic_string@DU?$char_traits@D@std@@V?$allocator@D@2@@std@@_N@std@@PEAU?$_Tree_node@U?$pair@$$CBV?$basic_string@DU?$char_traits@D@std@@V?$allocator@D@2@@std@@_N@std@@PEAX@2@@?$_Tree@V?$_Tmap_traits@V?$basic_string@DU?$char_traits@D@std@@V?$allocator@D@2@@std@@_NU?$less@V?$basic_string@DU?$char_traits@D@std@@V?$allocator@D@2@@std@@@2@V?$allocator@U?$pair@$$CBV?$basic_string@DU?$char_traits@D@std@@V?$allocator@D@2@@std@@_N@std@@@2@$0A@@std@@@std@@IEAA?AV?$_Tree_iterator@V?$_Tree_val@U?$_Tree_simple_types@U?$pair@$$CBV?$basic_string@DU?$char_traits@D@std@@V?$allocator@D@2@@std@@_N@std@@@std@@@std@@@1@V?$_Tree_const_iterator@V?$_Tree_val@U?$_Tree_simple_types@U?$pair@$$CBV?$basic_string@DU?$char_traits@D@std@@V?$allocator@D@2@@std@@_N@std@@@std@@@std@@@1@AEAU?$pair@$$CBV?$basic_string@DU?$char_traits@D@std@@V?$allocator@D@2@@std@@_N@1@PEAU?$_Tree_node@U?$pair@$$CBV?$basic_string@DU?$char_traits@D@std@@V?$allocator@D@2@@std@@_N@std@@PEAX@1@@Z 0000000180039df0 f i idp.obj
 0001:00039030       ??$_Insert_hint@AEAU?$pair@QEAXPEAVDirector@Swig@@@std@@PEAU?$_Tree_node@U?$pair@QEAXPEAVDirector@Swig@@@std@@PEAX@2@@?$_Tree@V?$_Tmap_traits@PEAXPEAVDirector@Swig@@U?$less@PEAX@std@@V?$allocator@U?$pair@QEAXPEAVDirector@Swig@@@std@@@4@$0A@@std@@@std@@IEAA?AV?$_Tree_iterator@V?$_Tree_val@U?$_Tree_simple_types@U?$pair@QEAXPEAVDirector@Swig@@@std@@@std@@@std@@@1@V?$_Tree_const_iterator@V?$_Tree_val@U?$_Tree_simple_types@U?$pair@QEAXPEAVDirector@Swig@@@std@@@std@@@std@@@1@AEAU?$pair@QEAXPEAVDirector@Swig@@@1@PEAU?$_Tree_node@U?$pair@QEAXPEAVDirector@Swig@@@std@@PEAX@1@@Z 000000018003a030 f i idp.obj
 0001:00039220       ??$_Insert_nohint@AEAU?$pair@$$CBV?$basic_string@DU?$char_traits@D@std@@V?$allocator@D@2@@std@@_N@std@@PEAU?$_Tree_node@U?$pair@$$CBV?$basic_string@DU?$char_traits@D@std@@V?$allocator@D@2@@std@@_N@std@@PEAX@2@@?$_Tree@V?$_Tmap_traits@V?$basic_string@DU?$char_traits@D@std@@V?$allocator@D@2@@std@@_NU?$less@V?$basic_string@DU?$char_traits@D@std@@V?$allocator@D@2@@std@@@2@V?$allocator@U?$pair@$$CBV?$basic_string@DU?$char_traits@D@std@@V?$allocator@D@2@@std@@_N@std@@@2@$0A@@std@@@std@@IEAA?AU?$pair@V?$_Tree_iterator@V?$_Tree_val@U?$_Tree_simple_types@U?$pair@$$CBV?$basic_string@DU?$char_traits@D@std@@V?$allocator@D@2@@std@@_N@std@@@std@@@std@@@std@@_N@1@_NAEAU?$pair@$$CBV?$basic_string@DU?$char_traits@D@std@@V?$allocator@D@2@@std@@_N@1@PEAU?$_Tree_node@U?$pair@$$CBV?$basic_string@DU?$char_traits@D@std@@V?$allocator@D@2@@std@@_N@std@@PEAX@1@@Z 000000018003a220 f i idp.obj
 0001:000393f0       ??$_Insert_nohint@AEAU?$pair@QEAXPEAVDirector@Swig@@@std@@PEAU?$_Tree_node@U?$pair@QEAXPEAVDirector@Swig@@@std@@PEAX@2@@?$_Tree@V?$_Tmap_traits@PEAXPEAVDirector@Swig@@U?$less@PEAX@std@@V?$allocator@U?$pair@QEAXPEAVDirector@Swig@@@std@@@4@$0A@@std@@@std@@IEAA?AU?$pair@V?$_Tree_iterator@V?$_Tree_val@U?$_Tree_simple_types@U?$pair@QEAXPEAVDirector@Swig@@@std@@@std@@@std@@@std@@_N@1@_NAEAU?$pair@QEAXPEAVDirector@Swig@@@1@PEAU?$_Tree_node@U?$pair@QEAXPEAVDirector@Swig@@@std@@PEAX@1@@Z 000000018003a3f0 f i idp.obj
 0001:00039580       ??$_Reallocate_grow_by@V<lambda_65e615be2a453ca0576c979606f46740>@@PEBD_K@?$basic_string@DU?$char_traits@D@std@@V?$allocator@D@2@@std@@QEAAAEAV01@_KV<lambda_65e615be2a453ca0576c979606f46740>@@PEBD_K@Z 000000018003a580 f i idp.obj
 0001:00039700       ??0?$basic_string@DU?$char_traits@D@std@@V?$allocator@D@2@@std@@QEAA@AEBV01@@Z 000000018003a700 f i idp.obj
 0001:000397e0       ??0DirectorException@Swig@@QEAA@AEBV01@@Z 000000018003a7e0 f i idp.obj
 0001:00039850       ??0DirectorException@Swig@@QEAA@PEAU_object@@PEBD1@Z 000000018003a850 f i idp.obj
 0001:000399b0       ??0DirectorMethodException@Swig@@QEAA@AEBV01@@Z 000000018003a9b0 f i idp.obj
 0001:00039a20       ??0DirectorMethodException@Swig@@QEAA@PEBD@Z 000000018003aa20 f i idp.obj
 0001:00039a60       ??0DirectorTypeMismatchException@Swig@@QEAA@AEBV01@@Z 000000018003aa60 f i idp.obj
 0001:00039ad0       ??0DirectorTypeMismatchException@Swig@@QEAA@PEAU_object@@PEBD@Z 000000018003aad0 f i idp.obj
 0001:00039b00       ??0bytevec_t@@QEAA@AEBV0@@Z 000000018003ab00 f i idp.obj
 0001:00039b70       ??0exception@std@@QEAA@AEBV01@@Z 000000018003ab70 f i idp.obj
 0001:00039bb0       ??1?$_qstring@D@@QEAA@XZ   000000018003abb0 f i idp.obj
 0001:00039bb0       ??1bytevec_t@@QEAA@XZ      000000018003abb0 f i idp.obj
 0001:00039bb0       ??1?$qvector@I@@QEAA@XZ    000000018003abb0 f i idp.obj
 0001:00039bc0       ??1?$basic_string@DU?$char_traits@D@std@@V?$allocator@D@2@@std@@QEAA@XZ 000000018003abc0 f i idp.obj
 0001:00039c20       ??1?$map@V?$basic_string@DU?$char_traits@D@std@@V?$allocator@D@2@@std@@_NU?$less@V?$basic_string@DU?$char_traits@D@std@@V?$allocator@D@2@@std@@@2@V?$allocator@U?$pair@$$CBV?$basic_string@DU?$char_traits@D@std@@V?$allocator@D@2@@std@@_N@std@@@2@@std@@QEAA@XZ 000000018003ac20 f i idp.obj
 0001:00039c60       ??1?$qvector@Uregval_t@@@@QEAA@XZ 000000018003ac60 f i idp.obj
 0001:00039cd0       ??1Director@Swig@@UEAA@XZ  000000018003acd0 f i idp.obj
 0001:00039d70       ??1DirectorException@Swig@@UEAA@XZ 000000018003ad70 f i idp.obj
 0001:00039df0       ??1DirectorTypeMismatchException@Swig@@UEAA@XZ 000000018003adf0 f i idp.obj
 0001:00039df0       ??1DirectorMethodException@Swig@@UEAA@XZ 000000018003adf0 f i idp.obj
 0001:00039e00       ??1Guard@Swig@@QEAA@XZ     000000018003ae00 f i idp.obj
 0001:00039e10       ??1IDB_Hooks@@UEAA@XZ      000000018003ae10 f i idp.obj
 0001:00039e30       ??1IDP_Hooks@@UEAA@XZ      000000018003ae30 f i idp.obj
 0001:00039e50       ??1SWIG_Python_Thread_Block@@QEAA@XZ 000000018003ae50 f i idp.obj
 0001:00039e70       ??1SwigVar_PyObject@swig@@QEAA@XZ 000000018003ae70 f i idp.obj
 0001:00039eb0       ??1bad_array_new_length@std@@UEAA@XZ 000000018003aeb0 f i MSVCRT:throw_bad_alloc.obj
 0001:00039eb0       ??1exception@std@@UEAA@XZ  000000018003aeb0 f i idp.obj
 0001:00039eb0       ??1bad_alloc@std@@UEAA@XZ  000000018003aeb0 f i MSVCRT:throw_bad_alloc.obj
 0001:00039ed0       ??1gil_lock_t@@QEAA@XZ     000000018003aed0 f i idp.obj
 0001:00039ee0       ??1idd_opinfo_t@@QEAA@XZ   000000018003aee0 f i idp.obj
 0001:00039f10       ??1newref_t@@QEAA@XZ       000000018003af10 f i idp.obj
 0001:00039f60       ??A?$map@V?$basic_string@DU?$char_traits@D@std@@V?$allocator@D@2@@std@@_NU?$less@V?$basic_string@DU?$char_traits@D@std@@V?$allocator@D@2@@std@@@2@V?$allocator@U?$pair@$$CBV?$basic_string@DU?$char_traits@D@std@@V?$allocator@D@2@@std@@_N@std@@@2@@std@@QEAAAEA_N$$QEAV?$basic_string@DU?$char_traits@D@std@@V?$allocator@D@2@@1@@Z 000000018003af60 f i idp.obj
 0001:0003a020       ??E?$_Tree_const_iterator@V?$_Tree_val@U?$_Tree_simple_types@U?$pair@QEAXPEAVDirector@Swig@@@std@@@std@@@std@@@std@@QEAAAEAV01@XZ 000000018003b020 f i idp.obj
 0001:0003a020       ??E?$_Tree_const_iterator@V?$_Tree_val@U?$_Tree_simple_types@U?$pair@$$CBV?$basic_string@DU?$char_traits@D@std@@V?$allocator@D@2@@std@@_N@std@@@std@@@std@@@std@@QEAAAEAV01@XZ 000000018003b020 f i idp.obj
 0001:0003a090       ??F?$_Tree_const_iterator@V?$_Tree_val@U?$_Tree_simple_types@U?$pair@QEAXPEAVDirector@Swig@@@std@@@std@@@std@@@std@@QEAAAEAV01@XZ 000000018003b090 f i idp.obj
 0001:0003a090       ??F?$_Tree_const_iterator@V?$_Tree_val@U?$_Tree_simple_types@U?$pair@$$CBV?$basic_string@DU?$char_traits@D@std@@V?$allocator@D@2@@std@@_N@std@@@std@@@std@@@std@@QEAAAEAV01@XZ 000000018003b090 f i idp.obj
 0001:0003a114       ??_ESwigDirector_IDB_Hooks@@W7EAAPEAXI@Z 000000018003b114 f i idp.obj
 0001:0003a120       ??_ESwigDirector_IDP_Hooks@@W7EAAPEAXI@Z 000000018003b120 f i idp.obj
 0001:0003a130       ??_GDirector@Swig@@UEAAPEAXI@Z 000000018003b130 f i idp.obj
 0001:0003a130       ??_EDirector@Swig@@UEAAPEAXI@Z 000000018003b130 f i idp.obj
 0001:0003a170       ??_EDirectorException@Swig@@UEAAPEAXI@Z 000000018003b170 f i idp.obj
 0001:0003a170       ??_GDirectorException@Swig@@UEAAPEAXI@Z 000000018003b170 f i idp.obj
 0001:0003a170       ??_EDirectorTypeMismatchException@Swig@@UEAAPEAXI@Z 000000018003b170 f i idp.obj
 0001:0003a170       ??_EDirectorMethodException@Swig@@UEAAPEAXI@Z 000000018003b170 f i idp.obj
 0001:0003a170       ??_GDirectorTypeMismatchException@Swig@@UEAAPEAXI@Z 000000018003b170 f i idp.obj
 0001:0003a170       ??_GDirectorMethodException@Swig@@UEAAPEAXI@Z 000000018003b170 f i idp.obj
 0001:0003a1b0       ??_GIDB_Hooks@@UEAAPEAXI@Z 000000018003b1b0 f i idp.obj
 0001:0003a1b0       ??_EIDB_Hooks@@UEAAPEAXI@Z 000000018003b1b0 f i idp.obj
 0001:0003a200       ??_GIDP_Hooks@@UEAAPEAXI@Z 000000018003b200 f i idp.obj
 0001:0003a200       ??_EIDP_Hooks@@UEAAPEAXI@Z 000000018003b200 f i idp.obj
 0001:0003a250       ??_GSwigDirector_IDB_Hooks@@UEAAPEAXI@Z 000000018003b250 f i idp.obj
 0001:0003a250       ??_ESwigDirector_IDB_Hooks@@UEAAPEAXI@Z 000000018003b250 f i idp.obj
 0001:0003a310       ??_GSwigDirector_IDP_Hooks@@UEAAPEAXI@Z 000000018003b310 f i idp.obj
 0001:0003a310       ??_ESwigDirector_IDP_Hooks@@UEAAPEAXI@Z 000000018003b310 f i idp.obj
 0001:0003a3c0       ??_Ebad_alloc@std@@UEAAPEAXI@Z 000000018003b3c0 f i MSVCRT:throw_bad_alloc.obj
 0001:0003a3c0       ??_Gbad_array_new_length@std@@UEAAPEAXI@Z 000000018003b3c0 f i MSVCRT:throw_bad_alloc.obj
 0001:0003a3c0       ??_Ebad_array_new_length@std@@UEAAPEAXI@Z 000000018003b3c0 f i MSVCRT:throw_bad_alloc.obj
 0001:0003a3c0       ??_Gbad_alloc@std@@UEAAPEAXI@Z 000000018003b3c0 f i MSVCRT:throw_bad_alloc.obj
 0001:0003a3c0       ??_Eexception@std@@UEAAPEAXI@Z 000000018003b3c0 f i idp.obj
 0001:0003a3c0       ??_Gexception@std@@UEAAPEAXI@Z 000000018003b3c0 f i idp.obj
 0001:0003a410       ?IDB_Callback@@YA_JPEAXHPEAD@Z 000000018003b410 f   idp.obj
 0001:0003aec0       ?IDP_Callback@@YA_JPEAXHPEAD@Z 000000018003bec0 f   idp.obj
 0001:0003c510       ?_Buyheadnode@?$_Tree_comp_alloc@V?$_Tmap_traits@PEAXUGCItem_var@Swig@@U?$less@PEAX@std@@V?$allocator@U?$pair@QEAXUGCItem_var@Swig@@@std@@@4@$0A@@std@@@std@@QEAAPEAU?$_Tree_node@U?$pair@QEAXUGCItem_var@Swig@@@std@@PEAX@2@XZ 000000018003d510 f i idp.obj
 0001:0003c510       ?_Buyheadnode@?$_Tree_comp_alloc@V?$_Tmap_traits@PEAXPEAVDirector@Swig@@U?$less@PEAX@std@@V?$allocator@U?$pair@QEAXPEAVDirector@Swig@@@std@@@4@$0A@@std@@@std@@QEAAPEAU?$_Tree_node@U?$pair@QEAXPEAVDirector@Swig@@@std@@PEAX@2@XZ 000000018003d510 f i idp.obj
 0001:0003c550       ?_Buyheadnode@?$_Tree_comp_alloc@V?$_Tmap_traits@V?$basic_string@DU?$char_traits@D@std@@V?$allocator@D@2@@std@@_NU?$less@V?$basic_string@DU?$char_traits@D@std@@V?$allocator@D@2@@std@@@2@V?$allocator@U?$pair@$$CBV?$basic_string@DU?$char_traits@D@std@@V?$allocator@D@2@@std@@_N@std@@@2@$0A@@std@@@std@@QEAAPEAU?$_Tree_node@U?$pair@$$CBV?$basic_string@DU?$char_traits@D@std@@V?$allocator@D@2@@std@@_N@std@@PEAX@2@XZ 000000018003d550 f i idp.obj
 0001:0003c590       ?_Buynode0@?$_Tree_comp_alloc@V?$_Tmap_traits@PEAXPEAVDirector@Swig@@U?$less@PEAX@std@@V?$allocator@U?$pair@QEAXPEAVDirector@Swig@@@std@@@4@$0A@@std@@@std@@QEAAPEAU?$_Tree_node@U?$pair@QEAXPEAVDirector@Swig@@@std@@PEAX@2@XZ 000000018003d590 f i idp.obj
 0001:0003c5d0       ?_Buynode0@?$_Tree_comp_alloc@V?$_Tmap_traits@V?$basic_string@DU?$char_traits@D@std@@V?$allocator@D@2@@std@@_NU?$less@V?$basic_string@DU?$char_traits@D@std@@V?$allocator@D@2@@std@@@2@V?$allocator@U?$pair@$$CBV?$basic_string@DU?$char_traits@D@std@@V?$allocator@D@2@@std@@_N@std@@@2@$0A@@std@@@std@@QEAAPEAU?$_Tree_node@U?$pair@$$CBV?$basic_string@DU?$char_traits@D@std@@V?$allocator@D@2@@std@@_N@std@@PEAX@2@XZ 000000018003d5d0 f i idp.obj
 0001:0003c610       ?_Freenode0@?$_Tree_comp_alloc@V?$_Tmap_traits@PEAXPEAVDirector@Swig@@U?$less@PEAX@std@@V?$allocator@U?$pair@QEAXPEAVDirector@Swig@@@std@@@4@$0A@@std@@@std@@QEAAXPEAU?$_Tree_node@U?$pair@QEAXPEAVDirector@Swig@@@std@@PEAX@2@@Z 000000018003d610 f i idp.obj
 0001:0003c610       ?_Destroy_if_node@?$_Tree@V?$_Tmap_traits@PEAXPEAVDirector@Swig@@U?$less@PEAX@std@@V?$allocator@U?$pair@QEAXPEAVDirector@Swig@@@std@@@4@$0A@@std@@@std@@IEAAXPEAU?$_Tree_node@U?$pair@QEAXPEAVDirector@Swig@@@std@@PEAX@2@@Z 000000018003d610 f i idp.obj
 0001:0003c620       ?_Destroy_if_node@?$_Tree@V?$_Tmap_traits@V?$basic_string@DU?$char_traits@D@std@@V?$allocator@D@2@@std@@_NU?$less@V?$basic_string@DU?$char_traits@D@std@@V?$allocator@D@2@@std@@@2@V?$allocator@U?$pair@$$CBV?$basic_string@DU?$char_traits@D@std@@V?$allocator@D@2@@std@@_N@std@@@2@$0A@@std@@@std@@IEAAXPEAU?$_Tree_node@U?$pair@$$CBV?$basic_string@DU?$char_traits@D@std@@V?$allocator@D@2@@std@@_N@std@@PEAX@2@@Z 000000018003d620 f i idp.obj
 0001:0003c690       ?_Erase@?$_Tree@V?$_Tmap_traits@PEAXPEAVDirector@Swig@@U?$less@PEAX@std@@V?$allocator@U?$pair@QEAXPEAVDirector@Swig@@@std@@@4@$0A@@std@@@std@@IEAAXPEAU?$_Tree_node@U?$pair@QEAXPEAVDirector@Swig@@@std@@PEAX@2@@Z 000000018003d690 f i idp.obj
 0001:0003c6f0       ?_Erase@?$_Tree@V?$_Tmap_traits@PEAXUGCItem_var@Swig@@U?$less@PEAX@std@@V?$allocator@U?$pair@QEAXUGCItem_var@Swig@@@std@@@4@$0A@@std@@@std@@IEAAXPEAU?$_Tree_node@U?$pair@QEAXUGCItem_var@Swig@@@std@@PEAX@2@@Z 000000018003d6f0 f i idp.obj
 0001:0003c760       ?_Erase@?$_Tree@V?$_Tmap_traits@V?$basic_string@DU?$char_traits@D@std@@V?$allocator@D@2@@std@@_NU?$less@V?$basic_string@DU?$char_traits@D@std@@V?$allocator@D@2@@std@@@2@V?$allocator@U?$pair@$$CBV?$basic_string@DU?$char_traits@D@std@@V?$allocator@D@2@@std@@_N@std@@@2@$0A@@std@@@std@@IEAAXPEAU?$_Tree_node@U?$pair@$$CBV?$basic_string@DU?$char_traits@D@std@@V?$allocator@D@2@@std@@_N@std@@PEAX@2@@Z 000000018003d760 f i idp.obj
 0001:0003c820       ?_Extract@?$_Tree_val@U?$_Tree_simple_types@U?$pair@QEAXUGCItem_var@Swig@@@std@@@std@@@std@@QEAAPEAU?$_Tree_node@U?$pair@QEAXUGCItem_var@Swig@@@std@@PEAX@2@V?$_Tree_const_iterator@V?$_Tree_val@U?$_Tree_simple_types@U?$pair@QEAXUGCItem_var@Swig@@@std@@@std@@@std@@@2@@Z 000000018003d820 f i idp.obj
 0001:0003c820       ?_Extract@?$_Tree_val@U?$_Tree_simple_types@U?$pair@$$CBV?$basic_string@DU?$char_traits@D@std@@V?$allocator@D@2@@std@@_N@std@@@std@@@std@@QEAAPEAU?$_Tree_node@U?$pair@$$CBV?$basic_string@DU?$char_traits@D@std@@V?$allocator@D@2@@std@@_N@std@@PEAX@2@V?$_Tree_const_iterator@V?$_Tree_val@U?$_Tree_simple_types@U?$pair@$$CBV?$basic_string@DU?$char_traits@D@std@@V?$allocator@D@2@@std@@_N@std@@@std@@@std@@@2@@Z 000000018003d820 f i idp.obj
 0001:0003cb80       ?_Freenode0@?$_Tree_comp_alloc@V?$_Tmap_traits@V?$basic_string@DU?$char_traits@D@std@@V?$allocator@D@2@@std@@_NU?$less@V?$basic_string@DU?$char_traits@D@std@@V?$allocator@D@2@@std@@@2@V?$allocator@U?$pair@$$CBV?$basic_string@DU?$char_traits@D@std@@V?$allocator@D@2@@std@@_N@std@@@2@$0A@@std@@@std@@QEAAXPEAU?$_Tree_node@U?$pair@$$CBV?$basic_string@DU?$char_traits@D@std@@V?$allocator@D@2@@std@@_N@std@@PEAX@2@@Z 000000018003db80 f i idp.obj
 0001:0003cb90       ?_Lrotate@?$_Tree_val@U?$_Tree_simple_types@U?$pair@$$CBV?$basic_string@DU?$char_traits@D@std@@V?$allocator@D@2@@std@@_N@std@@@std@@@std@@QEAAXPEAU?$_Tree_node@U?$pair@$$CBV?$basic_string@DU?$char_traits@D@std@@V?$allocator@D@2@@std@@_N@std@@PEAX@2@@Z 000000018003db90 f i idp.obj
 0001:0003cb90       ?_Lrotate@?$_Tree_val@U?$_Tree_simple_types@U?$pair@QEAXUGCItem_var@Swig@@@std@@@std@@@std@@QEAAXPEAU?$_Tree_node@U?$pair@QEAXUGCItem_var@Swig@@@std@@PEAX@2@@Z 000000018003db90 f i idp.obj
 0001:0003cbf0       ?_Rrotate@?$_Tree_val@U?$_Tree_simple_types@U?$pair@QEAXPEAVDirector@Swig@@@std@@@std@@@std@@QEAAXPEAU?$_Tree_node@U?$pair@QEAXPEAVDirector@Swig@@@std@@PEAX@2@@Z 000000018003dbf0 f i idp.obj
 0001:0003cbf0       ?_Rrotate@?$_Tree_val@U?$_Tree_simple_types@U?$pair@QEAXUGCItem_var@Swig@@@std@@@std@@@std@@QEAAXPEAU?$_Tree_node@U?$pair@QEAXUGCItem_var@Swig@@@std@@PEAX@2@@Z 000000018003dbf0 f i idp.obj
 0001:0003cbf0       ?_Rrotate@?$_Tree_val@U?$_Tree_simple_types@U?$pair@$$CBV?$basic_string@DU?$char_traits@D@std@@V?$allocator@D@2@@std@@_N@std@@@std@@@std@@QEAAXPEAU?$_Tree_node@U?$pair@$$CBV?$basic_string@DU?$char_traits@D@std@@V?$allocator@D@2@@std@@_N@std@@PEAX@2@@Z 000000018003dbf0 f i idp.obj
 0001:0003cc50       ?_Xlen@?$basic_string@DU?$char_traits@D@std@@V?$allocator@D@2@@std@@SAXXZ 000000018003dc50 f i idp.obj
 0001:0003cd00       ?_handle_qstring_output@IDP_Hooks@@CA_NPEAU_object@@PEAV?$_qstring@D@@@Z 000000018003dd00 f i idp.obj
 0001:0003cec0       ?changing_op_type@IDB_Hooks@@UEAAHIHPEBTopinfo_t@@@Z 000000018003dec0 f i idp.obj
 0001:0003cec0       ?auto_empty_finally@IDB_Hooks@@UEAAHXZ 000000018003dec0 f i idp.obj
 0001:0003cec0       ?segm_start_changed@IDB_Hooks@@UEAAHPEAVsegment_t@@I@Z 000000018003dec0 f i idp.obj
 0001:0003cec0       ?deleting_enum_member@IDB_Hooks@@UEAAHII@Z 000000018003dec0 f i idp.obj
 0001:0003cec0       ?ev_term@IDP_Hooks@@UEAAHXZ 000000018003dec0 f i idp.obj
 0001:0003cec0       ?changing_struc_member@IDB_Hooks@@UEAAHPEAVstruc_t@@PEAVmember_t@@IPEBTopinfo_t@@I@Z 000000018003dec0 f i idp.obj
 0001:0003cec0       ?determined_main@IDB_Hooks@@UEAAHI@Z 000000018003dec0 f i idp.obj
 0001:0003cec0       ?ev_out_assumes@IDP_Hooks@@UEAAHPEAUoutctx_t@@@Z 000000018003dec0 f i idp.obj
 0001:0003cec0       ?deleting_struc@IDB_Hooks@@UEAAHPEAVstruc_t@@@Z 000000018003dec0 f i idp.obj
 0001:0003cec0       ?ev_is_indirect_jump@IDP_Hooks@@UEAAHPEBVinsn_t@@@Z 000000018003dec0 f i idp.obj
 0001:0003cec0       ?ev_max_ptr_size@IDP_Hooks@@UEAAHXZ 000000018003dec0 f i idp.obj
 0001:0003cec0       ?cmt_changed@IDB_Hooks@@UEAAHI_N@Z 000000018003dec0 f i idp.obj
 0001:0003cec0       ?struc_cmt_changed@IDB_Hooks@@UEAAHI_N@Z 000000018003dec0 f i idp.obj
 0001:0003cec0       ?segm_name_changed@IDB_Hooks@@UEAAHPEAVsegment_t@@PEBD@Z 000000018003dec0 f i idp.obj
 0001:0003cec0       ?allsegs_moved@IDB_Hooks@@UEAAHPEAUsegm_move_infos_t@@@Z 000000018003dec0 f i idp.obj
 0001:0003cec0       ?ev_verify_sp@IDP_Hooks@@UEAAHPEAVfunc_t@@@Z 000000018003dec0 f i idp.obj
 0001:0003cec0       ?ev_get_stkarg_offset@IDP_Hooks@@UEAAHXZ 000000018003dec0 f i idp.obj
 0001:0003cec0       ?changing_segm_class@IDB_Hooks@@UEAAHPEAVsegment_t@@@Z 000000018003dec0 f i idp.obj
 0001:0003cec0       ?frame_deleted@IDB_Hooks@@UEAAHPEAVfunc_t@@@Z 000000018003dec0 f i idp.obj
 0001:0003cec0       ?ev_is_sp_based@IDP_Hooks@@UEAAHPEAHPEBVinsn_t@@PEBVop_t@@@Z 000000018003dec0 f i idp.obj
 0001:0003cec0       ?segm_attrs_updated@IDB_Hooks@@UEAAHPEAVsegment_t@@@Z 000000018003dec0 f i idp.obj
 0001:0003cec0       ?func_added@IDB_Hooks@@UEAAHPEAVfunc_t@@@Z 000000018003dec0 f i idp.obj
 0001:0003cec0       ?ev_treat_hindering_item@IDP_Hooks@@UEAAHIIII@Z 000000018003dec0 f i idp.obj
 0001:0003cec0       ?make_data@IDB_Hooks@@UEAAHIIII@Z 000000018003dec0 f i idp.obj
 0001:0003cec0       ?ev_gen_stkvar_def@IDP_Hooks@@UEAAHPEAUoutctx_t@@PEBVmember_t@@H@Z 000000018003dec0 f i idp.obj
 0001:0003cec0       ?idasgn_loaded@IDB_Hooks@@UEAAHPEBD@Z 000000018003dec0 f i idp.obj
 0001:0003cec0       ?renamed@IDB_Hooks@@UEAAHIPEBD_N@Z 000000018003dec0 f i idp.obj
 0001:0003cec0       ?ev_is_switch@IDP_Hooks@@UEAAHPEAUswitch_info_t@@PEBVinsn_t@@@Z 000000018003dec0 f i idp.obj
 0001:0003cec0       ?auto_empty@IDB_Hooks@@UEAAHXZ 000000018003dec0 f i idp.obj
 0001:0003cec0       ?item_color_changed@IDB_Hooks@@UEAAHII@Z 000000018003dec0 f i idp.obj
 0001:0003cec0       ?ev_get_autocmt@IDP_Hooks@@UEAAHPEAV?$_qstring@D@@PEBVinsn_t@@@Z 000000018003dec0 f i idp.obj
 0001:0003cec0       ?changing_segm_start@IDB_Hooks@@UEAAHPEAVsegment_t@@IH@Z 000000018003dec0 f i idp.obj
 0001:0003cec0       ?ev_out_segstart@IDP_Hooks@@UEAAHPEAUoutctx_t@@PEAVsegment_t@@@Z 000000018003dec0 f i idp.obj
 0001:0003cec0       _is_c_termination_complete 000000018003dec0 f i MSVCRT:ucrt_stubs.obj
 0001:0003cec0       ?ev_create_switch_xrefs@IDP_Hooks@@UEAAHIPEBUswitch_info_t@@@Z 000000018003dec0 f i idp.obj
 0001:0003cec0       ?ev_coagulate@IDP_Hooks@@UEAAHI@Z 000000018003dec0 f i idp.obj
 0001:0003cec0       ?ev_del_dref@IDP_Hooks@@UEAAHII@Z 000000018003dec0 f i idp.obj
 0001:0003cec0       ?ev_get_operand_string@IDP_Hooks@@UEAAHPEAV?$_qstring@D@@PEBVinsn_t@@H@Z 000000018003dec0 f i idp.obj
 0001:0003cec0       ?tail_owner_changed@IDB_Hooks@@UEAAHPEAVfunc_t@@II@Z 000000018003dec0 f i idp.obj
 0001:0003cec0       ?ev_get_dbr_opnum@IDP_Hooks@@UEAAHPEAHPEBVinsn_t@@@Z 000000018003dec0 f i idp.obj
 0001:0003cec0       ?ev_equal_reglocs@IDP_Hooks@@UEAAHPEAVargloc_t@@0@Z 000000018003dec0 f i idp.obj
 0001:0003cec0       ?ev_is_far_jump@IDP_Hooks@@UEAAHH@Z 000000018003dec0 f i idp.obj
 0001:0003cec0       ?updating_tryblks@IDB_Hooks@@UEAAHPEBV?$qvector@Vtryblk_t@@@@@Z 000000018003dec0 f i idp.obj
 0001:0003cec0       ?op_ti_changed@IDB_Hooks@@UEAAHIHPEBE0@Z 000000018003dec0 f i idp.obj
 0001:0003cec0       ?extra_cmt_changed@IDB_Hooks@@UEAAHIHPEBD@Z 000000018003dec0 f i idp.obj
 0001:0003cec0       ?enum_member_deleted@IDB_Hooks@@UEAAHII@Z 000000018003dec0 f i idp.obj
 0001:0003cec0       ?ev_is_alloca_probe@IDP_Hooks@@UEAAHI@Z 000000018003dec0 f i idp.obj
 0001:0003cec0       ?struc_align_changed@IDB_Hooks@@UEAAHPEAVstruc_t@@@Z 000000018003dec0 f i idp.obj
 0001:0003cec0       ?ev_oldfile@IDP_Hooks@@UEAAHPEAD@Z 000000018003dec0 f i idp.obj
 0001:0003cec0       ?savebase@IDB_Hooks@@UEAAHXZ 000000018003dec0 f i idp.obj
 0001:0003cec0       ?ev_gen_map_file@IDP_Hooks@@UEAAHPEAHPEAU_iobuf@@@Z 000000018003dec0 f i idp.obj
 0001:0003cec0       ?loader_finished@IDB_Hooks@@UEAAHPEAVlinput_t@@GPEBD@Z 000000018003dec0 f i idp.obj
 0001:0003cec0       ?enum_renamed@IDB_Hooks@@UEAAHI@Z 000000018003dec0 f i idp.obj
 0001:0003cec0       ?ev_shadow_args_size@IDP_Hooks@@UEAAHPEAHPEAVfunc_t@@@Z 000000018003dec0 f i idp.obj
 0001:0003cec0       ?changing_ti@IDB_Hooks@@UEAAHIPEBE0@Z 000000018003dec0 f i idp.obj
 0001:0003cec0       ?ev_may_be_func@IDP_Hooks@@UEAAHPEBVinsn_t@@H@Z 000000018003dec0 f i idp.obj
 0001:0003cec0       ?ev_out_data@IDP_Hooks@@UEAAHPEAUoutctx_t@@_N@Z 000000018003dec0 f i idp.obj
 0001:0003cec0       ?ev_rename@IDP_Hooks@@UEAAHIPEBD@Z 000000018003dec0 f i idp.obj
 0001:0003cec0       __scrt_stub_for_is_c_termination_complete 000000018003dec0 f i MSVCRT:ucrt_stubs.obj
 0001:0003cec0       ?enum_cmt_changed@IDB_Hooks@@UEAAHI_N@Z 000000018003dec0 f i idp.obj
 0001:0003cec0       ?ev_calc_cdecl_purged_bytes@IDP_Hooks@@UEAAHI@Z 000000018003dec0 f i idp.obj
 0001:0003cec0       ?ev_calc_arglocs@IDP_Hooks@@UEAAHPEAUfunc_type_data_t@@@Z 000000018003dec0 f i idp.obj
 0001:0003cec0       ?ev_getreg@IDP_Hooks@@UEAAHPEAIH@Z 000000018003dec0 f i idp.obj
 0001:0003cec0       ?ev_out_mnem@IDP_Hooks@@UEAAHPEAUoutctx_t@@@Z 000000018003dec0 f i idp.obj
 0001:0003cec0       ?changing_enum_cmt@IDB_Hooks@@UEAAHI_NPEBD@Z 000000018003dec0 f i idp.obj
 0001:0003cec0       ?tryblks_updated@IDB_Hooks@@UEAAHPEBV?$qvector@Vtryblk_t@@@@@Z 000000018003dec0 f i idp.obj
 0001:0003cec0       ?ev_gen_regvar_def@IDP_Hooks@@UEAAHPEAUoutctx_t@@PEAUregvar_t@@@Z 000000018003dec0 f i idp.obj
 0001:0003cec0       ?ev_get_stkvar_scale_factor@IDP_Hooks@@UEAAHXZ 000000018003dec0 f i idp.obj
 0001:0003cec0       ?ev_undefine@IDP_Hooks@@UEAAHI@Z 000000018003dec0 f i idp.obj
 0001:0003cec0       ?changing_cmt@IDB_Hooks@@UEAAHI_NPEBD@Z 000000018003dec0 f i idp.obj
 0001:0003cec0       ?callee_addr_changed@IDB_Hooks@@UEAAHII@Z 000000018003dec0 f i idp.obj
 0001:0003cec0       ?deleting_func@IDB_Hooks@@UEAAHPEAVfunc_t@@@Z 000000018003dec0 f i idp.obj
 0001:0003cec0       ?ev_arg_addrs_ready@IDP_Hooks@@UEAAHIHPEAVtinfo_t@@PEAI@Z 000000018003dec0 f i idp.obj
 0001:0003cec0       ?func_noret_changed@IDB_Hooks@@UEAAHPEAVfunc_t@@@Z 000000018003dec0 f i idp.obj
 0001:0003cec0       ?deleting_func_tail@IDB_Hooks@@UEAAHPEAVfunc_t@@PEBUrange_t@@@Z 000000018003dec0 f i idp.obj
 0001:0003cec0       ?ev_loader@IDP_Hooks@@UEAAHXZ 000000018003dec0 f i idp.obj
 0001:0003cec0       ?upgraded@IDB_Hooks@@UEAAHH@Z 000000018003dec0 f i idp.obj
 0001:0003cec0       ?sgr_changed@IDB_Hooks@@UEAAHIIHIIE@Z 000000018003dec0 f i idp.obj
 0001:0003cec0       ?renaming_enum@IDB_Hooks@@UEAAHI_NPEBD@Z 000000018003dec0 f i idp.obj
 0001:0003cec0       ?ev_get_default_enum_size@IDP_Hooks@@UEAAHE@Z 000000018003dec0 f i idp.obj
 0001:0003cec0       ?ev_newbinary@IDP_Hooks@@UEAAHPEAD_JII_K@Z 000000018003dec0 f i idp.obj
 0001:0003cec0       ?changing_struc_cmt@IDB_Hooks@@UEAAHI_NPEBD@Z 000000018003dec0 f i idp.obj
 0001:0003cec0       ?ev_is_cond_insn@IDP_Hooks@@UEAAHPEBVinsn_t@@@Z 000000018003dec0 f i idp.obj
 0001:0003cec0       ?renaming_struc@IDB_Hooks@@UEAAHIPEBD0@Z 000000018003dec0 f i idp.obj
 0001:0003cec0       ?ev_init@IDP_Hooks@@UEAAHPEBD@Z 000000018003dec0 f i idp.obj
 0001:0003cec0       ?compiler_changed@IDB_Hooks@@UEAAHXZ 000000018003dec0 f i idp.obj
 0001:0003cec0       ?ev_calc_varglocs@IDP_Hooks@@UEAAHPEAUfunc_type_data_t@@PEAUregobjs_t@@PEAUrelobj_t@@H@Z 000000018003dec0 f i idp.obj
 0001:0003cec0       ?ev_validate_flirt_func@IDP_Hooks@@UEAAHIPEBD@Z 000000018003dec0 f i idp.obj
 0001:0003cec0       ?ti_changed@IDB_Hooks@@UEAAHIPEBE0@Z 000000018003dec0 f i idp.obj
 0001:0003cec0       ?sgr_deleted@IDB_Hooks@@UEAAHIIH@Z 000000018003dec0 f i idp.obj
 0001:0003cec0       ?ev_coagulate_dref@IDP_Hooks@@UEAAHII_NPEAI@Z 000000018003dec0 f i idp.obj
 0001:0003cec0       ?ev_get_frame_retsize@IDP_Hooks@@UEAAHPEAHPEBVfunc_t@@@Z 000000018003dec0 f i idp.obj
 0001:0003cec0       ?ev_extract_address@IDP_Hooks@@UEAAHPEAIIPEBD_K@Z 000000018003dec0 f i idp.obj
 0001:0003cec0       ?struc_deleted@IDB_Hooks@@UEAAHI@Z 000000018003dec0 f i idp.obj
 0001:0003cec0       ?ev_endbinary@IDP_Hooks@@UEAAH_N@Z 000000018003dec0 f i idp.obj
 0001:0003cec0       ?deleting_segm@IDB_Hooks@@UEAAHI@Z 000000018003dec0 f i idp.obj
 0001:0003cec0       ?ev_newfile@IDP_Hooks@@UEAAHPEAD@Z 000000018003dec0 f i idp.obj
 0001:0003cec0       ?ev_moving_segm@IDP_Hooks@@UEAAHPEAVsegment_t@@IH@Z 000000018003dec0 f i idp.obj
 0001:0003cec0       ?ev_lower_func_type@IDP_Hooks@@UEAAHPEAV?$qvector@H@@PEAUfunc_type_data_t@@@Z 000000018003dec0 f i idp.obj
 0001:0003cec0       ?ev_out_special_item@IDP_Hooks@@UEAAHPEAUoutctx_t@@E@Z 000000018003dec0 f i idp.obj
 0001:0003cec0       ?deleting_struc_member@IDB_Hooks@@UEAAHPEAVstruc_t@@PEAVmember_t@@@Z 000000018003dec0 f i idp.obj
 0001:0003cec0       ?ev_verify_noreturn@IDP_Hooks@@UEAAHPEAVfunc_t@@@Z 000000018003dec0 f i idp.obj
 0001:0003cec0       ?renaming_struc_member@IDB_Hooks@@UEAAHPEAVstruc_t@@PEAVmember_t@@PEBD@Z 000000018003dec0 f i idp.obj
 0001:0003cec0       ?deleting_enum@IDB_Hooks@@UEAAHI@Z 000000018003dec0 f i idp.obj
 0001:0003cec0       ?stkpnts_changed@IDB_Hooks@@UEAAHPEAVfunc_t@@@Z 000000018003dec0 f i idp.obj
 0001:0003cec0       ?ev_creating_segm@IDP_Hooks@@UEAAHPEAVsegment_t@@@Z 000000018003dec0 f i idp.obj
 0001:0003cec0       ?segm_moved@IDB_Hooks@@UEAAHIII_N@Z 000000018003dec0 f i idp.obj
 0001:0003cec0       ?struc_member_renamed@IDB_Hooks@@UEAAHPEAVstruc_t@@PEAVmember_t@@@Z 000000018003dec0 f i idp.obj
 0001:0003cec0       ?enum_created@IDB_Hooks@@UEAAHI@Z 000000018003dec0 f i idp.obj
 0001:0003cec0       ?ev_use_arg_types@IDP_Hooks@@UEAAHIPEAUfunc_type_data_t@@PEAV?$qvector@Ufuncarg_t@@@@@Z 000000018003dec0 f i idp.obj
 0001:0003cec0       ?func_tail_deleted@IDB_Hooks@@UEAAHPEAVfunc_t@@I@Z 000000018003dec0 f i idp.obj
 0001:0003cec0       ?changing_enum_bf@IDB_Hooks@@UEAAHI_N@Z 000000018003dec0 f i idp.obj
 0001:0003cec0       ?ev_create_flat_group@IDP_Hooks@@UEAAHIHI@Z 000000018003dec0 f i idp.obj
 0001:0003cec0       ?bookmark_changed@IDB_Hooks@@UEAAHIPEBUlochist_entry_t@@PEBD@Z 000000018003dec0 f i idp.obj
 0001:0003cec0       ?struc_created@IDB_Hooks@@UEAAHI@Z 000000018003dec0 f i idp.obj
 0001:0003cec0       ?ev_calc_retloc@IDP_Hooks@@UEAAHPEAVargloc_t@@PEBVtinfo_t@@E@Z 000000018003dec0 f i idp.obj
 0001:0003cec0       ?destroyed_items@IDB_Hooks@@UEAAHII_N@Z 000000018003dec0 f i idp.obj
 0001:0003cec0       ?changing_range_cmt@IDB_Hooks@@UEAAHW4range_kind_t@@PEBUrange_t@@PEBD_N@Z 000000018003dec0 f i idp.obj
 0001:0003cec0       ?ev_gen_src_file_lnnum@IDP_Hooks@@UEAAHXZ 000000018003dec0 f i idp.obj
 0001:0003cec0       ?ev_clean_tbit@IDP_Hooks@@UEAAHIP6AAEBUregval_t@@PEBDPEBU2@@Z1@Z 000000018003dec0 f i idp.obj
 0001:0003cec0       ?ev_del_cref@IDP_Hooks@@UEAAHII_N@Z 000000018003dec0 f i idp.obj
 0001:0003cec0       ?ev_get_bg_color@IDP_Hooks@@UEAAHPEAII@Z 000000018003dec0 f i idp.obj
 0001:0003cec0       ?ev_realcvt@IDP_Hooks@@UEAAHPEAXPEAGG@Z 000000018003dec0 f i idp.obj
 0001:0003cec0       ?ev_is_ret_insn@IDP_Hooks@@UEAAHPEBVinsn_t@@_N@Z 000000018003dec0 f i idp.obj
 0001:0003cec0       ?segm_added@IDB_Hooks@@UEAAHPEAVsegment_t@@@Z 000000018003dec0 f i idp.obj
 0001:0003cec0       ?op_type_changed@IDB_Hooks@@UEAAHIH@Z 000000018003dec0 f i idp.obj
 0001:0003cec0       ?struc_expanded@IDB_Hooks@@UEAAHPEAVstruc_t@@@Z 000000018003dec0 f i idp.obj
 0001:0003cec0       ?enum_member_created@IDB_Hooks@@UEAAHII@Z 000000018003dec0 f i idp.obj
 0001:0003cec0       ?thunk_func_created@IDB_Hooks@@UEAAHPEAVfunc_t@@@Z 000000018003dec0 f i idp.obj
 0001:0003cec0       ?ev_is_sane_insn@IDP_Hooks@@UEAAHPEBVinsn_t@@H@Z 000000018003dec0 f i idp.obj
 0001:0003cec0       ?ev_calcrel@IDP_Hooks@@UEAAHXZ 000000018003dec0 f i idp.obj
 0001:0003cec0       ?ev_get_simd_types@IDP_Hooks@@UEAAHPEAV?$qvector@Usimd_info_t@@@@PEBUsimd_info_t@@PEBVargloc_t@@_N@Z 000000018003dec0 f i idp.obj
 0001:0003cec0       ?set_func_end@IDB_Hooks@@UEAAHPEAVfunc_t@@I@Z 000000018003dec0 f i idp.obj
 0001:0003cec0       ?ev_calc_step_over@IDP_Hooks@@UEAAHPEAII@Z 000000018003dec0 f i idp.obj
 0001:0003cec0       ?flow_chart_created@IDB_Hooks@@UEAAHPEAVqflow_chart_t@@@Z 000000018003dec0 f i idp.obj
 0001:0003cec0       ?changing_segm_name@IDB_Hooks@@UEAAHPEAVsegment_t@@PEBD@Z 000000018003dec0 f i idp.obj
 0001:0003cec0       ?make_code@IDB_Hooks@@UEAAHPEBVinsn_t@@@Z 000000018003dec0 f i idp.obj
 0001:0003cec0       ?ev_set_proc_options@IDP_Hooks@@UEAAHPEBDH@Z 000000018003dec0 f i idp.obj
 0001:0003cec0       ?ev_newasm@IDP_Hooks@@UEAAHH@Z 000000018003dec0 f i idp.obj
 0001:0003cec0       ?ev_set_idp_options@IDP_Hooks@@UEAAHPEBDHPEBXPEAPEBD@Z 000000018003dec0 f i idp.obj
 0001:0003cec0       ?set_func_start@IDB_Hooks@@UEAAHPEAVfunc_t@@I@Z 000000018003dec0 f i idp.obj
 0001:0003cec0       ?changing_segm_end@IDB_Hooks@@UEAAHPEAVsegment_t@@IH@Z 000000018003dec0 f i idp.obj
 0001:0003cec0       ?segm_class_changed@IDB_Hooks@@UEAAHPEAVsegment_t@@PEBD@Z 000000018003dec0 f i idp.obj
 0001:0003cec0       ?changing_op_ti@IDB_Hooks@@UEAAHIHPEBE0@Z 000000018003dec0 f i idp.obj
 0001:0003cec0       ?byte_patched@IDB_Hooks@@UEAAHII@Z 000000018003dec0 f i idp.obj
 0001:0003cec0       ?ev_add_cref@IDP_Hooks@@UEAAHIIW4cref_t@@@Z 000000018003dec0 f i idp.obj
 0001:0003cec0       ?ev_calc_next_eas@IDP_Hooks@@UEAAHPEAV?$qvector@I@@PEBVinsn_t@@_N@Z 000000018003dec0 f i idp.obj
 0001:0003cec0       ?ev_out_label@IDP_Hooks@@UEAAHPEAUoutctx_t@@PEBD@Z 000000018003dec0 f i idp.obj
 0001:0003cec0       ?ev_add_dref@IDP_Hooks@@UEAAHIIW4dref_t@@@Z 000000018003dec0 f i idp.obj
 0001:0003cec0       ?ev_adjust_refinfo@IDP_Hooks@@UEAAHPEAUrefinfo_t@@IHPEBUfixup_data_t@@@Z 000000018003dec0 f i idp.obj
 0001:0003cec0       ?ev_may_show_sreg@IDP_Hooks@@UEAAHI@Z 000000018003dec0 f i idp.obj
 0001:0003cec0       ?ev_is_insn_table_jump@IDP_Hooks@@UEAAHPEBVinsn_t@@@Z 000000018003dec0 f i idp.obj
 0001:0003cec0       ?ev_get_reg_info@IDP_Hooks@@UEAAHPEAPEBDPEAVbitrange_t@@PEBD@Z 000000018003dec0 f i idp.obj
 0001:0003cec0       ?ev_get_cc_regs@IDP_Hooks@@UEAAHPEAVcallregs_t@@E@Z 000000018003dec0 f i idp.obj
 0001:0003cec0       ?ev_cmp_operands@IDP_Hooks@@UEAAHPEBVop_t@@0@Z 000000018003dec0 f i idp.obj
 0001:0003cec0       ?ev_calc_purged_bytes@IDP_Hooks@@UEAAHPEAHPEBUfunc_type_data_t@@@Z 000000018003dec0 f i idp.obj
 0001:0003cec0       ?ev_use_stkarg_type@IDP_Hooks@@UEAAHIPEBUfuncarg_t@@@Z 000000018003dec0 f i idp.obj
 0001:0003cec0       ?enum_bf_changed@IDB_Hooks@@UEAAHI@Z 000000018003dec0 f i idp.obj
 0001:0003cec0       ?func_updated@IDB_Hooks@@UEAAHPEAVfunc_t@@@Z 000000018003dec0 f i idp.obj
 0001:0003cec0       ?ev_is_call_insn@IDP_Hooks@@UEAAHPEBVinsn_t@@@Z 000000018003dec0 f i idp.obj
 0001:0003cec0       ?ev_insn_reads_tbit@IDP_Hooks@@UEAAHPEBVinsn_t@@P6AAEBUregval_t@@PEBDPEBU3@@Z2@Z 000000018003dec0 f i idp.obj
 0001:0003cec0       ?deleting_tryblks@IDB_Hooks@@UEAAHPEBUrange_t@@@Z 000000018003dec0 f i idp.obj
 0001:0003cec0       ?enum_deleted@IDB_Hooks@@UEAAHI@Z 000000018003dec0 f i idp.obj
 0001:0003cec0       ?struc_member_deleted@IDB_Hooks@@UEAAHPEAVstruc_t@@II@Z 000000018003dec0 f i idp.obj
 0001:0003cec0       ?ev_adjust_argloc@IDP_Hooks@@UEAAHPEAVargloc_t@@PEBVtinfo_t@@H@Z 000000018003dec0 f i idp.obj
 0001:0003cec0       ?expanding_struc@IDB_Hooks@@UEAAHPEAVstruc_t@@IH@Z 000000018003dec0 f i idp.obj
 0001:0003cec0       ?range_cmt_changed@IDB_Hooks@@UEAAHW4range_kind_t@@PEBUrange_t@@PEBD_N@Z 000000018003dec0 f i idp.obj
 0001:0003cec0       ?ev_adjust_libfunc_ea@IDP_Hooks@@UEAAHPEBVidasgn_t@@PEBUlibfunc_t@@PEAI@Z 000000018003dec0 f i idp.obj
 0001:0003cec0       ?ev_is_align_insn@IDP_Hooks@@UEAAHI@Z 000000018003dec0 f i idp.obj
 0001:0003cec0       ?ev_out_segend@IDP_Hooks@@UEAAHPEAUoutctx_t@@PEAVsegment_t@@@Z 000000018003dec0 f i idp.obj
 0001:0003cec0       ?segm_deleted@IDB_Hooks@@UEAAHII@Z 000000018003dec0 f i idp.obj
 0001:0003cec0       ?ev_calc_spdelta@IDP_Hooks@@UEAAHPEAHPEBVinsn_t@@@Z 000000018003dec0 f i idp.obj
 0001:0003cec0       ?changing_struc_align@IDB_Hooks@@UEAAHPEAVstruc_t@@@Z 000000018003dec0 f i idp.obj
 0001:0003cec0       ?ev_can_have_type@IDP_Hooks@@UEAAHPEBVop_t@@@Z 000000018003dec0 f i idp.obj
 0001:0003cec0       ?extlang_changed@IDB_Hooks@@UEAAHHPEAUextlang_t@@H@Z 000000018003dec0 f i idp.obj
 0001:0003cec0       ?struc_member_changed@IDB_Hooks@@UEAAHPEAVstruc_t@@PEAVmember_t@@@Z 000000018003dec0 f i idp.obj
 0001:0003cec0       ?ev_is_basic_block_end@IDP_Hooks@@UEAAHPEBVinsn_t@@_N@Z 000000018003dec0 f i idp.obj
 0001:0003cec0       ?local_types_changed@IDB_Hooks@@UEAAHXZ 000000018003dec0 f i idp.obj
 0001:0003cec0       ?closebase@IDB_Hooks@@UEAAHXZ 000000018003dec0 f i idp.obj
 0001:0003cec0       ?ev_create_func_frame@IDP_Hooks@@UEAAHPEAVfunc_t@@@Z 000000018003dec0 f i idp.obj
 0001:0003cec0       ?struc_member_created@IDB_Hooks@@UEAAHPEAVstruc_t@@PEAVmember_t@@@Z 000000018003dec0 f i idp.obj
 0001:0003cec0       ?kernel_config_loaded@IDB_Hooks@@UEAAHXZ 000000018003dec0 f i idp.obj
 0001:0003cec0       ?ev_next_exec_insn@IDP_Hooks@@UEAAHPEAIIHP6AAEBUregval_t@@PEBDPEBU2@@Z2@Z 000000018003dec0 f i idp.obj
 0001:0003cec0       ?ev_str2reg@IDP_Hooks@@UEAAHPEBD@Z 000000018003dec0 f i idp.obj
 0001:0003cec0       ?ev_is_jump_func@IDP_Hooks@@UEAAHPEAVfunc_t@@PEAI1@Z 000000018003dec0 f i idp.obj
 0001:0003cec0       ?ev_newprc@IDP_Hooks@@UEAAHH_N@Z 000000018003dec0 f i idp.obj
 0001:0003cec0       ?ev_get_abi_info@IDP_Hooks@@UEAAHPEAV?$qvector@V?$_qstring@D@@@@0E@Z 000000018003dec0 f i idp.obj
 0001:0003cec0       ?ev_calc_switch_cases@IDP_Hooks@@UEAAHPEAV?$qvector@V?$qvector@H@@@@PEAV?$qvector@I@@IPEAUswitch_info_t@@@Z 000000018003dec0 f i idp.obj
 0001:0003cec0       ?func_tail_appended@IDB_Hooks@@UEAAHPEAVfunc_t@@0@Z 000000018003dec0 f i idp.obj
 0001:0003cec0       ?ev_get_macro_insn_head@IDP_Hooks@@UEAAHPEAII@Z 000000018003dec0 f i idp.obj
 0001:0003cec0       ?ev_analyze_prolog@IDP_Hooks@@UEAAHI@Z 000000018003dec0 f i idp.obj
 0001:0003cec0       ?struc_renamed@IDB_Hooks@@UEAAHPEAVstruc_t@@@Z 000000018003dec0 f i idp.obj
 0001:0003cec0       ?segm_end_changed@IDB_Hooks@@UEAAHPEAVsegment_t@@I@Z 000000018003dec0 f i idp.obj
 0001:0003ced0       ?allsegs_moved@SwigDirector_IDB_Hooks@@UEAAHPEAUsegm_move_infos_t@@@Z 000000018003ded0 f   idp.obj
 0001:0003d040       ?append@?$_qstring@D@@QEAAAEAV1@PEBD_K@Z 000000018003e040 f i idp.obj
 0001:0003d0f0       ?append@?$basic_string@DU?$char_traits@D@std@@V?$allocator@D@2@@std@@QEAAAEAV12@QEBD_K@Z 000000018003e0f0 f i idp.obj
 0001:0003d180       ?assign@?$basic_string@DU?$char_traits@D@std@@V?$allocator@D@2@@std@@QEAAAEAV12@QEBD_K@Z 000000018003e180 f i idp.obj
 0001:0003d2d0       ?auto_empty@SwigDirector_IDB_Hooks@@UEAAHXZ 000000018003e2d0 f   idp.obj
 0001:0003d3f0       ?auto_empty_finally@SwigDirector_IDB_Hooks@@UEAAHXZ 000000018003e3f0 f   idp.obj
 0001:0003d510       ?bookmark_changed@SwigDirector_IDB_Hooks@@UEAAHIPEBUlochist_entry_t@@PEBD@Z 000000018003e510 f   idp.obj
 0001:0003d740       ?byte_patched@SwigDirector_IDB_Hooks@@UEAAHII@Z 000000018003e740 f   idp.obj
 0001:0003d900       ?callee_addr_changed@SwigDirector_IDB_Hooks@@UEAAHII@Z 000000018003e900 f   idp.obj
 0001:0003dac0       ?changing_cmt@SwigDirector_IDB_Hooks@@UEAAHI_NPEBD@Z 000000018003eac0 f   idp.obj
 0001:0003dce0       ?changing_enum_bf@SwigDirector_IDB_Hooks@@UEAAHI_N@Z 000000018003ece0 f   idp.obj
 0001:0003dea0       ?changing_enum_cmt@SwigDirector_IDB_Hooks@@UEAAHI_NPEBD@Z 000000018003eea0 f   idp.obj
 0001:0003e0c0       ?changing_op_ti@SwigDirector_IDB_Hooks@@UEAAHIHPEBE0@Z 000000018003f0c0 f   idp.obj
 0001:0003e340       ?changing_op_type@SwigDirector_IDB_Hooks@@UEAAHIHPEBTopinfo_t@@@Z 000000018003f340 f   idp.obj
 0001:0003e550       ?changing_range_cmt@SwigDirector_IDB_Hooks@@UEAAHW4range_kind_t@@PEBUrange_t@@PEBD_N@Z 000000018003f550 f   idp.obj
 0001:0003e7c0       ?changing_segm_class@SwigDirector_IDB_Hooks@@UEAAHPEAVsegment_t@@@Z 000000018003f7c0 f   idp.obj
 0001:0003e930       ?changing_segm_end@SwigDirector_IDB_Hooks@@UEAAHPEAVsegment_t@@IH@Z 000000018003f930 f   idp.obj
 0001:0003eb40       ?changing_segm_name@SwigDirector_IDB_Hooks@@UEAAHPEAVsegment_t@@PEBD@Z 000000018003fb40 f   idp.obj
 0001:0003ed20       ?changing_segm_start@SwigDirector_IDB_Hooks@@UEAAHPEAVsegment_t@@IH@Z 000000018003fd20 f   idp.obj
 0001:0003ef30       ?changing_struc_align@SwigDirector_IDB_Hooks@@UEAAHPEAVstruc_t@@@Z 000000018003ff30 f   idp.obj
 0001:0003f0a0       ?changing_struc_cmt@SwigDirector_IDB_Hooks@@UEAAHI_NPEBD@Z 00000001800400a0 f   idp.obj
 0001:0003f2c0       ?changing_struc_member@SwigDirector_IDB_Hooks@@UEAAHPEAVstruc_t@@PEAVmember_t@@IPEBTopinfo_t@@I@Z 00000001800402c0 f   idp.obj
 0001:0003f580       ?changing_ti@SwigDirector_IDB_Hooks@@UEAAHIPEBE0@Z 0000000180040580 f   idp.obj
 0001:0003f7b0       ?closebase@SwigDirector_IDB_Hooks@@UEAAHXZ 00000001800407b0 f   idp.obj
 0001:0003f8d0       ?cmt_changed@SwigDirector_IDB_Hooks@@UEAAHI_N@Z 00000001800408d0 f   idp.obj
 0001:0003fa90       ?compare@?$basic_string@DU?$char_traits@D@std@@V?$allocator@D@2@@std@@QEBAHAEBV12@@Z 0000000180040a90 f i idp.obj
 0001:0003fb00       ?compiler_changed@SwigDirector_IDB_Hooks@@UEAAHXZ 0000000180040b00 f   idp.obj
 0001:0003fc20       ?deallocate@?$allocator@U?$_Tree_node@U?$pair@$$CBV?$basic_string@DU?$char_traits@D@std@@V?$allocator@D@2@@std@@_N@std@@PEAX@std@@@std@@QEAAXQEAU?$_Tree_node@U?$pair@$$CBV?$basic_string@DU?$char_traits@D@std@@V?$allocator@D@2@@std@@_N@std@@PEAX@2@_K@Z 0000000180040c20 f i idp.obj
 0001:0003fc70       ?deallocate@?$allocator@U?$_Tree_node@U?$pair@QEAXPEAVDirector@Swig@@@std@@PEAX@std@@@std@@QEAAXQEAU?$_Tree_node@U?$pair@QEAXPEAVDirector@Swig@@@std@@PEAX@2@_K@Z 0000000180040c70 f i idp.obj
 0001:0003fc70       ?deallocate@?$allocator@U?$_Tree_node@U?$pair@QEAXUGCItem_var@Swig@@@std@@PEAX@std@@@std@@QEAAXQEAU?$_Tree_node@U?$pair@QEAXUGCItem_var@Swig@@@std@@PEAX@2@_K@Z 0000000180040c70 f i idp.obj
 0001:0003fcc0       ?deleting_enum@SwigDirector_IDB_Hooks@@UEAAHI@Z 0000000180040cc0 f   idp.obj
 0001:0003fe20       ?deleting_enum_member@SwigDirector_IDB_Hooks@@UEAAHII@Z 0000000180040e20 f   idp.obj
 0001:0003ffe0       ?deleting_func@SwigDirector_IDB_Hooks@@UEAAHPEAVfunc_t@@@Z 0000000180040fe0 f   idp.obj
 0001:00040150       ?deleting_func_tail@SwigDirector_IDB_Hooks@@UEAAHPEAVfunc_t@@PEBUrange_t@@@Z 0000000180041150 f   idp.obj
 0001:00040320       ?deleting_segm@SwigDirector_IDB_Hooks@@UEAAHI@Z 0000000180041320 f   idp.obj
 0001:00040480       ?deleting_struc@SwigDirector_IDB_Hooks@@UEAAHPEAVstruc_t@@@Z 0000000180041480 f   idp.obj
 0001:000405f0       ?deleting_struc_member@SwigDirector_IDB_Hooks@@UEAAHPEAVstruc_t@@PEAVmember_t@@@Z 00000001800415f0 f   idp.obj
 0001:000407c0       ?deleting_tryblks@SwigDirector_IDB_Hooks@@UEAAHPEBUrange_t@@@Z 00000001800417c0 f   idp.obj
 0001:00040930       ?destroyed_items@SwigDirector_IDB_Hooks@@UEAAHII_N@Z 0000000180041930 f   idp.obj
 0001:00040b30       ?determined_main@SwigDirector_IDB_Hooks@@UEAAHI@Z 0000000180041b30 f   idp.obj
 0001:00040c90       ?enum_bf_changed@SwigDirector_IDB_Hooks@@UEAAHI@Z 0000000180041c90 f   idp.obj
 0001:00040df0       ?enum_cmt_changed@SwigDirector_IDB_Hooks@@UEAAHI_N@Z 0000000180041df0 f   idp.obj
 0001:00040fb0       ?enum_created@SwigDirector_IDB_Hooks@@UEAAHI@Z 0000000180041fb0 f   idp.obj
 0001:00041110       ?enum_deleted@SwigDirector_IDB_Hooks@@UEAAHI@Z 0000000180042110 f   idp.obj
 0001:00041270       ?enum_member_created@SwigDirector_IDB_Hooks@@UEAAHII@Z 0000000180042270 f   idp.obj
 0001:00041430       ?enum_member_deleted@SwigDirector_IDB_Hooks@@UEAAHII@Z 0000000180042430 f   idp.obj
 0001:000415f0       ?enum_renamed@SwigDirector_IDB_Hooks@@UEAAHI@Z 00000001800425f0 f   idp.obj
 0001:00041750       ?erase@?$_Tree@V?$_Tmap_traits@V?$basic_string@DU?$char_traits@D@std@@V?$allocator@D@2@@std@@_NU?$less@V?$basic_string@DU?$char_traits@D@std@@V?$allocator@D@2@@std@@@2@V?$allocator@U?$pair@$$CBV?$basic_string@DU?$char_traits@D@std@@V?$allocator@D@2@@std@@_N@std@@@2@$0A@@std@@@std@@QEAA?AV?$_Tree_iterator@V?$_Tree_val@U?$_Tree_simple_types@U?$pair@$$CBV?$basic_string@DU?$char_traits@D@std@@V?$allocator@D@2@@std@@_N@std@@@std@@@std@@@2@V?$_Tree_const_iterator@V?$_Tree_val@U?$_Tree_simple_types@U?$pair@$$CBV?$basic_string@DU?$char_traits@D@std@@V?$allocator@D@2@@std@@_N@std@@@std@@@std@@@2@0@Z 0000000180042750 f i idp.obj
 0001:00041900       ?ev_add_cref@SwigDirector_IDP_Hooks@@UEAAHIIW4cref_t@@@Z 0000000180042900 f   idp.obj
 0001:00041b00       ?ev_add_dref@SwigDirector_IDP_Hooks@@UEAAHIIW4dref_t@@@Z 0000000180042b00 f   idp.obj
 0001:00041d00       ?ev_adjust_argloc@SwigDirector_IDP_Hooks@@UEAAHPEAVargloc_t@@PEBVtinfo_t@@H@Z 0000000180042d00 f   idp.obj
 0001:00041f10       ?ev_adjust_libfunc_ea@SwigDirector_IDP_Hooks@@UEAAHPEBVidasgn_t@@PEBUlibfunc_t@@PEAI@Z 0000000180042f10 f   idp.obj
 0001:00042130       ?ev_adjust_refinfo@SwigDirector_IDP_Hooks@@UEAAHPEAUrefinfo_t@@IHPEBUfixup_data_t@@@Z 0000000180043130 f   idp.obj
 0001:00042390       ?ev_ana_insn@IDP_Hooks@@UEAA_NPEAVinsn_t@@@Z 0000000180043390 f i idp.obj
 0001:00042390       ?ev_emu_insn@IDP_Hooks@@UEAA_NPEBVinsn_t@@@Z 0000000180043390 f i idp.obj
 0001:00042390       ?ev_out_insn@IDP_Hooks@@UEAA_NPEAUoutctx_t@@@Z 0000000180043390 f i idp.obj
 0001:00042390       ?ev_out_operand@IDP_Hooks@@UEAA_NPEAUoutctx_t@@PEBVop_t@@@Z 0000000180043390 f i idp.obj
 0001:000423a0       ?ev_ana_insn@SwigDirector_IDP_Hooks@@UEAA_NPEAVinsn_t@@@Z 00000001800433a0 f   idp.obj
 0001:00042500       ?ev_analyze_prolog@SwigDirector_IDP_Hooks@@UEAAHI@Z 0000000180043500 f   idp.obj
 0001:00042660       ?ev_arg_addrs_ready@SwigDirector_IDP_Hooks@@UEAAHIHPEAVtinfo_t@@PEAI@Z 0000000180043660 f   idp.obj
 0001:000428c0       ?ev_find_reg_value@IDP_Hooks@@UEAAPEAU_object@@PEBVinsn_t@@H@Z 00000001800438c0 f i idp.obj
 0001:000428c0       ?ev_delay_slot_insn@IDP_Hooks@@UEAAPEAU_object@@I_N0@Z 00000001800438c0 f i idp.obj
 0001:000428c0       ?ev_decorate_name@IDP_Hooks@@UEAAPEAU_object@@PEBD_NHPEBVtinfo_t@@@Z 00000001800438c0 f i idp.obj
 0001:000428c0       ?ev_demangle_name@IDP_Hooks@@UEAAPEAU_object@@PEAV?$_qstring@D@@PEBDIH@Z 00000001800438c0 f i idp.obj
 0001:000428c0       ?ev_find_op_value@IDP_Hooks@@UEAAPEAU_object@@PEBVinsn_t@@H@Z 00000001800438c0 f i idp.obj
 0001:000428c0       ?ev_assemble@IDP_Hooks@@UEAAPEAU_object@@III_NPEBD@Z 00000001800438c0 f i idp.obj
 0001:000428c0       ?ev_use_regarg_type@IDP_Hooks@@UEAAPEAU_object@@IPEBV?$qvector@Ufuncarg_t@@@@@Z 00000001800438c0 f i idp.obj
 0001:000428c0       ?ev_get_reg_name@IDP_Hooks@@UEAAPEAU_object@@H_KH@Z 00000001800438c0 f i idp.obj
 0001:000428e0       ?ev_assemble@SwigDirector_IDP_Hooks@@UEAAPEAU_object@@III_NPEBD@Z 00000001800438e0 f   idp.obj
 0001:00042b40       ?ev_func_bounds@IDP_Hooks@@UEAAXPEAHPEAVfunc_t@@I@Z 0000000180043b40 f i idp.obj
 0001:00042b40       ?ev_out_header@IDP_Hooks@@UEAAXPEAUoutctx_t@@@Z 0000000180043b40 f i idp.obj
 0001:00042b40       ?ev_auto_queue_empty@IDP_Hooks@@UEAAXH@Z 0000000180043b40 f i idp.obj
 0001:00042b40       ?ev_setup_til@IDP_Hooks@@UEAAXXZ 0000000180043b40 f i idp.obj
 0001:00042b40       ?ev_out_footer@IDP_Hooks@@UEAAXPEAUoutctx_t@@@Z 0000000180043b40 f i idp.obj
 0001:00042b40       _guard_check_icall_nop     0000000180043b40 f i MSVCRT:guard_support.obj
 0001:00042b40       ?swig_set_inner@Director@Swig@@UEBAXPEBD_N@Z 0000000180043b40 f i idp.obj
 0001:00042b40       ?ev_gen_asm_or_lst@IDP_Hooks@@UEAAX_NPEAU_iobuf@@0HPEAP6AH1AEBV?$_qstring@D@@II@Z@Z 0000000180043b40 f i idp.obj
 0001:00042b50       ?ev_auto_queue_empty@SwigDirector_IDP_Hooks@@UEAAXH@Z 0000000180043b50 f   idp.obj
 0001:00042c60       ?ev_calc_arglocs@SwigDirector_IDP_Hooks@@UEAAHPEAUfunc_type_data_t@@@Z 0000000180043c60 f   idp.obj
 0001:00042dd0       ?ev_calc_cdecl_purged_bytes@SwigDirector_IDP_Hooks@@UEAAHI@Z 0000000180043dd0 f   idp.obj
 0001:00042f30       ?ev_calc_next_eas@SwigDirector_IDP_Hooks@@UEAAHPEAV?$qvector@I@@PEBVinsn_t@@_N@Z 0000000180043f30 f   idp.obj
 0001:00043140       ?ev_calc_purged_bytes@SwigDirector_IDP_Hooks@@UEAAHPEAHPEBUfunc_type_data_t@@@Z 0000000180044140 f   idp.obj
 0001:00043310       ?ev_calc_retloc@SwigDirector_IDP_Hooks@@UEAAHPEAVargloc_t@@PEBVtinfo_t@@E@Z 0000000180044310 f   idp.obj
 0001:00043520       ?ev_calc_spdelta@SwigDirector_IDP_Hooks@@UEAAHPEAHPEBVinsn_t@@@Z 0000000180044520 f   idp.obj
 0001:000436f0       ?ev_calc_step_over@SwigDirector_IDP_Hooks@@UEAAHPEAII@Z 00000001800446f0 f   idp.obj
 0001:000438c0       ?ev_calc_switch_cases@SwigDirector_IDP_Hooks@@UEAAHPEAV?$qvector@V?$qvector@H@@@@PEAV?$qvector@I@@IPEAUswitch_info_t@@@Z 00000001800448c0 f   idp.obj
 0001:00043b30       ?ev_calc_varglocs@SwigDirector_IDP_Hooks@@UEAAHPEAUfunc_type_data_t@@PEAUregobjs_t@@PEAUrelobj_t@@H@Z 0000000180044b30 f   idp.obj
 0001:00043da0       ?ev_calcrel@SwigDirector_IDP_Hooks@@UEAAHXZ 0000000180044da0 f   idp.obj
 0001:00043ec0       ?ev_can_have_type@SwigDirector_IDP_Hooks@@UEAAHPEBVop_t@@@Z 0000000180044ec0 f   idp.obj
 0001:00044030       ?ev_clean_tbit@SwigDirector_IDP_Hooks@@UEAAHIP6AAEBUregval_t@@PEBDPEBU2@@Z1@Z 0000000180045030 f   idp.obj
 0001:00044250       ?ev_cmp_operands@SwigDirector_IDP_Hooks@@UEAAHPEBVop_t@@0@Z 0000000180045250 f   idp.obj
 0001:00044420       ?ev_coagulate@SwigDirector_IDP_Hooks@@UEAAHI@Z 0000000180045420 f   idp.obj
 0001:00044580       ?ev_coagulate_dref@SwigDirector_IDP_Hooks@@UEAAHII_NPEAI@Z 0000000180045580 f   idp.obj
 0001:000447d0       ?ev_create_flat_group@SwigDirector_IDP_Hooks@@UEAAHIHI@Z 00000001800457d0 f   idp.obj
 0001:000449d0       ?ev_create_func_frame@SwigDirector_IDP_Hooks@@UEAAHPEAVfunc_t@@@Z 00000001800459d0 f   idp.obj
 0001:00044b40       ?ev_create_switch_xrefs@SwigDirector_IDP_Hooks@@UEAAHIPEBUswitch_info_t@@@Z 0000000180045b40 f   idp.obj
 0001:00044d10       ?ev_creating_segm@SwigDirector_IDP_Hooks@@UEAAHPEAVsegment_t@@@Z 0000000180045d10 f   idp.obj
 0001:00044e80       ?ev_decorate_name@SwigDirector_IDP_Hooks@@UEAAPEAU_object@@PEBD_NHPEBVtinfo_t@@@Z 0000000180045e80 f   idp.obj
 0001:000450b0       ?ev_del_cref@SwigDirector_IDP_Hooks@@UEAAHII_N@Z 00000001800460b0 f   idp.obj
 0001:000452b0       ?ev_del_dref@SwigDirector_IDP_Hooks@@UEAAHII@Z 00000001800462b0 f   idp.obj
 0001:00045470       ?ev_delay_slot_insn@SwigDirector_IDP_Hooks@@UEAAPEAU_object@@I_N0@Z 0000000180046470 f   idp.obj
 0001:00045630       ?ev_demangle_name@SwigDirector_IDP_Hooks@@UEAAPEAU_object@@PEAV?$_qstring@D@@PEBDIH@Z 0000000180046630 f   idp.obj
 0001:00045800       ?ev_emu_insn@SwigDirector_IDP_Hooks@@UEAA_NPEBVinsn_t@@@Z 0000000180046800 f   idp.obj
 0001:00045960       ?ev_endbinary@SwigDirector_IDP_Hooks@@UEAAH_N@Z 0000000180046960 f   idp.obj
 0001:00045ac0       ?ev_equal_reglocs@SwigDirector_IDP_Hooks@@UEAAHPEAVargloc_t@@0@Z 0000000180046ac0 f   idp.obj
 0001:00045c90       ?ev_extract_address@SwigDirector_IDP_Hooks@@UEAAHPEAIIPEBD_K@Z 0000000180046c90 f   idp.obj
 0001:00045f10       ?ev_find_op_value@SwigDirector_IDP_Hooks@@UEAAPEAU_object@@PEBVinsn_t@@H@Z 0000000180046f10 f   idp.obj
 0001:00046090       ?ev_find_reg_value@SwigDirector_IDP_Hooks@@UEAAPEAU_object@@PEBVinsn_t@@H@Z 0000000180047090 f   idp.obj
 0001:00046210       ?ev_func_bounds@SwigDirector_IDP_Hooks@@UEAAXPEAHPEAVfunc_t@@I@Z 0000000180047210 f   idp.obj
 0001:000463d0       ?ev_gen_asm_or_lst@SwigDirector_IDP_Hooks@@UEAAX_NPEAU_iobuf@@0HPEAP6AH1AEBV?$_qstring@D@@II@Z@Z 00000001800473d0 f   idp.obj
 0001:00046620       ?ev_gen_map_file@SwigDirector_IDP_Hooks@@UEAAHPEAHPEAU_iobuf@@@Z 0000000180047620 f   idp.obj
 0001:000467f0       ?ev_gen_regvar_def@SwigDirector_IDP_Hooks@@UEAAHPEAUoutctx_t@@PEAUregvar_t@@@Z 00000001800477f0 f   idp.obj
 0001:000469c0       ?ev_gen_src_file_lnnum@SwigDirector_IDP_Hooks@@UEAAHXZ 00000001800479c0 f   idp.obj
 0001:00046ae0       ?ev_gen_stkvar_def@SwigDirector_IDP_Hooks@@UEAAHPEAUoutctx_t@@PEBVmember_t@@H@Z 0000000180047ae0 f   idp.obj
 0001:00046cf0       ?ev_get_abi_info@SwigDirector_IDP_Hooks@@UEAAHPEAV?$qvector@V?$_qstring@D@@@@0E@Z 0000000180047cf0 f   idp.obj
 0001:00046f00       ?ev_get_autocmt@SwigDirector_IDP_Hooks@@UEAAHPEAV?$_qstring@D@@PEBVinsn_t@@@Z 0000000180047f00 f   idp.obj
 0001:00047080       ?ev_get_bg_color@SwigDirector_IDP_Hooks@@UEAAHPEAII@Z 0000000180048080 f   idp.obj
 0001:00047360       ?ev_get_cc_regs@SwigDirector_IDP_Hooks@@UEAAHPEAVcallregs_t@@E@Z 0000000180048360 f   idp.obj
 0001:00047530       ?ev_get_dbr_opnum@SwigDirector_IDP_Hooks@@UEAAHPEAHPEBVinsn_t@@@Z 0000000180048530 f   idp.obj
 0001:00047700       ?ev_get_default_enum_size@SwigDirector_IDP_Hooks@@UEAAHE@Z 0000000180048700 f   idp.obj
 0001:00047860       ?ev_get_frame_retsize@SwigDirector_IDP_Hooks@@UEAAHPEAHPEBVfunc_t@@@Z 0000000180048860 f   idp.obj
 0001:00047a30       ?ev_get_macro_insn_head@SwigDirector_IDP_Hooks@@UEAAHPEAII@Z 0000000180048a30 f   idp.obj
 0001:00047c00       ?ev_get_operand_string@SwigDirector_IDP_Hooks@@UEAAHPEAV?$_qstring@D@@PEBVinsn_t@@H@Z 0000000180048c00 f   idp.obj
 0001:00047dd0       ?ev_get_reg_info@SwigDirector_IDP_Hooks@@UEAAHPEAPEBDPEAVbitrange_t@@PEBD@Z 0000000180048dd0 f   idp.obj
 0001:00048000       ?ev_get_reg_name@SwigDirector_IDP_Hooks@@UEAAPEAU_object@@H_KH@Z 0000000180049000 f   idp.obj
 0001:000481c0       ?ev_get_simd_types@SwigDirector_IDP_Hooks@@UEAAHPEAV?$qvector@Usimd_info_t@@@@PEBUsimd_info_t@@PEBVargloc_t@@_N@Z 00000001800491c0 f   idp.obj
 0001:00048430       ?ev_get_stkarg_offset@SwigDirector_IDP_Hooks@@UEAAHXZ 0000000180049430 f   idp.obj
 0001:00048550       ?ev_get_stkvar_scale_factor@SwigDirector_IDP_Hooks@@UEAAHXZ 0000000180049550 f   idp.obj
 0001:00048670       ?ev_getreg@SwigDirector_IDP_Hooks@@UEAAHPEAIH@Z 0000000180049670 f   idp.obj
 0001:00048840       ?ev_init@SwigDirector_IDP_Hooks@@UEAAHPEBD@Z 0000000180049840 f   idp.obj
 0001:000489c0       ?ev_insn_reads_tbit@SwigDirector_IDP_Hooks@@UEAAHPEBVinsn_t@@P6AAEBUregval_t@@PEBDPEBU3@@Z2@Z 00000001800499c0 f   idp.obj
 0001:00048be0       ?ev_is_align_insn@SwigDirector_IDP_Hooks@@UEAAHI@Z 0000000180049be0 f   idp.obj
 0001:00048d40       ?ev_is_alloca_probe@SwigDirector_IDP_Hooks@@UEAAHI@Z 0000000180049d40 f   idp.obj
 0001:00048ea0       ?ev_is_basic_block_end@SwigDirector_IDP_Hooks@@UEAAHPEBVinsn_t@@_N@Z 0000000180049ea0 f   idp.obj
 0001:00049070       ?ev_is_call_insn@SwigDirector_IDP_Hooks@@UEAAHPEBVinsn_t@@@Z 000000018004a070 f   idp.obj
 0001:000491e0       ?ev_is_cond_insn@SwigDirector_IDP_Hooks@@UEAAHPEBVinsn_t@@@Z 000000018004a1e0 f   idp.obj
 0001:00049350       ?ev_is_far_jump@SwigDirector_IDP_Hooks@@UEAAHH@Z 000000018004a350 f   idp.obj
 0001:000494b0       ?ev_is_indirect_jump@SwigDirector_IDP_Hooks@@UEAAHPEBVinsn_t@@@Z 000000018004a4b0 f   idp.obj
 0001:00049620       ?ev_is_insn_table_jump@SwigDirector_IDP_Hooks@@UEAAHPEBVinsn_t@@@Z 000000018004a620 f   idp.obj
 0001:00049790       ?ev_is_jump_func@SwigDirector_IDP_Hooks@@UEAAHPEAVfunc_t@@PEAI1@Z 000000018004a790 f   idp.obj
 0001:000499b0       ?ev_is_ret_insn@SwigDirector_IDP_Hooks@@UEAAHPEBVinsn_t@@_N@Z 000000018004a9b0 f   idp.obj
 0001:00049b80       ?ev_is_sane_insn@SwigDirector_IDP_Hooks@@UEAAHPEBVinsn_t@@H@Z 000000018004ab80 f   idp.obj
 0001:00049d50       ?ev_is_sp_based@SwigDirector_IDP_Hooks@@UEAAHPEAHPEBVinsn_t@@PEBVop_t@@@Z 000000018004ad50 f   idp.obj
 0001:00049f70       ?ev_is_switch@SwigDirector_IDP_Hooks@@UEAAHPEAUswitch_info_t@@PEBVinsn_t@@@Z 000000018004af70 f   idp.obj
 0001:0004a140       ?ev_loader@SwigDirector_IDP_Hooks@@UEAAHXZ 000000018004b140 f   idp.obj
 0001:0004a260       ?ev_lower_func_type@SwigDirector_IDP_Hooks@@UEAAHPEAV?$qvector@H@@PEAUfunc_type_data_t@@@Z 000000018004b260 f   idp.obj
 0001:0004a430       ?ev_max_ptr_size@SwigDirector_IDP_Hooks@@UEAAHXZ 000000018004b430 f   idp.obj
 0001:0004a550       ?ev_may_be_func@SwigDirector_IDP_Hooks@@UEAAHPEBVinsn_t@@H@Z 000000018004b550 f   idp.obj
 0001:0004a720       ?ev_may_show_sreg@SwigDirector_IDP_Hooks@@UEAAHI@Z 000000018004b720 f   idp.obj
 0001:0004a880       ?ev_moving_segm@SwigDirector_IDP_Hooks@@UEAAHPEAVsegment_t@@IH@Z 000000018004b880 f   idp.obj
 0001:0004aa90       ?ev_newasm@SwigDirector_IDP_Hooks@@UEAAHH@Z 000000018004ba90 f   idp.obj
 0001:0004abf0       ?ev_newbinary@SwigDirector_IDP_Hooks@@UEAAHPEAD_JII_K@Z 000000018004bbf0 f   idp.obj
 0001:0004aed0       ?ev_newfile@SwigDirector_IDP_Hooks@@UEAAHPEAD@Z 000000018004bed0 f   idp.obj
 0001:0004b050       ?ev_newprc@SwigDirector_IDP_Hooks@@UEAAHH_N@Z 000000018004c050 f   idp.obj
 0001:0004b210       ?ev_next_exec_insn@SwigDirector_IDP_Hooks@@UEAAHPEAIIHP6AAEBUregval_t@@PEBDPEBU2@@Z2@Z 000000018004c210 f   idp.obj
 0001:0004b4c0       ?ev_oldfile@SwigDirector_IDP_Hooks@@UEAAHPEAD@Z 000000018004c4c0 f   idp.obj
 0001:0004b640       ?ev_out_assumes@SwigDirector_IDP_Hooks@@UEAAHPEAUoutctx_t@@@Z 000000018004c640 f   idp.obj
 0001:0004b7b0       ?ev_out_data@SwigDirector_IDP_Hooks@@UEAAHPEAUoutctx_t@@_N@Z 000000018004c7b0 f   idp.obj
 0001:0004b980       ?ev_out_footer@SwigDirector_IDP_Hooks@@UEAAXPEAUoutctx_t@@@Z 000000018004c980 f   idp.obj
 0001:0004baa0       ?ev_out_header@SwigDirector_IDP_Hooks@@UEAAXPEAUoutctx_t@@@Z 000000018004caa0 f   idp.obj
 0001:0004bbc0       ?ev_out_insn@SwigDirector_IDP_Hooks@@UEAA_NPEAUoutctx_t@@@Z 000000018004cbc0 f   idp.obj
 0001:0004bd20       ?ev_out_label@SwigDirector_IDP_Hooks@@UEAAHPEAUoutctx_t@@PEBD@Z 000000018004cd20 f   idp.obj
 0001:0004bf00       ?ev_out_mnem@SwigDirector_IDP_Hooks@@UEAAHPEAUoutctx_t@@@Z 000000018004cf00 f   idp.obj
 0001:0004c070       ?ev_out_operand@SwigDirector_IDP_Hooks@@UEAA_NPEAUoutctx_t@@PEBVop_t@@@Z 000000018004d070 f   idp.obj
 0001:0004c230       ?ev_out_segend@SwigDirector_IDP_Hooks@@UEAAHPEAUoutctx_t@@PEAVsegment_t@@@Z 000000018004d230 f   idp.obj
 0001:0004c400       ?ev_out_segstart@SwigDirector_IDP_Hooks@@UEAAHPEAUoutctx_t@@PEAVsegment_t@@@Z 000000018004d400 f   idp.obj
 0001:0004c5d0       ?ev_out_special_item@SwigDirector_IDP_Hooks@@UEAAHPEAUoutctx_t@@E@Z 000000018004d5d0 f   idp.obj
 0001:0004c7a0       ?ev_realcvt@SwigDirector_IDP_Hooks@@UEAAHPEAXPEAGG@Z 000000018004d7a0 f   idp.obj
 0001:0004c9b0       ?ev_rename@SwigDirector_IDP_Hooks@@UEAAHIPEBD@Z 000000018004d9b0 f   idp.obj
 0001:0004cb80       ?ev_set_idp_options@SwigDirector_IDP_Hooks@@UEAAHPEBDHPEBXPEAPEBD@Z 000000018004db80 f   idp.obj
 0001:0004ce00       ?ev_set_proc_options@SwigDirector_IDP_Hooks@@UEAAHPEBDH@Z 000000018004de00 f   idp.obj
 0001:0004cfd0       ?ev_setup_til@SwigDirector_IDP_Hooks@@UEAAXXZ 000000018004dfd0 f   idp.obj
 0001:0004d0b0       ?ev_shadow_args_size@SwigDirector_IDP_Hooks@@UEAAHPEAHPEAVfunc_t@@@Z 000000018004e0b0 f   idp.obj
 0001:0004d280       ?ev_str2reg@SwigDirector_IDP_Hooks@@UEAAHPEBD@Z 000000018004e280 f   idp.obj
 0001:0004d400       ?ev_term@SwigDirector_IDP_Hooks@@UEAAHXZ 000000018004e400 f   idp.obj
 0001:0004d520       ?ev_treat_hindering_item@SwigDirector_IDP_Hooks@@UEAAHIIII@Z 000000018004e520 f   idp.obj
 0001:0004d770       ?ev_undefine@SwigDirector_IDP_Hooks@@UEAAHI@Z 000000018004e770 f   idp.obj
 0001:0004d8d0       ?ev_use_arg_types@SwigDirector_IDP_Hooks@@UEAAHIPEAUfunc_type_data_t@@PEAV?$qvector@Ufuncarg_t@@@@@Z 000000018004e8d0 f   idp.obj
 0001:0004daf0       ?ev_use_regarg_type@SwigDirector_IDP_Hooks@@UEAAPEAU_object@@IPEBV?$qvector@Ufuncarg_t@@@@@Z 000000018004eaf0 f   idp.obj
 0001:0004dc70       ?ev_use_stkarg_type@SwigDirector_IDP_Hooks@@UEAAHIPEBUfuncarg_t@@@Z 000000018004ec70 f   idp.obj
 0001:0004de40       ?ev_validate_flirt_func@SwigDirector_IDP_Hooks@@UEAAHIPEBD@Z 000000018004ee40 f   idp.obj
 0001:0004e010       ?ev_verify_noreturn@SwigDirector_IDP_Hooks@@UEAAHPEAVfunc_t@@@Z 000000018004f010 f   idp.obj
 0001:0004e180       ?ev_verify_sp@SwigDirector_IDP_Hooks@@UEAAHPEAVfunc_t@@@Z 000000018004f180 f   idp.obj
 0001:0004e2f0       ?expanding_struc@SwigDirector_IDB_Hooks@@UEAAHPEAVstruc_t@@IH@Z 000000018004f2f0 f   idp.obj
 0001:0004e500       ?extlang_changed@SwigDirector_IDB_Hooks@@UEAAHHPEAUextlang_t@@H@Z 000000018004f500 f   idp.obj
 0001:0004e710       ?extra_cmt_changed@SwigDirector_IDB_Hooks@@UEAAHIHPEBD@Z 000000018004f710 f   idp.obj
 0001:0004e930       ?flow_chart_created@SwigDirector_IDB_Hooks@@UEAAHPEAVqflow_chart_t@@@Z 000000018004f930 f   idp.obj
 0001:0004eaa0       ?frame_deleted@SwigDirector_IDB_Hooks@@UEAAHPEAVfunc_t@@@Z 000000018004faa0 f   idp.obj
 0001:0004ec10       ?func_added@SwigDirector_IDB_Hooks@@UEAAHPEAVfunc_t@@@Z 000000018004fc10 f   idp.obj
 0001:0004ed80       ?func_noret_changed@SwigDirector_IDB_Hooks@@UEAAHPEAVfunc_t@@@Z 000000018004fd80 f   idp.obj
 0001:0004eef0       ?func_tail_appended@SwigDirector_IDB_Hooks@@UEAAHPEAVfunc_t@@0@Z 000000018004fef0 f   idp.obj
 0001:0004f0c0       ?func_tail_deleted@SwigDirector_IDB_Hooks@@UEAAHPEAVfunc_t@@I@Z 00000001800500c0 f   idp.obj
 0001:0004f290       ?func_updated@SwigDirector_IDB_Hooks@@UEAAHPEAVfunc_t@@@Z 0000000180050290 f   idp.obj
 0001:0004f400       ?gen_idb_event@@YAXW4event_code_t@idb_event@@ZZ 0000000180050400 f i idp.obj
 0001:0004f530       ?handle_delay_slot_insn_output@IDP_Hooks@@CA_JPEAU_object@@PEAIPEA_N2@Z 0000000180050530 f i idp.obj
 0001:0004f710       ?handle_demangle_name_output@IDP_Hooks@@CA_JPEAU_object@@PEAHPEAV?$_qstring@D@@PEBDIW4demreq_type_t@@@Z 0000000180050710 f i idp.obj
 0001:0004f8a0       ?idasgn_loaded@SwigDirector_IDB_Hooks@@UEAAHPEBD@Z 00000001800508a0 f   idp.obj
 0001:0004fa20       ?item_color_changed@SwigDirector_IDB_Hooks@@UEAAHII@Z 0000000180050a20 f   idp.obj
 0001:0004fbe0       ?kernel_config_loaded@SwigDirector_IDB_Hooks@@UEAAHXZ 0000000180050be0 f   idp.obj
 0001:0004fd00       ?loader_finished@SwigDirector_IDB_Hooks@@UEAAHPEAVlinput_t@@GPEBD@Z 0000000180050d00 f   idp.obj
 0001:0004ff20       ?local_types_changed@SwigDirector_IDB_Hooks@@UEAAHXZ 0000000180050f20 f   idp.obj
 0001:00050040       ?make_code@SwigDirector_IDB_Hooks@@UEAAHPEBVinsn_t@@@Z 0000000180051040 f   idp.obj
 0001:000501b0       ?make_data@SwigDirector_IDB_Hooks@@UEAAHIIII@Z 00000001800511b0 f   idp.obj
 0001:00050400       ?msg@@YAHPEBDZZ            0000000180051400 f i idp.obj
 0001:00050440       ?notify@processor_t@@QEAA_JW4event_t@1@ZZ 0000000180051440 f i idp.obj
 0001:00050470       ?op_ti_changed@SwigDirector_IDB_Hooks@@UEAAHIHPEBE0@Z 0000000180051470 f   idp.obj
 0001:000506f0       ?op_type_changed@SwigDirector_IDB_Hooks@@UEAAHIH@Z 00000001800516f0 f   idp.obj
 0001:00050bd0       ?raise@DirectorException@Swig@@SAXPEAU_object@@PEBD@Z 0000000180051bd0 f i idp.obj
 0001:00050c10       ?raise@DirectorException@Swig@@SAXPEBD@Z 0000000180051c10 f i idp.obj
 0001:00050c30       ?raise@DirectorMethodException@Swig@@SAXPEBD@Z 0000000180051c30 f i idp.obj
 0001:00050c70       ?raise@DirectorTypeMismatchException@Swig@@SAXPEAU_object@@PEBD@Z 0000000180051c70 f i idp.obj
 0001:00050cb0       ?range_cmt_changed@SwigDirector_IDB_Hooks@@UEAAHW4range_kind_t@@PEBUrange_t@@PEBD_N@Z 0000000180051cb0 f   idp.obj
 0001:00050f20       ?renamed@SwigDirector_IDB_Hooks@@UEAAHIPEBD_N@Z 0000000180051f20 f   idp.obj
 0001:00051150       ?renaming_enum@SwigDirector_IDB_Hooks@@UEAAHI_NPEBD@Z 0000000180052150 f   idp.obj
 0001:00051370       ?renaming_struc@SwigDirector_IDB_Hooks@@UEAAHIPEBD0@Z 0000000180052370 f   idp.obj
 0001:000515a0       ?renaming_struc_member@SwigDirector_IDB_Hooks@@UEAAHPEAVstruc_t@@PEAVmember_t@@PEBD@Z 00000001800525a0 f   idp.obj
 0001:000517d0       ?savebase@SwigDirector_IDB_Hooks@@UEAAHXZ 00000001800527d0 f   idp.obj
 0001:000518f0       ?segm_added@SwigDirector_IDB_Hooks@@UEAAHPEAVsegment_t@@@Z 00000001800528f0 f   idp.obj
 0001:00051a60       ?segm_attrs_updated@SwigDirector_IDB_Hooks@@UEAAHPEAVsegment_t@@@Z 0000000180052a60 f   idp.obj
 0001:00051bd0       ?segm_class_changed@SwigDirector_IDB_Hooks@@UEAAHPEAVsegment_t@@PEBD@Z 0000000180052bd0 f   idp.obj
 0001:00051db0       ?segm_deleted@SwigDirector_IDB_Hooks@@UEAAHII@Z 0000000180052db0 f   idp.obj
 0001:00051f70       ?segm_end_changed@SwigDirector_IDB_Hooks@@UEAAHPEAVsegment_t@@I@Z 0000000180052f70 f   idp.obj
 0001:00052140       ?segm_moved@SwigDirector_IDB_Hooks@@UEAAHIII_N@Z 0000000180053140 f   idp.obj
 0001:00052390       ?segm_name_changed@SwigDirector_IDB_Hooks@@UEAAHPEAVsegment_t@@PEBD@Z 0000000180053390 f   idp.obj
 0001:00052570       ?segm_start_changed@SwigDirector_IDB_Hooks@@UEAAHPEAVsegment_t@@I@Z 0000000180053570 f   idp.obj
 0001:00052740       ?set_func_end@SwigDirector_IDB_Hooks@@UEAAHPEAVfunc_t@@I@Z 0000000180053740 f   idp.obj
 0001:00052910       ?set_func_start@SwigDirector_IDB_Hooks@@UEAAHPEAVfunc_t@@I@Z 0000000180053910 f   idp.obj
 0001:00052b90       ?sgr_changed@SwigDirector_IDB_Hooks@@UEAAHIIHIIE@Z 0000000180053b90 f   idp.obj
 0001:00052e80       ?sgr_deleted@SwigDirector_IDB_Hooks@@UEAAHIIH@Z 0000000180053e80 f   idp.obj
 0001:00053080       ?sprnt@?$_qstring@D@@QEAAAEAV1@PEBDZZ 0000000180054080 f i idp.obj
 0001:00053140       ?stkpnts_changed@SwigDirector_IDB_Hooks@@UEAAHPEAVfunc_t@@@Z 0000000180054140 f   idp.obj
 0001:000532b0       ?struc_align_changed@SwigDirector_IDB_Hooks@@UEAAHPEAVstruc_t@@@Z 00000001800542b0 f   idp.obj
 0001:00053420       ?struc_cmt_changed@SwigDirector_IDB_Hooks@@UEAAHI_N@Z 0000000180054420 f   idp.obj
 0001:000535e0       ?struc_created@SwigDirector_IDB_Hooks@@UEAAHI@Z 00000001800545e0 f   idp.obj
 0001:00053740       ?struc_deleted@SwigDirector_IDB_Hooks@@UEAAHI@Z 0000000180054740 f   idp.obj
 0001:000538a0       ?struc_expanded@SwigDirector_IDB_Hooks@@UEAAHPEAVstruc_t@@@Z 00000001800548a0 f   idp.obj
 0001:00053a10       ?struc_member_changed@SwigDirector_IDB_Hooks@@UEAAHPEAVstruc_t@@PEAVmember_t@@@Z 0000000180054a10 f   idp.obj
 0001:00053be0       ?struc_member_created@SwigDirector_IDB_Hooks@@UEAAHPEAVstruc_t@@PEAVmember_t@@@Z 0000000180054be0 f   idp.obj
 0001:00053db0       ?struc_member_deleted@SwigDirector_IDB_Hooks@@UEAAHPEAVstruc_t@@II@Z 0000000180054db0 f   idp.obj
 0001:00053fc0       ?struc_member_renamed@SwigDirector_IDB_Hooks@@UEAAHPEAVstruc_t@@PEAVmember_t@@@Z 0000000180054fc0 f   idp.obj
 0001:00054190       ?struc_renamed@SwigDirector_IDB_Hooks@@UEAAHPEAVstruc_t@@@Z 0000000180055190 f   idp.obj
 0001:00054300       __scrt_stub_for_acrt_uninitialize_critical 0000000180055300 f i MSVCRT:ucrt_stubs.obj
 0001:00054300       __scrt_stub_for_acrt_thread_detach 0000000180055300 f i MSVCRT:ucrt_stubs.obj
 0001:00054300       __acrt_uninitialize_critical 0000000180055300 f i MSVCRT:ucrt_stubs.obj
 0001:00054300       __vcrt_uninitialize        0000000180055300 f i MSVCRT:ucrt_stubs.obj
 0001:00054300       __vcrt_thread_detach       0000000180055300 f i MSVCRT:ucrt_stubs.obj
 0001:00054300       __vcrt_initialize          0000000180055300 f i MSVCRT:ucrt_stubs.obj
 0001:00054300       __vcrt_thread_attach       0000000180055300 f i MSVCRT:ucrt_stubs.obj
 0001:00054300       __acrt_initialize          0000000180055300 f i MSVCRT:ucrt_stubs.obj
 0001:00054300       __scrt_stub_for_acrt_uninitialize 0000000180055300 f i MSVCRT:ucrt_stubs.obj
 0001:00054300       __vcrt_uninitialize_critical 0000000180055300 f i MSVCRT:ucrt_stubs.obj
 0001:00054300       __scrt_stub_for_acrt_thread_attach 0000000180055300 f i MSVCRT:ucrt_stubs.obj
 0001:00054300       __scrt_stub_for_acrt_initialize 0000000180055300 f i MSVCRT:ucrt_stubs.obj
 0001:00054300       __acrt_thread_attach       0000000180055300 f i MSVCRT:ucrt_stubs.obj
 0001:00054300       __acrt_thread_detach       0000000180055300 f i MSVCRT:ucrt_stubs.obj
 0001:00054300       ?swig_get_inner@Director@Swig@@UEBA_NPEBD@Z 0000000180055300 f i idp.obj
 0001:00054300       __acrt_uninitialize        0000000180055300 f i MSVCRT:ucrt_stubs.obj
 0001:00054310       ?swig_get_inner@SwigDirector_IDP_Hooks@@UEBA_NPEBD@Z 0000000180055310 f i idp.obj
 0001:00054310       ?swig_get_inner@SwigDirector_IDB_Hooks@@UEBA_NPEBD@Z 0000000180055310 f i idp.obj
 0001:000544c0       ?swig_release_ownership@Director@Swig@@QEBAHPEAX@Z 00000001800554c0 f i idp.obj
 0001:000545e0       ?swig_set_inner@SwigDirector_IDB_Hooks@@UEBAXPEBD_N@Z 00000001800555e0 f i idp.obj
 0001:000545e0       ?swig_set_inner@SwigDirector_IDP_Hooks@@UEBAXPEBD_N@Z 00000001800555e0 f i idp.obj
 0001:000546b0       ?tail_owner_changed@SwigDirector_IDB_Hooks@@UEAAHPEAVfunc_t@@II@Z 00000001800556b0 f   idp.obj
 0001:000548c0       ?thunk_func_created@SwigDirector_IDB_Hooks@@UEAAHPEAVfunc_t@@@Z 00000001800558c0 f   idp.obj
 0001:00054a30       ?ti_changed@SwigDirector_IDB_Hooks@@UEAAHIPEBE0@Z 0000000180055a30 f   idp.obj
 0001:00054c60       ?tryblks_updated@SwigDirector_IDB_Hooks@@UEAAHPEBV?$qvector@Vtryblk_t@@@@@Z 0000000180055c60 f   idp.obj
 0001:00054dd0       ?updating_tryblks@SwigDirector_IDB_Hooks@@UEAAHPEBV?$qvector@Vtryblk_t@@@@@Z 0000000180055dd0 f   idp.obj
 0001:00054f40       ?upgraded@SwigDirector_IDB_Hooks@@UEAAHH@Z 0000000180055f40 f   idp.obj
 0001:000550a0       ?what@DirectorException@Swig@@UEBAPEBDXZ 00000001800560a0 f i idp.obj
 0001:000550b0       ?what@exception@std@@UEBAPEBDXZ 00000001800560b0 f i idp.obj
 0001:000550d0       PyInit__ida_idp            00000001800560d0 f   idp.obj
 0001:00057bd0       __local_stdio_printf_options 0000000180058bd0 f i idp.obj
 0001:00057f30       printf                     0000000180058f30 f i idp.obj
 0001:00058233       interr                     0000000180059233 f   ida:ida.dll
 0001:00058239       qalloc                     0000000180059239 f   ida:ida.dll
 0001:0005823f       qfree                      000000018005923f f   ida:ida.dll
 0001:00058245       qvsnprintf                 0000000180059245 f   ida:ida.dll
 0001:0005824b       qalloc_or_throw            000000018005924b f   ida:ida.dll
 0001:00058251       qvector_reserve            0000000180059251 f   ida:ida.dll
 0001:00058257       is_main_thread             0000000180059257 f   ida:ida.dll
 0001:0005825d       invoke_callbacks           000000018005925d f   ida:ida.dll
 0001:00058263       patch_bytes                0000000180059263 f   ida:ida.dll
 0001:00058269       cfg_get_cc_parm            0000000180059269 f   ida:ida.dll
 0001:0005826f       has_insn_feature           000000018005926f f   ida:ida.dll
 0001:00058275       is_call_insn               0000000180059275 f   ida:ida.dll
 0001:0005827b       is_ret_insn                000000018005927b f   ida:ida.dll
 0001:00058281       is_indirect_jump_insn      0000000180059281 f   ida:ida.dll
 0001:00058287       is_basic_block_end         0000000180059287 f   ida:ida.dll
 0001:0005828d       str2reg                    000000018005928d f   ida:ida.dll
 0001:00058293       is_align_insn              0000000180059293 f   ida:ida.dll
 0001:00058299       get_reg_name               0000000180059299 f   ida:ida.dll
 0001:0005829f       parse_reg_name             000000018005929f f   ida:ida.dll
 0001:000582a5       set_processor_type         00000001800592a5 f   ida:ida.dll
 0001:000582ab       get_idp_name               00000001800592ab f   ida:ida.dll
 0001:000582b1       set_target_assembler       00000001800592b1 f   ida:ida.dll
 0001:000582b7       PyW_GetNumber              00000001800592b7 f   python:python.dll
 0001:000582bd       PyW_PyListToEaVec          00000001800592bd f   python:python.dll
 0001:000582c3       get_callable_arg_count     00000001800592c3 f   python:python.dll
 0001:000582c9       idapython_hook_to_notification_point 00000001800592c9 f   python:python.dll
 0001:000582cf       idapython_unhook_from_notification_point 00000001800592cf f   python:python.dll
 0001:000582d5       ?_Xlength_error@std@@YAXPEBD@Z 00000001800592d5 f   msvcprt:MSVCP140.dll
 0001:000582dc       ??2@YAPEAX_K@Z             00000001800592dc f   MSVCRT:new_scalar.obj
 0001:00058318       ??_V@YAXPEAX@Z             0000000180059318 f   MSVCRT:delete_array.obj
 0001:00058318       ??3@YAXPEAX_K@Z            0000000180059318 f   MSVCRT:delete_scalar_size.obj
 0001:00058320       ??_U@YAPEAX_K@Z            0000000180059320 f   MSVCRT:new_array.obj
 0001:00058328       __scrt_acquire_startup_lock 0000000180059328 f   MSVCRT:utility.obj
 0001:00058364       __scrt_dllmain_after_initialize_c 0000000180059364 f   MSVCRT:utility.obj
 0001:00058398       __scrt_dllmain_before_initialize_c 0000000180059398 f   MSVCRT:utility.obj
 0001:000583b0       __scrt_dllmain_crt_thread_attach 00000001800593b0 f   MSVCRT:utility.obj
 0001:000583d8       __scrt_dllmain_crt_thread_detach 00000001800593d8 f   MSVCRT:utility.obj
 0001:000583f0       __scrt_dllmain_exception_filter 00000001800593f0 f   MSVCRT:utility.obj
 0001:00058450       __scrt_dllmain_uninitialize_c 0000000180059450 f   MSVCRT:utility.obj
 0001:00058480       __scrt_dllmain_uninitialize_critical 0000000180059480 f   MSVCRT:utility.obj
 0001:00058494       __scrt_initialize_crt      0000000180059494 f   MSVCRT:utility.obj
 0001:000584e0       __scrt_initialize_onexit_tables 00000001800594e0 f   MSVCRT:utility.obj
 0001:000585b8       __scrt_is_nonwritable_in_current_image 00000001800595b8 f   MSVCRT:utility.obj
 0001:00058654       __scrt_release_startup_lock 0000000180059654 f   MSVCRT:utility.obj
 0001:00058678       __scrt_uninitialize_crt    0000000180059678 f   MSVCRT:utility.obj
 0001:000586a4       _onexit                    00000001800596a4 f   MSVCRT:utility.obj
 0001:000586f4       atexit                     00000001800596f4 f   MSVCRT:utility.obj
 0001:00058894       _Init_thread_abort         0000000180059894 f   MSVCRT:thread_safe_statics.obj
 0001:000588c4       _Init_thread_footer        00000001800598c4 f   MSVCRT:thread_safe_statics.obj
 0001:00058924       _Init_thread_header        0000000180059924 f   MSVCRT:thread_safe_statics.obj
 0001:0005898c       _Init_thread_notify        000000018005998c f   MSVCRT:thread_safe_statics.obj
 0001:000589dc       _Init_thread_wait          00000001800599dc f   MSVCRT:thread_safe_statics.obj
 0001:00058a54       __GSHandlerCheck           0000000180059a54 f   MSVCRT:gshandler.obj
 0001:00058a74       __GSHandlerCheckCommon     0000000180059a74 f   MSVCRT:gshandler.obj
 0001:00058ad0       __GSHandlerCheck_EH        0000000180059ad0 f   MSVCRT:gshandlereh.obj
 0001:00058b60       __security_check_cookie    0000000180059b60 f   MSVCRT:amdsecgs.obj
 0001:00058b84       ??_Etype_info@@UEAAPEAXI@Z 0000000180059b84 f i MSVCRT:std_type_info_static.obj
 0001:00058b84       ??_Gtype_info@@UEAAPEAXI@Z 0000000180059b84 f i MSVCRT:std_type_info_static.obj
 0001:00058ee0       _DllMainCRTStartup         0000000180059ee0 f   MSVCRT:dll_dllmain.obj
 0001:00058f20       ??0bad_alloc@std@@QEAA@AEBV01@@Z 0000000180059f20 f i MSVCRT:throw_bad_alloc.obj
 0001:00058f60       ??0bad_alloc@std@@QEAA@XZ  0000000180059f60 f i MSVCRT:throw_bad_alloc.obj
 0001:00058f80       ??0bad_array_new_length@std@@QEAA@AEBV01@@Z 0000000180059f80 f i MSVCRT:throw_bad_alloc.obj
 0001:00058fc0       ??0bad_array_new_length@std@@QEAA@XZ 0000000180059fc0 f i MSVCRT:throw_bad_alloc.obj
 0001:00058fe0       ?__scrt_throw_std_bad_alloc@@YAXXZ 0000000180059fe0 f   MSVCRT:throw_bad_alloc.obj
 0001:00059000       ?__scrt_throw_std_bad_array_new_length@@YAXXZ 000000018005a000 f   MSVCRT:throw_bad_alloc.obj
 0001:00059020       ??3@YAXPEAX@Z              000000018005a020 f   MSVCRT:delete_scalar.obj
 0001:00059028       __isa_available_init       000000018005a028 f   MSVCRT:cpu_disp.obj
 0001:000591a4       _get_startup_argv_mode     000000018005a1a4 f   MSVCRT:argv_mode.obj
 0001:000591ac       __scrt_is_ucrt_dll_in_use  000000018005a1ac f   MSVCRT:ucrt_detection.obj
 0001:000591b8       __crt_debugger_hook        000000018005a1b8 f   MSVCRT:utility_desktop.obj
 0001:000591c0       __scrt_fastfail            000000018005a1c0 f   MSVCRT:utility_desktop.obj
 0001:0005930c       __raise_securityfailure    000000018005a30c f   MSVCRT:gs_report.obj
 0001:00059340       __report_gsfailure         000000018005a340 f   MSVCRT:gs_report.obj
 0001:00059488       __security_init_cookie     000000018005a488 f   MSVCRT:gs_support.obj
 0001:00059534       DllMain                    000000018005a534 f   MSVCRT:dll_dllmain_stub.obj
 0001:00059558       ?__scrt_initialize_type_info@@YAXXZ 000000018005a558 f   MSVCRT:tncleanup.obj
 0001:00059568       ?__scrt_uninitialize_type_info@@YAXXZ 000000018005a568 f   MSVCRT:tncleanup.obj
 0001:00059574       __local_stdio_scanf_options 000000018005a574 f i MSVCRT:default_local_stdio_options.obj
 0001:0005957c       __scrt_initialize_default_local_stdio_options 000000018005a57c f   MSVCRT:default_local_stdio_options.obj
 0001:00059598       __scrt_get_dyn_tls_init_callback 000000018005a598 f   MSVCRT:dyn_tls_init.obj
 0001:000595a0       _RTC_Initialize            000000018005a5a0 f   MSVCRT:initsect.obj
 0001:000595dc       _RTC_Terminate             000000018005a5dc f   MSVCRT:initsect.obj
 0001:00059620       IsProcessorFeaturePresent  000000018005a620 f   kernel32:KERNEL32.dll
 0001:00059626       __std_terminate            000000018005a626 f   vcruntime:VCRUNTIME140.dll
 0001:0005962c       strstr                     000000018005a62c f   vcruntime:VCRUNTIME140.dll
 0001:00059632       __std_exception_copy       000000018005a632 f   vcruntime:VCRUNTIME140.dll
 0001:00059638       __std_exception_destroy    000000018005a638 f   vcruntime:VCRUNTIME140.dll
 0001:0005963e       _CxxThrowException         000000018005a63e f   vcruntime:VCRUNTIME140.dll
 0001:00059644       __CxxFrameHandler3         000000018005a644 f   vcruntime:VCRUNTIME140.dll
 0001:0005964a       memcmp                     000000018005a64a f   vcruntime:VCRUNTIME140.dll
 0001:00059650       memcpy                     000000018005a650 f   vcruntime:VCRUNTIME140.dll
 0001:00059656       memmove                    000000018005a656 f   vcruntime:VCRUNTIME140.dll
 0001:0005965c       memset                     000000018005a65c f   vcruntime:VCRUNTIME140.dll
 0001:00059662       __C_specific_handler       000000018005a662 f   vcruntime:VCRUNTIME140.dll
 0001:00059668       __std_type_info_destroy_list 000000018005a668 f   vcruntime:VCRUNTIME140.dll
 0001:0005966e       free                       000000018005a66e f   ucrt:api-ms-win-crt-heap-l1-1-0.dll
 0001:00059674       malloc                     000000018005a674 f   ucrt:api-ms-win-crt-heap-l1-1-0.dll
 0001:0005967a       _callnewh                  000000018005a67a f   ucrt:api-ms-win-crt-heap-l1-1-0.dll
 0001:00059680       _seh_filter_dll            000000018005a680 f   ucrt:api-ms-win-crt-runtime-l1-1-0.dll
 0001:00059686       _configure_narrow_argv     000000018005a686 f   ucrt:api-ms-win-crt-runtime-l1-1-0.dll
 0001:0005968c       _initialize_narrow_environment 000000018005a68c f   ucrt:api-ms-win-crt-runtime-l1-1-0.dll
 0001:00059692       _initialize_onexit_table   000000018005a692 f   ucrt:api-ms-win-crt-runtime-l1-1-0.dll
 0001:00059698       _register_onexit_function  000000018005a698 f   ucrt:api-ms-win-crt-runtime-l1-1-0.dll
 0001:0005969e       _execute_onexit_table      000000018005a69e f   ucrt:api-ms-win-crt-runtime-l1-1-0.dll
 0001:000596a4       _crt_atexit                000000018005a6a4 f   ucrt:api-ms-win-crt-runtime-l1-1-0.dll
 0001:000596aa       _cexit                     000000018005a6aa f   ucrt:api-ms-win-crt-runtime-l1-1-0.dll
 0001:000596b0       _initterm                  000000018005a6b0 f   ucrt:api-ms-win-crt-runtime-l1-1-0.dll
 0001:000596b6       _initterm_e                000000018005a6b6 f   ucrt:api-ms-win-crt-runtime-l1-1-0.dll
 0001:000596d0       _guard_dispatch_icall_nop  000000018005a6d0 f   MSVCRT:guard_dispatch.obj
 0002:00000000       __imp_QueryPerformanceCounter 0000000180070000     kernel32:KERNEL32.dll
 0002:00000008       __imp_DisableThreadLibraryCalls 0000000180070008     kernel32:KERNEL32.dll
 0002:00000010       __imp_EnterCriticalSection 0000000180070010     kernel32:KERNEL32.dll
 0002:00000018       __imp_LeaveCriticalSection 0000000180070018     kernel32:KERNEL32.dll
 0002:00000020       __imp_CloseHandle          0000000180070020     kernel32:KERNEL32.dll
 0002:00000028       __imp_InitializeCriticalSectionAndSpinCount 0000000180070028     kernel32:KERNEL32.dll
 0002:00000030       __imp_DeleteCriticalSection 0000000180070030     kernel32:KERNEL32.dll
 0002:00000038       __imp_SetEvent             0000000180070038     kernel32:KERNEL32.dll
 0002:00000040       __imp_ResetEvent           0000000180070040     kernel32:KERNEL32.dll
 0002:00000048       __imp_WaitForSingleObjectEx 0000000180070048     kernel32:KERNEL32.dll
 0002:00000050       __imp_CreateEventW         0000000180070050     kernel32:KERNEL32.dll
 0002:00000058       __imp_GetModuleHandleW     0000000180070058     kernel32:KERNEL32.dll
 0002:00000060       __imp_GetProcAddress       0000000180070060     kernel32:KERNEL32.dll
 0002:00000068       __imp_RtlCaptureContext    0000000180070068     kernel32:KERNEL32.dll
 0002:00000070       __imp_RtlLookupFunctionEntry 0000000180070070     kernel32:KERNEL32.dll
 0002:00000078       __imp_RtlVirtualUnwind     0000000180070078     kernel32:KERNEL32.dll
 0002:00000080       __imp_IsDebuggerPresent    0000000180070080     kernel32:KERNEL32.dll
 0002:00000088       __imp_UnhandledExceptionFilter 0000000180070088     kernel32:KERNEL32.dll
 0002:00000090       __imp_SetUnhandledExceptionFilter 0000000180070090     kernel32:KERNEL32.dll
 0002:00000098       __imp_IsProcessorFeaturePresent 0000000180070098     kernel32:KERNEL32.dll
 0002:000000a0       __imp_GetCurrentProcess    00000001800700a0     kernel32:KERNEL32.dll
 0002:000000a8       __imp_TerminateProcess     00000001800700a8     kernel32:KERNEL32.dll
 0002:000000b0       __imp_GetSystemTimeAsFileTime 00000001800700b0     kernel32:KERNEL32.dll
 0002:000000b8       __imp_GetCurrentProcessId  00000001800700b8     kernel32:KERNEL32.dll
 0002:000000c0       __imp_GetCurrentThreadId   00000001800700c0     kernel32:KERNEL32.dll
 0002:000000c8       __imp_InitializeSListHead  00000001800700c8     kernel32:KERNEL32.dll
 0002:000000d0       \177KERNEL32_NULL_THUNK_DATA 00000001800700d0     kernel32:KERNEL32.dll
 0002:000000d8       __imp_?_Xlength_error@std@@YAXPEBD@Z 00000001800700d8     msvcprt:MSVCP140.dll
 0002:000000e0       \177MSVCP140_NULL_THUNK_DATA 00000001800700e0     msvcprt:MSVCP140.dll
 0002:000000e8       __imp___std_terminate      00000001800700e8     vcruntime:VCRUNTIME140.dll
 0002:000000f0       __imp_strstr               00000001800700f0     vcruntime:VCRUNTIME140.dll
 0002:000000f8       __imp___std_exception_copy 00000001800700f8     vcruntime:VCRUNTIME140.dll
 0002:00000100       __imp___std_exception_destroy 0000000180070100     vcruntime:VCRUNTIME140.dll
 0002:00000108       __imp__CxxThrowException   0000000180070108     vcruntime:VCRUNTIME140.dll
 0002:00000110       __imp___CxxFrameHandler3   0000000180070110     vcruntime:VCRUNTIME140.dll
 0002:00000118       __imp_memcmp               0000000180070118     vcruntime:VCRUNTIME140.dll
 0002:00000120       __imp_memcpy               0000000180070120     vcruntime:VCRUNTIME140.dll
 0002:00000128       __imp_memmove              0000000180070128     vcruntime:VCRUNTIME140.dll
 0002:00000130       __imp_memset               0000000180070130     vcruntime:VCRUNTIME140.dll
 0002:00000138       __imp___C_specific_handler 0000000180070138     vcruntime:VCRUNTIME140.dll
 0002:00000140       __imp___std_type_info_destroy_list 0000000180070140     vcruntime:VCRUNTIME140.dll
 0002:00000148       \177VCRUNTIME140_NULL_THUNK_DATA 0000000180070148     vcruntime:VCRUNTIME140.dll
 0002:00000150       __imp_malloc               0000000180070150     ucrt:api-ms-win-crt-heap-l1-1-0.dll
 0002:00000158       __imp_free                 0000000180070158     ucrt:api-ms-win-crt-heap-l1-1-0.dll
 0002:00000160       __imp__callnewh            0000000180070160     ucrt:api-ms-win-crt-heap-l1-1-0.dll
 0002:00000168       \177api-ms-win-crt-heap-l1-1-0_NULL_THUNK_DATA 0000000180070168     ucrt:api-ms-win-crt-heap-l1-1-0.dll
 0002:00000170       __imp__register_onexit_function 0000000180070170     ucrt:api-ms-win-crt-runtime-l1-1-0.dll
 0002:00000178       __imp__initterm_e          0000000180070178     ucrt:api-ms-win-crt-runtime-l1-1-0.dll
 0002:00000180       __imp__initterm            0000000180070180     ucrt:api-ms-win-crt-runtime-l1-1-0.dll
 0002:00000188       __imp__cexit               0000000180070188     ucrt:api-ms-win-crt-runtime-l1-1-0.dll
 0002:00000190       __imp__invalid_parameter_noinfo_noreturn 0000000180070190     ucrt:api-ms-win-crt-runtime-l1-1-0.dll
 0002:00000198       __imp__seh_filter_dll      0000000180070198     ucrt:api-ms-win-crt-runtime-l1-1-0.dll
 0002:000001a0       __imp__configure_narrow_argv 00000001800701a0     ucrt:api-ms-win-crt-runtime-l1-1-0.dll
 0002:000001a8       __imp__initialize_narrow_environment 00000001800701a8     ucrt:api-ms-win-crt-runtime-l1-1-0.dll
 0002:000001b0       __imp__initialize_onexit_table 00000001800701b0     ucrt:api-ms-win-crt-runtime-l1-1-0.dll
 0002:000001b8       __imp__execute_onexit_table 00000001800701b8     ucrt:api-ms-win-crt-runtime-l1-1-0.dll
 0002:000001c0       __imp__crt_atexit          00000001800701c0     ucrt:api-ms-win-crt-runtime-l1-1-0.dll
 0002:000001c8       \177api-ms-win-crt-runtime-l1-1-0_NULL_THUNK_DATA 00000001800701c8     ucrt:api-ms-win-crt-runtime-l1-1-0.dll
 0002:000001d0       __imp___stdio_common_vfprintf 00000001800701d0     ucrt:api-ms-win-crt-stdio-l1-1-0.dll
 0002:000001d8       __imp___acrt_iob_func      00000001800701d8     ucrt:api-ms-win-crt-stdio-l1-1-0.dll
 0002:000001e0       \177api-ms-win-crt-stdio-l1-1-0_NULL_THUNK_DATA 00000001800701e0     ucrt:api-ms-win-crt-stdio-l1-1-0.dll
 0002:000001e8       __imp__stricmp             00000001800701e8     ucrt:api-ms-win-crt-string-l1-1-0.dll
 0002:000001f0       __imp_strncmp              00000001800701f0     ucrt:api-ms-win-crt-string-l1-1-0.dll
 0002:000001f8       \177api-ms-win-crt-string-l1-1-0_NULL_THUNK_DATA 00000001800701f8     ucrt:api-ms-win-crt-string-l1-1-0.dll
 0002:00000200       __imp_ph                   0000000180070200     ida:ida.dll
 0002:00000208       __imp_callui               0000000180070208     ida:ida.dll
 0002:00000210       __imp_ash                  0000000180070210     ida:ida.dll
 0002:00000218       __imp_dbg                  0000000180070218     ida:ida.dll
 0002:00000220       __imp_under_debugger       0000000180070220     ida:ida.dll
 0002:00000228       __imp_set_target_assembler 0000000180070228     ida:ida.dll
 0002:00000230       __imp_get_idp_name         0000000180070230     ida:ida.dll
 0002:00000238       __imp_set_processor_type   0000000180070238     ida:ida.dll
 0002:00000240       __imp_parse_reg_name       0000000180070240     ida:ida.dll
 0002:00000248       __imp_get_reg_name         0000000180070248     ida:ida.dll
 0002:00000250       __imp_is_align_insn        0000000180070250     ida:ida.dll
 0002:00000258       __imp_str2reg              0000000180070258     ida:ida.dll
 0002:00000260       __imp_is_basic_block_end   0000000180070260     ida:ida.dll
 0002:00000268       __imp_is_indirect_jump_insn 0000000180070268     ida:ida.dll
 0002:00000270       __imp_is_ret_insn          0000000180070270     ida:ida.dll
 0002:00000278       __imp_is_call_insn         0000000180070278     ida:ida.dll
 0002:00000280       __imp_has_insn_feature     0000000180070280     ida:ida.dll
 0002:00000288       __imp_cfg_get_cc_parm      0000000180070288     ida:ida.dll
 0002:00000290       __imp_patch_bytes          0000000180070290     ida:ida.dll
 0002:00000298       __imp_invoke_callbacks     0000000180070298     ida:ida.dll
 0002:000002a0       __imp_is_main_thread       00000001800702a0     ida:ida.dll
 0002:000002a8       __imp_qvector_reserve      00000001800702a8     ida:ida.dll
 0002:000002b0       __imp_qalloc_or_throw      00000001800702b0     ida:ida.dll
 0002:000002b8       __imp_qvsnprintf           00000001800702b8     ida:ida.dll
 0002:000002c0       __imp_qfree                00000001800702c0     ida:ida.dll
 0002:000002c8       __imp_qalloc               00000001800702c8     ida:ida.dll
 0002:000002d0       __imp_inf                  00000001800702d0     ida:ida.dll
 0002:000002d8       __imp_interr               00000001800702d8     ida:ida.dll
 0002:000002e0       \177ida_NULL_THUNK_DATA    00000001800702e0     ida:ida.dll
 0002:000002e8       __imp_get_callable_arg_count 00000001800702e8     python:python.dll
 0002:000002f0       __imp_PyW_PyListToEaVec    00000001800702f0     python:python.dll
 0002:000002f8       __imp_PyW_GetNumber        00000001800702f8     python:python.dll
 0002:00000300       __imp_idapython_hook_to_notification_point 0000000180070300     python:python.dll
 0002:00000308       __imp_idapython_unhook_from_notification_point 0000000180070308     python:python.dll
 0002:00000310       \177python_NULL_THUNK_DATA 0000000180070310     python:python.dll
 0002:00000318       __imp_PySequence_Size      0000000180070318     python38:python38.dll
 0002:00000320       __imp_PySequence_GetItem   0000000180070320     python38:python38.dll
 0002:00000328       __imp_PyObject_IsInstance  0000000180070328     python38:python38.dll
 0002:00000330       __imp_PyType_Type          0000000180070330     python38:python38.dll
 0002:00000338       __imp__Py_NoneStruct       0000000180070338     python38:python38.dll
 0002:00000340       __imp__Py_NotImplementedStruct 0000000180070340     python38:python38.dll
 0002:00000348       __imp_PyBool_Type          0000000180070348     python38:python38.dll
 0002:00000350       __imp__Py_TrueStruct       0000000180070350     python38:python38.dll
 0002:00000358       __imp_PyCFunction_Type     0000000180070358     python38:python38.dll
 0002:00000360       __imp_PySequence_Check     0000000180070360     python38:python38.dll
 0002:00000368       __imp_PyExc_IndexError     0000000180070368     python38:python38.dll
 0002:00000370       __imp_PyExc_MemoryError    0000000180070370     python38:python38.dll
 0002:00000378       __imp_PyExc_OverflowError  0000000180070378     python38:python38.dll
 0002:00000380       __imp_PyExc_RuntimeError   0000000180070380     python38:python38.dll
 0002:00000388       __imp_PyExc_SyntaxError    0000000180070388     python38:python38.dll
 0002:00000390       __imp_PyExc_SystemError    0000000180070390     python38:python38.dll
 0002:00000398       __imp_PyExc_TypeError      0000000180070398     python38:python38.dll
 0002:000003a0       __imp_PyExc_ValueError     00000001800703a0     python38:python38.dll
 0002:000003a8       __imp_PyExc_ZeroDivisionError 00000001800703a8     python38:python38.dll
 0002:000003b0       __imp_PyExc_IOError        00000001800703b0     python38:python38.dll
 0002:000003b8       __imp_PyObject_CallMethodObjArgs 00000001800703b8     python38:python38.dll
 0002:000003c0       __imp_PyObject_CallFunctionObjArgs 00000001800703c0     python38:python38.dll
 0002:000003c8       __imp_PyEval_SaveThread    00000001800703c8     python38:python38.dll
 0002:000003d0       __imp_PyImport_AddModule   00000001800703d0     python38:python38.dll
 0002:000003d8       __imp_PyEval_InitThreads   00000001800703d8     python38:python38.dll
 0002:000003e0       __imp_PyExc_AttributeError 00000001800703e0     python38:python38.dll
 0002:000003e8       __imp_PyEval_RestoreThread 00000001800703e8     python38:python38.dll
 0002:000003f0       __imp_PyErr_Print          00000001800703f0     python38:python38.dll
 0002:000003f8       __imp_PyModule_Create2     00000001800703f8     python38:python38.dll
 0002:00000400       __imp_PyModule_AddObject   0000000180070400     python38:python38.dll
 0002:00000408       __imp_Py_BuildValue        0000000180070408     python38:python38.dll
 0002:00000410       __imp_PyArg_UnpackTuple    0000000180070410     python38:python38.dll
 0002:00000418       __imp_PyGILState_Release   0000000180070418     python38:python38.dll
 0002:00000420       __imp_PyGILState_Ensure    0000000180070420     python38:python38.dll
 0002:00000428       __imp_PyErr_WriteUnraisable 0000000180070428     python38:python38.dll
 0002:00000430       __imp_PyErr_Format         0000000180070430     python38:python38.dll
 0002:00000438       __imp_PyErr_GivenExceptionMatches 0000000180070438     python38:python38.dll
 0002:00000440       __imp_PyErr_Restore        0000000180070440     python38:python38.dll
 0002:00000448       __imp_PyErr_Fetch          0000000180070448     python38:python38.dll
 0002:00000450       __imp_PyErr_Clear          0000000180070450     python38:python38.dll
 0002:00000458       __imp_PyErr_Occurred       0000000180070458     python38:python38.dll
 0002:00000460       __imp_PyErr_SetString      0000000180070460     python38:python38.dll
 0002:00000468       __imp_PyCapsule_Import     0000000180070468     python38:python38.dll
 0002:00000470       __imp_PyCapsule_GetPointer 0000000180070470     python38:python38.dll
 0002:00000478       __imp_PyCapsule_New        0000000180070478     python38:python38.dll
 0002:00000480       __imp_PyModule_GetDict     0000000180070480     python38:python38.dll
 0002:00000488       __imp_PyCFunction_GetFlags 0000000180070488     python38:python38.dll
 0002:00000490       __imp_PyCFunction_GetSelf  0000000180070490     python38:python38.dll
 0002:00000498       __imp_PyCFunction_GetFunction 0000000180070498     python38:python38.dll
 0002:000004a0       __imp_PyDict_SetItemString 00000001800704a0     python38:python38.dll
 0002:000004a8       __imp_PyDict_SetItem       00000001800704a8     python38:python38.dll
 0002:000004b0       __imp_PyDict_GetItem       00000001800704b0     python38:python38.dll
 0002:000004b8       __imp_PyDict_New           00000001800704b8     python38:python38.dll
 0002:000004c0       __imp_PyList_SetItem       00000001800704c0     python38:python38.dll
 0002:000004c8       __imp_PyList_New           00000001800704c8     python38:python38.dll
 0002:000004d0       __imp_PyTuple_GetSlice     00000001800704d0     python38:python38.dll
 0002:000004d8       __imp_PyTuple_SetItem      00000001800704d8     python38:python38.dll
 0002:000004e0       __imp_PyTuple_GetItem      00000001800704e0     python38:python38.dll
 0002:000004e8       __imp_PyTuple_Size         00000001800704e8     python38:python38.dll
 0002:000004f0       __imp_PyTuple_New          00000001800704f0     python38:python38.dll
 0002:000004f8       __imp_PyBool_FromLong      00000001800704f8     python38:python38.dll
 0002:00000500       __imp_PyLong_AsUnsignedLongLong 0000000180070500     python38:python38.dll
 0002:00000508       __imp_PyLong_AsLongLong    0000000180070508     python38:python38.dll
 0002:00000510       __imp_PyLong_FromUnsignedLongLong 0000000180070510     python38:python38.dll
 0002:00000518       __imp_PyLong_FromLongLong  0000000180070518     python38:python38.dll
 0002:00000520       __imp_PyLong_FromVoidPtr   0000000180070520     python38:python38.dll
 0002:00000528       __imp_PyLong_AsUnsignedLong 0000000180070528     python38:python38.dll
 0002:00000530       __imp_PyLong_AsLong        0000000180070530     python38:python38.dll
 0002:00000538       __imp_PyLong_FromSize_t    0000000180070538     python38:python38.dll
 0002:00000540       __imp_PyLong_FromUnsignedLong 0000000180070540     python38:python38.dll
 0002:00000548       __imp_PyLong_FromLong      0000000180070548     python38:python38.dll
 0002:00000550       __imp_PyUnicode_CompareWithASCIIString 0000000180070550     python38:python38.dll
 0002:00000558       __imp_PyUnicode_Concat     0000000180070558     python38:python38.dll
 0002:00000560       __imp_PyUnicode_AsUTF8String 0000000180070560     python38:python38.dll
 0002:00000568       __imp_PyUnicode_DecodeUTF8 0000000180070568     python38:python38.dll
 0002:00000570       __imp_PyUnicode_InternFromString 0000000180070570     python38:python38.dll
 0002:00000578       __imp_PyUnicode_FromFormat 0000000180070578     python38:python38.dll
 0002:00000580       __imp_PyUnicode_FromString 0000000180070580     python38:python38.dll
 0002:00000588       __imp_PyUnicode_FromStringAndSize 0000000180070588     python38:python38.dll
 0002:00000590       __imp_PyBytes_AsStringAndSize 0000000180070590     python38:python38.dll
 0002:00000598       __imp__PyObject_New        0000000180070598     python38:python38.dll
 0002:000005a0       __imp_PyObject_Free        00000001800705a0     python38:python38.dll
 0002:000005a8       __imp_Py_DecRef            00000001800705a8     python38:python38.dll
 0002:000005b0       __imp__Py_Dealloc          00000001800705b0     python38:python38.dll
 0002:000005b8       __imp_PyObject_IsTrue      00000001800705b8     python38:python38.dll
 0002:000005c0       __imp_PyObject_GenericGetAttr 00000001800705c0     python38:python38.dll
 0002:000005c8       __imp_PyObject_SetAttr     00000001800705c8     python38:python38.dll
 0002:000005d0       __imp_PyObject_GetAttr     00000001800705d0     python38:python38.dll
 0002:000005d8       __imp_PyObject_GetAttrString 00000001800705d8     python38:python38.dll
 0002:000005e0       __imp_PyType_Modified      00000001800705e0     python38:python38.dll
 0002:000005e8       __imp_PyType_GetFlags      00000001800705e8     python38:python38.dll
 0002:000005f0       __imp_PyType_GetSlot       00000001800705f0     python38:python38.dll
 0002:000005f8       __imp_PyType_FromSpec      00000001800705f8     python38:python38.dll
 0002:00000600       __imp_PyObject_Call        0000000180070600     python38:python38.dll
 0002:00000608       \177python38_NULL_THUNK_DATA 0000000180070608     python38:python38.dll
 0002:00000610       __guard_check_icall_fptr   0000000180070610     MSVCRT:guard_support.obj
 0002:00000618       __guard_dispatch_icall_fptr 0000000180070618     MSVCRT:guard_support.obj
 0002:00000620       __xc_a                     0000000180070620     MSVCRT:initializers.obj
 0002:00000628       __xc_z                     0000000180070628     MSVCRT:initializers.obj
 0002:00000630       __xi_a                     0000000180070630     MSVCRT:initializers.obj
 0002:00000640       __xi_z                     0000000180070640     MSVCRT:initializers.obj
 0002:00000648       __xl_a                     0000000180070648     MSVCRT:tlssup.obj
 0002:00000650       __xl_z                     0000000180070650     MSVCRT:tlssup.obj
 0002:00000658       __xp_a                     0000000180070658     MSVCRT:initializers.obj
 0002:00000660       __xp_z                     0000000180070660     MSVCRT:initializers.obj
 0002:00000668       __xt_a                     0000000180070668     MSVCRT:initializers.obj
 0002:00000670       __xt_z                     0000000180070670     MSVCRT:initializers.obj
 0002:00000680       ??_C@_0BB@BAMPNOKM@asm_t_ascsep_set@ 0000000180070680     idp.obj
 0002:00000698       ??_C@_0BK@NJJKKKM@IDP_Hooks_ev_cmp_operands@ 0000000180070698     idp.obj
 0002:000006b8       ??_C@_0BN@HNKCFJKJ@IDB_Hooks_segm_start_changed@ 00000001800706b8     idp.obj
 0002:000006d8       ??_C@_0BB@DHGBFPEE@asm_t_accsep_set@ 00000001800706d8     idp.obj
 0002:000006f0       ??_C@_07HDHHMDOH@_p_char@  00000001800706f0     idp.obj
 0002:000006f8       ??_C@_0BM@LEOHJIHD@IDP_Hooks_ev_adjust_refinfo@ 00000001800706f8     idp.obj
 0002:00000718       ??_C@_0BM@DIDDIAGN@IDB_Hooks_changing_segm_end@ 0000000180070718     idp.obj
 0002:00000738       ??_C@_0BD@JGALJFHD@asm_t_esccodes_set@ 0000000180070738     idp.obj
 0002:00000750       ??_C@_0BL@BBLPBPMM@IDB_Hooks_segm_end_changed@ 0000000180070750     idp.obj
 0002:00000770       ??_C@_0CA@FPMLANOK@IDP_Hooks_ev_get_operand_string@ 0000000180070770     idp.obj
 0002:00000790       ??_C@_0BC@JGPNGGOJ@asm_t_a_ascii_set@ 0000000180070790     idp.obj
 0002:000007a8       ??_C@_0BN@LNDKLEP@IDB_Hooks_changing_segm_name@ 00000001800707a8     idp.obj
 0002:000007c8       ??_C@_0BK@PHPGFBDB@IDP_Hooks_ev_get_reg_name@ 00000001800707c8     idp.obj
 0002:000007e8       ??_C@_0BB@FBKHDBCL@asm_t_a_byte_set@ 00000001800707e8     idp.obj
 0002:00000800       ??_C@_0BF@FCBJDGJD@IDP_Hooks_ev_str2reg@ 0000000180070800     idp.obj
 0002:00000818       ??_C@_0BM@FFOJILNK@IDB_Hooks_segm_name_changed@ 0000000180070818     idp.obj
 0002:00000838       ??_C@_0BB@KFKIOICG@asm_t_a_word_set@ 0000000180070838     idp.obj
 0002:00000850       ??_C@_0BO@PEAJBCIK@IDB_Hooks_changing_segm_class@ 0000000180070850     idp.obj
 0002:00000870       ??_C@_0BJ@HICHBDFH@IDP_Hooks_ev_get_autocmt@ 0000000180070870     idp.obj
 0002:00000890       ??_C@_0BC@KDNADCAE@asm_t_a_dword_set@ 0000000180070890     idp.obj
 0002:000008a8       ??_C@_0BN@NGEGNEML@IDB_Hooks_segm_class_changed@ 00000001800708a8     idp.obj
 0002:000008c8       ??_C@_0BK@DICKJJEL@IDP_Hooks_ev_get_bg_color@ 00000001800708c8     idp.obj
 0002:000008e8       ??_C@_0BC@GCFHHIKI@asm_t_a_qword_set@ 00000001800708e8     idp.obj
 0002:00000900       ??_C@_0BN@PCMNDEOL@IDB_Hooks_segm_attrs_updated@ 0000000180070900     idp.obj
 0002:00000920       ??_C@_0BK@GLLIBCJI@IDP_Hooks_ev_is_jump_func@ 0000000180070920     idp.obj
 0002:00000940       ??_C@_0BC@FLDAMJPD@asm_t_a_oword_set@ 0000000180070940     idp.obj
 0002:00000958       ??_C@_0BF@BIBLGMBO@IDB_Hooks_segm_moved@ 0000000180070958     idp.obj
 0002:00000970       ??_C@_0BJ@HGHIFCPF@IDP_Hooks_ev_func_bounds@ 0000000180070970     idp.obj
 0002:00000990       ??_C@_0BC@NMFALKFN@asm_t_a_float_set@ 0000000180070990     idp.obj
 0002:000009a8       ??_C@_0BI@NJFKPBNP@IDB_Hooks_allsegs_moved@ 00000001800709a8     idp.obj
 0002:000009c0       ??_C@_0BH@JINGHLNN@IDP_Hooks_ev_verify_sp@ 00000001800709c0     idp.obj
 0002:000009d8       ??_C@_0BD@MHBIPJKM@asm_t_a_double_set@ 00000001800709d8     idp.obj
 0002:000009f0       ??_C@_0BF@KDDPEPGI@IDB_Hooks_func_added@ 00000001800709f0     idp.obj
 0002:00000a08       ??_C@_0BN@PHPPOENO@IDP_Hooks_ev_verify_noreturn@ 0000000180070a08     idp.obj
 0002:00000a28       ??_C@_0BC@HAHBGKOB@asm_t_a_tbyte_set@ 0000000180070a28     idp.obj
 0002:00000a40       ??_C@_0BH@MKDDMPKK@IDB_Hooks_func_updated@ 0000000180070a40     idp.obj
 0002:00000a58       ??_C@_0BP@HGLKIOFI@IDP_Hooks_ev_create_func_frame@ 0000000180070a58     idp.obj
 0002:00000a78       ??_C@_0BF@PMNNJOFA@asm_t_a_packreal_set@ 0000000180070a78     idp.obj
 0002:00000a90       ??_C@_0BJ@HPNOKCLI@IDB_Hooks_set_func_start@ 0000000180070a90     idp.obj
 0002:00000ab0       ??_C@_0BP@LOJOBJDE@IDP_Hooks_ev_get_frame_retsize@ 0000000180070ab0     idp.obj
 0002:00000ad0       ??_C@_0BB@FENCJIHL@asm_t_a_dups_set@ 0000000180070ad0     idp.obj
 0002:00000ae8       ??_C@_0BH@DACLBDI@IDB_Hooks_set_func_end@ 0000000180070ae8     idp.obj
 0002:00000b00       ??_C@_0BI@PFLAHHEG@IDB_Hooks_deleting_func@ 0000000180070b00     idp.obj
 0002:00000b18       ??_C@_0BA@NNCLIHJB@asm_t_a_bss_set@ 0000000180070b18     idp.obj
 0002:00000b28       ??_C@_0BL@JFMBPJFG@IDP_Hooks_ev_demangle_name@ 0000000180070b28     idp.obj
 0002:00000b48       ??_C@_0BI@FEDILMDN@IDB_Hooks_frame_deleted@ 0000000180070b48     idp.obj
 0002:00000b60       ??_C@_0BA@JGCIHMLM@asm_t_a_equ_set@ 0000000180070b60     idp.obj
 0002:00000b70       ??_C@_0BG@IHNAPMDP@IDP_Hooks_ev_add_cref@ 0000000180070b70     idp.obj
 0002:00000b88       ??_C@_0BN@KNMAGKLP@IDB_Hooks_thunk_func_created@ 0000000180070b88     idp.obj
 0002:00000ba8       ??_C@_0BA@PBHDFPFN@asm_t_a_seg_set@ 0000000180070ba8     idp.obj
 0002:00000bb8       ??_C@_0BG@DFPACACP@IDP_Hooks_ev_add_dref@ 0000000180070bb8     idp.obj
 0002:00000bd0       ??_C@_0BN@HHPLANLD@IDB_Hooks_func_tail_appended@ 0000000180070bd0     idp.obj
 0002:00000bf0       ??_C@_0BC@HFNKKNLI@asm_t_a_curip_set@ 0000000180070bf0     idp.obj
 0002:00000c08       ??_C@_0BG@DCACPHIJ@IDP_Hooks_ev_del_cref@ 0000000180070c08     idp.obj
 0002:00000c20       ??_C@_0BN@HBJAGGGL@IDB_Hooks_deleting_func_tail@ 0000000180070c20     idp.obj
 0002:00000c40       ??_C@_0BD@LAPBKOPE@asm_t_a_public_set@ 0000000180070c40     idp.obj
 0002:00000c58       ??_C@_0BG@IACCCLJJ@IDP_Hooks_ev_del_dref@ 0000000180070c58     idp.obj
 0002:00000c70       ??_C@_0BM@JIINBDCA@IDB_Hooks_func_tail_deleted@ 0000000180070c70     idp.obj
 0002:00000c90       ??_C@_0BB@JDAIMAGI@asm_t_a_weak_set@ 0000000180070c90     idp.obj
 0002:00000ca8       ??_C@_0BN@NKLCJDBC@IDB_Hooks_tail_owner_changed@ 0000000180070ca8     idp.obj
 0002:00000cc8       ??_C@_0BM@LKENLILE@IDP_Hooks_ev_coagulate_dref@ 0000000180070cc8     idp.obj
 0002:00000ce8       ??_C@_0BC@BDOBJIPA@asm_t_a_extrn_set@ 0000000180070ce8     idp.obj
 0002:00000d00       ??_C@_0BN@EBDAHKHN@IDB_Hooks_func_noret_changed@ 0000000180070d00     idp.obj
 0002:00000d20       ??_C@_0BL@BLPCANOM@IDP_Hooks_ev_may_show_sreg@ 0000000180070d20     idp.obj
 0002:00000d40       ??_C@_0BO@OOKPNCGI@IDP_Hooks_ev_auto_queue_empty@ 0000000180070d40     idp.obj
 0002:00000d60       ??_C@_0BK@FMOBGNPH@IDB_Hooks_stkpnts_changed@ 0000000180070d60     idp.obj
 0002:00000d80       ??_C@_0BD@CMFIDCLM@asm_t_a_comdef_set@ 0000000180070d80     idp.obj
 0002:00000d98       ??_C@_0BL@OMEOAKBE@IDB_Hooks_updating_tryblks@ 0000000180070d98     idp.obj
 0002:00000db8       ??_C@_0CB@CEAAAONC@IDP_Hooks_ev_validate_flirt_fun@ 0000000180070db8     idp.obj
 0002:00000de0       ??_C@_0BC@DJHOLMGE@asm_t_a_align_set@ 0000000180070de0     idp.obj
 0002:00000df8       ??_C@_0BK@HPIEBAKE@IDB_Hooks_tryblks_updated@ 0000000180070df8     idp.obj
 0002:00000e18       ??_C@_0BB@KGNJLPAL@asm_t_lbrace_set@ 0000000180070e18     idp.obj
 0002:00000e30       ??_C@_0BP@FONPAGBG@IDP_Hooks_ev_adjust_libfunc_ea@ 0000000180070e30     idp.obj
 0002:00000e50       ??_C@_0BL@DGOCPIDO@IDB_Hooks_deleting_tryblks@ 0000000180070e50     idp.obj
 0002:00000e70       ??_C@_0BB@FKFJFAMG@asm_t_rbrace_set@ 0000000180070e70     idp.obj
 0002:00000e88       ??_C@_0BG@DNODMDDE@IDP_Hooks_ev_assemble@ 0000000180070e88     idp.obj
 0002:00000ea0       ??_C@_0BA@LKKGFBKE@asm_t_a_mod_set@ 0000000180070ea0     idp.obj
 0002:00000eb0       ??_C@_0BG@CDKBOFIP@IDB_Hooks_sgr_changed@ 0000000180070eb0     idp.obj
 0002:00000ec8       ??_C@_0BB@PGALALJA@asm_t_a_band_set@ 0000000180070ec8     idp.obj
 0002:00000ee0       ??_C@_0BN@GGGJEEDP@IDP_Hooks_ev_extract_address@ 0000000180070ee0     idp.obj
 0002:00000f00       ??_C@_0BE@EGKNLOJG@IDB_Hooks_make_code@ 0000000180070f00     idp.obj
 0002:00000f18       ??_C@_0BA@LGAJKCIO@asm_t_a_bor_set@ 0000000180070f18     idp.obj
 0002:00000f28       ??_C@_0BE@GMBIHDMB@IDB_Hooks_make_data@ 0000000180070f28     idp.obj
 0002:00000f40       ??_C@_0BF@MKFBMMKJ@IDP_Hooks_ev_realcvt@ 0000000180070f40     idp.obj
 0002:00000f58       ??_C@_0BA@FLHCIPGN@asm_t_a_xor_set@ 0000000180070f58     idp.obj
 0002:00000f68       ??_C@_0BK@HJHBMCO@IDB_Hooks_destroyed_items@ 0000000180070f68     idp.obj
 0002:00000f88       ??_C@_0BM@EENLDNDH@IDP_Hooks_ev_gen_asm_or_lst@ 0000000180070f88     idp.obj
 0002:00000fa8       ??_C@_0BB@IKIKBABD@asm_t_a_bnot_set@ 0000000180070fa8     idp.obj
 0002:00000fc0       ??_C@_0BC@GCLIBHGJ@IDB_Hooks_renamed@ 0000000180070fc0     idp.obj
 0002:00000fd8       ??_C@_0BK@BKODOFHN@IDP_Hooks_ev_gen_map_file@ 0000000180070fd8     idp.obj
 0002:00000ff8       ??_C@_0BA@PKGDMOFO@asm_t_a_shl_set@ 0000000180070ff8     idp.obj
 0002:00001008       ??_C@_0BH@KEFHCEHH@IDB_Hooks_byte_patched@ 0000000180071008     idp.obj
 0002:00001020       ??_C@_0BP@KMFGDND@IDP_Hooks_ev_create_flat_group@ 0000000180071020     idp.obj
 0002:00001040       ??_C@_0BA@MDLPKNLF@asm_t_a_shr_set@ 0000000180071040     idp.obj
 0002:00001050       ??_C@_0BH@LLCLBGGG@IDB_Hooks_changing_cmt@ 0000000180071050     idp.obj
 0002:00001068       ??_C@_0BE@MGBCECEB@IDP_Hooks_ev_getreg@ 0000000180071068     idp.obj
 0002:00001080       ??_C@_0BH@PNBNIIIK@asm_t_a_sizeof_fmt_set@ 0000000180071080     idp.obj
 0002:00001098       ??_C@_0BG@MAAICALA@IDB_Hooks_cmt_changed@ 0000000180071098     idp.obj
 0002:000010b0       ??_C@_0BM@HKECAAJC@IDP_Hooks_ev_analyze_prolog@ 00000001800710b0     idp.obj
 0002:000010d0       ??_C@_0BA@PBFBAGAI@asm_t_flag2_set@ 00000001800710d0     idp.obj
 0002:000010e0       ??_C@_0BK@KFDMPLKB@IDP_Hooks_ev_calc_spdelta@ 00000001800710e0     idp.obj
 0002:00001100       ??_C@_0BN@MCLCILHO@IDB_Hooks_changing_range_cmt@ 0000000180071100     idp.obj
 0002:00001120       ??_C@_0BA@IPBFENPA@asm_t_cmnt2_set@ 0000000180071120     idp.obj
 0002:00001130       ??_C@_0P@PAMPDOPH@asm_t_low8_set@ 0000000180071130     idp.obj
 0002:00001140       ??_C@_0BM@LAPHLKAN@IDP_Hooks_ev_find_reg_value@ 0000000180071140     idp.obj
 0002:00001160       ??_C@_0BM@PEJOLHPA@IDB_Hooks_range_cmt_changed@ 0000000180071160     idp.obj
 0002:00001180       ??_C@_0BA@DELDCJPM@asm_t_high8_set@ 0000000180071180     idp.obj
 0002:00001198       ??_C@_0BL@LBJOIGOO@IDP_Hooks_ev_find_op_value@ 0000000180071198     idp.obj
 0002:000011b8       ??_C@_0BM@DBCJNGEB@IDB_Hooks_extra_cmt_changed@ 00000001800711b8     idp.obj
 0002:000011d8       ??_C@_0BA@LOLOAMDD@asm_t_low16_set@ 00000001800711d8     idp.obj
 0002:000011e8       ??_C@_0BN@MFJHNOJJ@IDB_Hooks_item_color_changed@ 00000001800711e8     idp.obj
 0002:00001208       ??_C@_0BM@KFMJPGHN@IDP_Hooks_ev_next_exec_insn@ 0000000180071208     idp.obj
 0002:00001228       ??_C@_0BB@CJKIKJKM@asm_t_high16_set@ 0000000180071228     idp.obj
 0002:00001240       ??_C@_0BO@JMFMOCPH@IDB_Hooks_callee_addr_changed@ 0000000180071240     idp.obj
 0002:00001260       ??_C@_0BM@DCNGEPPC@IDP_Hooks_ev_calc_step_over@ 0000000180071260     idp.obj
 0002:00001280       ??_C@_0BI@GNMHGCLD@asm_t_a_include_fmt_set@ 0000000180071280     idp.obj
 0002:00001298       ??_C@_0BL@HDHEBOHF@IDB_Hooks_bookmark_changed@ 0000000180071298     idp.obj
 0002:000012b8       ??_C@_0BL@KKGCMKPB@IDP_Hooks_ev_calc_next_eas@ 00000001800712b8     idp.obj
 0002:000012d8       ??_C@_0BH@FCAJIPDO@asm_t_a_vstruc_fmt_set@ 00000001800712d8     idp.obj
 0002:000012f0       ??_C@_0BG@MBFBFHOI@IDB_Hooks_sgr_deleted@ 00000001800712f0     idp.obj
 0002:00001308       ??_C@_0CB@JJPLFLDC@IDP_Hooks_ev_get_macro_insn_hea@ 0000000180071308     idp.obj
 0002:00001330       ??_C@_0BA@LNLGDKIN@asm_t_a_rva_set@ 0000000180071330     idp.obj
 0002:00001340       ??_C@_0BL@GDLPCBKB@IDP_Hooks_ev_get_dbr_opnum@ 0000000180071340     idp.obj
 0002:00001360       ??_C@_0DL@BIMJMDLE@AssembleLine?$CIea?0?5cs?0?5ip?0?5use32?0@ 0000000180071360     idp.obj
 0002:000013a0       ??_C@_0CD@KOBNGLEP@has_cf_chg?$CIfeature?0?5opnum?$CJ?5?9?$DO?5b@ 00000001800713a0     idp.obj
 0002:000013c8       ??_C@_0CD@IKNGKPKC@has_cf_use?$CIfeature?0?5opnum?$CJ?5?9?$DO?5b@ 00000001800713c8     idp.obj
 0002:000013f0       ??_C@_0CF@BOHAGAKH@has_insn_feature?$CIicode?0?5bit?$CJ?5?9?$DO@ 00000001800713f0     idp.obj
 0002:00001418       ??_C@_0N@GECPBFNC@is_call_insn@ 0000000180071418     idp.obj
 0002:00001428       ??_C@_0BL@HMIDEF@is_call_insn?$CIinsn?$CJ?5?9?$DO?5bool@ 0000000180071428     idp.obj
 0002:00001448       ??_C@_0CH@IOADHMAJ@is_ret_insn?$CIinsn?0?5strict?$DNTrue?$CJ?5@ 0000000180071448     idp.obj
 0002:00001470       ??_C@_0BG@PDMKHHKD@is_indirect_jump_insn@ 0000000180071470     idp.obj
 0002:00001488       ??_C@_0CE@DJKJCOEM@is_indirect_jump_insn?$CIinsn?$CJ?5?9?$DO?5@ 0000000180071488     idp.obj
 0002:000014b0       ??_C@_0DI@NFNJCPHM@is_basic_block_end?$CIinsn?0?5call_i@ 00000001800714b0     idp.obj
 0002:000014e8       ??_C@_0BL@MBNMALGP@asm_t_flag_set?$CIself?0?5flag?$CJ@ 00000001800714e8     idp.obj
 0002:00001508       ??_C@_0BC@HBIADIFM@asm_t_a_yword_set@ 0000000180071508     idp.obj
 0002:00001520       ??_C@_0P@MNMDGAJE@asm_t_flag_get@ 0000000180071520     idp.obj
 0002:00001530       ??_C@_0BP@LBKEGGON@asm_t_flag_get?$CIself?$CJ?5?9?$DO?5uint32@ 0000000180071530     idp.obj
 0002:00001550       ??_C@_0BN@LLDLNPBL@asm_t_uflag_set?$CIself?0?5uflag?$CJ@ 0000000180071550     idp.obj
 0002:00001570       ??_C@_0BA@NDALMPBK@asm_t_uflag_get@ 0000000180071570     idp.obj
 0002:00001580       ??_C@_0CA@IHILMNCP@asm_t_uflag_get?$CIself?$CJ?5?9?$DO?5uint16@ 0000000180071580     idp.obj
 0002:000015a0       ??_C@_0BL@OKPDFCFK@asm_t_name_set?$CIself?0?5name?$CJ@ 00000001800715a0     idp.obj
 0002:000015c0       ??_C@_0P@GHHGBMCC@asm_t_name_get@ 00000001800715c0     idp.obj
 0002:000015d0       ??_C@_0CF@JNCHLDBD@asm_t_name_get?$CIself?$CJ?5?9?$DO?5char?5co@ 00000001800715d0     idp.obj
 0002:000015f8       ??_C@_0BL@MOBAECEB@asm_t_help_set?$CIself?0?5help?$CJ@ 00000001800715f8     idp.obj
 0002:00001618       ??_C@_0P@GFEKPDMO@asm_t_help_get@ 0000000180071618     idp.obj
 0002:00001628       ??_C@_0BP@JBGDJPIA@asm_t_help_get?$CIself?$CJ?5?9?$DO?5help_t@ 0000000180071628     idp.obj
 0002:00001648       ??_C@_0BP@PMOEIEME@asm_t_header_set?$CIself?0?5header?$CJ@ 0000000180071648     idp.obj
 0002:00001668       ??_C@_0BB@ILAJGAPB@asm_t_header_get@ 0000000180071668     idp.obj
 0002:00001680       ??_C@_0CO@CPCEBBCK@asm_t_header_get?$CIself?$CJ?5?9?$DO?5char?5@ 0000000180071680     idp.obj
 0002:000016b0       ??_C@_0BP@BNFIPDAL@asm_t_origin_set?$CIself?0?5origin?$CJ@ 00000001800716b0     idp.obj
 0002:000016d0       ??_C@_0BB@OBKDOCIM@asm_t_origin_get@ 00000001800716d0     idp.obj
 0002:000016e8       ??_C@_0CH@MKNOLPAK@asm_t_origin_get?$CIself?$CJ?5?9?$DO?5char?5@ 00000001800716e8     idp.obj
 0002:00001710       ??_C@_0BJ@BDIGAFCJ@asm_t_end_set?$CIself?0?5end?$CJ@ 0000000180071710     idp.obj
 0002:00001730       ??_C@_0O@POEAOBNO@asm_t_end_get@ 0000000180071730     idp.obj
 0002:00001740       ??_C@_0CE@EHKIMNNA@asm_t_end_get?$CIself?$CJ?5?9?$DO?5char?5con@ 0000000180071740     idp.obj
 0002:00001768       ??_C@_0BL@IFIMBFME@asm_t_cmnt_set?$CIself?0?5cmnt?$CJ@ 0000000180071768     idp.obj
 0002:00001788       ??_C@_0P@DIPECFJJ@asm_t_cmnt_get@ 0000000180071788     idp.obj
 0002:00001798       ??_C@_0CF@KJHHGLIO@asm_t_cmnt_get?$CIself?$CJ?5?9?$DO?5char?5co@ 0000000180071798     idp.obj
 0002:000017c0       ??_C@_0BP@NGIJPHFM@asm_t_ascsep_set?$CIself?0?5ascsep?$CJ@ 00000001800717c0     idp.obj
 0002:000017e0       ??_C@_0BB@MPLEBOGE@asm_t_ascsep_get@ 00000001800717e0     idp.obj
 0002:000017f8       ??_C@_0BP@BBKIAOFI@asm_t_ascsep_get?$CIself?$CJ?5?9?$DO?5char@ 00000001800717f8     idp.obj
 0002:00001818       ??_C@_0BP@MODMBEKP@asm_t_accsep_set?$CIself?0?5accsep?$CJ@ 0000000180071818     idp.obj
 0002:00001838       ??_C@_0BB@OIBKJPIM@asm_t_accsep_get@ 0000000180071838     idp.obj
 0002:00001850       ??_C@_0BP@GOMDHBGF@asm_t_accsep_get?$CIself?$CJ?5?9?$DO?5char@ 0000000180071850     idp.obj
 0002:00001870       ??_C@_0CD@HJICNBHC@asm_t_esccodes_set?$CIself?0?5esccod@ 0000000180071870     idp.obj
 0002:00001898       ??_C@_0BD@EJHAFFLL@asm_t_esccodes_get@ 0000000180071898     idp.obj
 0002:000018b0       ??_C@_0CJ@KNEFMABD@asm_t_esccodes_get?$CIself?$CJ?5?9?$DO?5cha@ 00000001800718b0     idp.obj
 0002:000018e0       ??_C@_0CB@MHJPOPHE@asm_t_a_ascii_set?$CIself?0?5a_ascii@ 00000001800718e0     idp.obj
 0002:00001908       ??_C@_0BC@EJIGKGCB@asm_t_a_ascii_get@ 0000000180071908     idp.obj
 0002:00001920       ??_C@_0CI@JNDMMHFJ@asm_t_a_ascii_get?$CIself?$CJ?5?9?$DO?5char@ 0000000180071920     idp.obj
 0002:00001948       ??_C@_0BP@PLPPINFG@asm_t_a_byte_set?$CIself?0?5a_byte?$CJ@ 0000000180071948     idp.obj
 0002:00001968       ??_C@_0BB@IONMPBOD@asm_t_a_byte_get@ 0000000180071968     idp.obj
 0002:00001980       ??_C@_0CH@PPCBKBKK@asm_t_a_byte_get?$CIself?$CJ?5?9?$DO?5char?5@ 0000000180071980     idp.obj
 0002:000019a8       ??_C@_0BP@LBOMKKPN@asm_t_a_word_set?$CIself?0?5a_word?$CJ@ 00000001800719a8     idp.obj
 0002:000019c8       ??_C@_0BB@HKNDCIOO@asm_t_a_word_get@ 00000001800719c8     idp.obj
 0002:000019e0       ??_C@_0CH@ENFNDMJJ@asm_t_a_word_get?$CIself?$CJ?5?9?$DO?5char?5@ 00000001800719e0     idp.obj
 0002:00001a08       ??_C@_0CB@PCMOMFEE@asm_t_a_dword_set?$CIself?0?5a_dword@ 0000000180071a08     idp.obj
 0002:00001a30       ??_C@_0BC@HMKLPCMM@asm_t_a_dword_get@ 0000000180071a30     idp.obj
 0002:00001a48       ??_C@_0CI@GINHCLPG@asm_t_a_dword_get?$CIself?$CJ?5?9?$DO?5char@ 0000000180071a48     idp.obj
 0002:00001a70       ??_C@_0CB@MBAJILLG@asm_t_a_qword_set?$CIself?0?5a_qword@ 0000000180071a70     idp.obj
 0002:00001a98       ??_C@_0BC@LNCMLIGA@asm_t_a_qword_get@ 0000000180071a98     idp.obj
 0002:00001ab0       ??_C@_0CI@PFNOFKJP@asm_t_a_qword_get?$CIself?$CJ?5?9?$DO?5char@ 0000000180071ab0     idp.obj
 0002:00001ad8       ??_C@_0CB@OJCPLEFK@asm_t_a_oword_set?$CIself?0?5a_oword@ 0000000180071ad8     idp.obj
 0002:00001b00       ??_C@_0BC@IEELAJDL@asm_t_a_oword_get@ 0000000180071b00     idp.obj
 0002:00001b18       ??_C@_0CI@ECNMBHBN@asm_t_a_oword_get?$CIself?$CJ?5?9?$DO?5char@ 0000000180071b18     idp.obj
 0002:00001b40       ??_C@_0CB@OMLPEECP@asm_t_a_float_set?$CIself?0?5a_float@ 0000000180071b40     idp.obj
 0002:00001b68       ??_C@_0BC@DCLHKJF@asm_t_a_float_get@ 0000000180071b68     idp.obj
 0002:00001b80       ??_C@_0CI@OCOEODLB@asm_t_a_float_get?$CIself?$CJ?5?9?$DO?5char@ 0000000180071b80     idp.obj
 0002:00001ba8       ??_C@_09COICNKDH@new_asm_t@ 0000000180071ba8     idp.obj
 0002:00001bb8       ??_C@_0CD@ECCNHOCJ@asm_t_a_double_set?$CIself?0?5a_doub@ 0000000180071bb8     idp.obj
 0002:00001be0       ??_C@_0BN@JIBPEABO@IDP_Hooks_ev_insn_reads_tbit@ 0000000180071be0     idp.obj
 0002:00001c00       ??_C@_0BD@BIGDDJGE@asm_t_a_double_get@ 0000000180071c00     idp.obj
 0002:00001c18       ??_C@_0CJ@MPGOCEGL@asm_t_a_double_get?$CIself?$CJ?5?9?$DO?5cha@ 0000000180071c18     idp.obj
 0002:00001c48       ??_C@_0CB@MDMOBDGI@asm_t_a_tbyte_set?$CIself?0?5a_tbyte@ 0000000180071c48     idp.obj
 0002:00001c70       ??_C@_0BC@KPAKKKCJ@asm_t_a_tbyte_get@ 0000000180071c70     idp.obj
 0002:00001c88       ??_C@_0CI@MHPCNICM@asm_t_a_tbyte_get?$CIself?$CJ?5?9?$DO?5char@ 0000000180071c88     idp.obj
 0002:00001cb0       ??_C@_0CH@GKMDFJKF@asm_t_a_packreal_set?$CIself?0?5a_pa@ 0000000180071cb0     idp.obj
 0002:00001cd8       ??_C@_0BF@CDKGFOJI@asm_t_a_packreal_get@ 0000000180071cd8     idp.obj
 0002:00001cf0       ??_C@_0CL@GODLCDIH@asm_t_a_packreal_get?$CIself?$CJ?5?9?$DO?5c@ 0000000180071cf0     idp.obj
 0002:00001d20       ??_C@_0BP@BKLDOOO@asm_t_a_dups_set?$CIself?0?5a_dups?$CJ@ 0000000180071d20     idp.obj
 0002:00001d40       ??_C@_0BB@ILKJFILD@asm_t_a_dups_get@ 0000000180071d40     idp.obj
 0002:00001d58       ??_C@_0CH@FJAJPMCC@asm_t_a_dups_get?$CIself?$CJ?5?9?$DO?5char?5@ 0000000180071d58     idp.obj
 0002:00001d80       ??_C@_0BN@NIBAEBBG@asm_t_a_bss_set?$CIself?0?5a_bss?$CJ@ 0000000180071d80     idp.obj
 0002:00001da0       ??_C@_0BA@CFAEHFJ@asm_t_a_bss_get@ 0000000180071da0     idp.obj
 0002:00001db0       ??_C@_0CG@NMAKMNMG@asm_t_a_bss_get?$CIself?$CJ?5?9?$DO?5char?5c@ 0000000180071db0     idp.obj
 0002:00001dd8       ??_C@_0BN@PKEBNCPI@asm_t_a_equ_set?$CIself?0?5a_equ?$CJ@ 0000000180071dd8     idp.obj
 0002:00001df8       ??_C@_0BA@EJFDLMHE@asm_t_a_equ_get@ 0000000180071df8     idp.obj
 0002:00001e08       ??_C@_0CG@KKJLNIPI@asm_t_a_equ_get?$CIself?$CJ?5?9?$DO?5char?5c@ 0000000180071e08     idp.obj
 0002:00001e30       ??_C@_0BN@KBDMGNKB@asm_t_a_seg_set?$CIself?0?5a_seg?$CJ@ 0000000180071e30     idp.obj
 0002:00001e50       ??_C@_0BA@COAIJPJF@asm_t_a_seg_get@ 0000000180071e50     idp.obj
 0002:00001e60       ??_C@_0CG@JKKHGKPE@asm_t_a_seg_get?$CIself?$CJ?5?9?$DO?5char?5c@ 0000000180071e60     idp.obj
 0002:00001e88       ??_C@_0CB@IDLILLBM@asm_t_a_curip_set?$CIself?0?5a_curip@ 0000000180071e88     idp.obj
 0002:00001eb0       ??_C@_0BC@KKKBGNHA@asm_t_a_curip_get@ 0000000180071eb0     idp.obj
 0002:00001ec8       ??_C@_0CI@NIGAKDIF@asm_t_a_curip_get?$CIself?$CJ?5?9?$DO?5char@ 0000000180071ec8     idp.obj
 0002:00001ef0       ??_C@_0CD@CDGPNLOO@asm_t_a_public_set?$CIself?0?5a_publ@ 0000000180071ef0     idp.obj
 0002:00001f18       ??_C@_0BD@GPIKGODM@asm_t_a_public_get@ 0000000180071f18     idp.obj
 0002:00001f30       ??_C@_0CJ@ENMPMFBA@asm_t_a_public_get?$CIself?$CJ?5?9?$DO?5cha@ 0000000180071f30     idp.obj
 0002:00001f60       ??_C@_0BP@GJNKACLO@asm_t_a_weak_set?$CIself?0?5a_weak?$CJ@ 0000000180071f60     idp.obj
 0002:00001f80       ??_C@_0BB@EMHDAAKA@asm_t_a_weak_get@ 0000000180071f80     idp.obj
 0002:00001f98       ??_C@_0CH@CHIMBJFK@asm_t_a_weak_get?$CIself?$CJ?5?9?$DO?5char?5@ 0000000180071f98     idp.obj
 0002:00001fc0       ??_C@_0CB@EPMODAPL@asm_t_a_extrn_set?$CIself?0?5a_extrn@ 0000000180071fc0     idp.obj
 0002:00001fe8       ??_C@_0BC@MMJKFIDI@asm_t_a_extrn_get@ 0000000180071fe8     idp.obj
 0002:00002000       ??_C@_0CI@MEHKOHCK@asm_t_a_extrn_get?$CIself?$CJ?5?9?$DO?5char@ 0000000180072000     idp.obj
 0002:00002028       ??_C@_0CD@ODCFFHAI@asm_t_a_comdef_set?$CIself?0?5a_comd@ 0000000180072028     idp.obj
 0002:00002050       ??_C@_0BD@PDCDPCHE@asm_t_a_comdef_get@ 0000000180072050     idp.obj
 0002:00002068       ??_C@_0CJ@JALFEMLL@asm_t_a_comdef_get?$CIself?$CJ?5?9?$DO?5cha@ 0000000180072068     idp.obj
 0002:00002098       ??_C@_0CB@EJDLDIMO@asm_t_a_align_set?$CIself?0?5a_align@ 0000000180072098     idp.obj
 0002:000020c0       ??_C@_0BC@OGAFHMKM@asm_t_a_align_get@ 00000001800720c0     idp.obj
 0002:000020d8       ??_C@_0CI@FHMJKIIP@asm_t_a_align_get?$CIself?$CJ?5?9?$DO?5char@ 00000001800720d8     idp.obj
 0002:00002100       ??_C@_0BP@MNKNJMJB@asm_t_lbrace_set?$CIself?0?5lbrace?$CJ@ 0000000180072100     idp.obj
 0002:00002120       ??_C@_0BB@HJKCHPMD@asm_t_lbrace_get@ 0000000180072120     idp.obj
 0002:00002138       ??_C@_0BP@LNAMMMKF@asm_t_lbrace_get?$CIself?$CJ?5?9?$DO?5char@ 0000000180072138     idp.obj
 0002:00002158       ??_C@_0BP@LLFLGHPH@asm_t_rbrace_set?$CIself?0?5rbrace?$CJ@ 0000000180072158     idp.obj
 0002:00002178       ??_C@_0BB@IFCCJAAO@asm_t_rbrace_get@ 0000000180072178     idp.obj
 0002:00002190       ??_C@_0BP@KCMLBENK@asm_t_rbrace_get?$CIself?$CJ?5?9?$DO?5char@ 0000000180072190     idp.obj
 0002:000021b0       ??_C@_0BN@HPHPCCLE@asm_t_a_mod_set?$CIself?0?5a_mod?$CJ@ 00000001800721b0     idp.obj
 0002:000021d0       ??_C@_0BA@GFNNJBGM@asm_t_a_mod_get@ 00000001800721d0     idp.obj
 0002:000021e0       ??_C@_0CG@DBHCHCAK@asm_t_a_mod_get?$CIself?$CJ?5?9?$DO?5char?5c@ 00000001800721e0     idp.obj
 0002:00002208       ??_C@_0BP@GKAIMBDJ@asm_t_a_band_set?$CIself?0?5a_band?$CJ@ 0000000180072208     idp.obj
 0002:00002228       ??_C@_0BB@CJHAMLFI@asm_t_a_band_get@ 0000000180072228     idp.obj
 0002:00002240       ??_C@_0CH@FIBFIEFL@asm_t_a_band_get?$CIself?$CJ?5?9?$DO?5char?5@ 0000000180072240     idp.obj
 0002:00002268       ??_C@_0BN@CHAPNFJA@asm_t_a_bor_set?$CIself?0?5a_bor?$CJ@ 0000000180072268     idp.obj
 0002:00002288       ??_C@_0BA@GJHCGCEG@asm_t_a_bor_get@ 0000000180072288     idp.obj
 0002:00002298       ??_C@_0CG@KCMFBKKN@asm_t_a_bor_get?$CIself?$CJ?5?9?$DO?5char?5c@ 0000000180072298     idp.obj
 0002:000022c0       ??_C@_0BN@IHINEAFE@asm_t_a_xor_set?$CIself?0?5a_xor?$CJ@ 00000001800722c0     idp.obj
 0002:000022e0       ??_C@_0BA@IEAJEPKF@asm_t_a_xor_get@ 00000001800722e0     idp.obj
 0002:000022f0       ??_C@_0CG@JCJOPOLO@asm_t_a_xor_get?$CIself?$CJ?5?9?$DO?5char?5c@ 00000001800722f0     idp.obj
 0002:00002318       ??_C@_0BP@OPEEKCAG@asm_t_a_bnot_set?$CIself?0?5a_bnot?$CJ@ 0000000180072318     idp.obj
 0002:00002338       ??_C@_0BB@FFPBNANL@asm_t_a_bnot_get@ 0000000180072338     idp.obj
 0002:00002350       ??_C@_0CH@KNBJDLJG@asm_t_a_bnot_get?$CIself?$CJ?5?9?$DO?5char?5@ 0000000180072350     idp.obj
 0002:00002378       ??_C@_0BN@EDKFMHBM@asm_t_a_shl_set?$CIself?0?5a_shl?$CJ@ 0000000180072378     idp.obj
 0002:00002398       ??_C@_0BA@CFBIAOJG@asm_t_a_shl_get@ 0000000180072398     idp.obj
 0002:000023a8       ??_C@_0CG@PGDPLGM@asm_t_a_shl_get?$CIself?$CJ?5?9?$DO?5char?5c@ 00000001800723a8     idp.obj
 0002:000023d0       ??_C@_0BN@NCCCGEPK@asm_t_a_shr_set?$CIself?0?5a_shr?$CJ@ 00000001800723d0     idp.obj
 0002:000023f0       ??_C@_0BA@BMMEGNHN@asm_t_a_shr_get@ 00000001800723f0     idp.obj
 0002:00002400       ??_C@_0CG@BMCPMMBK@asm_t_a_shr_get?$CIself?$CJ?5?9?$DO?5char?5c@ 0000000180072400     idp.obj
 0002:00002428       ??_C@_0CL@EKLJNPLG@asm_t_a_sizeof_fmt_set?$CIself?0?5a_@ 0000000180072428     idp.obj
 0002:00002458       ??_C@_0BH@CCGGEIEC@asm_t_a_sizeof_fmt_get@ 0000000180072458     idp.obj
 0002:00002470       ??_C@_0CN@OBEOJDAG@asm_t_a_sizeof_fmt_get?$CIself?$CJ?5?9?$DO@ 0000000180072470     idp.obj
 0002:000024a0       ??_C@_0BN@FHKMBEPH@asm_t_flag2_set?$CIself?0?5flag2?$CJ@ 00000001800724a0     idp.obj
 0002:000024c0       ??_C@_0BA@COCKMGMA@asm_t_flag2_get@ 00000001800724c0     idp.obj
 0002:000024d0       ??_C@_0CA@PLNPPENF@asm_t_flag2_get?$CIself?$CJ?5?9?$DO?5uint32@ 00000001800724d0     idp.obj
 0002:000024f0       ??_C@_0BN@IBEJMBBD@asm_t_cmnt2_set?$CIself?0?5cmnt2?$CJ@ 00000001800724f0     idp.obj
 0002:00002510       ??_C@_0BA@FAGOINDI@asm_t_cmnt2_get@ 0000000180072510     idp.obj
 0002:00002520       ??_C@_0CG@EHKLKBMB@asm_t_cmnt2_get?$CIself?$CJ?5?9?$DO?5char?5c@ 0000000180072520     idp.obj
 0002:00002548       ??_C@_0BL@LHCFMONP@asm_t_low8_set?$CIself?0?5low8?$CJ@ 0000000180072548     idp.obj
 0002:00002568       ??_C@_0P@CPLEPODP@asm_t_low8_get@ 0000000180072568     idp.obj
 0002:00002578       ??_C@_0BI@CEAAKNPC@IDP_Hooks_ev_clean_tbit@ 0000000180072578     idp.obj
 0002:00002590       ??_C@_0CF@KDCKLLHO@asm_t_low8_get?$CIself?$CJ?5?9?$DO?5char?5co@ 0000000180072590     idp.obj
 0002:000025b8       ??_C@_0BN@NMKHDGDG@asm_t_high8_set?$CIself?0?5high8?$CJ@ 00000001800725b8     idp.obj
 0002:000025d8       ??_C@_0BA@OLMIOJDE@asm_t_high8_get@ 00000001800725d8     idp.obj
 0002:000025e8       ??_C@_0CG@CDJHPLMD@asm_t_high8_get?$CIself?$CJ?5?9?$DO?5char?5c@ 00000001800725e8     idp.obj
 0002:00002610       ??_C@_0BN@KCHMBCDG@asm_t_low16_set?$CIself?0?5low16?$CJ@ 0000000180072610     idp.obj
 0002:00002630       ??_C@_0BA@GBMFMMPL@asm_t_low16_get@ 0000000180072630     idp.obj
 0002:00002640       ??_C@_0CG@DBBAOGPP@asm_t_low16_get?$CIself?$CJ?5?9?$DO?5char?5c@ 0000000180072640     idp.obj
 0002:00002668       ??_C@_0BP@HONLCIDH@asm_t_high16_set?$CIself?0?5high16?$CJ@ 0000000180072668     idp.obj
 0002:00002688       ??_C@_0BB@PGNDGJGE@asm_t_high16_get@ 0000000180072688     idp.obj
 0002:000026a0       ??_C@_0CH@IEEAJEIO@asm_t_high16_get?$CIself?$CJ?5?9?$DO?5char?5@ 00000001800726a0     idp.obj
 0002:000026c8       ??_C@_0CN@JDAKDMDK@asm_t_a_include_fmt_set?$CIself?0?5a@ 00000001800726c8     idp.obj
 0002:000026f8       ??_C@_0BI@LCLMKCHL@asm_t_a_include_fmt_get@ 00000001800726f8     idp.obj
 0002:00002710       ??_C@_0CO@JOGIPMLO@asm_t_a_include_fmt_get?$CIself?$CJ?5?9@ 0000000180072710     idp.obj
 0002:00002740       ??_C@_0CL@BFNGLDGP@asm_t_a_vstruc_fmt_set?$CIself?0?5a_@ 0000000180072740     idp.obj
 0002:00002770       ??_C@_0BH@INHCEPPG@asm_t_a_vstruc_fmt_get@ 0000000180072770     idp.obj
 0002:00002788       ??_C@_0CN@OLKMGHOF@asm_t_a_vstruc_fmt_get?$CIself?$CJ?5?9?$DO@ 0000000180072788     idp.obj
 0002:000027b8       ??_C@_0BN@JHBEKOLA@asm_t_a_rva_set?$CIself?0?5a_rva?$CJ@ 00000001800727b8     idp.obj
 0002:000027d8       ??_C@_0BA@GCMNPKEF@asm_t_a_rva_get@ 00000001800727d8     idp.obj
 0002:000027e8       ??_C@_0CG@IALLGBNL@asm_t_a_rva_get?$CIself?$CJ?5?9?$DO?5char?5c@ 00000001800727e8     idp.obj
 0002:00002810       ??_C@_0CB@NOONFGGG@asm_t_a_yword_set?$CIself?0?5a_yword@ 0000000180072810     idp.obj
 0002:00002838       ??_C@_0BC@KOPLPIJE@asm_t_a_yword_get@ 0000000180072838     idp.obj
 0002:00002850       ??_C@_0CI@BGMKGOML@asm_t_a_yword_get?$CIself?$CJ?5?9?$DO?5char@ 0000000180072850     idp.obj
 0002:00002878       ??_C@_0BF@PFONKHFA@new_asm_t?$CI?$CJ?5?9?$DO?5asm_t@ 0000000180072878     idp.obj
 0002:00002890       ??_C@_0N@JLMMMAHP@delete_asm_t@ 0000000180072890     idp.obj
 0002:000028a0       ??_C@_0BD@IHGGMBAL@delete_asm_t?$CIself?$CJ@ 00000001800728a0     idp.obj
 0002:000028b8       ??_C@_0BD@BOAOHKD@asm_t_swigregister@ 00000001800728b8     idp.obj
 0002:000028d0       ??_C@_0P@GDNJPPHI@asm_t_swiginit@ 00000001800728d0     idp.obj
 0002:000028e0       ??_C@_07JILIJJEN@str2reg@  00000001800728e0     idp.obj
 0002:000028e8       ??_C@_0BC@NHJLMDEM@str2reg?$CIp?$CJ?5?9?$DO?5int@ 00000001800728e8     idp.obj
 0002:00002900       ??_C@_0O@PBDCJIIL@is_align_insn@ 0000000180072900     idp.obj
 0002:00002910       ??_C@_0BJ@HNOKNLAO@is_align_insn?$CIea?$CJ?5?9?$DO?5int@ 0000000180072910     idp.obj
 0002:00002930       ??_C@_0CO@CKDNNBHH@get_reg_name?$CIreg?0?5width?0?5reghi?$DN@ 0000000180072930     idp.obj
 0002:00002960       ??_C@_0DA@DIAJJMEA@get_reg_info?$CIregname?0?5bitrange?$CJ@ 0000000180072960     idp.obj
 0002:00002990       ??_C@_0BO@LNAANBLB@reg_info_t_reg_set?$CIself?0?5reg?$CJ@ 0000000180072990     idp.obj
 0002:000029b0       ??_C@_0BD@DKFKKIFH@reg_info_t_reg_get@ 00000001800729b0     idp.obj
 0002:000029c8       ??_C@_0CA@OJMNNMJA@reg_info_t_reg_get?$CIself?$CJ?5?9?$DO?5int@ 00000001800729c8     idp.obj
 0002:000029e8       ??_C@_0CA@ILIIIENL@reg_info_t_size_set?$CIself?0?5size?$CJ@ 00000001800729e8     idp.obj
 0002:00002a08       ??_C@_0BE@HLOGAIEP@reg_info_t_size_get@ 0000000180072a08     idp.obj
 0002:00002a20       ??_C@_0CB@FLNGJNOF@reg_info_t_size_get?$CIself?$CJ?5?9?$DO?5in@ 0000000180072a20     idp.obj
 0002:00002a48       ??_C@_0CD@CFJEAHIE@reg_info_t___eq__?$CIself?0?5r?$CJ?5?9?$DO?5b@ 0000000180072a48     idp.obj
 0002:00002a70       ??_C@_0CD@PMLCJKJD@reg_info_t___ne__?$CIself?0?5r?$CJ?5?9?$DO?5b@ 0000000180072a70     idp.obj
 0002:00002a98       ??_C@_0CD@GNMMCGB@reg_info_t___lt__?$CIself?0?5r?$CJ?5?9?$DO?5b@ 0000000180072a98     idp.obj
 0002:00002ac0       ??_C@_0CD@IGOHEJCB@reg_info_t___gt__?$CIself?0?5r?$CJ?5?9?$DO?5b@ 0000000180072ac0     idp.obj
 0002:00002ae8       ??_C@_0CD@NCOCFDBD@reg_info_t___le__?$CIself?0?5r?$CJ?5?9?$DO?5b@ 0000000180072ae8     idp.obj
 0002:00002b10       ??_C@_0CD@FCNJNIFD@reg_info_t___ge__?$CIself?0?5r?$CJ?5?9?$DO?5b@ 0000000180072b10     idp.obj
 0002:00002b38       ??_C@_0CD@FADKNDGD@reg_info_t_compare?$CIself?0?5r?$CJ?5?9?$DO?5@ 0000000180072b38     idp.obj
 0002:00002b60       ??_C@_0BP@HNBBMNFP@new_reg_info_t?$CI?$CJ?5?9?$DO?5reg_info_t@ 0000000180072b60     idp.obj
 0002:00002b80       ??_C@_0BC@OCDGFPPF@delete_reg_info_t@ 0000000180072b80     idp.obj
 0002:00002b98       ??_C@_0BI@NJOAODGI@delete_reg_info_t?$CIself?$CJ@ 0000000180072b98     idp.obj
 0002:00002bb0       ??_C@_0BI@MECJHEJG@reg_info_t_swigregister@ 0000000180072bb0     idp.obj
 0002:00002bc8       ??_C@_0BE@FDFKPHMG@reg_info_t_swiginit@ 0000000180072bc8     idp.obj
 0002:00002be0       ??_C@_0CE@ILPJBKJ@parse_reg_name?$CIri?0?5regname?$CJ?5?9?$DO?5@ 0000000180072be0     idp.obj
 0002:00002c08       ??_C@_0BI@DBBJEOI@sizeof_ldbl?$CI?$CJ?5?9?$DO?5size_t@ 0000000180072c08     idp.obj
 0002:00002c20       ??_C@_0CM@OKCGDAPE@set_processor_type?$CIprocname?0?5le@ 0000000180072c20     idp.obj
 0002:00002c50       ??_C@_0BJ@MIFNLBEA@get_idp_name?$CI?$CJ?5?9?$DO?5char?5?$CK@ 0000000180072c50     idp.obj
 0002:00002c70       ??_C@_0BF@HLPPIAAM@set_target_assembler@ 0000000180072c70     idp.obj
 0002:00002c88       ??_C@_0CF@INHOLACM@set_target_assembler?$CIasmnum?$CJ?5?9?$DO@ 0000000180072c88     idp.obj
 0002:00002cb0       ??_C@_0CK@GMLCINMI@delay_slot_insn?$CIea?0?5bexec?0?5fexe@ 0000000180072cb0     idp.obj
 0002:00002ce0       ??_C@_0BE@IMHDKPMB@gen_idb_event?$CIcode?$CJ@ 0000000180072ce0     idp.obj
 0002:00002cf8       ??_C@_0CO@NJPMNFIL@cfg_get_cc_parm?$CIcompid?0?5name?$CJ?5?9@ 0000000180072cf8     idp.obj
 0002:00002d28       ??_C@_0BH@DLJEALNI@cfg_get_cc_header_path@ 0000000180072d28     idp.obj
 0002:00002d40       ??_C@_0CP@DBIOLGHH@cfg_get_cc_header_path?$CIcompid?$CJ?5@ 0000000180072d40     idp.obj
 0002:00002d70       ??_C@_0BN@GBFMLCAG@cfg_get_cc_predefined_macros@ 0000000180072d70     idp.obj
 0002:00002d90       ??_C@_0DF@JGKKKKCD@cfg_get_cc_predefined_macros?$CIco@ 0000000180072d90     idp.obj
 0002:00002dc8       ??_C@_0CK@KDJJDBGP@assemble?$CIea?0?5cs?0?5ip?0?5use32?0?5lin@ 0000000180072dc8     idp.obj
 0002:00002df8       ??_C@_0BG@KPDGLKNP@ph_get_id?$CI?$CJ?5?9?$DO?5size_t@ 0000000180072df8     idp.obj
 0002:00002e10       ??_C@_0BL@PFMLNKKM@ph_get_version?$CI?$CJ?5?9?$DO?5size_t@ 0000000180072e10     idp.obj
 0002:00002e30       ??_C@_0BI@MIDHDPCN@ph_get_flag?$CI?$CJ?5?9?$DO?5size_t@ 0000000180072e30     idp.obj
 0002:00002e48       ??_C@_0BK@IGEDNJID@ph_get_cnbits?$CI?$CJ?5?9?$DO?5size_t@ 0000000180072e48     idp.obj
 0002:00002e68       ??_C@_0BK@MMHNFCMI@ph_get_dnbits?$CI?$CJ?5?9?$DO?5size_t@ 0000000180072e68     idp.obj
 0002:00002e88       ??_C@_0CC@FOICCIKL@ph_get_reg_first_sreg?$CI?$CJ?5?9?$DO?5size@ 0000000180072e88     idp.obj
 0002:00002eb0       ??_C@_0CB@KOBPBHDA@ph_get_reg_last_sreg?$CI?$CJ?5?9?$DO?5size_@ 0000000180072eb0     idp.obj
 0002:00002ed8       ??_C@_0BP@MCHBGOGB@ph_get_segreg_size?$CI?$CJ?5?9?$DO?5size_t@ 0000000180072ed8     idp.obj
 0002:00002ef8       ??_C@_0CB@GEGILFCE@ph_get_reg_code_sreg?$CI?$CJ?5?9?$DO?5size_@ 0000000180072ef8     idp.obj
 0002:00002f20       ??_C@_0CB@NLNACBBD@ph_get_reg_data_sreg?$CI?$CJ?5?9?$DO?5size_@ 0000000180072f20     idp.obj
 0002:00002f48       ??_C@_0CA@LCBLKOBA@ph_get_icode_return?$CI?$CJ?5?9?$DO?5size_t@ 0000000180072f48     idp.obj
 0002:00002f68       ??_C@_0CB@OEJOOGHN@ph_get_instruc_start?$CI?$CJ?5?9?$DO?5size_@ 0000000180072f68     idp.obj
 0002:00002f90       ??_C@_0BP@IFPLHICH@ph_get_instruc_end?$CI?$CJ?5?9?$DO?5size_t@ 0000000180072f90     idp.obj
 0002:00002fb0       ??_C@_0BO@IFDOAPCO@ph_get_tbyte_size?$CI?$CJ?5?9?$DO?5size_t@ 0000000180072fb0     idp.obj
 0002:00002fd0       ??_C@_0BP@LAFECCBN@ph_get_instruc?$CI?$CJ?5?9?$DO?5PyObject?5?$CK@ 0000000180072fd0     idp.obj
 0002:00002ff0       ??_C@_0CA@BENCCFNN@ph_get_regnames?$CI?$CJ?5?9?$DO?5PyObject?5?$CK@ 0000000180072ff0     idp.obj
 0002:00003010       ??_C@_0CJ@BEAOHDOP@ph_get_operand_info?$CIea?0?5n?$CJ?5?9?$DO?5P@ 0000000180073010     idp.obj
 0002:00003040       ??_C@_0L@JBOCLBAB@ph_calcrel@ 0000000180073040     idp.obj
 0002:00003050       ??_C@_0P@GHHKJMPG@ph_calcrel?$CIea?$CJ@ 0000000180073050     idp.obj
 0002:00003060       ??_C@_0CI@KDHEBOGH@ph_find_reg_value?$CIinsn?0?5reg?$CJ?5?9?$DO@ 0000000180073060     idp.obj
 0002:00003088       ??_C@_0BK@OLAPJKBM@IDP_Hooks_ev_get_reg_info@ 0000000180073088     idp.obj
 0002:000030a8       ??_C@_0CG@DBOIMJOG@ph_find_op_value?$CIinsn?0?5op?$CJ?5?9?$DO?5s@ 00000001800730a8     idp.obj
 0002:000030d0       ??_C@_0BB@OBHMJCHM@delete_IDP_Hooks@ 00000001800730d0     idp.obj
 0002:000030e8       ??_C@_0BH@HDFIMBC@delete_IDP_Hooks?$CIself?$CJ@ 00000001800730e8     idp.obj
 0002:00003100       ??_C@_0P@OGDENKBP@IDP_Hooks_hook@ 0000000180073100     idp.obj
 0002:00003110       ??_C@_0BN@IKNPIFLE@IDP_Hooks_hook?$CIself?$CJ?5?9?$DO?5bool@ 0000000180073110     idp.obj
 0002:00003130       ??_C@_0BB@JOMJIIPN@IDP_Hooks_unhook@ 0000000180073130     idp.obj
 0002:00003148       ??_C@_0BP@JDAKPPKE@IDP_Hooks_unhook?$CIself?$CJ?5?9?$DO?5bool@ 0000000180073148     idp.obj
 0002:00003168       ??_C@_0CM@IEJACCDG@IDP_Hooks_ev_init?$CIself?0?5idp_mod@ 0000000180073168     idp.obj
 0002:00003198       ??_C@_0BC@EJEOFIFM@IDP_Hooks_ev_term@ 0000000180073198     idp.obj
 0002:000031b0       ??_C@_0BP@EJNIAEPF@IDP_Hooks_ev_term?$CIself?$CJ?5?9?$DO?5int@ 00000001800731b0     idp.obj
 0002:000031d0       ??_C@_0DB@HJOMNLFL@IDP_Hooks_ev_newprc?$CIself?0?5pnum?0@ 00000001800731d0     idp.obj
 0002:00003208       ??_C@_0CJ@HHIILBOP@IDP_Hooks_ev_newasm?$CIself?0?5asmnu@ 0000000180073208     idp.obj
 0002:00003238       ??_C@_0CJ@LGFNGNAG@IDP_Hooks_ev_newfile?$CIself?0?5fnam@ 0000000180073238     idp.obj
 0002:00003268       ??_C@_0CJ@EDODOLFA@IDP_Hooks_ev_oldfile?$CIself?0?5fnam@ 0000000180073268     idp.obj
 0002:000032a0       ??_C@_0FB@GGDCMNFO@IDP_Hooks_ev_newbinary?$CIself?0?5fi@ 00000001800732a0     idp.obj
 0002:000032f8       ??_C@_0CI@PBKMEBDJ@IDP_Hooks_ev_endbinary?$CIself?0?5ok@ 00000001800732f8     idp.obj
 0002:00003320       ??_C@_0EO@KHONIAFI@IDP_Hooks_ev_set_idp_options?$CIse@ 0000000180073320     idp.obj
 0002:00003370       ??_C@_0EA@NCNIEDDB@IDP_Hooks_ev_set_proc_options?$CIs@ 0000000180073370     idp.obj
 0002:000033b0       ??_C@_0CJ@NEFCCGHF@IDP_Hooks_ev_ana_insn?$CIself?0?5out@ 00000001800733b0     idp.obj
 0002:000033e0       ??_C@_0CK@NDFICNLN@IDP_Hooks_ev_emu_insn?$CIself?0?5ins@ 00000001800733e0     idp.obj
 0002:00003410       ??_C@_0CG@FMHKIHDL@IDP_Hooks_ev_out_header?$CIself?0?5o@ 0000000180073410     idp.obj
 0002:00003438       ??_C@_0CG@GCHOGBDL@IDP_Hooks_ev_out_footer?$CIself?0?5o@ 0000000180073438     idp.obj
 0002:00003460       ??_C@_0DE@IINMOFID@IDP_Hooks_ev_out_segstart?$CIself?0@ 0000000180073460     idp.obj
 0002:00003498       ??_C@_0DC@BACIDAHA@IDP_Hooks_ev_out_segend?$CIself?0?5o@ 0000000180073498     idp.obj
 0002:000034d0       ??_C@_0CO@BDCMDIIH@IDP_Hooks_ev_out_assumes?$CIself?0?5@ 00000001800734d0     idp.obj
 0002:00003500       ??_C@_0CM@FCOHBKGG@IDP_Hooks_ev_out_insn?$CIself?0?5out@ 0000000180073500     idp.obj
 0002:00003530       ??_C@_0CL@CHCONJOC@IDP_Hooks_ev_out_mnem?$CIself?0?5out@ 0000000180073530     idp.obj
 0002:00003560       ??_C@_0DD@KABOANLL@IDP_Hooks_ev_out_operand?$CIself?0?5@ 0000000180073560     idp.obj
 0002:00003598       ??_C@_0DJ@HPMKIONC@IDP_Hooks_ev_out_data?$CIself?0?5out@ 0000000180073598     idp.obj
 0002:000035d8       ??_C@_0DK@KPAGOKOJ@IDP_Hooks_ev_out_label?$CIself?0?5ou@ 00000001800735d8     idp.obj
 0002:00003618       ??_C@_0DM@EFJNFMBO@IDP_Hooks_ev_out_special_item?$CIs@ 0000000180073618     idp.obj
 0002:00003658       ??_C@_0DK@LFCFBFJL@IDP_Hooks_ev_gen_stkvar_def?$CIsel@ 0000000180073658     idp.obj
 0002:00003698       ??_C@_0DE@DBEOEKKN@IDP_Hooks_ev_gen_regvar_def?$CIsel@ 0000000180073698     idp.obj
 0002:000036d0       ??_C@_0CA@ONMFGKGL@IDP_Hooks_ev_gen_src_file_lnnum@ 00000001800736d0     idp.obj
 0002:000036f0       ??_C@_0CN@DPLDFPGJ@IDP_Hooks_ev_gen_src_file_lnnum@ 00000001800736f0     idp.obj
 0002:00003720       ??_C@_0CN@FLNEJAGL@IDP_Hooks_ev_creating_segm?$CIself@ 0000000180073720     idp.obj
 0002:00003750       ??_C@_0DG@PENDCOOC@IDP_Hooks_ev_moving_segm?$CIself?0?5@ 0000000180073750     idp.obj
 0002:00003788       ??_C@_0CO@FDJOLAOH@IDP_Hooks_ev_coagulate?$CIself?0?5st@ 0000000180073788     idp.obj
 0002:000037b8       ??_C@_0CH@EKLCHHJJ@IDP_Hooks_ev_undefine?$CIself?0?5ea?$CJ@ 00000001800737b8     idp.obj
 0002:000037e0       ??_C@_0N@DNJEJBMJ@get_reg_name@ 00000001800737e0     idp.obj
 0002:000037f0       ??_C@_0HA@DPGMFMEC@IDP_Hooks_ev_treat_hindering_it@ 00000001800737f0     idp.obj
 0002:00003860       ??_C@_0CP@KIPDJKPB@IDP_Hooks_ev_rename?$CIself?0?5ea?0?5n@ 0000000180073860     idp.obj
 0002:00003890       ??_C@_0CN@KKIEDDMA@IDP_Hooks_ev_is_far_jump?$CIself?0?5@ 0000000180073890     idp.obj
 0002:000038c0       ??_C@_0DH@NFBAEABO@IDP_Hooks_ev_is_sane_insn?$CIself?0@ 00000001800738c0     idp.obj
 0002:000038f8       ??_C@_0CN@NLGDGLMG@IDP_Hooks_ev_is_cond_insn?$CIself?0@ 00000001800738f8     idp.obj
 0002:00003928       ??_C@_0CN@FLEBJGFO@IDP_Hooks_ev_is_call_insn?$CIself?0@ 0000000180073928     idp.obj
 0002:00003958       ??_C@_0DE@FCJOGCG@IDP_Hooks_ev_is_ret_insn?$CIself?0?5@ 0000000180073958     idp.obj
 0002:00003990       ??_C@_0DD@ONGEAEFB@IDP_Hooks_ev_may_be_func?$CIself?0?5@ 0000000180073990     idp.obj
 0002:000039d0       ??_C@_0EK@GIDJGMEI@IDP_Hooks_ev_is_basic_block_end@ 00000001800739d0     idp.obj
 0002:00003a20       ??_C@_0DB@GPNDOOMO@IDP_Hooks_ev_is_indirect_jump?$CIs@ 0000000180073a20     idp.obj
 0002:00003a58       ??_C@_0DD@FELJGMGB@IDP_Hooks_ev_is_insn_table_jump@ 0000000180073a58     idp.obj
 0002:00003a90       ??_C@_0CO@KAMBNPFC@IDP_Hooks_ev_is_switch?$CIself?0?5si@ 0000000180073a90     idp.obj
 0002:00003ac0       ??_C@_0EL@JGGJJBNB@IDP_Hooks_ev_calc_switch_cases?$CI@ 0000000180073ac0     idp.obj
 0002:00003b10       ??_C@_0DK@FALBEFFD@IDP_Hooks_ev_create_switch_xref@ 0000000180073b10     idp.obj
 0002:00003b50       ??_C@_0CM@DGJKDANB@IDP_Hooks_ev_is_align_insn?$CIself@ 0000000180073b50     idp.obj
 0002:00003b80       ??_C@_0CO@DDBOMBM@IDP_Hooks_ev_is_alloca_probe?$CIse@ 0000000180073b80     idp.obj
 0002:00003bb0       ??_C@_0ED@DOCEGLGJ@IDP_Hooks_ev_delay_slot_insn?$CIse@ 0000000180073bb0     idp.obj
 0002:00003bf8       ??_C@_0DG@IEFHCBHN@IDP_Hooks_ev_is_sp_based?$CIself?0?5@ 0000000180073bf8     idp.obj
 0002:00003c30       ??_C@_0CM@FHNPIONL@IDP_Hooks_ev_can_have_type?$CIself@ 0000000180073c30     idp.obj
 0002:00003c60       ??_C@_0DB@FHHFECHD@IDP_Hooks_ev_cmp_operands?$CIself?0@ 0000000180073c60     idp.obj
 0002:00003c98       ??_C@_0DI@OEAIEMKK@IDP_Hooks_ev_adjust_refinfo?$CIsel@ 0000000180073c98     idp.obj
 0002:00003cd0       ??_C@_0DK@DBJIAOCA@IDP_Hooks_ev_get_operand_string@ 0000000180073cd0     idp.obj
 0002:00003d10       ??_C@_0EB@INOKPJBL@IDP_Hooks_ev_get_reg_name?$CIself?0@ 0000000180073d10     idp.obj
 0002:00003d58       ??_C@_0CL@HOEJFFJD@IDP_Hooks_ev_str2reg?$CIself?0?5regn@ 0000000180073d58     idp.obj
 0002:00003d88       ??_C@_0CM@IIMCEJBA@IDP_Hooks_ev_get_autocmt?$CIself?0?5@ 0000000180073d88     idp.obj
 0002:00003db8       ??_C@_0DC@CFOEBFDF@IDP_Hooks_ev_get_bg_color?$CIself?0@ 0000000180073db8     idp.obj
 0002:00003df0       ??_C@_0EH@CLBENOIL@IDP_Hooks_ev_is_jump_func?$CIself?0@ 0000000180073df0     idp.obj
 0002:00003e40       ??_C@_0EL@POGKOJON@IDP_Hooks_ev_func_bounds?$CIself?0?5@ 0000000180073e40     idp.obj
 0002:00003e90       ??_C@_0CJ@KBIPIICN@IDP_Hooks_ev_verify_sp?$CIself?0?5pf@ 0000000180073e90     idp.obj
 0002:00003ec0       ??_C@_0CP@PMKEMHNC@IDP_Hooks_ev_verify_noreturn?$CIse@ 0000000180073ec0     idp.obj
 0002:00003ef0       ??_C@_0DB@LOCBBFDO@IDP_Hooks_ev_create_func_frame?$CI@ 0000000180073ef0     idp.obj
 0002:00003f28       ??_C@_0DJ@CCLOFFAJ@IDP_Hooks_ev_get_frame_retsize?$CI@ 0000000180073f28     idp.obj
 0002:00003f68       ??_C@_0CF@IMIMEKC@IDP_Hooks_ev_get_stkvar_scale_f@ 0000000180073f68     idp.obj
 0002:00003f90       ??_C@_0DC@COFJANAJ@IDP_Hooks_ev_get_stkvar_scale_f@ 0000000180073f90     idp.obj
 0002:00003fd0       ??_C@_0EL@NEGLNJOM@IDP_Hooks_ev_demangle_name?$CIself@ 0000000180073fd0     idp.obj
 0002:00004020       ??_C@_0DE@IOLPKMJB@IDP_Hooks_ev_add_cref?$CIself?0?5_fr@ 0000000180074020     idp.obj
 0002:00004058       ??_C@_0DE@INPGMBCK@IDP_Hooks_ev_add_dref?$CIself?0?5_fr@ 0000000180074058     idp.obj
 0002:00004090       ??_C@_0DG@PMJHOMHM@IDP_Hooks_ev_del_cref?$CIself?0?5_fr@ 0000000180074090     idp.obj
 0002:000040c8       ??_C@_0CO@PGPCDFIM@IDP_Hooks_ev_del_dref?$CIself?0?5_fr@ 00000001800740c8     idp.obj
 0002:00004100       ??_C@_0EJ@LALFOKFK@IDP_Hooks_ev_coagulate_dref?$CIsel@ 0000000180074100     idp.obj
 0002:00004150       ??_C@_0DE@FKONCIEB@IDP_Hooks_ev_may_show_sreg?$CIself@ 0000000180074150     idp.obj
 0002:00004188       ??_C@_0CK@MIDCBIMP@IDP_Hooks_ev_auto_queue_empty?$CIs@ 0000000180074188     idp.obj
 0002:000041c0       ??_C@_0EC@KILLIIHM@IDP_Hooks_ev_validate_flirt_fun@ 00000001800741c0     idp.obj
 0002:00004208       ??_C@_0DN@OGKFOAHB@IDP_Hooks_ev_adjust_libfunc_ea?$CI@ 0000000180074208     idp.obj
 0002:00004250       ??_C@_0ED@HIGECGIC@IDP_Hooks_ev_assemble?$CIself?0?5ea?0@ 0000000180074250     idp.obj
 0002:000042a0       ??_C@_0EP@IMGIPKIP@IDP_Hooks_ev_extract_address?$CIse@ 00000001800742a0     idp.obj
 0002:000042f0       ??_C@_0CN@JACMIGNL@IDP_Hooks_ev_realcvt?$CIself?0?5m?0?5e@ 00000001800742f0     idp.obj
 0002:00004320       ??_C@_0EI@DBOMEEMN@IDP_Hooks_ev_gen_asm_or_lst?$CIsel@ 0000000180074320     idp.obj
 0002:00004368       ??_C@_0DD@EHAIOFFD@IDP_Hooks_ev_gen_map_file?$CIself?0@ 0000000180074368     idp.obj
 0002:000043a0       ??_C@_0EO@BELHPMJE@IDP_Hooks_ev_create_flat_group?$CI@ 00000001800743a0     idp.obj
 0002:000043f0       ??_C@_0DB@DJAAEANE@IDP_Hooks_ev_getreg?$CIself?0?5regva@ 00000001800743f0     idp.obj
 0002:00004428       ??_C@_0CN@IJKJEDBK@IDP_Hooks_ev_analyze_prolog?$CIsel@ 0000000180074428     idp.obj
 0002:00004458       ??_C@_0DG@PPOFHKEK@IDP_Hooks_ev_calc_spdelta?$CIself?0@ 0000000180074458     idp.obj
 0002:00004490       ??_C@_0BF@MEBPOIIK@IDP_Hooks_ev_calcrel@ 0000000180074490     idp.obj
 0002:000044a8       ??_C@_0CC@JOPIBAPP@IDP_Hooks_ev_calcrel?$CIself?$CJ?5?9?$DO?5i@ 00000001800744a8     idp.obj
 0002:000044d0       ??_C@_0DM@IMHJPJFJ@IDP_Hooks_ev_find_reg_value?$CIsel@ 00000001800744d0     idp.obj
 0002:00004510       ??_C@_0DL@FEKGCMBC@IDP_Hooks_ev_find_op_value?$CIself@ 0000000180074510     idp.obj
 0002:00004550       ??_C@_0EN@FAENPHEF@IDP_Hooks_ev_next_exec_insn?$CIsel@ 0000000180074550     idp.obj
 0002:000045a0       ??_C@_0DF@NCNAHCE@IDP_Hooks_ev_calc_step_over?$CIsel@ 00000001800745a0     idp.obj
 0002:000045d8       ??_C@_0DJ@JOGBMCBL@IDP_Hooks_ev_calc_next_eas?$CIself@ 00000001800745d8     idp.obj
 0002:00004618       ??_C@_0N@CBGNFKOE@get_reg_info@ 0000000180074618     idp.obj
 0002:00004628       ??_C@_0DI@JGBIFONC@IDP_Hooks_ev_get_macro_insn_hea@ 0000000180074628     idp.obj
 0002:00004660       ??_C@_0DF@GGKAENDM@IDP_Hooks_ev_get_dbr_opnum?$CIself@ 0000000180074660     idp.obj
 0002:000046a0       ??_C@_0ED@EADNHNNG@IDP_Hooks_ev_insn_reads_tbit?$CIse@ 00000001800746a0     idp.obj
 0002:000046e8       ??_C@_0DM@GLAKCEKK@IDP_Hooks_ev_clean_tbit?$CIself?0?5e@ 00000001800746e8     idp.obj
 0002:00004730       ??_C@_0EI@OKHJMIBK@IDP_Hooks_ev_get_reg_info?$CIself?0@ 0000000180074730     idp.obj
 0002:00004778       ??_C@_0BH@DBFCHEC@IDP_Hooks_ev_setup_til@ 0000000180074778     idp.obj
 0002:00004790       ??_C@_0BN@NCKNBOM@IDP_Hooks_ev_setup_til?$CIself?$CJ@ 0000000180074790     idp.obj
 0002:000047b0       ??_C@_0EC@NECIIKDC@IDP_Hooks_ev_get_abi_info?$CIself?0@ 00000001800747b0     idp.obj
 0002:000047f8       ??_C@_0BK@CLBJPKNM@IDP_Hooks_ev_max_ptr_size@ 00000001800747f8     idp.obj
 0002:00004818       ??_C@_0CH@PJOIBHIP@IDP_Hooks_ev_max_ptr_size?$CIself?$CJ@ 0000000180074818     idp.obj
 0002:00004840       ??_C@_0DE@LJLBJNMJ@IDP_Hooks_ev_get_default_enum_s@ 0000000180074840     idp.obj
 0002:00004878       ??_C@_0DA@NCFJMFBD@IDP_Hooks_ev_get_cc_regs?$CIself?0?5@ 0000000180074878     idp.obj
 0002:000048a8       ??_C@_0BP@BHMGPFBI@IDP_Hooks_ev_get_stkarg_offset@ 00000001800748a8     idp.obj
 0002:000048c8       ??_C@_0CM@LIEKCIBP@IDP_Hooks_ev_get_stkarg_offset?$CI@ 00000001800748c8     idp.obj
 0002:00004900       ??_C@_0EC@LBEHAMOD@IDP_Hooks_ev_shadow_args_size?$CIs@ 0000000180074900     idp.obj
 0002:00004950       ??_C@_0EP@GGPMNKCA@IDP_Hooks_ev_get_simd_types?$CIsel@ 0000000180074950     idp.obj
 0002:000049a0       ??_C@_0DG@HBMDJALL@IDP_Hooks_ev_calc_cdecl_purged_@ 00000001800749a0     idp.obj
 0002:000049e0       ??_C@_0EB@BCDKFOEF@IDP_Hooks_ev_calc_purged_bytes?$CI@ 00000001800749e0     idp.obj
 0002:00004a28       ??_C@_0DL@NLMOENGB@IDP_Hooks_ev_calc_retloc?$CIself?0?5@ 0000000180074a28     idp.obj
 0002:00004a68       ??_C@_0CM@EFIOFLKH@IDP_Hooks_ev_calc_arglocs?$CIself?0@ 0000000180074a68     idp.obj
 0002:00004a98       ??_C@_0BK@CELIJGOM@IDP_Hooks_ev_get_abi_info@ 0000000180074a98     idp.obj
 0002:00004ac0       ??_C@_0EE@MMCOFGLG@IDP_Hooks_ev_calc_varglocs?$CIself@ 0000000180074ac0     idp.obj
 0002:00004b10       ??_C@_0EF@OMOKBHHP@IDP_Hooks_ev_adjust_argloc?$CIself@ 0000000180074b10     idp.obj
 0002:00004b58       ??_C@_0DI@DCMMMLJK@IDP_Hooks_ev_lower_func_type?$CIse@ 0000000180074b58     idp.obj
 0002:00004b90       ??_C@_0DA@CNANACPC@IDP_Hooks_ev_equal_reglocs?$CIself@ 0000000180074b90     idp.obj
 0002:00004bc0       ??_C@_0DD@NMMGJFKG@IDP_Hooks_ev_use_stkarg_type?$CIse@ 0000000180074bc0     idp.obj
 0002:00004bf8       ??_C@_0DM@MONMBBDJ@IDP_Hooks_ev_use_regarg_type?$CIse@ 0000000180074bf8     idp.obj
 0002:00004c38       ??_C@_0DI@CLJOCFGL@IDP_Hooks_ev_use_arg_types?$CIself@ 0000000180074c38     idp.obj
 0002:00004c70       ??_C@_0EB@GGCJCBBJ@IDP_Hooks_ev_arg_addrs_ready?$CIse@ 0000000180074c70     idp.obj
 0002:00004cc0       ??_C@_0FA@KHBLIMOJ@IDP_Hooks_ev_decorate_name?$CIself@ 0000000180074cc0     idp.obj
 0002:00004d10       ??_C@_0BE@IPEJMDHI@IDP_Hooks_ev_loader@ 0000000180074d10     idp.obj
 0002:00004d28       ??_C@_0CB@HLMIGIOB@IDP_Hooks_ev_loader?$CIself?$CJ?5?9?$DO?5in@ 0000000180074d28     idp.obj
 0002:00004d50       ??_C@_0O@HLJMOBIA@new_IDP_Hooks@ 0000000180074d50     idp.obj
 0002:00004d60       ??_C@_0CC@EJENBMOA@new_IDP_Hooks?$CI_self?$CJ?5?9?$DO?5IDP_Hoo@ 0000000180074d60     idp.obj
 0002:00004d88       ??_C@_0BB@EINLAPDN@disown_IDP_Hooks@ 0000000180074d88     idp.obj
 0002:00004da0       ??_C@_0BH@BHIKHGOA@IDP_Hooks_swigregister@ 0000000180074da0     idp.obj
 0002:00004db8       ??_C@_0BD@KMHAJJLH@IDP_Hooks_swiginit@ 0000000180074db8     idp.obj
 0002:00004dd0       ??_C@_0BB@NPOCKECK@delete_IDB_Hooks@ 0000000180074dd0     idp.obj
 0002:00004de8       ??_C@_0BH@IAOJHEND@delete_IDB_Hooks?$CIself?$CJ@ 0000000180074de8     idp.obj
 0002:00004e00       ??_C@_0P@DCGPMJIO@IDB_Hooks_hook@ 0000000180074e00     idp.obj
 0002:00004e10       ??_C@_0BN@JLDBIGD@IDB_Hooks_hook?$CIself?$CJ?5?9?$DO?5bool@ 0000000180074e10     idp.obj
 0002:00004e30       ??_C@_0BD@OFCBGIJP@reg_info_t_reg_set@ 0000000180074e30     idp.obj
 0002:00004e48       ??_C@_0BB@HCCNKGCD@IDB_Hooks_unhook@ 0000000180074e48     idp.obj
 0002:00004e60       ??_C@_0BP@NDMNMAOJ@IDB_Hooks_unhook?$CIself?$CJ?5?9?$DO?5bool@ 0000000180074e60     idp.obj
 0002:00004e80       ??_C@_0BE@EIFIABMB@IDB_Hooks_closebase@ 0000000180074e80     idp.obj
 0002:00004e98       ??_C@_0CB@BCMKOCGN@IDB_Hooks_closebase?$CIself?$CJ?5?9?$DO?5in@ 0000000180074e98     idp.obj
 0002:00004ec0       ??_C@_0BD@GEEMMBHM@IDB_Hooks_savebase@ 0000000180074ec0     idp.obj
 0002:00004ed8       ??_C@_0CA@OJBPMGCM@IDB_Hooks_savebase?$CIself?$CJ?5?9?$DO?5int@ 0000000180074ed8     idp.obj
 0002:00004ef8       ??_C@_0CH@PMEANNPB@IDB_Hooks_upgraded?$CIself?0?5_from?$CJ@ 0000000180074ef8     idp.obj
 0002:00004f20       ??_C@_0BF@EPDHMCLP@IDB_Hooks_auto_empty@ 0000000180074f20     idp.obj
 0002:00004f38       ??_C@_0CC@FEBCOBDO@IDB_Hooks_auto_empty?$CIself?$CJ?5?9?$DO?5i@ 0000000180074f38     idp.obj
 0002:00004f60       ??_C@_0BN@GKKFBEBO@IDB_Hooks_auto_empty_finally@ 0000000180074f60     idp.obj
 0002:00004f80       ??_C@_0CK@BBOEGFE@IDB_Hooks_auto_empty_finally?$CIse@ 0000000180074f80     idp.obj
 0002:00004fb0       ??_C@_0CN@JFIMIMGH@IDB_Hooks_determined_main?$CIself?0@ 0000000180074fb0     idp.obj
 0002:00004fe0       ??_C@_0BO@KLKGAFNM@IDB_Hooks_local_types_changed@ 0000000180074fe0     idp.obj
 0002:00005000       ??_C@_0CL@OFIHOFKO@IDB_Hooks_local_types_changed?$CIs@ 0000000180075000     idp.obj
 0002:00005030       ??_C@_0DG@MENJCNOH@IDB_Hooks_extlang_changed?$CIself?0@ 0000000180075030     idp.obj
 0002:00005068       ??_C@_0DF@PMFJCAFO@IDB_Hooks_idasgn_loaded?$CIself?0?5s@ 0000000180075068     idp.obj
 0002:000050a0       ??_C@_0BP@MPFIKILG@IDB_Hooks_kernel_config_loaded@ 00000001800750a0     idp.obj
 0002:000050c0       ??_C@_0CM@DEMLAEEA@IDB_Hooks_kernel_config_loaded?$CI@ 00000001800750c0     idp.obj
 0002:000050f0       ??_C@_0EC@GBOFFDIL@IDB_Hooks_loader_finished?$CIself?0@ 00000001800750f0     idp.obj
 0002:00005138       ??_C@_0CO@EFIEGCBF@IDB_Hooks_flow_chart_created?$CIse@ 0000000180075138     idp.obj
 0002:00005168       ??_C@_0BL@HHLOHDDE@IDB_Hooks_compiler_changed@ 0000000180075168     idp.obj
 0002:00005188       ??_C@_0CI@ILHCKHNH@IDB_Hooks_compiler_changed?$CIself@ 0000000180075188     idp.obj
 0002:000051b0       ??_C@_0DN@LBFLKBJM@IDB_Hooks_changing_ti?$CIself?0?5ea?0@ 00000001800751b0     idp.obj
 0002:000051f0       ??_C@_0DE@PHFFFNPF@IDB_Hooks_ti_changed?$CIself?0?5ea?0?5@ 00000001800751f0     idp.obj
 0002:00005230       ??_C@_0ED@LHBKJCOI@IDB_Hooks_changing_op_ti?$CIself?0?5@ 0000000180075230     idp.obj
 0002:00005278       ??_C@_0DK@FMHJEFJC@IDB_Hooks_op_ti_changed?$CIself?0?5e@ 0000000180075278     idp.obj
 0002:000052b8       ??_C@_0DH@KCIOIIA@IDB_Hooks_changing_op_type?$CIself@ 00000001800752b8     idp.obj
 0002:000052f0       ??_C@_0CO@NHNHGHPF@IDB_Hooks_op_type_changed?$CIself?0@ 00000001800752f0     idp.obj
 0002:00005320       ??_C@_0CI@DNPPGDE@IDB_Hooks_enum_created?$CIself?0?5id@ 0000000180075320     idp.obj
 0002:00005348       ??_C@_0CJ@JLJFJDDL@IDB_Hooks_deleting_enum?$CIself?0?5i@ 0000000180075348     idp.obj
 0002:00005378       ??_C@_0CI@EEJHHICE@IDB_Hooks_enum_deleted?$CIself?0?5id@ 0000000180075378     idp.obj
 0002:000053a0       ??_C@_0DL@EMMALCHD@IDB_Hooks_renaming_enum?$CIself?0?5i@ 00000001800753a0     idp.obj
 0002:000053e0       ??_C@_0CI@DHKAOLAB@IDB_Hooks_enum_renamed?$CIself?0?5id@ 00000001800753e0     idp.obj
 0002:00005408       ??_C@_0DE@NODAFJDO@IDB_Hooks_changing_enum_bf?$CIself@ 0000000180075408     idp.obj
 0002:00005440       ??_C@_0CL@NPDCHHDH@IDB_Hooks_enum_bf_changed?$CIself?0@ 0000000180075440     idp.obj
 0002:00005470       ??_C@_0EB@JHDLFJFG@IDB_Hooks_changing_enum_cmt?$CIsel@ 0000000180075470     idp.obj
 0002:000054b8       ??_C@_0DI@FKDAJDDN@IDB_Hooks_enum_cmt_changed?$CIself@ 00000001800754b8     idp.obj
 0002:000054f0       ??_C@_0DE@ECDDDJLH@IDB_Hooks_enum_member_created?$CIs@ 00000001800754f0     idp.obj
 0002:00005528       ??_C@_0DF@CHBNKLMG@IDB_Hooks_deleting_enum_member?$CI@ 0000000180075528     idp.obj
 0002:00005560       ??_C@_0DE@OOOEGKIH@IDB_Hooks_enum_member_deleted?$CIs@ 0000000180075560     idp.obj
 0002:00005598       ??_C@_0CP@LAEAANAO@IDB_Hooks_struc_created?$CIself?0?5s@ 0000000180075598     idp.obj
 0002:000055c8       ??_C@_0CM@LEJOIGFB@IDB_Hooks_deleting_struc?$CIself?0?5@ 00000001800755c8     idp.obj
 0002:000055f8       ??_C@_0CP@JGDFOKPB@IDB_Hooks_struc_deleted?$CIself?0?5s@ 00000001800755f8     idp.obj
 0002:00005628       ??_C@_0DC@JJGJHOMJ@IDB_Hooks_changing_struc_align?$CI@ 0000000180075628     idp.obj
 0002:00005660       ??_C@_0DB@JIMMDOOE@IDB_Hooks_struc_align_changed?$CIs@ 0000000180075660     idp.obj
 0002:00005698       ??_C@_0DM@IBAGHCGC@IDB_Hooks_renaming_struc?$CIself?0?5@ 0000000180075698     idp.obj
 0002:000056d8       ??_C@_0CL@FNPLFKAC@IDB_Hooks_struc_renamed?$CIself?0?5s@ 00000001800756d8     idp.obj
 0002:00005708       ??_C@_0DM@KHIFIDIP@IDB_Hooks_expanding_struc?$CIself?0@ 0000000180075708     idp.obj
 0002:00005748       ??_C@_0CM@PIMCLGD@IDB_Hooks_struc_expanded?$CIself?0?5@ 0000000180075748     idp.obj
 0002:00005778       ??_C@_0DI@LEHHGLHK@IDB_Hooks_struc_member_created?$CI@ 0000000180075778     idp.obj
 0002:000057b0       ??_C@_0DJ@GMFDGFCN@IDB_Hooks_deleting_struc_member@ 00000001800757b0     idp.obj
 0002:000057f0       ??_C@_0EF@PDBNPHJE@IDB_Hooks_struc_member_deleted?$CI@ 00000001800757f0     idp.obj
 0002:00005840       ??_C@_0EC@IEDFPGOP@IDB_Hooks_renaming_struc_member@ 0000000180075840     idp.obj
 0002:00005888       ??_C@_0DI@NBIGGKDP@IDB_Hooks_struc_member_renamed?$CI@ 0000000180075888     idp.obj
 0002:000058c0       ??_C@_0EL@NMJJDGPE@IDB_Hooks_changing_struc_member@ 00000001800758c0     idp.obj
 0002:00005910       ??_C@_0BE@KEJNMIIH@reg_info_t_size_set@ 0000000180075910     idp.obj
 0002:00005928       ??_C@_0DI@OHPEMOMG@IDB_Hooks_struc_member_changed?$CI@ 0000000180075928     idp.obj
 0002:00005960       ??_C@_0EI@JNEAICAG@IDB_Hooks_changing_struc_cmt?$CIse@ 0000000180075960     idp.obj
 0002:000059b0       ??_C@_0ED@NCBNCODL@IDB_Hooks_struc_cmt_changed?$CIsel@ 00000001800759b0     idp.obj
 0002:000059f8       ??_C@_0CF@JPGOKNBH@IDB_Hooks_segm_added?$CIself?0?5s?$CJ?5?9@ 00000001800759f8     idp.obj
 0002:00005a20       ??_C@_0CP@KPDDJABI@IDB_Hooks_deleting_segm?$CIself?0?5s@ 0000000180075a20     idp.obj
 0002:00005a50       ??_C@_0DG@GCDGJHON@IDB_Hooks_segm_deleted?$CIself?0?5st@ 0000000180075a50     idp.obj
 0002:00005a90       ??_C@_0EH@NEMICOGH@IDB_Hooks_changing_segm_start?$CIs@ 0000000180075a90     idp.obj
 0002:00005ad8       ??_C@_0DH@GOLBCEMI@IDB_Hooks_segm_start_changed?$CIse@ 0000000180075ad8     idp.obj
 0002:00005b10       ??_C@_0ED@EFBJFPBF@IDB_Hooks_changing_segm_end?$CIsel@ 0000000180075b10     idp.obj
 0002:00005b58       ??_C@_0DD@LBCECENM@IDB_Hooks_segm_end_changed?$CIself@ 0000000180075b58     idp.obj
 0002:00005b90       ??_C@_0DG@CLDDKCAL@IDB_Hooks_changing_segm_name?$CIse@ 0000000180075b90     idp.obj
 0002:00005bc8       ??_C@_0DC@IELKCALN@IDB_Hooks_segm_name_changed?$CIsel@ 0000000180075bc8     idp.obj
 0002:00005c00       ??_C@_0CO@DIFDKNGM@IDB_Hooks_changing_segm_class?$CIs@ 0000000180075c00     idp.obj
 0002:00005c30       ??_C@_0DF@PDDNJFLC@IDB_Hooks_segm_class_changed?$CIse@ 0000000180075c30     idp.obj
 0002:00005c68       ??_C@_0CN@HOMGBDMD@IDB_Hooks_segm_attrs_updated?$CIse@ 0000000180075c68     idp.obj
 0002:00005ca0       ??_C@_0ED@EPJFOPCH@IDB_Hooks_segm_moved?$CIself?0?5_fro@ 0000000180075ca0     idp.obj
 0002:00005ce8       ??_C@_0CL@PEMFKAFJ@IDB_Hooks_allsegs_moved?$CIself?0?5i@ 0000000180075ce8     idp.obj
 0002:00005d18       ??_C@_0CH@HIJFAOKJ@IDB_Hooks_func_added?$CIself?0?5pfn?$CJ@ 0000000180075d18     idp.obj
 0002:00005d40       ??_C@_0CJ@EAEFLJGH@IDB_Hooks_func_updated?$CIself?0?5pf@ 0000000180075d40     idp.obj
 0002:00005d70       ??_C@_0DG@PNNPFCFK@IDB_Hooks_set_func_start?$CIself?0?5@ 0000000180075d70     idp.obj
 0002:00005da8       ??_C@_0DC@HBKIGEEP@IDB_Hooks_set_func_end?$CIself?0?5pf@ 0000000180075da8     idp.obj
 0002:00005de0       ??_C@_0CK@JNGIPKAH@IDB_Hooks_deleting_func?$CIself?0?5p@ 0000000180075de0     idp.obj
 0002:00005e10       ??_C@_0CK@KLMAMAFB@IDB_Hooks_frame_deleted?$CIself?0?5p@ 0000000180075e10     idp.obj
 0002:00005e40       ??_C@_0CP@JJPBDBOA@IDB_Hooks_thunk_func_created?$CIse@ 0000000180075e40     idp.obj
 0002:00005e70       ??_C@_0DF@KMHIAEPO@IDB_Hooks_func_tail_appended?$CIse@ 0000000180075e70     idp.obj
 0002:00005ea8       ??_C@_0DF@CPNPBIJD@IDB_Hooks_deleting_func_tail?$CIse@ 0000000180075ea8     idp.obj
 0002:00005ee0       ??_C@_0DH@GGNAPAJN@IDB_Hooks_func_tail_deleted?$CIsel@ 0000000180075ee0     idp.obj
 0002:00005f20       ??_C@_0EH@JFGEJOKC@IDB_Hooks_tail_owner_changed?$CIse@ 0000000180075f20     idp.obj
 0002:00005f68       ??_C@_0CP@FFEFBHKO@IDB_Hooks_func_noret_changed?$CIse@ 0000000180075f68     idp.obj
 0002:00005f98       ??_C@_0CM@FMMIIINE@IDB_Hooks_stkpnts_changed?$CIself?0@ 0000000180075f98     idp.obj
 0002:00005fc8       ??_C@_0CD@NMJIKHCK@IDP_Hooks_ev_get_default_enum_s@ 0000000180075fc8     idp.obj
 0002:00005ff0       ??_C@_0CN@GMDHHJBK@IDB_Hooks_updating_tryblks?$CIself@ 0000000180075ff0     idp.obj
 0002:00006020       ??_C@_0CM@JGMJJDI@IDB_Hooks_tryblks_updated?$CIself?0@ 0000000180076020     idp.obj
 0002:00006050       ??_C@_0CP@NEIPEFAK@IDB_Hooks_deleting_tryblks?$CIself@ 0000000180076050     idp.obj
 0002:00006080       ??_C@_0FE@NMCMDIDF@IDB_Hooks_sgr_changed?$CIself?0?5sta@ 0000000180076080     idp.obj
 0002:000060d8       ??_C@_0CH@NBIFMLJD@IDB_Hooks_make_code?$CIself?0?5insn?$CJ@ 00000001800760d8     idp.obj
 0002:00006100       ??_C@_0DG@JOOOAGPL@IDB_Hooks_make_data?$CIself?0?5ea?0?5f@ 0000000180076100     idp.obj
 0002:00006140       ??_C@_0EF@EIHMNBOL@IDB_Hooks_destroyed_items?$CIself?0@ 0000000180076140     idp.obj
 0002:00006188       ??_C@_0DJ@GGIMBILG@IDB_Hooks_renamed?$CIself?0?5ea?0?5new@ 0000000180076188     idp.obj
 0002:000061c8       ??_C@_0DD@LGEJCHEB@IDB_Hooks_byte_patched?$CIself?0?5ea@ 00000001800761c8     idp.obj
 0002:00006200       ??_C@_0EA@PMFADNG@IDB_Hooks_changing_cmt?$CIself?0?5ea@ 0000000180076200     idp.obj
 0002:00006240       ??_C@_0DH@MNFMEGEB@IDB_Hooks_cmt_changed?$CIself?0?5ea?0@ 0000000180076240     idp.obj
 0002:00006280       ??_C@_0EE@HDPIKLBC@IDB_Hooks_changing_range_cmt?$CIse@ 0000000180076280     idp.obj
 0002:000062d0       ??_C@_0ED@POCILMBG@IDB_Hooks_range_cmt_changed?$CIsel@ 00000001800762d0     idp.obj
 0002:00006318       ??_C@_0DM@CJIGFOLB@IDB_Hooks_extra_cmt_changed?$CIsel@ 0000000180076318     idp.obj
 0002:00006358       ??_C@_0DF@KKLCLLJG@IDB_Hooks_item_color_changed?$CIse@ 0000000180076358     idp.obj
 0002:00006390       ??_C@_0DH@KPKHJIKE@IDB_Hooks_callee_addr_changed?$CIs@ 0000000180076390     idp.obj
 0002:000063c8       ??_C@_0DK@BKHEGCAI@IDB_Hooks_bookmark_changed?$CIself@ 00000001800763c8     idp.obj
 0002:00006408       ??_C@_0DN@JNEHGBLD@IDB_Hooks_sgr_deleted?$CIself?0?5sta@ 0000000180076408     idp.obj
 0002:00006448       ??_C@_0O@EFACNHNG@new_IDB_Hooks@ 0000000180076448     idp.obj
 0002:00006458       ??_C@_0CC@GPOHABFM@new_IDB_Hooks?$CI_self?$CJ?5?9?$DO?5IDB_Hoo@ 0000000180076458     idp.obj
 0002:00006480       ??_C@_0BB@HGEFDJGL@disown_IDB_Hooks@ 0000000180076480     idp.obj
 0002:00006498       ??_C@_0BH@LIKKGFHB@IDB_Hooks_swigregister@ 0000000180076498     idp.obj
 0002:000064b0       ??_C@_0BD@GPBNJAAN@IDB_Hooks_swiginit@ 00000001800764b0     idp.obj
 0002:000064c8       ??_C@_0BC@IGOGLBOP@reg_info_t___eq__@ 00000001800764c8     idp.obj
 0002:000064e0       ??_C@_0BJ@KMKKFHNF@IDP_Hooks_ev_get_cc_regs@ 00000001800764e0     idp.obj
 0002:00006500       ??_C@_07MCEKNOEP@_p_FILE@  0000000180076500     idp.obj
 0002:00006508       ??_C@_06LPAKMOJ@FILE?5?$CK@ 0000000180076508     idp.obj
 0002:00006510       ??_C@_0N@JFDFFALM@_p_IDB_Hooks@ 0000000180076510     idp.obj
 0002:00006520       ??_C@_0M@MGLPBMJL@IDB_Hooks?5?$CK@ 0000000180076520     idp.obj
 0002:00006530       ??_C@_0N@KLKLGGOK@_p_IDP_Hooks@ 0000000180076530     idp.obj
 0002:00006540       ??_C@_0M@OFOEENEO@IDP_Hooks?5?$CK@ 0000000180076540     idp.obj
 0002:00006550       ??_C@_0BE@LADBKDLC@_p__qstringT_char_t@ 0000000180076550     idp.obj
 0002:00006568       ??_C@_0BN@OHJFNODI@_qstring?$DM?5char?5?$DO?5?$CK?$HMqstring?5?$CK@ 0000000180076568     idp.obj
 0002:00006588       ??_C@_0BN@OGMFMNEO@_p__qstringT_unsigned_char_t@ 0000000180076588     idp.obj
 0002:000065a8       ??_C@_0CE@FCOOCMMP@qtype?5?$CK?$HM_qstring?$DM?5unsigned?5char@ 00000001800765a8     idp.obj
 0002:000065d0       ??_C@_0BC@COENEADG@reg_info_t___ne__@ 00000001800765d0     idp.obj
 0002:000065e8       ??_C@_0BO@NPELMEMN@_p__qstringT_unsigned_short_t@ 00000001800765e8     idp.obj
 0002:00006608       ??_C@_0CI@MOGIECDE@_qstring?$DM?5unsigned?5short?5?$DO?5?$CK?$HMqw@ 0000000180076608     idp.obj
 0002:00006630       ??_C@_0BF@FIODJLOI@_p_action_ctx_base_t@ 0000000180076630     idp.obj
 0002:00006650       ??_C@_0EE@ODNBPOJC@action_ctx_base_t?5?$CK?$HMaction_upda@ 0000000180076650     idp.obj
 0002:00006698       ??_C@_0M@PGPAKAJF@_p_argloc_t@ 0000000180076698     idp.obj
 0002:000066a8       ??_C@_0L@LCHOKPDG@argloc_t?5?$CK@ 00000001800766a8     idp.obj
 0002:000066b8       ??_C@_0N@EPBPIDFP@_p_argpart_t@ 00000001800766b8     idp.obj
 0002:000066c8       ??_C@_08FFPFNBHJ@_p_asm_t@ 00000001800766c8     idp.obj
 0002:000066d8       ??_C@_07OGEOLDJI@asm_t?5?$CK@ 00000001800766d8     idp.obj
 0002:000066e0       ??_C@_0N@IODFCNBG@_p_biggest_t@ 00000001800766e0     idp.obj
 0002:000066f0       ??_C@_0M@LMODFOHJ@biggest_t?5?$CK@ 00000001800766f0     idp.obj
 0002:00006700       ??_C@_0BI@ELBPLJMI@_p_bitfield_type_data_t@ 0000000180076700     idp.obj
 0002:00006718       ??_C@_0BH@DBCABLAE@bitfield_type_data_t?5?$CK@ 0000000180076718     idp.obj
 0002:00006730       ??_C@_0O@NJNGBELF@_p_bitrange_t@ 0000000180076730     idp.obj
 0002:00006740       ??_C@_0N@GPBNKNA@bitrange_t?5?$CK@ 0000000180076740     idp.obj
 0002:00006750       ??_C@_07NBPMADL@_p_bool@   0000000180076750     idp.obj
 0002:00006758       ??_C@_06LKKMOCCN@bool?5?$CK@ 0000000180076758     idp.obj
 0002:00006760       ??_C@_0N@OAHCDFLH@_p_bytevec_t@ 0000000180076760     idp.obj
 0002:00006770       ??_C@_0M@BIJDCFMA@bytevec_t?5?$CK@ 0000000180076770     idp.obj
 0002:00006780       ??_C@_0BA@KOPDLMDG@_p_reloc_info_t@ 0000000180076780     idp.obj
 0002:00006790       ??_C@_0O@DMCFDGCC@_p_callregs_t@ 0000000180076790     idp.obj
 0002:000067a0       ??_C@_0N@ONJBGCBK@callregs_t?5?$CK@ 00000001800767a0     idp.obj
 0002:000067b0       ??_C@_0N@BCGNLHPJ@_p_casevec_t@ 00000001800767b0     idp.obj
 0002:000067c0       ??_C@_0M@HFNPFHFI@casevec_t?5?$CK@ 00000001800767c0     idp.obj
 0002:000067d0       ??_C@_0O@HOPHBKAL@char?5?$CK?$HMint8?5?$CK@ 00000001800767d0     idp.obj
 0002:000067e0       ??_C@_0BC@KJKOCNNG@_p_const_iterator@ 00000001800767e0     idp.obj
 0002:000067f8       ??_C@_0BB@LAJPCFIO@const_iterator?5?$CK@ 00000001800767f8     idp.obj
 0002:00006810       ??_C@_0BC@LMCICDKM@reg_info_t___lt__@ 0000000180076810     idp.obj
 0002:00006828       ??_C@_0N@GGCMOLDL@_p_extlang_t@ 0000000180076828     idp.obj
 0002:00006838       ??_C@_0M@OOMOILAK@extlang_t?5?$CK@ 0000000180076838     idp.obj
 0002:00006848       ??_C@_0CE@DHGPAIMI@_p_f_p_TWidget_int_int_p_void__@ 0000000180076848     idp.obj
 0002:00006870       ??_C@_0DN@DFPOHMBA@custom_viewer_keydown_t?5?$CK?$HMbool?5@ 0000000180076870     idp.obj
 0002:000068b0       ??_C@_0DF@PENMGFJK@_p_f_p_TWidget_int_p_view_mouse@ 00000001800768b0     idp.obj
 0002:000068f0       ??_C@_0FC@NPHKCCPL@void?5?$CI?$CK?$CJ?$CITWidget?5?$CK?0int?0view_mou@ 00000001800768f0     idp.obj
 0002:00006948       ??_C@_0CA@IGCEDJID@_p_f_p_TWidget_int_p_void__bool@ 0000000180076948     idp.obj
 0002:00006970       ??_C@_0FC@PJNOFHGN@custom_viewer_click_t?5?$CK?$HMcustom_@ 0000000180076970     idp.obj
 0002:000069c8       ??_C@_0CO@MIHLPJDD@_p_f_p_TWidget_p_lochist_entry_@ 00000001800769c8     idp.obj
 0002:00006a00       ??_C@_0EM@HBPJNBB@custom_viewer_adjust_place_t?5?$CK?$HM@ 0000000180076a00     idp.obj
 0002:00006a50       ??_C@_0GM@LBGPKCPI@_p_f_p_TWidget_p_q_const__lochi@ 0000000180076a50     idp.obj
 0002:00006ac0       ??_C@_0IF@FKBGALIG@void?5?$CI?$CK?$CJ?$CITWidget?5?$CK?0lochist_entr@ 0000000180076ac0     idp.obj
 0002:00006b48       ??_C@_0BO@OKHONOOM@IDP_Hooks_ev_shadow_args_size@ 0000000180076b48     idp.obj
 0002:00006b70       ??_C@_0FA@DFBJAGBE@_p_f_p_TWidget_p_q_const__lochi@ 0000000180076b70     idp.obj
 0002:00006bc0       ??_C@_0GI@FMPBFLEM@custom_viewer_can_navigate_t?5?$CK?$HM@ 0000000180076bc0     idp.obj
 0002:00006c28       ??_C@_0DH@JJEDBLDE@_p_f_p_TWidget_p_q_const__place@ 0000000180076c28     idp.obj
 0002:00006c60       ??_C@_0EP@PJDAMEBK@code_viewer_lines_click_t?5?$CK?$HMvoi@ 0000000180076c60     idp.obj
 0002:00006cb0       ??_C@_0DE@PBNPHPNC@_p_f_p_TWidget_p_q_const__place@ 0000000180076cb0     idp.obj
 0002:00006cf0       ??_C@_0EL@JKPIBDKO@code_viewer_lines_icon_t?5?$CK?$HMint?5@ 0000000180076cf0     idp.obj
 0002:00006d40       ??_C@_0EB@FDCGDBJI@_p_f_p_TWidget_p_q_const__place@ 0000000180076d40     idp.obj
 0002:00006d90       ??_C@_0FN@GGLCMJJK@custom_viewer_get_place_xcoord_@ 0000000180076d90     idp.obj
 0002:00006df0       ??_C@_0DO@KLDLOPHE@_p_f_p_TWidget_p_q_const__place@ 0000000180076df0     idp.obj
 0002:00006e30       ??_C@_0FI@GOMHMLF@code_viewer_lines_linenum_t?5?$CK?$HMb@ 0000000180076e30     idp.obj
 0002:00006e88       ??_C@_0BL@BMEJNHDD@_p_f_p_TWidget_p_void__int@ 0000000180076e88     idp.obj
 0002:00006ea8       ??_C@_0DB@GMPMLKDG@custom_viewer_help_t?5?$CK?$HMint?5?$CI?$CK?$CJ?$CI@ 0000000180076ea8     idp.obj
 0002:00006ee0       ??_C@_0BM@PAKPNBHH@_p_f_p_TWidget_p_void__void@ 0000000180076ee0     idp.obj
 0002:00006f00       ??_C@_0GE@BLLNJKNN@custom_viewer_popup_t?5?$CK?$HMcustom_@ 0000000180076f00     idp.obj
 0002:00006f68       ??_C@_0DM@PKHFKJJF@_p_f_p_chooser_multi_t_p_sizeve@ 0000000180076f68     idp.obj
 0002:00006fa8       ??_C@_0BC@MLPIBCLN@reg_info_t___gt__@ 0000000180076fa8     idp.obj
 0002:00006fc0       ??_C@_0FA@INGPHNGB@chooser_base_t?3?3cbres_t?5?$CI?$CK?$CJ?$CIcho@ 0000000180076fc0     idp.obj
 0002:00007010       ??_C@_0CN@LJCPBILN@_p_f_p_chooser_t_ssize_t__choos@ 0000000180077010     idp.obj
 0002:00007040       ??_C@_0DL@IKAMODJA@chooser_t?3?3cbret_t?5?$CI?$CK?$CJ?$CIchooser_@ 0000000180077040     idp.obj
 0002:00007080       ??_C@_0DN@BMMCGMEL@_p_f_p_lexer_t_r_q_const__token@ 0000000180077080     idp.obj
 0002:000070c0       ??_C@_0EI@OBDBCPHD@cfgopt_handler_t?5?$CK?$HMchar?5?$CK?$CI?$CK?$CJ?$CIle@ 00000001800770c0     idp.obj
 0002:00007110       ??_C@_0EC@GIKOMIMG@_p_f_p_lochist_entry_t_r_q_cons@ 0000000180077110     idp.obj
 0002:00007160       ??_C@_0FE@OJIOMBOE@bool?5?$CI?$CK?$CJ?$CIlochist_entry_t?5?$CK?0loch@ 0000000180077160     idp.obj
 0002:000071b8       ??_C@_0DF@NKIICKFO@_p_f_p_q_const__char_p_q_const_@ 00000001800771b8     idp.obj
 0002:000071f0       ??_C@_0EM@BKNOAMGK@regval_t?5?$CG?$CI?$CK?$CJ?$CIchar?5const?5?$CK?0regv@ 00000001800771f0     idp.obj
 0002:00007240       ??_C@_0CC@HPECDOJE@_p_f_p_q_const__char_p_void__vo@ 0000000180077240     idp.obj
 0002:00007268       ??_C@_0DA@LKJNDOAC@void?5?$CI?$CK?$CJ?$CIchar?5const?5?$CK?0void?5?$CK?$CJ?$HMs@ 0000000180077268     idp.obj
 0002:000072a0       ??_C@_0GC@HKCHLFJ@_p_f_p_q_const__char_r_q_const_@ 00000001800772a0     idp.obj
 0002:00007310       ??_C@_0GE@CDAMLIPA@h2ti_type_cb?5?$CK?$HMint?5?$CI?$CK?$CJ?$CIchar?5con@ 0000000180077310     idp.obj
 0002:00007378       ??_C@_0CB@PLKCNJF@_p_f_p_q_const__char_v_______in@ 0000000180077378     idp.obj
 0002:000073a0       ??_C@_0CG@EHKOJEHN@int?5?$CI?$CK?$CJ?$CIchar?5const?5?$CK?0?4?4?4?$CJ?$HMprint@ 00000001800773a0     idp.obj
 0002:000073c8       ??_C@_0CB@PPFKEDBB@_p_f_p_void_int_va_list__ssize_@ 00000001800773c8     idp.obj
 0002:000073f0       ??_C@_0CM@ODIKDJIA@ssize_t?5?$CI?$CK?$CJ?$CIvoid?5?$CK?0int?0va_list?$CJ@ 00000001800773f0     idp.obj
 0002:00007420       ??_C@_0CJ@KNMLBMOG@_p_f_r_q_const__insn_t_p_int_p_@ 0000000180077420     idp.obj
 0002:00007450       ??_C@_0DI@CGFAFNOI@bool?5?$CI?$CK?$CJ?$CIinsn_t?5const?5?$CG?0int?5?$CK?0i@ 0000000180077450     idp.obj
 0002:00007490       ??_C@_0FA@JJBGCIIH@_p_f_r_q_const__insn_t_r_q_cons@ 0000000180077490     idp.obj
 0002:000074e0       ??_C@_0FE@IBKJNBMI@bool?5?$CI?$CK?$CJ?$CIinsn_t?5const?5?$CG?0op_t?5co@ 00000001800774e0     idp.obj
 0002:00007538       ??_C@_0BI@PGCOIKGG@_p_f_unsigned_int__bool@ 0000000180077538     idp.obj
 0002:00007550       ??_C@_0DN@OGOBIPP@bool?5?$CI?$CK?$CJ?$CIunsigned?5int?$CJ?$HMhas_dela@ 0000000180077550     idp.obj
 0002:00007590       ??_C@_0DL@FFEHDPON@_p_f_unsigned_int_p_q_const__ch@ 0000000180077590     idp.obj
 0002:000075d0       ??_C@_0EK@MACPDLHN@int?5?$CI?$CK?$CJ?$CIunsigned?5int?0char?5const@ 00000001800775d0     idp.obj
 0002:00007620       ??_C@_0BP@HNIFGGKH@_p_f_unsigned_int_p_void__bool@ 0000000180077620     idp.obj
 0002:00007640       ??_C@_0CI@PMEGIBIK@testf_t?5?$CK?$HMbool?5?$CI?$CK?$CJ?$CIunsigned?5int@ 0000000180077640     idp.obj
 0002:00007668       ??_C@_0BC@FEINBDFG@reg_info_t___le__@ 0000000180077668     idp.obj
 0002:00007680       ??_C@_0DB@CEAPILAH@_p_f_unsigned_int_r_q_const__ti@ 0000000180077680     idp.obj
 0002:000076b8       ??_C@_0BM@KJKMODAC@IDP_Hooks_ev_get_simd_types@ 00000001800776b8     idp.obj
 0002:000076e0       ??_C@_0EH@MLDNCCKC@local_tinfo_predicate_t?5?$CK?$HMint?5?$CI@ 00000001800776e0     idp.obj
 0002:00007728       ??_C@_0CN@BPIIPJKN@_p_f_unsigned_int_unsigned_int_@ 0000000180077728     idp.obj
 0002:00007758       ??_C@_0DO@CKIBBIPB@unsigned?5int?5?$CI?$CK?$CJ?$CIunsigned?5int?0u@ 0000000180077758     idp.obj
 0002:00007798       ??_C@_0BA@ONHIFOD@_p_fixup_data_t@ 0000000180077798     idp.obj
 0002:000077a8       ??_C@_0P@EPDJHGAI@fixup_data_t?5?$CK@ 00000001800777a8     idp.obj
 0002:000077b8       ??_C@_09LIGEMJOA@_p_func_t@ 00000001800777b8     idp.obj
 0002:000077c8       ??_C@_08IOOOCDNO@func_t?5?$CK@ 00000001800777c8     idp.obj
 0002:000077d8       ??_C@_0BE@JCEDGMJE@_p_func_type_data_t@ 00000001800777d8     idp.obj
 0002:000077f0       ??_C@_0BD@EKGBHCHI@func_type_data_t?5?$CK@ 00000001800777f0     idp.obj
 0002:00007808       ??_C@_0N@MCHHJAOG@_p_funcarg_t@ 0000000180077808     idp.obj
 0002:00007818       ??_C@_0M@BNIPDMLH@funcarg_t?5?$CK@ 0000000180077818     idp.obj
 0002:00007828       ??_C@_0M@KELGCMEJ@_p_idasgn_t@ 0000000180077828     idp.obj
 0002:00007838       ??_C@_0L@HLPNLIGI@idasgn_t?5?$CK@ 0000000180077838     idp.obj
 0002:00007848       ??_C@_09ENCHMALP@_p_insn_t@ 0000000180077848     idp.obj
 0002:00007858       ??_C@_08MKBBCPKC@insn_t?5?$CK@ 0000000180077858     idp.obj
 0002:00007864       ??_C@_06EJFLAOFF@_p_int@   0000000180077864     idp.obj
 0002:00007870       ??_C@_0IP@MJMBKPL@adiff_t?5?$CK?$HMint?5?$CK?$HMint32?5?$CK?$HMsval_t?5@ 0000000180077870     idp.obj
 0002:00007900       ??_C@_0M@CFMLOKJJ@_p_iterator@ 0000000180077900     idp.obj
 0002:00007910       ??_C@_0L@IIMCJLIP@iterator?5?$CK@ 0000000180077910     idp.obj
 0002:00007920       ??_C@_0N@CIADCGPL@_p_libfunc_t@ 0000000180077920     idp.obj
 0002:00007930       ??_C@_0M@MAOBKMGG@libfunc_t?5?$CK@ 0000000180077930     idp.obj
 0002:00007940       ??_C@_0M@CAHMANIJ@_p_linput_t@ 0000000180077940     idp.obj
 0002:00007950       ??_C@_0L@PMGOPLLC@linput_t?5?$CK@ 0000000180077950     idp.obj
 0002:00007960       ??_C@_0O@HDLJBJJF@_p_location_t@ 0000000180077960     idp.obj
 0002:00007970       ??_C@_0N@ONMECIKA@location_t?5?$CK@ 0000000180077970     idp.obj
 0002:00007980       ??_C@_0BD@LLJDMBMA@_p_lochist_entry_t@ 0000000180077980     idp.obj
 0002:00007998       ??_C@_0BC@HHKHNEBC@lochist_entry_t?5?$CK@ 0000000180077998     idp.obj
 0002:000079b0       ??_C@_0BC@CDFNCCEH@reg_info_t___ge__@ 00000001800779b0     idp.obj
 0002:000079c8       ??_C@_0N@HIKGEFDH@_p_long_long@ 00000001800779c8     idp.obj
 0002:000079d8       ??_C@_0BP@FECEFBLL@int64?5?$CK?$HMlonglong?5?$CK?$HMlong?5long?5?$CK@ 00000001800779d8     idp.obj
 0002:000079f8       ??_C@_0M@FKNFHNNG@_p_member_t@ 00000001800779f8     idp.obj
 0002:00007a08       ??_C@_0L@JBEILBLM@member_t?5?$CK@ 0000000180077a08     idp.obj
 0002:00007a18       ??_C@_0CF@FKLNCPOA@IDP_Hooks_ev_calc_cdecl_purged_@ 0000000180077a18     idp.obj
 0002:00007a40       ??_C@_07FLIFDOIK@_p_op_t@  0000000180077a40     idp.obj
 0002:00007a48       ??_C@_06BNHHPEFF@op_t?5?$CK@ 0000000180077a48     idp.obj
 0002:00007a50       ??_C@_0M@CGCGHLOF@_p_opinfo_t@ 0000000180077a50     idp.obj
 0002:00007a60       ??_C@_0L@IMEAANEK@opinfo_t?5?$CK@ 0000000180077a60     idp.obj
 0002:00007a70       ??_C@_0M@DLPDAJF@_p_outctx_t@ 0000000180077a70     idp.obj
 0002:00007a80       ??_C@_0L@ECHBMJDN@outctx_t?5?$CK@ 0000000180077a80     idp.obj
 0002:00007a90       ??_C@_09ENGDGKOI@_p_p_char@ 0000000180077a90     idp.obj
 0002:00007aa0       ??_C@_07MGNJEKDM@char?5?$CK?$CK@ 0000000180077aa0     idp.obj
 0002:00007aa8       ??_C@_0BD@HPCHEHOC@_p_p_gen_outline_t@ 0000000180077aa8     idp.obj
 0002:00007ac0       ??_C@_0BB@PMBNBFC@gen_outline_t?5?$CK?$CK@ 0000000180077ac0     idp.obj
 0002:00007ad8       ??_C@_0BB@FPOHHJBH@_p_qflow_chart_t@ 0000000180077ad8     idp.obj
 0002:00007af0       ??_C@_0BA@BFOHAAOD@qflow_chart_t?5?$CK@ 0000000180077af0     idp.obj
 0002:00007b00       ??_C@_0BP@KKGOOMNJ@_p_qvectorT__qstringT_char_t_t@ 0000000180077b00     idp.obj
 0002:00007b20       ??_C@_0CK@FPLCNIKL@qvector?$DM?5_qstring?$DM?5char?5?$DO?5?$DO?5?$CK?$HMq@ 0000000180077b20     idp.obj
 0002:00007b50       ??_C@_0CJ@KBPLCHCN@_p_qvectorT__qstringT_unsigned_@ 0000000180077b50     idp.obj
 0002:00007b80       ??_C@_0DF@GOALPBDM@qvector?$DM?5_qstring?$DM?5unsigned?5sho@ 0000000180077b80     idp.obj
 0002:00007bb8       ??_C@_0BH@EHIHPDFP@_p_qvectorT_argloc_t_t@ 0000000180077bb8     idp.obj
 0002:00007bd0       ??_C@_0CC@PMMGEEHP@qvector?$DM?5argloc_t?5?$DO?5?$CK?$HMarglocs_t@ 0000000180077bd0     idp.obj
 0002:00007bf8       ??_C@_0BD@IFPOLGLB@_p_qvectorT_bool_t@ 0000000180077bf8     idp.obj
 0002:00007c10       ??_C@_0BO@JEOEHDBE@boolvec_t?5?$CK?$HMqvector?$DM?5bool?5?$DO?5?$CK@ 0000000180077c10     idp.obj
 0002:00007c30       ??_C@_0BO@BMBALGLA@_p_qvectorT_channel_redir_t_t@ 0000000180077c30     idp.obj
 0002:00007c50       ??_C@_0DA@DFOFPPPA@qvector?$DM?5channel_redir_t?5?$DO?5?$CK?$HMch@ 0000000180077c50     idp.obj
 0002:00007c80       ??_C@_0CA@KLOIFAIM@_p_qvectorT_compiled_binpat_t_t@ 0000000180077c80     idp.obj
 0002:00007ca0       ??_C@_0DH@JJMOBCIB@compiled_binpat_vec_t?5?$CK?$HMqvector@ 0000000180077ca0     idp.obj
 0002:00007cd8       ??_C@_0BI@HPPPANA@_p_qvectorT_funcarg_t_t@ 0000000180077cd8     idp.obj
 0002:00007cf0       ??_C@_0CG@BKJABKPP@funcargvec_t?5?$CK?$HMqvector?$DM?5funcarg@ 0000000180077cf0     idp.obj
 0002:00007d18       ??_C@_0BC@EMAMHDDK@_p_qvectorT_int_t@ 0000000180077d18     idp.obj
 0002:00007d30       ??_C@_0CI@OEOLBAGE@svalvec_t?5?$CK?$HMintvec_t?5?$CK?$HMqvector?$DM@ 0000000180077d30     idp.obj
 0002:00007d58       ??_C@_0BG@NGNJJEPD@_p_qvectorT_range_t_t@ 0000000180077d58     idp.obj
 0002:00007d70       ??_C@_0CH@CMPFLCHN@rangevec_base_t?5?$CK?$HMqvector?$DM?5rang@ 0000000180077d70     idp.obj
 0002:00007d98       ??_C@_0CB@DLEFICAI@_p_qvectorT_rangeset_t_const_p_@ 0000000180077d98     idp.obj
 0002:00007dc0       ??_C@_0DF@CPGECBJE@rangeset_crefvec_t?5?$CK?$HMqvector?$DM?5r@ 0000000180077dc0     idp.obj
 0002:00007df8       ??_C@_0BJ@CBEEABAG@_p_qvectorT_rangeset_t_t@ 0000000180077df8     idp.obj
 0002:00007e18       ??_C@_0BP@LCBHNHBG@IDP_Hooks_ev_calc_purged_bytes@ 0000000180077e18     idp.obj
 0002:00007e38       ??_C@_0CN@NEPIOIFG@qvector?$DM?5rangeset_t?5?$DO?5?$CK?$HMarray_o@ 0000000180077e38     idp.obj
 0002:00007e68       ??_C@_0BN@HCIAELAH@_p_qvectorT_refinfo_desc_t_t@ 0000000180077e68     idp.obj
 0002:00007e88       ??_C@_0DB@OEPGJFJL@refinfo_desc_vec_t?5?$CK?$HMqvector?$DM?5r@ 0000000180077e88     idp.obj
 0002:00007ec0       ??_C@_0BJ@HLFIPJBL@_p_qvectorT_reg_info_t_t@ 0000000180077ec0     idp.obj
 0002:00007ee0       ??_C@_0CH@PJMLKIDH@reginfovec_t?5?$CK?$HMqvector?$DM?5reg_inf@ 0000000180077ee0     idp.obj
 0002:00007f08       ??_C@_0BK@JBDFAIAF@_p_qvectorT_simd_info_t_t@ 0000000180077f08     idp.obj
 0002:00007f28       ??_C@_0CL@IAEHADMA@simd_info_vec_t?5?$CK?$HMqvector?$DM?5simd@ 0000000180077f28     idp.obj
 0002:00007f58       ??_C@_0BL@JOHIOMBL@_p_qvectorT_simpleline_t_t@ 0000000180077f58     idp.obj
 0002:00007f78       ??_C@_0CF@LMLHENLN@strvec_t?5?$CK?$HMqvector?$DM?5simpleline_@ 0000000180077f78     idp.obj
 0002:00007fa0       ??_C@_07DIJKPEDD@compare@  0000000180077fa0     idp.obj
 0002:00007fa8       ??_C@_0BF@JMFCGENF@_p_qvectorT_size_t_t@ 0000000180077fa8     idp.obj
 0002:00007fc0       ??_C@_0CA@PKGFIBKP@sizevec_t?5?$CK?$HMqvector?$DM?5size_t?5?$DO?5?$CK@ 0000000180077fc0     idp.obj
 0002:00007fe0       ??_C@_0BG@GHPDGOHO@_p_qvectorT_tinfo_t_t@ 0000000180077fe0     idp.obj
 0002:00007ff8       ??_C@_0CC@CEHAEEKI@tinfovec_t?5?$CK?$HMqvector?$DM?5tinfo_t?5?$DO@ 0000000180077ff8     idp.obj
 0002:00008020       ??_C@_0BK@KGMCEJE@_p_qvectorT_type_attr_t_t@ 0000000180078020     idp.obj
 0002:00008040       ??_C@_0CI@PENEDOEG@type_attrs_t?5?$CK?$HMqvector?$DM?5type_at@ 0000000180078040     idp.obj
 0002:00008068       ??_C@_0BL@MFAEBBAF@_p_qvectorT_udt_member_t_t@ 0000000180078068     idp.obj
 0002:00008088       ??_C@_0CL@HFANAPIM@udtmembervec_t?5?$CK?$HMqvector?$DM?5udt_m@ 0000000180078088     idp.obj
 0002:000080b8       ??_C@_0BM@DFOCNGNJ@_p_qvectorT_unsigned_char_t@ 00000001800780b8     idp.obj
 0002:000080d8       ??_C@_0CH@MCODNJGI@qvector?$DM?5unsigned?5char?5?$DO?5?$CK?$HMcomp@ 00000001800780d8     idp.obj
 0002:00008100       ??_C@_0BL@POPMPLM@_p_qvectorT_unsigned_int_t@ 0000000180078100     idp.obj
 0002:00008120       ??_C@_0DL@HDEADPMO@eavec_t?5?$CK?$HMordvec_t?5?$CK?$HMuvalvec_t?5@ 0000000180078120     idp.obj
 0002:00008160       ??_C@_0L@NOIPKKEL@_p_range_t@ 0000000180078160     idp.obj
 0002:00008170       ??_C@_09HPKAOMNJ@range_t?5?$CK@ 0000000180078170     idp.obj
 0002:00008180       ??_C@_0BC@CLMFIBKG@_p_hidden_range_t@ 0000000180078180     idp.obj
 0002:00008198       ??_C@_0N@JGOFBMIG@_p_refinfo_t@ 0000000180078198     idp.obj
 0002:000081a8       ??_C@_0M@JMHMMMIJ@refinfo_t?5?$CK@ 00000001800781a8     idp.obj
 0002:000081b8       ??_C@_0O@PLBALOHA@_p_reg_info_t@ 00000001800781b8     idp.obj
 0002:000081c8       ??_C@_0N@IGHPJBOL@reg_info_t?5?$CK@ 00000001800781c8     idp.obj
 0002:000081d8       ??_C@_0N@JBGCOMHP@_p_regobjs_t@ 00000001800781d8     idp.obj
 0002:000081e8       ??_C@_0M@OELPGDOG@regobjs_t?5?$CK@ 00000001800781e8     idp.obj
 0002:000081f8       ??_C@_0BD@KDOKJECG@reg_info_t_compare@ 00000001800781f8     idp.obj
 0002:00008210       ??_C@_0M@FANNGJNJ@_p_regval_t@ 0000000180078210     idp.obj
 0002:00008220       ??_C@_0L@MAKHDAG@regval_t?5?$CK@ 0000000180078220     idp.obj
 0002:00008230       ??_C@_0M@OABLEJHF@_p_regvar_t@ 0000000180078230     idp.obj
 0002:00008240       ??_C@_0L@DFNGBAON@regvar_t?5?$CK@ 0000000180078240     idp.obj
 0002:00008250       ??_C@_0M@BEMIELHM@_p_relobj_t@ 0000000180078250     idp.obj
 0002:00008260       ??_C@_0L@KBKDOFL@relobj_t?5?$CK@ 0000000180078260     idp.obj
 0002:00008270       ??_C@_0BF@CLDOPFMJ@_p_segm_move_infos_t@ 0000000180078270     idp.obj
 0002:00008288       ??_C@_0BE@JHDCBLCJ@segm_move_infos_t?5?$CK@ 0000000180078288     idp.obj
 0002:000082a0       ??_C@_0N@JMGNDIKJ@_p_segment_t@ 00000001800782a0     idp.obj
 0002:000082b0       ??_C@_0M@LCGDBKLN@segment_t?5?$CK@ 00000001800782b0     idp.obj
 0002:000082c0       ??_C@_0BJ@ODLKOBLC@IDP_Hooks_ev_calc_retloc@ 00000001800782c0     idp.obj
 0002:000082e0       ??_C@_08JGEHMJEC@_p_short@ 00000001800782e0     idp.obj
 0002:000082f0       ??_C@_0BA@BBDCPKKI@int16?5?$CK?$HMshort?5?$CK@ 00000001800782f0     idp.obj
 0002:00008300       ??_C@_0P@IHEJCACJ@_p_signed_char@ 0000000180078300     idp.obj
 0002:00008310       ??_C@_0BG@CGJIOBCI@signed?5char?5?$CK?$HMsint8?5?$CK@ 0000000180078310     idp.obj
 0002:00008328       ??_C@_0P@JCCBBING@_p_simd_info_t@ 0000000180078328     idp.obj
 0002:00008338       ??_C@_0O@CJODBLG@simd_info_t?5?$CK@ 0000000180078338     idp.obj
 0002:00008348       ??_C@_0L@GMJMEAGC@_p_struc_t@ 0000000180078348     idp.obj
 0002:00008358       ??_C@_09HLDJMKEH@struc_t?5?$CK@ 0000000180078358     idp.obj
 0002:00008368       ??_C@_0P@FGKHABLB@new_reg_info_t@ 0000000180078368     idp.obj
 0002:00008378       ??_C@_0BB@DBECGEHM@_p_switch_info_t@ 0000000180078378     idp.obj
 0002:00008390       ??_C@_0BA@PAOILAPD@switch_info_t?5?$CK@ 0000000180078390     idp.obj
 0002:000083a0       ??_C@_0L@HJNCCEHP@_p_tinfo_t@ 00000001800783a0     idp.obj
 0002:000083b0       ??_C@_09MOIKBGFE@tinfo_t?5?$CK@ 00000001800783b0     idp.obj
 0002:000083c0       ??_C@_0N@FLFBLJJJ@_p_tryblks_t@ 00000001800783c0     idp.obj
 0002:000083d0       ??_C@_0M@PHJKFIME@tryblks_t?5?$CK@ 00000001800783d0     idp.obj
 0002:000083e0       ??_C@_0BB@JEMKPEPB@_p_unsigned_char@ 00000001800783e0     idp.obj
 0002:00008400       ??_C@_0HI@NBHOBBOJ@uchar?5?$CK?$HMunsigned?5char?5?$CK?$HMcm_t?5?$CK?$HM@ 0000000180078400     idp.obj
 0002:00008478       ??_C@_0BA@EMEBBPFL@_p_unsigned_int@ 0000000180078478     idp.obj
 0002:00008490       ??_C@_0JE@GCFOGLMK@bgcolor_t?5?$CK?$HMenum_t?5?$CK?$HMtid_t?5?$CK?$HMbm@ 0000000180078490     idp.obj
 0002:00008528       ??_C@_0BG@CGEDOPGF@_p_unsigned_long_long@ 0000000180078528     idp.obj
 0002:00008540       ??_C@_0CK@FCLCDGJM@uint64?5?$CK?$HMulonglong?5?$CK?$HMunsigned?5l@ 0000000180078540     idp.obj
 0002:00008570       ??_C@_0BC@GCHEMBCE@_p_unsigned_short@ 0000000180078570     idp.obj
 0002:00008588       ??_C@_0CP@HNCAPCKA@uint16?5?$CK?$HMunsigned?5short?5?$CK?$HMushor@ 0000000180078588     idp.obj
 0002:000085b8       ??_C@_07FECLAHMD@_p_void@  00000001800785b8     idp.obj
 0002:000085c0       ??_C@_06GDMJIHLP@void?5?$CK@ 00000001800785c0     idp.obj
 0002:000085c8       ??_C@_0BK@PEJBKGMJ@IDP_Hooks_ev_calc_arglocs@ 00000001800785c8     idp.obj
 0002:000085e8       ??_C@_0P@NHMICGIB@parse_reg_name@ 00000001800785e8     idp.obj
 0002:000085f8       ??_C@_0M@HNBAKDIE@sizeof_ldbl@ 00000001800785f8     idp.obj
 0002:00008608       ??_C@_0BL@JCLKPNEF@IDP_Hooks_ev_calc_varglocs@ 0000000180078608     idp.obj
 0002:00008628       ??_C@_0BD@PLGKIOOA@set_processor_type@ 0000000180078628     idp.obj
 0002:00008640       ??_C@_0N@HNNCOPLL@get_idp_name@ 0000000180078640     idp.obj
 0002:00008650       ??_C@_0BL@PMFMLLF@IDP_Hooks_ev_adjust_argloc@ 0000000180078650     idp.obj
 0002:00008670       ??_C@_0BN@EFHNCNJH@IDP_Hooks_ev_lower_func_type@ 0000000180078670     idp.obj
 0002:00008690       ??_C@_0BA@BGKLEJA@delay_slot_insn@ 0000000180078690     idp.obj
 0002:000086a0       ??_C@_0O@LOMKELIN@gen_idb_event@ 00000001800786a0     idp.obj
 0002:000086b0       ??_C@_0BL@OKHJOHMO@IDP_Hooks_ev_equal_reglocs@ 00000001800786b0     idp.obj
 0002:000086d0       ??_C@_0BA@GPGPFNKE@cfg_get_cc_parm@ 00000001800786d0     idp.obj
 0002:000086e0       ??_C@_0BN@CANNIEPC@IDP_Hooks_ev_use_stkarg_type@ 00000001800786e0     idp.obj
 0002:00008700       ??_C@_0BN@MODMDDBI@IDP_Hooks_ev_use_regarg_type@ 0000000180078700     idp.obj
 0002:00008720       ??_C@_08FMECJNEI@assemble@ 0000000180078720     idp.obj
 0002:00008730       ??_C@_0BL@FCOJLKE@IDP_Hooks_ev_use_arg_types@ 0000000180078730     idp.obj
 0002:00008750       ??_C@_09EOACDLLC@ph_get_id@ 0000000180078750     idp.obj
 0002:00008760       ??_C@_0P@CFPMPOGK@ph_get_version@ 0000000180078760     idp.obj
 0002:00008770       ??_C@_0M@EDLFIIFF@ph_get_flag@ 0000000180078770     idp.obj
 0002:00008780       ??_C@_0O@MLMKIIEA@ph_get_cnbits@ 0000000180078780     idp.obj
 0002:00008790       ??_C@_0BN@LJKMBBMP@IDP_Hooks_ev_arg_addrs_ready@ 0000000180078790     idp.obj
 0002:000087b0       ??_C@_0O@OGNLGMO@ph_get_dnbits@ 00000001800787b0     idp.obj
 0002:000087c0       ??_C@_0BG@CMMPIEGP@ph_get_reg_first_sreg@ 00000001800787c0     idp.obj
 0002:000087d8       ??_C@_0BF@JKICJLGG@ph_get_reg_last_sreg@ 00000001800787d8     idp.obj
 0002:000087f0       ??_C@_0BD@EEEFMFGG@ph_get_segreg_size@ 00000001800787f0     idp.obj
 0002:00008808       ??_C@_0BL@MPFADDDM@IDP_Hooks_ev_decorate_name@ 0000000180078808     idp.obj
 0002:00008828       ??_C@_0BF@BEJMLEDB@ph_get_reg_code_sreg@ 0000000180078828     idp.obj
 0002:00008840       ??_C@_0BF@LGHGGBOC@ph_get_reg_data_sreg@ 0000000180078840     idp.obj
 0002:00008858       ??_C@_0BE@FKEKLFPF@ph_get_icode_return@ 0000000180078858     idp.obj
 0002:00008870       ??_C@_0BF@HPEMBGHE@ph_get_instruc_start@ 0000000180078870     idp.obj
 0002:00008888       ??_C@_0BD@GFEACKPE@ph_get_instruc_end@ 0000000180078888     idp.obj
 0002:0000889c       ??_C@_03BHDOPPEK@own@      000000018007889c     idp.obj
 0002:000088a0       ??_C@_06EFGGFDFD@disown@   00000001800788a0     idp.obj
 0002:000088a8       ??_C@_0CC@CFIMIIPD@releases?5ownership?5of?5the?5point@ 00000001800788a8     idp.obj
 0002:000088d0       ??_C@_07MEFPPMEF@acquire@  00000001800788d0     idp.obj
 0002:000088d8       ??_C@_0CC@BAIBAPCI@acquires?5ownership?5of?5the?5point@ 00000001800788d8     idp.obj
 0002:00008900       ??_C@_0CG@GKPKGEFE@returns?1sets?5ownership?5of?5the?5p@ 0000000180078900     idp.obj
 0002:00008928       ??_C@_06PCICMFGG@append@   0000000180078928     idp.obj
 0002:00008930       ??_C@_0BO@NCOOMDHM@appends?5another?5?8this?8?5object@ 0000000180078930     idp.obj
 0002:00008950       ??_C@_04CJGEDOF@next@      0000000180078950     idp.obj
 0002:00008958       ??_C@_0BP@IMIAEPNG@returns?5the?5next?5?8this?8?5object@ 0000000180078958     idp.obj
 0002:00008978       ??_C@_08HJPCHLLJ@__repr__@ 0000000180078978     idp.obj
 0002:00008988       ??_C@_0BO@PNCCHPAD@returns?5object?5representation@ 0000000180078988     idp.obj
 0002:000089a8       ??_C@_0BC@BFDMPNKM@ph_get_tbyte_size@ 00000001800789a8     idp.obj
 0002:000089c0       ??_C@_0P@NIBLAONH@ph_get_instruc@ 00000001800789c0     idp.obj
 0002:000089d0       ??_C@_0BA@OIDOMBAG@ph_get_regnames@ 00000001800789d0     idp.obj
 0002:000089e0       ??_C@_0BE@OBAOMKJP@ph_get_operand_info@ 00000001800789e0     idp.obj
 0002:000089f8       ??_C@_0BC@FNBADGEG@ph_find_reg_value@ 00000001800789f8     idp.obj
 0002:00008a10       ??_C@_0BB@OOJBONGO@ph_find_op_value@ 0000000180078a10     idp.obj
 0002:00008a28       ??_C@_0BD@JPDEIHL@IDB_Hooks_upgraded@ 0000000180078a28     idp.obj
 0002:00008a40       ??_C@_0BK@FIEGNMKH@IDB_Hooks_determined_main@ 0000000180078a40     idp.obj
 0002:00008a60       ??_C@_0BC@INEMGJOH@IDP_Hooks_ev_init@ 0000000180078a60     idp.obj
 0002:00008a78       ??_C@_0BK@KCLBCGHO@IDB_Hooks_extlang_changed@ 0000000180078a78     idp.obj
 0002:00008a98       ??_C@_0BE@MDCGMFDI@IDP_Hooks_ev_newprc@ 0000000180078a98     idp.obj
 0002:00008ab0       ??_C@_0BE@LEMCLCHL@IDP_Hooks_ev_newasm@ 0000000180078ab0     idp.obj
 0002:00008ac8       ??_C@_0BI@LJEDBDKE@IDB_Hooks_idasgn_loaded@ 0000000180078ac8     idp.obj
 0002:00008ae0       ??_C@_0BF@FDKPPEDI@IDP_Hooks_ev_newfile@ 0000000180078ae0     idp.obj
 0002:00008af8       ??_C@_0BF@IPNPMBEA@IDP_Hooks_ev_oldfile@ 0000000180078af8     idp.obj
 0002:00008b10       ??_C@_0BK@JILHAIFF@IDB_Hooks_loader_finished@ 0000000180078b10     idp.obj
 0002:00008b30       ??_C@_0BN@IMCBPBKD@IDB_Hooks_flow_chart_created@ 0000000180078b30     idp.obj
 0002:00008b50       ??_C@_0BH@FCKEHPE@IDP_Hooks_ev_newbinary@ 0000000180078b50     idp.obj
 0002:00008b68       ??_C@_0BH@INKLBEBG@IDP_Hooks_ev_endbinary@ 0000000180078b68     idp.obj
 0002:00008b80       ??_C@_0BG@KDMKAGB@IDB_Hooks_changing_ti@ 0000000180078b80     idp.obj
 0002:00008b98       ??_C@_0BN@FAIDMICK@IDP_Hooks_ev_set_idp_options@ 0000000180078b98     idp.obj
 0002:00008bb8       ??_C@_0BF@GELMKLAG@IDB_Hooks_ti_changed@ 0000000180078bb8     idp.obj
 0002:00008bd0       ??_C@_0BO@KDCAKCFL@IDP_Hooks_ev_set_proc_options@ 0000000180078bd0     idp.obj
 0002:00008bf0       ??_C@_0BJ@LIDFGJEO@IDB_Hooks_changing_op_ti@ 0000000180078bf0     idp.obj
 0002:00008c10       ??_C@_0BG@MECFGKBM@IDP_Hooks_ev_ana_insn@ 0000000180078c10     idp.obj
 0002:00008c28       ??_C@_0BG@IENHIECO@IDP_Hooks_ev_emu_insn@ 0000000180078c28     idp.obj
 0002:00008c40       ??_C@_0BI@EKFNLLIL@IDB_Hooks_op_ti_changed@ 0000000180078c40     idp.obj
 0002:00008c58       ??_C@_0BI@MKEHIKFH@IDP_Hooks_ev_out_header@ 0000000180078c58     idp.obj
 0002:00008c70       ??_C@_0BI@NEMKDLJC@IDP_Hooks_ev_out_footer@ 0000000180078c70     idp.obj
 0002:00008c88       ??_C@_0BL@EGPGKDGP@IDB_Hooks_changing_op_type@ 0000000180078c88     idp.obj
 0002:00008ca8       ??_C@_0BK@KIALPGNA@IDP_Hooks_ev_out_segstart@ 0000000180078ca8     idp.obj
 0002:00008cc8       ??_C@_0BK@HLCMCKF@IDB_Hooks_op_type_changed@ 0000000180078cc8     idp.obj
 0002:00008ce8       ??_C@_0BI@IIKPIKJA@IDP_Hooks_ev_out_segend@ 0000000180078ce8     idp.obj
 0002:00008d00       ??_C@_0BH@HPHKGDIK@IDB_Hooks_enum_created@ 0000000180078d00     idp.obj
 0002:00008d18       ??_C@_0BJ@CFNFJLIP@IDP_Hooks_ev_out_assumes@ 0000000180078d18     idp.obj
 0002:00008d38       ??_C@_0BI@LLPILMBH@IDB_Hooks_deleting_enum@ 0000000180078d38     idp.obj
 0002:00008d50       ??_C@_0BH@FEJDPNL@IDB_Hooks_enum_deleted@ 0000000180078d50     idp.obj
 0002:00008d68       ??_C@_0BG@BINACPJK@IDP_Hooks_ev_out_insn@ 0000000180078d68     idp.obj
 0002:00008d80       ??_C@_0BG@NONGAFFL@IDP_Hooks_ev_out_mnem@ 0000000180078d80     idp.obj
 0002:00008d98       ??_C@_0BI@KCNBIMPC@IDB_Hooks_renaming_enum@ 0000000180078d98     idp.obj
 0002:00008db0       ??_C@_0BJ@CFBIHKHJ@IDP_Hooks_ev_out_operand@ 0000000180078db0     idp.obj
 0002:00008dd0       ??_C@_0BH@CKMEBIKJ@IDB_Hooks_enum_renamed@ 0000000180078dd0     idp.obj
 0002:00008de8       ??_C@_0BG@DKPEPBDH@IDP_Hooks_ev_out_data@ 0000000180078de8     idp.obj
 0002:00008e00       ??_C@_0BL@JKMGFPKI@IDB_Hooks_changing_enum_bf@ 0000000180078e00     idp.obj
 0002:00008e20       ??_C@_0BK@JMHAEJND@IDB_Hooks_enum_bf_changed@ 0000000180078e20     idp.obj
 0002:00008e40       ??_C@_0BH@OPOHFHKH@IDP_Hooks_ev_out_label@ 0000000180078e40     idp.obj
 0002:00008e58       ??_C@_0BM@CHCNNJPD@IDB_Hooks_changing_enum_cmt@ 0000000180078e58     idp.obj
 0002:00008e78       ??_C@_0BO@KOKIGPLJ@IDP_Hooks_ev_out_special_item@ 0000000180078e78     idp.obj
 0002:00008e98       ??_C@_0BL@EGJEHGND@IDB_Hooks_enum_cmt_changed@ 0000000180078e98     idp.obj
 0002:00008eb8       ??_C@_0BM@DAGKKHBA@IDP_Hooks_ev_gen_stkvar_def@ 0000000180078eb8     idp.obj
 0002:00008ed8       ??_C@_0BO@JFOPOGNA@IDB_Hooks_enum_member_created@ 0000000180078ed8     idp.obj
 0002:00008ef8       ??_C@_0BM@NPLMGBBC@IDP_Hooks_ev_gen_regvar_def@ 0000000180078ef8     idp.obj
 0002:00008f18       ??_C@_0BP@OAIAGPCE@IDB_Hooks_deleting_enum_member@ 0000000180078f18     idp.obj
 0002:00008f38       ??_C@_0BL@MANMJCLH@IDP_Hooks_ev_creating_segm@ 0000000180078f38     idp.obj
 0002:00008f58       ??_C@_0BO@OPNMLKIB@IDB_Hooks_enum_member_deleted@ 0000000180078f58     idp.obj
 0002:00008f78       ??_C@_0BI@OFCAHHF@IDB_Hooks_struc_created@ 0000000180078f78     idp.obj
 0002:00008f90       ??_C@_0BJ@HLIHKJPI@IDP_Hooks_ev_moving_segm@ 0000000180078f90     idp.obj
 0002:00008fb0       ??_C@_0BJ@LNIFOBML@IDB_Hooks_deleting_struc@ 0000000180078fb0     idp.obj
 0002:00008fd0       ??_C@_0BH@GBDIOBLO@IDP_Hooks_ev_coagulate@ 0000000180078fd0     idp.obj
 0002:00008fe8       ??_C@_0BI@HEGBFLCE@IDB_Hooks_struc_deleted@ 0000000180078fe8     idp.obj
 0002:00009000       ??_C@_0BG@CKFNDEIN@IDP_Hooks_ev_undefine@ 0000000180079000     idp.obj
 0002:00009018       ??_C@_0BP@JCCEHGOH@IDB_Hooks_changing_struc_align@ 0000000180079018     idp.obj
 0002:00009038       ??_C@_0CC@EAEDOMJG@IDP_Hooks_ev_treat_hindering_it@ 0000000180079038     idp.obj
 0002:00009060       ??_C@_0BO@PFLMGOLD@IDB_Hooks_struc_align_changed@ 0000000180079060     idp.obj
 0002:00009080       ??_C@_0BE@KHCNLFEA@IDP_Hooks_ev_rename@ 0000000180079080     idp.obj
 0002:00009098       ??_C@_0BJ@GNPMNOAM@IDB_Hooks_renaming_struc@ 0000000180079098     idp.obj
 0002:000090b8       ??_C@_0BJ@JDEIMJCD@IDP_Hooks_ev_is_far_jump@ 00000001800790b8     idp.obj
 0002:000090d8       ??_C@_0BI@FLOMHMFG@IDB_Hooks_struc_renamed@ 00000001800790d8     idp.obj
 0002:000090f0       ??_C@_0BK@FOFOBGGM@IDP_Hooks_ev_is_sane_insn@ 00000001800790f0     idp.obj
 0002:00009110       ??_C@_0BK@PCOJMBED@IDB_Hooks_expanding_struc@ 0000000180079110     idp.obj
 0002:00009130       ??_C@_0BK@BHEFEHKC@IDP_Hooks_ev_is_cond_insn@ 0000000180079130     idp.obj
 0002:00009150       ??_C@_0BJ@GFOCCNEN@IDB_Hooks_struc_expanded@ 0000000180079150     idp.obj
 0002:00009170       ??_C@_0BK@KOENNFCK@IDP_Hooks_ev_is_call_insn@ 0000000180079170     idp.obj
 0002:00009190       ??_C@_0N@DJGJFENF@AssembleLine@ 0000000180079190     idp.obj
 0002:000091a0       ??_C@_0BP@LGIOECJA@IDB_Hooks_struc_member_created@ 00000001800791a0     idp.obj
 0002:000091c0       ??_C@_0BJ@IHLPPKHF@IDP_Hooks_ev_is_ret_insn@ 00000001800791c0     idp.obj
 0002:000091e0       ??_C@_0L@JODJJFGK@has_cf_chg@ 00000001800791e0     idp.obj
 0002:000091f0       ??_C@_0CA@BINKGGJO@IDB_Hooks_deleting_struc_member@ 00000001800791f0     idp.obj
 0002:00009210       ??_C@_0BJ@CMKKDNCB@IDP_Hooks_ev_may_be_func@ 0000000180079210     idp.obj
 0002:00009230       ??_C@_0L@MJAOLDDK@has_cf_use@ 0000000180079230     idp.obj
 0002:00009240       ??_C@_0BB@MJMAHLA@has_insn_feature@ 0000000180079240     idp.obj
 0002:00009258       ??_C@_0BP@MMLNBOMB@IDB_Hooks_struc_member_deleted@ 0000000180079258     idp.obj
 0002:00009278       ??_C@_0CA@IHMGKFMC@IDP_Hooks_ev_is_basic_block_end@ 0000000180079278     idp.obj
 0002:00009298       ??_C@_0BO@JPCIEINA@IDP_Hooks_ev_is_indirect_jump@ 0000000180079298     idp.obj
 0002:000092b8       ??_C@_0CA@DGNKEJME@IDB_Hooks_renaming_struc_member@ 00000001800792b8     idp.obj
 0002:000092d8       ??_C@_0M@FPLNIIIE@is_ret_insn@ 00000001800792d8     idp.obj
 0002:000092e8       ??_C@_0CA@EAJCGDK@IDP_Hooks_ev_is_insn_table_jump@ 00000001800792e8     idp.obj
 0002:00009308       ??_C@_0BP@ODDADJLD@IDB_Hooks_struc_member_renamed@ 0000000180079308     idp.obj
 0002:00009328       ??_C@_0BD@JKAFPKHD@is_basic_block_end@ 0000000180079328     idp.obj
 0002:00009340       ??_C@_0BH@HBBAHLOO@IDP_Hooks_ev_is_switch@ 0000000180079340     idp.obj
 0002:00009358       ??_C@_0P@BCLIKAFM@asm_t_flag_set@ 0000000180079358     idp.obj
 0002:00009368       ??_C@_0CA@NFBMKHG@IDB_Hooks_changing_struc_member@ 0000000180079368     idp.obj
 0002:00009388       ??_C@_0BA@MHAAPNC@asm_t_uflag_set@ 0000000180079388     idp.obj
 0002:00009398       ??_C@_0BP@IAAGAHLJ@IDP_Hooks_ev_calc_switch_cases@ 0000000180079398     idp.obj
 0002:000093b8       ??_C@_0BP@COENKMKG@IDB_Hooks_struc_member_changed@ 00000001800793b8     idp.obj
 0002:000093d8       ??_C@_0P@LIANNMOK@asm_t_name_set@ 00000001800793d8     idp.obj
 0002:000093e8       ??_C@_0CB@CMPMLMIK@IDP_Hooks_ev_create_switch_xref@ 00000001800793e8     idp.obj
 0002:00009410       ??_C@_0BN@MGCLKNOA@IDB_Hooks_changing_struc_cmt@ 0000000180079410     idp.obj
 0002:00009430       ??_C@_0P@LKDBDDAG@asm_t_help_set@ 0000000180079430     idp.obj
 0002:00009440       ??_C@_0BL@ECJOIAGF@IDP_Hooks_ev_is_align_insn@ 0000000180079440     idp.obj
 0002:00009460       ??_C@_0BB@FEHCKADJ@asm_t_header_set@ 0000000180079460     idp.obj
 0002:00009478       ??_C@_0BM@KNBAPMNO@IDB_Hooks_struc_cmt_changed@ 0000000180079478     idp.obj
 0002:00009498       ??_C@_0BN@NCNACJAI@IDP_Hooks_ev_is_alloca_probe@ 0000000180079498     idp.obj
 0002:000094b8       ??_C@_0BF@OCBJACGA@IDB_Hooks_segm_added@ 00000001800794b8     idp.obj
 0002:000094d0       ??_C@_0BB@DONICCEE@asm_t_origin_set@ 00000001800794d0     idp.obj
 0002:000094e8       ??_C@_0BN@NCPLEBAI@IDP_Hooks_ev_delay_slot_insn@ 00000001800794e8     idp.obj
 0002:00009508       ??_C@_0BI@JMPLCOCK@IDB_Hooks_deleting_segm@ 0000000180079508     idp.obj
 0002:00009520       ??_C@_0O@CBDLCBBG@asm_t_end_set@ 0000000180079520     idp.obj
 0002:00009530       ??_C@_0BJ@KBIGFLKH@IDP_Hooks_ev_is_sp_based@ 0000000180079530     idp.obj
 0002:00009550       ??_C@_0BH@JGKDJPNI@IDB_Hooks_segm_deleted@ 0000000180079550     idp.obj
 0002:00009568       ??_C@_0P@OHIPOFFB@asm_t_cmnt_set@ 0000000180079568     idp.obj
 0002:00009578       ??_C@_0BL@FELGPLE@IDP_Hooks_ev_can_have_type@ 0000000180079578     idp.obj
 0002:00009598       ??_C@_0BO@OJMMDAKC@IDB_Hooks_changing_segm_start@ 0000000180079598     idp.obj
 0002:0000e504       ??_C@_04HIBGFPH@NULL@      000000018007e504     idp.obj
 0002:0000e510       ??_C@_0BO@CMHFAAKD@?$CFS?6Additional?5information?3?6?$CFs@ 000000018007e510     idp.obj
 0002:0000e52e       ??_C@_00CNPNBAHC@@         000000018007e52e     idp.obj
 0002:0000e530       ??_C@_09HJOCAFJB@at?5least?5@ 000000018007e530     idp.obj
 0002:0000e540       ??_C@_0CF@KFFOGCID@?$CFs?5expected?5?$CFs?$CFd?5arguments?0?5got@ 000000018007e540     idp.obj
 0002:0000e568       ??_C@_0CL@NPJGKHAI@UnpackTuple?$CI?$CJ?5argument?5list?5is?5@ 000000018007e568     idp.obj
 0002:0000e598       ??_C@_0CD@DMIOPJCG@?$CFs?5expected?5?$CFs?$CFd?5arguments?0?5got@ 000000018007e598     idp.obj
 0002:0000e5c0       ??_C@_08KFLHMPAE@at?5most?5@ 000000018007e5c0     idp.obj
 0002:0000e5d0       ??_C@_07MEBHOIG@__new__@   000000018007e5d0     idp.obj
 0002:0000e5d8       ??_C@_0BB@LPCDDCDP@__swig_destroy__@ 000000018007e5d8     idp.obj
 0002:0000e5f0       ??_C@_07CIFAGBMG@unknown@  000000018007e5f0     idp.obj
 0002:0000e5f8       ??_C@_0CB@HIOLGNHE@?$DMSwig?5Object?5of?5type?5?8?$CFs?8?5at?5?$CFp@ 000000018007e5f8     idp.obj
 0002:0000e620       ??_C@_08BHKDPDAA@__name__@ 000000018007e620     idp.obj
 0002:0000e630       ??_C@_0N@OEDBPMFH@SwigPyObject@ 000000018007e630     idp.obj
 0002:0000e640       ??_C@_0EH@KGGHIIII@swig?1python?5detected?5a?5memory?5l@ 000000018007e640     idp.obj
 0002:0000e688       ??_C@_0CF@NBDOMJMA@Attempt?5to?5append?5a?5non?5SwigPyO@ 000000018007e688     idp.obj
 0002:0000e6b0       ??_C@_0BG@BEMBDPAG@?$DMSwig?5Packed?5at?5?$CFs?$CFs?$DO@ 000000018007e6b0     idp.obj
 0002:0000e6c8       ??_C@_0BB@KEMDDLH@?$DMSwig?5Packed?5?$CFs?$DO@ 000000018007e6c8     idp.obj
 0002:0000e6dc       ??_C@_04HDOCAJNK@?$CFs?$CFs@ 000000018007e6dc     idp.obj
 0002:0000e6e8       ??_C@_0N@FALDBJHP@SwigPyPacked@ 000000018007e6e8     idp.obj
 0002:0000e6f8       ??_C@_04IIAJELJL@this@     000000018007e6f8     idp.obj
 0002:0000e700       ??_C@_07DIBBIFIJ@__doc__@  000000018007e700     idp.obj
 0002:0000e708       ??_C@_0L@GCGAIEDO@swig_ptr?3?5@ 000000018007e708     idp.obj
 0002:0000e718       ??_C@_08IBFKALI@__dict__@  000000018007e718     idp.obj
 0002:0000e728       ??_C@_08DOBMGDEN@swiginit@ 000000018007e728     idp.obj
 0002:0000e738       ??_C@_0CO@FOLKHJOC@swig_runtime_data4?4type_pointer@ 000000018007e738     idp.obj
 0002:0000e768       ??_C@_0BD@BFIMCAOH@swig_runtime_data4@ 000000018007e768     idp.obj
 0002:0000e780       ??_C@_0BL@LFDLKGPB@type_pointer_capsuleidaapi@ 000000018007e780     idp.obj
 0002:0000e7a8       ??_7exception@std@@6B@     000000018007e7a8     idp.obj
 0002:0000e7b8       ??_C@_0BC@EOODALEL@Unknown?5exception@ 000000018007e7b8     idp.obj
 0002:0000e7d8       ??_7DirectorException@Swig@@6B@ 000000018007e7d8     idp.obj
 0002:0000e7e8       ??_C@_01CLKCMJKC@?5@       000000018007e7e8     idp.obj
 0002:0000e7f8       ??_7DirectorTypeMismatchException@Swig@@6B@ 000000018007e7f8     idp.obj
 0002:0000e808       ??_C@_0BM@LMOIKBDI@SWIG?5director?5type?5mismatch@ 000000018007e808     idp.obj
 0002:0000e830       ??_7DirectorMethodException@Swig@@6B@ 000000018007e830     idp.obj
 0002:0000e840       ??_C@_0BM@IKPCDNEP@SWIG?5director?5method?5error?4@ 000000018007e840     idp.obj
 0002:0000e868       ??_7Director@Swig@@6B@     000000018007e868     idp.obj
 0002:0000e880       ??_C@_0BK@NPFFDHAP@Out?5of?5memory?5?$CIbad_alloc?$CJ@ 000000018007e880     idp.obj
 0002:0000e8a0       ??_C@_0BCP@OKJACFO@Internal?5error?5?$CFd?5occurred?5when@ 000000018007e8a0     idp.obj
 0002:0000e9d0       ??_C@_0DB@OCJMLGAO@Function?5can?5be?5called?5from?5the@ 000000018007e9d0     idp.obj
 0002:0000ea08       ??_C@_0M@IHBNEOGB@HEADER_PATH@ 000000018007ea08     idp.obj
 0002:0000ea18       ??_C@_0BC@HFPDLODL@PREDEFINED_MACROS@ 000000018007ea18     idp.obj
 0002:0000ea30       ?bits@?1??has_cf_chg@@YA_NII@Z@4QBHB 000000018007ea30     idp.obj
 0002:0000ea50       ?bits@?1??has_cf_use@@YA_NII@Z@4QBHB 000000018007ea50     idp.obj
 0002:0000ea70       ??_C@_0BA@GMJLDMKP@surrogateescape@ 000000018007ea70     idp.obj
 0002:0000ea80       ??_C@_04IKOLEKPB@?$CIsI?$CJ@ 000000018007ea80     idp.obj
 0002:0000ea88       ??_C@_07KBLCBEHJ@?$CIiKKii?$CJ@ 000000018007ea88     idp.obj
 0002:0000ea98       ??_7IDP_Hooks@@6B@         000000018007ea98     idp.obj
 0002:0000ee38       ??_C@_0CE@MEHDNMDH@Exception?5in?5IDP?5Hook?5function?3@ 000000018007ee38     idp.obj
 0002:0000ee68       ??_7IDB_Hooks@@6B@         000000018007ee68     idp.obj
 0002:0000f160       ??_C@_0CE@GLFDMPKG@Exception?5in?5IDB?5Hook?5function?3@ 000000018007f160     idp.obj
 0002:0000f190       ??_7SwigDirector_IDP_Hooks@@6BIDP_Hooks@@@ 000000018007f190     idp.obj
 0002:0000f538       ??_7SwigDirector_IDP_Hooks@@6BDirector@Swig@@@ 000000018007f538     idp.obj
 0002:0000f558       ??_7SwigDirector_IDB_Hooks@@6BIDB_Hooks@@@ 000000018007f558     idp.obj
 0002:0000f858       ??_7SwigDirector_IDB_Hooks@@6BDirector@Swig@@@ 000000018007f858     idp.obj
 0002:0000f870       ??_C@_0ED@HMKIGPMN@?8self?8?5uninitialized?0?5maybe?5you@ 000000018007f870     idp.obj
 0002:0000f8b8       ??_C@_07DDDIAICL@ev_init@  000000018007f8b8     idp.obj
 0002:0000f8c0       ??_C@_0DA@JMOFAKAH@Error?5detected?5when?5calling?5?8ID@ 000000018007f8c0     idp.obj
 0002:0000f8f0       ??_C@_0DC@CENDPKOP@in?5output?5value?5of?5type?5?8int?8?5i@ 000000018007f8f0     idp.obj
 0002:0000f928       ??_C@_07PHDKDJJA@ev_term@  000000018007f928     idp.obj
 0002:0000f930       ??_C@_0DA@MAJCGCDC@Error?5detected?5when?5calling?5?8ID@ 000000018007f930     idp.obj
 0002:0000f960       ??_C@_0DC@HIKEJCNK@in?5output?5value?5of?5type?5?8int?8?5i@ 000000018007f960     idp.obj
 0002:0000f998       ??_C@_09JONMLCMA@ev_newprc@ 000000018007f998     idp.obj
 0002:0000f9a8       ??_C@_0DC@HINEDHI@Error?5detected?5when?5calling?5?8ID@ 000000018007f9a8     idp.obj
 0002:0000f9e0       ??_C@_0DE@CMJHHALG@in?5output?5value?5of?5type?5?8int?8?5i@ 000000018007f9e0     idp.obj
 0002:0000fa18       ??_C@_09OJDIMFID@ev_newasm@ 000000018007fa18     idp.obj
 0002:0000fa28       ??_C@_0DC@OICPLHCF@Error?5detected?5when?5calling?5?8ID@ 000000018007fa28     idp.obj
 0002:0000fa60       ??_C@_0DE@MDDFIEOL@in?5output?5value?5of?5type?5?8int?8?5i@ 000000018007fa60     idp.obj
 0002:0000fa98       ??_C@_0L@OAJEHEGB@ev_newfile@ 000000018007fa98     idp.obj
 0002:0000faa8       ??_C@_0DD@GNNOMIMF@Error?5detected?5when?5calling?5?8ID@ 000000018007faa8     idp.obj
 0002:0000fae0       ??_C@_0DF@BBCJDNEB@in?5output?5value?5of?5type?5?8int?8?5i@ 000000018007fae0     idp.obj
 0002:0000fb18       ??_C@_0L@DMOEEBBJ@ev_oldfile@ 000000018007fb18     idp.obj
 0002:0000fb28       ??_C@_0DD@DDNMEBPO@Error?5detected?5when?5calling?5?8ID@ 000000018007fb28     idp.obj
 0002:0000fb60       ??_C@_0DF@EPCLLEHK@in?5output?5value?5of?5type?5?8int?8?5i@ 000000018007fb60     idp.obj
 0002:0000fb98       ??_C@_0N@IDOLJBPC@ev_newbinary@ 000000018007fb98     idp.obj
 0002:0000fba8       ??_C@_0DF@GCAGBDEM@Error?5detected?5when?5calling?5?8ID@ 000000018007fba8     idp.obj
 0002:0000fbe0       ??_C@_0DH@PADODEGH@in?5output?5value?5of?5type?5?8int?8?5i@ 000000018007fbe0     idp.obj
 0002:0000fc18       ??_C@_0N@LGKMCBA@ev_endbinary@ 000000018007fc18     idp.obj
 0002:0000fc28       ??_C@_0DF@CMIKBBEL@Error?5detected?5when?5calling?5?8ID@ 000000018007fc28     idp.obj
 0002:0000fc60       ??_C@_0DH@LOLCDGGA@in?5output?5value?5of?5type?5?8int?8?5i@ 000000018007fc60     idp.obj
 0002:0000fc98       ??_C@_0BD@KLCGEPJP@ev_set_idp_options@ 000000018007fc98     idp.obj
 0002:0000fcb0       ??_C@_0DL@PNLMBHGK@Error?5detected?5when?5calling?5?8ID@ 000000018007fcb0     idp.obj
 0002:0000fcf0       ??_C@_0DN@CIDOKNFL@in?5output?5value?5of?5type?5?8int?8?5i@ 000000018007fcf0     idp.obj
 0002:0000fd30       ??_C@_0BE@BINAEANP@ev_set_proc_options@ 000000018007fd30     idp.obj
 0002:0000fd48       ??_C@_0DM@EMJDKIKG@Error?5detected?5when?5calling?5?8ID@ 000000018007fd48     idp.obj
 0002:0000fd88       ??_C@_0DO@BNJICKCG@in?5output?5value?5of?5type?5?8int?8?5i@ 000000018007fd88     idp.obj
 0002:0000fdc8       ??_C@_0M@NGCBLIMM@ev_ana_insn@ 000000018007fdc8     idp.obj
 0002:0000fdd8       ??_C@_0DE@LFCOKKID@Error?5detected?5when?5calling?5?8ID@ 000000018007fdd8     idp.obj
 0002:0000fe10       ??_C@_0DH@PCFOJFNN@in?5output?5value?5of?5type?5?8bool?8?5@ 000000018007fe10     idp.obj
 0002:0000fe48       ??_C@_0M@JGNDFGPO@ev_emu_insn@ 000000018007fe48     idp.obj
 0002:0000fe58       ??_C@_0DE@HNLJAJON@Error?5detected?5when?5calling?5?8ID@ 000000018007fe58     idp.obj
 0002:0000fe90       ??_C@_0DH@DKMJDGLD@in?5output?5value?5of?5type?5?8bool?8?5@ 000000018007fe90     idp.obj
 0002:0000fec8       ??_C@_0O@CDKCOOLE@ev_out_header@ 000000018007fec8     idp.obj
 0002:0000fed8       ??_C@_0DG@PFGCJPNF@Error?5detected?5when?5calling?5?8ID@ 000000018007fed8     idp.obj
 0002:0000ff10       ??_C@_0O@DNCPFPHB@ev_out_footer@ 000000018007ff10     idp.obj
 0002:0000ff20       ??_C@_0DG@BOHCCEFL@Error?5detected?5when?5calling?5?8ID@ 000000018007ff20     idp.obj
 0002:0000ff58       ??_C@_0BA@JHIHBKFL@ev_out_segstart@ 000000018007ff58     idp.obj
 0002:0000ff68       ??_C@_0DI@LNIDCKCA@Error?5detected?5when?5calling?5?8ID@ 000000018007ff68     idp.obj
 0002:0000ffa0       ??_C@_0DK@HLFMIJEI@in?5output?5value?5of?5type?5?8int?8?5i@ 000000018007ffa0     idp.obj
 0002:0000ffe0       ??_C@_0O@GBEKOOHD@ev_out_segend@ 000000018007ffe0     idp.obj
 0002:0000fff0       ??_C@_0DG@PACACAMG@Error?5detected?5when?5calling?5?8ID@ 000000018007fff0     idp.obj
 0002:00010028       ??_C@_0DI@FMAOOBKB@in?5output?5value?5of?5type?5?8int?8?5i@ 0000000180080028     idp.obj
 0002:00010060       ??_C@_0P@BMDPMNCJ@ev_out_assumes@ 0000000180080060     idp.obj
 0002:00010070       ??_C@_0DH@JEDOIGAE@Error?5detected?5when?5calling?5?8ID@ 0000000180080070     idp.obj
 0002:000100a8       ??_C@_0DJ@EHEEFMDO@in?5output?5value?5of?5type?5?8int?8?5i@ 00000001800800a8     idp.obj
 0002:000100e8       ??_C@_0M@KNEPNEK@ev_out_insn@ 00000001800800e8     idp.obj
 0002:000100f8       ??_C@_0DE@LBCJHJND@Error?5detected?5when?5calling?5?8ID@ 00000001800800f8     idp.obj
 0002:00010130       ??_C@_0DH@PGFJEGIN@in?5output?5value?5of?5type?5?8bool?8?5@ 0000000180080130     idp.obj
 0002:00010168       ??_C@_0M@MMNCNHIL@ev_out_mnem@ 0000000180080168     idp.obj
 0002:00010178       ??_C@_0DE@FNIMINNP@Error?5detected?5when?5calling?5?8ID@ 0000000180080178     idp.obj
 0002:000101b0       ??_C@_0DG@LHCFDNBD@in?5output?5value?5of?5type?5?8int?8?5i@ 00000001800801b0     idp.obj
 0002:000101e8       ??_C@_0P@BMPCCMNP@ev_out_operand@ 00000001800801e8     idp.obj
 0002:000101f8       ??_C@_0DH@MAOABMMM@Error?5detected?5when?5calling?5?8ID@ 00000001800801f8     idp.obj
 0002:00010230       ??_C@_0DK@KOBJEEDB@in?5output?5value?5of?5type?5?8bool?8?5@ 0000000180080230     idp.obj
 0002:00010270       ??_C@_0M@CIPACDOH@ev_out_data@ 0000000180080270     idp.obj
 0002:00010280       ??_C@_0DE@BJGMICFI@Error?5detected?5when?5calling?5?8ID@ 0000000180080280     idp.obj
 0002:000102b8       ??_C@_0DG@PDMFDCJE@in?5output?5value?5of?5type?5?8int?8?5i@ 00000001800802b8     idp.obj
 0002:000102f0       ??_C@_0N@GJCGIBKB@ev_out_label@ 00000001800802f0     idp.obj
 0002:00010300       ??_C@_0DF@JAIONOBC@Error?5detected?5when?5calling?5?8ID@ 0000000180080300     idp.obj
 0002:00010338       ??_C@_0DH@CLGPJDJ@in?5output?5value?5of?5type?5?8int?8?5i@ 0000000180080338     idp.obj
 0002:00010370       ??_C@_0BE@BFFIINDN@ev_out_special_item@ 0000000180080370     idp.obj
 0002:00010388       ??_C@_0DM@CJKKDDP@Error?5detected?5when?5calling?5?8ID@ 0000000180080388     idp.obj
 0002:000103c8       ??_C@_0DO@FDJBCBLP@in?5output?5value?5of?5type?5?8int?8?5i@ 00000001800803c8     idp.obj
 0002:00010408       ??_C@_0BC@EBKBHHEP@ev_gen_stkvar_def@ 0000000180080408     idp.obj
 0002:00010420       ??_C@_0DK@OMCFKFPN@Error?5detected?5when?5calling?5?8ID@ 0000000180080420     idp.obj
 0002:00010460       ??_C@_0DM@ONOHANP@in?5output?5value?5of?5type?5?8int?8?5i@ 0000000180080460     idp.obj
 0002:000104a0       ??_C@_0BC@KOHHLBEN@ev_gen_regvar_def@ 00000001800804a0     idp.obj
 0002:000104b8       ??_C@_0DK@CMEBCBH@Error?5detected?5when?5calling?5?8ID@ 00000001800804b8     idp.obj
 0002:000104f8       ??_C@_0DM@OADPMHDF@in?5output?5value?5of?5type?5?8int?8?5i@ 00000001800804f8     idp.obj
 0002:00010538       ??_C@_0BG@PMCOAPIA@ev_gen_src_file_lnnum@ 0000000180080538     idp.obj
 0002:00010550       ??_C@_0DO@NKELBLCP@Error?5detected?5when?5calling?5?8ID@ 0000000180080550     idp.obj
 0002:00010590       ??_C@_0EA@OCHODAGD@in?5output?5value?5of?5type?5?8int?8?5i@ 0000000180080590     idp.obj
 0002:000105d0       ??_C@_0BB@LKIJEEPD@ev_creating_segm@ 00000001800805d0     idp.obj
 0002:000105e8       ??_C@_0DJ@FMDHIBGC@Error?5detected?5when?5calling?5?8ID@ 00000001800805e8     idp.obj
 0002:00010628       ??_C@_0DL@BPJILHKL@in?5output?5value?5of?5type?5?8int?8?5i@ 0000000180080628     idp.obj
 0002:00010668       ??_C@_0P@ECGNPPFO@ev_moving_segm@ 0000000180080668     idp.obj
 0002:00010678       ??_C@_0DH@FKABDAKJ@Error?5detected?5when?5calling?5?8ID@ 0000000180080678     idp.obj
 0002:000106b0       ??_C@_0DJ@IJHLOKJD@in?5output?5value?5of?5type?5?8int?8?5i@ 00000001800806b0     idp.obj
 0002:000106f0       ??_C@_0N@OHPJDHLI@ev_coagulate@ 00000001800806f0     idp.obj
 0002:00010700       ??_C@_0DF@PEGLKJGE@Error?5detected?5when?5calling?5?8ID@ 0000000180080700     idp.obj
 0002:00010738       ??_C@_0DH@GGFDIOEP@in?5output?5value?5of?5type?5?8int?8?5i@ 0000000180080738     idp.obj
 0002:00010770       ??_C@_0M@DIFJOGFN@ev_undefine@ 0000000180080770     idp.obj
 0002:00010780       ??_C@_0DE@DCMIHBAP@Error?5detected?5when?5calling?5?8ID@ 0000000180080780     idp.obj
 0002:000107b8       ??_C@_0DG@NIGBMBMD@in?5output?5value?5of?5type?5?8int?8?5i@ 00000001800807b8     idp.obj
 0002:000107f0       ??_C@_0BI@MABBECIN@ev_treat_hindering_item@ 00000001800807f0     idp.obj
 0002:00010810       ??_C@_0EA@FGOLOKIL@Error?5detected?5when?5calling?5?8ID@ 0000000180080810     idp.obj
 0002:00010850       ??_C@_0EC@KGJLCLPH@in?5output?5value?5of?5type?5?8int?8?5i@ 0000000180080850     idp.obj
 0002:00010898       ??_C@_09PKNHMCLI@ev_rename@ 0000000180080898     idp.obj
 0002:000108a8       ??_C@_0DC@FJDHLBAG@Error?5detected?5when?5calling?5?8ID@ 00000001800808a8     idp.obj
 0002:000108e0       ??_C@_0DE@HCCNICMI@in?5output?5value?5of?5type?5?8int?8?5i@ 00000001800808e0     idp.obj
 0002:00010918       ??_C@_0P@KKKCJPIF@ev_is_far_jump@ 0000000180080918     idp.obj
 0002:00010928       ??_C@_0DH@ELOIPEJF@Error?5detected?5when?5calling?5?8ID@ 0000000180080928     idp.obj
 0002:00010960       ??_C@_0DJ@JIJCCOKP@in?5output?5value?5of?5type?5?8int?8?5i@ 0000000180080960     idp.obj
 0002:000109a0       ??_C@_0BA@GBNCPKOH@ev_is_sane_insn@ 00000001800809a0     idp.obj
 0002:000109b0       ??_C@_0DI@HPKCIAGH@Error?5detected?5when?5calling?5?8ID@ 00000001800809b0     idp.obj
 0002:000109e8       ??_C@_0DK@LJHNCDAP@in?5output?5value?5of?5type?5?8int?8?5i@ 00000001800809e8     idp.obj
 0002:00010a28       ??_C@_0BA@CIMJKLCJ@ev_is_cond_insn@ 0000000180080a28     idp.obj
 0002:00010a38       ??_C@_0DI@DDHHEIB@Error?5detected?5when?5calling?5?8ID@ 0000000180080a38     idp.obj
 0002:00010a70       ??_C@_0DK@MFOINHOJ@in?5output?5value?5of?5type?5?8int?8?5i@ 0000000180080a70     idp.obj
 0002:00010ab0       ??_C@_0BA@JBMBDJKB@ev_is_call_insn@ 0000000180080ab0     idp.obj
 0002:00010ac0       ??_C@_0DI@OAONHHAB@Error?5detected?5when?5calling?5?8ID@ 0000000180080ac0     idp.obj
 0002:00010af8       ??_C@_0DK@CGDCNEGJ@in?5output?5value?5of?5type?5?8int?8?5i@ 0000000180080af8     idp.obj
 0002:00010b38       ??_C@_0P@LOFFKMND@ev_is_ret_insn@ 0000000180080b38     idp.obj
 0002:00010b48       ??_C@_0DH@MJPEPHGH@Error?5detected?5when?5calling?5?8ID@ 0000000180080b48     idp.obj
 0002:00010b80       ??_C@_0DJ@BKIOCNFN@in?5output?5value?5of?5type?5?8int?8?5i@ 0000000180080b80     idp.obj
 0002:00010bc0       ??_C@_0P@BFEAGLIH@ev_may_be_func@ 0000000180080bc0     idp.obj
 0002:00010bd0       ??_C@_0DH@KFFJHHEN@Error?5detected?5when?5calling?5?8ID@ 0000000180080bd0     idp.obj
 0002:00010c08       ??_C@_0DJ@HGCDKNHH@in?5output?5value?5of?5type?5?8int?8?5i@ 0000000180080c08     idp.obj
 0002:00010c48       ??_C@_0BG@JGCNMACJ@ev_is_basic_block_end@ 0000000180080c48     idp.obj
 0002:00010c60       ??_C@_0DO@HFCLADKM@Error?5detected?5when?5calling?5?8ID@ 0000000180080c60     idp.obj
 0002:00010ca0       ??_C@_0EA@ENBOCIOA@in?5output?5value?5of?5type?5?8int?8?5i@ 0000000180080ca0     idp.obj
 0002:00010ce0       ??_C@_0BE@CENIKKFE@ev_is_indirect_jump@ 0000000180080ce0     idp.obj
 0002:00010cf8       ??_C@_0DM@DGMFPKOE@Error?5detected?5when?5calling?5?8ID@ 0000000180080cf8     idp.obj
 0002:00010d38       ??_C@_0DO@GHMOHIGE@in?5output?5value?5of?5type?5?8int?8?5i@ 0000000180080d38     idp.obj
 0002:00010d78       ??_C@_0BG@BFOCEDNB@ev_is_insn_table_jump@ 0000000180080d78     idp.obj
 0002:00010d90       ??_C@_0DO@MGMOLGAB@Error?5detected?5when?5calling?5?8ID@ 0000000180080d90     idp.obj
 0002:00010dd0       ??_C@_0EA@POPLJNEN@in?5output?5value?5of?5type?5?8int?8?5i@ 0000000180080dd0     idp.obj
 0002:00010e10       ??_C@_0N@PHNBKNOI@ev_is_switch@ 0000000180080e10     idp.obj
 0002:00010e20       ??_C@_0DF@JPBANAAK@Error?5detected?5when?5calling?5?8ID@ 0000000180080e20     idp.obj
 0002:00010e58       ??_C@_0DH@NCIPHCB@in?5output?5value?5of?5type?5?8int?8?5i@ 0000000180080e58     idp.obj
 0002:00010e90       ??_C@_0BF@GKGILAGC@ev_calc_switch_cases@ 0000000180080e90     idp.obj
 0002:00010ea8       ??_C@_0DN@LJEJPCB@Error?5detected?5when?5calling?5?8ID@ 0000000180080ea8     idp.obj
 0002:00010ee8       ??_C@_0DP@OGHNBHID@in?5output?5value?5of?5type?5?8int?8?5i@ 0000000180080ee8     idp.obj
 0002:00010f28       ??_C@_0BH@BLDFGMBP@ev_create_switch_xrefs@ 0000000180080f28     idp.obj
 0002:00010f40       ??_C@_0DP@GKODNFCP@Error?5detected?5when?5calling?5?8ID@ 0000000180080f40     idp.obj
 0002:00010f80       ??_C@_0EB@BFLBONLP@in?5output?5value?5of?5type?5?8int?8?5i@ 0000000180080f80     idp.obj
 0002:00010fc8       ??_C@_0BB@DIMLFGCB@ev_is_align_insn@ 0000000180080fc8     idp.obj
 0002:00010fe0       ??_C@_0DJ@DEGIHAII@Error?5detected?5when?5calling?5?8ID@ 0000000180080fe0     idp.obj
 0002:00011020       ??_C@_0DL@HHMHEGEB@in?5output?5value?5of?5type?5?8int?8?5i@ 0000000180081020     idp.obj
 0002:00011060       ??_C@_0BD@CJHFKOLN@ev_is_alloca_probe@ 0000000180081060     idp.obj
 0002:00011078       ??_C@_0DL@CIFOAFGP@Error?5detected?5when?5calling?5?8ID@ 0000000180081078     idp.obj
 0002:000110b8       ??_C@_0DN@PNNMLPFO@in?5output?5value?5of?5type?5?8int?8?5i@ 00000001800810b8     idp.obj
 0002:000110f8       ??_C@_0BD@CJFOMGLN@ev_delay_slot_insn@ 00000001800810f8     idp.obj
 0002:00011110       ??_C@_0DL@CIFOCOAH@Error?5detected?5when?5calling?5?8ID@ 0000000180081110     idp.obj
 0002:00011150       ??_C@_0P@JIGMANAB@ev_is_sp_based@ 0000000180081150     idp.obj
 0002:00011160       ??_C@_0DH@KBAPHNDO@Error?5detected?5when?5calling?5?8ID@ 0000000180081160     idp.obj
 0002:00011198       ??_C@_0DJ@HCHFKHAE@in?5output?5value?5of?5type?5?8int?8?5i@ 0000000180081198     idp.obj
 0002:000111d8       ??_C@_0BB@HPBOLJPA@ev_can_have_type@ 00000001800811d8     idp.obj
 0002:000111f0       ??_C@_0DJ@MFPLEHCF@Error?5detected?5when?5calling?5?8ID@ 00000001800811f0     idp.obj
 0002:00011230       ??_C@_0DL@IGFEHBOM@in?5output?5value?5of?5type?5?8int?8?5i@ 0000000180081230     idp.obj
 0002:00011270       ??_C@_0BA@DCBFEGCH@ev_cmp_operands@ 0000000180081270     idp.obj
 0002:00011280       ??_C@_0DI@OEJFIFGL@Error?5detected?5when?5calling?5?8ID@ 0000000180081280     idp.obj
 0002:000112b8       ??_C@_0DK@CCEKCGAD@in?5output?5value?5of?5type?5?8int?8?5i@ 00000001800812b8     idp.obj
 0002:000112f8       ??_C@_0BC@MFCMEICM@ev_adjust_refinfo@ 00000001800812f8     idp.obj
 0002:00011310       ??_C@_0DK@DIBKBICA@Error?5detected?5when?5calling?5?8ID@ 0000000180081310     idp.obj
 0002:00011350       ??_C@_0DM@NKOBMNAC@in?5output?5value?5of?5type?5?8int?8?5i@ 0000000180081350     idp.obj
 0002:00011390       ??_C@_0BG@EOCAGIAB@ev_get_operand_string@ 0000000180081390     idp.obj
 0002:000113a8       ??_C@_0DO@EAEGKGPO@Error?5detected?5when?5calling?5?8ID@ 00000001800813a8     idp.obj
 0002:000113f0       ??_C@_0EA@HIHDINLC@in?5output?5value?5of?5type?5?8int?8?5i@ 00000001800813f0     idp.obj
 0002:00011430       ??_C@_0BA@MIHKLNLK@ev_get_reg_name@ 0000000180081430     idp.obj
 0002:00011440       ??_C@_0DI@GKNBAFGJ@Error?5detected?5when?5calling?5?8ID@ 0000000180081440     idp.obj
 0002:00011478       ??_C@_0L@OBCCLGMK@ev_str2reg@ 0000000180081478     idp.obj
 0002:00011488       ??_C@_0DD@CMNLAEGH@Error?5detected?5when?5calling?5?8ID@ 0000000180081488     idp.obj
 0002:000114c0       ??_C@_0DF@FACMPBOD@in?5output?5value?5of?5type?5?8int?8?5i@ 00000001800814c0     idp.obj
 0002:000114f8       ??_C@_0P@EBMNEFPB@ev_get_autocmt@ 00000001800814f8     idp.obj
 0002:00011508       ??_C@_0DH@BMGLCOGK@Error?5detected?5when?5calling?5?8ID@ 0000000180081508     idp.obj
 0002:00011540       ??_C@_0DJ@MPBBPEFA@in?5output?5value?5of?5type?5?8int?8?5i@ 0000000180081540     idp.obj
 0002:00011580       ??_C@_0BA@HKGHFMA@ev_get_bg_color@ 0000000180081580     idp.obj
 0002:00011590       ??_C@_0DI@NKMOEBID@Error?5detected?5when?5calling?5?8ID@ 0000000180081590     idp.obj
 0002:000115c8       ??_C@_0DK@BMBBOCOL@in?5output?5value?5of?5type?5?8int?8?5i@ 00000001800815c8     idp.obj
 0002:00011608       ??_C@_0BA@FEDEPOBD@ev_is_jump_func@ 0000000180081608     idp.obj
 0002:00011618       ??_C@_0DI@MFEHFAGG@Error?5detected?5when?5calling?5?8ID@ 0000000180081618     idp.obj
 0002:00011650       ??_C@_0DK@DJIPDAO@in?5output?5value?5of?5type?5?8int?8?5i@ 0000000180081650     idp.obj
 0002:00011690       ??_C@_0P@EPJCAEFD@ev_func_bounds@ 0000000180081690     idp.obj
 0002:000116a0       ??_C@_0DH@CELNLDOP@Error?5detected?5when?5calling?5?8ID@ 00000001800816a0     idp.obj
 0002:000116d8       ??_C@_0N@BOBHKNNL@ev_verify_sp@ 00000001800816d8     idp.obj
 0002:000116e8       ??_C@_0DF@CACJHHBM@Error?5detected?5when?5calling?5?8ID@ 00000001800816e8     idp.obj
 0002:00011720       ??_C@_0DH@LCBBFADH@in?5output?5value?5of?5type?5?8int?8?5i@ 0000000180081720     idp.obj
 0002:00011758       ??_C@_0BD@MFKGDGL@ev_verify_noreturn@ 0000000180081758     idp.obj
 0002:00011770       ??_C@_0DL@EHMLFNED@Error?5detected?5when?5calling?5?8ID@ 0000000180081770     idp.obj
 0002:000117b0       ??_C@_0DN@JCEJOHHC@in?5output?5value?5of?5type?5?8int?8?5i@ 00000001800817b0     idp.obj
 0002:000117f0       ??_C@_0BF@JMNEDJID@ev_create_func_frame@ 00000001800817f0     idp.obj
 0002:00011808       ??_C@_0DN@NMGPPBEG@Error?5detected?5when?5calling?5?8ID@ 0000000180081808     idp.obj
 0002:00011848       ??_C@_0DP@DBIGHJOE@in?5output?5value?5of?5type?5?8int?8?5i@ 0000000180081848     idp.obj
 0002:00011888       ??_C@_0BF@FEPAKOOP@ev_get_frame_retsize@ 0000000180081888     idp.obj
 0002:000118a0       ??_C@_0DN@JIKDPIKC@Error?5detected?5when?5calling?5?8ID@ 00000001800818a0     idp.obj
 0002:000118e0       ??_C@_0DP@HFEKHAAA@in?5output?5value?5of?5type?5?8int?8?5i@ 00000001800818e0     idp.obj
 0002:00011920       ??_C@_0BL@KNFKCJAM@ev_get_stkvar_scale_factor@ 0000000180081920     idp.obj
 0002:00011940       ??_C@_0ED@HKIGFFDK@Error?5detected?5when?5calling?5?8ID@ 0000000180081940     idp.obj
 0002:00011990       ??_C@_0EF@KFIJFDMN@in?5output?5value?5of?5type?5?8int?8?5i@ 0000000180081990     idp.obj
 0002:000119d8       ??_C@_0BB@OPJECPBC@ev_demangle_name@ 00000001800819d8     idp.obj
 0002:000119f0       ??_C@_0DJ@ILGPEOOH@Error?5detected?5when?5calling?5?8ID@ 00000001800819f0     idp.obj
 0002:00011a30       ??_C@_0M@JFNECOOP@ev_add_cref@ 0000000180081a30     idp.obj
 0002:00011a40       ??_C@_0DE@BHAKCOGH@Error?5detected?5when?5calling?5?8ID@ 0000000180081a40     idp.obj
 0002:00011a78       ??_C@_0DG@PNKDJOKL@in?5output?5value?5of?5type?5?8int?8?5i@ 0000000180081a78     idp.obj
 0002:00011ab0       ??_C@_0M@CHPEPCPP@ev_add_dref@ 0000000180081ab0     idp.obj
 0002:00011ac0       ??_C@_0DE@KAPBONP@Error?5detected?5when?5calling?5?8ID@ 0000000180081ac0     idp.obj
 0002:00011af8       ??_C@_0DG@OAKGKOBD@in?5output?5value?5of?5type?5?8int?8?5i@ 0000000180081af8     idp.obj
 0002:00011b30       ??_C@_0M@CAAGCFFJ@ev_del_cref@ 0000000180081b30     idp.obj
 0002:00011b40       ??_C@_0DE@DFLNOKNF@Error?5detected?5when?5calling?5?8ID@ 0000000180081b40     idp.obj
 0002:00011b78       ??_C@_0DG@NPBEFKBJ@in?5output?5value?5of?5type?5?8int?8?5i@ 0000000180081b78     idp.obj
 0002:00011bb0       ??_C@_0M@JCCGPJEJ@ev_del_dref@ 0000000180081bb0     idp.obj
 0002:00011bc0       ??_C@_0DE@CILINKGN@Error?5detected?5when?5calling?5?8ID@ 0000000180081bc0     idp.obj
 0002:00011bf8       ??_C@_0DG@MCBBGKKB@in?5output?5value?5of?5type?5?8int?8?5i@ 0000000180081bf8     idp.obj
 0002:00011c30       ??_C@_0BC@MLIGGIOL@ev_coagulate_dref@ 0000000180081c30     idp.obj
 0002:00011c48       ??_C@_0DK@DNBEOFBD@Error?5detected?5when?5calling?5?8ID@ 0000000180081c48     idp.obj
 0002:00011c88       ??_C@_0DM@NPOPDADB@in?5output?5value?5of?5type?5?8int?8?5i@ 0000000180081c88     idp.obj
 0002:00011cc8       ??_C@_0BB@GBKHNLKI@ev_may_show_sreg@ 0000000180081cc8     idp.obj
 0002:00011ce0       ??_C@_0DJ@KAFFCHIB@Error?5detected?5when?5calling?5?8ID@ 0000000180081ce0     idp.obj
 0002:00011d20       ??_C@_0DL@ODPKBBEI@in?5output?5value?5of?5type?5?8int?8?5i@ 0000000180081d20     idp.obj
 0002:00011d60       ??_C@_0BE@FFFPDAOM@ev_auto_queue_empty@ 0000000180081d60     idp.obj
 0002:00011d78       ??_C@_0DM@PDAOEGMA@Error?5detected?5when?5calling?5?8ID@ 0000000180081d78     idp.obj
 0002:00011db8       ??_C@_0BH@BDMJNOEH@ev_validate_flirt_func@ 0000000180081db8     idp.obj
 0002:00011dd0       ??_C@_0DP@PFLPAFL@Error?5detected?5when?5calling?5?8ID@ 0000000180081dd0     idp.obj
 0002:00011e10       ??_C@_0EB@HAAJMIML@in?5output?5value?5of?5type?5?8int?8?5i@ 0000000180081e10     idp.obj
 0002:00011e58       ??_C@_0BF@LELBLBMN@ev_adjust_libfunc_ea@ 0000000180081e58     idp.obj
 0002:00011e70       ??_C@_0DN@ENCDPIFJ@Error?5detected?5when?5calling?5?8ID@ 0000000180081e70     idp.obj
 0002:00011eb0       ??_C@_0DP@KAMKHAPL@in?5output?5value?5of?5type?5?8int?8?5i@ 0000000180081eb0     idp.obj
 0002:00011ef0       ??_C@_0M@CPOHBBOE@ev_assemble@ 0000000180081ef0     idp.obj
 0002:00011f00       ??_C@_0DE@IAGCMENA@Error?5detected?5when?5calling?5?8ID@ 0000000180081f00     idp.obj
 0002:00011f38       ??_C@_0BD@JNMMMDIK@ev_extract_address@ 0000000180081f38     idp.obj
 0002:00011f50       ??_C@_0DL@JAFHBJAN@Error?5detected?5when?5calling?5?8ID@ 0000000180081f50     idp.obj
 0002:00011f90       ??_C@_0DN@EFNFKDDM@in?5output?5value?5of?5type?5?8int?8?5i@ 0000000180081f90     idp.obj
 0002:00011fd0       ??_C@_0L@HJGKEMPA@ev_realcvt@ 0000000180081fd0     idp.obj
 0002:00011fe0       ??_C@_0DD@OKEPJFCP@Error?5detected?5when?5calling?5?8ID@ 0000000180081fe0     idp.obj
 0002:00012018       ??_C@_0DF@JGLIGAKL@in?5output?5value?5of?5type?5?8int?8?5i@ 0000000180082018     idp.obj
 0002:00012050       ??_C@_0BC@DFBAONGI@ev_gen_asm_or_lst@ 0000000180082050     idp.obj
 0002:00012068       ??_C@_0DK@EJFLKBAM@Error?5detected?5when?5calling?5?8ID@ 0000000180082068     idp.obj
 0002:000120a8       ??_C@_0BA@CFGPAJPG@ev_gen_map_file@ 00000001800820a8     idp.obj
 0002:000120b8       ??_C@_0DI@BFFGBNGG@Error?5detected?5when?5calling?5?8ID@ 00000001800820b8     idp.obj
 0002:000120f0       ??_C@_0DK@NDIJLOAO@in?5output?5value?5of?5type?5?8int?8?5i@ 00000001800820f0     idp.obj
 0002:00012130       ??_C@_0BF@OAKLNEAI@ev_create_flat_group@ 0000000180082130     idp.obj
 0002:00012148       ??_C@_0DN@KGHJNEAD@Error?5detected?5when?5calling?5?8ID@ 0000000180082148     idp.obj
 0002:00012188       ??_C@_0DP@ELJAFMKB@in?5output?5value?5of?5type?5?8int?8?5i@ 0000000180082188     idp.obj
 0002:000121c8       ??_C@_09JLOIDFLJ@ev_getreg@ 00000001800821c8     idp.obj
 0002:000121d8       ??_C@_0DC@COFBLOGH@Error?5detected?5when?5calling?5?8ID@ 00000001800821d8     idp.obj
 0002:00012210       ??_C@_0DE@FELINKJ@in?5output?5value?5of?5type?5?8int?8?5i@ 0000000180082210     idp.obj
 0002:00012248       ??_C@_0BC@LIJNAMN@ev_analyze_prolog@ 0000000180082248     idp.obj
 0002:00012260       ??_C@_0DK@OPNJGPFG@Error?5detected?5when?5calling?5?8ID@ 0000000180082260     idp.obj
 0002:000122a0       ??_C@_0DM@NCCLKHE@in?5output?5value?5of?5type?5?8int?8?5i@ 00000001800822a0     idp.obj
 0002:000122e0       ??_C@_0BA@JKLABHCK@ev_calc_spdelta@ 00000001800822e0     idp.obj
 0002:000122f0       ??_C@_0DI@JKIMFMIH@Error?5detected?5when?5calling?5?8ID@ 00000001800822f0     idp.obj
 0002:00012328       ??_C@_0DK@FMFDPPOP@in?5output?5value?5of?5type?5?8int?8?5i@ 0000000180082328     idp.obj
 0002:00012368       ??_C@_0L@HHCEGIND@ev_calcrel@ 0000000180082368     idp.obj
 0002:00012378       ??_C@_0DD@EICGKKHJ@Error?5detected?5when?5calling?5?8ID@ 0000000180082378     idp.obj
 0002:000123b0       ??_C@_0DF@DENBFPPN@in?5output?5value?5of?5type?5?8int?8?5i@ 00000001800823b0     idp.obj
 0002:000123e8       ??_C@_0BC@MBDMGKFC@ev_find_reg_value@ 00000001800823e8     idp.obj
 0002:00012400       ??_C@_0DK@IPKDFEDJ@Error?5detected?5when?5calling?5?8ID@ 0000000180082400     idp.obj
 0002:00012440       ??_C@_0BB@MLMLFAKK@ev_find_op_value@ 0000000180082440     idp.obj
 0002:00012458       ??_C@_0DJ@EOPBCKCG@Error?5detected?5when?5calling?5?8ID@ 0000000180082458     idp.obj
 0002:00012498       ??_C@_0BC@NEACCGCC@ev_next_exec_insn@ 0000000180082498     idp.obj
 0002:000124b0       ??_C@_0DK@NPLDBLEJ@Error?5detected?5when?5calling?5?8ID@ 00000001800824b0     idp.obj
 0002:000124f0       ??_C@_0DM@DNEIMOGL@in?5output?5value?5of?5type?5?8int?8?5i@ 00000001800824f0     idp.obj
 0002:00012530       ??_C@_0BC@EDBNJPKN@ev_calc_step_over@ 0000000180082530     idp.obj
 0002:00012548       ??_C@_0DK@KCCDJKEB@Error?5detected?5when?5calling?5?8ID@ 0000000180082548     idp.obj
 0002:00012588       ??_C@_0DM@EANIEPGD@in?5output?5value?5of?5type?5?8int?8?5i@ 0000000180082588     idp.obj
 0002:000125c8       ??_C@_0BB@NADHBMLF@ev_calc_next_eas@ 00000001800825c8     idp.obj
 0002:000125e0       ??_C@_0DJ@MDOCNLJP@Error?5detected?5when?5calling?5?8ID@ 00000001800825e0     idp.obj
 0002:00012620       ??_C@_0DL@IAENONFG@in?5output?5value?5of?5type?5?8int?8?5i@ 0000000180082620     idp.obj
 0002:00012660       ??_C@_0BH@KODCILKH@ev_get_macro_insn_head@ 0000000180082660     idp.obj
 0002:00012678       ??_C@_0DP@KPOMOJHG@Error?5detected?5when?5calling?5?8ID@ 0000000180082678     idp.obj
 0002:000126c0       ??_C@_0EB@NALONBOG@in?5output?5value?5of?5type?5?8int?8?5i@ 00000001800826c0     idp.obj
 0002:00012708       ??_C@_0BB@BJOKPHOF@ev_get_dbr_opnum@ 0000000180082708     idp.obj
 0002:00012720       ??_C@_0DJ@KIEAFHIA@Error?5detected?5when?5calling?5?8ID@ 0000000180082720     idp.obj
 0002:00012760       ??_C@_0DL@OLOPGBEJ@in?5output?5value?5of?5type?5?8int?8?5i@ 0000000180082760     idp.obj
 0002:000127a0       ??_C@_0BD@GDLKMHKL@ev_insn_reads_tbit@ 00000001800827a0     idp.obj
 0002:000127b8       ??_C@_0DL@NMMAHPFH@Error?5detected?5when?5calling?5?8ID@ 00000001800827b8     idp.obj
 0002:000127f8       ??_C@_0DN@JECMFGG@in?5output?5value?5of?5type?5?8int?8?5i@ 00000001800827f8     idp.obj
 0002:00012838       ??_C@_0O@MNOFMJBB@ev_clean_tbit@ 0000000180082838     idp.obj
 0002:00012848       ??_C@_0DG@FDDAIPJF@Error?5detected?5when?5calling?5?8ID@ 0000000180082848     idp.obj
 0002:00012880       ??_C@_0DI@PPBOEOPC@in?5output?5value?5of?5type?5?8int?8?5i@ 0000000180082880     idp.obj
 0002:000128b8       ??_C@_0BA@NEIDHGJH@ev_get_reg_info@ 00000001800828b8     idp.obj
 0002:000128c8       ??_C@_0DI@CPBCKANH@Error?5detected?5when?5calling?5?8ID@ 00000001800828c8     idp.obj
 0002:00012900       ??_C@_0DK@OJMNADLP@in?5output?5value?5of?5type?5?8int?8?5i@ 0000000180082900     idp.obj
 0002:00012940       ??_C@_0N@IFNEPBEE@ev_setup_til@ 0000000180082940     idp.obj
 0002:00012950       ??_C@_0DF@EAACDKJF@Error?5detected?5when?5calling?5?8ID@ 0000000180082950     idp.obj
 0002:00012988       ??_C@_0BA@BLDEHKGH@ev_get_abi_info@ 0000000180082988     idp.obj
 0002:00012998       ??_C@_0DI@JCGAOFMH@Error?5detected?5when?5calling?5?8ID@ 0000000180082998     idp.obj
 0002:000129d0       ??_C@_0DK@FELPEGKP@in?5output?5value?5of?5type?5?8int?8?5i@ 00000001800829d0     idp.obj
 0002:00012a10       ??_C@_0BA@BEJFBGFH@ev_max_ptr_size@ 0000000180082a10     idp.obj
 0002:00012a20       ??_C@_0DI@LELGHEAH@Error?5detected?5when?5calling?5?8ID@ 0000000180082a20     idp.obj
 0002:00012a58       ??_C@_0DK@HCGJNHGP@in?5output?5value?5of?5type?5?8int?8?5i@ 0000000180082a58     idp.obj
 0002:00012a98       ??_C@_0BJ@FGHNDMGI@ev_get_default_enum_size@ 0000000180082a98     idp.obj
 0002:00012ac0       ??_C@_0EB@MIDLMBLP@Error?5detected?5when?5calling?5?8ID@ 0000000180082ac0     idp.obj
 0002:00012b10       ??_C@_0ED@JBHIIMGJ@in?5output?5value?5of?5type?5?8int?8?5i@ 0000000180082b10     idp.obj
 0002:00012b58       ??_C@_0P@JFEAABHD@ev_get_cc_regs@ 0000000180082b58     idp.obj
 0002:00012b68       ??_C@_0DH@BPAJEBCC@Error?5detected?5when?5calling?5?8ID@ 0000000180082b68     idp.obj
 0002:00012ba0       ??_C@_0DJ@MMHDJLBI@in?5output?5value?5of?5type?5?8int?8?5i@ 0000000180082ba0     idp.obj
 0002:00012be0       ??_C@_0BF@PNKIECMD@ev_get_stkarg_offset@ 0000000180082be0     idp.obj
 0002:00012bf8       ??_C@_0DN@KKNCMMKN@Error?5detected?5when?5calling?5?8ID@ 0000000180082bf8     idp.obj
 0002:00012c38       ??_C@_0DP@EHDLEEAP@in?5output?5value?5of?5type?5?8int?8?5i@ 0000000180082c38     idp.obj
 0002:00012c78       ??_C@_0BE@FBIODMGI@ev_shadow_args_size@ 0000000180082c78     idp.obj
 0002:00012c90       ??_C@_0DM@BJNPNAPF@Error?5detected?5when?5calling?5?8ID@ 0000000180082c90     idp.obj
 0002:00012cd0       ??_C@_0DO@EINEFCHF@in?5output?5value?5of?5type?5?8int?8?5i@ 0000000180082cd0     idp.obj
 0002:00012d10       ??_C@_0BC@NIGHDDFN@ev_get_simd_types@ 0000000180082d10     idp.obj
 0002:00012d28       ??_C@_0DK@BPAFBCPB@Error?5detected?5when?5calling?5?8ID@ 0000000180082d28     idp.obj
 0002:00012d68       ??_C@_0DM@PNPOMHND@in?5output?5value?5of?5type?5?8int?8?5i@ 0000000180082d68     idp.obj
 0002:00012da8       ??_C@_0BL@PPCPMCEO@ev_calc_cdecl_purged_bytes@ 0000000180082da8     idp.obj
 0002:00012dd0       ??_C@_0ED@OCAGAAGN@Error?5detected?5when?5calling?5?8ID@ 0000000180082dd0     idp.obj
 0002:00012e20       ??_C@_0EF@DNAJAGJK@in?5output?5value?5of?5type?5?8int?8?5i@ 0000000180082e20     idp.obj
 0002:00012e68       ??_C@_0BF@FIHJGAMN@ev_calc_purged_bytes@ 0000000180082e68     idp.obj
 0002:00012e80       ??_C@_0DN@ENMPDAII@Error?5detected?5when?5calling?5?8ID@ 0000000180082e80     idp.obj
 0002:00012ec0       ??_C@_0DP@KACGLICK@in?5output?5value?5of?5type?5?8int?8?5i@ 0000000180082ec0     idp.obj
 0002:00012f00       ??_C@_0P@NKFALHBE@ev_calc_retloc@ 0000000180082f00     idp.obj
 0002:00012f10       ??_C@_0DH@MMJAKFGP@Error?5detected?5when?5calling?5?8ID@ 0000000180082f10     idp.obj
 0002:00012f48       ??_C@_0DJ@BPOKHPFF@in?5output?5value?5of?5type?5?8int?8?5i@ 0000000180082f48     idp.obj
 0002:00012f88       ??_C@_0BA@MLBNEKEC@ev_calc_arglocs@ 0000000180082f88     idp.obj
 0002:00012f98       ??_C@_0DI@NJLEBILA@Error?5detected?5when?5calling?5?8ID@ 0000000180082f98     idp.obj
 0002:00012fd0       ??_C@_0DK@BPGLLLNI@in?5output?5value?5of?5type?5?8int?8?5i@ 0000000180082fd0     idp.obj
 0002:00013010       ??_C@_0BB@OIOPCLAB@ev_calc_varglocs@ 0000000180083010     idp.obj
 0002:00013028       ??_C@_0DJ@PNGHEDN@Error?5detected?5when?5calling?5?8ID@ 0000000180083028     idp.obj
 0002:00013068       ??_C@_0DL@EMHJECPE@in?5output?5value?5of?5type?5?8int?8?5i@ 0000000180083068     idp.obj
 0002:000130a8       ??_C@_0BB@HFJABNPB@ev_adjust_argloc@ 00000001800830a8     idp.obj
 0002:000130c0       ??_C@_0DJ@LCPGPJBH@Error?5detected?5when?5calling?5?8ID@ 00000001800830c0     idp.obj
 0002:00013100       ??_C@_0DL@PBFJMPNO@in?5output?5value?5of?5type?5?8int?8?5i@ 0000000180083100     idp.obj
 0002:00013140       ??_C@_0BD@LONIKKCC@ev_lower_func_type@ 0000000180083140     idp.obj
 0002:00013158       ??_C@_0DL@EIHJCGLO@Error?5detected?5when?5calling?5?8ID@ 0000000180083158     idp.obj
 0002:00013198       ??_C@_0DN@JNPLJMIP@in?5output?5value?5of?5type?5?8int?8?5i@ 0000000180083198     idp.obj
 0002:000131d8       ??_C@_0BB@JACMDBIK@ev_equal_reglocs@ 00000001800831d8     idp.obj
 0002:000131f0       ??_C@_0DJ@HFMEONIP@Error?5detected?5when?5calling?5?8ID@ 00000001800831f0     idp.obj
 0002:00013230       ??_C@_0DL@DGGLNLEG@in?5output?5value?5of?5type?5?8int?8?5i@ 0000000180083230     idp.obj
 0002:00013270       ??_C@_0BD@NLHIADEH@ev_use_stkarg_type@ 0000000180083270     idp.obj
 0002:00013288       ??_C@_0DL@HFMEBDMA@Error?5detected?5when?5calling?5?8ID@ 0000000180083288     idp.obj
 0002:000132c8       ??_C@_0DN@KAEGKJPB@in?5output?5value?5of?5type?5?8int?8?5i@ 00000001800832c8     idp.obj
 0002:00013308       ??_C@_0BD@DFJJLEKN@ev_use_regarg_type@ 0000000180083308     idp.obj
 0002:00013320       ??_C@_0DL@DFPFPJBB@Error?5detected?5when?5calling?5?8ID@ 0000000180083320     idp.obj
 0002:00013360       ??_C@_0BB@HPHLENOA@ev_use_arg_types@ 0000000180083360     idp.obj
 0002:00013378       ??_C@_0DJ@NIEMDCLF@Error?5detected?5when?5calling?5?8ID@ 0000000180083378     idp.obj
 0002:000133b8       ??_C@_0DL@JLODAEHM@in?5output?5value?5of?5type?5?8int?8?5i@ 00000001800833b8     idp.obj
 0002:000133f8       ??_C@_0BD@ECAJJGHK@ev_arg_addrs_ready@ 00000001800833f8     idp.obj
 0002:00013410       ??_C@_0DL@CNDFCOEE@Error?5detected?5when?5calling?5?8ID@ 0000000180083410     idp.obj
 0002:00013450       ??_C@_0DN@PILHJEHF@in?5output?5value?5of?5type?5?8int?8?5i@ 0000000180083450     idp.obj
 0002:00013490       ??_C@_0BB@LFAFOFHI@ev_decorate_name@ 0000000180083490     idp.obj
 0002:000134a8       ??_C@_0DJ@CGFCFHGL@Error?5detected?5when?5calling?5?8ID@ 00000001800834a8     idp.obj
 0002:000134e8       ??_C@_09NCLDLEIA@ev_loader@ 00000001800834e8     idp.obj
 0002:000134f8       ??_C@_0DC@HBBNGNOO@Error?5detected?5when?5calling?5?8ID@ 00000001800834f8     idp.obj
 0002:00013530       ??_C@_0DE@FKAHFOCA@in?5output?5value?5of?5type?5?8int?8?5i@ 0000000180083530     idp.obj
 0002:00013570       ??_C@_0ED@FHNPFIFG@?8self?8?5uninitialized?0?5maybe?5you@ 0000000180083570     idp.obj
 0002:000135b8       ??_C@_09DONFEBKC@closebase@ 00000001800835b8     idp.obj
 0002:000135c8       ??_C@_0DC@MDGHHHAE@Error?5detected?5when?5calling?5?8ID@ 00000001800835c8     idp.obj
 0002:00013600       ??_C@_0DE@IPILHJDB@in?5output?5value?5of?5type?5?8int?8?5i@ 0000000180083600     idp.obj
 0002:00013638       ??_C@_08DFENDCDM@savebase@ 0000000180083638     idp.obj
 0002:00013648       ??_C@_0DB@FLJNCOE@Error?5detected?5when?5calling?5?8ID@ 0000000180083648     idp.obj
 0002:00013680       ??_C@_0DD@IAKHLJMF@in?5output?5value?5of?5type?5?8int?8?5i@ 0000000180083680     idp.obj
 0002:000136b8       ??_C@_08FIPCLLDL@upgraded@ 00000001800836b8     idp.obj
 0002:000136c8       ??_C@_0DB@JLLAPIMO@Error?5detected?5when?5calling?5?8ID@ 00000001800836c8     idp.obj
 0002:00013700       ??_C@_0DD@BOKOJDOP@in?5output?5value?5of?5type?5?8int?8?5i@ 0000000180083700     idp.obj
 0002:00013738       ??_C@_0L@JLPKHPBN@auto_empty@ 0000000180083738     idp.obj
 0002:00013748       ??_C@_0DD@BOBOEGHA@Error?5detected?5when?5calling?5?8ID@ 0000000180083748     idp.obj
 0002:00013780       ??_C@_0DF@EIOBGOFN@in?5output?5value?5of?5type?5?8int?8?5i@ 0000000180083780     idp.obj
 0002:000137b8       ??_C@_0BD@BCGMAOHM@auto_empty_finally@ 00000001800837b8     idp.obj
 0002:000137d0       ??_C@_0DL@NMDCMFAD@Error?5detected?5when?5calling?5?8ID@ 00000001800837d0     idp.obj
 0002:00013810       ??_C@_0DN@BBIEFENI@in?5output?5value?5of?5type?5?8int?8?5i@ 0000000180083810     idp.obj
 0002:00013850       ??_C@_0BA@MBJKIDBO@determined_main@ 0000000180083850     idp.obj
 0002:00013860       ??_C@_0DI@HDBCIDJF@Error?5detected?5when?5calling?5?8ID@ 0000000180083860     idp.obj
 0002:00013898       ??_C@_0DK@HNLMCBMO@in?5output?5value?5of?5type?5?8int?8?5i@ 0000000180083898     idp.obj
 0002:000138d8       ??_C@_0BE@IGCMMLC@local_types_changed@ 00000001800838d8     idp.obj
 0002:000138f0       ??_C@_0DM@DPEHDIIC@Error?5detected?5when?5calling?5?8ID@ 00000001800838f0     idp.obj
 0002:00013930       ??_C@_0DO@COILIFEP@in?5output?5value?5of?5type?5?8int?8?5i@ 0000000180083930     idp.obj
 0002:00013970       ??_C@_0BA@DLGNHJMH@extlang_changed@ 0000000180083970     idp.obj
 0002:00013980       ??_C@_0DI@IMOHBOBP@Error?5detected?5when?5calling?5?8ID@ 0000000180083980     idp.obj
 0002:000139b8       ??_C@_0DK@ICEJLMEE@in?5output?5value?5of?5type?5?8int?8?5i@ 00000001800839b8     idp.obj
 0002:000139f8       ??_C@_0O@NHABPEIG@idasgn_loaded@ 00000001800839f8     idp.obj
 0002:00013a08       ??_C@_0DG@NBKFDIOK@Error?5detected?5when?5calling?5?8ID@ 0000000180083a08     idp.obj
 0002:00013a40       ??_C@_0DI@JBGPKMCI@in?5output?5value?5of?5type?5?8int?8?5i@ 0000000180083a40     idp.obj
 0002:00013a78       ??_C@_0BF@GFPBCACA@kernel_config_loaded@ 0000000180083a78     idp.obj
 0002:00013a90       ??_C@_0DN@JLGENMBP@Error?5detected?5when?5calling?5?8ID@ 0000000180083a90     idp.obj
 0002:00013ad0       ??_C@_0DP@HOKAKOKP@in?5output?5value?5of?5type?5?8int?8?5i@ 0000000180083ad0     idp.obj
 0002:00013b10       ??_C@_0BA@BGLFHOM@loader_finished@ 0000000180083b10     idp.obj
 0002:00013b20       ??_C@_0DI@CAGBOBHB@Error?5detected?5when?5calling?5?8ID@ 0000000180083b20     idp.obj
 0002:00013b58       ??_C@_0DK@COMPEDCK@in?5output?5value?5of?5type?5?8int?8?5i@ 0000000180083b58     idp.obj
 0002:00013b98       ??_C@_0BD@PEOIOLMB@flow_chart_created@ 0000000180083b98     idp.obj
 0002:00013bb0       ??_C@_0DL@GJAEIONH@Error?5detected?5when?5calling?5?8ID@ 0000000180083bb0     idp.obj
 0002:00013bf0       ??_C@_0DN@KELCBPAM@in?5output?5value?5of?5type?5?8int?8?5i@ 0000000180083bf0     idp.obj
 0002:00013c30       ??_C@_0BB@MFJKKEED@compiler_changed@ 0000000180083c30     idp.obj
 0002:00013c48       ??_C@_0DJ@CIDBDBBJ@Error?5detected?5when?5calling?5?8ID@ 0000000180083c48     idp.obj
 0002:00013c88       ??_C@_0DL@NEIGBHMH@in?5output?5value?5of?5type?5?8int?8?5i@ 0000000180083c88     idp.obj
 0002:00013cc8       ??_C@_0M@DCDAKPBI@changing_ti@ 0000000180083cc8     idp.obj
 0002:00013cd8       ??_C@_0DE@JLFELOMI@Error?5detected?5when?5calling?5?8ID@ 0000000180083cd8     idp.obj
 0002:00013d10       ??_C@_0DG@NONNBNJF@in?5output?5value?5of?5type?5?8int?8?5i@ 0000000180083d10     idp.obj
 0002:00013d48       ??_C@_0L@LAHBBGKE@ti_changed@ 0000000180083d48     idp.obj
 0002:00013d58       ??_C@_0DD@KMIIMGDB@Error?5detected?5when?5calling?5?8ID@ 0000000180083d58     idp.obj
 0002:00013d90       ??_C@_0DF@PKHHOOBM@in?5output?5value?5of?5type?5?8int?8?5i@ 0000000180083d90     idp.obj
 0002:00013dc8       ??_C@_0P@GNDLGKEN@changing_op_ti@ 0000000180083dc8     idp.obj
 0002:00013dd8       ??_C@_0DH@HIMAJENA@Error?5detected?5when?5calling?5?8ID@ 0000000180083dd8     idp.obj
 0002:00013e10       ??_C@_0DJ@NOKPNNI@in?5output?5value?5of?5type?5?8int?8?5i@ 0000000180083e10     idp.obj
 0002:00013e50       ??_C@_0O@CEBPFMKJ@op_ti_changed@ 0000000180083e50     idp.obj
 0002:00013e60       ??_C@_0DG@HKIHBLBL@Error?5detected?5when?5calling?5?8ID@ 0000000180083e60     idp.obj
 0002:00013e98       ??_C@_0DI@DKENIPNJ@in?5output?5value?5of?5type?5?8int?8?5i@ 0000000180083e98     idp.obj
 0002:00013ed0       ??_C@_0BB@PENCHEBI@changing_op_type@ 0000000180083ed0     idp.obj
 0002:00013ee8       ??_C@_0DJ@NELJPBLF@Error?5detected?5when?5calling?5?8ID@ 0000000180083ee8     idp.obj
 0002:00013f28       ??_C@_0DL@CIAONHGL@in?5output?5value?5of?5type?5?8int?8?5i@ 0000000180083f28     idp.obj
 0002:00013f68       ??_C@_0BA@JOGOJNBM@op_type_changed@ 0000000180083f68     idp.obj
 0002:00013f78       ??_C@_0DI@JNEDBGKH@Error?5detected?5when?5calling?5?8ID@ 0000000180083f78     idp.obj
 0002:00013fb0       ??_C@_0DK@JDONLEPM@in?5output?5value?5of?5type?5?8int?8?5i@ 0000000180083fb0     idp.obj
 0002:00013ff0       ??_C@_0N@FGJLKGBN@enum_created@ 0000000180083ff0     idp.obj
 0002:00014000       ??_C@_0DF@NFMBBPFD@Error?5detected?5when?5calling?5?8ID@ 0000000180084000     idp.obj
 0002:00014038       ??_C@_0DH@MAFOLLLJ@in?5output?5value?5of?5type?5?8int?8?5i@ 0000000180084038     idp.obj
 0002:00014070       ??_C@_0O@NFLKFLDF@deleting_enum@ 0000000180084070     idp.obj
 0002:00014080       ??_C@_0DG@IDMPGBHD@Error?5detected?5when?5calling?5?8ID@ 0000000180084080     idp.obj
 0002:000140b8       ??_C@_0DI@MDAFPFLB@in?5output?5value?5of?5type?5?8int?8?5i@ 00000001800840b8     idp.obj
 0002:000140f0       ??_C@_0N@CMKIPKEM@enum_deleted@ 00000001800840f0     idp.obj
 0002:00014100       ??_C@_0DF@MJNHENGN@Error?5detected?5when?5calling?5?8ID@ 0000000180084100     idp.obj
 0002:00014138       ??_C@_0DH@NMEIOJIH@in?5output?5value?5of?5type?5?8int?8?5i@ 0000000180084138     idp.obj
 0002:00014170       ??_C@_0O@MMJDGLNA@renaming_enum@ 0000000180084170     idp.obj
 0002:00014180       ??_C@_0DG@FDLGFOLE@Error?5detected?5when?5calling?5?8ID@ 0000000180084180     idp.obj
 0002:000141b8       ??_C@_0DI@BDHMMKHG@in?5output?5value?5of?5type?5?8int?8?5i@ 00000001800841b8     idp.obj
 0002:000141f0       ??_C@_0N@DCFNNDO@enum_renamed@ 00000001800841f0     idp.obj
 0002:00014200       ??_C@_0DF@HHPDNAFK@Error?5detected?5when?5calling?5?8ID@ 0000000180084200     idp.obj
 0002:00014238       ??_C@_0DH@GCGMHELA@in?5output?5value?5of?5type?5?8int?8?5i@ 0000000180084238     idp.obj
 0002:00014270       ??_C@_0BB@CIOCIINP@changing_enum_bf@ 0000000180084270     idp.obj
 0002:00014288       ??_C@_0DJ@NBGFJGFK@Error?5detected?5when?5calling?5?8ID@ 0000000180084288     idp.obj
 0002:000142c8       ??_C@_0DL@CNNCLAIE@in?5output?5value?5of?5type?5?8int?8?5i@ 00000001800842c8     idp.obj
 0002:00014308       ??_C@_0BA@FKMBGGK@enum_bf_changed@ 0000000180084308     idp.obj
 0002:00014318       ??_C@_0DI@CELOAACF@Error?5detected?5when?5calling?5?8ID@ 0000000180084318     idp.obj
 0002:00014350       ??_C@_0DK@CKBAKCHO@in?5output?5value?5of?5type?5?8int?8?5i@ 0000000180084350     idp.obj
 0002:00014390       ??_C@_0BC@OJPOBJLL@changing_enum_cmt@ 0000000180084390     idp.obj
 0002:000143a8       ??_C@_0DK@NFDBFBEB@Error?5detected?5when?5calling?5?8ID@ 00000001800843a8     idp.obj
 0002:000143e8       ??_C@_0DM@LEKGBJLE@in?5output?5value?5of?5type?5?8int?8?5i@ 00000001800843e8     idp.obj
 0002:00014428       ??_C@_0BB@PELAKBKE@enum_cmt_changed@ 0000000180084428     idp.obj
 0002:00014440       ??_C@_0DJ@BGGOGMMH@Error?5detected?5when?5calling?5?8ID@ 0000000180084440     idp.obj
 0002:00014480       ??_C@_0DL@OKNJEKBJ@in?5output?5value?5of?5type?5?8int?8?5i@ 0000000180084480     idp.obj
 0002:000144c0       ??_C@_0BE@DGCLCPLO@enum_member_created@ 00000001800844c0     idp.obj
 0002:000144d8       ??_C@_0DM@DGMPDNEK@Error?5detected?5when?5calling?5?8ID@ 00000001800844d8     idp.obj
 0002:00014518       ??_C@_0DO@CHADIAIH@in?5output?5value?5of?5type?5?8int?8?5i@ 0000000180084518     idp.obj
 0002:00014558       ??_C@_0BF@EKCJOHLC@deleting_enum_member@ 0000000180084558     idp.obj
 0002:00014570       ??_C@_0DN@IFEKPGLA@Error?5detected?5when?5calling?5?8ID@ 0000000180084570     idp.obj
 0002:000145b0       ??_C@_0DP@GAIOIEAA@in?5output?5value?5of?5type?5?8int?8?5i@ 00000001800845b0     idp.obj
 0002:000145f0       ??_C@_0BE@EMBIHDOP@enum_member_deleted@ 00000001800845f0     idp.obj
 0002:00014608       ??_C@_0DM@CKNJGPHE@Error?5detected?5when?5calling?5?8ID@ 0000000180084608     idp.obj
 0002:00014648       ??_C@_0DO@DLBFNCLJ@in?5output?5value?5of?5type?5?8int?8?5i@ 0000000180084648     idp.obj
 0002:00014688       ??_C@_0O@GABAOAFH@struc_created@ 0000000180084688     idp.obj
 0002:00014698       ??_C@_0DG@CAMGMLLM@Error?5detected?5when?5calling?5?8ID@ 0000000180084698     idp.obj
 0002:000146d0       ??_C@_0DI@GAAMFPHO@in?5output?5value?5of?5type?5?8int?8?5i@ 00000001800846d0     idp.obj
 0002:00014708       ??_C@_0P@GIILOCMI@deleting_struc@ 0000000180084708     idp.obj
 0002:00014718       ??_C@_0DH@OFBHFDPH@Error?5detected?5when?5calling?5?8ID@ 0000000180084718     idp.obj
 0002:00014750       ??_C@_0DJ@JADNDKPP@in?5output?5value?5of?5type?5?8int?8?5i@ 0000000180084750     idp.obj
 0002:00014790       ??_C@_0O@BKCDLMAG@struc_deleted@ 0000000180084790     idp.obj
 0002:000147a0       ??_C@_0DG@DMNAJJIC@Error?5detected?5when?5calling?5?8ID@ 00000001800847a0     idp.obj
 0002:000147d8       ??_C@_0DI@HMBKANEA@in?5output?5value?5of?5type?5?8int?8?5i@ 00000001800847d8     idp.obj
 0002:00014810       ??_C@_0BF@DIINPOHB@changing_struc_align@ 0000000180084810     idp.obj
 0002:00014828       ??_C@_0DN@IHFFMBKD@Error?5detected?5when?5calling?5?8ID@ 0000000180084828     idp.obj
 0002:00014868       ??_C@_0DP@GCJBLDBD@in?5output?5value?5of?5type?5?8int?8?5i@ 0000000180084868     idp.obj
 0002:000148a8       ??_C@_0BE@FGHIKHNN@struc_align_changed@ 00000001800848a8     idp.obj
 0002:000148c0       ??_C@_0DM@OCBEFOCA@Error?5detected?5when?5calling?5?8ID@ 00000001800848c0     idp.obj
 0002:00014900       ??_C@_0DO@PDNIODON@in?5output?5value?5of?5type?5?8int?8?5i@ 0000000180084900     idp.obj
 0002:00014940       ??_C@_0P@LIPCNNAP@renaming_struc@ 0000000180084940     idp.obj
 0002:00014950       ??_C@_0DH@OAMHHNNL@Error?5detected?5when?5calling?5?8ID@ 0000000180084950     idp.obj
 0002:00014988       ??_C@_0DJ@JFONBEND@in?5output?5value?5of?5type?5?8int?8?5i@ 0000000180084988     idp.obj
 0002:000149c8       ??_C@_0O@DFKOJLHE@struc_renamed@ 00000001800849c8     idp.obj
 0002:000149d8       ??_C@_0DG@ICPEAELF@Error?5detected?5when?5calling?5?8ID@ 00000001800849d8     idp.obj
 0002:00014a10       ??_C@_0DI@MCDOJAHH@in?5output?5value?5of?5type?5?8int?8?5i@ 0000000180084a10     idp.obj
 0002:00014a48       ??_C@_0BA@GLDFJOPK@expanding_struc@ 0000000180084a48     idp.obj
 0002:00014a58       ??_C@_0DI@NENPAKOJ@Error?5detected?5when?5calling?5?8ID@ 0000000180084a58     idp.obj
 0002:00014a90       ??_C@_0DK@NKHBKILC@in?5output?5value?5of?5type?5?8int?8?5i@ 0000000180084a90     idp.obj
 0002:00014ad0       ??_C@_0P@LAOMCOEO@struc_expanded@ 0000000180084ad0     idp.obj
 0002:00014ae0       ??_C@_0DH@OBBEBCCO@Error?5detected?5when?5calling?5?8ID@ 0000000180084ae0     idp.obj
 0002:00014b18       ??_C@_0DJ@JEDOHLCG@in?5output?5value?5of?5type?5?8int?8?5i@ 0000000180084b18     idp.obj
 0002:00014b58       ??_C@_0BF@BMCHMKAG@struc_member_created@ 0000000180084b58     idp.obj
 0002:00014b70       ??_C@_0DN@EJBAIPAI@Error?5detected?5when?5calling?5?8ID@ 0000000180084b70     idp.obj
 0002:00014bb0       ??_C@_0DP@KMNEPNLI@in?5output?5value?5of?5type?5?8int?8?5i@ 0000000180084bb0     idp.obj
 0002:00014bf0       ??_C@_0BG@BBMPJGH@deleting_struc_member@ 0000000180084bf0     idp.obj
 0002:00014c08       ??_C@_0DO@BHGJACLA@Error?5detected?5when?5calling?5?8ID@ 0000000180084c08     idp.obj
 0002:00014c50       ??_C@_0EA@NMONHFEO@in?5output?5value?5of?5type?5?8int?8?5i@ 0000000180084c50     idp.obj
 0002:00014c90       ??_C@_0BF@GGBEJGFH@struc_member_deleted@ 0000000180084c90     idp.obj
 0002:00014ca8       ??_C@_0DN@FFAGNNDG@Error?5detected?5when?5calling?5?8ID@ 0000000180084ca8     idp.obj
 0002:00014ce8       ??_C@_0DP@LAMCKPIG@in?5output?5value?5of?5type?5?8int?8?5i@ 0000000180084ce8     idp.obj
 0002:00014d28       ??_C@_0BG@CPBMNGDN@renaming_struc_member@ 0000000180084d28     idp.obj
 0002:00014d40       ??_C@_0DO@JMPJLKHF@Error?5detected?5when?5calling?5?8ID@ 0000000180084d40     idp.obj
 0002:00014d80       ??_C@_0EA@FHHNMNIL@in?5output?5value?5of?5type?5?8int?8?5i@ 0000000180084d80     idp.obj
 0002:00014dc0       ??_C@_0BF@EJJJLBCF@struc_member_renamed@ 0000000180084dc0     idp.obj
 0002:00014dd8       ??_C@_0DN@OLCCEAAB@Error?5detected?5when?5calling?5?8ID@ 0000000180084dd8     idp.obj
 0002:00014e18       ??_C@_0DP@OOGDCLB@in?5output?5value?5of?5type?5?8int?8?5i@ 0000000180084e18     idp.obj
 0002:00014e58       ??_C@_0BG@BEJHFFIP@changing_struc_member@ 0000000180084e58     idp.obj
 0002:00014e70       ??_C@_0DO@LJKNODFG@Error?5detected?5when?5calling?5?8ID@ 0000000180084e70     idp.obj
 0002:00014eb0       ??_C@_0EA@HCCJJEKI@in?5output?5value?5of?5type?5?8int?8?5i@ 0000000180084eb0     idp.obj
 0002:00014ef0       ??_C@_0BF@IEOECEDA@struc_member_changed@ 0000000180084ef0     idp.obj
 0002:00014f08       ??_C@_0DN@IGDCNJHP@Error?5detected?5when?5calling?5?8ID@ 0000000180084f08     idp.obj
 0002:00014f48       ??_C@_0DP@GDPGKLMP@in?5output?5value?5of?5type?5?8int?8?5i@ 0000000180084f48     idp.obj
 0002:00014f88       ??_C@_0BD@LOOCLHIC@changing_struc_cmt@ 0000000180084f88     idp.obj
 0002:00014fa0       ??_C@_0DL@IGJLJEKB@Error?5detected?5when?5calling?5?8ID@ 0000000180084fa0     idp.obj
 0002:00014fe0       ??_C@_0DN@ELCNAFHK@in?5output?5value?5of?5type?5?8int?8?5i@ 0000000180084fe0     idp.obj
 0002:00015020       ??_C@_0BC@GDMDDMJG@struc_cmt_changed@ 0000000180085020     idp.obj
 0002:00015038       ??_C@_0DK@JAGEDABB@Error?5detected?5when?5calling?5?8ID@ 0000000180085038     idp.obj
 0002:00015078       ??_C@_0DM@PBPDHIOE@in?5output?5value?5of?5type?5?8int?8?5i@ 0000000180085078     idp.obj
 0002:000150b8       ??_C@_0L@DGNELPMC@segm_added@ 00000001800850b8     idp.obj
 0002:000150c8       ??_C@_0DD@INPKHPF@Error?5detected?5when?5calling?5?8ID@ 00000001800850c8     idp.obj
 0002:00015100       ??_C@_0DF@FOCAIPNI@in?5output?5value?5of?5type?5?8int?8?5i@ 0000000180085100     idp.obj
 0002:00015138       ??_C@_0O@PCLJMJAI@deleting_segm@ 0000000180085138     idp.obj
 0002:00015148       ??_C@_0DG@NLIACOPA@Error?5detected?5when?5calling?5?8ID@ 0000000180085148     idp.obj
 0002:00015180       ??_C@_0DI@JLEKLKDC@in?5output?5value?5of?5type?5?8int?8?5i@ 0000000180085180     idp.obj
 0002:000151b8       ??_C@_0N@LPECFKEP@segm_deleted@ 00000001800851b8     idp.obj
 0002:000151c8       ??_C@_0DF@FAENPGHH@Error?5detected?5when?5calling?5?8ID@ 00000001800851c8     idp.obj
 0002:00015200       ??_C@_0DH@EFNCFCJN@in?5output?5value?5of?5type?5?8int?8?5i@ 0000000180085200     idp.obj
 0002:00015238       ??_C@_0BE@EKAIPJMM@changing_segm_start@ 0000000180085238     idp.obj
 0002:00015250       ??_C@_0DM@IILIAOIM@Error?5detected?5when?5calling?5?8ID@ 0000000180085250     idp.obj
 0002:00015290       ??_C@_0DO@JJHELDEB@in?5output?5value?5of?5type?5?8int?8?5i@ 0000000180085290     idp.obj
 0002:000152d0       ??_C@_0BD@FGLEDML@segm_start_changed@ 00000001800852d0     idp.obj
 0002:000152e8       ??_C@_0DL@IJCAOEGB@Error?5detected?5when?5calling?5?8ID@ 00000001800852e8     idp.obj
 0002:00015328       ??_C@_0DN@EEJGHFLK@in?5output?5value?5of?5type?5?8int?8?5i@ 0000000180085328     idp.obj
 0002:00015368       ??_C@_0BC@PGOAEACF@changing_segm_end@ 0000000180085368     idp.obj
 0002:00015380       ??_C@_0DK@MCJJPBFL@Error?5detected?5when?5calling?5?8ID@ 0000000180085380     idp.obj
 0002:000153c0       ??_C@_0DM@KDAOLJKO@in?5output?5value?5of?5type?5?8int?8?5i@ 00000001800853c0     idp.obj
 0002:00015400       ??_C@_0BB@KDJLMILL@segm_end_changed@ 0000000180085400     idp.obj
 0002:00015418       ??_C@_0DJ@JLDBEKFL@Error?5detected?5when?5calling?5?8ID@ 0000000180085418     idp.obj
 0002:00015458       ??_C@_0DL@GHIGGMIF@in?5output?5value?5of?5type?5?8int?8?5i@ 0000000180085458     idp.obj
 0002:00015498       ??_C@_0BD@HDBKLBCN@changing_segm_name@ 0000000180085498     idp.obj
 0002:000154b0       ??_C@_0DL@MADPNCNO@Error?5detected?5when?5calling?5?8ID@ 00000001800854b0     idp.obj
 0002:000154f0       ??_C@_0DN@NIJEDAF@in?5output?5value?5of?5type?5?8int?8?5i@ 00000001800854f0     idp.obj
 0002:00015530       ??_C@_0BC@JLDKELJC@segm_name_changed@ 0000000180085530     idp.obj
 0002:00015548       ??_C@_0DK@JHPBANHP@Error?5detected?5when?5calling?5?8ID@ 0000000180085548     idp.obj
 0002:00015588       ??_C@_0DM@PGGGEFIK@in?5output?5value?5of?5type?5?8int?8?5i@ 0000000180085588     idp.obj
 0002:000155c8       ??_C@_0BE@FHMNNLOE@changing_segm_class@ 00000001800855c8     idp.obj
 0002:000155e0       ??_C@_0DM@LNBAGDFE@Error?5detected?5when?5calling?5?8ID@ 00000001800855e0     idp.obj
 0002:00015620       ??_C@_0DO@KMNMNOJJ@in?5output?5value?5of?5type?5?8int?8?5i@ 0000000180085620     idp.obj
 0002:00015660       ??_C@_0BD@KOIPMOKJ@segm_class_changed@ 0000000180085660     idp.obj
 0002:00015678       ??_C@_0DL@CKDHAAJI@Error?5detected?5when?5calling?5?8ID@ 0000000180085678     idp.obj
 0002:000156b8       ??_C@_0DN@OHIBJBED@in?5output?5value?5of?5type?5?8int?8?5i@ 00000001800856b8     idp.obj
 0002:000156f8       ??_C@_0BD@IKAECOIJ@segm_attrs_updated@ 00000001800856f8     idp.obj
 0002:00015710       ??_C@_0DL@BBHNKLLA@Error?5detected?5when?5calling?5?8ID@ 0000000180085710     idp.obj
 0002:00015750       ??_C@_0DN@NMMLDKGL@in?5output?5value?5of?5type?5?8int?8?5i@ 0000000180085750     idp.obj
 0002:00015790       ??_C@_0L@MMNGNBLM@segm_moved@ 0000000180085790     idp.obj
 0002:000157a0       ??_C@_0DD@LPJIPJKA@Error?5detected?5when?5calling?5?8ID@ 00000001800857a0     idp.obj
 0002:000157d8       ??_C@_0DF@OJGHNBIN@in?5output?5value?5of?5type?5?8int?8?5i@ 00000001800857d8     idp.obj
 0002:00015810       ??_C@_0O@LHBIBGPN@allsegs_moved@ 0000000180085810     idp.obj
 0002:00015820       ??_C@_0DG@BGBCIJLM@Error?5detected?5when?5calling?5?8ID@ 0000000180085820     idp.obj
 0002:00015858       ??_C@_0DI@FGNIBNHO@in?5output?5value?5of?5type?5?8int?8?5i@ 0000000180085858     idp.obj
 0002:00015890       ??_C@_0L@HHPCPCMK@func_added@ 0000000180085890     idp.obj
 0002:000158a0       ??_C@_0DD@GEFAJIK@Error?5detected?5when?5calling?5?8ID@ 00000001800858a0     idp.obj
 0002:000158d8       ??_C@_0DF@FALKCBKH@in?5output?5value?5of?5type?5?8int?8?5i@ 00000001800858d8     idp.obj
 0002:00015910       ??_C@_0N@ODNCAKDN@func_updated@ 0000000180085910     idp.obj
 0002:00015920       ??_C@_0DF@OOBKHGDH@Error?5detected?5when?5calling?5?8ID@ 0000000180085920     idp.obj
 0002:00015958       ??_C@_0DH@PLIFNCNN@in?5output?5value?5of?5type?5?8int?8?5i@ 0000000180085958     idp.obj
 0002:00015990       ??_C@_0P@KKNAKBLL@set_func_start@ 0000000180085990     idp.obj
 0002:000159a0       ??_C@_0DH@CMNJCIDC@Error?5detected?5when?5calling?5?8ID@ 00000001800859a0     idp.obj
 0002:000159d8       ??_C@_0DJ@FJPDEBDK@in?5output?5value?5of?5type?5?8int?8?5i@ 00000001800859d8     idp.obj
 0002:00015a18       ??_C@_0N@CKODHEKP@set_func_end@ 0000000180085a18     idp.obj
 0002:00015a28       ??_C@_0DF@PANCLFCB@Error?5detected?5when?5calling?5?8ID@ 0000000180085a28     idp.obj
 0002:00015a60       ??_C@_0DH@OFENBBML@in?5output?5value?5of?5type?5?8int?8?5i@ 0000000180085a60     idp.obj
 0002:00015a98       ??_C@_0O@JLPCJAGE@deleting_func@ 0000000180085a98     idp.obj
 0002:00015aa8       ??_C@_0DG@JPONEINK@Error?5detected?5when?5calling?5?8ID@ 0000000180085aa8     idp.obj
 0002:00015ae0       ??_C@_0DI@NPCHNMBI@in?5output?5value?5of?5type?5?8int?8?5i@ 0000000180085ae0     idp.obj
 0002:00015b18       ??_C@_0O@DKHKFLBP@frame_deleted@ 0000000180085b18     idp.obj
 0002:00015b28       ??_C@_0DG@FIJLGIKF@Error?5detected?5when?5calling?5?8ID@ 0000000180085b28     idp.obj
 0002:00015b60       ??_C@_0DI@BIFBPMGH@in?5output?5value?5of?5type?5?8int?8?5i@ 0000000180085b60     idp.obj
 0002:00015b98       ??_C@_0BD@NFAJHANN@thunk_func_created@ 0000000180085b98     idp.obj
 0002:00015bb0       ??_C@_0DL@HNCEDDAD@Error?5detected?5when?5calling?5?8ID@ 0000000180085bb0     idp.obj
 0002:00015bf0       ??_C@_0DN@LAJCKCNI@in?5output?5value?5of?5type?5?8int?8?5i@ 0000000180085bf0     idp.obj
 0002:00015c30       ??_C@_0BD@PDCBHNB@func_tail_appended@ 0000000180085c30     idp.obj
 0002:00015c48       ??_C@_0DL@HEEIEEEP@Error?5detected?5when?5calling?5?8ID@ 0000000180085c48     idp.obj
 0002:00015c88       ??_C@_0DN@LJPONFJE@in?5output?5value?5of?5type?5?8int?8?5i@ 0000000180085c88     idp.obj
 0002:00015cc8       ??_C@_0BD@JFJHMAJ@deleting_func_tail@ 0000000180085cc8     idp.obj
 0002:00015ce0       ??_C@_0DL@PMEGHFMC@Error?5detected?5when?5calling?5?8ID@ 0000000180085ce0     idp.obj
 0002:00015d20       ??_C@_0DN@DBPAOEBJ@in?5output?5value?5of?5type?5?8int?8?5i@ 0000000180085d20     idp.obj
 0002:00015d60       ??_C@_0BC@FGFONDGI@func_tail_deleted@ 0000000180085d60     idp.obj
 0002:00015d78       ??_C@_0DK@MKFEHCOF@Error?5detected?5when?5calling?5?8ID@ 0000000180085d78     idp.obj
 0002:00015db8       ??_C@_0DM@KLMDDKBA@in?5output?5value?5of?5type?5?8int?8?5i@ 0000000180085db8     idp.obj
 0002:00015df8       ??_C@_0BD@KCHLIJHA@tail_owner_changed@ 0000000180085df8     idp.obj
 0002:00015e10       ??_C@_0DL@NFDEJOKP@Error?5detected?5when?5calling?5?8ID@ 0000000180085e10     idp.obj
 0002:00015e50       ??_C@_0DN@BIICAPHE@in?5output?5value?5of?5type?5?8int?8?5i@ 0000000180085e50     idp.obj
 0002:00015e90       ??_C@_0BD@DJPJGABP@func_noret_changed@ 0000000180085e90     idp.obj
 0002:00015ea8       ??_C@_0DL@IKCGAIP@Error?5detected?5when?5calling?5?8ID@ 0000000180085ea8     idp.obj
 0002:00015ee8       ??_C@_0DN@MFBEPBFE@in?5output?5value?5of?5type?5?8int?8?5i@ 0000000180085ee8     idp.obj
 0002:00015f28       ??_C@_0BA@MFDNDCEO@stkpnts_changed@ 0000000180085f28     idp.obj
 0002:00015f38       ??_C@_0DI@BIHNHFNA@Error?5detected?5when?5calling?5?8ID@ 0000000180085f38     idp.obj
 0002:00015f70       ??_C@_0DK@BGNDNHIL@in?5output?5value?5of?5type?5?8int?8?5i@ 0000000180085f70     idp.obj
 0002:00015fb0       ??_C@_0BB@FOGKNNGD@updating_tryblks@ 0000000180085fb0     idp.obj
 0002:00015fc8       ??_C@_0DJ@BDMEOBKI@Error?5detected?5when?5calling?5?8ID@ 0000000180085fc8     idp.obj
 0002:00016008       ??_C@_0DL@OPHDMHHG@in?5output?5value?5of?5type?5?8int?8?5i@ 0000000180086008     idp.obj
 0002:00016048       ??_C@_0BA@OGFIEPBN@tryblks_updated@ 0000000180086048     idp.obj
 0002:00016058       ??_C@_0DI@OKDMBAOD@Error?5detected?5when?5calling?5?8ID@ 0000000180086058     idp.obj
 0002:00016090       ??_C@_0DK@OEJCLCLI@in?5output?5value?5of?5type?5?8int?8?5i@ 0000000180086090     idp.obj
 0002:000160d0       ??_C@_0BB@IEMGCPEJ@deleting_tryblks@ 00000001800860d0     idp.obj
 0002:000160e8       ??_C@_0DJ@MIKFIEIM@Error?5detected?5when?5calling?5?8ID@ 00000001800860e8     idp.obj
 0002:00016128       ??_C@_0DL@DEBCKCFC@in?5output?5value?5of?5type?5?8int?8?5i@ 0000000180086128     idp.obj
 0002:00016168       ??_C@_0M@BLKNOKPG@sgr_changed@ 0000000180086168     idp.obj
 0002:00016178       ??_C@_0DE@NMMPOMPC@Error?5detected?5when?5calling?5?8ID@ 0000000180086178     idp.obj
 0002:000161b0       ??_C@_0DG@JJEGEPKP@in?5output?5value?5of?5type?5?8int?8?5i@ 00000001800861b0     idp.obj
 0002:000161e8       ??_C@_09DACAPOPF@make_code@ 00000001800861e8     idp.obj
 0002:000161f8       ??_C@_0DC@DGGGEGOM@Error?5detected?5when?5calling?5?8ID@ 00000001800861f8     idp.obj
 0002:00016230       ??_C@_0DE@HKIKEINJ@in?5output?5value?5of?5type?5?8int?8?5i@ 0000000180086230     idp.obj
 0002:00016268       ??_C@_09BKJFDDKC@make_data@ 0000000180086268     idp.obj
 0002:00016278       ??_C@_0DC@MDEDDHHG@Error?5detected?5when?5calling?5?8ID@ 0000000180086278     idp.obj
 0002:000162b0       ??_C@_0DE@IPKPDJED@in?5output?5value?5of?5type?5?8int?8?5i@ 00000001800862b0     idp.obj
 0002:000162e8       ??_C@_0BA@JOELEDJH@destroyed_items@ 00000001800862e8     idp.obj
 0002:000162f8       ??_C@_0DI@OHCJGJNB@Error?5detected?5when?5calling?5?8ID@ 00000001800862f8     idp.obj
 0002:00016330       ??_C@_0DK@OJIHMLIK@in?5output?5value?5of?5type?5?8int?8?5i@ 0000000180086330     idp.obj
 0002:00016370       ??_C@_07LNELGNFI@renamed@  0000000180086370     idp.obj
 0002:00016378       ??_C@_0DA@JGAKFAFO@Error?5detected?5when?5calling?5?8ID@ 0000000180086378     idp.obj
 0002:000163a8       ??_C@_0DC@ONFBKJAM@in?5output?5value?5of?5type?5?8int?8?5i@ 00000001800863a8     idp.obj
 0002:000163e0       ??_C@_0N@INLGOBOA@byte_patched@ 00000001800863e0     idp.obj
 0002:000163f0       ??_C@_0DF@BGBGLMLF@Error?5detected?5when?5calling?5?8ID@ 00000001800863f0     idp.obj
 0002:00016428       ??_C@_0DH@DIJBIFP@in?5output?5value?5of?5type?5?8int?8?5i@ 0000000180086428     idp.obj
 0002:00016460       ??_C@_0N@JCMKNDPB@changing_cmt@ 0000000180086460     idp.obj
 0002:00016470       ??_C@_0DF@HMLJOAHF@Error?5detected?5when?5calling?5?8ID@ 0000000180086470     idp.obj
 0002:000164a8       ??_C@_0DH@GJCGEEJP@in?5output?5value?5of?5type?5?8int?8?5i@ 00000001800864a8     idp.obj
 0002:000164e0       ??_C@_0M@PIAECPMJ@cmt_changed@ 00000001800864e0     idp.obj
 0002:000164f0       ??_C@_0DE@GKEKGIAK@Error?5detected?5when?5calling?5?8ID@ 00000001800864f0     idp.obj
 0002:00016528       ??_C@_0DG@CPMDMLFH@in?5output?5value?5of?5type?5?8int?8?5i@ 0000000180086528     idp.obj
 0002:00016560       ??_C@_0BD@LKHLJBBM@changing_range_cmt@ 0000000180086560     idp.obj
 0002:00016578       ??_C@_0DL@JBCILDME@Error?5detected?5when?5calling?5?8ID@ 0000000180086578     idp.obj
 0002:000165b8       ??_C@_0DN@FMJOCCBP@in?5output?5value?5of?5type?5?8int?8?5i@ 00000001800865b8     idp.obj
 0002:000165f8       ??_C@_0BC@DKENHHLI@range_cmt_changed@ 00000001800865f8     idp.obj
 0002:00016610       ??_C@_0DK@EMOLLDJF@Error?5detected?5when?5calling?5?8ID@ 0000000180086610     idp.obj
 0002:00016650       ??_C@_0DM@CNHMPLGA@in?5output?5value?5of?5type?5?8int?8?5i@ 0000000180086650     idp.obj
 0002:00016690       ??_C@_0BC@PPPKBGAJ@extra_cmt_changed@ 0000000180086690     idp.obj
 0002:000166a8       ??_C@_0DK@PAEIIHOO@Error?5detected?5when?5calling?5?8ID@ 00000001800866a8     idp.obj
 0002:000166e8       ??_C@_0DM@JBNPMPBL@in?5output?5value?5of?5type?5?8int?8?5i@ 00000001800866e8     idp.obj
 0002:00016728       ??_C@_0BD@LNFOMEPL@item_color_changed@ 0000000180086728     idp.obj
 0002:00016740       ??_C@_0DL@KPEBOBEK@Error?5detected?5when?5calling?5?8ID@ 0000000180086740     idp.obj
 0002:00016780       ??_C@_0DN@GCPHHAJB@in?5output?5value?5of?5type?5?8int?8?5i@ 0000000180086780     idp.obj
 0002:000167c0       ??_C@_0BE@DPJICLJJ@callee_addr_changed@ 00000001800867c0     idp.obj
 0002:000167d8       ??_C@_0DM@JDMMDLCF@Error?5detected?5when?5calling?5?8ID@ 00000001800867d8     idp.obj
 0002:00016818       ??_C@_0DO@ICAAIGOI@in?5output?5value?5of?5type?5?8int?8?5i@ 0000000180086818     idp.obj
 0002:00016858       ??_C@_0BB@MBFAMJAC@bookmark_changed@ 0000000180086858     idp.obj
 0002:00016870       ??_C@_0DJ@CJOOIKHC@Error?5detected?5when?5calling?5?8ID@ 0000000180086870     idp.obj
 0002:000168b0       ??_C@_0DL@NFFJKMKM@in?5output?5value?5of?5type?5?8int?8?5i@ 00000001800868b0     idp.obj
 0002:000168f0       ??_C@_0M@PJFNFIJB@sgr_deleted@ 00000001800868f0     idp.obj
 0002:00016900       ??_C@_0DE@PPLOILL@Error?5detected?5when?5calling?5?8ID@ 0000000180086900     idp.obj
 0002:00016938       ??_C@_0DG@EKHCELOG@in?5output?5value?5of?5type?5?8int?8?5i@ 0000000180086938     idp.obj
 0002:00016970       ??_C@_0DE@OPAPLGKF@in?5method?5?8AssembleLine?8?0?5argum@ 0000000180086970     idp.obj
 0002:000169a8       ??_C@_0DE@LMJFONCB@in?5method?5?8AssembleLine?8?0?5argum@ 00000001800869a8     idp.obj
 0002:000169e0       ??_C@_0DE@DLDDCGGC@in?5method?5?8AssembleLine?8?0?5argum@ 00000001800869e0     idp.obj
 0002:00016a18       ??_C@_0DE@FLIKNOJJ@in?5method?5?8AssembleLine?8?0?5argum@ 0000000180086a18     idp.obj
 0002:00016a50       ??_C@_0DM@PACEJBOP@in?5method?5?8AssembleLine?8?0?5argum@ 0000000180086a50     idp.obj
 0002:00016a90       ??_C@_0FB@HPAOKPIE@invalid?5null?5pointer?5in?5method?5@ 0000000180086a90     idp.obj
 0002:00016ae8       ??_C@_0DE@DIOGABK@in?5method?5?8has_cf_chg?8?0?5argumen@ 0000000180086ae8     idp.obj
 0002:00016b20       ??_C@_0DC@OPDHJLNE@in?5method?5?8has_cf_chg?8?0?5argumen@ 0000000180086b20     idp.obj
 0002:00016b58       ??_C@_0DE@CLMJKBGG@in?5method?5?8has_cf_use?8?0?5argumen@ 0000000180086b58     idp.obj
 0002:00016b90       ??_C@_0DC@EJIJNGPJ@in?5method?5?8has_cf_use?8?0?5argumen@ 0000000180086b90     idp.obj
 0002:00016bc8       ??_C@_0DH@FBCNJBIH@in?5method?5?8has_insn_feature?8?0?5a@ 0000000180086bc8     idp.obj
 0002:00016c00       ??_C@_0DK@EGFADGAL@in?5method?5?8has_insn_feature?8?0?5a@ 0000000180086c00     idp.obj
 0002:00016c40       ??_C@_0DO@IIBHCMEB@in?5method?5?8is_call_insn?8?0?5argum@ 0000000180086c40     idp.obj
 0002:00016c80       ??_C@_0FF@NMHLIIOC@invalid?5null?5reference?5in?5metho@ 0000000180086c80     idp.obj
 0002:00016cd8       ??_C@_0DN@PBLMIICN@in?5method?5?8is_ret_insn?8?0?5argume@ 0000000180086cd8     idp.obj
 0002:00016d20       ??_C@_0FE@EDEPACNL@invalid?5null?5reference?5in?5metho@ 0000000180086d20     idp.obj
 0002:00016d78       ??_C@_0DD@INILLAEB@in?5method?5?8is_ret_insn?8?0?5argume@ 0000000180086d78     idp.obj
 0002:00016db0       ??_C@_0EH@BKCPONKC@in?5method?5?8is_indirect_jump_ins@ 0000000180086db0     idp.obj
 0002:00016e00       ??_C@_0FO@DCAINGIN@invalid?5null?5reference?5in?5metho@ 0000000180086e00     idp.obj
 0002:00016e60       ??_C@_0EE@IJOGLMAE@in?5method?5?8is_basic_block_end?8?0@ 0000000180086e60     idp.obj
 0002:00016eb0       ??_C@_0FL@IJIMCIMF@invalid?5null?5reference?5in?5metho@ 0000000180086eb0     idp.obj
 0002:00016f10       ??_C@_0DK@PBFBOHNJ@in?5method?5?8is_basic_block_end?8?0@ 0000000180086f10     idp.obj
 0002:00016f50       ??_C@_0DJ@FLDEFFFM@in?5method?5?8asm_t_flag_set?8?0?5arg@ 0000000180086f50     idp.obj
 0002:00016f90       ??_C@_0DI@ELLCILEA@in?5method?5?8asm_t_flag_set?8?0?5arg@ 0000000180086f90     idp.obj
 0002:00016fc8       ??_C@_0DJ@JMFEECLF@in?5method?5?8asm_t_flag_get?8?0?5arg@ 0000000180086fc8     idp.obj
 0002:00017008       ??_C@_0DK@OGKIIIAM@in?5method?5?8asm_t_uflag_set?8?0?5ar@ 0000000180087008     idp.obj
 0002:00017048       ??_C@_0DJ@MHJNKHOH@in?5method?5?8asm_t_uflag_set?8?0?5ar@ 0000000180087048     idp.obj
 0002:00017088       ??_C@_0DK@CBMIJPOF@in?5method?5?8asm_t_uflag_get?8?0?5ar@ 0000000180087088     idp.obj
 0002:000170c8       ??_C@_0DJ@KBAAIPMG@in?5method?5?8asm_t_name_set?8?0?5arg@ 00000001800870c8     idp.obj
 0002:00017108       ??_C@_0DO@ICPLNALG@in?5method?5?8asm_t_name_set?8?0?5arg@ 0000000180087108     idp.obj
 0002:00017148       ??_C@_0DJ@GGGAJICP@in?5method?5?8asm_t_name_get?8?0?5arg@ 0000000180087148     idp.obj
 0002:00017188       ??_C@_0DJ@BEDLCGMM@in?5method?5?8asm_t_help_set?8?0?5arg@ 0000000180087188     idp.obj
 0002:000171c8       ??_C@_0DI@GICLJGP@in?5method?5?8asm_t_help_set?8?0?5arg@ 00000001800871c8     idp.obj
 0002:00017200       ??_C@_0DJ@NDFLDBCF@in?5method?5?8asm_t_help_get?8?0?5arg@ 0000000180087200     idp.obj
 0002:00017240       ??_C@_0DL@LBKHPJPL@in?5method?5?8asm_t_header_set?8?0?5a@ 0000000180087240     idp.obj
 0002:00017280       ??_C@_0EH@MNIPLFGD@in?5method?5?8asm_t_header_set?8?0?5a@ 0000000180087280     idp.obj
 0002:000172c8       ??_C@_0DL@HGMHOOBC@in?5method?5?8asm_t_header_get?8?0?5a@ 00000001800872c8     idp.obj
 0002:00017308       ??_C@_0DL@FKBNJHOK@in?5method?5?8asm_t_origin_set?8?0?5a@ 0000000180087308     idp.obj
 0002:00017350       ??_C@_0EA@PANBGFJG@in?5method?5?8asm_t_origin_set?8?0?5a@ 0000000180087350     idp.obj
 0002:00017390       ??_C@_0DL@JNHNIAAD@in?5method?5?8asm_t_origin_get?8?0?5a@ 0000000180087390     idp.obj
 0002:000173d0       ??_C@_0DI@IEKMOCC@in?5method?5?8asm_t_end_set?8?0?5argu@ 00000001800873d0     idp.obj
 0002:00017408       ??_C@_0DN@HOMPIBEH@in?5method?5?8asm_t_end_set?8?0?5argu@ 0000000180087408     idp.obj
 0002:00017448       ??_C@_0DI@MPCKNJML@in?5method?5?8asm_t_end_get?8?0?5argu@ 0000000180087448     idp.obj
 0002:00017480       ??_C@_0DJ@PDBMOLAK@in?5method?5?8asm_t_cmnt_set?8?0?5arg@ 0000000180087480     idp.obj
 0002:000174c0       ??_C@_0DO@IHOLNAPK@in?5method?5?8asm_t_cmnt_set?8?0?5arg@ 00000001800874c0     idp.obj
 0002:00017500       ??_C@_0DJ@DEHMPMOD@in?5method?5?8asm_t_cmnt_get?8?0?5arg@ 0000000180087500     idp.obj
 0002:00017540       ??_C@_0DL@HIJAH@in?5method?5?8asm_t_ascsep_set?8?0?5a@ 0000000180087540     idp.obj
 0002:00017580       ??_C@_0DI@BEAPDAOO@in?5method?5?8asm_t_ascsep_set?8?0?5a@ 0000000180087580     idp.obj
 0002:000175b8       ??_C@_0DL@MHGHJOOO@in?5method?5?8asm_t_ascsep_get?8?0?5a@ 00000001800875b8     idp.obj
 0002:000175f8       ??_C@_0DL@FKPGLBBP@in?5method?5?8asm_t_accsep_set?8?0?5a@ 00000001800875f8     idp.obj
 0002:00017638       ??_C@_0DI@KBLNMDID@in?5method?5?8asm_t_accsep_set?8?0?5a@ 0000000180087638     idp.obj
 0002:00017670       ??_C@_0DL@JNJGKGPG@in?5method?5?8asm_t_accsep_get?8?0?5a@ 0000000180087670     idp.obj
 0002:000176b0       ??_C@_0DN@FHFMGAOD@in?5method?5?8asm_t_esccodes_set?8?0@ 00000001800876b0     idp.obj
 0002:000176f0       ??_C@_0EC@CCIGLAED@in?5method?5?8asm_t_esccodes_set?8?0@ 00000001800876f0     idp.obj
 0002:00017738       ??_C@_0DN@JADMHHAK@in?5method?5?8asm_t_esccodes_get?8?0@ 0000000180087738     idp.obj
 0002:00017778       ??_C@_0DM@CHAKKLCM@in?5method?5?8asm_t_a_ascii_set?8?0?5@ 0000000180087778     idp.obj
 0002:000177c0       ??_C@_0EB@KPIBINLK@in?5method?5?8asm_t_a_ascii_set?8?0?5@ 00000001800877c0     idp.obj
 0002:00017808       ??_C@_0DM@OAGKLMMF@in?5method?5?8asm_t_a_ascii_get?8?0?5@ 0000000180087808     idp.obj
 0002:00017848       ??_C@_0DL@BBAJOKDB@in?5method?5?8asm_t_a_byte_set?8?0?5a@ 0000000180087848     idp.obj
 0002:00017890       ??_C@_0EA@JPADMOPN@in?5method?5?8asm_t_a_byte_set?8?0?5a@ 0000000180087890     idp.obj
 0002:000178d0       ??_C@_0DL@NGGJPNNI@in?5method?5?8asm_t_a_byte_get?8?0?5a@ 00000001800878d0     idp.obj
 0002:00017910       ??_C@_0DL@MOPKLPCH@in?5method?5?8asm_t_a_word_set?8?0?5a@ 0000000180087910     idp.obj
 0002:00017950       ??_C@_0EA@DNFCEHBG@in?5method?5?8asm_t_a_word_set?8?0?5a@ 0000000180087950     idp.obj
 0002:00017990       ??_C@_0DL@JJKKIMO@in?5method?5?8asm_t_a_word_get?8?0?5a@ 0000000180087990     idp.obj
 0002:000179d0       ??_C@_0DM@IMJAKMHI@in?5method?5?8asm_t_a_dword_set?8?0?5@ 00000001800879d0     idp.obj
 0002:00017a10       ??_C@_0EB@ECLCIEAM@in?5method?5?8asm_t_a_dword_set?8?0?5@ 0000000180087a10     idp.obj
 0002:00017a58       ??_C@_0DM@ELPALLJB@in?5method?5?8asm_t_a_dword_get?8?0?5@ 0000000180087a58     idp.obj
 0002:00017a98       ??_C@_0DM@CIMKEKMH@in?5method?5?8asm_t_a_qword_set?8?0?5@ 0000000180087a98     idp.obj
 0002:00017ae0       ??_C@_0EB@IIHBNHKG@in?5method?5?8asm_t_a_qword_set?8?0?5@ 0000000180087ae0     idp.obj
 0002:00017b28       ??_C@_0DM@OPKKFNCO@in?5method?5?8asm_t_a_qword_get?8?0?5@ 0000000180087b28     idp.obj
 0002:00017b68       ??_C@_0DM@ECKBIHNG@in?5method?5?8asm_t_a_oword_set?8?0?5@ 0000000180087b68     idp.obj
 0002:00017bb0       ??_C@_0EB@IKEGPIKD@in?5method?5?8asm_t_a_oword_set?8?0?5@ 0000000180087bb0     idp.obj
 0002:00017bf8       ??_C@_0DM@IFMBJADP@in?5method?5?8asm_t_a_oword_get?8?0?5@ 0000000180087bf8     idp.obj
 0002:00017c38       ??_C@_0DM@LJIABGEF@in?5method?5?8asm_t_a_float_set?8?0?5@ 0000000180087c38     idp.obj
 0002:00017c80       ??_C@_0EB@NHNLDHAD@in?5method?5?8asm_t_a_float_set?8?0?5@ 0000000180087c80     idp.obj
 0002:00017cc8       ??_C@_0DM@HOOAABKM@in?5method?5?8asm_t_a_float_get?8?0?5@ 0000000180087cc8     idp.obj
 0002:00017d08       ??_C@_0DN@JDDLOJIC@in?5method?5?8asm_t_a_double_set?8?0@ 0000000180087d08     idp.obj
 0002:00017d50       ??_C@_0EC@PEILNIOA@in?5method?5?8asm_t_a_double_set?8?0@ 0000000180087d50     idp.obj
 0002:00017d98       ??_C@_0DN@FEFLPOGL@in?5method?5?8asm_t_a_double_get?8?0@ 0000000180087d98     idp.obj
 0002:00017dd8       ??_C@_0DM@JJCMBHG@in?5method?5?8asm_t_a_tbyte_set?8?0?5@ 0000000180087dd8     idp.obj
 0002:00017e20       ??_C@_0EB@HBLOKNND@in?5method?5?8asm_t_a_tbyte_set?8?0?5@ 0000000180087e20     idp.obj
 0002:00017e68       ??_C@_0DM@MOPCNGJP@in?5method?5?8asm_t_a_tbyte_get?8?0?5@ 0000000180087e68     idp.obj
 0002:00017ea8       ??_C@_0DP@FEFNBGJC@in?5method?5?8asm_t_a_packreal_set@ 0000000180087ea8     idp.obj
 0002:00017ef0       ??_C@_0EE@ICIPLPII@in?5method?5?8asm_t_a_packreal_set@ 0000000180087ef0     idp.obj
 0002:00017f38       ??_C@_0DP@JDDNABHL@in?5method?5?8asm_t_a_packreal_get@ 0000000180087f38     idp.obj
 0002:00017f78       ??_C@_0DL@DBLACLHJ@in?5method?5?8asm_t_a_dups_set?8?0?5a@ 0000000180087f78     idp.obj
 0002:00017fc0       ??_C@_0EA@GGHKLFCL@in?5method?5?8asm_t_a_dups_set?8?0?5a@ 0000000180087fc0     idp.obj
 0002:00018000       ??_C@_0DL@PGNADMJA@in?5method?5?8asm_t_a_dups_get?8?0?5a@ 0000000180088000     idp.obj
 0002:00018040       ??_C@_0DK@KFKLIDDP@in?5method?5?8asm_t_a_bss_set?8?0?5ar@ 0000000180088040     idp.obj
 0002:00018080       ??_C@_0DP@DMEICKKH@in?5method?5?8asm_t_a_bss_set?8?0?5ar@ 0000000180088080     idp.obj
 0002:000180c0       ??_C@_0DK@GCMLJENG@in?5method?5?8asm_t_a_bss_get?8?0?5ar@ 00000001800880c0     idp.obj
 0002:00018100       ??_C@_0DK@ODMHDEGE@in?5method?5?8asm_t_a_equ_set?8?0?5ar@ 0000000180088100     idp.obj
 0002:00018140       ??_C@_0DP@BEMAHIJJ@in?5method?5?8asm_t_a_equ_set?8?0?5ar@ 0000000180088140     idp.obj
 0002:00018180       ??_C@_0DK@CEKHCDIN@in?5method?5?8asm_t_a_equ_get?8?0?5ar@ 0000000180088180     idp.obj
 0002:000181c0       ??_C@_0DK@PKJJNOCB@in?5method?5?8asm_t_a_seg_set?8?0?5ar@ 00000001800881c0     idp.obj
 0002:00018200       ??_C@_0DP@MADDKEFO@in?5method?5?8asm_t_a_seg_set?8?0?5ar@ 0000000180088200     idp.obj
 0002:00018240       ??_C@_0DK@DNPJMJMI@in?5method?5?8asm_t_a_seg_get?8?0?5ar@ 0000000180088240     idp.obj
 0002:00018280       ??_C@_0DM@DKHIKPFM@in?5method?5?8asm_t_a_curip_set?8?0?5@ 0000000180088280     idp.obj
 0002:000182c0       ??_C@_0EB@HBCICKAA@in?5method?5?8asm_t_a_curip_set?8?0?5@ 00000001800882c0     idp.obj
 0002:00018308       ??_C@_0DM@PNBILILF@in?5method?5?8asm_t_a_curip_get?8?0?5@ 0000000180088308     idp.obj
 0002:00018348       ??_C@_0DN@BMBDPMHM@in?5method?5?8asm_t_a_public_set?8?0@ 0000000180088348     idp.obj
 0002:00018390       ??_C@_0EC@OOANACKN@in?5method?5?8asm_t_a_public_set?8?0@ 0000000180088390     idp.obj
 0002:000183d8       ??_C@_0DN@NLHDOLJF@in?5method?5?8asm_t_a_public_get?8?0@ 00000001800883d8     idp.obj
 0002:00018418       ??_C@_0DL@FKPNMIFF@in?5method?5?8asm_t_a_weak_set?8?0?5a@ 0000000180088418     idp.obj
 0002:00018460       ??_C@_0EA@FIMKDFAH@in?5method?5?8asm_t_a_weak_set?8?0?5a@ 0000000180088460     idp.obj
 0002:000184a0       ??_C@_0DL@JNJNNPLM@in?5method?5?8asm_t_a_weak_get?8?0?5a@ 00000001800884a0     idp.obj
 0002:000184e0       ??_C@_0DM@BLAICPBG@in?5method?5?8asm_t_a_extrn_set?8?0?5@ 00000001800884e0     idp.obj
 0002:00018520       ??_C@_0EB@FGFMKBGA@in?5method?5?8asm_t_a_extrn_set?8?0?5@ 0000000180088520     idp.obj
 0002:00018568       ??_C@_0DM@NMGIDIPP@in?5method?5?8asm_t_a_extrn_get?8?0?5@ 0000000180088568     idp.obj
 0002:000185a8       ??_C@_0DN@NACOPOCI@in?5method?5?8asm_t_a_comdef_set?8?0@ 00000001800885a8     idp.obj
 0002:000185f0       ??_C@_0EC@MCGLENKM@in?5method?5?8asm_t_a_comdef_set?8?0@ 00000001800885f0     idp.obj
 0002:00018638       ??_C@_0DN@BHEOOJMB@in?5method?5?8asm_t_a_comdef_get?8?0@ 0000000180088638     idp.obj
 0002:00018678       ??_C@_0DM@MPOJAJCE@in?5method?5?8asm_t_a_align_set?8?0?5@ 0000000180088678     idp.obj
 0002:000186c0       ??_C@_0EB@EFJAAAOI@in?5method?5?8asm_t_a_align_set?8?0?5@ 00000001800886c0     idp.obj
 0002:00018708       ??_C@_0DM@IIJBOMN@in?5method?5?8asm_t_a_align_get?8?0?5@ 0000000180088708     idp.obj
 0002:00018748       ??_C@_0DL@BBHOLMLC@in?5method?5?8asm_t_lbrace_set?8?0?5a@ 0000000180088748     idp.obj
 0002:00018788       ??_C@_0DI@DHMFLKAN@in?5method?5?8asm_t_lbrace_set?8?0?5a@ 0000000180088788     idp.obj
 0002:000187c0       ??_C@_0DL@NGBOKLFL@in?5method?5?8asm_t_lbrace_get?8?0?5a@ 00000001800887c0     idp.obj
 0002:00018800       ??_C@_0DL@HLKEPHIN@in?5method?5?8asm_t_rbrace_set?8?0?5a@ 0000000180088800     idp.obj
 0002:00018840       ??_C@_0DI@GBOPHNCH@in?5method?5?8asm_t_rbrace_set?8?0?5a@ 0000000180088840     idp.obj
 0002:00018878       ??_C@_0DL@LMMEOAGE@in?5method?5?8asm_t_rbrace_get?8?0?5a@ 0000000180088878     idp.obj
 0002:000188b8       ??_C@_0DK@IBNDCBHI@in?5method?5?8asm_t_a_mod_set?8?0?5ar@ 00000001800888b8     idp.obj
 0002:000188f8       ??_C@_0DP@JKPDKHDO@in?5method?5?8asm_t_a_mod_set?8?0?5ar@ 00000001800888f8     idp.obj
 0002:00018938       ??_C@_0DK@EGLDDGJB@in?5method?5?8asm_t_a_mod_get?8?0?5ar@ 0000000180088938     idp.obj
 0002:00018978       ??_C@_0DL@HJCHPBMN@in?5method?5?8asm_t_a_band_set?8?0?5a@ 0000000180088978     idp.obj
 0002:000189c0       ??_C@_0EA@KCICJHK@in?5method?5?8asm_t_a_band_set?8?0?5a@ 00000001800889c0     idp.obj
 0002:00018a00       ??_C@_0DL@LOEHOGCE@in?5method?5?8asm_t_a_band_get?8?0?5a@ 0000000180088a00     idp.obj
 0002:00018a40       ??_C@_0DK@HMDIGAJA@in?5method?5?8asm_t_a_bor_set?8?0?5ar@ 0000000180088a40     idp.obj
 0002:00018a80       ??_C@_0DP@KFFKLEMJ@in?5method?5?8asm_t_a_bor_set?8?0?5ar@ 0000000180088a80     idp.obj
 0002:00018ac0       ??_C@_0DK@LLFIHHHJ@in?5method?5?8asm_t_a_bor_get?8?0?5ar@ 0000000180088ac0     idp.obj
 0002:00018b00       ??_C@_0DK@MLEHIPFP@in?5method?5?8asm_t_a_xor_set?8?0?5ar@ 0000000180088b00     idp.obj
 0002:00018b40       ??_C@_0DP@LECKINLP@in?5method?5?8asm_t_a_xor_set?8?0?5ar@ 0000000180088b40     idp.obj
 0002:00018b80       ??_C@_0DK@MCHJILG@in?5method?5?8asm_t_a_xor_get?8?0?5ar@ 0000000180088b80     idp.obj
 0002:00018bc0       ??_C@_0DL@LNIGDDAH@in?5method?5?8asm_t_a_bnot_set?8?0?5a@ 0000000180088bc0     idp.obj
 0002:00018c00       ??_C@_0EA@COFNKJA@in?5method?5?8asm_t_a_bnot_set?8?0?5a@ 0000000180088c00     idp.obj
 0002:00018c40       ??_C@_0DL@HKOGCEOO@in?5method?5?8asm_t_a_bnot_get?8?0?5a@ 0000000180088c40     idp.obj
 0002:00018c80       ??_C@_0DK@BNAHLGAA@in?5method?5?8asm_t_a_shl_set?8?0?5ar@ 0000000180088c80     idp.obj
 0002:00018cc0       ??_C@_0DP@CELCINNH@in?5method?5?8asm_t_a_shl_set?8?0?5ar@ 0000000180088cc0     idp.obj
 0002:00018d00       ??_C@_0DK@NKGHKBOJ@in?5method?5?8asm_t_a_shl_get?8?0?5ar@ 0000000180088d00     idp.obj
 0002:00018d40       ??_C@_0DK@BHFPDJAD@in?5method?5?8asm_t_a_shr_set?8?0?5ar@ 0000000180088d40     idp.obj
 0002:00018d80       ??_C@_0DP@EOGIMGOI@in?5method?5?8asm_t_a_shr_set?8?0?5ar@ 0000000180088d80     idp.obj
 0002:00018dc0       ??_C@_0DK@NADPCOOK@in?5method?5?8asm_t_a_shr_get?8?0?5ar@ 0000000180088dc0     idp.obj
 0002:00018e00       ??_C@_0EB@FECCHODA@in?5method?5?8asm_t_a_sizeof_fmt_s@ 0000000180088e00     idp.obj
 0002:00018e50       ??_C@_0EG@CJFHIDPP@in?5method?5?8asm_t_a_sizeof_fmt_s@ 0000000180088e50     idp.obj
 0002:00018ea0       ??_C@_0EB@JDECGJNJ@in?5method?5?8asm_t_a_sizeof_fmt_g@ 0000000180088ea0     idp.obj
 0002:00018ee8       ??_C@_0DK@FCFDLJCH@in?5method?5?8asm_t_flag2_set?8?0?5ar@ 0000000180088ee8     idp.obj
 0002:00018f28       ??_C@_0DJ@JKBCNLEM@in?5method?5?8asm_t_flag2_set?8?0?5ar@ 0000000180088f28     idp.obj
 0002:00018f68       ??_C@_0DK@JFDDKOMO@in?5method?5?8asm_t_flag2_get?8?0?5ar@ 0000000180088f68     idp.obj
 0002:00018fa8       ??_C@_0DK@NAPDGFFI@in?5method?5?8asm_t_cmnt2_set?8?0?5ar@ 0000000180088fa8     idp.obj
 0002:00018fe8       ??_C@_0DP@NEKJGNKF@in?5method?5?8asm_t_cmnt2_set?8?0?5ar@ 0000000180088fe8     idp.obj
 0002:00019028       ??_C@_0DK@BHJDHCLB@in?5method?5?8asm_t_cmnt2_get?8?0?5ar@ 0000000180089028     idp.obj
 0002:00019068       ??_C@_0DJ@IAGOPFJN@in?5method?5?8asm_t_low8_set?8?0?5arg@ 0000000180089068     idp.obj
 0002:000190a8       ??_C@_0DO@HGMJNFN@in?5method?5?8asm_t_low8_set?8?0?5arg@ 00000001800890a8     idp.obj
 0002:000190e8       ??_C@_0DJ@EHAOOCHE@in?5method?5?8asm_t_low8_get?8?0?5arg@ 00000001800890e8     idp.obj
 0002:00019128       ??_C@_0DK@MGEFCALK@in?5method?5?8asm_t_high8_set?8?0?5ar@ 0000000180089128     idp.obj
 0002:00019168       ??_C@_0DP@PHDMGGGA@in?5method?5?8asm_t_high8_set?8?0?5ar@ 0000000180089168     idp.obj
 0002:000191a8       ??_C@_0DK@BCFDHFD@in?5method?5?8asm_t_high8_get?8?0?5ar@ 00000001800891a8     idp.obj
 0002:000191e8       ??_C@_0DK@OKFBEAGK@in?5method?5?8asm_t_low16_set?8?0?5ar@ 00000001800891e8     idp.obj
 0002:00019228       ??_C@_0DP@GHPBIODI@in?5method?5?8asm_t_low16_set?8?0?5ar@ 0000000180089228     idp.obj
 0002:00019268       ??_C@_0DK@CNDBFHID@in?5method?5?8asm_t_low16_get?8?0?5ar@ 0000000180089268     idp.obj
 0002:000192a8       ??_C@_0DL@EPBNNONE@in?5method?5?8asm_t_high16_set?8?0?5a@ 00000001800892a8     idp.obj
 0002:000192f0       ??_C@_0EA@DPGJJCNC@in?5method?5?8asm_t_high16_set?8?0?5a@ 00000001800892f0     idp.obj
 0002:00019330       ??_C@_0DL@IIHNMJDN@in?5method?5?8asm_t_high16_get?8?0?5a@ 0000000180089330     idp.obj
 0002:00019370       ??_C@_0EC@KDPPLKC@in?5method?5?8asm_t_a_include_fmt_@ 0000000180089370     idp.obj
 0002:000193c0       ??_C@_0EH@GINAPBHP@in?5method?5?8asm_t_a_include_fmt_@ 00000001800893c0     idp.obj
 0002:00019410       ??_C@_0EC@MNFPOMEL@in?5method?5?8asm_t_a_include_fmt_@ 0000000180089410     idp.obj
 0002:00019460       ??_C@_0EB@BJBMENPG@in?5method?5?8asm_t_a_vstruc_fmt_s@ 0000000180089460     idp.obj
 0002:000194b0       ??_C@_0EG@MGLODABJ@in?5method?5?8asm_t_a_vstruc_fmt_s@ 00000001800894b0     idp.obj
 0002:00019500       ??_C@_0EB@NOHMFKBP@in?5method?5?8asm_t_a_vstruc_fmt_g@ 0000000180089500     idp.obj
 0002:00019548       ??_C@_0DK@PIIIFIEC@in?5method?5?8asm_t_a_rva_set?8?0?5ar@ 0000000180089548     idp.obj
 0002:00019588       ??_C@_0DP@PJEBOLOB@in?5method?5?8asm_t_a_rva_set?8?0?5ar@ 0000000180089588     idp.obj
 0002:000195c8       ??_C@_0DK@DPOIEPKL@in?5method?5?8asm_t_a_rva_get?8?0?5ar@ 00000001800895c8     idp.obj
 0002:00019608       ??_C@_0DM@FLCNGML@in?5method?5?8asm_t_a_yword_set?8?0?5@ 0000000180089608     idp.obj
 0002:00019650       ??_C@_0EB@MANPAHLM@in?5method?5?8asm_t_a_yword_set?8?0?5@ 0000000180089650     idp.obj
 0002:00019698       ??_C@_0DM@MCNCMBCC@in?5method?5?8asm_t_a_yword_get?8?0?5@ 0000000180089698     idp.obj
 0002:000196d8       ??_C@_0DH@NPIJGNBM@in?5method?5?8delete_asm_t?8?0?5argum@ 00000001800896d8     idp.obj
 0002:00019710       ??_C@_0N@JBELKAOG@swigregister@ 0000000180089710     idp.obj
 0002:00019720       ??_C@_0CC@KIEKJACB@in?5variable?5?8ash?8?5of?5type?5?8asm_@ 0000000180089720     idp.obj
 0002:00019748       ??_C@_0DJ@DDNEONPN@invalid?5null?5reference?5in?5varia@ 0000000180089748     idp.obj
 0002:00019788       ??_C@_0DH@IPJMJAFH@in?5method?5?8str2reg?8?0?5argument?51@ 0000000180089788     idp.obj
 0002:000197c0       ??_C@_0DF@DIJLPNPK@in?5method?5?8is_align_insn?8?0?5argu@ 00000001800897c0     idp.obj
 0002:000197f8       ??_C@_0DD@CNFNEJAJ@in?5method?5?8get_reg_name?8?0?5argum@ 00000001800897f8     idp.obj
 0002:00019830       ??_C@_0DG@MGOEHGNG@in?5method?5?8get_reg_name?8?0?5argum@ 0000000180089830     idp.obj
 0002:00019868       ??_C@_0DD@HOMMCAON@in?5method?5?8get_reg_name?8?0?5argum@ 0000000180089868     idp.obj
 0002:000198a0       ??_C@_0DM@EHOOLCOB@in?5method?5?8get_reg_info?8?0?5argum@ 00000001800898a0     idp.obj
 0002:000198e0       ??_C@_0DM@IHJKKHGG@in?5method?5?8get_reg_info?8?0?5argum@ 00000001800898e0     idp.obj
 0002:00019920       ??_C@_0EC@DLDKNOKK@in?5method?5?8reg_info_t_reg_set?8?0@ 0000000180089920     idp.obj
 0002:00019968       ??_C@_0DJ@CNBIBOIG@in?5method?5?8reg_info_t_reg_set?8?0@ 0000000180089968     idp.obj
 0002:000199b0       ??_C@_0EC@BPFMJOIL@in?5method?5?8reg_info_t_reg_get?8?0@ 00000001800899b0     idp.obj
 0002:00019a00       ??_C@_0ED@BALOLELP@in?5method?5?8reg_info_t_size_set?8@ 0000000180089a00     idp.obj
 0002:00019a48       ??_C@_0DK@NACNAPII@in?5method?5?8reg_info_t_size_set?8@ 0000000180089a48     idp.obj
 0002:00019a90       ??_C@_0ED@DENIPEJO@in?5method?5?8reg_info_t_size_get?8@ 0000000180089a90     idp.obj
 0002:00019ae0       ??_C@_0EH@FIJOHLLD@in?5method?5?8reg_info_t___eq__?8?0?5@ 0000000180089ae0     idp.obj
 0002:00019b30       ??_C@_0EH@ECKMLLKE@in?5method?5?8reg_info_t___eq__?8?0?5@ 0000000180089b30     idp.obj
 0002:00019b80       ??_C@_0FO@GKILIAIL@invalid?5null?5reference?5in?5metho@ 0000000180089b80     idp.obj
 0002:00019be0       ??_C@_0EH@KLDFPJIP@in?5method?5?8reg_info_t___ne__?8?0?5@ 0000000180089be0     idp.obj
 0002:00019c30       ??_C@_0EH@LBAHDJJI@in?5method?5?8reg_info_t___ne__?8?0?5@ 0000000180089c30     idp.obj
 0002:00019c80       ??_C@_0FO@JJCAACLH@invalid?5null?5reference?5in?5metho@ 0000000180089c80     idp.obj
 0002:00019ce0       ??_C@_0EH@JHFDNEOC@in?5method?5?8reg_info_t___lt__?8?0?5@ 0000000180089ce0     idp.obj
 0002:00019d30       ??_C@_0EH@INGBBEPF@in?5method?5?8reg_info_t___lt__?8?0?5@ 0000000180089d30     idp.obj
 0002:00019d80       ??_C@_0FO@KFEGCPNK@invalid?5null?5reference?5in?5metho@ 0000000180089d80     idp.obj
 0002:00019de0       ??_C@_0EH@NBPCJOOH@in?5method?5?8reg_info_t___gt__?8?0?5@ 0000000180089de0     idp.obj
 0002:00019e30       ??_C@_0EH@MLMAFOPA@in?5method?5?8reg_info_t___gt__?8?0?5@ 0000000180089e30     idp.obj
 0002:00019e80       ??_C@_0FO@ODOHGFNP@invalid?5null?5reference?5in?5metho@ 0000000180089e80     idp.obj
 0002:00019ee0       ??_C@_0EH@HJMHOPEF@in?5method?5?8reg_info_t___le__?8?0?5@ 0000000180089ee0     idp.obj
 0002:00019f30       ??_C@_0EH@GDPFCPFC@in?5method?5?8reg_info_t___le__?8?0?5@ 0000000180089f30     idp.obj
 0002:00019f80       ??_C@_0FO@ELNCBEHN@invalid?5null?5reference?5in?5metho@ 0000000180089f80     idp.obj
 0002:00019fe0       ??_C@_0EH@DPGGKFEA@in?5method?5?8reg_info_t___ge__?8?0?5@ 0000000180089fe0     idp.obj
 0002:0001a030       ??_C@_0EH@CFFEGFFH@in?5method?5?8reg_info_t___ge__?8?0?5@ 000000018008a030     idp.obj
 0002:0001a080       ??_C@_0FO@NHDFOHI@invalid?5null?5reference?5in?5metho@ 000000018008a080     idp.obj
 0002:0001a0e0       ??_C@_0DN@OIHPKEMA@in?5method?5?8compare?8?0?5argument?51@ 000000018008a0e0     idp.obj
 0002:0001a120       ??_C@_0FE@FKIMCODG@invalid?5null?5reference?5in?5metho@ 000000018008a120     idp.obj
 0002:0001a178       ??_C@_0DN@PLFHJNLD@in?5method?5?8compare?8?0?5argument?52@ 000000018008a178     idp.obj
 0002:0001a1c0       ??_C@_0FE@EJKEBHEF@invalid?5null?5reference?5in?5metho@ 000000018008a1c0     idp.obj
 0002:0001a220       ??_C@_0BDN@ONBGJIFK@Wrong?5number?5or?5type?5of?5argumen@ 000000018008a220     idp.obj
 0002:0001a360       ??_C@_0EI@DDAABMDI@in?5method?5?8reg_info_t_compare?8?0@ 000000018008a360     idp.obj
 0002:0001a3b0       ??_C@_0EI@CJDCNMCP@in?5method?5?8reg_info_t_compare?8?0@ 000000018008a3b0     idp.obj
 0002:0001a400       ??_C@_0FP@ICMLMGEN@invalid?5null?5reference?5in?5metho@ 000000018008a400     idp.obj
 0002:0001a460       ??_C@_0EB@OLMOJMMI@in?5method?5?8delete_reg_info_t?8?0?5@ 000000018008a460     idp.obj
 0002:0001a4a8       ??_C@_0DO@OGAMJMCO@in?5method?5?8parse_reg_name?8?0?5arg@ 000000018008a4a8     idp.obj
 0002:0001a4e8       ??_C@_0DO@JHPDOOMG@in?5method?5?8parse_reg_name?8?0?5arg@ 000000018008a4e8     idp.obj
 0002:0001a530       ??_C@_0EC@DKKLJKHE@in?5method?5?8set_processor_type?8?0@ 000000018008a530     idp.obj
 0002:0001a580       ??_C@_0EF@LKPIIJDC@in?5method?5?8set_processor_type?8?0@ 000000018008a580     idp.obj
 0002:0001a5c8       ??_C@_0DL@COHLGGCA@in?5method?5?8set_target_assembler@ 000000018008a5c8     idp.obj
 0002:0001a608       ??_C@_0DJ@BHGKPHBP@in?5method?5?8delay_slot_insn?8?0?5ar@ 000000018008a608     idp.obj
 0002:0001a648       ??_C@_0DJ@LKCMNIBM@in?5method?5?8delay_slot_insn?8?0?5ar@ 000000018008a648     idp.obj
 0002:0001a688       ??_C@_0DJ@GNMOFIEE@in?5method?5?8delay_slot_insn?8?0?5ar@ 000000018008a688     idp.obj
 0002:0001a6d0       ??_C@_0EI@MIANKCHL@in?5method?5?8gen_idb_event?8?0?5argu@ 000000018008a6d0     idp.obj
 0002:0001a718       ??_C@_0DJ@OPNKMCNK@in?5method?5?8cfg_get_cc_parm?8?0?5ar@ 000000018008a718     idp.obj
 0002:0001a758       ??_C@_0DP@POAEPGJJ@in?5method?5?8cfg_get_cc_parm?8?0?5ar@ 000000018008a758     idp.obj
 0002:0001a7a0       ??_C@_0EA@FPGPBCME@in?5method?5?8cfg_get_cc_header_pa@ 000000018008a7a0     idp.obj
 0002:0001a7e0       ??_C@_0EG@INNCFOOP@in?5method?5?8cfg_get_cc_predefine@ 000000018008a7e0     idp.obj
 0002:0001a828       ??_C@_0DA@ODEKJKOH@in?5method?5?8assemble?8?0?5argument?5@ 000000018008a828     idp.obj
 0002:0001a858       ??_C@_0DA@LANAMBGD@in?5method?5?8assemble?8?0?5argument?5@ 000000018008a858     idp.obj
 0002:0001a888       ??_C@_0DA@DHHGAKCA@in?5method?5?8assemble?8?0?5argument?5@ 000000018008a888     idp.obj
 0002:0001a8b8       ??_C@_0DA@FHMPPCNL@in?5method?5?8assemble?8?0?5argument?5@ 000000018008a8b8     idp.obj
 0002:0001a8e8       ??_C@_0DI@JOEHBEJ@in?5method?5?8assemble?8?0?5argument?5@ 000000018008a8e8     idp.obj
 0002:0001a920       ??_C@_0DL@KCIEBALB@in?5method?5?8ph_get_operand_info?8@ 000000018008a920     idp.obj
 0002:0001a960       ??_C@_0DK@FHLOJIHL@in?5method?5?8ph_get_operand_info?8@ 000000018008a960     idp.obj
 0002:0001a9a0       ??_C@_0DC@GEHHCAIN@in?5method?5?8ph_calcrel?8?0?5argumen@ 000000018008a9a0     idp.obj
 0002:0001a9e0       ??_C@_0ED@IJPCCBJB@in?5method?5?8ph_find_reg_value?8?0?5@ 000000018008a9e0     idp.obj
 0002:0001aa30       ??_C@_0FK@ODGGOAJB@invalid?5null?5reference?5in?5metho@ 000000018008aa30     idp.obj
 0002:0001aa90       ??_C@_0DI@EGHKDHBH@in?5method?5?8ph_find_reg_value?8?0?5@ 000000018008aa90     idp.obj
 0002:0001aad0       ??_C@_0EC@ECMMII@in?5method?5?8ph_find_op_value?8?0?5a@ 000000018008aad0     idp.obj
 0002:0001ab20       ??_C@_0FJ@CEKDDOJJ@invalid?5null?5reference?5in?5metho@ 000000018008ab20     idp.obj
 0002:0001ab80       ??_C@_0DH@KNKLGCCM@in?5method?5?8ph_find_op_value?8?0?5a@ 000000018008ab80     idp.obj
 0002:0001abb8       ??_C@_0DP@GINGOFHH@in?5method?5?8delete_IDP_Hooks?8?0?5a@ 000000018008abb8     idp.obj
 0002:0001abf8       ??_C@_0DN@EGGALMED@in?5method?5?8IDP_Hooks_hook?8?0?5arg@ 000000018008abf8     idp.obj
 0002:0001ac38       ??_C@_0DP@LCOBDDJ@in?5method?5?8IDP_Hooks_unhook?8?0?5a@ 000000018008ac38     idp.obj
 0002:0001ac80       ??_C@_0EA@GDEPKIGE@in?5method?5?8IDP_Hooks_ev_init?8?0?5@ 000000018008ac80     idp.obj
 0002:0001acc0       ??_C@_0EB@INENIECC@in?5method?5?8IDP_Hooks_ev_init?8?0?5@ 000000018008acc0     idp.obj
 0002:0001ad10       ??_C@_0EA@CJAPFPMN@in?5method?5?8IDP_Hooks_ev_term?8?0?5@ 000000018008ad10     idp.obj
 0002:0001ad50       ??_C@_0EC@EHCFANCP@in?5method?5?8IDP_Hooks_ev_newprc?8@ 000000018008ad50     idp.obj
 0002:0001ad98       ??_C@_0DK@JBJGGBLI@in?5method?5?8IDP_Hooks_ev_newprc?8@ 000000018008ad98     idp.obj
 0002:0001add8       ??_C@_0DL@DEDILPDF@in?5method?5?8IDP_Hooks_ev_newprc?8@ 000000018008add8     idp.obj
 0002:0001ae20       ??_C@_0EC@NPPGIHMM@in?5method?5?8IDP_Hooks_ev_newasm?8@ 000000018008ae20     idp.obj
 0002:0001ae68       ??_C@_0DK@HCNCPCEK@in?5method?5?8IDP_Hooks_ev_newasm?8@ 000000018008ae68     idp.obj
 0002:0001aeb0       ??_C@_0ED@PNIINNOE@in?5method?5?8IDP_Hooks_ev_newfile@ 000000018008aeb0     idp.obj
 0002:0001aef8       ??_C@_0DO@GILFJDCA@in?5method?5?8IDP_Hooks_ev_newfile@ 000000018008aef8     idp.obj
 0002:0001af40       ??_C@_0ED@KLIBBEPM@in?5method?5?8IDP_Hooks_ev_oldfile@ 000000018008af40     idp.obj
 0002:0001af88       ??_C@_0DO@DMMKMNAB@in?5method?5?8IDP_Hooks_ev_oldfile@ 000000018008af88     idp.obj
 0002:0001afd0       ??_C@_0EF@JANNDGKP@in?5method?5?8IDP_Hooks_ev_newbina@ 000000018008afd0     idp.obj
 0002:0001b020       ??_C@_0EA@KFIHJFON@in?5method?5?8IDP_Hooks_ev_newbina@ 000000018008b020     idp.obj
 0002:0001b060       ??_C@_0EC@HOIHDFE@in?5method?5?8IDP_Hooks_ev_newbina@ 000000018008b060     idp.obj
 0002:0001b0a8       ??_C@_0DO@NEHFEIGN@in?5method?5?8IDP_Hooks_ev_newbina@ 000000018008b0a8     idp.obj
 0002:0001b0e8       ??_C@_0DO@FDNDIDCO@in?5method?5?8IDP_Hooks_ev_newbina@ 000000018008b0e8     idp.obj
 0002:0001b128       ??_C@_0BI@CADBDEKD@Expected?5an?5uint64?5type@ 000000018008b128     idp.obj
 0002:0001b140       ??_C@_0EF@CEJFPFFB@in?5method?5?8IDP_Hooks_ev_endbina@ 000000018008b140     idp.obj
 0002:0001b188       ??_C@_0DO@MKIFAKJI@in?5method?5?8IDP_Hooks_ev_endbina@ 000000018008b188     idp.obj
 0002:0001b1d0       ??_C@_0EL@OIALHMON@in?5method?5?8IDP_Hooks_ev_set_idp@ 000000018008b1d0     idp.obj
 0002:0001b220       ??_C@_0EM@BJKCPLHC@in?5method?5?8IDP_Hooks_ev_set_idp@ 000000018008b220     idp.obj
 0002:0001b270       ??_C@_0ED@NLGAOLLA@in?5method?5?8IDP_Hooks_ev_set_idp@ 000000018008b270     idp.obj
 0002:0001b2c0       ??_C@_0EM@KNFELLPL@in?5method?5?8IDP_Hooks_ev_set_idp@ 000000018008b2c0     idp.obj
 0002:0001b310       ??_C@_0EN@LEMMOIPL@in?5method?5?8IDP_Hooks_ev_set_idp@ 000000018008b310     idp.obj
 0002:0001b360       ??_C@_0EM@FAIGBDKJ@in?5method?5?8IDP_Hooks_ev_set_pro@ 000000018008b360     idp.obj
 0002:0001b3b0       ??_C@_0EN@GIKLPDJE@in?5method?5?8IDP_Hooks_ev_set_pro@ 000000018008b3b0     idp.obj
 0002:0001b400       ??_C@_0EE@PLALIANC@in?5method?5?8IDP_Hooks_ev_set_pro@ 000000018008b400     idp.obj
 0002:0001b450       ??_C@_0EE@LEIPGNLF@in?5method?5?8IDP_Hooks_ev_ana_ins@ 000000018008b450     idp.obj
 0002:0001b4a0       ??_C@_0EB@BKMCBONG@in?5method?5?8IDP_Hooks_ev_ana_ins@ 000000018008b4a0     idp.obj
 0002:0001b4f0       ??_C@_0EE@CPFIOHCF@in?5method?5?8IDP_Hooks_ev_emu_ins@ 000000018008b4f0     idp.obj
 0002:0001b540       ??_C@_0EH@GPIDOFJG@in?5method?5?8IDP_Hooks_ev_emu_ins@ 000000018008b540     idp.obj
 0002:0001b590       ??_C@_0EG@OCELHND@in?5method?5?8IDP_Hooks_ev_out_hea@ 000000018008b590     idp.obj
 0002:0001b5e0       ??_C@_0EF@ELNLKPKN@in?5method?5?8IDP_Hooks_ev_out_hea@ 000000018008b5e0     idp.obj
 0002:0001b630       ??_C@_0EG@ENFCGBHE@in?5method?5?8IDP_Hooks_ev_out_foo@ 000000018008b630     idp.obj
 0002:0001b680       ??_C@_0EF@FEOEGCMF@in?5method?5?8IDP_Hooks_ev_out_foo@ 000000018008b680     idp.obj
 0002:0001b6d0       ??_C@_0EI@ENMFOGOE@in?5method?5?8IDP_Hooks_ev_out_seg@ 000000018008b6d0     idp.obj
 0002:0001b720       ??_C@_0EH@MDGDPCMF@in?5method?5?8IDP_Hooks_ev_out_seg@ 000000018008b720     idp.obj
 0002:0001b770       ??_C@_0EI@LABNAOBK@in?5method?5?8IDP_Hooks_ev_out_seg@ 000000018008b770     idp.obj
 0002:0001b7c0       ??_C@_0EG@BLDFNDEM@in?5method?5?8IDP_Hooks_ev_out_seg@ 000000018008b7c0     idp.obj
 0002:0001b810       ??_C@_0EF@IAJCHJPA@in?5method?5?8IDP_Hooks_ev_out_seg@ 000000018008b810     idp.obj
 0002:0001b860       ??_C@_0EG@OGONDLLC@in?5method?5?8IDP_Hooks_ev_out_seg@ 000000018008b860     idp.obj
 0002:0001b8b0       ??_C@_0EH@KHAGCCCG@in?5method?5?8IDP_Hooks_ev_out_ass@ 000000018008b8b0     idp.obj
 0002:0001b900       ??_C@_0EG@NFOAAJEB@in?5method?5?8IDP_Hooks_ev_out_ass@ 000000018008b900     idp.obj
 0002:0001b950       ??_C@_0EE@KPBEBBHD@in?5method?5?8IDP_Hooks_ev_out_ins@ 000000018008b950     idp.obj
 0002:0001b9a0       ??_C@_0ED@KKOOHBAM@in?5method?5?8IDP_Hooks_ev_out_ins@ 000000018008b9a0     idp.obj
 0002:0001b9f0       ??_C@_0EE@LJGJOGP@in?5method?5?8IDP_Hooks_ev_out_mne@ 000000018008b9f0     idp.obj
 0002:0001ba40       ??_C@_0ED@PJKFAAGK@in?5method?5?8IDP_Hooks_ev_out_mne@ 000000018008ba40     idp.obj
 0002:0001ba90       ??_C@_0EH@GKAPDGKC@in?5method?5?8IDP_Hooks_ev_out_ope@ 000000018008ba90     idp.obj
 0002:0001bae0       ??_C@_0EG@LPCBOLE@in?5method?5?8IDP_Hooks_ev_out_ope@ 000000018008bae0     idp.obj
 0002:0001bb30       ??_C@_0EI@ILJEPIPE@in?5method?5?8IDP_Hooks_ev_out_ope@ 000000018008bb30     idp.obj
 0002:0001bb80       ??_C@_0EE@HPHLBLAM@in?5method?5?8IDP_Hooks_ev_out_dat@ 000000018008bb80     idp.obj
 0002:0001bbd0       ??_C@_0ED@KFPCPJOJ@in?5method?5?8IDP_Hooks_ev_out_dat@ 000000018008bbd0     idp.obj
 0002:0001bc18       ??_C@_0DN@GAJHNAHN@in?5method?5?8IDP_Hooks_ev_out_dat@ 000000018008bc18     idp.obj
 0002:0001bc60       ??_C@_0EF@MDOJDIDF@in?5method?5?8IDP_Hooks_ev_out_lab@ 000000018008bc60     idp.obj
 0002:0001bcb0       ??_C@_0EE@FBFCNKFI@in?5method?5?8IDP_Hooks_ev_out_lab@ 000000018008bcb0     idp.obj
 0002:0001bd00       ??_C@_0EG@DEAKNDNO@in?5method?5?8IDP_Hooks_ev_out_lab@ 000000018008bd00     idp.obj
 0002:0001bd50       ??_C@_0EM@CDFLBCAK@in?5method?5?8IDP_Hooks_ev_out_spe@ 000000018008bd50     idp.obj
 0002:0001bda0       ??_C@_0EL@DGJBPLFC@in?5method?5?8IDP_Hooks_ev_out_spe@ 000000018008bda0     idp.obj
 0002:0001bdf0       ??_C@_0EG@CGONBHME@in?5method?5?8IDP_Hooks_ev_out_spe@ 000000018008bdf0     idp.obj
 0002:0001be40       ??_C@_0EK@BJKGJFOC@in?5method?5?8IDP_Hooks_ev_gen_stk@ 000000018008be40     idp.obj
 0002:0001be90       ??_C@_0EJ@HOEHNNDD@in?5method?5?8IDP_Hooks_ev_gen_stk@ 000000018008be90     idp.obj
 0002:0001bee0       ??_C@_0EP@EOJCMMK@in?5method?5?8IDP_Hooks_ev_gen_stk@ 000000018008bee0     idp.obj
 0002:0001bf30       ??_C@_0EF@FDMKDFGA@in?5method?5?8IDP_Hooks_ev_gen_stk@ 000000018008bf30     idp.obj
 0002:0001bf80       ??_C@_0EK@NOKFKBKK@in?5method?5?8IDP_Hooks_ev_gen_reg@ 000000018008bf80     idp.obj
 0002:0001bfd0       ??_C@_0EJ@KKNLCBEI@in?5method?5?8IDP_Hooks_ev_gen_reg@ 000000018008bfd0     idp.obj
 0002:0001c020       ??_C@_0EJ@LHAMLOJB@in?5method?5?8IDP_Hooks_ev_gen_reg@ 000000018008c020     idp.obj
 0002:0001c070       ??_C@_0EO@FHGAJKFB@in?5method?5?8IDP_Hooks_ev_gen_src@ 000000018008c070     idp.obj
 0002:0001c0c0       ??_C@_0EJ@MDEBEEEF@in?5method?5?8IDP_Hooks_ev_creatin@ 000000018008c0c0     idp.obj
 0002:0001c110       ??_C@_0EJ@LPLMMJJM@in?5method?5?8IDP_Hooks_ev_creatin@ 000000018008c110     idp.obj
 0002:0001c160       ??_C@_0EH@BAIAMKJM@in?5method?5?8IDP_Hooks_ev_moving_@ 000000018008c160     idp.obj
 0002:0001c1b0       ??_C@_0EH@GMHNEHEF@in?5method?5?8IDP_Hooks_ev_moving_@ 000000018008c1b0     idp.obj
 0002:0001c200       ??_C@_0EA@PIJJLFOP@in?5method?5?8IDP_Hooks_ev_moving_@ 000000018008c200     idp.obj
 0002:0001c240       ??_C@_0DP@JLPFJBAC@in?5method?5?8IDP_Hooks_ev_moving_@ 000000018008c240     idp.obj
 0002:0001c280       ??_C@_0EF@BGJOOJLF@in?5method?5?8IDP_Hooks_ev_coagula@ 000000018008c280     idp.obj
 0002:0001c2c8       ??_C@_0DO@MBNKHODI@in?5method?5?8IDP_Hooks_ev_coagula@ 000000018008c2c8     idp.obj
 0002:0001c310       ??_C@_0EE@LCOKLDJG@in?5method?5?8IDP_Hooks_ev_undefin@ 000000018008c310     idp.obj
 0002:0001c358       ??_C@_0DN@FKKLCOCF@in?5method?5?8IDP_Hooks_ev_undefin@ 000000018008c358     idp.obj
 0002:0001c3a0       ??_C@_0FA@PKJHDBKC@in?5method?5?8IDP_Hooks_ev_treat_h@ 000000018008c3a0     idp.obj
 0002:0001c3f0       ??_C@_0EJ@OMJLAHNM@in?5method?5?8IDP_Hooks_ev_treat_h@ 000000018008c3f0     idp.obj
 0002:0001c440       ??_C@_0EM@MBDOKIMN@in?5method?5?8IDP_Hooks_ev_treat_h@ 000000018008c440     idp.obj
 0002:0001c490       ??_C@_0EJ@ELKPLANE@in?5method?5?8IDP_Hooks_ev_treat_h@ 000000018008c490     idp.obj
 0002:0001c4e0       ??_C@_0EM@OHOAEGFG@in?5method?5?8IDP_Hooks_ev_treat_h@ 000000018008c4e0     idp.obj
 0002:0001c530       ??_C@_0EC@EIFLHHGD@in?5method?5?8IDP_Hooks_ev_rename?8@ 000000018008c530     idp.obj
 0002:0001c578       ??_C@_0DL@KJHLCEGO@in?5method?5?8IDP_Hooks_ev_rename?8@ 000000018008c578     idp.obj
 0002:0001c5c0       ??_C@_0ED@LGIJJFFA@in?5method?5?8IDP_Hooks_ev_rename?8@ 000000018008c5c0     idp.obj
 0002:0001c610       ??_C@_0EH@DGJCCNAC@in?5method?5?8IDP_Hooks_ev_is_far_@ 000000018008c610     idp.obj
 0002:0001c658       ??_C@_0DP@CDHOIMFI@in?5method?5?8IDP_Hooks_ev_is_far_@ 000000018008c658     idp.obj
 0002:0001c6a0       ??_C@_0EI@PCBHNELJ@in?5method?5?8IDP_Hooks_ev_is_sane@ 000000018008c6a0     idp.obj
 0002:0001c6f0       ??_C@_0EL@IJICJNOO@in?5method?5?8IDP_Hooks_ev_is_sane@ 000000018008c6f0     idp.obj
 0002:0001c740       ??_C@_0EA@LDFAIBM@in?5method?5?8IDP_Hooks_ev_is_sane@ 000000018008c740     idp.obj
 0002:0001c780       ??_C@_0EI@BMCCKHAE@in?5method?5?8IDP_Hooks_ev_is_cond@ 000000018008c780     idp.obj
 0002:0001c7d0       ??_C@_0EL@BGKFBOFF@in?5method?5?8IDP_Hooks_ev_is_cond@ 000000018008c7d0     idp.obj
 0002:0001c820       ??_C@_0EI@ONFOCKFI@in?5method?5?8IDP_Hooks_ev_is_call@ 000000018008c820     idp.obj
 0002:0001c870       ??_C@_0EL@KEJNBCGB@in?5method?5?8IDP_Hooks_ev_is_call@ 000000018008c870     idp.obj
 0002:0001c8c0       ??_C@_0EH@KGHKFJPK@in?5method?5?8IDP_Hooks_ev_is_ret_@ 000000018008c8c0     idp.obj
 0002:0001c910       ??_C@_0EK@EGHAFFMA@in?5method?5?8IDP_Hooks_ev_is_ret_@ 000000018008c910     idp.obj
 0002:0001c960       ??_C@_0EA@HOOEKPBM@in?5method?5?8IDP_Hooks_ev_is_ret_@ 000000018008c960     idp.obj
 0002:0001c9a0       ??_C@_0EH@NEJFAFNF@in?5method?5?8IDP_Hooks_ev_may_be_@ 000000018008c9a0     idp.obj
 0002:0001c9f0       ??_C@_0EK@FDNKLJNO@in?5method?5?8IDP_Hooks_ev_may_be_@ 000000018008c9f0     idp.obj
 0002:0001ca40       ??_C@_0DP@NAFMEEFH@in?5method?5?8IDP_Hooks_ev_may_be_@ 000000018008ca40     idp.obj
 0002:0001ca80       ??_C@_0EO@HAOKPHBF@in?5method?5?8IDP_Hooks_ev_is_basi@ 000000018008ca80     idp.obj
 0002:0001cad0       ??_C@_0FB@CEEFMAKI@in?5method?5?8IDP_Hooks_ev_is_basi@ 000000018008cad0     idp.obj
 0002:0001cb30       ??_C@_0EH@MIOBCIFB@in?5method?5?8IDP_Hooks_ev_is_basi@ 000000018008cb30     idp.obj
 0002:0001cb80       ??_C@_0EM@EHNDALLM@in?5method?5?8IDP_Hooks_ev_is_indi@ 000000018008cb80     idp.obj
 0002:0001cbd0       ??_C@_0EP@BFOAIAMJ@in?5method?5?8IDP_Hooks_ev_is_indi@ 000000018008cbd0     idp.obj
 0002:0001cc20       ??_C@_0EO@GBPAJBFA@in?5method?5?8IDP_Hooks_ev_is_insn@ 000000018008cc20     idp.obj
 0002:0001cc70       ??_C@_0FB@JMNBLKMJ@in?5method?5?8IDP_Hooks_ev_is_insn@ 000000018008cc70     idp.obj
 0002:0001ccd0       ??_C@_0EF@MBLHKLOB@in?5method?5?8IDP_Hooks_ev_is_swit@ 000000018008ccd0     idp.obj
 0002:0001cd20       ??_C@_0EJ@BJKAIMEC@in?5method?5?8IDP_Hooks_ev_is_swit@ 000000018008cd20     idp.obj
 0002:0001cd70       ??_C@_0EI@PLNADPEF@in?5method?5?8IDP_Hooks_ev_is_swit@ 000000018008cd70     idp.obj
 0002:0001cdc0       ??_C@_0EN@BCNOIANI@in?5method?5?8IDP_Hooks_ev_calc_sw@ 000000018008cdc0     idp.obj
 0002:0001ce10       ??_C@_0EN@LOIEKHLL@in?5method?5?8IDP_Hooks_ev_calc_sw@ 000000018008ce10     idp.obj
 0002:0001ce60       ??_C@_0EJ@PGLLAIIE@in?5method?5?8IDP_Hooks_ev_calc_sw@ 000000018008ce60     idp.obj
 0002:0001ceb0       ??_C@_0EG@KJBAHJDM@in?5method?5?8IDP_Hooks_ev_calc_sw@ 000000018008ceb0     idp.obj
 0002:0001cf00       ??_C@_0FB@PHHDCLL@in?5method?5?8IDP_Hooks_ev_calc_sw@ 000000018008cf00     idp.obj
 0002:0001cf60       ??_C@_0EP@PJKAABON@in?5method?5?8IDP_Hooks_ev_create_@ 000000018008cf60     idp.obj
 0002:0001cfb0       ??_C@_0EI@MDJMFBMI@in?5method?5?8IDP_Hooks_ev_create_@ 000000018008cfb0     idp.obj
 0002:0001d000       ??_C@_0FJ@FHNFKBHC@in?5method?5?8IDP_Hooks_ev_create_@ 000000018008d000     idp.obj
 0002:0001d060       ??_C@_0EJ@DMLIPEBH@in?5method?5?8IDP_Hooks_ev_is_alig@ 000000018008d060     idp.obj
 0002:0001d0b0       ??_C@_0EC@DOPOPLKF@in?5method?5?8IDP_Hooks_ev_is_alig@ 000000018008d0b0     idp.obj
 0002:0001d100       ??_C@_0EL@LNFJNILP@in?5method?5?8IDP_Hooks_ev_is_allo@ 000000018008d100     idp.obj
 0002:0001d150       ??_C@_0EE@DFGMHP@in?5method?5?8IDP_Hooks_ev_is_allo@ 000000018008d150     idp.obj
 0002:0001d1a0       ??_C@_0EL@MAJLDDGN@in?5method?5?8IDP_Hooks_ev_delay_s@ 000000018008d1a0     idp.obj
 0002:0001d1f0       ??_C@_0EE@PEFGDHLP@in?5method?5?8IDP_Hooks_ev_delay_s@ 000000018008d1f0     idp.obj
 0002:0001d240       ??_C@_0EE@DDNLHIEM@in?5method?5?8IDP_Hooks_ev_delay_s@ 000000018008d240     idp.obj
 0002:0001d290       ??_C@_0EE@BDEJAEAH@in?5method?5?8IDP_Hooks_ev_delay_s@ 000000018008d290     idp.obj
 0002:0001d2e0       ??_C@_0EH@FKPNHLOP@in?5method?5?8IDP_Hooks_ev_is_sp_b@ 000000018008d2e0     idp.obj
 0002:0001d330       ??_C@_0EB@OOOBBIED@in?5method?5?8IDP_Hooks_ev_is_sp_b@ 000000018008d330     idp.obj
 0002:0001d380       ??_C@_0EK@OGHPHPEF@in?5method?5?8IDP_Hooks_ev_is_sp_b@ 000000018008d380     idp.obj
 0002:0001d3d0       ??_C@_0EI@ENJJMLDM@in?5method?5?8IDP_Hooks_ev_is_sp_b@ 000000018008d3d0     idp.obj
 0002:0001d420       ??_C@_0EJ@DBLMEHKB@in?5method?5?8IDP_Hooks_ev_can_hav@ 000000018008d420     idp.obj
 0002:0001d470       ??_C@_0EK@LHENIKDB@in?5method?5?8IDP_Hooks_ev_can_hav@ 000000018008d470     idp.obj
 0002:0001d4c0       ??_C@_0EI@HJGCOOGO@in?5method?5?8IDP_Hooks_ev_cmp_ope@ 000000018008d4c0     idp.obj
 0002:0001d510       ??_C@_0EJ@LMNOILLJ@in?5method?5?8IDP_Hooks_ev_cmp_ope@ 000000018008d510     idp.obj
 0002:0001d560       ??_C@_0EJ@BJFFBLLH@in?5method?5?8IDP_Hooks_ev_cmp_ope@ 000000018008d560     idp.obj
 0002:0001d5b0       ??_C@_0EK@OFFOBLMH@in?5method?5?8IDP_Hooks_ev_adjust_@ 000000018008d5b0     idp.obj
 0002:0001d600       ??_C@_0EK@LIDJHNHN@in?5method?5?8IDP_Hooks_ev_adjust_@ 000000018008d600     idp.obj
 0002:0001d650       ??_C@_0ED@NIFMJLHO@in?5method?5?8IDP_Hooks_ev_adjust_@ 000000018008d650     idp.obj
 0002:0001d6a0       ??_C@_0EC@DBFOLDHH@in?5method?5?8IDP_Hooks_ev_adjust_@ 000000018008d6a0     idp.obj
 0002:0001d6f0       ??_C@_0FD@KKLNBGAO@in?5method?5?8IDP_Hooks_ev_adjust_@ 000000018008d6f0     idp.obj
 0002:0001d750       ??_C@_0EO@IHKLGNNP@in?5method?5?8IDP_Hooks_ev_get_ope@ 000000018008d750     idp.obj
 0002:0001d7a0       ??_C@_0FB@FMIENLBO@in?5method?5?8IDP_Hooks_ev_get_ope@ 000000018008d7a0     idp.obj
 0002:0001d800       ??_C@_0EG@OAHEMADD@in?5method?5?8IDP_Hooks_ev_get_ope@ 000000018008d800     idp.obj
 0002:0001d850       ??_C@_0EI@DDLKKLD@in?5method?5?8IDP_Hooks_ev_get_reg@ 000000018008d850     idp.obj
 0002:0001d8a0       ??_C@_0EA@FJJEJNBH@in?5method?5?8IDP_Hooks_ev_get_reg@ 000000018008d8a0     idp.obj
 0002:0001d8e0       ??_C@_0ED@NHLAICNH@in?5method?5?8IDP_Hooks_ev_get_reg@ 000000018008d8e0     idp.obj
 0002:0001d930       ??_C@_0EA@KAFPEPD@in?5method?5?8IDP_Hooks_ev_get_reg@ 000000018008d930     idp.obj
 0002:0001d970       ??_C@_0ED@JGICIKIO@in?5method?5?8IDP_Hooks_ev_str2reg@ 000000018008d970     idp.obj
 0002:0001d9c0       ??_C@_0EE@MNGHECGG@in?5method?5?8IDP_Hooks_ev_str2reg@ 000000018008d9c0     idp.obj
 0002:0001da10       ??_C@_0EH@KDFAGBEB@in?5method?5?8IDP_Hooks_ev_get_aut@ 000000018008da10     idp.obj
 0002:0001da60       ??_C@_0EK@CNNDCKFI@in?5method?5?8IDP_Hooks_ev_get_aut@ 000000018008da60     idp.obj
 0002:0001dab0       ??_C@_0EI@CFDHPAOG@in?5method?5?8IDP_Hooks_ev_get_bg_@ 000000018008dab0     idp.obj
 0002:0001db00       ??_C@_0EI@GLJFLMLP@in?5method?5?8IDP_Hooks_ev_get_bg_@ 000000018008db00     idp.obj
 0002:0001db50       ??_C@_0EB@DFFCAHHN@in?5method?5?8IDP_Hooks_ev_get_bg_@ 000000018008db50     idp.obj
 0002:0001dba0       ??_C@_0EI@BOADPPMD@in?5method?5?8IDP_Hooks_ev_is_jump@ 000000018008dba0     idp.obj
 0002:0001dbf0       ??_C@_0EF@NFOFDCEH@in?5method?5?8IDP_Hooks_ev_is_jump@ 000000018008dbf0     idp.obj
 0002:0001dc40       ??_C@_0ED@NLGOI@in?5method?5?8IDP_Hooks_ev_is_jump@ 000000018008dc40     idp.obj
 0002:0001dc90       ??_C@_0ED@EKDDDNKD@in?5method?5?8IDP_Hooks_ev_is_jump@ 000000018008dc90     idp.obj
 0002:0001dce0       ??_C@_0EH@JGJEIOLE@in?5method?5?8IDP_Hooks_ev_func_bo@ 000000018008dce0     idp.obj
 0002:0001dd30       ??_C@_0EB@JANAAOJK@in?5method?5?8IDP_Hooks_ev_func_bo@ 000000018008dd30     idp.obj
 0002:0001dd80       ??_C@_0EE@FLHJHDFA@in?5method?5?8IDP_Hooks_ev_func_bo@ 000000018008dd80     idp.obj
 0002:0001ddd0       ??_C@_0EA@DBJHIONI@in?5method?5?8IDP_Hooks_ev_func_bo@ 000000018008ddd0     idp.obj
 0002:0001de10       ??_C@_0EF@DCLEBLFA@in?5method?5?8IDP_Hooks_ev_verify_@ 000000018008de10     idp.obj
 0002:0001de60       ??_C@_0EC@MKLHPJJM@in?5method?5?8IDP_Hooks_ev_verify_@ 000000018008de60     idp.obj
 0002:0001deb0       ??_C@_0EL@NPGBFOMM@in?5method?5?8IDP_Hooks_ev_verify_@ 000000018008deb0     idp.obj
 0002:0001df00       ??_C@_0EI@JDHJJHMJ@in?5method?5?8IDP_Hooks_ev_verify_@ 000000018008df00     idp.obj
 0002:0001df50       ??_C@_0EN@BGKJJPFB@in?5method?5?8IDP_Hooks_ev_create_@ 000000018008df50     idp.obj
 0002:0001dfa0       ??_C@_0EK@KHNFKFFM@in?5method?5?8IDP_Hooks_ev_create_@ 000000018008dfa0     idp.obj
 0002:0001dff0       ??_C@_0EN@MMHFCNCE@in?5method?5?8IDP_Hooks_ev_get_fra@ 000000018008dff0     idp.obj
 0002:0001e040       ??_C@_0EH@BOAEKNPD@in?5method?5?8IDP_Hooks_ev_get_fra@ 000000018008e040     idp.obj
 0002:0001e090       ??_C@_0FA@PGBPIFHA@in?5method?5?8IDP_Hooks_ev_get_fra@ 000000018008e090     idp.obj
 0002:0001e0e0       ??_C@_0FD@KLNGEDLM@in?5method?5?8IDP_Hooks_ev_get_stk@ 000000018008e0e0     idp.obj
 0002:0001e140       ??_C@_0EJ@JKNJFGBF@in?5method?5?8IDP_Hooks_ev_demangl@ 000000018008e140     idp.obj
 0002:0001e190       ??_C@_0EK@PDNMDHI@in?5method?5?8IDP_Hooks_ev_demangl@ 000000018008e190     idp.obj
 0002:0001e1e0       ??_C@_0EE@DHIFPHEF@in?5method?5?8IDP_Hooks_ev_demangl@ 000000018008e1e0     idp.obj
 0002:0001e230       ??_C@_0EB@NGHFCKNI@in?5method?5?8IDP_Hooks_ev_demangl@ 000000018008e230     idp.obj
 0002:0001e280       ??_C@_0EE@OBJPINFI@in?5method?5?8IDP_Hooks_ev_add_cre@ 000000018008e280     idp.obj
 0002:0001e2c8       ??_C@_0DN@PFJFOGME@in?5method?5?8IDP_Hooks_ev_add_cre@ 000000018008e2c8     idp.obj
 0002:0001e308       ??_C@_0DN@HCDDCNIH@in?5method?5?8IDP_Hooks_ev_add_cre@ 000000018008e308     idp.obj
 0002:0001e348       ??_C@_0DP@HDANDOOG@in?5method?5?8IDP_Hooks_ev_add_cre@ 000000018008e348     idp.obj
 0002:0001e390       ??_C@_0EE@BLKCHOAP@in?5method?5?8IDP_Hooks_ev_add_dre@ 000000018008e390     idp.obj
 0002:0001e3d8       ??_C@_0DN@HFEIBEBN@in?5method?5?8IDP_Hooks_ev_add_dre@ 000000018008e3d8     idp.obj
 0002:0001e418       ??_C@_0DN@PCOONPFO@in?5method?5?8IDP_Hooks_ev_add_dre@ 000000018008e418     idp.obj
 0002:0001e458       ??_C@_0DP@HKIBFKEE@in?5method?5?8IDP_Hooks_ev_add_dre@ 000000018008e458     idp.obj
 0002:0001e4a0       ??_C@_0EE@CNJPJGPO@in?5method?5?8IDP_Hooks_ev_del_cre@ 000000018008e4a0     idp.obj
 0002:0001e4e8       ??_C@_0DN@EEADNCPE@in?5method?5?8IDP_Hooks_ev_del_cre@ 000000018008e4e8     idp.obj
 0002:0001e528       ??_C@_0DN@MDKFBJLH@in?5method?5?8IDP_Hooks_ev_del_cre@ 000000018008e528     idp.obj
 0002:0001e568       ??_C@_0DN@KDBMOBEM@in?5method?5?8IDP_Hooks_ev_del_cre@ 000000018008e568     idp.obj
 0002:0001e5b0       ??_C@_0EE@NHKCGFKJ@in?5method?5?8IDP_Hooks_ev_del_dre@ 000000018008e5b0     idp.obj
 0002:0001e5f8       ??_C@_0DN@MENOCACN@in?5method?5?8IDP_Hooks_ev_del_dre@ 000000018008e5f8     idp.obj
 0002:0001e638       ??_C@_0DN@EDHIOLGO@in?5method?5?8IDP_Hooks_ev_del_dre@ 000000018008e638     idp.obj
 0002:0001e680       ??_C@_0EK@OAPDPKGI@in?5method?5?8IDP_Hooks_ev_coagula@ 000000018008e680     idp.obj
 0002:0001e6d0       ??_C@_0ED@IKDINNHA@in?5method?5?8IDP_Hooks_ev_coagula@ 000000018008e6d0     idp.obj
 0002:0001e720       ??_C@_0ED@NJOBGDD@in?5method?5?8IDP_Hooks_ev_coagula@ 000000018008e720     idp.obj
 0002:0001e770       ??_C@_0ED@GNCHOOMI@in?5method?5?8IDP_Hooks_ev_coagula@ 000000018008e770     idp.obj
 0002:0001e7c0       ??_C@_0EF@OPKLJPAG@in?5method?5?8IDP_Hooks_ev_coagula@ 000000018008e7c0     idp.obj
 0002:0001e810       ??_C@_0EJ@OAPPBOMO@in?5method?5?8IDP_Hooks_ev_may_sho@ 000000018008e810     idp.obj
 0002:0001e860       ??_C@_0EC@OFGLEFOL@in?5method?5?8IDP_Hooks_ev_may_sho@ 000000018008e860     idp.obj
 0002:0001e8b0       ??_C@_0EM@HBKNEMKB@in?5method?5?8IDP_Hooks_ev_auto_qu@ 000000018008e8b0     idp.obj
 0002:0001e900       ??_C@_0EI@JKPONOC@in?5method?5?8IDP_Hooks_ev_auto_qu@ 000000018008e900     idp.obj
 0002:0001e950       ??_C@_0EP@FKMEEFH@in?5method?5?8IDP_Hooks_ev_validat@ 000000018008e950     idp.obj
 0002:0001e9a0       ??_C@_0EI@PJIONIJO@in?5method?5?8IDP_Hooks_ev_validat@ 000000018008e9a0     idp.obj
 0002:0001e9f0       ??_C@_0FA@JHHAJGNG@in?5method?5?8IDP_Hooks_ev_validat@ 000000018008e9f0     idp.obj
 0002:0001ea40       ??_C@_0EN@HALGCODE@in?5method?5?8IDP_Hooks_ev_adjust_@ 000000018008ea40     idp.obj
 0002:0001ea90       ??_C@_0FC@BKFHJFLE@in?5method?5?8IDP_Hooks_ev_adjust_@ 000000018008ea90     idp.obj
 0002:0001eaf0       ??_C@_0FD@BGHMLIMJ@in?5method?5?8IDP_Hooks_ev_adjust_@ 000000018008eaf0     idp.obj
 0002:0001eb50       ??_C@_0EI@KKBEHMJF@in?5method?5?8IDP_Hooks_ev_adjust_@ 000000018008eb50     idp.obj
 0002:0001eba0       ??_C@_0EE@DCPFEOGC@in?5method?5?8IDP_Hooks_ev_assembl@ 000000018008eba0     idp.obj
 0002:0001ebe8       ??_C@_0DN@CGIAIPCC@in?5method?5?8IDP_Hooks_ev_assembl@ 000000018008ebe8     idp.obj
 0002:0001ec28       ??_C@_0DN@KBCGEEGB@in?5method?5?8IDP_Hooks_ev_assembl@ 000000018008ec28     idp.obj
 0002:0001ec68       ??_C@_0DN@IBLEDICK@in?5method?5?8IDP_Hooks_ev_assembl@ 000000018008ec68     idp.obj
 0002:0001eca8       ??_C@_0DN@EGDJHHNJ@in?5method?5?8IDP_Hooks_ev_assembl@ 000000018008eca8     idp.obj
 0002:0001ecf0       ??_C@_0EF@JPMCNBAK@in?5method?5?8IDP_Hooks_ev_assembl@ 000000018008ecf0     idp.obj
 0002:0001ed40       ??_C@_0EL@NFDOHJDN@in?5method?5?8IDP_Hooks_ev_extract@ 000000018008ed40     idp.obj
 0002:0001ed90       ??_C@_0EG@GGHHJPLE@in?5method?5?8IDP_Hooks_ev_extract@ 000000018008ed90     idp.obj
 0002:0001ede0       ??_C@_0EE@GKHMHDB@in?5method?5?8IDP_Hooks_ev_extract@ 000000018008ede0     idp.obj
 0002:0001ee30       ??_C@_0EM@PEJHHAAF@in?5method?5?8IDP_Hooks_ev_extract@ 000000018008ee30     idp.obj
 0002:0001ee80       ??_C@_0EG@PKONPLPD@in?5method?5?8IDP_Hooks_ev_extract@ 000000018008ee80     idp.obj
 0002:0001eed0       ??_C@_0ED@NJINMKEM@in?5method?5?8IDP_Hooks_ev_realcvt@ 000000018008eed0     idp.obj
 0002:0001ef18       ??_C@_0DO@OHHPHODJ@in?5method?5?8IDP_Hooks_ev_realcvt@ 000000018008ef18     idp.obj
 0002:0001ef60       ??_C@_0EA@MMIHAAGJ@in?5method?5?8IDP_Hooks_ev_realcvt@ 000000018008ef60     idp.obj
 0002:0001efa0       ??_C@_0DO@BHIAIKCH@in?5method?5?8IDP_Hooks_ev_realcvt@ 000000018008efa0     idp.obj
 0002:0001efe0       ??_C@_0EK@DMDMANKM@in?5method?5?8IDP_Hooks_ev_gen_asm@ 000000018008efe0     idp.obj
 0002:0001f030       ??_C@_0ED@PNGPICCP@in?5method?5?8IDP_Hooks_ev_gen_asm@ 000000018008f030     idp.obj
 0002:0001f080       ??_C@_0EF@CIDILEFL@in?5method?5?8IDP_Hooks_ev_gen_asm@ 000000018008f080     idp.obj
 0002:0001f0d0       ??_C@_0ED@FKFLDFCH@in?5method?5?8IDP_Hooks_ev_gen_asm@ 000000018008f0d0     idp.obj
 0002:0001f120       ??_C@_0EC@JJBKJECP@in?5method?5?8IDP_Hooks_ev_gen_asm@ 000000018008f120     idp.obj
 0002:0001f170       ??_C@_0EP@NNOJLBEC@in?5method?5?8IDP_Hooks_ev_gen_asm@ 000000018008f170     idp.obj
 0002:0001f1c0       ??_C@_0EI@FNMFAAHK@in?5method?5?8IDP_Hooks_ev_gen_map@ 000000018008f1c0     idp.obj
 0002:0001f210       ??_C@_0EC@FHOMDDAA@in?5method?5?8IDP_Hooks_ev_gen_map@ 000000018008f210     idp.obj
 0002:0001f260       ??_C@_0ED@PJKCKHCM@in?5method?5?8IDP_Hooks_ev_gen_map@ 000000018008f260     idp.obj
 0002:0001f2b0       ??_C@_0EN@GLCJHJGG@in?5method?5?8IDP_Hooks_ev_create_@ 000000018008f2b0     idp.obj
 0002:0001f300       ??_C@_0EG@FBCEGIHJ@in?5method?5?8IDP_Hooks_ev_create_@ 000000018008f300     idp.obj
 0002:0001f350       ??_C@_0EF@MJBHDNAK@in?5method?5?8IDP_Hooks_ev_create_@ 000000018008f350     idp.obj
 0002:0001f3a0       ??_C@_0EH@JNOGHCHC@in?5method?5?8IDP_Hooks_ev_create_@ 000000018008f3a0     idp.obj
 0002:0001f3f0       ??_C@_0EC@JFJAECFC@in?5method?5?8IDP_Hooks_ev_getreg?8@ 000000018008f3f0     idp.obj
 0002:0001f438       ??_C@_0DP@PGIKLACI@in?5method?5?8IDP_Hooks_ev_getreg?8@ 000000018008f438     idp.obj
 0002:0001f478       ??_C@_0DK@KCGPAABI@in?5method?5?8IDP_Hooks_ev_getreg?8@ 000000018008f478     idp.obj
 0002:0001f4c0       ??_C@_0EK@KHDONJCM@in?5method?5?8IDP_Hooks_ev_analyze@ 000000018008f4c0     idp.obj
 0002:0001f510       ??_C@_0ED@JMPPPHFA@in?5method?5?8IDP_Hooks_ev_analyze@ 000000018008f510     idp.obj
 0002:0001f560       ??_C@_0EI@KNJAGLBJ@in?5method?5?8IDP_Hooks_ev_calc_sp@ 000000018008f560     idp.obj
 0002:0001f5b0       ??_C@_0EF@DMLAGJCA@in?5method?5?8IDP_Hooks_ev_calc_sp@ 000000018008f5b0     idp.obj
 0002:0001f600       ??_C@_0EL@COPHHPGE@in?5method?5?8IDP_Hooks_ev_calc_sp@ 000000018008f600     idp.obj
 0002:0001f650       ??_C@_0ED@LFJAMJIP@in?5method?5?8IDP_Hooks_ev_calcrel@ 000000018008f650     idp.obj
 0002:0001f6a0       ??_C@_0EK@HNHDJDLD@in?5method?5?8IDP_Hooks_ev_find_re@ 000000018008f6a0     idp.obj
 0002:0001f6f0       ??_C@_0EN@HBPCGEDE@in?5method?5?8IDP_Hooks_ev_find_re@ 000000018008f6f0     idp.obj
 0002:0001f740       ??_C@_0EC@FJMMNEEK@in?5method?5?8IDP_Hooks_ev_find_re@ 000000018008f740     idp.obj
 0002:0001f790       ??_C@_0EJ@MFDINCEM@in?5method?5?8IDP_Hooks_ev_find_op@ 000000018008f790     idp.obj
 0002:0001f7e0       ??_C@_0EM@MHAGLGDN@in?5method?5?8IDP_Hooks_ev_find_op@ 000000018008f7e0     idp.obj
 0002:0001f830       ??_C@_0EB@MBMLFBPP@in?5method?5?8IDP_Hooks_ev_find_op@ 000000018008f830     idp.obj
 0002:0001f880       ??_C@_0EK@EELIHFKL@in?5method?5?8IDP_Hooks_ev_next_ex@ 000000018008f880     idp.obj
 0002:0001f8d0       ??_C@_0EF@FDMHJJNO@in?5method?5?8IDP_Hooks_ev_next_ex@ 000000018008f8d0     idp.obj
 0002:0001f920       ??_C@_0ED@KIGAPMPG@in?5method?5?8IDP_Hooks_ev_next_ex@ 000000018008f920     idp.obj
 0002:0001f970       ??_C@_0EC@GHMNLEHC@in?5method?5?8IDP_Hooks_ev_next_ex@ 000000018008f970     idp.obj
 0002:0001f9c0       ??_C@_0FN@FEPPFNG@in?5method?5?8IDP_Hooks_ev_next_ex@ 000000018008f9c0     idp.obj
 0002:0001fa20       ??_C@_0EP@BPINNMFN@in?5method?5?8IDP_Hooks_ev_next_ex@ 000000018008fa20     idp.obj
 0002:0001fa70       ??_C@_0EK@KGPLNFHD@in?5method?5?8IDP_Hooks_ev_calc_st@ 000000018008fa70     idp.obj
 0002:0001fac0       ??_C@_0EF@JPOPEFMA@in?5method?5?8IDP_Hooks_ev_calc_st@ 000000018008fac0     idp.obj
 0002:0001fb10       ??_C@_0ED@LHEIOOAF@in?5method?5?8IDP_Hooks_ev_calc_st@ 000000018008fb10     idp.obj
 0002:0001fb60       ??_C@_0EJ@CAAOGFAD@in?5method?5?8IDP_Hooks_ev_calc_ne@ 000000018008fb60     idp.obj
 0002:0001fbb0       ??_C@_0EF@IGEFJOAN@in?5method?5?8IDP_Hooks_ev_calc_ne@ 000000018008fbb0     idp.obj
 0002:0001fc00       ??_C@_0EM@LGHCMKIC@in?5method?5?8IDP_Hooks_ev_calc_ne@ 000000018008fc00     idp.obj
 0002:0001fc50       ??_C@_0EC@OFKJKAIK@in?5method?5?8IDP_Hooks_ev_calc_ne@ 000000018008fc50     idp.obj
 0002:0001fca0       ??_C@_0EP@OIPNEEJF@in?5method?5?8IDP_Hooks_ev_get_mac@ 000000018008fca0     idp.obj
 0002:0001fcf0       ??_C@_0EK@DNHMHIIL@in?5method?5?8IDP_Hooks_ev_get_mac@ 000000018008fcf0     idp.obj
 0002:0001fd40       ??_C@_0EI@CPMEJMBD@in?5method?5?8IDP_Hooks_ev_get_mac@ 000000018008fd40     idp.obj
 0002:0001fd90       ??_C@_0EJ@EOKJHIME@in?5method?5?8IDP_Hooks_ev_get_dbr@ 000000018008fd90     idp.obj
 0002:0001fde0       ??_C@_0ED@CLPDHMLD@in?5method?5?8IDP_Hooks_ev_get_dbr@ 000000018008fde0     idp.obj
 0002:0001fe30       ??_C@_0EM@JFEMBAHO@in?5method?5?8IDP_Hooks_ev_get_dbr@ 000000018008fe30     idp.obj
 0002:0001fe80       ??_C@_0EL@NDIOJMPA@in?5method?5?8IDP_Hooks_ev_insn_re@ 000000018008fe80     idp.obj
 0002:0001fed0       ??_C@_0EO@EHLKMFGN@in?5method?5?8IDP_Hooks_ev_insn_re@ 000000018008fed0     idp.obj
 0002:0001ff20       ??_C@_0FO@NAKNIICP@in?5method?5?8IDP_Hooks_ev_insn_re@ 000000018008ff20     idp.obj
 0002:0001ff80       ??_C@_0FA@CDNABLIC@in?5method?5?8IDP_Hooks_ev_insn_re@ 000000018008ff80     idp.obj
 0002:0001ffd0       ??_C@_0EG@COCCBFLG@in?5method?5?8IDP_Hooks_ev_clean_t@ 000000018008ffd0     idp.obj
 0002:00020018       ??_C@_0DP@HMCKGIEJ@in?5method?5?8IDP_Hooks_ev_clean_t@ 0000000180090018     idp.obj
 0002:00020060       ??_C@_0FJ@NNPHBMIP@in?5method?5?8IDP_Hooks_ev_clean_t@ 0000000180090060     idp.obj
 0002:000200c0       ??_C@_0EL@BFECHECO@in?5method?5?8IDP_Hooks_ev_clean_t@ 00000001800900c0     idp.obj
 0002:00020110       ??_C@_0EI@COKNEFIB@in?5method?5?8IDP_Hooks_ev_get_reg@ 0000000180090110     idp.obj
 0002:00020160       ??_C@_0EK@PKECPJNI@in?5method?5?8IDP_Hooks_ev_get_reg@ 0000000180090160     idp.obj
 0002:000201b0       ??_C@_0EJ@NHCEDOC@in?5method?5?8IDP_Hooks_ev_get_reg@ 00000001800901b0     idp.obj
 0002:00020200       ??_C@_0EJ@DGLLBMJO@in?5method?5?8IDP_Hooks_ev_get_reg@ 0000000180090200     idp.obj
 0002:00020250       ??_C@_0EF@FHKKJLPI@in?5method?5?8IDP_Hooks_ev_setup_t@ 0000000180090250     idp.obj
 0002:000202a0       ??_C@_0EI@OICDGFDF@in?5method?5?8IDP_Hooks_ev_get_abi@ 00000001800902a0     idp.obj
 0002:000202f0       ??_C@_0EI@JMEIKNLG@in?5method?5?8IDP_Hooks_ev_get_abi@ 00000001800902f0     idp.obj
 0002:00020340       ??_C@_0EI@BNGNMIJB@in?5method?5?8IDP_Hooks_ev_get_abi@ 0000000180090340     idp.obj
 0002:00020390       ??_C@_0ED@EFKBOGGG@in?5method?5?8IDP_Hooks_ev_get_abi@ 0000000180090390     idp.obj
 0002:000203e0       ??_C@_0EI@PFIKICMJ@in?5method?5?8IDP_Hooks_ev_max_ptr@ 00000001800903e0     idp.obj
 0002:00020430       ??_C@_0FB@COGOJCBN@in?5method?5?8IDP_Hooks_ev_get_def@ 0000000180090430     idp.obj
 0002:00020490       ??_C@_0EK@CCLIHMNM@in?5method?5?8IDP_Hooks_ev_get_def@ 0000000180090490     idp.obj
 0002:000204e0       ??_C@_0EH@PLMAKKED@in?5method?5?8IDP_Hooks_ev_get_cc_@ 00000001800904e0     idp.obj
 0002:00020530       ??_C@_0EI@KGBMFGIJ@in?5method?5?8IDP_Hooks_ev_get_cc_@ 0000000180090530     idp.obj
 0002:00020580       ??_C@_0EA@OAKEKING@in?5method?5?8IDP_Hooks_ev_get_cc_@ 0000000180090580     idp.obj
 0002:000205c0       ??_C@_0EN@PBBGBJOK@in?5method?5?8IDP_Hooks_ev_get_stk@ 00000001800905c0     idp.obj
 0002:00020610       ??_C@_0EM@LBIMHFEF@in?5method?5?8IDP_Hooks_ev_shadow_@ 0000000180090610     idp.obj
 0002:00020660       ??_C@_0EG@DDAFILEJ@in?5method?5?8IDP_Hooks_ev_shadow_@ 0000000180090660     idp.obj
 0002:000206b0       ??_C@_0EJ@GEPLLCMP@in?5method?5?8IDP_Hooks_ev_shadow_@ 00000001800906b0     idp.obj
 0002:00020700       ??_C@_0EK@OMJAJAMG@in?5method?5?8IDP_Hooks_ev_get_sim@ 0000000180090700     idp.obj
 0002:00020750       ??_C@_0FA@BFAOPIOA@in?5method?5?8IDP_Hooks_ev_get_sim@ 0000000180090750     idp.obj
 0002:000207a0       ??_C@_0FC@FKPDOKH@in?5method?5?8IDP_Hooks_ev_get_sim@ 00000001800907a0     idp.obj
 0002:00020800       ??_C@_0EP@DFGBELPK@in?5method?5?8IDP_Hooks_ev_get_sim@ 0000000180090800     idp.obj
 0002:00020850       ??_C@_0ED@GMPAEAD@in?5method?5?8IDP_Hooks_ev_get_sim@ 0000000180090850     idp.obj
 0002:000208a0       ??_C@_0FD@GPLAJEIC@in?5method?5?8IDP_Hooks_ev_calc_cd@ 00000001800908a0     idp.obj
 0002:00020900       ??_C@_0EM@OEKLFKGB@in?5method?5?8IDP_Hooks_ev_calc_cd@ 0000000180090900     idp.obj
 0002:00020950       ??_C@_0EN@ODNPHFHC@in?5method?5?8IDP_Hooks_ev_calc_pu@ 0000000180090950     idp.obj
 0002:000209a0       ??_C@_0EH@PMPMAKFE@in?5method?5?8IDP_Hooks_ev_calc_pu@ 00000001800909a0     idp.obj
 0002:000209f0       ??_C@_0FK@CFDIOLNF@in?5method?5?8IDP_Hooks_ev_calc_pu@ 00000001800909f0     idp.obj
 0002:00020a50       ??_C@_0EH@DHNMMBNM@in?5method?5?8IDP_Hooks_ev_calc_re@ 0000000180090a50     idp.obj
 0002:00020aa0       ??_C@_0EG@CHDMLEKA@in?5method?5?8IDP_Hooks_ev_calc_re@ 0000000180090aa0     idp.obj
 0002:00020af0       ??_C@_0EL@HCCJMJDJ@in?5method?5?8IDP_Hooks_ev_calc_re@ 0000000180090af0     idp.obj
 0002:00020b40       ??_C@_0EA@KMCJJMOD@in?5method?5?8IDP_Hooks_ev_calc_re@ 0000000180090b40     idp.obj
 0002:00020b80       ??_C@_0GC@ENDGGGLP@invalid?5null?5reference?5in?5metho@ 0000000180090b80     idp.obj
 0002:00020bf0       ??_C@_0EI@OOAODBCG@in?5method?5?8IDP_Hooks_ev_calc_ar@ 0000000180090bf0     idp.obj
 0002:00020c40       ??_C@_0EP@OPBIHJJJ@in?5method?5?8IDP_Hooks_ev_calc_ar@ 0000000180090c40     idp.obj
 0002:00020c90       ??_C@_0EJ@CDHMEKBL@in?5method?5?8IDP_Hooks_ev_calc_va@ 0000000180090c90     idp.obj
 0002:00020ce0       ??_C@_0FA@EAHMMFHN@in?5method?5?8IDP_Hooks_ev_calc_va@ 0000000180090ce0     idp.obj
 0002:00020d30       ??_C@_0EJ@CCELPGOA@in?5method?5?8IDP_Hooks_ev_calc_va@ 0000000180090d30     idp.obj
 0002:00020d80       ??_C@_0EI@FIJKDHLC@in?5method?5?8IDP_Hooks_ev_calc_va@ 0000000180090d80     idp.obj
 0002:00020dd0       ??_C@_0EB@GKOLNKEI@in?5method?5?8IDP_Hooks_ev_calc_va@ 0000000180090dd0     idp.obj
 0002:00020e20       ??_C@_0EJ@KIHADEMJ@in?5method?5?8IDP_Hooks_ev_adjust_@ 0000000180090e20     idp.obj
 0002:00020e70       ??_C@_0EI@DECNAEOG@in?5method?5?8IDP_Hooks_ev_adjust_@ 0000000180090e70     idp.obj
 0002:00020ec0       ??_C@_0EN@MEODKCJP@in?5method?5?8IDP_Hooks_ev_adjust_@ 0000000180090ec0     idp.obj
 0002:00020f10       ??_C@_0EB@LJGBKLOF@in?5method?5?8IDP_Hooks_ev_adjust_@ 0000000180090f10     idp.obj
 0002:00020f60       ??_C@_0EL@GFDHGGCL@in?5method?5?8IDP_Hooks_ev_lower_f@ 0000000180090f60     idp.obj
 0002:00020fb0       ??_C@_0EK@GCCOLLCN@in?5method?5?8IDP_Hooks_ev_lower_f@ 0000000180090fb0     idp.obj
 0002:00021000       ??_C@_0FC@HMKCDAK@in?5method?5?8IDP_Hooks_ev_lower_f@ 0000000180091000     idp.obj
 0002:00021060       ??_C@_0EJ@KANEEEOD@in?5method?5?8IDP_Hooks_ev_equal_r@ 0000000180091060     idp.obj
 0002:000210b0       ??_C@_0EI@PNGAADKL@in?5method?5?8IDP_Hooks_ev_equal_r@ 00000001800910b0     idp.obj
 0002:00021100       ??_C@_0EI@GGBDOJHP@in?5method?5?8IDP_Hooks_ev_equal_r@ 0000000180091100     idp.obj
 0002:00021150       ??_C@_0EL@OAJOOBGE@in?5method?5?8IDP_Hooks_ev_use_stk@ 0000000180091150     idp.obj
 0002:000211a0       ??_C@_0EE@INPIJNAC@in?5method?5?8IDP_Hooks_ev_use_stk@ 00000001800911a0     idp.obj
 0002:000211f0       ??_C@_0FB@LMMEGMP@in?5method?5?8IDP_Hooks_ev_use_stk@ 00000001800911f0     idp.obj
 0002:00021250       ??_C@_0EL@JIFOCLPC@in?5method?5?8IDP_Hooks_ev_use_reg@ 0000000180091250     idp.obj
 0002:000212a0       ??_C@_0EE@LDFCKMCH@in?5method?5?8IDP_Hooks_ev_use_reg@ 00000001800912a0     idp.obj
 0002:000212f0       ??_C@_0FE@EMHHJCPE@in?5method?5?8IDP_Hooks_ev_use_reg@ 00000001800912f0     idp.obj
 0002:00021350       ??_C@_0EJ@LGJNBAFC@in?5method?5?8IDP_Hooks_ev_use_arg@ 0000000180091350     idp.obj
 0002:000213a0       ??_C@_0EC@KFJHNLPL@in?5method?5?8IDP_Hooks_ev_use_arg@ 00000001800913a0     idp.obj
 0002:000213f0       ??_C@_0FA@KNDHMJGO@in?5method?5?8IDP_Hooks_ev_use_arg@ 00000001800913f0     idp.obj
 0002:00021440       ??_C@_0EM@LPGKHJGB@in?5method?5?8IDP_Hooks_ev_use_arg@ 0000000180091440     idp.obj
 0002:00021490       ??_C@_0EL@GLGBLHLD@in?5method?5?8IDP_Hooks_ev_arg_add@ 0000000180091490     idp.obj
 0002:000214e0       ??_C@_0EE@BPKHLKNA@in?5method?5?8IDP_Hooks_ev_arg_add@ 00000001800914e0     idp.obj
 0002:00021530       ??_C@_0ED@EOEGMAOI@in?5method?5?8IDP_Hooks_ev_arg_add@ 0000000180091530     idp.obj
 0002:00021580       ??_C@_0EJ@CKJOGODK@in?5method?5?8IDP_Hooks_ev_arg_add@ 0000000180091580     idp.obj
 0002:000215d0       ??_C@_0EG@JCHKECIL@in?5method?5?8IDP_Hooks_ev_arg_add@ 00000001800915d0     idp.obj
 0002:00021620       ??_C@_0GA@IJIJJHFE@invalid?5null?5reference?5in?5metho@ 0000000180091620     idp.obj
 0002:00021680       ??_C@_0EJ@JNPKLMOK@in?5method?5?8IDP_Hooks_ev_decorat@ 0000000180091680     idp.obj
 0002:000216d0       ??_C@_0EK@IHLDJPBB@in?5method?5?8IDP_Hooks_ev_decorat@ 00000001800916d0     idp.obj
 0002:00021720       ??_C@_0EC@GPIJJALM@in?5method?5?8IDP_Hooks_ev_decorat@ 0000000180091720     idp.obj
 0002:00021770       ??_C@_0EB@KNIGJMOD@in?5method?5?8IDP_Hooks_ev_decorat@ 0000000180091770     idp.obj
 0002:000217c0       ??_C@_0EN@LCBFCNL@in?5method?5?8IDP_Hooks_ev_decorat@ 00000001800917c0     idp.obj
 0002:00021810       ??_C@_0EC@MKFKBJED@in?5method?5?8IDP_Hooks_ev_loader?8@ 0000000180091810     idp.obj
 0002:00021858       ??_C@_0DP@ILCPMHHK@in?5method?5?8disown_IDP_Hooks?8?0?5a@ 0000000180091858     idp.obj
 0002:00021898       ??_C@_0DP@LKHCAPLN@in?5method?5?8delete_IDB_Hooks?8?0?5a@ 0000000180091898     idp.obj
 0002:000218d8       ??_C@_0DN@KGGFNJLD@in?5method?5?8IDB_Hooks_hook?8?0?5arg@ 00000001800918d8     idp.obj
 0002:00021918       ??_C@_0DP@ILOJMN@in?5method?5?8IDB_Hooks_unhook?8?0?5a@ 0000000180091918     idp.obj
 0002:00021960       ??_C@_0EC@BKELHEED@in?5method?5?8IDB_Hooks_closebase?8@ 0000000180091960     idp.obj
 0002:000219b0       ??_C@_0EB@GNACINNP@in?5method?5?8IDB_Hooks_savebase?8?0@ 00000001800919b0     idp.obj
 0002:00021a00       ??_C@_0EB@EKABMLBK@in?5method?5?8IDB_Hooks_upgraded?8?0@ 0000000180091a00     idp.obj
 0002:00021a48       ??_C@_0DJ@LDDOJAJL@in?5method?5?8IDB_Hooks_upgraded?8?0@ 0000000180091a48     idp.obj
 0002:00021a90       ??_C@_0ED@ONMJOJLG@in?5method?5?8IDB_Hooks_auto_empty@ 0000000180091a90     idp.obj
 0002:00021ae0       ??_C@_0EL@EMDCAILC@in?5method?5?8IDB_Hooks_auto_empty@ 0000000180091ae0     idp.obj
 0002:00021b30       ??_C@_0EI@JJNNBMEF@in?5method?5?8IDB_Hooks_determined@ 0000000180091b30     idp.obj
 0002:00021b80       ??_C@_0EB@KKGNNIAG@in?5method?5?8IDB_Hooks_determined@ 0000000180091b80     idp.obj
 0002:00021bd0       ??_C@_0EM@NIOADALF@in?5method?5?8IDB_Hooks_local_type@ 0000000180091bd0     idp.obj
 0002:00021c20       ??_C@_0EI@GGMHMNNP@in?5method?5?8IDB_Hooks_extlang_ch@ 0000000180091c20     idp.obj
 0002:00021c70       ??_C@_0EA@BGBHEIGD@in?5method?5?8IDB_Hooks_extlang_ch@ 0000000180091c70     idp.obj
 0002:00021cb0       ??_C@_0EI@DINMNDJF@in?5method?5?8IDB_Hooks_extlang_ch@ 0000000180091cb0     idp.obj
 0002:00021d00       ??_C@_0EA@EFIGCBIH@in?5method?5?8IDB_Hooks_extlang_ch@ 0000000180091d00     idp.obj
 0002:00021d40       ??_C@_0EG@BNHHEIDK@in?5method?5?8IDB_Hooks_idasgn_loa@ 0000000180091d40     idp.obj
 0002:00021d90       ??_C@_0EH@OBMDLDFC@in?5method?5?8IDB_Hooks_idasgn_loa@ 0000000180091d90     idp.obj
 0002:00021de0       ??_C@_0EN@GMCCIOGO@in?5method?5?8IDB_Hooks_kernel_con@ 0000000180091de0     idp.obj
 0002:00021e30       ??_C@_0EI@JNLCGIAG@in?5method?5?8IDB_Hooks_loader_fin@ 0000000180091e30     idp.obj
 0002:00021e80       ??_C@_0EH@IKBJDHHG@in?5method?5?8IDB_Hooks_loader_fin@ 0000000180091e80     idp.obj
 0002:00021ed0       ??_C@_0ED@CLBANGKG@in?5method?5?8IDB_Hooks_loader_fin@ 0000000180091ed0     idp.obj
 0002:00021f20       ??_C@_0EJ@KFPHGGFD@in?5method?5?8IDB_Hooks_loader_fin@ 0000000180091f20     idp.obj
 0002:00021f70       ??_C@_0EL@NBLGMFPO@in?5method?5?8IDB_Hooks_flow_chart@ 0000000180091f70     idp.obj
 0002:00021fc0       ??_C@_0EP@KGIJDNIO@in?5method?5?8IDB_Hooks_flow_chart@ 0000000180091fc0     idp.obj
 0002:00022010       ??_C@_0EJ@CMHBEAH@in?5method?5?8IDB_Hooks_compiler_c@ 0000000180092010     idp.obj
 0002:00022060       ??_C@_0EE@JLJFFDDH@in?5method?5?8IDB_Hooks_changing_t@ 0000000180092060     idp.obj
 0002:000220a8       ??_C@_0DN@GNNCPHHL@in?5method?5?8IDB_Hooks_changing_t@ 00000001800920a8     idp.obj
 0002:000220f0       ??_C@_0EH@FHKLNCOH@in?5method?5?8IDB_Hooks_changing_t@ 00000001800920f0     idp.obj
 0002:00022140       ??_C@_0EH@DALGLAEJ@in?5method?5?8IDB_Hooks_changing_t@ 0000000180092140     idp.obj
 0002:00022190       ??_C@_0ED@HDKOODBA@in?5method?5?8IDB_Hooks_ti_changed@ 0000000180092190     idp.obj
 0002:000221d8       ??_C@_0DM@BBLOCAKI@in?5method?5?8IDB_Hooks_ti_changed@ 00000001800921d8     idp.obj
 0002:00022220       ??_C@_0EG@DPGHMFPG@in?5method?5?8IDB_Hooks_ti_changed@ 0000000180092220     idp.obj
 0002:00022270       ??_C@_0EG@FIHKKHFI@in?5method?5?8IDB_Hooks_ti_changed@ 0000000180092270     idp.obj
 0002:000222c0       ??_C@_0EH@HKAOGBIB@in?5method?5?8IDB_Hooks_changing_o@ 00000001800922c0     idp.obj
 0002:00022310       ??_C@_0EA@PAOKADNE@in?5method?5?8IDB_Hooks_changing_o@ 0000000180092310     idp.obj
 0002:00022350       ??_C@_0DP@NGOPOOKL@in?5method?5?8IDB_Hooks_changing_o@ 0000000180092350     idp.obj
 0002:00022390       ??_C@_0EK@MOAAAIJP@in?5method?5?8IDB_Hooks_changing_o@ 0000000180092390     idp.obj
 0002:000223e0       ??_C@_0EK@BFEEDHPG@in?5method?5?8IDB_Hooks_changing_o@ 00000001800923e0     idp.obj
 0002:00022430       ??_C@_0EG@HLBKOMNF@in?5method?5?8IDB_Hooks_op_ti_chan@ 0000000180092430     idp.obj
 0002:00022478       ??_C@_0DP@GIHJLFIE@in?5method?5?8IDB_Hooks_op_ti_chan@ 0000000180092478     idp.obj
 0002:000224b8       ??_C@_0DO@JHHJACOJ@in?5method?5?8IDB_Hooks_op_ti_chan@ 00000001800924b8     idp.obj
 0002:00022500       ??_C@_0EJ@DBECLMIJ@in?5method?5?8IDB_Hooks_op_ti_chan@ 0000000180092500     idp.obj
 0002:00022550       ??_C@_0EJ@OKAGIDOA@in?5method?5?8IDB_Hooks_op_ti_chan@ 0000000180092550     idp.obj
 0002:000225a0       ??_C@_0EJ@MGIGFJEJ@in?5method?5?8IDB_Hooks_changing_o@ 00000001800925a0     idp.obj
 0002:000225f0       ??_C@_0EC@NKNMCCML@in?5method?5?8IDB_Hooks_changing_o@ 00000001800925f0     idp.obj
 0002:00022640       ??_C@_0EB@IPOFGFFA@in?5method?5?8IDB_Hooks_changing_o@ 0000000180092640     idp.obj
 0002:00022690       ??_C@_0EO@GKCMEGON@in?5method?5?8IDB_Hooks_changing_o@ 0000000180092690     idp.obj
 0002:000226e0       ??_C@_0EI@CMDAPHDK@in?5method?5?8IDB_Hooks_op_type_ch@ 00000001800926e0     idp.obj
 0002:00022730       ??_C@_0EB@BBMEADJP@in?5method?5?8IDB_Hooks_op_type_ch@ 0000000180092730     idp.obj
 0002:00022780       ??_C@_0EA@PGHHLNOA@in?5method?5?8IDB_Hooks_op_type_ch@ 0000000180092780     idp.obj
 0002:000227c0       ??_C@_0EF@MHMAMNL@in?5method?5?8IDB_Hooks_enum_creat@ 00000001800927c0     idp.obj
 0002:00022808       ??_C@_0DO@GHJEGKOG@in?5method?5?8IDB_Hooks_enum_creat@ 0000000180092808     idp.obj
 0002:00022850       ??_C@_0EG@CPFMGPJC@in?5method?5?8IDB_Hooks_deleting_e@ 0000000180092850     idp.obj
 0002:00022898       ??_C@_0DP@DLFJKLMH@in?5method?5?8IDB_Hooks_deleting_e@ 0000000180092898     idp.obj
 0002:000228e0       ??_C@_0EF@NFOAHOGP@in?5method?5?8IDB_Hooks_enum_delet@ 00000001800928e0     idp.obj
 0002:00022928       ??_C@_0DO@HHLMPNHE@in?5method?5?8IDB_Hooks_enum_delet@ 0000000180092928     idp.obj
 0002:00022970       ??_C@_0EG@FCMIPJGF@in?5method?5?8IDB_Hooks_renaming_e@ 0000000180092970     idp.obj
 0002:000229b8       ??_C@_0DP@LDOOCKHM@in?5method?5?8IDB_Hooks_renaming_e@ 00000001800929b8     idp.obj
 0002:000229f8       ??_C@_0DP@HEGDGFIP@in?5method?5?8IDB_Hooks_renaming_e@ 00000001800929f8     idp.obj
 0002:00022a40       ??_C@_0EH@HBIDCMCA@in?5method?5?8IDB_Hooks_renaming_e@ 0000000180092a40     idp.obj
 0002:00022a90       ??_C@_0EF@IJNLKDOK@in?5method?5?8IDB_Hooks_enum_renam@ 0000000180092a90     idp.obj
 0002:00022ad8       ??_C@_0DO@MCGENGGD@in?5method?5?8IDB_Hooks_enum_renam@ 0000000180092ad8     idp.obj
 0002:00022b20       ??_C@_0EJ@PBPKMJPB@in?5method?5?8IDB_Hooks_changing_e@ 0000000180092b20     idp.obj
 0002:00022b70       ??_C@_0EC@KILOBMLH@in?5method?5?8IDB_Hooks_changing_e@ 0000000180092b70     idp.obj
 0002:00022bc0       ??_C@_0EC@GPDDFDEE@in?5method?5?8IDB_Hooks_changing_e@ 0000000180092bc0     idp.obj
 0002:00022c10       ??_C@_0EI@KJAKOFDI@in?5method?5?8IDB_Hooks_enum_bf_ch@ 0000000180092c10     idp.obj
 0002:00022c60       ??_C@_0EB@NEEJEELB@in?5method?5?8IDB_Hooks_enum_bf_ch@ 0000000180092c60     idp.obj
 0002:00022cb0       ??_C@_0EK@CFHBMIFC@in?5method?5?8IDB_Hooks_changing_e@ 0000000180092cb0     idp.obj
 0002:00022d00       ??_C@_0ED@FPIHAHJA@in?5method?5?8IDB_Hooks_changing_e@ 0000000180092d00     idp.obj
 0002:00022d50       ??_C@_0ED@JIAKEIGD@in?5method?5?8IDB_Hooks_changing_e@ 0000000180092d50     idp.obj
 0002:00022da0       ??_C@_0EL@MJEJDABO@in?5method?5?8IDB_Hooks_changing_e@ 0000000180092da0     idp.obj
 0002:00022df0       ??_C@_0EJ@GBPOMMLJ@in?5method?5?8IDB_Hooks_enum_cmt_c@ 0000000180092df0     idp.obj
 0002:00022e40       ??_C@_0EC@BFNDHOHF@in?5method?5?8IDB_Hooks_enum_cmt_c@ 0000000180092e40     idp.obj
 0002:00022e90       ??_C@_0EC@NCFODBIG@in?5method?5?8IDB_Hooks_enum_cmt_c@ 0000000180092e90     idp.obj
 0002:00022ee0       ??_C@_0EM@NKKFCMOL@in?5method?5?8IDB_Hooks_enum_membe@ 0000000180092ee0     idp.obj
 0002:00022f30       ??_C@_0EF@FHGEHDJH@in?5method?5?8IDB_Hooks_enum_membe@ 0000000180092f30     idp.obj
 0002:00022f80       ??_C@_0EI@MDJHDHPA@in?5method?5?8IDB_Hooks_enum_membe@ 0000000180092f80     idp.obj
 0002:00022fd0       ??_C@_0EN@JHHMKINP@in?5method?5?8IDB_Hooks_deleting_e@ 0000000180092fd0     idp.obj
 0002:00023020       ??_C@_0EG@HPJIJLED@in?5method?5?8IDB_Hooks_deleting_e@ 0000000180093020     idp.obj
 0002:00023070       ??_C@_0EJ@GLLLGNOH@in?5method?5?8IDB_Hooks_deleting_e@ 0000000180093070     idp.obj
 0002:000230c0       ??_C@_0EM@DDJFOFP@in?5method?5?8IDB_Hooks_enum_membe@ 00000001800930c0     idp.obj
 0002:00023110       ??_C@_0EF@EHEMOEAF@in?5method?5?8IDB_Hooks_enum_membe@ 0000000180093110     idp.obj
 0002:00023160       ??_C@_0EI@DGLFOPFJ@in?5method?5?8IDB_Hooks_enum_membe@ 0000000180093160     idp.obj
 0002:000231b0       ??_C@_0EG@EGPJDMJD@in?5method?5?8IDB_Hooks_struc_crea@ 00000001800931b0     idp.obj
 0002:000231f8       ??_C@_0DP@OIBJHPFB@in?5method?5?8IDB_Hooks_struc_crea@ 00000001800931f8     idp.obj
 0002:00023240       ??_C@_0EH@GPHIFGBK@in?5method?5?8IDB_Hooks_deleting_s@ 0000000180093240     idp.obj
 0002:00023290       ??_C@_0EF@EOBBINPD@in?5method?5?8IDB_Hooks_deleting_s@ 0000000180093290     idp.obj
 0002:000232e0       ??_C@_0EG@JPGFEOCH@in?5method?5?8IDB_Hooks_struc_dele@ 00000001800932e0     idp.obj
 0002:00023328       ??_C@_0DP@PIDBOIMD@in?5method?5?8IDB_Hooks_struc_dele@ 0000000180093328     idp.obj
 0002:00023370       ??_C@_0EN@LFKKCLOC@in?5method?5?8IDB_Hooks_changing_s@ 0000000180093370     idp.obj
 0002:000233c0       ??_C@_0EL@DGDCMOEK@in?5method?5?8IDB_Hooks_changing_s@ 00000001800933c0     idp.obj
 0002:00023410       ??_C@_0EM@DPHNBPDK@in?5method?5?8IDB_Hooks_struc_alig@ 0000000180093410     idp.obj
 0002:00023460       ??_C@_0EK@HGANPNPD@in?5method?5?8IDB_Hooks_struc_alig@ 0000000180093460     idp.obj
 0002:000234b0       ??_C@_0EH@EMNMKFDD@in?5method?5?8IDB_Hooks_renaming_s@ 00000001800934b0     idp.obj
 0002:00023500       ??_C@_0EA@EINCGGC@in?5method?5?8IDB_Hooks_renaming_s@ 0000000180093500     idp.obj
 0002:00023540       ??_C@_0EI@DNMFDABF@in?5method?5?8IDB_Hooks_renaming_s@ 0000000180093540     idp.obj
 0002:00023590       ??_C@_0EI@PDJFMMLN@in?5method?5?8IDB_Hooks_renaming_s@ 0000000180093590     idp.obj
 0002:000235e0       ??_C@_0EG@MDFOJDKC@in?5method?5?8IDB_Hooks_struc_rena@ 00000001800935e0     idp.obj
 0002:00023630       ??_C@_0EE@MNFKBAHC@in?5method?5?8IDB_Hooks_struc_rena@ 0000000180093630     idp.obj
 0002:00023680       ??_C@_0EI@ODKOJIBA@in?5method?5?8IDB_Hooks_expanding_@ 0000000180093680     idp.obj
 0002:000236d0       ??_C@_0EG@PMLPMADE@in?5method?5?8IDB_Hooks_expanding_@ 00000001800936d0     idp.obj
 0002:00023720       ??_C@_0EB@MIIKGECD@in?5method?5?8IDB_Hooks_expanding_@ 0000000180093720     idp.obj
 0002:00023770       ??_C@_0EE@DINCOKAL@in?5method?5?8IDB_Hooks_expanding_@ 0000000180093770     idp.obj
 0002:000237c0       ??_C@_0EH@OEIKAFOJ@in?5method?5?8IDB_Hooks_struc_expa@ 00000001800937c0     idp.obj
 0002:00023810       ??_C@_0EF@MMBIIJNC@in?5method?5?8IDB_Hooks_struc_expa@ 0000000180093810     idp.obj
 0002:00023860       ??_C@_0EN@CEJEJHOD@in?5method?5?8IDB_Hooks_struc_memb@ 0000000180093860     idp.obj
 0002:000238b0       ??_C@_0EL@ODHLJLLE@in?5method?5?8IDB_Hooks_struc_memb@ 00000001800938b0     idp.obj
 0002:00023900       ??_C@_0EM@LGJEDKJJ@in?5method?5?8IDB_Hooks_struc_memb@ 0000000180093900     idp.obj
 0002:00023950       ??_C@_0EO@KAKFILNG@in?5method?5?8IDB_Hooks_deleting_s@ 0000000180093950     idp.obj
 0002:000239a0       ??_C@_0EM@NLAOHHGI@in?5method?5?8IDB_Hooks_deleting_s@ 00000001800939a0     idp.obj
 0002:000239f0       ??_C@_0EN@DJMJNBIK@in?5method?5?8IDB_Hooks_deleting_s@ 00000001800939f0     idp.obj
 0002:00023a40       ??_C@_0EN@PNAIOFFH@in?5method?5?8IDB_Hooks_struc_memb@ 0000000180093a40     idp.obj
 0002:00023a90       ??_C@_0EL@BELGDDNA@in?5method?5?8IDB_Hooks_struc_memb@ 0000000180093a90     idp.obj
 0002:00023ae0       ??_C@_0EG@IKGPBPAO@in?5method?5?8IDB_Hooks_struc_memb@ 0000000180093ae0     idp.obj
 0002:00023b30       ??_C@_0EG@KKPNGDEF@in?5method?5?8IDB_Hooks_struc_memb@ 0000000180093b30     idp.obj
 0002:00023b80       ??_C@_0EO@FOKGKFKI@in?5method?5?8IDB_Hooks_renaming_s@ 0000000180093b80     idp.obj
 0002:00023bd0       ??_C@_0EM@ODNEABIJ@in?5method?5?8IDB_Hooks_renaming_s@ 0000000180093bd0     idp.obj
 0002:00023c20       ??_C@_0EN@OOPMNJBC@in?5method?5?8IDB_Hooks_renaming_s@ 0000000180093c20     idp.obj
 0002:00023c70       ??_C@_0EP@JEFKPMHB@in?5method?5?8IDB_Hooks_renaming_s@ 0000000180093c70     idp.obj
 0002:00023cc0       ??_C@_0EN@KBDDDINC@in?5method?5?8IDB_Hooks_struc_memb@ 0000000180093cc0     idp.obj
 0002:00023d10       ??_C@_0EL@KLGNGOAI@in?5method?5?8IDB_Hooks_struc_memb@ 0000000180093d10     idp.obj
 0002:00023d60       ??_C@_0EM@HEALNDML@in?5method?5?8IDB_Hooks_struc_memb@ 0000000180093d60     idp.obj
 0002:00023db0       ??_C@_0EO@BBMONPF@in?5method?5?8IDB_Hooks_changing_s@ 0000000180093db0     idp.obj
 0002:00023e00       ??_C@_0EM@PDOACOLK@in?5method?5?8IDB_Hooks_changing_s@ 0000000180093e00     idp.obj
 0002:00023e50       ??_C@_0EN@FBDMIMCL@in?5method?5?8IDB_Hooks_changing_s@ 0000000180093e50     idp.obj
 0002:00023ea0       ??_C@_0EK@MNNHFIHO@in?5method?5?8IDB_Hooks_changing_s@ 0000000180093ea0     idp.obj
 0002:00023ef0       ??_C@_0FD@DKDDNPLO@in?5method?5?8IDB_Hooks_changing_s@ 0000000180093ef0     idp.obj
 0002:00023f50       ??_C@_0EK@KFOEFNLM@in?5method?5?8IDB_Hooks_changing_s@ 0000000180093f50     idp.obj
 0002:00023fa0       ??_C@_0EN@NBOEEKOE@in?5method?5?8IDB_Hooks_struc_memb@ 0000000180093fa0     idp.obj
 0002:00023ff0       ??_C@_0EL@JACGHHPI@in?5method?5?8IDB_Hooks_struc_memb@ 0000000180093ff0     idp.obj
 0002:00024040       ??_C@_0EM@MJINGKMO@in?5method?5?8IDB_Hooks_struc_memb@ 0000000180094040     idp.obj
 0002:00024090       ??_C@_0EL@MPENHKFG@in?5method?5?8IDB_Hooks_changing_s@ 0000000180094090     idp.obj
 0002:000240e0       ??_C@_0EE@MEJPDMOF@in?5method?5?8IDB_Hooks_changing_s@ 00000001800940e0     idp.obj
 0002:00024130       ??_C@_0EE@DBCHDBG@in?5method?5?8IDB_Hooks_changing_s@ 0000000180094130     idp.obj
 0002:00024180       ??_C@_0EM@MOMOMILF@in?5method?5?8IDB_Hooks_changing_s@ 0000000180094180     idp.obj
 0002:000241d0       ??_C@_0EK@MLMIJNHL@in?5method?5?8IDB_Hooks_struc_cmt_@ 00000001800941d0     idp.obj
 0002:00024220       ??_C@_0ED@HMLBBBHK@in?5method?5?8IDB_Hooks_struc_cmt_@ 0000000180094220     idp.obj
 0002:00024270       ??_C@_0ED@LLDMFOIJ@in?5method?5?8IDB_Hooks_struc_cmt_@ 0000000180094270     idp.obj
 0002:000242c0       ??_C@_0ED@PMOPJAPI@in?5method?5?8IDB_Hooks_segm_added@ 00000001800942c0     idp.obj
 0002:00024310       ??_C@_0ED@HGIIGACL@in?5method?5?8IDB_Hooks_segm_added@ 0000000180094310     idp.obj
 0002:00024360       ??_C@_0EG@DBFAEIOE@in?5method?5?8IDB_Hooks_deleting_s@ 0000000180094360     idp.obj
 0002:000243a8       ??_C@_0DP@INAHKKAG@in?5method?5?8IDB_Hooks_deleting_s@ 00000001800943a8     idp.obj
 0002:000243f0       ??_C@_0EF@BNNHAIPC@in?5method?5?8IDB_Hooks_segm_delet@ 00000001800943f0     idp.obj
 0002:00024438       ??_C@_0DO@MOMECFFK@in?5method?5?8IDB_Hooks_segm_delet@ 0000000180094438     idp.obj
 0002:00024478       ??_C@_0DO@EJGCOOBJ@in?5method?5?8IDB_Hooks_segm_delet@ 0000000180094478     idp.obj
 0002:000244c0       ??_C@_0EM@MHDMBKJJ@in?5method?5?8IDB_Hooks_changing_s@ 00000001800944c0     idp.obj
 0002:00024510       ??_C@_0EM@ENFLOKEK@in?5method?5?8IDB_Hooks_changing_s@ 0000000180094510     idp.obj
 0002:00024560       ??_C@_0EF@LEKOAMHM@in?5method?5?8IDB_Hooks_changing_s@ 0000000180094560     idp.obj
 0002:000245b0       ??_C@_0EE@MFFMFMCD@in?5method?5?8IDB_Hooks_changing_s@ 00000001800945b0     idp.obj
 0002:00024600       ??_C@_0EL@HHBFPDHJ@in?5method?5?8IDB_Hooks_segm_start@ 0000000180094600     idp.obj
 0002:00024650       ??_C@_0EL@PNHCADKK@in?5method?5?8IDB_Hooks_segm_start@ 0000000180094650     idp.obj
 0002:000246a0       ??_C@_0EE@CBBBPGBO@in?5method?5?8IDB_Hooks_segm_start@ 00000001800946a0     idp.obj
 0002:000246f0       ??_C@_0EK@FDAOHGHF@in?5method?5?8IDB_Hooks_changing_s@ 00000001800946f0     idp.obj
 0002:00024740       ??_C@_0EK@NJGJIGKG@in?5method?5?8IDB_Hooks_changing_s@ 0000000180094740     idp.obj
 0002:00024790       ??_C@_0ED@DLKDFLKK@in?5method?5?8IDB_Hooks_changing_s@ 0000000180094790     idp.obj
 0002:000247e0       ??_C@_0EC@KNJFHFPP@in?5method?5?8IDB_Hooks_changing_s@ 00000001800947e0     idp.obj
 0002:00024830       ??_C@_0EJ@GOOBDJHA@in?5method?5?8IDB_Hooks_segm_end_c@ 0000000180094830     idp.obj
 0002:00024880       ??_C@_0EJ@OEIGMJKD@in?5method?5?8IDB_Hooks_segm_end_c@ 0000000180094880     idp.obj
 0002:000248d0       ??_C@_0EC@DHAJHPOD@in?5method?5?8IDB_Hooks_segm_end_c@ 00000001800948d0     idp.obj
 0002:00024920       ??_C@_0EL@NIPJJELI@in?5method?5?8IDB_Hooks_changing_s@ 0000000180094920     idp.obj
 0002:00024970       ??_C@_0EL@FCJOGEGL@in?5method?5?8IDB_Hooks_changing_s@ 0000000180094970     idp.obj
 0002:000249c0       ??_C@_0EM@EHDLEPIM@in?5method?5?8IDB_Hooks_changing_s@ 00000001800949c0     idp.obj
 0002:00024a10       ??_C@_0EK@FNJGGNJD@in?5method?5?8IDB_Hooks_segm_name_@ 0000000180094a10     idp.obj
 0002:00024a60       ??_C@_0EK@NHPBJNEA@in?5method?5?8IDB_Hooks_segm_name_@ 0000000180094a60     idp.obj
 0002:00024ab0       ??_C@_0EL@OLACNJDF@in?5method?5?8IDB_Hooks_segm_name_@ 0000000180094ab0     idp.obj
 0002:00024b00       ??_C@_0EM@KKODDELN@in?5method?5?8IDB_Hooks_changing_s@ 0000000180094b00     idp.obj
 0002:00024b50       ??_C@_0EM@CAIEMEGO@in?5method?5?8IDB_Hooks_changing_s@ 0000000180094b50     idp.obj
 0002:00024ba0       ??_C@_0EL@BHGBMABC@in?5method?5?8IDB_Hooks_segm_class@ 0000000180094ba0     idp.obj
 0002:00024bf0       ??_C@_0EL@JNAGDAMB@in?5method?5?8IDB_Hooks_segm_class@ 0000000180094bf0     idp.obj
 0002:00024c40       ??_C@_0EM@HBPHJNCO@in?5method?5?8IDB_Hooks_segm_class@ 0000000180094c40     idp.obj
 0002:00024c90       ??_C@_0EL@KHMHCDPG@in?5method?5?8IDB_Hooks_segm_attrs@ 0000000180094c90     idp.obj
 0002:00024ce0       ??_C@_0EL@CNKANDCF@in?5method?5?8IDB_Hooks_segm_attrs@ 0000000180094ce0     idp.obj
 0002:00024d30       ??_C@_0ED@DJEAMLMB@in?5method?5?8IDB_Hooks_segm_moved@ 0000000180094d30     idp.obj
 0002:00024d78       ??_C@_0DM@GIHPIMPP@in?5method?5?8IDB_Hooks_segm_moved@ 0000000180094d78     idp.obj
 0002:00024db8       ??_C@_0DM@OPNJEHLM@in?5method?5?8IDB_Hooks_segm_moved@ 0000000180094db8     idp.obj
 0002:00024df8       ??_C@_0DP@MHJMOCMM@in?5method?5?8IDB_Hooks_segm_moved@ 0000000180094df8     idp.obj
 0002:00024e38       ??_C@_0DM@IMGHEAE@in?5method?5?8IDB_Hooks_segm_moved@ 0000000180094e38     idp.obj
 0002:00024e80       ??_C@_0EG@MGANEEIH@in?5method?5?8IDB_Hooks_allsegs_mo@ 0000000180094e80     idp.obj
 0002:00024ed0       ??_C@_0EO@LNFHOBGP@in?5method?5?8IDB_Hooks_allsegs_mo@ 0000000180094ed0     idp.obj
 0002:00024f20       ??_C@_0ED@LDONBAGP@in?5method?5?8IDB_Hooks_func_added@ 0000000180094f20     idp.obj
 0002:00024f70       ??_C@_0EA@CBEPKKON@in?5method?5?8IDB_Hooks_func_added@ 0000000180094f70     idp.obj
 0002:00024fb0       ??_C@_0EF@IFOGHPOI@in?5method?5?8IDB_Hooks_func_updat@ 0000000180094fb0     idp.obj
 0002:00025000       ??_C@_0EC@NPPOKMEK@in?5method?5?8IDB_Hooks_func_updat@ 0000000180095000     idp.obj
 0002:00025050       ??_C@_0EH@LDPPNGKI@in?5method?5?8IDB_Hooks_set_func_s@ 0000000180095050     idp.obj
 0002:000250a0       ??_C@_0EE@LOJKHKKJ@in?5method?5?8IDB_Hooks_set_func_s@ 00000001800950a0     idp.obj
 0002:000250f0       ??_C@_0EA@MDPBPEGN@in?5method?5?8IDB_Hooks_set_func_s@ 00000001800950f0     idp.obj
 0002:00025130       ??_C@_0EF@EKMCHALD@in?5method?5?8IDB_Hooks_set_func_e@ 0000000180095130     idp.obj
 0002:00025180       ??_C@_0EC@FMHANNNC@in?5method?5?8IDB_Hooks_set_func_e@ 0000000180095180     idp.obj
 0002:000251c8       ??_C@_0DO@JLGIELJH@in?5method?5?8IDB_Hooks_set_func_e@ 00000001800951c8     idp.obj
 0002:00025210       ??_C@_0EG@NLEJOBFO@in?5method?5?8IDB_Hooks_deleting_f@ 0000000180095210     idp.obj
 0002:00025260       ??_C@_0ED@DEKMAAOK@in?5method?5?8IDB_Hooks_deleting_f@ 0000000180095260     idp.obj
 0002:000252b0       ??_C@_0EG@GJBOFILA@in?5method?5?8IDB_Hooks_frame_dele@ 00000001800952b0     idp.obj
 0002:00025300       ??_C@_0ED@GIGGEIHB@in?5method?5?8IDB_Hooks_frame_dele@ 0000000180095300     idp.obj
 0002:00025350       ??_C@_0EL@KBFPJEHC@in?5method?5?8IDB_Hooks_thunk_func@ 0000000180095350     idp.obj
 0002:000253a0       ??_C@_0EI@OGOBIGPI@in?5method?5?8IDB_Hooks_thunk_func@ 00000001800953a0     idp.obj
 0002:000253f0       ??_C@_0EL@BOEDCNIC@in?5method?5?8IDB_Hooks_func_tail_@ 00000001800953f0     idp.obj
 0002:00025440       ??_C@_0EI@MMHHNAJL@in?5method?5?8IDB_Hooks_func_tail_@ 0000000180095440     idp.obj
 0002:00025490       ??_C@_0EI@FDKNFDAF@in?5method?5?8IDB_Hooks_func_tail_@ 0000000180095490     idp.obj
 0002:000254e0       ??_C@_0EL@OFOAPKMH@in?5method?5?8IDB_Hooks_deleting_f@ 00000001800954e0     idp.obj
 0002:00025530       ??_C@_0EI@NFLIHIFP@in?5method?5?8IDB_Hooks_deleting_f@ 0000000180095530     idp.obj
 0002:00025580       ??_C@_0EP@FJLCFIBI@in?5method?5?8IDB_Hooks_deleting_f@ 0000000180095580     idp.obj
 0002:000255d0       ??_C@_0EK@EHFEOMPM@in?5method?5?8IDB_Hooks_func_tail_@ 00000001800955d0     idp.obj
 0002:00025620       ??_C@_0EH@GDIJDLGE@in?5method?5?8IDB_Hooks_func_tail_@ 0000000180095620     idp.obj
 0002:00025670       ??_C@_0ED@CPHGIHDK@in?5method?5?8IDB_Hooks_func_tail_@ 0000000180095670     idp.obj
 0002:000256c0       ??_C@_0EL@JDJFLDNG@in?5method?5?8IDB_Hooks_tail_owner@ 00000001800956c0     idp.obj
 0002:00025710       ??_C@_0EI@PBBFKDKD@in?5method?5?8IDB_Hooks_tail_owner@ 0000000180095710     idp.obj
 0002:00025760       ??_C@_0EE@IDHHCGOI@in?5method?5?8IDB_Hooks_tail_owner@ 0000000180095760     idp.obj
 0002:000257b0       ??_C@_0EE@KDOFFKKD@in?5method?5?8IDB_Hooks_tail_owner@ 00000001800957b0     idp.obj
 0002:00025800       ??_C@_0EL@BJPAKGLO@in?5method?5?8IDB_Hooks_func_noret@ 0000000180095800     idp.obj
 0002:00025850       ??_C@_0EI@KDADGMIN@in?5method?5?8IDB_Hooks_func_noret@ 0000000180095850     idp.obj
 0002:000258a0       ??_C@_0EI@GPHLBEOK@in?5method?5?8IDB_Hooks_stkpnts_ch@ 00000001800958a0     idp.obj
 0002:000258f0       ??_C@_0EF@LGKEKIEN@in?5method?5?8IDB_Hooks_stkpnts_ch@ 00000001800958f0     idp.obj
 0002:00025940       ??_C@_0EJ@HLEGCJHN@in?5method?5?8IDB_Hooks_updating_t@ 0000000180095940     idp.obj
 0002:00025990       ??_C@_0EP@EEPMKEAH@in?5method?5?8IDB_Hooks_updating_t@ 0000000180095990     idp.obj
 0002:000259e0       ??_C@_0EI@FJJMKKJO@in?5method?5?8IDB_Hooks_tryblks_up@ 00000001800959e0     idp.obj
 0002:00025a30       ??_C@_0EO@FAEKMMBK@in?5method?5?8IDB_Hooks_tryblks_up@ 0000000180095a30     idp.obj
 0002:00025a80       ??_C@_0EJ@NDHOFGMC@in?5method?5?8IDB_Hooks_deleting_t@ 0000000180095a80     idp.obj
 0002:00025ad0       ??_C@_0EN@JPMDMDDO@in?5method?5?8IDB_Hooks_deleting_t@ 0000000180095ad0     idp.obj
 0002:00025b20       ??_C@_0EE@NMPOPDOO@in?5method?5?8IDB_Hooks_sgr_change@ 0000000180095b20     idp.obj
 0002:00025b68       ??_C@_0DN@BAAIGDED@in?5method?5?8IDB_Hooks_sgr_change@ 0000000180095b68     idp.obj
 0002:00025ba8       ??_C@_0DN@JHKOKIAA@in?5method?5?8IDB_Hooks_sgr_change@ 0000000180095ba8     idp.obj
 0002:00025be8       ??_C@_0DM@BMJPJPNE@in?5method?5?8IDB_Hooks_sgr_change@ 0000000180095be8     idp.obj
 0002:00025c28       ??_C@_0DO@LEPJDBCK@in?5method?5?8IDB_Hooks_sgr_change@ 0000000180095c28     idp.obj
 0002:00025c68       ??_C@_0DO@FOHPOMEI@in?5method?5?8IDB_Hooks_sgr_change@ 0000000180095c68     idp.obj
 0002:00025ca8       ??_C@_0DO@OFFNNJGO@in?5method?5?8IDB_Hooks_sgr_change@ 0000000180095ca8     idp.obj
 0002:00025cf0       ??_C@_0EC@HFPLGBEN@in?5method?5?8IDB_Hooks_make_code?8@ 0000000180095cf0     idp.obj
 0002:00025d40       ??_C@_0EF@IMJNEKAK@in?5method?5?8IDB_Hooks_make_code?8@ 0000000180095d40     idp.obj
 0002:00025d90       ??_C@_0EC@DBLLFPPE@in?5method?5?8IDB_Hooks_make_data?8@ 0000000180095d90     idp.obj
 0002:00025dd8       ??_C@_0DL@BFBDKFGE@in?5method?5?8IDB_Hooks_make_data?8@ 0000000180095dd8     idp.obj
 0002:00025e18       ??_C@_0DO@HFCBNCOF@in?5method?5?8IDB_Hooks_make_data?8@ 0000000180095e18     idp.obj
 0002:00025e58       ??_C@_0DL@LCCHBCGM@in?5method?5?8IDB_Hooks_make_data?8@ 0000000180095e58     idp.obj
 0002:00025e98       ??_C@_0DO@FDPPDMHO@in?5method?5?8IDB_Hooks_make_data?8@ 0000000180095e98     idp.obj
 0002:00025ee0       ??_C@_0EI@JLPJEPJE@in?5method?5?8IDB_Hooks_destroyed_@ 0000000180095ee0     idp.obj
 0002:00025f30       ??_C@_0EB@JKCNDJEO@in?5method?5?8IDB_Hooks_destroyed_@ 0000000180095f30     idp.obj
 0002:00025f80       ??_C@_0EB@BNILPCAN@in?5method?5?8IDB_Hooks_destroyed_@ 0000000180095f80     idp.obj
 0002:00025fd0       ??_C@_0EB@HNDCAKPG@in?5method?5?8IDB_Hooks_destroyed_@ 0000000180095fd0     idp.obj
 0002:00026020       ??_C@_0EA@GADCHFJE@in?5method?5?8IDB_Hooks_renamed?8?0?5@ 0000000180096020     idp.obj
 0002:00026060       ??_C@_0DJ@FNIKMPPN@in?5method?5?8IDB_Hooks_renamed?8?0?5@ 0000000180096060     idp.obj
 0002:000260a0       ??_C@_0EB@HFFLOIIO@in?5method?5?8IDB_Hooks_renamed?8?0?5@ 00000001800960a0     idp.obj
 0002:000260e8       ??_C@_0DJ@LKJFPMEF@in?5method?5?8IDB_Hooks_renamed?8?0?5@ 00000001800960e8     idp.obj
 0002:00026130       ??_C@_0EF@IPHLAGLM@in?5method?5?8IDB_Hooks_byte_patch@ 0000000180096130     idp.obj
 0002:00026178       ??_C@_0DO@MHMNNIMA@in?5method?5?8IDB_Hooks_byte_patch@ 0000000180096178     idp.obj
 0002:000261c0       ??_C@_0EA@DGDDCCCK@in?5method?5?8IDB_Hooks_byte_patch@ 00000001800961c0     idp.obj
 0002:00026200       ??_C@_0EF@LJNEFHFG@in?5method?5?8IDB_Hooks_changing_c@ 0000000180096200     idp.obj
 0002:00026248       ??_C@_0DO@MGAOEAIJ@in?5method?5?8IDB_Hooks_changing_c@ 0000000180096248     idp.obj
 0002:00026288       ??_C@_0DO@BIDAPHK@in?5method?5?8IDB_Hooks_changing_c@ 0000000180096288     idp.obj
 0002:000262d0       ??_C@_0EG@MOLIFBJI@in?5method?5?8IDB_Hooks_changing_c@ 00000001800962d0     idp.obj
 0002:00026320       ??_C@_0EE@DFHAEAON@in?5method?5?8IDB_Hooks_cmt_change@ 0000000180096320     idp.obj
 0002:00026368       ??_C@_0DN@PLPGCAKK@in?5method?5?8IDB_Hooks_cmt_change@ 0000000180096368     idp.obj
 0002:000263a8       ??_C@_0DN@DMHLGPFJ@in?5method?5?8IDB_Hooks_cmt_change@ 00000001800963a8     idp.obj
 0002:000263f0       ??_C@_0EL@IOLOBCGF@in?5method?5?8IDB_Hooks_changing_r@ 00000001800963f0     idp.obj
 0002:00026440       ??_C@_0EM@LADEOMIG@in?5method?5?8IDB_Hooks_changing_r@ 0000000180096440     idp.obj
 0002:00026490       ??_C@_0EP@OHHJMAIE@in?5method?5?8IDB_Hooks_changing_r@ 0000000180096490     idp.obj
 0002:000264e0       ??_C@_0EM@HBFPFKML@in?5method?5?8IDB_Hooks_changing_r@ 00000001800964e0     idp.obj
 0002:00026530       ??_C@_0EE@NMDKCECK@in?5method?5?8IDB_Hooks_changing_r@ 0000000180096530     idp.obj
 0002:00026580       ??_C@_0EK@IOEGNBCJ@in?5method?5?8IDB_Hooks_range_cmt_@ 0000000180096580     idp.obj
 0002:000265d0       ??_C@_0EL@MPFOBJPO@in?5method?5?8IDB_Hooks_range_cmt_@ 00000001800965d0     idp.obj
 0002:00026620       ??_C@_0EO@HJDHGEKN@in?5method?5?8IDB_Hooks_range_cmt_@ 0000000180096620     idp.obj
 0002:00026670       ??_C@_0EL@ODFKPLD@in?5method?5?8IDB_Hooks_range_cmt_@ 0000000180096670     idp.obj
 0002:000266c0       ??_C@_0ED@KDJJHLPP@in?5method?5?8IDB_Hooks_range_cmt_@ 00000001800966c0     idp.obj
 0002:00026710       ??_C@_0EK@CMEDAHKM@in?5method?5?8IDB_Hooks_extra_cmt_@ 0000000180096710     idp.obj
 0002:00026760       ??_C@_0ED@KCPNEMEA@in?5method?5?8IDB_Hooks_extra_cmt_@ 0000000180096760     idp.obj
 0002:000267b0       ??_C@_0EC@KJECEMBI@in?5method?5?8IDB_Hooks_extra_cmt_@ 00000001800967b0     idp.obj
 0002:00026800       ??_C@_0EL@JDEFNNMK@in?5method?5?8IDB_Hooks_extra_cmt_@ 0000000180096800     idp.obj
 0002:00026850       ??_C@_0EL@NMHFGCPA@in?5method?5?8IDB_Hooks_item_color@ 0000000180096850     idp.obj
 0002:000268a0       ??_C@_0EE@EGKCEJPG@in?5method?5?8IDB_Hooks_item_color@ 00000001800968a0     idp.obj
 0002:000268f0       ??_C@_0EJ@KBIBIOMG@in?5method?5?8IDB_Hooks_item_color@ 00000001800968f0     idp.obj
 0002:00026940       ??_C@_0EM@FEAJANLH@in?5method?5?8IDB_Hooks_callee_add@ 0000000180096940     idp.obj
 0002:00026990       ??_C@_0EF@IAGIFKO@in?5method?5?8IDB_Hooks_callee_add@ 0000000180096990     idp.obj
 0002:000269e0       ??_C@_0EF@IPKAEOON@in?5method?5?8IDB_Hooks_callee_add@ 00000001800969e0     idp.obj
 0002:00026a30       ??_C@_0EJ@GEDEGBPN@in?5method?5?8IDB_Hooks_bookmark_c@ 0000000180096a30     idp.obj
 0002:00026a80       ??_C@_0EE@HMCMPCEP@in?5method?5?8IDB_Hooks_bookmark_c@ 0000000180096a80     idp.obj
 0002:00026ad0       ??_C@_0FF@BCAJJOKI@in?5method?5?8IDB_Hooks_bookmark_c@ 0000000180096ad0     idp.obj
 0002:00026b30       ??_C@_0EK@IPGBMLMO@in?5method?5?8IDB_Hooks_bookmark_c@ 0000000180096b30     idp.obj
 0002:00026b80       ??_C@_0EE@PABCFMFN@in?5method?5?8IDB_Hooks_sgr_delete@ 0000000180096b80     idp.obj
 0002:00026bc8       ??_C@_0DN@GLKFGJMA@in?5method?5?8IDB_Hooks_sgr_delete@ 0000000180096bc8     idp.obj
 0002:00026c08       ??_C@_0DN@OMADKCID@in?5method?5?8IDB_Hooks_sgr_delete@ 0000000180096c08     idp.obj
 0002:00026c48       ??_C@_0DM@LOLCBO@in?5method?5?8IDB_Hooks_sgr_delete@ 0000000180096c48     idp.obj
 0002:00026c88       ??_C@_0DP@FJILCNLA@in?5method?5?8disown_IDB_Hooks?8?0?5a@ 0000000180096c88     idp.obj
 0002:00026cc8       ??_C@_0BI@JNLIJMPE@?$DMSwig?5global?5variables?$DO@ 0000000180096cc8     idp.obj
 0002:00026ce0       ??_C@_01ODHLEDKK@?$CI@     0000000180096ce0     idp.obj
 0002:00026ce4       ??_C@_02KEGNLNML@?0?5@     0000000180096ce4     idp.obj
 0002:00026ce8       ??_C@_01PKGAHCOL@?$CJ@     0000000180096ce8     idp.obj
 0002:00026cf0       ??_C@_0BP@NDJOEMD@Unknown?5C?5global?5variable?5?8?$CFs?8@ 0000000180096cf0     idp.obj
 0002:00026d10       ??_C@_0M@MKKPOLDM@swigvarlink@ 0000000180096d10     idp.obj
 0002:00026d20       ??_C@_08FLGEJAPG@_ida_idp@ 0000000180096d20     idp.obj
 0002:000274e0       ??_C@_0BG@EEOBMLK@IDP_INTERFACE_VERSION@ 00000001800974e0     idp.obj
 0002:000274f8       ??_C@_09OIJOMLLH@AS2_BRACE@ 00000001800974f8     idp.obj
 0002:00027508       ??_C@_0L@OKFENEIG@AS2_STRINV@ 0000000180097508     idp.obj
 0002:00027518       ??_C@_0O@KBAHJDEJ@AS2_BYTE1CHAR@ 0000000180097518     idp.obj
 0002:00027528       ??_C@_0O@MBDGBOMB@AS2_IDEALDSCR@ 0000000180097528     idp.obj
 0002:00027538       ??_C@_0N@DJGMMGEM@AS2_TERSESTR@ 0000000180097538     idp.obj
 0002:00027548       ??_C@_0N@HLEEFMDM@AS2_COLONSUF@ 0000000180097548     idp.obj
 0002:00027558       ??_C@_09KNEPDJKK@AS2_YWORD@ 0000000180097558     idp.obj
 0002:00027568       ??_C@_0M@GPHCKNFK@SETPROC_IDB@ 0000000180097568     idp.obj
 0002:00027578       ??_C@_0P@FBHMGDJO@SETPROC_LOADER@ 0000000180097578     idp.obj
 0002:00027588       ??_C@_0BJ@JCCMBPMC@SETPROC_LOADER_NON_FATAL@ 0000000180097588     idp.obj
 0002:000275a8       ??_C@_0N@GOMNPGLB@SETPROC_USER@ 00000001800975a8     idp.obj
 0002:000275b8       ??_C@_0L@BLMGFLLC@IDPOPT_CST@ 00000001800975b8     idp.obj
 0002:000275c8       ??_C@_0BD@PMMBEOLL@IDPOPT_PRI_DEFAULT@ 00000001800975c8     idp.obj
 0002:000275e0       ??_C@_0BA@CLMDJBMO@IDPOPT_PRI_HIGH@ 00000001800975e0     idp.obj
 0002:000275f0       ??_C@_0P@OENHPKOL@IDPOPT_NUM_INT@ 00000001800975f0     idp.obj
 0002:00027600       ??_C@_0BA@MKIHPFDK@IDPOPT_NUM_CHAR@ 0000000180097600     idp.obj
 0002:00027610       ??_C@_0BB@PLBILDLP@IDPOPT_NUM_SHORT@ 0000000180097610     idp.obj
 0002:00027628       ??_C@_0BB@MMNMCHIF@IDPOPT_NUM_RANGE@ 0000000180097628     idp.obj
 0002:00027640       ??_C@_0P@LBFJIEAL@IDPOPT_NUM_UNS@ 0000000180097640     idp.obj
 0002:00027650       ??_C@_0BA@PPPLBOKL@IDPOPT_BIT_UINT@ 0000000180097650     idp.obj
 0002:00027660       ??_C@_0BB@LMEAJIEO@IDPOPT_BIT_UCHAR@ 0000000180097660     idp.obj
 0002:00027678       ??_C@_0BC@KMAGMBPH@IDPOPT_BIT_USHORT@ 0000000180097678     idp.obj
 0002:00027690       ??_C@_0BA@ILIJPIIL@IDPOPT_BIT_BOOL@ 0000000180097690     idp.obj
 0002:000276a0       ??_C@_0BC@JILLKDJL@IDPOPT_BIT_INVRES@ 00000001800976a0     idp.obj
 0002:000276b8       ??_C@_0BD@JNALIJLF@IDPOPT_STR_QSTRING@ 00000001800976b8     idp.obj
 0002:000276d0       ??_C@_0BA@OJFKLCOE@IDPOPT_STR_LONG@ 00000001800976d0     idp.obj
 0002:000276e0       ??_C@_0BC@EDGDHKGB@IDPOPT_I64_RANGES@ 00000001800976e0     idp.obj
 0002:000276f8       ??_C@_0P@CNOPIHGD@IDPOPT_I64_UNS@ 00000001800976f8     idp.obj
 0002:00027708       ??_C@_08PJMEILGG@AS_OFFST@ 0000000180097708     idp.obj
 0002:00027718       ??_C@_08EJLKGJMH@AS_COLON@ 0000000180097718     idp.obj
 0002:00027728       ??_C@_08IOGEDBND@AS_UDATA@ 0000000180097728     idp.obj
 0002:00027738       ??_C@_08DEFMCEBN@AS_2CHRE@ 0000000180097738     idp.obj
 0002:00027748       ??_C@_08EILMOJKH@AS_NCHRE@ 0000000180097748     idp.obj
 0002:00027758       ??_C@_08EPDNAFOJ@AS_N2CHR@ 0000000180097758     idp.obj
 0002:00027768       ??_C@_08MMCMGDDK@AS_1TEXT@ 0000000180097768     idp.obj
 0002:00027778       ??_C@_08IFCIBHCN@AS_NHIAS@ 0000000180097778     idp.obj
 0002:00027788       ??_C@_08HNJKLBGL@AS_NCMAS@ 0000000180097788     idp.obj
 0002:00027798       ??_C@_08JCEKCJCB@AS_HEXFM@ 0000000180097798     idp.obj
 0002:000277a8       ??_C@_09NPMHHJFG@ASH_HEXF0@ 00000001800977a8     idp.obj
 0002:000277b8       ??_C@_09MGNMEIBH@ASH_HEXF1@ 00000001800977b8     idp.obj
 0002:000277c8       ??_C@_09ONPBBLNE@ASH_HEXF2@ 00000001800977c8     idp.obj
 0002:000277d8       ??_C@_09PEOKCKJF@ASH_HEXF3@ 00000001800977d8     idp.obj
 0002:000277e8       ??_C@_09LLKLLMFC@ASH_HEXF4@ 00000001800977e8     idp.obj
 0002:000277f8       ??_C@_09KCLAINBD@ASH_HEXF5@ 00000001800977f8     idp.obj
 0002:00027808       ??_C@_08GCJADJME@AS_DECFM@ 0000000180097808     idp.obj
 0002:00027818       ??_C@_09HILCHMPM@ASD_DECF0@ 0000000180097818     idp.obj
 0002:00027828       ??_C@_09GBKJENLN@ASD_DECF1@ 0000000180097828     idp.obj
 0002:00027838       ??_C@_09EKIEBOHO@ASD_DECF2@ 0000000180097838     idp.obj
 0002:00027848       ??_C@_09FDJPCPDP@ASD_DECF3@ 0000000180097848     idp.obj
 0002:00027858       ??_C@_08EKNJFDIB@AS_OCTFM@ 0000000180097858     idp.obj
 0002:00027868       ??_C@_09NJBAKOP@ASO_OCTF0@ 0000000180097868     idp.obj
 0002:00027878       ??_C@_09BEIKDLKO@ASO_OCTF1@ 0000000180097878     idp.obj
 0002:00027888       ??_C@_09DPKHGIGN@ASO_OCTF2@ 0000000180097888     idp.obj
 0002:00027898       ??_C@_09CGLMFJCM@ASO_OCTF3@ 0000000180097898     idp.obj
 0002:000278a8       ??_C@_09GJPNMPOL@ASO_OCTF4@ 00000001800978a8     idp.obj
 0002:000278b8       ??_C@_09HAOGPOKK@ASO_OCTF5@ 00000001800978b8     idp.obj
 0002:000278c8       ??_C@_09FLMLKNGJ@ASO_OCTF6@ 00000001800978c8     idp.obj
 0002:000278d8       ??_C@_09ECNAJMCI@ASO_OCTF7@ 00000001800978d8     idp.obj
 0002:000278e8       ??_C@_08IDFDOPAF@AS_BINFM@ 00000001800978e8     idp.obj
 0002:000278f8       ??_C@_09FPBOKDLK@ASB_BINF0@ 00000001800978f8     idp.obj
 0002:00027908       ??_C@_09EGAFJCPL@ASB_BINF1@ 0000000180097908     idp.obj
 0002:00027918       ??_C@_09GNCIMBDI@ASB_BINF2@ 0000000180097918     idp.obj
 0002:00027928       ??_C@_09HEDDPAHJ@ASB_BINF3@ 0000000180097928     idp.obj
 0002:00027938       ??_C@_09DLHCGGLO@ASB_BINF4@ 0000000180097938     idp.obj
 0002:00027948       ??_C@_09CCGJFHPP@ASB_BINF5@ 0000000180097948     idp.obj
 0002:00027958       ??_C@_08GDNDKLJL@AS_UNEQU@ 0000000180097958     idp.obj
 0002:00027968       ??_C@_09HJGMKABO@AS_ONEDUP@ 0000000180097968     idp.obj
 0002:00027978       ??_C@_08PGHIAAPK@AS_NOXRF@ 0000000180097978     idp.obj
 0002:00027988       ??_C@_0M@IFHFJFOM@AS_XTRNTYPE@ 0000000180097988     idp.obj
 0002:00027998       ??_C@_09NFHMKAIE@AS_RELSUP@ 0000000180097998     idp.obj
 0002:000279a8       ??_C@_09INELPKDL@AS_LALIGN@ 00000001800979a8     idp.obj
 0002:000279b8       ??_C@_0N@DODLBFKJ@AS_NOCODECLN@ 00000001800979b8     idp.obj
 0002:000279c8       ??_C@_0L@JMFBOMIM@AS_NOSPACE@ 00000001800979c8     idp.obj
 0002:000279d8       ??_C@_09PEGGHNBD@AS_ALIGN2@ 00000001800979d8     idp.obj
 0002:000279e8       ??_C@_09JPOCPMPN@AS_ASCIIC@ 00000001800979e8     idp.obj
 0002:000279f8       ??_C@_09EOCFFOF@AS_ASCIIZ@ 00000001800979f8     idp.obj
 0002:00027a08       ??_C@_0CA@CMAAGIH@Failure?5to?5create?5SWIG?5globals?4@ 0000000180097a08     idp.obj
 0002:00027a28       ??_C@_04PNAHEAFM@cvar@     0000000180097a28     idp.obj
 0002:00027a30       ??_C@_03KGLCIHCD@ash@      0000000180097a30     idp.obj
 0002:00027a34       ?nullstr@?1??c_str@?$_qstring@D@@QEBAPEBDXZ@4QBDB 0000000180097a34     idp.obj
 0002:00027a38       ??_C@_0BA@JFNIOLAK@string?5too?5long@ 0000000180097a38     idp.obj
 0002:00027a48       ??_C@_0BE@JONHPENG@map?1set?$DMT?$DO?5too?5long@ 0000000180097a48     idp.obj
 0002:00027a60       __xmm@000000000000000f0000000000000000 0000000180097a60     idp.obj
 0002:00027aa0       ??_C@_1EC@JIJBPKFM@?$AAa?$AAp?$AAi?$AA?9?$AAm?$AAs?$AA?9?$AAw?$AAi?$AAn?$AA?9?$AAc?$AAo?$AAr?$AAe@ 0000000180097aa0     MSVCRT:thread_safe_statics.obj
 0002:00027ae8       ??_C@_1BK@MGMFAEKH@?$AAk?$AAe?$AAr?$AAn?$AAe?$AAl?$AA3?$AA2?$AA?4?$AAd?$AAl?$AAl@ 0000000180097ae8     MSVCRT:thread_safe_statics.obj
 0002:00027b08       ??_C@_0BM@HLJJNPAH@InitializeConditionVariable@ 0000000180097b08     MSVCRT:thread_safe_statics.obj
 0002:00027b28       ??_C@_0BJ@JEBJOJFJ@SleepConditionVariableCS@ 0000000180097b28     MSVCRT:thread_safe_statics.obj
 0002:00027b48       ??_C@_0BJ@PGPPEPCC@WakeAllConditionVariable@ 0000000180097b48     MSVCRT:thread_safe_statics.obj
 0002:00027b70       ??_7type_info@@6B@         0000000180097b70     MSVCRT:std_type_info_static.obj
 0002:00027b78       _pRawDllMain               0000000180097b78     MSVCRT:dll_dllmain.obj
 0002:00027b78       _pDefaultRawDllMain        0000000180097b78     MSVCRT:dll_dllmain.obj
 0002:00027b88       ??_7bad_alloc@std@@6B@     0000000180097b88     MSVCRT:throw_bad_alloc.obj
 0002:00027b98       ??_C@_0P@GHFPNOJB@bad?5allocation@ 0000000180097b98     MSVCRT:throw_bad_alloc.obj
 0002:00027bb0       ??_7bad_array_new_length@std@@6B@ 0000000180097bb0     MSVCRT:throw_bad_alloc.obj
 0002:00027bc0       ??_C@_0BF@KINCDENJ@bad?5array?5new?5length@ 0000000180097bc0     MSVCRT:throw_bad_alloc.obj
 0002:00027c50       _load_config_used          0000000180097c50     MSVCRT:loadcfg.obj
 0002:00027d50       _tls_used                  0000000180097d50     MSVCRT:tlssup.obj
 0002:00027d78       ??_R4exception@std@@6B@    0000000180097d78     idp.obj
 0002:00027da0       ??_R3exception@std@@8      0000000180097da0     idp.obj
 0002:00027db8       ??_R2exception@std@@8      0000000180097db8     idp.obj
 0002:00027dc8       ??_R1A@?0A@EA@exception@std@@8 0000000180097dc8     idp.obj
 0002:00027df0       ??_R4Director@Swig@@6B@    0000000180097df0     idp.obj
 0002:00027e18       ??_R3Director@Swig@@8      0000000180097e18     idp.obj
 0002:00027e30       ??_R2Director@Swig@@8      0000000180097e30     idp.obj
 0002:00027e40       ??_R1A@?0A@EA@Director@Swig@@8 0000000180097e40     idp.obj
 0002:00027e68       ??_R4DirectorException@Swig@@6B@ 0000000180097e68     idp.obj
 0002:00027e90       ??_R3DirectorException@Swig@@8 0000000180097e90     idp.obj
 0002:00027ea8       ??_R2DirectorException@Swig@@8 0000000180097ea8     idp.obj
 0002:00027ec0       ??_R1A@?0A@EA@DirectorException@Swig@@8 0000000180097ec0     idp.obj
 0002:00027ee8       ??_R4DirectorTypeMismatchException@Swig@@6B@ 0000000180097ee8     idp.obj
 0002:00027f10       ??_R3DirectorTypeMismatchException@Swig@@8 0000000180097f10     idp.obj
 0002:00027f28       ??_R2DirectorTypeMismatchException@Swig@@8 0000000180097f28     idp.obj
 0002:00027f48       ??_R1A@?0A@EA@DirectorTypeMismatchException@Swig@@8 0000000180097f48     idp.obj
 0002:00027f70       ??_R4DirectorMethodException@Swig@@6B@ 0000000180097f70     idp.obj
 0002:00027f98       ??_R3DirectorMethodException@Swig@@8 0000000180097f98     idp.obj
 0002:00027fb0       ??_R2DirectorMethodException@Swig@@8 0000000180097fb0     idp.obj
 0002:00027fd0       ??_R1A@?0A@EA@DirectorMethodException@Swig@@8 0000000180097fd0     idp.obj
 0002:00027ff8       ??_R4IDP_Hooks@@6B@        0000000180097ff8     idp.obj
 0002:00028020       ??_R3IDP_Hooks@@8          0000000180098020     idp.obj
 0002:00028038       ??_R2IDP_Hooks@@8          0000000180098038     idp.obj
 0002:00028048       ??_R1A@?0A@EA@IDP_Hooks@@8 0000000180098048     idp.obj
 0002:00028070       ??_R4IDB_Hooks@@6B@        0000000180098070     idp.obj
 0002:00028098       ??_R3IDB_Hooks@@8          0000000180098098     idp.obj
 0002:000280b0       ??_R2IDB_Hooks@@8          00000001800980b0     idp.obj
 0002:000280c0       ??_R1A@?0A@EA@IDB_Hooks@@8 00000001800980c0     idp.obj
 0002:000280e8       ??_R4SwigDirector_IDP_Hooks@@6BIDP_Hooks@@@ 00000001800980e8     idp.obj
 0002:00028110       ??_R3SwigDirector_IDP_Hooks@@8 0000000180098110     idp.obj
 0002:00028128       ??_R2SwigDirector_IDP_Hooks@@8 0000000180098128     idp.obj
 0002:00028148       ??_R1A@?0A@EA@SwigDirector_IDP_Hooks@@8 0000000180098148     idp.obj
 0002:00028170       ??_R17?0A@EA@Director@Swig@@8 0000000180098170     idp.obj
 0002:00028198       ??_R4SwigDirector_IDP_Hooks@@6BDirector@Swig@@@ 0000000180098198     idp.obj
 0002:000281c0       ??_R4SwigDirector_IDB_Hooks@@6BIDB_Hooks@@@ 00000001800981c0     idp.obj
 0002:000281e8       ??_R3SwigDirector_IDB_Hooks@@8 00000001800981e8     idp.obj
 0002:00028200       ??_R2SwigDirector_IDB_Hooks@@8 0000000180098200     idp.obj
 0002:00028220       ??_R1A@?0A@EA@SwigDirector_IDB_Hooks@@8 0000000180098220     idp.obj
 0002:00028248       ??_R4SwigDirector_IDB_Hooks@@6BDirector@Swig@@@ 0000000180098248     idp.obj
 0002:00028270       ??_R4type_info@@6B@        0000000180098270     MSVCRT:std_type_info_static.obj
 0002:00028298       ??_R3type_info@@8          0000000180098298     MSVCRT:std_type_info_static.obj
 0002:000282b0       ??_R2type_info@@8          00000001800982b0     MSVCRT:std_type_info_static.obj
 0002:000282c0       ??_R1A@?0A@EA@type_info@@8 00000001800982c0     MSVCRT:std_type_info_static.obj
 0002:000282e8       ??_R4bad_alloc@std@@6B@    00000001800982e8     MSVCRT:throw_bad_alloc.obj
 0002:00028310       ??_R3bad_alloc@std@@8      0000000180098310     MSVCRT:throw_bad_alloc.obj
 0002:00028328       ??_R2bad_alloc@std@@8      0000000180098328     MSVCRT:throw_bad_alloc.obj
 0002:00028340       ??_R1A@?0A@EA@bad_alloc@std@@8 0000000180098340     MSVCRT:throw_bad_alloc.obj
 0002:00028368       ??_R4bad_array_new_length@std@@6B@ 0000000180098368     MSVCRT:throw_bad_alloc.obj
 0002:00028390       ??_R3bad_array_new_length@std@@8 0000000180098390     MSVCRT:throw_bad_alloc.obj
 0002:000283a8       ??_R2bad_array_new_length@std@@8 00000001800983a8     MSVCRT:throw_bad_alloc.obj
 0002:000283c8       ??_R1A@?0A@EA@bad_array_new_length@std@@8 00000001800983c8     MSVCRT:throw_bad_alloc.obj
 0002:00028710       __rtc_iaa                  0000000180098710     MSVCRT:initsect.obj
 0002:00028718       __rtc_izz                  0000000180098718     MSVCRT:initsect.obj
 0002:00028720       __rtc_taa                  0000000180098720     MSVCRT:initsect.obj
 0002:00028728       __rtc_tzz                  0000000180098728     MSVCRT:initsect.obj
 0002:00028730       _tls_start                 0000000180098730     MSVCRT:tlssup.obj
 0002:00028734       _Init_thread_epoch         0000000180098734     MSVCRT:thread_safe_statics.obj
 0002:00028738       _tls_end                   0000000180098738     MSVCRT:tlssup.obj
 0002:0003eae8       _CT??_R0?AVexception@std@@@8??0exception@std@@QEAA@AEBV01@@Z24 00000001800aeae8     idp.obj
 0002:0003eb10       _TI2?AVDirectorException@Swig@@ 00000001800aeb10     idp.obj
 0002:0003eb30       _CTA2?AVDirectorException@Swig@@ 00000001800aeb30     idp.obj
 0002:0003eb48       _CT??_R0?AVDirectorException@Swig@@@8??0DirectorException@Swig@@QEAA@AEBV01@@Z56 00000001800aeb48     idp.obj
 0002:0003eb70       _TI3?AVDirectorTypeMismatchException@Swig@@ 00000001800aeb70     idp.obj
 0002:0003eb90       _CTA3?AVDirectorTypeMismatchException@Swig@@ 00000001800aeb90     idp.obj
 0002:0003ebb0       _CT??_R0?AVDirectorTypeMismatchException@Swig@@@8??0DirectorTypeMismatchException@Swig@@QEAA@AEBV01@@Z56 00000001800aebb0     idp.obj
 0002:0003ebd8       _TI3?AVDirectorMethodException@Swig@@ 00000001800aebd8     idp.obj
 0002:0003ebf8       _CTA3?AVDirectorMethodException@Swig@@ 00000001800aebf8     idp.obj
 0002:0003ec18       _CT??_R0?AVDirectorMethodException@Swig@@@8??0DirectorMethodException@Swig@@QEAA@AEBV01@@Z56 00000001800aec18     idp.obj
 0002:0003ec40       _TI2?AVbad_alloc@std@@     00000001800aec40     MSVCRT:throw_bad_alloc.obj
 0002:0003ec60       _CTA2?AVbad_alloc@std@@    00000001800aec60     MSVCRT:throw_bad_alloc.obj
 0002:0003ec78       _CT??_R0?AVbad_alloc@std@@@8??0bad_alloc@std@@QEAA@AEBV01@@Z24 00000001800aec78     MSVCRT:throw_bad_alloc.obj
 0002:0003eca0       _TI3?AVbad_array_new_length@std@@ 00000001800aeca0     MSVCRT:throw_bad_alloc.obj
 0002:0003ecc0       _CTA3?AVbad_array_new_length@std@@ 00000001800aecc0     MSVCRT:throw_bad_alloc.obj
 0002:0003ece0       _CT??_R0?AVbad_array_new_length@std@@@8??0bad_array_new_length@std@@QEAA@AEBV01@@Z24 00000001800aece0     MSVCRT:throw_bad_alloc.obj
 0002:0003ed60       __IMPORT_DESCRIPTOR_ida    00000001800aed60     ida:ida.dll
 0002:0003ed74       __IMPORT_DESCRIPTOR_python38 00000001800aed74     python38:python38.dll
 0002:0003ed88       __IMPORT_DESCRIPTOR_python 00000001800aed88     python:python.dll
 0002:0003ed9c       __IMPORT_DESCRIPTOR_MSVCP140 00000001800aed9c     msvcprt:MSVCP140.dll
 0002:0003edb0       __IMPORT_DESCRIPTOR_KERNEL32 00000001800aedb0     kernel32:KERNEL32.dll
 0002:0003edc4       __IMPORT_DESCRIPTOR_VCRUNTIME140 00000001800aedc4     vcruntime:VCRUNTIME140.dll
 0002:0003edd8       __IMPORT_DESCRIPTOR_api-ms-win-crt-runtime-l1-1-0 00000001800aedd8     ucrt:api-ms-win-crt-runtime-l1-1-0.dll
 0002:0003edec       __IMPORT_DESCRIPTOR_api-ms-win-crt-stdio-l1-1-0 00000001800aedec     ucrt:api-ms-win-crt-stdio-l1-1-0.dll
 0002:0003ee00       __IMPORT_DESCRIPTOR_api-ms-win-crt-string-l1-1-0 00000001800aee00     ucrt:api-ms-win-crt-string-l1-1-0.dll
 0002:0003ee14       __IMPORT_DESCRIPTOR_api-ms-win-crt-heap-l1-1-0 00000001800aee14     ucrt:api-ms-win-crt-heap-l1-1-0.dll
 0002:0003ee28       __NULL_IMPORT_DESCRIPTOR   00000001800aee28     ida:ida.dll
 0003:00006b98       __scrt_native_dllmain_reason 00000001800b7b98     MSVCRT:utility.obj
 0003:00006b9c       _Init_global_epoch         00000001800b7b9c     MSVCRT:thread_safe_statics.obj
 0003:00006ba0       __security_cookie_complement 00000001800b7ba0     MSVCRT:gs_cookie.obj
 0003:00006ba8       __security_cookie          00000001800b7ba8     MSVCRT:gs_cookie.obj
 0003:00006bb0       __isa_available            00000001800b7bb0     MSVCRT:cpu_disp.obj
 0003:00006bb4       __isa_enabled              00000001800b7bb4     MSVCRT:cpu_disp.obj
 0003:00006bb8       __memcpy_nt_iters          00000001800b7bb8     MSVCRT:cpu_disp.obj
 0003:00006bc0       __scrt_ucrt_dll_is_in_use  00000001800b7bc0     MSVCRT:ucrt_stubs.obj
 0003:00006bc8       ??_R0?AVexception@std@@@8  00000001800b7bc8     idp.obj
 0003:00006bf0       ??_R0?AVDirectorException@Swig@@@8 00000001800b7bf0     idp.obj
 0003:00006c20       ??_R0?AVDirectorTypeMismatchException@Swig@@@8 00000001800b7c20     idp.obj
 0003:00006c60       ??_R0?AVDirectorMethodException@Swig@@@8 00000001800b7c60     idp.obj
 0003:00006c98       ??_R0?AVbad_alloc@std@@@8  00000001800b7c98     idp.obj
 0003:00006cc0       ??_R0?AVout_of_range@std@@@8 00000001800b7cc0     idp.obj
 0003:00006ce8       ??_R0?AUinterr_exc_t@@@8   00000001800b7ce8     idp.obj
 0003:00006d10       ??_R0?AVDirector@Swig@@@8  00000001800b7d10     idp.obj
 0003:00006d38       ??_R0?AVIDP_Hooks@@@8      00000001800b7d38     idp.obj
 0003:00006d58       ??_R0?AVIDB_Hooks@@@8      00000001800b7d58     idp.obj
 0003:00006d78       ??_R0?AVSwigDirector_IDP_Hooks@@@8 00000001800b7d78     idp.obj
 0003:00006da8       ??_R0?AVSwigDirector_IDB_Hooks@@@8 00000001800b7da8     idp.obj
 0003:00006dd8       ??_R0?AVtype_info@@@8      00000001800b7dd8     MSVCRT:std_type_info_static.obj
 0003:00006df8       ??_R0?AVbad_array_new_length@std@@@8 00000001800b7df8     MSVCRT:throw_bad_alloc.obj
 0003:00006e30       ?swig_mutex_own@Director@Swig@@0U_RTL_CRITICAL_SECTION@2@A 00000001800b7e30     idp.obj
 0003:00007220       ?_OptionsStorage@?1??__local_stdio_printf_options@@9@4_KA 00000001800b8220     idp.obj
 0003:00007290       __scrt_current_native_startup_state 00000001800b8290     MSVCRT:utility.obj
 0003:00007298       __scrt_native_startup_lock 00000001800b8298     MSVCRT:utility.obj
 0003:00007320       _tls_index                 00000001800b8320     MSVCRT:tlssup.obj
 0003:00007328       __favor                    00000001800b8328     MSVCRT:cpu_disp.obj
 0003:0000732c       __scrt_debugger_hook_flag  00000001800b832c     MSVCRT:utility_desktop.obj
 0003:000078a0       ?__type_info_root_node@@3U__type_info_node@@A 00000001800b88a0     MSVCRT:tncleanup.obj
 0003:000078b0       ?_OptionsStorage@?1??__local_stdio_scanf_options@@9@4_KA 00000001800b88b0     MSVCRT:default_local_stdio_options.obj
 0003:000078b8       __dyn_tls_init_callback    00000001800b88b8     <common>

 entry point at        0001:00058ee0

 Static symbols

 0000:fff3c000       .debug$S                   0000000180000000     ida:ida.dll
 0000:fff3c000       .debug$S                   0000000180000000     ida:ida.dll
 0000:fff3c000       .debug$S                   0000000180000000     ida:ida.dll
 0000:fff3c000       .debug$S                   0000000180000000     ida:ida.dll
 0000:fff3c000       .debug$S                   0000000180000000     ida:ida.dll
 0000:fff3c000       .debug$S                   0000000180000000     _ida_idp.exp
 0000:fff3c000       .debug$S                   0000000180000000     ida:ida.dll
 0000:fff3c000       .debug$S                   0000000180000000     ida:ida.dll
 0000:fff3c000       .debug$S                   0000000180000000     ida:ida.dll
 0000:fff3c000       .debug$S                   0000000180000000     ida:ida.dll
 0000:fff3c000       .debug$S                   0000000180000000     ida:ida.dll
 0000:fff3c000       .debug$S                   0000000180000000     ucrt:api-ms-win-crt-runtime-l1-1-0.dll
 0000:fff3c000       .debug$S                   0000000180000000     ucrt:api-ms-win-crt-runtime-l1-1-0.dll
 0000:fff3c000       .debug$S                   0000000180000000     ucrt:api-ms-win-crt-runtime-l1-1-0.dll
 0000:fff3c000       .debug$S                   0000000180000000     ucrt:api-ms-win-crt-runtime-l1-1-0.dll
 0000:fff3c000       .debug$S                   0000000180000000     ucrt:api-ms-win-crt-runtime-l1-1-0.dll
 0000:fff3c000       .debug$S                   0000000180000000     ucrt:api-ms-win-crt-runtime-l1-1-0.dll
 0000:fff3c000       .debug$S                   0000000180000000     ucrt:api-ms-win-crt-runtime-l1-1-0.dll
 0000:fff3c000       .debug$S                   0000000180000000     ucrt:api-ms-win-crt-runtime-l1-1-0.dll
 0000:fff3c000       .debug$S                   0000000180000000     ucrt:api-ms-win-crt-runtime-l1-1-0.dll
 0000:fff3c000       .debug$S                   0000000180000000     ucrt:api-ms-win-crt-runtime-l1-1-0.dll
 0000:fff3c000       .debug$S                   0000000180000000     ucrt:api-ms-win-crt-runtime-l1-1-0.dll
 0000:fff3c000       .debug$S                   0000000180000000     ucrt:api-ms-win-crt-runtime-l1-1-0.dll
 0000:fff3c000       .debug$S                   0000000180000000     ucrt:api-ms-win-crt-heap-l1-1-0.dll
 0000:fff3c000       .debug$S                   0000000180000000     ucrt:api-ms-win-crt-heap-l1-1-0.dll
 0000:fff3c000       .debug$S                   0000000180000000     ucrt:api-ms-win-crt-heap-l1-1-0.dll
 0000:fff3c000       .debug$S                   0000000180000000     ucrt:api-ms-win-crt-string-l1-1-0.dll
 0000:fff3c000       .debug$S                   0000000180000000     ucrt:api-ms-win-crt-string-l1-1-0.dll
 0000:fff3c000       .debug$S                   0000000180000000     ucrt:api-ms-win-crt-string-l1-1-0.dll
 0000:fff3c000       .debug$S                   0000000180000000     ucrt:api-ms-win-crt-stdio-l1-1-0.dll
 0000:fff3c000       .debug$S                   0000000180000000     ucrt:api-ms-win-crt-stdio-l1-1-0.dll
 0000:fff3c000       .debug$S                   0000000180000000     ucrt:api-ms-win-crt-runtime-l1-1-0.dll
 0000:fff3c000       .debug$S                   0000000180000000     ida:ida.dll
 0000:fff3c000       .debug$S                   0000000180000000     vcruntime:VCRUNTIME140.dll
 0000:fff3c000       .debug$S                   0000000180000000     vcruntime:VCRUNTIME140.dll
 0000:fff3c000       .debug$S                   0000000180000000     vcruntime:VCRUNTIME140.dll
 0000:fff3c000       .debug$S                   0000000180000000     vcruntime:VCRUNTIME140.dll
 0000:fff3c000       .debug$S                   0000000180000000     vcruntime:VCRUNTIME140.dll
 0000:fff3c000       .debug$S                   0000000180000000     vcruntime:VCRUNTIME140.dll
 0000:fff3c000       .debug$S                   0000000180000000     vcruntime:VCRUNTIME140.dll
 0000:fff3c000       .debug$S                   0000000180000000     vcruntime:VCRUNTIME140.dll
 0000:fff3c000       .debug$S                   0000000180000000     vcruntime:VCRUNTIME140.dll
 0000:fff3c000       .debug$S                   0000000180000000     vcruntime:VCRUNTIME140.dll
 0000:fff3c000       .debug$S                   0000000180000000     vcruntime:VCRUNTIME140.dll
 0000:fff3c000       .debug$S                   0000000180000000     vcruntime:VCRUNTIME140.dll
 0000:fff3c000       .debug$S                   0000000180000000     ida:ida.dll
 0000:fff3c000       .debug$S                   0000000180000000     kernel32:KERNEL32.dll
 0000:fff3c000       .debug$S                   0000000180000000     kernel32:KERNEL32.dll
 0000:fff3c000       .debug$S                   0000000180000000     kernel32:KERNEL32.dll
 0000:fff3c000       .debug$S                   0000000180000000     kernel32:KERNEL32.dll
 0000:fff3c000       .debug$S                   0000000180000000     kernel32:KERNEL32.dll
 0000:fff3c000       .debug$S                   0000000180000000     kernel32:KERNEL32.dll
 0000:fff3c000       .debug$S                   0000000180000000     kernel32:KERNEL32.dll
 0000:fff3c000       .debug$S                   0000000180000000     kernel32:KERNEL32.dll
 0000:fff3c000       .debug$S                   0000000180000000     kernel32:KERNEL32.dll
 0000:fff3c000       .debug$S                   0000000180000000     kernel32:KERNEL32.dll
 0000:fff3c000       .debug$S                   0000000180000000     kernel32:KERNEL32.dll
 0000:fff3c000       .debug$S                   0000000180000000     kernel32:KERNEL32.dll
 0000:fff3c000       .debug$S                   0000000180000000     kernel32:KERNEL32.dll
 0000:fff3c000       .debug$S                   0000000180000000     kernel32:KERNEL32.dll
 0000:fff3c000       .debug$S                   0000000180000000     kernel32:KERNEL32.dll
 0000:fff3c000       .debug$S                   0000000180000000     kernel32:KERNEL32.dll
 0000:fff3c000       .debug$S                   0000000180000000     kernel32:KERNEL32.dll
 0000:fff3c000       .debug$S                   0000000180000000     kernel32:KERNEL32.dll
 0000:fff3c000       .debug$S                   0000000180000000     kernel32:KERNEL32.dll
 0000:fff3c000       .debug$S                   0000000180000000     kernel32:KERNEL32.dll
 0000:fff3c000       .debug$S                   0000000180000000     kernel32:KERNEL32.dll
 0000:fff3c000       .debug$S                   0000000180000000     kernel32:KERNEL32.dll
 0000:fff3c000       .debug$S                   0000000180000000     kernel32:KERNEL32.dll
 0000:fff3c000       .debug$S                   0000000180000000     kernel32:KERNEL32.dll
 0000:fff3c000       .debug$S                   0000000180000000     kernel32:KERNEL32.dll
 0000:fff3c000       .debug$S                   0000000180000000     kernel32:KERNEL32.dll
 0000:fff3c000       .debug$S                   0000000180000000     kernel32:KERNEL32.dll
 0000:fff3c000       .debug$S                   0000000180000000     ida:ida.dll
 0000:fff3c000       .debug$S                   0000000180000000     ida:ida.dll
 0000:fff3c000       .debug$S                   0000000180000000     ida:ida.dll
 0000:fff3c000       .debug$S                   0000000180000000     ida:ida.dll
 0000:fff3c000       .debug$S                   0000000180000000     ida:ida.dll
 0000:fff3c000       .debug$S                   0000000180000000     ida:ida.dll
 0000:fff3c000       .debug$S                   0000000180000000     ida:ida.dll
 0000:fff3c000       .debug$S                   0000000180000000     ida:ida.dll
 0000:fff3c000       .debug$S                   0000000180000000     ida:ida.dll
 0000:fff3c000       .debug$S                   0000000180000000     ida:ida.dll
 0000:fff3c000       .debug$S                   0000000180000000     ida:ida.dll
 0000:fff3c000       .debug$S                   0000000180000000     ida:ida.dll
 0000:fff3c000       .debug$S                   0000000180000000     python:python.dll
 0000:fff3c000       .debug$S                   0000000180000000     ida:ida.dll
 0000:fff3c000       .debug$S                   0000000180000000     ida:ida.dll
 0000:fff3c000       .debug$S                   0000000180000000     ida:ida.dll
 0000:fff3c000       .debug$S                   0000000180000000     ida:ida.dll
 0000:fff3c000       .debug$S                   0000000180000000     python38:python38.dll
 0000:fff3c000       .debug$S                   0000000180000000     python38:python38.dll
 0000:fff3c000       .debug$S                   0000000180000000     python38:python38.dll
 0000:fff3c000       .debug$S                   0000000180000000     python38:python38.dll
 0000:fff3c000       .debug$S                   0000000180000000     python38:python38.dll
 0000:fff3c000       .debug$S                   0000000180000000     python38:python38.dll
 0000:fff3c000       .debug$S                   0000000180000000     python38:python38.dll
 0000:fff3c000       .debug$S                   0000000180000000     python38:python38.dll
 0000:fff3c000       .debug$S                   0000000180000000     python38:python38.dll
 0000:fff3c000       .debug$S                   0000000180000000     python38:python38.dll
 0000:fff3c000       .debug$S                   0000000180000000     python38:python38.dll
 0000:fff3c000       .debug$S                   0000000180000000     python38:python38.dll
 0000:fff3c000       .debug$S                   0000000180000000     python38:python38.dll
 0000:fff3c000       .debug$S                   0000000180000000     python38:python38.dll
 0000:fff3c000       .debug$S                   0000000180000000     python38:python38.dll
 0000:fff3c000       .debug$S                   0000000180000000     python38:python38.dll
 0000:fff3c000       .debug$S                   0000000180000000     python38:python38.dll
 0000:fff3c000       .debug$S                   0000000180000000     python38:python38.dll
 0000:fff3c000       .debug$S                   0000000180000000     python38:python38.dll
 0000:fff3c000       .debug$S                   0000000180000000     python38:python38.dll
 0000:fff3c000       .debug$S                   0000000180000000     python38:python38.dll
 0000:fff3c000       .debug$S                   0000000180000000     python38:python38.dll
 0000:fff3c000       .debug$S                   0000000180000000     python38:python38.dll
 0000:fff3c000       .debug$S                   0000000180000000     python38:python38.dll
 0000:fff3c000       .debug$S                   0000000180000000     python38:python38.dll
 0000:fff3c000       .debug$S                   0000000180000000     python38:python38.dll
 0000:fff3c000       .debug$S                   0000000180000000     python38:python38.dll
 0000:fff3c000       .debug$S                   0000000180000000     python38:python38.dll
 0000:fff3c000       .debug$S                   0000000180000000     python38:python38.dll
 0000:fff3c000       .debug$S                   0000000180000000     python38:python38.dll
 0000:fff3c000       .debug$S                   0000000180000000     python38:python38.dll
 0000:fff3c000       .debug$S                   0000000180000000     python38:python38.dll
 0000:fff3c000       .debug$S                   0000000180000000     python38:python38.dll
 0000:fff3c000       .debug$S                   0000000180000000     python38:python38.dll
 0000:fff3c000       .debug$S                   0000000180000000     python38:python38.dll
 0000:fff3c000       .debug$S                   0000000180000000     python38:python38.dll
 0000:fff3c000       .debug$S                   0000000180000000     python38:python38.dll
 0000:fff3c000       .debug$S                   0000000180000000     python38:python38.dll
 0000:fff3c000       .debug$S                   0000000180000000     python38:python38.dll
 0000:fff3c000       .debug$S                   0000000180000000     python38:python38.dll
 0000:fff3c000       .debug$S                   0000000180000000     python38:python38.dll
 0000:fff3c000       .debug$S                   0000000180000000     python38:python38.dll
 0000:fff3c000       .debug$S                   0000000180000000     python38:python38.dll
 0000:fff3c000       .debug$S                   0000000180000000     python38:python38.dll
 0000:fff3c000       .debug$S                   0000000180000000     python38:python38.dll
 0000:fff3c000       .debug$S                   0000000180000000     python38:python38.dll
 0000:fff3c000       .debug$S                   0000000180000000     python38:python38.dll
 0000:fff3c000       .debug$S                   0000000180000000     python38:python38.dll
 0000:fff3c000       .debug$S                   0000000180000000     python38:python38.dll
 0000:fff3c000       .debug$S                   0000000180000000     python38:python38.dll
 0000:fff3c000       .debug$S                   0000000180000000     python38:python38.dll
 0000:fff3c000       .debug$S                   0000000180000000     python38:python38.dll
 0000:fff3c000       .debug$S                   0000000180000000     python38:python38.dll
 0000:fff3c000       .debug$S                   0000000180000000     python38:python38.dll
 0000:fff3c000       .debug$S                   0000000180000000     python38:python38.dll
 0000:fff3c000       .debug$S                   0000000180000000     python38:python38.dll
 0000:fff3c000       .debug$S                   0000000180000000     python38:python38.dll
 0000:fff3c000       .debug$S                   0000000180000000     python38:python38.dll
 0000:fff3c000       .debug$S                   0000000180000000     python38:python38.dll
 0000:fff3c000       .debug$S                   0000000180000000     python38:python38.dll
 0000:fff3c000       .debug$S                   0000000180000000     python38:python38.dll
 0000:fff3c000       .debug$S                   0000000180000000     python38:python38.dll
 0000:fff3c000       .debug$S                   0000000180000000     python38:python38.dll
 0000:fff3c000       .debug$S                   0000000180000000     python38:python38.dll
 0000:fff3c000       .debug$S                   0000000180000000     python38:python38.dll
 0000:fff3c000       .debug$S                   0000000180000000     python38:python38.dll
 0000:fff3c000       .debug$S                   0000000180000000     python38:python38.dll
 0000:fff3c000       .debug$S                   0000000180000000     python38:python38.dll
 0000:fff3c000       .debug$S                   0000000180000000     python38:python38.dll
 0000:fff3c000       .debug$S                   0000000180000000     python38:python38.dll
 0000:fff3c000       .debug$S                   0000000180000000     python38:python38.dll
 0000:fff3c000       .debug$S                   0000000180000000     python38:python38.dll
 0000:fff3c000       .debug$S                   0000000180000000     python38:python38.dll
 0000:fff3c000       .debug$S                   0000000180000000     python38:python38.dll
 0000:fff3c000       .debug$S                   0000000180000000     python38:python38.dll
 0000:fff3c000       .debug$S                   0000000180000000     python38:python38.dll
 0000:fff3c000       .debug$S                   0000000180000000     python38:python38.dll
 0000:fff3c000       .debug$S                   0000000180000000     python38:python38.dll
 0000:fff3c000       .debug$S                   0000000180000000     python38:python38.dll
 0000:fff3c000       .debug$S                   0000000180000000     python38:python38.dll
 0000:fff3c000       .debug$S                   0000000180000000     python38:python38.dll
 0000:fff3c000       .debug$S                   0000000180000000     python38:python38.dll
 0000:fff3c000       .debug$S                   0000000180000000     python38:python38.dll
 0000:fff3c000       .debug$S                   0000000180000000     python38:python38.dll
 0000:fff3c000       .debug$S                   0000000180000000     python38:python38.dll
 0000:fff3c000       .debug$S                   0000000180000000     python38:python38.dll
 0000:fff3c000       .debug$S                   0000000180000000     python38:python38.dll
 0000:fff3c000       .debug$S                   0000000180000000     python38:python38.dll
 0000:fff3c000       .debug$S                   0000000180000000     python38:python38.dll
 0000:fff3c000       .debug$S                   0000000180000000     python38:python38.dll
 0000:fff3c000       .debug$S                   0000000180000000     python38:python38.dll
 0000:fff3c000       .debug$S                   0000000180000000     python38:python38.dll
 0000:fff3c000       .debug$S                   0000000180000000     python38:python38.dll
 0000:fff3c000       .debug$S                   0000000180000000     python38:python38.dll
 0000:fff3c000       .debug$S                   0000000180000000     python:python.dll
 0000:fff3c000       .debug$S                   0000000180000000     python:python.dll
 0000:fff3c000       .debug$S                   0000000180000000     python:python.dll
 0000:fff3c000       .debug$S                   0000000180000000     python:python.dll
 0000:fff3c000       .debug$S                   0000000180000000     msvcprt:MSVCP140.dll
 0001:00000000       _wrap_IDB_Hooks_segm_start_changed 0000000180001000 f   idp.obj
 0001:000002b0       _wrap_asm_t_ascsep_get     00000001800012b0 f   idp.obj
 0001:000003d0       _wrap_asm_t_accsep_set     00000001800013d0 f   idp.obj
 0001:000005b0       _wrap_IDP_Hooks_ev_adjust_refinfo 00000001800015b0 f   idp.obj
 0001:00000990       _wrap_asm_t_accsep_get     0000000180001990 f   idp.obj
 0001:00000ab0       _wrap_IDB_Hooks_changing_segm_end 0000000180001ab0 f   idp.obj
 0001:00000dc0       _wrap_asm_t_esccodes_set   0000000180001dc0 f   idp.obj
 0001:000010b0       _wrap_IDP_Hooks_ev_get_operand_string 00000001800020b0 f   idp.obj
 0001:00001410       _wrap_asm_t_esccodes_get   0000000180002410 f   idp.obj
 0001:00001530       _wrap_IDB_Hooks_segm_end_changed 0000000180002530 f   idp.obj
 0001:000017e0       _wrap_asm_t_a_ascii_set    00000001800027e0 f   idp.obj
 0001:00001ad0       _wrap_asm_t_a_ascii_get    0000000180002ad0 f   idp.obj
 0001:00001bf0       _wrap_IDB_Hooks_changing_segm_name 0000000180002bf0 f   idp.obj
 0001:00002000       _wrap_IDP_Hooks_ev_get_reg_name 0000000180003000 f   idp.obj
 0001:00002340       _wrap_asm_t_a_byte_set     0000000180003340 f   idp.obj
 0001:00002630       _wrap_asm_t_a_byte_get     0000000180003630 f   idp.obj
 0001:00002750       _wrap_IDB_Hooks_segm_name_changed 0000000180003750 f   idp.obj
 0001:00002b60       _wrap_IDP_Hooks_ev_str2reg 0000000180003b60 f   idp.obj
 0001:00002ea0       _wrap_asm_t_a_word_set     0000000180003ea0 f   idp.obj
 0001:00003190       _wrap_asm_t_a_word_get     0000000180004190 f   idp.obj
 0001:000032b0       _wrap_IDP_Hooks_ev_get_autocmt 00000001800042b0 f   idp.obj
 0001:00003590       _wrap_IDB_Hooks_changing_segm_class 0000000180004590 f   idp.obj
 0001:000037f0       _wrap_asm_t_a_dword_set    00000001800047f0 f   idp.obj
 0001:00003ae0       _wrap_IDB_Hooks_segm_class_changed 0000000180004ae0 f   idp.obj
 0001:00003ef0       _wrap_asm_t_a_dword_get    0000000180004ef0 f   idp.obj
 0001:00004010       _wrap_IDP_Hooks_ev_get_bg_color 0000000180005010 f   idp.obj
 0001:000042c0       _wrap_asm_t_a_qword_set    00000001800052c0 f   idp.obj
 0001:000045b0       _wrap_IDP_Hooks_ev_is_jump_func 00000001800055b0 f   idp.obj
 0001:000049d0       _wrap_asm_t_a_qword_get    00000001800059d0 f   idp.obj
 0001:00004af0       _wrap_IDB_Hooks_segm_attrs_updated 0000000180005af0 f   idp.obj
 0001:00004d50       _wrap_asm_t_a_oword_set    0000000180005d50 f   idp.obj
 0001:00005040       _wrap_IDB_Hooks_segm_moved 0000000180006040 f   idp.obj
 0001:00005300       _wrap_asm_t_a_oword_get    0000000180006300 f   idp.obj
 0001:00005420       _wrap_IDP_Hooks_ev_func_bounds 0000000180006420 f   idp.obj
 0001:00005790       _wrap_asm_t_a_float_set    0000000180006790 f   idp.obj
 0001:00005a80       _wrap_IDB_Hooks_allsegs_moved 0000000180006a80 f   idp.obj
 0001:00005ce0       _wrap_asm_t_a_float_get    0000000180006ce0 f   idp.obj
 0001:00005e00       _wrap_IDP_Hooks_ev_verify_sp 0000000180006e00 f   idp.obj
 0001:00006060       _wrap_asm_t_a_double_set   0000000180007060 f   idp.obj
 0001:00006350       _wrap_IDB_Hooks_func_added 0000000180007350 f   idp.obj
 0001:000065b0       _wrap_IDP_Hooks_ev_verify_noreturn 00000001800075b0 f   idp.obj
 0001:00006810       _wrap_asm_t_a_double_get   0000000180007810 f   idp.obj
 0001:00006930       _wrap_asm_t_a_tbyte_set    0000000180007930 f   idp.obj
 0001:00006c20       _wrap_IDB_Hooks_func_updated 0000000180007c20 f   idp.obj
 0001:00006e80       _wrap_IDP_Hooks_ev_create_func_frame 0000000180007e80 f   idp.obj
 0001:000070e0       _wrap_asm_t_a_tbyte_get    00000001800080e0 f   idp.obj
 0001:00007200       _wrap_asm_t_a_packreal_set 0000000180008200 f   idp.obj
 0001:000074f0       _wrap_IDB_Hooks_set_func_start 00000001800084f0 f   idp.obj
 0001:000077a0       _wrap_IDP_Hooks_ev_get_frame_retsize 00000001800087a0 f   idp.obj
 0001:00007af0       _wrap_asm_t_a_packreal_get 0000000180008af0 f   idp.obj
 0001:00007c10       _wrap_IDB_Hooks_set_func_end 0000000180008c10 f   idp.obj
 0001:00007ec0       _wrap_asm_t_a_dups_set     0000000180008ec0 f   idp.obj
 0001:000081b0       _wrap_IDP_Hooks_ev_get_stkvar_scale_factor 00000001800091b0 f   idp.obj
 0001:00008310       _wrap_asm_t_a_dups_get     0000000180009310 f   idp.obj
 0001:00008430       _wrap_IDP_Hooks_ev_demangle_name 0000000180009430 f   idp.obj
 0001:000088e0       _wrap_IDB_Hooks_deleting_func 00000001800098e0 f   idp.obj
 0001:00008b40       _wrap_asm_t_a_bss_set      0000000180009b40 f   idp.obj
 0001:00008e30       _wrap_IDB_Hooks_frame_deleted 0000000180009e30 f   idp.obj
 0001:00009090       _wrap_asm_t_a_bss_get      000000018000a090 f   idp.obj
 0001:000091b0       _wrap_asm_t_a_equ_set      000000018000a1b0 f   idp.obj
 0001:000094a0       _wrap_IDP_Hooks_ev_add_cref 000000018000a4a0 f   idp.obj
 0001:00009710       _wrap_IDB_Hooks_thunk_func_created 000000018000a710 f   idp.obj
 0001:00009970       _wrap_asm_t_a_equ_get      000000018000a970 f   idp.obj
 0001:00009a90       _wrap_asm_t_a_seg_set      000000018000aa90 f   idp.obj
 0001:00009d80       _wrap_IDP_Hooks_ev_add_dref 000000018000ad80 f   idp.obj
 0001:00009ff0       _wrap_IDB_Hooks_func_tail_appended 000000018000aff0 f   idp.obj
 0001:0000a340       _wrap_asm_t_a_seg_get      000000018000b340 f   idp.obj
 0001:0000a460       _wrap_asm_t_a_curip_set    000000018000b460 f   idp.obj
 0001:0000a750       _wrap_IDP_Hooks_ev_del_cref 000000018000b750 f   idp.obj
 0001:0000a9b0       _wrap_IDB_Hooks_deleting_func_tail 000000018000b9b0 f   idp.obj
 0001:0000ad00       _wrap_asm_t_a_curip_get    000000018000bd00 f   idp.obj
 0001:0000ae20       _wrap_asm_t_a_public_set   000000018000be20 f   idp.obj
 0001:0000b110       _wrap_IDP_Hooks_ev_del_dref 000000018000c110 f   idp.obj
 0001:0000b320       _wrap_IDB_Hooks_func_tail_deleted 000000018000c320 f   idp.obj
 0001:0000b5d0       _wrap_asm_t_a_public_get   000000018000c5d0 f   idp.obj
 0001:0000b6f0       _wrap_asm_t_a_weak_set     000000018000c6f0 f   idp.obj
 0001:0000b9e0       _wrap_IDP_Hooks_ev_coagulate_dref 000000018000c9e0 f   idp.obj
 0001:0000bd20       _wrap_IDB_Hooks_tail_owner_changed 000000018000cd20 f   idp.obj
 0001:0000c010       _wrap_asm_t_a_weak_get     000000018000d010 f   idp.obj
 0001:0000c130       _wrap_asm_t_a_extrn_set    000000018000d130 f   idp.obj
 0001:0000c420       _wrap_IDB_Hooks_func_noret_changed 000000018000d420 f   idp.obj
 0001:0000c680       _wrap_IDP_Hooks_ev_may_show_sreg 000000018000d680 f   idp.obj
 0001:0000c840       _wrap_asm_t_a_extrn_get    000000018000d840 f   idp.obj
 0001:0000c960       _wrap_IDB_Hooks_stkpnts_changed 000000018000d960 f   idp.obj
 0001:0000cbc0       _wrap_IDP_Hooks_ev_auto_queue_empty 000000018000dbc0 f   idp.obj
 0001:0000cda0       _wrap_asm_t_a_comdef_set   000000018000dda0 f   idp.obj
 0001:0000d090       _wrap_asm_t_a_comdef_get   000000018000e090 f   idp.obj
 0001:0000d1b0       _wrap_IDP_Hooks_ev_validate_flirt_func 000000018000e1b0 f   idp.obj
 0001:0000d520       _wrap_IDB_Hooks_updating_tryblks 000000018000e520 f   idp.obj
 0001:0000d780       _wrap_asm_t_a_align_set    000000018000e780 f   idp.obj
 0001:0000da70       _wrap_IDB_Hooks_tryblks_updated 000000018000ea70 f   idp.obj
 0001:0000dcd0       _wrap_asm_t_a_align_get    000000018000ecd0 f   idp.obj
 0001:0000ddf0       _wrap_IDP_Hooks_ev_adjust_libfunc_ea 000000018000edf0 f   idp.obj
 0001:0000e210       _wrap_asm_t_lbrace_set     000000018000f210 f   idp.obj
 0001:0000e3f0       _wrap_IDB_Hooks_deleting_tryblks 000000018000f3f0 f   idp.obj
 0001:0000e650       _wrap_asm_t_lbrace_get     000000018000f650 f   idp.obj
 0001:0000e770       _wrap_asm_t_rbrace_set     000000018000f770 f   idp.obj
 0001:0000e950       _wrap_IDP_Hooks_ev_assemble 000000018000f950 f   idp.obj
 0001:0000edb0       _wrap_IDB_Hooks_sgr_changed 000000018000fdb0 f   idp.obj
 0001:0000f190       _wrap_asm_t_rbrace_get     0000000180010190 f   idp.obj
 0001:0000f2b0       _wrap_asm_t_a_mod_set      00000001800102b0 f   idp.obj
 0001:0000f5a0       _wrap_asm_t_a_mod_get      00000001800105a0 f   idp.obj
 0001:0000f6c0       _wrap_IDP_Hooks_ev_extract_address 00000001800106c0 f   idp.obj
 0001:0000fba0       _wrap_asm_t_a_band_set     0000000180010ba0 f   idp.obj
 0001:0000fe90       _wrap_IDB_Hooks_make_code  0000000180010e90 f   idp.obj
 0001:000100f0       _wrap_asm_t_a_band_get     00000001800110f0 f   idp.obj
 0001:00010210       _wrap_IDB_Hooks_make_data  0000000180011210 f   idp.obj
 0001:000104e0       _wrap_asm_t_a_bor_set      00000001800114e0 f   idp.obj
 0001:000107d0       _wrap_IDP_Hooks_ev_realcvt 00000001800117d0 f   idp.obj
 0001:00010b20       _wrap_asm_t_a_bor_get      0000000180011b20 f   idp.obj
 0001:00010c40       _wrap_asm_t_a_xor_set      0000000180011c40 f   idp.obj
 0001:00010f30       _wrap_IDB_Hooks_destroyed_items 0000000180011f30 f   idp.obj
 0001:00011190       _wrap_IDP_Hooks_ev_gen_asm_or_lst 0000000180012190 f   idp.obj
 0001:000115f0       _wrap_asm_t_a_xor_get      00000001800125f0 f   idp.obj
 0001:00011710       _wrap_asm_t_a_bnot_set     0000000180012710 f   idp.obj
 0001:00011a00       _wrap_IDB_Hooks_renamed    0000000180012a00 f   idp.obj
 0001:00011dd0       _wrap_IDP_Hooks_ev_gen_map_file 0000000180012dd0 f   idp.obj
 0001:00012120       _wrap_asm_t_a_bnot_get     0000000180013120 f   idp.obj
 0001:00012240       _wrap_asm_t_a_shl_set      0000000180013240 f   idp.obj
 0001:00012530       _wrap_IDB_Hooks_byte_patched 0000000180013530 f   idp.obj
 0001:00012770       _wrap_IDP_Hooks_ev_create_flat_group 0000000180013770 f   idp.obj
 0001:00012a00       _wrap_asm_t_a_shl_get      0000000180013a00 f   idp.obj
 0001:00012b20       _wrap_asm_t_a_shr_set      0000000180013b20 f   idp.obj
 0001:00012e10       _wrap_IDB_Hooks_changing_cmt 0000000180013e10 f   idp.obj
 0001:000131d0       _wrap_IDP_Hooks_ev_getreg  00000001800141d0 f   idp.obj
 0001:000134a0       _wrap_asm_t_a_shr_get      00000001800144a0 f   idp.obj
 0001:000135c0       _wrap_asm_t_a_sizeof_fmt_set 00000001800145c0 f   idp.obj
 0001:000138b0       _wrap_IDB_Hooks_cmt_changed 00000001800148b0 f   idp.obj
 0001:00013ad0       _wrap_IDP_Hooks_ev_analyze_prolog 0000000180014ad0 f   idp.obj
 0001:00013c90       _wrap_asm_t_a_sizeof_fmt_get 0000000180014c90 f   idp.obj
 0001:00013db0       _wrap_asm_t_flag2_set      0000000180014db0 f   idp.obj
 0001:00013f50       _wrap_IDP_Hooks_ev_calc_spdelta 0000000180014f50 f   idp.obj
 0001:000142a0       _wrap_IDB_Hooks_changing_range_cmt 00000001800152a0 f   idp.obj
 0001:00014760       _wrap_asm_t_flag2_get      0000000180015760 f   idp.obj
 0001:00014860       _wrap_asm_t_cmnt2_set      0000000180015860 f   idp.obj
 0001:00014b50       _wrap_IDP_Hooks_ev_calcrel 0000000180015b50 f   idp.obj
 0001:00014cb0       _wrap_asm_t_cmnt2_get      0000000180015cb0 f   idp.obj
 0001:00014dd0       _wrap_IDB_Hooks_range_cmt_changed 0000000180015dd0 f   idp.obj
 0001:00015290       _wrap_asm_t_low8_set       0000000180016290 f   idp.obj
 0001:00015580       _wrap_IDP_Hooks_ev_find_reg_value 0000000180016580 f   idp.obj
 0001:00015880       _wrap_asm_t_low8_get       0000000180016880 f   idp.obj
 0001:000159a0       _wrap_asm_t_high8_set      00000001800169a0 f   idp.obj
 0001:00015c90       _wrap_IDP_Hooks_ev_find_op_value 0000000180016c90 f   idp.obj
 0001:00015f90       _wrap_IDB_Hooks_extra_cmt_changed 0000000180016f90 f   idp.obj
 0001:00016350       _wrap_asm_t_high8_get      0000000180017350 f   idp.obj
 0001:00016470       _wrap_asm_t_low16_set      0000000180017470 f   idp.obj
 0001:00016760       _wrap_IDP_Hooks_ev_next_exec_insn 0000000180017760 f   idp.obj
 0001:00016ba0       _wrap_IDB_Hooks_item_color_changed 0000000180017ba0 f   idp.obj
 0001:00016de0       _wrap_asm_t_low16_get      0000000180017de0 f   idp.obj
 0001:00016f00       _wrap_asm_t_high16_set     0000000180017f00 f   idp.obj
 0001:000171f0       _wrap_IDB_Hooks_callee_addr_changed 00000001800181f0 f   idp.obj
 0001:00017400       _wrap_IDP_Hooks_ev_calc_step_over 0000000180018400 f   idp.obj
 0001:000176b0       _wrap_asm_t_high16_get     00000001800186b0 f   idp.obj
 0001:000177d0       _wrap_asm_t_a_include_fmt_set 00000001800187d0 f   idp.obj
 0001:00017ac0       _wrap_IDB_Hooks_bookmark_changed 0000000180018ac0 f   idp.obj
 0001:00017f20       _wrap_IDP_Hooks_ev_calc_next_eas 0000000180018f20 f   idp.obj
 0001:00018300       _wrap_asm_t_a_include_fmt_get 0000000180019300 f   idp.obj
 0001:00018420       _wrap_asm_t_a_vstruc_fmt_set 0000000180019420 f   idp.obj
 0001:00018710       _wrap_IDB_Hooks_sgr_deleted 0000000180019710 f   idp.obj
 0001:00018980       _wrap_IDP_Hooks_ev_get_macro_insn_head 0000000180019980 f   idp.obj
 0001:00018c30       _wrap_asm_t_a_vstruc_fmt_get 0000000180019c30 f   idp.obj
 0001:00018d50       _wrap_asm_t_a_rva_set      0000000180019d50 f   idp.obj
 0001:00019040       _wrap_new_IDB_Hooks        000000018001a040 f   idp.obj
 0001:00019180       _wrap_IDP_Hooks_ev_get_dbr_opnum 000000018001a180 f   idp.obj
 0001:000194d0       _wrap_asm_t_a_rva_get      000000018001a4d0 f   idp.obj
 0001:000195f0       _wrap_disown_IDB_Hooks     000000018001a5f0 f   idp.obj
 0001:00019720       _wrap_asm_t_a_yword_set    000000018001a720 f   idp.obj
 0001:00019a10       IDB_Hooks_swigregister     000000018001aa10 f   idp.obj
 0001:00019aa0       IDP_Hooks_swiginit         000000018001aaa0 f   idp.obj
 0001:00019aa0       IDB_Hooks_swiginit         000000018001aaa0 f   idp.obj
 0001:00019aa0       reg_info_t_swiginit        000000018001aaa0 f   idp.obj
 0001:00019aa0       asm_t_swiginit             000000018001aaa0 f   idp.obj
 0001:00019ab0       _wrap_IDP_Hooks_ev_insn_reads_tbit 000000018001aab0 f   idp.obj
 0001:00019e40       _wrap_asm_t_a_yword_get    000000018001ae40 f   idp.obj
 0001:00019f60       _wrap_new_asm_t            000000018001af60 f   idp.obj
 0001:00019ff0       _wrap_delete_asm_t         000000018001aff0 f   idp.obj
 0001:0001a120       _wrap_IDP_Hooks_ev_clean_tbit 000000018001b120 f   idp.obj
 0001:0001a420       asm_t_swigregister         000000018001b420 f   idp.obj
 0001:0001a4b0       _wrap_str2reg              000000018001b4b0 f   idp.obj
 0001:0001a6f0       _wrap_IDP_Hooks_ev_get_reg_info 000000018001b6f0 f   idp.obj
 0001:0001abc0       _wrap_is_align_insn        000000018001bbc0 f   idp.obj
 0001:0001ac90       _wrap_get_reg_name         000000018001bc90 f   idp.obj
 0001:0001af50       _wrap_IDP_Hooks_ev_setup_til 000000018001bf50 f   idp.obj
 0001:0001b0a0       _wrap_get_reg_info         000000018001c0a0 f   idp.obj
 0001:0001b450       _wrap_IDP_Hooks_ev_get_abi_info 000000018001c450 f   idp.obj
 0001:0001b810       _wrap_reg_info_t_reg_set   000000018001c810 f   idp.obj
 0001:0001b9a0       _wrap_IDP_Hooks_ev_max_ptr_size 000000018001c9a0 f   idp.obj
 0001:0001bb00       _wrap_reg_info_t_reg_get   000000018001cb00 f   idp.obj
 0001:0001bc00       _wrap_reg_info_t_size_set  000000018001cc00 f   idp.obj
 0001:0001bda0       _wrap_IDP_Hooks_ev_get_default_enum_size 000000018001cda0 f   idp.obj
 0001:0001bfa0       _wrap_reg_info_t_size_get  000000018001cfa0 f   idp.obj
 0001:0001c0a0       _wrap_reg_info_t___eq__    000000018001d0a0 f   idp.obj
 0001:0001c330       _wrap_IDP_Hooks_ev_get_cc_regs 000000018001d330 f   idp.obj
 0001:0001c620       _p_bytevec_tTo_p_qvectorT_unsigned_char_t 000000018001d620 f   idp.obj
 0001:0001c620       _p_relobj_tTo_p_bytevec_t  000000018001d620 f   idp.obj
 0001:0001c620       _p_reloc_info_tTo_p_bytevec_t 000000018001d620 f   idp.obj
 0001:0001c620       _p_reloc_info_tTo_p_qvectorT_unsigned_char_t 000000018001d620 f   idp.obj
 0001:0001c620       _p_hidden_range_tTo_p_range_t 000000018001d620 f   idp.obj
 0001:0001c620       _p_argpart_tTo_p_argloc_t  000000018001d620 f   idp.obj
 0001:0001c620       _p_relobj_tTo_p_qvectorT_unsigned_char_t 000000018001d620 f   idp.obj
 0001:0001c630       _wrap_reg_info_t___ne__    000000018001d630 f   idp.obj
 0001:0001c8c0       _wrap_IDP_Hooks_ev_get_stkarg_offset 000000018001d8c0 f   idp.obj
 0001:0001ca20       _wrap_reg_info_t___lt__    000000018001da20 f   idp.obj
 0001:0001cc90       _wrap_IDP_Hooks_ev_shadow_args_size 000000018001dc90 f   idp.obj
 0001:0001cfe0       _wrap_reg_info_t___gt__    000000018001dfe0 f   idp.obj
 0001:0001d270       _wrap_IDP_Hooks_ev_get_simd_types 000000018001e270 f   idp.obj
 0001:0001d6d0       _wrap_reg_info_t___le__    000000018001e6d0 f   idp.obj
 0001:0001d960       _wrap_reg_info_t___ge__    000000018001e960 f   idp.obj
 0001:0001dbd0       _wrap_IDP_Hooks_ev_calc_cdecl_purged_bytes 000000018001ebd0 f   idp.obj
 0001:0001dd90       _wrap_IDP_Hooks_ev_calc_purged_bytes 000000018001ed90 f   idp.obj
 0001:0001e0e0       _wrap_compare              000000018001f0e0 f   idp.obj
 0001:0001e400       _wrap_IDP_Hooks_ev_calc_retloc 000000018001f400 f   idp.obj
 0001:0001e7d0       _wrap_reg_info_t_compare   000000018001f7d0 f   idp.obj
 0001:0001ea30       _wrap_new_reg_info_t       000000018001fa30 f   idp.obj
 0001:0001eaa0       _wrap_delete_reg_info_t    000000018001faa0 f   idp.obj
 0001:0001ebd0       _wrap_IDP_Hooks_ev_calc_arglocs 000000018001fbd0 f   idp.obj
 0001:0001ee30       reg_info_t_swigregister    000000018001fe30 f   idp.obj
 0001:0001eec0       _wrap_parse_reg_name       000000018001fec0 f   idp.obj
 0001:0001f1f0       _wrap_IDP_Hooks_ev_calc_varglocs 00000001800201f0 f   idp.obj
 0001:0001f660       _wrap_sizeof_ldbl          0000000180020660 f   idp.obj
 0001:0001f720       _wrap_set_processor_type   0000000180020720 f   idp.obj
 0001:0001f9f0       _wrap_IDP_Hooks_ev_adjust_argloc 00000001800209f0 f   idp.obj
 0001:0001fd90       _wrap_get_idp_name         0000000180020d90 f   idp.obj
 0001:0001fed0       _wrap_set_target_assembler 0000000180020ed0 f   idp.obj
 0001:0001ffc0       _wrap_IDP_Hooks_ev_lower_func_type 0000000180020fc0 f   idp.obj
 0001:00020310       _wrap_delay_slot_insn      0000000180021310 f   idp.obj
 0001:00020680       _wrap_IDP_Hooks_ev_equal_reglocs 0000000180021680 f   idp.obj
 0001:000209d0       _wrap_gen_idb_event        00000001800219d0 f   idp.obj
 0001:00020a90       _wrap_cfg_get_cc_parm      0000000180021a90 f   idp.obj
 0001:00020d70       _wrap_IDP_Hooks_ev_use_stkarg_type 0000000180021d70 f   idp.obj
 0001:00021020       _wrap_cfg_get_cc_header_path 0000000180022020 f   idp.obj
 0001:00021120       _wrap_IDP_Hooks_ev_use_regarg_type 0000000180022120 f   idp.obj
 0001:000213f0       _wrap_cfg_get_cc_predefined_macros 00000001800223f0 f   idp.obj
 0001:000214f0       _wrap_assemble             00000001800224f0 f   idp.obj
 0001:000218b0       _wrap_IDP_Hooks_ev_use_arg_types 00000001800228b0 f   idp.obj
 0001:00021c30       _wrap_ph_get_id            0000000180022c30 f   idp.obj
 0001:00021ca0       _wrap_ph_get_version       0000000180022ca0 f   idp.obj
 0001:00021d10       _wrap_IDP_Hooks_ev_arg_addrs_ready 0000000180022d10 f   idp.obj
 0001:00022120       _wrap_ph_get_flag          0000000180023120 f   idp.obj
 0001:00022190       _wrap_ph_get_cnbits        0000000180023190 f   idp.obj
 0001:00022200       _wrap_ph_get_dnbits        0000000180023200 f   idp.obj
 0001:00022270       _wrap_ph_get_reg_first_sreg 0000000180023270 f   idp.obj
 0001:000222e0       _wrap_IDP_Hooks_ev_decorate_name 00000001800232e0 f   idp.obj
 0001:000227e0       _wrap_ph_get_reg_last_sreg 00000001800237e0 f   idp.obj
 0001:00022850       _wrap_ph_get_segreg_size   0000000180023850 f   idp.obj
 0001:000228c0       SwigPyObject_repr2         00000001800238c0 f   idp.obj
 0001:000228d0       _wrap_ph_get_reg_code_sreg 00000001800238d0 f   idp.obj
 0001:00022940       _wrap_ph_get_reg_data_sreg 0000000180023940 f   idp.obj
 0001:000229b0       _wrap_IDP_Hooks_ev_loader  00000001800239b0 f   idp.obj
 0001:00022b10       _wrap_ph_get_icode_return  0000000180023b10 f   idp.obj
 0001:00022b90       _wrap_ph_get_instruc_start 0000000180023b90 f   idp.obj
 0001:00022c00       SwigPyObject_append        0000000180023c00 f   idp.obj
 0001:00022c60       _wrap_new_IDP_Hooks        0000000180023c60 f   idp.obj
 0001:00022da0       SwigPyObject_next          0000000180023da0 f   idp.obj
 0001:00022dc0       SwigPyObject_disown        0000000180023dc0 f   idp.obj
 0001:00022de0       _wrap_ph_get_instruc_end   0000000180023de0 f   idp.obj
 0001:00022e50       SwigPyObject_acquire       0000000180023e50 f   idp.obj
 0001:00022e70       SwigPyObject_own           0000000180023e70 f   idp.obj
 0001:00022f20       _wrap_disown_IDP_Hooks     0000000180023f20 f   idp.obj
 0001:00023050       _wrap_ph_get_tbyte_size    0000000180024050 f   idp.obj
 0001:000230c0       IDP_Hooks_swigregister     00000001800240c0 f   idp.obj
 0001:00023150       _wrap_ph_get_instruc       0000000180024150 f   idp.obj
 0001:00023230       _wrap_delete_IDB_Hooks     0000000180024230 f   idp.obj
 0001:00023360       _wrap_ph_get_regnames      0000000180024360 f   idp.obj
 0001:00023420       _wrap_IDB_Hooks_hook       0000000180024420 f   idp.obj
 0001:00023560       _wrap_ph_get_operand_info  0000000180024560 f   idp.obj
 0001:00023680       _wrap_IDB_Hooks_unhook     0000000180024680 f   idp.obj
 0001:000237c0       _wrap_ph_calcrel           00000001800247c0 f   idp.obj
 0001:000238b0       _wrap_IDB_Hooks_closebase  00000001800248b0 f   idp.obj
 0001:00023a00       _wrap_ph_find_reg_value    0000000180024a00 f   idp.obj
 0001:00023c30       _wrap_IDB_Hooks_savebase   0000000180024c30 f   idp.obj
 0001:00023d80       _wrap_ph_find_op_value     0000000180024d80 f   idp.obj
 0001:00023fb0       _wrap_IDB_Hooks_upgraded   0000000180024fb0 f   idp.obj
 0001:00024190       _wrap_delete_IDP_Hooks     0000000180025190 f   idp.obj
 0001:000242c0       _wrap_IDB_Hooks_auto_empty 00000001800252c0 f   idp.obj
 0001:00024410       _wrap_IDP_Hooks_hook       0000000180025410 f   idp.obj
 0001:00024550       _wrap_IDB_Hooks_auto_empty_finally 0000000180025550 f   idp.obj
 0001:000246a0       _wrap_IDP_Hooks_unhook     00000001800256a0 f   idp.obj
 0001:000247e0       _wrap_IDB_Hooks_determined_main 00000001800257e0 f   idp.obj
 0001:000249a0       _wrap_IDP_Hooks_ev_init    00000001800259a0 f   idp.obj
 0001:00024ce0       _wrap_IDB_Hooks_local_types_changed 0000000180025ce0 f   idp.obj
 0001:00024e30       _wrap_IDP_Hooks_ev_term    0000000180025e30 f   idp.obj
 0001:00024f80       _wrap_IDB_Hooks_extlang_changed 0000000180025f80 f   idp.obj
 0001:000252b0       _wrap_IDP_Hooks_ev_newprc  00000001800262b0 f   idp.obj
 0001:00025500       _wrap_IDB_Hooks_idasgn_loaded 0000000180026500 f   idp.obj
 0001:00025840       _wrap_IDP_Hooks_ev_newasm  0000000180026840 f   idp.obj
 0001:00025a20       _wrap_IDP_Hooks_ev_newfile 0000000180026a20 f   idp.obj
 0001:00025d60       _wrap_IDB_Hooks_kernel_config_loaded 0000000180026d60 f   idp.obj
 0001:00025eb0       _wrap_IDB_Hooks_loader_finished 0000000180026eb0 f   idp.obj
 0001:00026350       _wrap_IDP_Hooks_ev_oldfile 0000000180027350 f   idp.obj
 0001:00026690       _wrap_IDP_Hooks_ev_newbinary 0000000180027690 f   idp.obj
 0001:00026b20       _wrap_IDB_Hooks_flow_chart_created 0000000180027b20 f   idp.obj
 0001:00026d80       _wrap_IDB_Hooks_compiler_changed 0000000180027d80 f   idp.obj
 0001:00026ed0       _wrap_IDP_Hooks_ev_endbinary 0000000180027ed0 f   idp.obj
 0001:000270a0       _wrap_IDB_Hooks_changing_ti 00000001800280a0 f   idp.obj
 0001:000275c0       _wrap_IDP_Hooks_ev_set_idp_options 00000001800285c0 f   idp.obj
 0001:00027ab0       _wrap_IDB_Hooks_ti_changed 0000000180028ab0 f   idp.obj
 0001:00027fd0       _wrap_IDP_Hooks_ev_set_proc_options 0000000180028fd0 f   idp.obj
 0001:00028370       _wrap_IDB_Hooks_changing_op_ti 0000000180029370 f   idp.obj
 0001:000288f0       _wrap_IDP_Hooks_ev_ana_insn 00000001800298f0 f   idp.obj
 0001:00028b60       _wrap_IDP_Hooks_ev_emu_insn 0000000180029b60 f   idp.obj
 0001:00028dd0       _wrap_IDB_Hooks_op_ti_changed 0000000180029dd0 f   idp.obj
 0001:00029350       _wrap_IDP_Hooks_ev_out_header 000000018002a350 f   idp.obj
 0001:00029590       _wrap_IDB_Hooks_changing_op_type 000000018002a590 f   idp.obj
 0001:000298b0       _wrap_IDP_Hooks_ev_out_footer 000000018002a8b0 f   idp.obj
 0001:00029af0       _wrap_IDP_Hooks_ev_out_segstart 000000018002aaf0 f   idp.obj
 0001:00029e40       _wrap_IDB_Hooks_op_type_changed 000000018002ae40 f   idp.obj
 0001:0002a080       _wrap_IDP_Hooks_ev_out_segend 000000018002b080 f   idp.obj
 0001:0002a3d0       _wrap_IDB_Hooks_enum_created 000000018002b3d0 f   idp.obj
 0001:0002a590       _wrap_IDP_Hooks_ev_out_assumes 000000018002b590 f   idp.obj
 0001:0002a7f0       _wrap_IDB_Hooks_deleting_enum 000000018002b7f0 f   idp.obj
 0001:0002a9b0       _wrap_IDP_Hooks_ev_out_insn 000000018002b9b0 f   idp.obj
 0001:0002ac20       _wrap_IDB_Hooks_enum_deleted 000000018002bc20 f   idp.obj
 0001:0002ade0       _wrap_IDB_Hooks_renaming_enum 000000018002bde0 f   idp.obj
 0001:0002b1a0       _wrap_IDP_Hooks_ev_out_mnem 000000018002c1a0 f   idp.obj
 0001:0002b400       _wrap_IDP_Hooks_ev_out_operand 000000018002c400 f   idp.obj
 0001:0002b750       _wrap_IDB_Hooks_enum_renamed 000000018002c750 f   idp.obj
 0001:0002b910       _wrap_IDP_Hooks_ev_out_data 000000018002c910 f   idp.obj
 0001:0002bbd0       _wrap_IDB_Hooks_changing_enum_bf 000000018002cbd0 f   idp.obj
 0001:0002bdf0       _wrap_IDP_Hooks_ev_out_label 000000018002cdf0 f   idp.obj
 0001:0002c200       _wrap_IDB_Hooks_enum_bf_changed 000000018002d200 f   idp.obj
 0001:0002c3c0       _wrap_IDB_Hooks_changing_enum_cmt 000000018002d3c0 f   idp.obj
 0001:0002c780       _wrap_IDP_Hooks_ev_out_special_item 000000018002d780 f   idp.obj
 0001:0002ca70       _wrap_IDB_Hooks_enum_cmt_changed 000000018002da70 f   idp.obj
 0001:0002cc90       _wrap_IDP_Hooks_ev_gen_stkvar_def 000000018002dc90 f   idp.obj
 0001:0002d010       _wrap_IDB_Hooks_enum_member_created 000000018002e010 f   idp.obj
 0001:0002d250       _wrap_IDP_Hooks_ev_gen_regvar_def 000000018002e250 f   idp.obj
 0001:0002d5a0       _wrap_IDB_Hooks_deleting_enum_member 000000018002e5a0 f   idp.obj
 0001:0002d7e0       _wrap_IDP_Hooks_ev_gen_src_file_lnnum 000000018002e7e0 f   idp.obj
 0001:0002d940       _wrap_IDP_Hooks_ev_creating_segm 000000018002e940 f   idp.obj
 0001:0002dba0       _wrap_IDB_Hooks_enum_member_deleted 000000018002eba0 f   idp.obj
 0001:0002dde0       _wrap_IDP_Hooks_ev_moving_segm 000000018002ede0 f   idp.obj
 0001:0002e0f0       _wrap_IDB_Hooks_struc_created 000000018002f0f0 f   idp.obj
 0001:0002e2b0       _wrap_IDB_Hooks_deleting_struc 000000018002f2b0 f   idp.obj
 0001:0002e510       _wrap_IDP_Hooks_ev_coagulate 000000018002f510 f   idp.obj
 0001:0002e6d0       _wrap_IDB_Hooks_struc_deleted 000000018002f6d0 f   idp.obj
 0001:0002e890       _wrap_IDP_Hooks_ev_undefine 000000018002f890 f   idp.obj
 0001:0002ea50       _wrap_IDB_Hooks_changing_struc_align 000000018002fa50 f   idp.obj
 0001:0002ecb0       _wrap_IDP_Hooks_ev_treat_hindering_item 000000018002fcb0 f   idp.obj
 0001:0002ef80       _wrap_IDB_Hooks_struc_align_changed 000000018002ff80 f   idp.obj
 0001:0002f1e0       _wrap_IDP_Hooks_ev_rename  00000001800301e0 f   idp.obj
 0001:0002f550       _wrap_IDB_Hooks_renaming_struc 0000000180030550 f   idp.obj
 0001:0002fa70       _wrap_IDP_Hooks_ev_is_far_jump 0000000180030a70 f   idp.obj
 0001:0002fc50       _wrap_IDB_Hooks_struc_renamed 0000000180030c50 f   idp.obj
 0001:0002feb0       _wrap_IDP_Hooks_ev_is_sane_insn 0000000180030eb0 f   idp.obj
 0001:00030180       _wrap_IDB_Hooks_expanding_struc 0000000180031180 f   idp.obj
 0001:00030490       _wrap_IDP_Hooks_ev_is_cond_insn 0000000180031490 f   idp.obj
 0001:000306f0       _wrap_IDB_Hooks_struc_expanded 00000001800316f0 f   idp.obj
 0001:00030950       _wrap_IDP_Hooks_ev_is_call_insn 0000000180031950 f   idp.obj
 0001:00030bb0       _wrap_AssembleLine         0000000180031bb0 f   idp.obj
 0001:00030f90       _wrap_IDB_Hooks_struc_member_created 0000000180031f90 f   idp.obj
 0001:000312e0       _wrap_IDP_Hooks_ev_is_ret_insn 00000001800322e0 f   idp.obj
 0001:000315a0       _wrap_has_cf_chg           00000001800325a0 f   idp.obj
 0001:000316f0       _wrap_IDB_Hooks_deleting_struc_member 00000001800326f0 f   idp.obj
 0001:00031a40       _wrap_IDP_Hooks_ev_may_be_func 0000000180032a40 f   idp.obj
 0001:00031d10       _wrap_has_cf_use           0000000180032d10 f   idp.obj
 0001:00031e60       _wrap_IDB_Hooks_struc_member_deleted 0000000180032e60 f   idp.obj
 0001:00032150       _wrap_has_insn_feature     0000000180033150 f   idp.obj
 0001:000322d0       _wrap_IDP_Hooks_ev_is_basic_block_end 00000001800332d0 f   idp.obj
 0001:00032590       _wrap_is_call_insn         0000000180033590 f   idp.obj
 0001:00032700       _wrap_IDB_Hooks_renaming_struc_member 0000000180033700 f   idp.obj
 0001:00032bd0       _wrap_IDP_Hooks_ev_is_indirect_jump 0000000180033bd0 f   idp.obj
 0001:00032e30       _wrap_is_ret_insn          0000000180033e30 f   idp.obj
 0001:00033020       _wrap_IDP_Hooks_ev_is_insn_table_jump 0000000180034020 f   idp.obj
 0001:00033280       _wrap_is_indirect_jump_insn 0000000180034280 f   idp.obj
 0001:000333f0       _wrap_IDB_Hooks_struc_member_renamed 00000001800343f0 f   idp.obj
 0001:00033740       _wrap_is_basic_block_end   0000000180034740 f   idp.obj
 0001:00033920       _wrap_IDP_Hooks_ev_is_switch 0000000180034920 f   idp.obj
 0001:00033c70       _wrap_IDB_Hooks_changing_struc_member 0000000180034c70 f   idp.obj
 0001:00034150       _wrap_asm_t_flag_set       0000000180035150 f   idp.obj
 0001:000342e0       _wrap_IDP_Hooks_ev_calc_switch_cases 00000001800352e0 f   idp.obj
 0001:00034790       _wrap_asm_t_flag_get       0000000180035790 f   idp.obj
 0001:00034890       _wrap_asm_t_uflag_set      0000000180035890 f   idp.obj
 0001:00034a50       _wrap_IDB_Hooks_struc_member_changed 0000000180035a50 f   idp.obj
 0001:00034da0       _wrap_asm_t_uflag_get      0000000180035da0 f   idp.obj
 0001:00034ea0       _wrap_asm_t_name_set       0000000180035ea0 f   idp.obj
 0001:00035190       _wrap_IDP_Hooks_ev_create_switch_xrefs 0000000180036190 f   idp.obj
 0001:00035440       _wrap_IDB_Hooks_changing_struc_cmt 0000000180036440 f   idp.obj
 0001:00035800       _wrap_asm_t_name_get       0000000180036800 f   idp.obj
 0001:00035920       _wrap_IDP_Hooks_ev_is_align_insn 0000000180036920 f   idp.obj
 0001:00035ae0       _wrap_asm_t_help_set       0000000180036ae0 f   idp.obj
 0001:00035c80       _wrap_asm_t_help_get       0000000180036c80 f   idp.obj
 0001:00035d80       _wrap_IDB_Hooks_struc_cmt_changed 0000000180036d80 f   idp.obj
 0001:00035fa0       _wrap_IDP_Hooks_ev_is_alloca_probe 0000000180036fa0 f   idp.obj
 0001:00036160       _wrap_asm_t_header_set     0000000180037160 f   idp.obj
 0001:00036360       _wrap_asm_t_header_get     0000000180037360 f   idp.obj
 0001:00036470       _wrap_IDP_Hooks_ev_delay_slot_insn 0000000180037470 f   idp.obj
 0001:00036720       _wrap_IDB_Hooks_segm_added 0000000180037720 f   idp.obj
 0001:00036980       _wrap_asm_t_origin_set     0000000180037980 f   idp.obj
 0001:00036c70       _wrap_asm_t_origin_get     0000000180037c70 f   idp.obj
 0001:00036d90       _wrap_IDB_Hooks_deleting_segm 0000000180037d90 f   idp.obj
 0001:00036f50       _wrap_IDP_Hooks_ev_is_sp_based 0000000180037f50 f   idp.obj
 0001:00037370       _wrap_asm_t_end_set        0000000180038370 f   idp.obj
 0001:00037660       _wrap_IDB_Hooks_segm_deleted 0000000180038660 f   idp.obj
 0001:00037870       _wrap_asm_t_end_get        0000000180038870 f   idp.obj
 0001:00037990       _wrap_asm_t_cmnt_set       0000000180038990 f   idp.obj
 0001:00037c80       _wrap_IDP_Hooks_ev_can_have_type 0000000180038c80 f   idp.obj
 0001:00037ee0       _wrap_IDB_Hooks_changing_segm_start 0000000180038ee0 f   idp.obj
 0001:000381f0       _wrap_asm_t_cmnt_get       00000001800391f0 f   idp.obj
 0001:00038310       _wrap_IDP_Hooks_ev_cmp_operands 0000000180039310 f   idp.obj
 0001:00038660       _wrap_asm_t_ascsep_set     0000000180039660 f   idp.obj
 0001:0003ad44       $LN481                     000000018003bd44     idp.obj
 0001:0003bd7c       $LN751                     000000018003cd7c     idp.obj
 0001:0003bed4       $LN750                     000000018003ced4     idp.obj
 0001:0003bef4       $LN749                     000000018003cef4     idp.obj
 0001:0003bf50       ?SWIG_AsCharArray@@YAHPEAU_object@@PEAD_K@Z 000000018003cf50 f   idp.obj
 0001:0003c160       ?SWIG_FromCharPtrAndSize@@YAPEAU_object@@PEBD_K@Z 000000018003d160 f   idp.obj
 0001:0003c1f0       ?SWIG_Python_ErrorType@@YAPEAU_object@@H@Z 000000018003d1f0 f   idp.obj
 0001:0003c28c       $LN17                      000000018003d28c     idp.obj
 0001:0003c2c0       ?SWIG_Python_UnpackTuple@@YA_JPEAU_object@@PEBD_J2PEAPEAU1@@Z 000000018003d2c0 f   idp.obj
 0001:0003c490       ?SWIG_Python_str_AsChar@@YAPEADPEAU_object@@@Z 000000018003d490 f   idp.obj
 0001:0003cc70       ?__raise_e@@YAXAEBVexception@std@@@Z 000000018003dc70 f   idp.obj
 0001:0003ccb0       ?__raise_ie@@YAXAEBUinterr_exc_t@@@Z 000000018003dcb0 f   idp.obj
 0001:0003cdd0       ?_py_getreg@@YAPEBUregval_t@@PEBDPEBU1@@Z 000000018003ddd0 f   idp.obj
 0001:0004f430       ?get_rtdir@Swig@@YAPEAVDirector@1@PEAX@Z 0000000180050430 f   idp.obj
 0001:0004f4a0       ?get_rtdir_map@Swig@@YAAEAV?$map@PEAXPEAVDirector@Swig@@U?$less@PEAX@std@@V?$allocator@U?$pair@QEAXPEAVDirector@Swig@@@std@@@4@@std@@XZ 00000001800504a0 f   idp.obj
 0001:000508b0       ?ph_get_operand_info@@YAPEAU_object@@IH@Z 00000001800518b0 f   idp.obj
 0001:00052ae0       ?set_rtdir@Swig@@YAXPEAXPEAVDirector@1@@Z 0000000180053ae0 f   idp.obj
 0001:00055db0       SWIG_InitializeModule      0000000180056db0 f   idp.obj
 0001:000560d0       SWIG_MangledTypeQueryModule 00000001800570d0 f   idp.obj
 0001:000561a0       SWIG_Python_ConvertFunctionPtr 00000001800571a0 f   idp.obj
 0001:00056340       SWIG_Python_ConvertPtrAndOwn 0000000180057340 f   idp.obj
 0001:00056590       SWIG_Python_DestroyModule  0000000180057590 f   idp.obj
 0001:00056680       SWIG_Python_FixMethods     0000000180057680 f   idp.obj
 0001:000568c0       SWIG_Python_GetSwigThis    00000001800578c0 f   idp.obj
 0001:00056950       SWIG_Python_InitShadowInstance 0000000180057950 f   idp.obj
 0001:00056a50       SWIG_Python_NewPointerObj  0000000180057a50 f   idp.obj
 0001:00056c70       SWIG_Python_TypeCache      0000000180057c70 f   idp.obj
 0001:00056ce0       SWIG_Python_TypeQuery      0000000180057ce0 f   idp.obj
 0001:00056f20       SWIG_This                  0000000180057f20 f   idp.obj
 0001:00056f50       SWIG_TypeCheck             0000000180057f50 f   idp.obj
 0001:00056ff0       SWIG_TypeClientData        0000000180057ff0 f   idp.obj
 0001:00057040       SwigPyClientData_New       0000000180058040 f   idp.obj
 0001:00057150       SwigPyObject_Check         0000000180058150 f   idp.obj
 0001:000571d0       SwigPyObject_New           00000001800581d0 f   idp.obj
 0001:00057220       SwigPyObject_dealloc       0000000180058220 f   idp.obj
 0001:000573b0       SwigPyObject_long          00000001800583b0 f   idp.obj
 0001:000573c0       SwigPyObject_repr          00000001800583c0 f   idp.obj
 0001:00057480       SwigPyObject_richcompare   0000000180058480 f   idp.obj
 0001:000574d0       SwigPyObject_type          00000001800584d0 f   idp.obj
 0001:00057610       SwigPyPacked_Check         0000000180058610 f   idp.obj
 0001:00057690       SwigPyPacked_dealloc       0000000180058690 f   idp.obj
 0001:000576c0       SwigPyPacked_repr          00000001800586c0 f   idp.obj
 0001:000577c0       SwigPyPacked_str           00000001800587c0 f   idp.obj
 0001:000578c0       SwigPyPacked_type          00000001800588c0 f   idp.obj
 0001:00057a00       Swig_var_ash_get           0000000180058a00 f   idp.obj
 0001:00057a20       Swig_var_ash_set           0000000180058a20 f   idp.obj
 0001:00057be0       _wrap_compare__SWIG_7      0000000180058be0 f   idp.obj
 0001:00057e40       _wrap_gen_idb_event__varargs__ 0000000180058e40 f   idp.obj
 0001:00057f90       swig_varlink_dealloc       0000000180058f90 f   idp.obj
 0001:00057fe0       swig_varlink_getattr       0000000180058fe0 f   idp.obj
 0001:00058080       swig_varlink_repr          0000000180059080 f   idp.obj
 0001:00058090       swig_varlink_setattr       0000000180059090 f   idp.obj
 0001:00058130       swig_varlink_str           0000000180059130 f   idp.obj
 0001:0005870c       ?__scrt_initialize_thread_safe_statics@@YAHXZ 000000018005970c f   MSVCRT:thread_safe_statics.obj
 0001:0005886c       ?__scrt_uninitialize_thread_safe_statics@@YAXXZ 000000018005986c f   MSVCRT:thread_safe_statics.obj
 0001:00058b50       $$000000                   0000000180059b50     MSVCRT:amdsecgs.obj
 0001:00058bb0       ?dllmain_crt_dispatch@@YAHQEAUHINSTANCE__@@KQEAX@Z 0000000180059bb0 f   MSVCRT:dll_dllmain.obj
 0001:00058c00       ?dllmain_crt_process_attach@@YAHQEAUHINSTANCE__@@QEAX@Z 0000000180059c00 f   MSVCRT:dll_dllmain.obj
 0001:00058d1c       ?dllmain_crt_process_detach@@YAH_N@Z 0000000180059d1c f   MSVCRT:dll_dllmain.obj
 0001:00058dac       ?dllmain_dispatch@@YAHQEAUHINSTANCE__@@KQEAX@Z 0000000180059dac f   MSVCRT:dll_dllmain.obj
 0001:00059414       capture_previous_context   000000018005a414 f   MSVCRT:gs_report.obj
 0001:000596c0       $$000000                   000000018005a6c0     MSVCRT:guard_dispatch.obj
 0001:000596e0       ?catch$1@?0???$_Buynode@AEBUpiecewise_construct_t@std@@V?$tuple@$$QEAV?$basic_string@DU?$char_traits@D@std@@V?$allocator@D@2@@std@@@2@V?$tuple@$$V@2@@?$_Tree_comp_alloc@V?$_Tmap_traits@V?$basic_string@DU?$char_traits@D@std@@V?$allocator@D@2@@std@@_NU?$less@V?$basic_string@DU?$char_traits@D@std@@V?$allocator@D@2@@std@@@2@V?$allocator@U?$pair@$$CBV?$basic_string@DU?$char_traits@D@std@@V?$allocator@D@2@@std@@_N@std@@@2@$0A@@std@@@std@@QEAAPEAU?$_Tree_node@U?$pair@$$CBV?$basic_string@DU?$char_traits@D@std@@V?$allocator@D@2@@std@@_N@std@@PEAX@1@AEBUpiecewise_construct_t@1@$$QEAV?$tuple@$$QEAV?$basic_string@DU?$char_traits@D@std@@V?$allocator@D@2@@std@@@1@$$QEAV?$tuple@$$V@1@@Z@4HA 000000018005a6e0 f   idp.obj
 0001:000596ed       __catch$??$_Buynode@AEBUpiecewise_construct_t@std@@V?$tuple@$$QEAV?$basic_string@DU?$char_traits@D@std@@V?$allocator@D@2@@std@@@2@V?$tuple@$$V@2@@?$_Tree_comp_alloc@V?$_Tmap_traits@V?$basic_string@DU?$char_traits@D@std@@V?$allocator@D@2@@std@@_NU?$less@V?$basic_string@DU?$char_traits@D@std@@V?$allocator@D@2@@std@@@2@V?$allocator@U?$pair@$$CBV?$basic_string@DU?$char_traits@D@std@@V?$allocator@D@2@@std@@_N@std@@@2@$0A@@std@@@std@@QEAAPEAU?$_Tree_node@U?$pair@$$CBV?$basic_string@DU?$char_traits@D@std@@V?$allocator@D@2@@std@@_N@std@@PEAX@1@AEBUpiecewise_construct_t@1@$$QEAV?$tuple@$$QEAV?$basic_string@DU?$char_traits@D@std@@V?$allocator@D@2@@std@@@1@$$QEAV?$tuple@$$V@1@@Z$0 000000018005a6ed f   idp.obj
 0001:00059710       ?catch$0@?0???$_Buynode@AEBUpiecewise_construct_t@std@@V?$tuple@AEBQEAX@2@V?$tuple@$$V@2@@?$_Tree_comp_alloc@V?$_Tmap_traits@PEAXPEAVDirector@Swig@@U?$less@PEAX@std@@V?$allocator@U?$pair@QEAXPEAVDirector@Swig@@@std@@@4@$0A@@std@@@std@@QEAAPEAU?$_Tree_node@U?$pair@QEAXPEAVDirector@Swig@@@std@@PEAX@1@AEBUpiecewise_construct_t@1@$$QEAV?$tuple@AEBQEAX@1@$$QEAV?$tuple@$$V@1@@Z@4HA 000000018005a710 f   idp.obj
 0001:0005971d       __catch$??$_Buynode@AEBUpiecewise_construct_t@std@@V?$tuple@AEBQEAX@2@V?$tuple@$$V@2@@?$_Tree_comp_alloc@V?$_Tmap_traits@PEAXPEAVDirector@Swig@@U?$less@PEAX@std@@V?$allocator@U?$pair@QEAXPEAVDirector@Swig@@@std@@@4@$0A@@std@@@std@@QEAAPEAU?$_Tree_node@U?$pair@QEAXPEAVDirector@Swig@@@std@@PEAX@1@AEBUpiecewise_construct_t@1@$$QEAV?$tuple@AEBQEAX@1@$$QEAV?$tuple@$$V@1@@Z$0 000000018005a71d f   idp.obj
 0001:00059740       ?catch$0@?0???$_Insert_hint@AEAU?$pair@$$CBV?$basic_string@DU?$char_traits@D@std@@V?$allocator@D@2@@std@@_N@std@@PEAU?$_Tree_node@U?$pair@$$CBV?$basic_string@DU?$char_traits@D@std@@V?$allocator@D@2@@std@@_N@std@@PEAX@2@@?$_Tree@V?$_Tmap_traits@V?$basic_string@DU?$char_traits@D@std@@V?$allocator@D@2@@std@@_NU?$less@V?$basic_string@DU?$char_traits@D@std@@V?$allocator@D@2@@std@@@2@V?$allocator@U?$pair@$$CBV?$basic_string@DU?$char_traits@D@std@@V?$allocator@D@2@@std@@_N@std@@@2@$0A@@std@@@std@@IEAA?AV?$_Tree_iterator@V?$_Tree_val@U?$_Tree_simple_types@U?$pair@$$CBV?$basic_string@DU?$char_traits@D@std@@V?$allocator@D@2@@std@@_N@std@@@std@@@std@@@1@V?$_Tree_const_iterator@V?$_Tree_val@U?$_Tree_simple_types@U?$pair@$$CBV?$basic_string@DU?$char_traits@D@std@@V?$allocator@D@2@@std@@_N@std@@@std@@@std@@@1@AEAU?$pair@$$CBV?$basic_string@DU?$char_traits@D@std@@V?$allocator@D@2@@std@@_N@1@PEAU?$_Tree_node@U?$pair@$$CBV?$basic_string@DU?$char_traits@D@std@@V?$allocator@D@2@@std@@_N@std@@PEAX@1@@Z@4HA 000000018005a740 f   idp.obj
 0001:0005974d       __catch$??$_Insert_hint@AEAU?$pair@$$CBV?$basic_string@DU?$char_traits@D@std@@V?$allocator@D@2@@std@@_N@std@@PEAU?$_Tree_node@U?$pair@$$CBV?$basic_string@DU?$char_traits@D@std@@V?$allocator@D@2@@std@@_N@std@@PEAX@2@@?$_Tree@V?$_Tmap_traits@V?$basic_string@DU?$char_traits@D@std@@V?$allocator@D@2@@std@@_NU?$less@V?$basic_string@DU?$char_traits@D@std@@V?$allocator@D@2@@std@@@2@V?$allocator@U?$pair@$$CBV?$basic_string@DU?$char_traits@D@std@@V?$allocator@D@2@@std@@_N@std@@@2@$0A@@std@@@std@@IEAA?AV?$_Tree_iterator@V?$_Tree_val@U?$_Tree_simple_types@U?$pair@$$CBV?$basic_string@DU?$char_traits@D@std@@V?$allocator@D@2@@std@@_N@std@@@std@@@std@@@1@V?$_Tree_const_iterator@V?$_Tree_val@U?$_Tree_simple_types@U?$pair@$$CBV?$basic_string@DU?$char_traits@D@std@@V?$allocator@D@2@@std@@_N@std@@@std@@@std@@@1@AEAU?$pair@$$CBV?$basic_string@DU?$char_traits@D@std@@V?$allocator@D@2@@std@@_N@1@PEAU?$_Tree_node@U?$pair@$$CBV?$basic_string@DU?$char_traits@D@std@@V?$allocator@D@2@@std@@_N@std@@PEAX@1@@Z$0 000000018005a74d f   idp.obj
 0001:00059770       ?catch$0@?0???$_Insert_hint@AEAU?$pair@QEAXPEAVDirector@Swig@@@std@@PEAU?$_Tree_node@U?$pair@QEAXPEAVDirector@Swig@@@std@@PEAX@2@@?$_Tree@V?$_Tmap_traits@PEAXPEAVDirector@Swig@@U?$less@PEAX@std@@V?$allocator@U?$pair@QEAXPEAVDirector@Swig@@@std@@@4@$0A@@std@@@std@@IEAA?AV?$_Tree_iterator@V?$_Tree_val@U?$_Tree_simple_types@U?$pair@QEAXPEAVDirector@Swig@@@std@@@std@@@std@@@1@V?$_Tree_const_iterator@V?$_Tree_val@U?$_Tree_simple_types@U?$pair@QEAXPEAVDirector@Swig@@@std@@@std@@@std@@@1@AEAU?$pair@QEAXPEAVDirector@Swig@@@1@PEAU?$_Tree_node@U?$pair@QEAXPEAVDirector@Swig@@@std@@PEAX@1@@Z@4HA 000000018005a770 f   idp.obj
 0001:0005977d       __catch$??$_Insert_hint@AEAU?$pair@QEAXPEAVDirector@Swig@@@std@@PEAU?$_Tree_node@U?$pair@QEAXPEAVDirector@Swig@@@std@@PEAX@2@@?$_Tree@V?$_Tmap_traits@PEAXPEAVDirector@Swig@@U?$less@PEAX@std@@V?$allocator@U?$pair@QEAXPEAVDirector@Swig@@@std@@@4@$0A@@std@@@std@@IEAA?AV?$_Tree_iterator@V?$_Tree_val@U?$_Tree_simple_types@U?$pair@QEAXPEAVDirector@Swig@@@std@@@std@@@std@@@1@V?$_Tree_const_iterator@V?$_Tree_val@U?$_Tree_simple_types@U?$pair@QEAXPEAVDirector@Swig@@@std@@@std@@@std@@@1@AEAU?$pair@QEAXPEAVDirector@Swig@@@1@PEAU?$_Tree_node@U?$pair@QEAXPEAVDirector@Swig@@@std@@PEAX@1@@Z$0 000000018005a77d f   idp.obj
 0001:000597a0       ?catch$0@?0???$_Insert_nohint@AEAU?$pair@$$CBV?$basic_string@DU?$char_traits@D@std@@V?$allocator@D@2@@std@@_N@std@@PEAU?$_Tree_node@U?$pair@$$CBV?$basic_string@DU?$char_traits@D@std@@V?$allocator@D@2@@std@@_N@std@@PEAX@2@@?$_Tree@V?$_Tmap_traits@V?$basic_string@DU?$char_traits@D@std@@V?$allocator@D@2@@std@@_NU?$less@V?$basic_string@DU?$char_traits@D@std@@V?$allocator@D@2@@std@@@2@V?$allocator@U?$pair@$$CBV?$basic_string@DU?$char_traits@D@std@@V?$allocator@D@2@@std@@_N@std@@@2@$0A@@std@@@std@@IEAA?AU?$pair@V?$_Tree_iterator@V?$_Tree_val@U?$_Tree_simple_types@U?$pair@$$CBV?$basic_string@DU?$char_traits@D@std@@V?$allocator@D@2@@std@@_N@std@@@std@@@std@@@std@@_N@1@_NAEAU?$pair@$$CBV?$basic_string@DU?$char_traits@D@std@@V?$allocator@D@2@@std@@_N@1@PEAU?$_Tree_node@U?$pair@$$CBV?$basic_string@DU?$char_traits@D@std@@V?$allocator@D@2@@std@@_N@std@@PEAX@1@@Z@4HA 000000018005a7a0 f   idp.obj
 0001:000597ad       __catch$??$_Insert_nohint@AEAU?$pair@$$CBV?$basic_string@DU?$char_traits@D@std@@V?$allocator@D@2@@std@@_N@std@@PEAU?$_Tree_node@U?$pair@$$CBV?$basic_string@DU?$char_traits@D@std@@V?$allocator@D@2@@std@@_N@std@@PEAX@2@@?$_Tree@V?$_Tmap_traits@V?$basic_string@DU?$char_traits@D@std@@V?$allocator@D@2@@std@@_NU?$less@V?$basic_string@DU?$char_traits@D@std@@V?$allocator@D@2@@std@@@2@V?$allocator@U?$pair@$$CBV?$basic_string@DU?$char_traits@D@std@@V?$allocator@D@2@@std@@_N@std@@@2@$0A@@std@@@std@@IEAA?AU?$pair@V?$_Tree_iterator@V?$_Tree_val@U?$_Tree_simple_types@U?$pair@$$CBV?$basic_string@DU?$char_traits@D@std@@V?$allocator@D@2@@std@@_N@std@@@std@@@std@@@std@@_N@1@_NAEAU?$pair@$$CBV?$basic_string@DU?$char_traits@D@std@@V?$allocator@D@2@@std@@_N@1@PEAU?$_Tree_node@U?$pair@$$CBV?$basic_string@DU?$char_traits@D@std@@V?$allocator@D@2@@std@@_N@std@@PEAX@1@@Z$0 000000018005a7ad f   idp.obj
 0001:000597d0       ?catch$0@?0???$_Insert_nohint@AEAU?$pair@QEAXPEAVDirector@Swig@@@std@@PEAU?$_Tree_node@U?$pair@QEAXPEAVDirector@Swig@@@std@@PEAX@2@@?$_Tree@V?$_Tmap_traits@PEAXPEAVDirector@Swig@@U?$less@PEAX@std@@V?$allocator@U?$pair@QEAXPEAVDirector@Swig@@@std@@@4@$0A@@std@@@std@@IEAA?AU?$pair@V?$_Tree_iterator@V?$_Tree_val@U?$_Tree_simple_types@U?$pair@QEAXPEAVDirector@Swig@@@std@@@std@@@std@@@std@@_N@1@_NAEAU?$pair@QEAXPEAVDirector@Swig@@@1@PEAU?$_Tree_node@U?$pair@QEAXPEAVDirector@Swig@@@std@@PEAX@1@@Z@4HA 000000018005a7d0 f   idp.obj
 0001:000597dd       __catch$??$_Insert_nohint@AEAU?$pair@QEAXPEAVDirector@Swig@@@std@@PEAU?$_Tree_node@U?$pair@QEAXPEAVDirector@Swig@@@std@@PEAX@2@@?$_Tree@V?$_Tmap_traits@PEAXPEAVDirector@Swig@@U?$less@PEAX@std@@V?$allocator@U?$pair@QEAXPEAVDirector@Swig@@@std@@@4@$0A@@std@@@std@@IEAA?AU?$pair@V?$_Tree_iterator@V?$_Tree_val@U?$_Tree_simple_types@U?$pair@QEAXPEAVDirector@Swig@@@std@@@std@@@std@@@std@@_N@1@_NAEAU?$pair@QEAXPEAVDirector@Swig@@@1@PEAU?$_Tree_node@U?$pair@QEAXPEAVDirector@Swig@@@std@@PEAX@1@@Z$0 000000018005a7dd f   idp.obj
 0001:00059800       ?dtor$1@?0???0DirectorMethodException@Swig@@QEAA@AEBV01@@Z@4HA 000000018005a800 f   idp.obj
 0001:00059800       ?dtor$1@?0???0DirectorTypeMismatchException@Swig@@QEAA@AEBV01@@Z@4HA 000000018005a800 f   idp.obj
 0001:00059800       ?dtor$0@?0???0DirectorException@Swig@@QEAA@AEBV01@@Z@4HA 000000018005a800 f   idp.obj
 0001:00059810       ?dtor$0@?0???0DirectorException@Swig@@QEAA@PEAU_object@@PEBD1@Z@4HA 000000018005a810 f   idp.obj
 0001:00059820       ?dtor$1@?0???0DirectorException@Swig@@QEAA@PEAU_object@@PEBD1@Z@4HA 000000018005a820 f   idp.obj
 0001:00059830       ?dtor$2@?0???0DirectorException@Swig@@QEAA@PEAU_object@@PEBD1@Z@4HA 000000018005a830 f   idp.obj
 0001:00059840       ?catch$1@?0??IDB_Callback@@YA_JPEAXHPEAD@Z@4HA 000000018005a840 f   idp.obj
 0001:0005984d       __catch$?IDB_Callback@@YA_JPEAXHPEAD@Z$0 000000018005a84d f   idp.obj
 0001:00059890       ?dtor$0@?0??IDB_Callback@@YA_JPEAXHPEAD@Z@4HA 000000018005a890 f   idp.obj
 0001:000598a0       ?catch$3@?0??IDP_Callback@@YA_JPEAXHPEAD@Z@4HA 000000018005a8a0 f   idp.obj
 0001:000598ad       __catch$?IDP_Callback@@YA_JPEAXHPEAD@Z$0 000000018005a8ad f   idp.obj
 0001:000598f0       ?dtor$0@?0??IDP_Callback@@YA_JPEAXHPEAD@Z@4HA 000000018005a8f0 f   idp.obj
 0001:00059900       ?catch$0@?0??_Buyheadnode@?$_Tree_comp_alloc@V?$_Tmap_traits@PEAXPEAVDirector@Swig@@U?$less@PEAX@std@@V?$allocator@U?$pair@QEAXPEAVDirector@Swig@@@std@@@4@$0A@@std@@@std@@QEAAPEAU?$_Tree_node@U?$pair@QEAXPEAVDirector@Swig@@@std@@PEAX@2@XZ@4HA 000000018005a900 f   idp.obj
 0001:00059900       ?catch$0@?0??_Buyheadnode@?$_Tree_comp_alloc@V?$_Tmap_traits@PEAXUGCItem_var@Swig@@U?$less@PEAX@std@@V?$allocator@U?$pair@QEAXUGCItem_var@Swig@@@std@@@4@$0A@@std@@@std@@QEAAPEAU?$_Tree_node@U?$pair@QEAXUGCItem_var@Swig@@@std@@PEAX@2@XZ@4HA 000000018005a900 f   idp.obj
 0001:0005990d       __catch$?_Buyheadnode@?$_Tree_comp_alloc@V?$_Tmap_traits@PEAXPEAVDirector@Swig@@U?$less@PEAX@std@@V?$allocator@U?$pair@QEAXPEAVDirector@Swig@@@std@@@4@$0A@@std@@@std@@QEAAPEAU?$_Tree_node@U?$pair@QEAXPEAVDirector@Swig@@@std@@PEAX@2@XZ$0 000000018005a90d f   idp.obj
 0001:0005990d       __catch$?_Buyheadnode@?$_Tree_comp_alloc@V?$_Tmap_traits@PEAXUGCItem_var@Swig@@U?$less@PEAX@std@@V?$allocator@U?$pair@QEAXUGCItem_var@Swig@@@std@@@4@$0A@@std@@@std@@QEAAPEAU?$_Tree_node@U?$pair@QEAXUGCItem_var@Swig@@@std@@PEAX@2@XZ$0 000000018005a90d f   idp.obj
 0001:00059930       ?catch$0@?0??_Buyheadnode@?$_Tree_comp_alloc@V?$_Tmap_traits@V?$basic_string@DU?$char_traits@D@std@@V?$allocator@D@2@@std@@_NU?$less@V?$basic_string@DU?$char_traits@D@std@@V?$allocator@D@2@@std@@@2@V?$allocator@U?$pair@$$CBV?$basic_string@DU?$char_traits@D@std@@V?$allocator@D@2@@std@@_N@std@@@2@$0A@@std@@@std@@QEAAPEAU?$_Tree_node@U?$pair@$$CBV?$basic_string@DU?$char_traits@D@std@@V?$allocator@D@2@@std@@_N@std@@PEAX@2@XZ@4HA 000000018005a930 f   idp.obj
 0001:0005993d       __catch$?_Buyheadnode@?$_Tree_comp_alloc@V?$_Tmap_traits@V?$basic_string@DU?$char_traits@D@std@@V?$allocator@D@2@@std@@_NU?$less@V?$basic_string@DU?$char_traits@D@std@@V?$allocator@D@2@@std@@@2@V?$allocator@U?$pair@$$CBV?$basic_string@DU?$char_traits@D@std@@V?$allocator@D@2@@std@@_N@std@@@2@$0A@@std@@@std@@QEAAPEAU?$_Tree_node@U?$pair@$$CBV?$basic_string@DU?$char_traits@D@std@@V?$allocator@D@2@@std@@_N@std@@PEAX@2@XZ$0 000000018005a93d f   idp.obj
 0001:00059960       ?catch$0@?0??_Buynode0@?$_Tree_comp_alloc@V?$_Tmap_traits@PEAXPEAVDirector@Swig@@U?$less@PEAX@std@@V?$allocator@U?$pair@QEAXPEAVDirector@Swig@@@std@@@4@$0A@@std@@@std@@QEAAPEAU?$_Tree_node@U?$pair@QEAXPEAVDirector@Swig@@@std@@PEAX@2@XZ@4HA 000000018005a960 f   idp.obj
 0001:0005996d       __catch$?_Buynode0@?$_Tree_comp_alloc@V?$_Tmap_traits@PEAXPEAVDirector@Swig@@U?$less@PEAX@std@@V?$allocator@U?$pair@QEAXPEAVDirector@Swig@@@std@@@4@$0A@@std@@@std@@QEAAPEAU?$_Tree_node@U?$pair@QEAXPEAVDirector@Swig@@@std@@PEAX@2@XZ$0 000000018005a96d f   idp.obj
 0001:00059990       ?catch$0@?0??_Buynode0@?$_Tree_comp_alloc@V?$_Tmap_traits@V?$basic_string@DU?$char_traits@D@std@@V?$allocator@D@2@@std@@_NU?$less@V?$basic_string@DU?$char_traits@D@std@@V?$allocator@D@2@@std@@@2@V?$allocator@U?$pair@$$CBV?$basic_string@DU?$char_traits@D@std@@V?$allocator@D@2@@std@@_N@std@@@2@$0A@@std@@@std@@QEAAPEAU?$_Tree_node@U?$pair@$$CBV?$basic_string@DU?$char_traits@D@std@@V?$allocator@D@2@@std@@_N@std@@PEAX@2@XZ@4HA 000000018005a990 f   idp.obj
 0001:0005999d       __catch$?_Buynode0@?$_Tree_comp_alloc@V?$_Tmap_traits@V?$basic_string@DU?$char_traits@D@std@@V?$allocator@D@2@@std@@_NU?$less@V?$basic_string@DU?$char_traits@D@std@@V?$allocator@D@2@@std@@@2@V?$allocator@U?$pair@$$CBV?$basic_string@DU?$char_traits@D@std@@V?$allocator@D@2@@std@@_N@std@@@2@$0A@@std@@@std@@QEAAPEAU?$_Tree_node@U?$pair@$$CBV?$basic_string@DU?$char_traits@D@std@@V?$allocator@D@2@@std@@_N@std@@PEAX@2@XZ$0 000000018005a99d f   idp.obj
 0001:000599c0       ?dtor$4@?0??ev_treat_hindering_item@SwigDirector_IDP_Hooks@@UEAAHIIII@Z@4HA 000000018005a9c0 f   idp.obj
 0001:000599c0       ?dtor$5@?0??ev_set_idp_options@SwigDirector_IDP_Hooks@@UEAAHPEBDHPEBXPEAPEBD@Z@4HA 000000018005a9c0 f   idp.obj
 0001:000599c0       ?dtor$5@?0??ev_decorate_name@SwigDirector_IDP_Hooks@@UEAAPEAU_object@@PEBD_NHPEBVtinfo_t@@@Z@4HA 000000018005a9c0 f   idp.obj
 0001:000599c0       ?dtor$0@?0??changing_segm_class@SwigDirector_IDB_Hooks@@UEAAHPEAVsegment_t@@@Z@4HA 000000018005a9c0 f   idp.obj
 0001:000599c0       ?dtor$0@?0??upgraded@SwigDirector_IDB_Hooks@@UEAAHH@Z@4HA 000000018005a9c0 f   idp.obj
 0001:000599c0       ?dtor$0@?0??updating_tryblks@SwigDirector_IDB_Hooks@@UEAAHPEBV?$qvector@Vtryblk_t@@@@@Z@4HA 000000018005a9c0 f   idp.obj
 0001:000599c0       ?dtor$1@?0??ev_out_footer@SwigDirector_IDP_Hooks@@UEAAXPEAUoutctx_t@@@Z@4HA 000000018005a9c0 f   idp.obj
 0001:000599c0       ?dtor$0@?0??changing_struc_align@SwigDirector_IDB_Hooks@@UEAAHPEAVstruc_t@@@Z@4HA 000000018005a9c0 f   idp.obj
 0001:000599c0       ?dtor$0@?0??tryblks_updated@SwigDirector_IDB_Hooks@@UEAAHPEBV?$qvector@Vtryblk_t@@@@@Z@4HA 000000018005a9c0 f   idp.obj
 0001:000599c0       ?dtor$0@?0??allsegs_moved@SwigDirector_IDB_Hooks@@UEAAHPEAUsegm_move_infos_t@@@Z@4HA 000000018005a9c0 f   idp.obj
 0001:000599c0       ?dtor$0@?0??struc_renamed@SwigDirector_IDB_Hooks@@UEAAHPEAVstruc_t@@@Z@4HA 000000018005a9c0 f   idp.obj
 0001:000599c0       ?dtor$4@?0??ev_get_simd_types@SwigDirector_IDP_Hooks@@UEAAHPEAV?$qvector@Usimd_info_t@@@@PEBUsimd_info_t@@PEBVargloc_t@@_N@Z@4HA 000000018005a9c0 f   idp.obj
 0001:000599c0       ?dtor$0@?0??deleting_enum@SwigDirector_IDB_Hooks@@UEAAHI@Z@4HA 000000018005a9c0 f   idp.obj
 0001:000599c0       ?dtor$0@?0??struc_expanded@SwigDirector_IDB_Hooks@@UEAAHPEAVstruc_t@@@Z@4HA 000000018005a9c0 f   idp.obj
 0001:000599c0       ?dtor$0@?0??deleting_func@SwigDirector_IDB_Hooks@@UEAAHPEAVfunc_t@@@Z@4HA 000000018005a9c0 f   idp.obj
 0001:000599c0       ?dtor$0@?0??deleting_segm@SwigDirector_IDB_Hooks@@UEAAHI@Z@4HA 000000018005a9c0 f   idp.obj
 0001:000599c0       ?dtor$1@?0??ev_out_header@SwigDirector_IDP_Hooks@@UEAAXPEAUoutctx_t@@@Z@4HA 000000018005a9c0 f   idp.obj
 0001:000599c0       ?dtor$0@?0??struc_deleted@SwigDirector_IDB_Hooks@@UEAAHI@Z@4HA 000000018005a9c0 f   idp.obj
 0001:000599c0       ?dtor$0@?0??deleting_struc@SwigDirector_IDB_Hooks@@UEAAHPEAVstruc_t@@@Z@4HA 000000018005a9c0 f   idp.obj
 0001:000599c0       ?dtor$5@?0??range_cmt_changed@SwigDirector_IDB_Hooks@@UEAAHW4range_kind_t@@PEBUrange_t@@PEBD_N@Z@4HA 000000018005a9c0 f   idp.obj
 0001:000599c0       ?dtor$0@?0??struc_created@SwigDirector_IDB_Hooks@@UEAAHI@Z@4HA 000000018005a9c0 f   idp.obj
 0001:000599c0       ?dtor$4@?0??ev_next_exec_insn@SwigDirector_IDP_Hooks@@UEAAHPEAIIHP6AAEBUregval_t@@PEBDPEBU2@@Z2@Z@4HA 000000018005a9c0 f   idp.obj
 0001:000599c0       ?dtor$5@?0??ev_assemble@SwigDirector_IDP_Hooks@@UEAAPEAU_object@@III_NPEBD@Z@4HA 000000018005a9c0 f   idp.obj
 0001:000599c0       ?dtor$0@?0??thunk_func_created@SwigDirector_IDB_Hooks@@UEAAHPEAVfunc_t@@@Z@4HA 000000018005a9c0 f   idp.obj
 0001:000599c0       ?dtor$4@?0??make_data@SwigDirector_IDB_Hooks@@UEAAHIIII@Z@4HA 000000018005a9c0 f   idp.obj
 0001:000599c0       ?dtor$4@?0??segm_moved@SwigDirector_IDB_Hooks@@UEAAHIII_N@Z@4HA 000000018005a9c0 f   idp.obj
 0001:000599c0       ?dtor$0@?0??deleting_tryblks@SwigDirector_IDB_Hooks@@UEAAHPEBUrange_t@@@Z@4HA 000000018005a9c0 f   idp.obj
 0001:000599c0       ?dtor$0@?0??struc_align_changed@SwigDirector_IDB_Hooks@@UEAAHPEAVstruc_t@@@Z@4HA 000000018005a9c0 f   idp.obj
 0001:000599c0       ?dtor$4@?0??ev_gen_asm_or_lst@SwigDirector_IDP_Hooks@@UEAAX_NPEAU_iobuf@@0HPEAP6AH1AEBV?$_qstring@D@@II@Z@Z@4HA 000000018005a9c0 f   idp.obj
 0001:000599c0       ?dtor$0@?0??determined_main@SwigDirector_IDB_Hooks@@UEAAHI@Z@4HA 000000018005a9c0 f   idp.obj
 0001:000599c0       ?dtor$0@?0??enum_bf_changed@SwigDirector_IDB_Hooks@@UEAAHI@Z@4HA 000000018005a9c0 f   idp.obj
 0001:000599c0       ?dtor$0@?0??stkpnts_changed@SwigDirector_IDB_Hooks@@UEAAHPEAVfunc_t@@@Z@4HA 000000018005a9c0 f   idp.obj
 0001:000599c0       ?dtor$0@?0??enum_created@SwigDirector_IDB_Hooks@@UEAAHI@Z@4HA 000000018005a9c0 f   idp.obj
 0001:000599c0       ?dtor$0@?0??enum_deleted@SwigDirector_IDB_Hooks@@UEAAHI@Z@4HA 000000018005a9c0 f   idp.obj
 0001:000599c0       ?dtor$0@?0??enum_renamed@SwigDirector_IDB_Hooks@@UEAAHI@Z@4HA 000000018005a9c0 f   idp.obj
 0001:000599c0       ?dtor$0@?0??ev_ana_insn@SwigDirector_IDP_Hooks@@UEAA_NPEAVinsn_t@@@Z@4HA 000000018005a9c0 f   idp.obj
 0001:000599c0       ?dtor$0@?0??ev_analyze_prolog@SwigDirector_IDP_Hooks@@UEAAHI@Z@4HA 000000018005a9c0 f   idp.obj
 0001:000599c0       ?dtor$0@?0??segm_attrs_updated@SwigDirector_IDB_Hooks@@UEAAHPEAVsegment_t@@@Z@4HA 000000018005a9c0 f   idp.obj
 0001:000599c0       ?dtor$0@?0??ev_calc_arglocs@SwigDirector_IDP_Hooks@@UEAAHPEAUfunc_type_data_t@@@Z@4HA 000000018005a9c0 f   idp.obj
 0001:000599c0       ?dtor$0@?0??segm_added@SwigDirector_IDB_Hooks@@UEAAHPEAVsegment_t@@@Z@4HA 000000018005a9c0 f   idp.obj
 0001:000599c0       ?dtor$0@?0??make_code@SwigDirector_IDB_Hooks@@UEAAHPEBVinsn_t@@@Z@4HA 000000018005a9c0 f   idp.obj
 0001:000599c0       ?dtor$0@?0??ev_calc_cdecl_purged_bytes@SwigDirector_IDP_Hooks@@UEAAHI@Z@4HA 000000018005a9c0 f   idp.obj
 0001:000599c0       ?dtor$0@?0??idasgn_loaded@SwigDirector_IDB_Hooks@@UEAAHPEBD@Z@4HA 000000018005a9c0 f   idp.obj
 0001:000599c0       ?dtor$0@?0??ev_can_have_type@SwigDirector_IDP_Hooks@@UEAAHPEBVop_t@@@Z@4HA 000000018005a9c0 f   idp.obj
 0001:000599c0       ?dtor$0@?0??ev_coagulate@SwigDirector_IDP_Hooks@@UEAAHI@Z@4HA 000000018005a9c0 f   idp.obj
 0001:000599c0       ?dtor$0@?0??ev_create_func_frame@SwigDirector_IDP_Hooks@@UEAAHPEAVfunc_t@@@Z@4HA 000000018005a9c0 f   idp.obj
 0001:000599c0       ?dtor$0@?0??ev_creating_segm@SwigDirector_IDP_Hooks@@UEAAHPEAVsegment_t@@@Z@4HA 000000018005a9c0 f   idp.obj
 0001:000599c0       ?dtor$0@?0??func_updated@SwigDirector_IDB_Hooks@@UEAAHPEAVfunc_t@@@Z@4HA 000000018005a9c0 f   idp.obj
 0001:000599c0       ?dtor$0@?0??ev_emu_insn@SwigDirector_IDP_Hooks@@UEAA_NPEBVinsn_t@@@Z@4HA 000000018005a9c0 f   idp.obj
 0001:000599c0       ?dtor$0@?0??ev_endbinary@SwigDirector_IDP_Hooks@@UEAAH_N@Z@4HA 000000018005a9c0 f   idp.obj
 0001:000599c0       ?dtor$0@?0??func_noret_changed@SwigDirector_IDB_Hooks@@UEAAHPEAVfunc_t@@@Z@4HA 000000018005a9c0 f   idp.obj
 0001:000599c0       ?dtor$0@?0??func_added@SwigDirector_IDB_Hooks@@UEAAHPEAVfunc_t@@@Z@4HA 000000018005a9c0 f   idp.obj
 0001:000599c0       ?dtor$0@?0??frame_deleted@SwigDirector_IDB_Hooks@@UEAAHPEAVfunc_t@@@Z@4HA 000000018005a9c0 f   idp.obj
 0001:000599c0       ?dtor$5@?0??changing_range_cmt@SwigDirector_IDB_Hooks@@UEAAHW4range_kind_t@@PEBUrange_t@@PEBD_N@Z@4HA 000000018005a9c0 f   idp.obj
 0001:000599c0       ?dtor$0@?0??flow_chart_created@SwigDirector_IDB_Hooks@@UEAAHPEAVqflow_chart_t@@@Z@4HA 000000018005a9c0 f   idp.obj
 0001:000599c0       ?dtor$0@?0??ev_get_default_enum_size@SwigDirector_IDP_Hooks@@UEAAHE@Z@4HA 000000018005a9c0 f   idp.obj
 0001:000599c0       ?dtor$0@?0??ev_verify_sp@SwigDirector_IDP_Hooks@@UEAAHPEAVfunc_t@@@Z@4HA 000000018005a9c0 f   idp.obj
 0001:000599c0       ?dtor$1@?0??sgr_changed@SwigDirector_IDB_Hooks@@UEAAHIIHIIE@Z@4HA 000000018005a9c0 f   idp.obj
 0001:000599c0       ?dtor$0@?0??ev_init@SwigDirector_IDP_Hooks@@UEAAHPEBD@Z@4HA 000000018005a9c0 f   idp.obj
 0001:000599c0       ?dtor$0@?0??ev_verify_noreturn@SwigDirector_IDP_Hooks@@UEAAHPEAVfunc_t@@@Z@4HA 000000018005a9c0 f   idp.obj
 0001:000599c0       ?dtor$0@?0??ev_is_align_insn@SwigDirector_IDP_Hooks@@UEAAHI@Z@4HA 000000018005a9c0 f   idp.obj
 0001:000599c0       ?dtor$4@?0??changing_struc_member@SwigDirector_IDB_Hooks@@UEAAHPEAVstruc_t@@PEAVmember_t@@IPEBTopinfo_t@@I@Z@4HA 000000018005a9c0 f   idp.obj
 0001:000599c0       ?dtor$0@?0??ev_is_alloca_probe@SwigDirector_IDP_Hooks@@UEAAHI@Z@4HA 000000018005a9c0 f   idp.obj
 0001:000599c0       ?dtor$4@?0??ev_coagulate_dref@SwigDirector_IDP_Hooks@@UEAAHII_NPEAI@Z@4HA 000000018005a9c0 f   idp.obj
 0001:000599c0       ?dtor$0@?0??ev_is_call_insn@SwigDirector_IDP_Hooks@@UEAAHPEBVinsn_t@@@Z@4HA 000000018005a9c0 f   idp.obj
 0001:000599c0       ?dtor$1@?0??ev_auto_queue_empty@SwigDirector_IDP_Hooks@@UEAAXH@Z@4HA 000000018005a9c0 f   idp.obj
 0001:000599c0       ?dtor$0@?0??ev_is_cond_insn@SwigDirector_IDP_Hooks@@UEAAHPEBVinsn_t@@@Z@4HA 000000018005a9c0 f   idp.obj
 0001:000599c0       ?dtor$0@?0??ev_is_far_jump@SwigDirector_IDP_Hooks@@UEAAHH@Z@4HA 000000018005a9c0 f   idp.obj
 0001:000599c0       ?dtor$0@?0??ev_is_indirect_jump@SwigDirector_IDP_Hooks@@UEAAHPEBVinsn_t@@@Z@4HA 000000018005a9c0 f   idp.obj
 0001:000599c0       ?dtor$0@?0??ev_is_insn_table_jump@SwigDirector_IDP_Hooks@@UEAAHPEBVinsn_t@@@Z@4HA 000000018005a9c0 f   idp.obj
 0001:000599c0       ?dtor$0@?0??ev_may_show_sreg@SwigDirector_IDP_Hooks@@UEAAHI@Z@4HA 000000018005a9c0 f   idp.obj
 0001:000599c0       ?dtor$0@?0??ev_newasm@SwigDirector_IDP_Hooks@@UEAAHH@Z@4HA 000000018005a9c0 f   idp.obj
 0001:000599c0       ?dtor$0@?0??ev_newfile@SwigDirector_IDP_Hooks@@UEAAHPEAD@Z@4HA 000000018005a9c0 f   idp.obj
 0001:000599c0       ?dtor$0@?0??ev_undefine@SwigDirector_IDP_Hooks@@UEAAHI@Z@4HA 000000018005a9c0 f   idp.obj
 0001:000599c0       ?dtor$0@?0??ev_str2reg@SwigDirector_IDP_Hooks@@UEAAHPEBD@Z@4HA 000000018005a9c0 f   idp.obj
 0001:000599c0       ?dtor$4@?0??ev_calc_varglocs@SwigDirector_IDP_Hooks@@UEAAHPEAUfunc_type_data_t@@PEAUregobjs_t@@PEAUrelobj_t@@H@Z@4HA 000000018005a9c0 f   idp.obj
 0001:000599c0       ?dtor$0@?0??ev_oldfile@SwigDirector_IDP_Hooks@@UEAAHPEAD@Z@4HA 000000018005a9c0 f   idp.obj
 0001:000599c0       ?dtor$4@?0??ev_adjust_refinfo@SwigDirector_IDP_Hooks@@UEAAHPEAUrefinfo_t@@IHPEBUfixup_data_t@@@Z@4HA 000000018005a9c0 f   idp.obj
 0001:000599c0       ?dtor$4@?0??ev_arg_addrs_ready@SwigDirector_IDP_Hooks@@UEAAHIHPEAVtinfo_t@@PEAI@Z@4HA 000000018005a9c0 f   idp.obj
 0001:000599c0       ?dtor$0@?0??ev_out_assumes@SwigDirector_IDP_Hooks@@UEAAHPEAUoutctx_t@@@Z@4HA 000000018005a9c0 f   idp.obj
 0001:000599c0       ?dtor$0@?0??ev_out_insn@SwigDirector_IDP_Hooks@@UEAA_NPEAUoutctx_t@@@Z@4HA 000000018005a9c0 f   idp.obj
 0001:000599c0       ?dtor$4@?0??ev_calc_switch_cases@SwigDirector_IDP_Hooks@@UEAAHPEAV?$qvector@V?$qvector@H@@@@PEAV?$qvector@I@@IPEAUswitch_info_t@@@Z@4HA 000000018005a9c0 f   idp.obj
 0001:000599c0       ?dtor$0@?0??ev_out_mnem@SwigDirector_IDP_Hooks@@UEAAHPEAUoutctx_t@@@Z@4HA 000000018005a9c0 f   idp.obj
 0001:000599d0       ?dtor$0@?0??ev_out_label@SwigDirector_IDP_Hooks@@UEAAHPEAUoutctx_t@@PEBD@Z@4HA 000000018005a9d0 f   idp.obj
 0001:000599d0       ?dtor$0@?0??ev_rename@SwigDirector_IDP_Hooks@@UEAAHIPEBD@Z@4HA 000000018005a9d0 f   idp.obj
 0001:000599d0       ?dtor$1@?0??ev_ana_insn@SwigDirector_IDP_Hooks@@UEAA_NPEAVinsn_t@@@Z@4HA 000000018005a9d0 f   idp.obj
 0001:000599d0       ?dtor$0@?0??ev_set_proc_options@SwigDirector_IDP_Hooks@@UEAAHPEBDH@Z@4HA 000000018005a9d0 f   idp.obj
 0001:000599d0       ?dtor$1@?0??segm_attrs_updated@SwigDirector_IDB_Hooks@@UEAAHPEAVsegment_t@@@Z@4HA 000000018005a9d0 f   idp.obj
 0001:000599d0       ?dtor$2@?0??ev_init@SwigDirector_IDP_Hooks@@UEAAHPEBD@Z@4HA 000000018005a9d0 f   idp.obj
 0001:000599d0       ?dtor$1@?0??segm_added@SwigDirector_IDB_Hooks@@UEAAHPEAVsegment_t@@@Z@4HA 000000018005a9d0 f   idp.obj
 0001:000599d0       ?dtor$1@?0??ev_analyze_prolog@SwigDirector_IDP_Hooks@@UEAAHI@Z@4HA 000000018005a9d0 f   idp.obj
 0001:000599d0       ?dtor$0@?0??ev_use_regarg_type@SwigDirector_IDP_Hooks@@UEAAPEAU_object@@IPEBV?$qvector@Ufuncarg_t@@@@@Z@4HA 000000018005a9d0 f   idp.obj
 0001:000599d0       ?dtor$0@?0??ev_validate_flirt_func@SwigDirector_IDP_Hooks@@UEAAHIPEBD@Z@4HA 000000018005a9d0 f   idp.obj
 0001:000599d0       ?dtor$1@?0??ev_calc_arglocs@SwigDirector_IDP_Hooks@@UEAAHPEAUfunc_type_data_t@@@Z@4HA 000000018005a9d0 f   idp.obj
 0001:000599d0       ?dtor$1@?0??ev_calc_cdecl_purged_bytes@SwigDirector_IDP_Hooks@@UEAAHI@Z@4HA 000000018005a9d0 f   idp.obj
 0001:000599d0       ?dtor$0@?0??ev_get_operand_string@SwigDirector_IDP_Hooks@@UEAAHPEAV?$_qstring@D@@PEBVinsn_t@@H@Z@4HA 000000018005a9d0 f   idp.obj
 0001:000599d0       ?dtor$1@?0??stkpnts_changed@SwigDirector_IDB_Hooks@@UEAAHPEAVfunc_t@@@Z@4HA 000000018005a9d0 f   idp.obj
 0001:000599d0       ?dtor$0@?0??ev_find_reg_value@SwigDirector_IDP_Hooks@@UEAAPEAU_object@@PEBVinsn_t@@H@Z@4HA 000000018005a9d0 f   idp.obj
 0001:000599d0       ?dtor$0@?0??ev_find_op_value@SwigDirector_IDP_Hooks@@UEAAPEAU_object@@PEBVinsn_t@@H@Z@4HA 000000018005a9d0 f   idp.obj
 0001:000599d0       ?dtor$1@?0??enum_renamed@SwigDirector_IDB_Hooks@@UEAAHI@Z@4HA 000000018005a9d0 f   idp.obj
 0001:000599d0       ?dtor$1@?0??struc_created@SwigDirector_IDB_Hooks@@UEAAHI@Z@4HA 000000018005a9d0 f   idp.obj
 0001:000599d0       ?dtor$1@?0??struc_deleted@SwigDirector_IDB_Hooks@@UEAAHI@Z@4HA 000000018005a9d0 f   idp.obj
 0001:000599d0       ?dtor$1@?0??struc_expanded@SwigDirector_IDB_Hooks@@UEAAHPEAVstruc_t@@@Z@4HA 000000018005a9d0 f   idp.obj
 0001:000599d0       ?dtor$1@?0??ev_out_mnem@SwigDirector_IDP_Hooks@@UEAAHPEAUoutctx_t@@@Z@4HA 000000018005a9d0 f   idp.obj
 0001:000599d0       ?dtor$3@?0??sgr_changed@SwigDirector_IDB_Hooks@@UEAAHIIHIIE@Z@4HA 000000018005a9d0 f   idp.obj
 0001:000599d0       ?dtor$2@?0??ev_newfile@SwigDirector_IDP_Hooks@@UEAAHPEAD@Z@4HA 000000018005a9d0 f   idp.obj
 0001:000599d0       ?dtor$1@?0??ev_can_have_type@SwigDirector_IDP_Hooks@@UEAAHPEBVop_t@@@Z@4HA 000000018005a9d0 f   idp.obj
 0001:000599d0       ?dtor$1@?0??enum_deleted@SwigDirector_IDB_Hooks@@UEAAHI@Z@4HA 000000018005a9d0 f   idp.obj
 0001:000599d0       ?dtor$1@?0??ev_undefine@SwigDirector_IDP_Hooks@@UEAAHI@Z@4HA 000000018005a9d0 f   idp.obj
 0001:000599d0       ?dtor$0@?0??segm_class_changed@SwigDirector_IDB_Hooks@@UEAAHPEAVsegment_t@@PEBD@Z@4HA 000000018005a9d0 f   idp.obj
 0001:000599d0       ?dtor$2@?0??ev_oldfile@SwigDirector_IDP_Hooks@@UEAAHPEAD@Z@4HA 000000018005a9d0 f   idp.obj
 0001:000599d0       ?dtor$0@?0??segm_name_changed@SwigDirector_IDB_Hooks@@UEAAHPEAVsegment_t@@PEBD@Z@4HA 000000018005a9d0 f   idp.obj
 0001:000599d0       ?dtor$1@?0??ev_coagulate@SwigDirector_IDP_Hooks@@UEAAHI@Z@4HA 000000018005a9d0 f   idp.obj
 0001:000599d0       ?dtor$1@?0??struc_renamed@SwigDirector_IDB_Hooks@@UEAAHPEAVstruc_t@@@Z@4HA 000000018005a9d0 f   idp.obj
 0001:000599d0       ?dtor$1@?0??ev_create_func_frame@SwigDirector_IDP_Hooks@@UEAAHPEAVfunc_t@@@Z@4HA 000000018005a9d0 f   idp.obj
 0001:000599d0       ?dtor$1@?0??ev_out_insn@SwigDirector_IDP_Hooks@@UEAA_NPEAUoutctx_t@@@Z@4HA 000000018005a9d0 f   idp.obj
 0001:000599d0       ?dtor$1@?0??make_code@SwigDirector_IDB_Hooks@@UEAAHPEBVinsn_t@@@Z@4HA 000000018005a9d0 f   idp.obj
 0001:000599d0       ?dtor$1@?0??ev_creating_segm@SwigDirector_IDP_Hooks@@UEAAHPEAVsegment_t@@@Z@4HA 000000018005a9d0 f   idp.obj
 0001:000599d0       ?dtor$1@?0??enum_created@SwigDirector_IDB_Hooks@@UEAAHI@Z@4HA 000000018005a9d0 f   idp.obj
 0001:000599d0       ?dtor$1@?0??thunk_func_created@SwigDirector_IDB_Hooks@@UEAAHPEAVfunc_t@@@Z@4HA 000000018005a9d0 f   idp.obj
 0001:000599d0       ?dtor$1@?0??ev_emu_insn@SwigDirector_IDP_Hooks@@UEAA_NPEBVinsn_t@@@Z@4HA 000000018005a9d0 f   idp.obj
 0001:000599d0       ?dtor$1@?0??enum_bf_changed@SwigDirector_IDB_Hooks@@UEAAHI@Z@4HA 000000018005a9d0 f   idp.obj
 0001:000599d0       ?dtor$1@?0??tryblks_updated@SwigDirector_IDB_Hooks@@UEAAHPEBV?$qvector@Vtryblk_t@@@@@Z@4HA 000000018005a9d0 f   idp.obj
 0001:000599d0       ?dtor$1@?0??determined_main@SwigDirector_IDB_Hooks@@UEAAHI@Z@4HA 000000018005a9d0 f   idp.obj
 0001:000599d0       ?dtor$1@?0??ev_endbinary@SwigDirector_IDP_Hooks@@UEAAH_N@Z@4HA 000000018005a9d0 f   idp.obj
 0001:000599d0       ?dtor$1@?0??updating_tryblks@SwigDirector_IDB_Hooks@@UEAAHPEBV?$qvector@Vtryblk_t@@@@@Z@4HA 000000018005a9d0 f   idp.obj
 0001:000599d0       ?dtor$1@?0??upgraded@SwigDirector_IDB_Hooks@@UEAAHH@Z@4HA 000000018005a9d0 f   idp.obj
 0001:000599d0       ?dtor$0@?0??changing_segm_name@SwigDirector_IDB_Hooks@@UEAAHPEAVsegment_t@@PEBD@Z@4HA 000000018005a9d0 f   idp.obj
 0001:000599d0       ?dtor$1@?0??ev_out_assumes@SwigDirector_IDP_Hooks@@UEAAHPEAUoutctx_t@@@Z@4HA 000000018005a9d0 f   idp.obj
 0001:000599d0       ?dtor$1@?0??ev_newasm@SwigDirector_IDP_Hooks@@UEAAHH@Z@4HA 000000018005a9d0 f   idp.obj
 0001:000599d0       ?dtor$1@?0??ev_get_default_enum_size@SwigDirector_IDP_Hooks@@UEAAHE@Z@4HA 000000018005a9d0 f   idp.obj
 0001:000599d0       ?dtor$1@?0??deleting_tryblks@SwigDirector_IDB_Hooks@@UEAAHPEBUrange_t@@@Z@4HA 000000018005a9d0 f   idp.obj
 0001:000599d0       ?dtor$1@?0??allsegs_moved@SwigDirector_IDB_Hooks@@UEAAHPEAUsegm_move_infos_t@@@Z@4HA 000000018005a9d0 f   idp.obj
 0001:000599d0       ?dtor$6@?0??ev_next_exec_insn@SwigDirector_IDP_Hooks@@UEAAHPEAIIHP6AAEBUregval_t@@PEBDPEBU2@@Z2@Z@4HA 000000018005a9d0 f   idp.obj
 0001:000599d0       ?dtor$2@?0??idasgn_loaded@SwigDirector_IDB_Hooks@@UEAAHPEBD@Z@4HA 000000018005a9d0 f   idp.obj
 0001:000599d0       ?dtor$2@?0??ev_str2reg@SwigDirector_IDP_Hooks@@UEAAHPEBD@Z@4HA 000000018005a9d0 f   idp.obj
 0001:000599d0       ?dtor$1@?0??func_updated@SwigDirector_IDB_Hooks@@UEAAHPEAVfunc_t@@@Z@4HA 000000018005a9d0 f   idp.obj
 0001:000599d0       ?dtor$1@?0??deleting_struc@SwigDirector_IDB_Hooks@@UEAAHPEAVstruc_t@@@Z@4HA 000000018005a9d0 f   idp.obj
 0001:000599d0       ?dtor$6@?0??ev_gen_asm_or_lst@SwigDirector_IDP_Hooks@@UEAAX_NPEAU_iobuf@@0HPEAP6AH1AEBV?$_qstring@D@@II@Z@Z@4HA 000000018005a9d0 f   idp.obj
 0001:000599d0       ?dtor$1@?0??ev_may_show_sreg@SwigDirector_IDP_Hooks@@UEAAHI@Z@4HA 000000018005a9d0 f   idp.obj
 0001:000599d0       ?dtor$6@?0??changing_struc_member@SwigDirector_IDB_Hooks@@UEAAHPEAVstruc_t@@PEAVmember_t@@IPEBTopinfo_t@@I@Z@4HA 000000018005a9d0 f   idp.obj
 0001:000599d0       ?dtor$1@?0??ev_is_align_insn@SwigDirector_IDP_Hooks@@UEAAHI@Z@4HA 000000018005a9d0 f   idp.obj
 0001:000599d0       ?dtor$1@?0??ev_is_alloca_probe@SwigDirector_IDP_Hooks@@UEAAHI@Z@4HA 000000018005a9d0 f   idp.obj
 0001:000599d0       ?dtor$1@?0??ev_is_call_insn@SwigDirector_IDP_Hooks@@UEAAHPEBVinsn_t@@@Z@4HA 000000018005a9d0 f   idp.obj
 0001:000599d0       ?dtor$1@?0??func_noret_changed@SwigDirector_IDB_Hooks@@UEAAHPEAVfunc_t@@@Z@4HA 000000018005a9d0 f   idp.obj
 0001:000599d0       ?dtor$1@?0??func_added@SwigDirector_IDB_Hooks@@UEAAHPEAVfunc_t@@@Z@4HA 000000018005a9d0 f   idp.obj
 0001:000599d0       ?dtor$1@?0??ev_verify_noreturn@SwigDirector_IDP_Hooks@@UEAAHPEAVfunc_t@@@Z@4HA 000000018005a9d0 f   idp.obj
 0001:000599d0       ?dtor$1@?0??deleting_segm@SwigDirector_IDB_Hooks@@UEAAHI@Z@4HA 000000018005a9d0 f   idp.obj
 0001:000599d0       ?dtor$1@?0??ev_is_cond_insn@SwigDirector_IDP_Hooks@@UEAAHPEBVinsn_t@@@Z@4HA 000000018005a9d0 f   idp.obj
 0001:000599d0       ?dtor$1@?0??changing_segm_class@SwigDirector_IDB_Hooks@@UEAAHPEAVsegment_t@@@Z@4HA 000000018005a9d0 f   idp.obj
 0001:000599d0       ?dtor$1@?0??ev_verify_sp@SwigDirector_IDP_Hooks@@UEAAHPEAVfunc_t@@@Z@4HA 000000018005a9d0 f   idp.obj
 0001:000599d0       ?dtor$1@?0??deleting_func@SwigDirector_IDB_Hooks@@UEAAHPEAVfunc_t@@@Z@4HA 000000018005a9d0 f   idp.obj
 0001:000599d0       ?dtor$1@?0??ev_is_far_jump@SwigDirector_IDP_Hooks@@UEAAHH@Z@4HA 000000018005a9d0 f   idp.obj
 0001:000599d0       ?dtor$1@?0??ev_is_indirect_jump@SwigDirector_IDP_Hooks@@UEAAHPEBVinsn_t@@@Z@4HA 000000018005a9d0 f   idp.obj
 0001:000599d0       ?dtor$1@?0??frame_deleted@SwigDirector_IDB_Hooks@@UEAAHPEAVfunc_t@@@Z@4HA 000000018005a9d0 f   idp.obj
 0001:000599d0       ?dtor$1@?0??flow_chart_created@SwigDirector_IDB_Hooks@@UEAAHPEAVqflow_chart_t@@@Z@4HA 000000018005a9d0 f   idp.obj
 0001:000599d0       ?dtor$1@?0??changing_struc_align@SwigDirector_IDB_Hooks@@UEAAHPEAVstruc_t@@@Z@4HA 000000018005a9d0 f   idp.obj
 0001:000599d0       ?dtor$1@?0??struc_align_changed@SwigDirector_IDB_Hooks@@UEAAHPEAVstruc_t@@@Z@4HA 000000018005a9d0 f   idp.obj
 0001:000599d0       ?dtor$1@?0??ev_is_insn_table_jump@SwigDirector_IDP_Hooks@@UEAAHPEBVinsn_t@@@Z@4HA 000000018005a9d0 f   idp.obj
 0001:000599d0       ?dtor$1@?0??deleting_enum@SwigDirector_IDB_Hooks@@UEAAHI@Z@4HA 000000018005a9d0 f   idp.obj
 0001:000599e0       ?dtor$2@?0??func_added@SwigDirector_IDB_Hooks@@UEAAHPEAVfunc_t@@@Z@4HA 000000018005a9e0 f   idp.obj
 0001:000599e0       ?dtor$2@?0??segm_attrs_updated@SwigDirector_IDB_Hooks@@UEAAHPEAVsegment_t@@@Z@4HA 000000018005a9e0 f   idp.obj
 0001:000599e0       ?dtor$2@?0??segm_added@SwigDirector_IDB_Hooks@@UEAAHPEAVsegment_t@@@Z@4HA 000000018005a9e0 f   idp.obj
 0001:000599e0       ?dtor$2@?0??updating_tryblks@SwigDirector_IDB_Hooks@@UEAAHPEBV?$qvector@Vtryblk_t@@@@@Z@4HA 000000018005a9e0 f   idp.obj
 0001:000599e0       ?dtor$2@?0??struc_created@SwigDirector_IDB_Hooks@@UEAAHI@Z@4HA 000000018005a9e0 f   idp.obj
 0001:000599e0       ?dtor$2@?0??ev_is_indirect_jump@SwigDirector_IDP_Hooks@@UEAAHPEBVinsn_t@@@Z@4HA 000000018005a9e0 f   idp.obj
 0001:000599e0       ?dtor$4@?0??sgr_changed@SwigDirector_IDB_Hooks@@UEAAHIIHIIE@Z@4HA 000000018005a9e0 f   idp.obj
 0001:000599e0       ?dtor$2@?0??ev_ana_insn@SwigDirector_IDP_Hooks@@UEAA_NPEAVinsn_t@@@Z@4HA 000000018005a9e0 f   idp.obj
 0001:000599e0       ?dtor$2@?0??frame_deleted@SwigDirector_IDB_Hooks@@UEAAHPEAVfunc_t@@@Z@4HA 000000018005a9e0 f   idp.obj
 0001:000599e0       ?dtor$2@?0??ev_is_far_jump@SwigDirector_IDP_Hooks@@UEAAHH@Z@4HA 000000018005a9e0 f   idp.obj
 0001:000599e0       ?dtor$2@?0??flow_chart_created@SwigDirector_IDB_Hooks@@UEAAHPEAVqflow_chart_t@@@Z@4HA 000000018005a9e0 f   idp.obj
 0001:000599e0       ?dtor$1@?0??ev_set_proc_options@SwigDirector_IDP_Hooks@@UEAAHPEBDH@Z@4HA 000000018005a9e0 f   idp.obj
 0001:000599e0       ?dtor$2@?0??ev_may_show_sreg@SwigDirector_IDP_Hooks@@UEAAHI@Z@4HA 000000018005a9e0 f   idp.obj
 0001:000599e0       ?dtor$2@?0??ev_is_cond_insn@SwigDirector_IDP_Hooks@@UEAAHPEBVinsn_t@@@Z@4HA 000000018005a9e0 f   idp.obj
 0001:000599e0       ?dtor$2@?0??ev_verify_sp@SwigDirector_IDP_Hooks@@UEAAHPEAVfunc_t@@@Z@4HA 000000018005a9e0 f   idp.obj
 0001:000599e0       ?dtor$2@?0??ev_newasm@SwigDirector_IDP_Hooks@@UEAAHH@Z@4HA 000000018005a9e0 f   idp.obj
 0001:000599e0       ?dtor$2@?0??ev_analyze_prolog@SwigDirector_IDP_Hooks@@UEAAHI@Z@4HA 000000018005a9e0 f   idp.obj
 0001:000599e0       ?dtor$2@?0??ev_emu_insn@SwigDirector_IDP_Hooks@@UEAA_NPEBVinsn_t@@@Z@4HA 000000018005a9e0 f   idp.obj
 0001:000599e0       ?dtor$2@?0??ev_verify_noreturn@SwigDirector_IDP_Hooks@@UEAAHPEAVfunc_t@@@Z@4HA 000000018005a9e0 f   idp.obj
 0001:000599e0       ?dtor$2@?0??func_noret_changed@SwigDirector_IDB_Hooks@@UEAAHPEAVfunc_t@@@Z@4HA 000000018005a9e0 f   idp.obj
 0001:000599e0       ?dtor$2@?0??tryblks_updated@SwigDirector_IDB_Hooks@@UEAAHPEBV?$qvector@Vtryblk_t@@@@@Z@4HA 000000018005a9e0 f   idp.obj
 0001:000599e0       ?dtor$2@?0??allsegs_moved@SwigDirector_IDB_Hooks@@UEAAHPEAUsegm_move_infos_t@@@Z@4HA 000000018005a9e0 f   idp.obj
 0001:000599e0       ?dtor$2@?0??ev_is_call_insn@SwigDirector_IDP_Hooks@@UEAAHPEBVinsn_t@@@Z@4HA 000000018005a9e0 f   idp.obj
 0001:000599e0       ?dtor$2@?0??upgraded@SwigDirector_IDB_Hooks@@UEAAHH@Z@4HA 000000018005a9e0 f   idp.obj
 0001:000599e0       ?dtor$2@?0??ev_is_alloca_probe@SwigDirector_IDP_Hooks@@UEAAHI@Z@4HA 000000018005a9e0 f   idp.obj
 0001:000599e0       ?dtor$2@?0??ev_out_assumes@SwigDirector_IDP_Hooks@@UEAAHPEAUoutctx_t@@@Z@4HA 000000018005a9e0 f   idp.obj
 0001:000599e0       ?dtor$2@?0??enum_renamed@SwigDirector_IDB_Hooks@@UEAAHI@Z@4HA 000000018005a9e0 f   idp.obj
 0001:000599e0       ?dtor$2@?0??ev_coagulate@SwigDirector_IDP_Hooks@@UEAAHI@Z@4HA 000000018005a9e0 f   idp.obj
 0001:000599e0       ?dtor$2@?0??enum_deleted@SwigDirector_IDB_Hooks@@UEAAHI@Z@4HA 000000018005a9e0 f   idp.obj
 0001:000599e0       ?dtor$2@?0??struc_deleted@SwigDirector_IDB_Hooks@@UEAAHI@Z@4HA 000000018005a9e0 f   idp.obj
 0001:000599e0       ?dtor$2@?0??deleting_enum@SwigDirector_IDB_Hooks@@UEAAHI@Z@4HA 000000018005a9e0 f   idp.obj
 0001:000599e0       ?dtor$2@?0??ev_out_insn@SwigDirector_IDP_Hooks@@UEAA_NPEAUoutctx_t@@@Z@4HA 000000018005a9e0 f   idp.obj
 0001:000599e0       ?dtor$2@?0??ev_is_align_insn@SwigDirector_IDP_Hooks@@UEAAHI@Z@4HA 000000018005a9e0 f   idp.obj
 0001:000599e0       ?dtor$2@?0??ev_out_mnem@SwigDirector_IDP_Hooks@@UEAAHPEAUoutctx_t@@@Z@4HA 000000018005a9e0 f   idp.obj
 0001:000599e0       ?dtor$2@?0??ev_get_default_enum_size@SwigDirector_IDP_Hooks@@UEAAHE@Z@4HA 000000018005a9e0 f   idp.obj
 0001:000599e0       ?dtor$2@?0??thunk_func_created@SwigDirector_IDB_Hooks@@UEAAHPEAVfunc_t@@@Z@4HA 000000018005a9e0 f   idp.obj
 0001:000599e0       ?dtor$2@?0??enum_created@SwigDirector_IDB_Hooks@@UEAAHI@Z@4HA 000000018005a9e0 f   idp.obj
 0001:000599e0       ?dtor$2@?0??ev_endbinary@SwigDirector_IDP_Hooks@@UEAAH_N@Z@4HA 000000018005a9e0 f   idp.obj
 0001:000599e0       ?dtor$2@?0??make_code@SwigDirector_IDB_Hooks@@UEAAHPEBVinsn_t@@@Z@4HA 000000018005a9e0 f   idp.obj
 0001:000599e0       ?dtor$2@?0??ev_create_func_frame@SwigDirector_IDP_Hooks@@UEAAHPEAVfunc_t@@@Z@4HA 000000018005a9e0 f   idp.obj
 0001:000599e0       ?dtor$2@?0??ev_undefine@SwigDirector_IDP_Hooks@@UEAAHI@Z@4HA 000000018005a9e0 f   idp.obj
 0001:000599e0       ?dtor$2@?0??struc_renamed@SwigDirector_IDB_Hooks@@UEAAHPEAVstruc_t@@@Z@4HA 000000018005a9e0 f   idp.obj
 0001:000599e0       ?dtor$2@?0??struc_align_changed@SwigDirector_IDB_Hooks@@UEAAHPEAVstruc_t@@@Z@4HA 000000018005a9e0 f   idp.obj
 0001:000599e0       ?dtor$2@?0??ev_can_have_type@SwigDirector_IDP_Hooks@@UEAAHPEBVop_t@@@Z@4HA 000000018005a9e0 f   idp.obj
 0001:000599e0       ?dtor$2@?0??changing_segm_class@SwigDirector_IDB_Hooks@@UEAAHPEAVsegment_t@@@Z@4HA 000000018005a9e0 f   idp.obj
 0001:000599e0       ?dtor$2@?0??enum_bf_changed@SwigDirector_IDB_Hooks@@UEAAHI@Z@4HA 000000018005a9e0 f   idp.obj
 0001:000599e0       ?dtor$2@?0??ev_creating_segm@SwigDirector_IDP_Hooks@@UEAAHPEAVsegment_t@@@Z@4HA 000000018005a9e0 f   idp.obj
 0001:000599e0       ?dtor$2@?0??determined_main@SwigDirector_IDB_Hooks@@UEAAHI@Z@4HA 000000018005a9e0 f   idp.obj
 0001:000599e0       ?dtor$2@?0??struc_expanded@SwigDirector_IDB_Hooks@@UEAAHPEAVstruc_t@@@Z@4HA 000000018005a9e0 f   idp.obj
 0001:000599e0       ?dtor$2@?0??changing_struc_align@SwigDirector_IDB_Hooks@@UEAAHPEAVstruc_t@@@Z@4HA 000000018005a9e0 f   idp.obj
 0001:000599e0       ?dtor$2@?0??func_updated@SwigDirector_IDB_Hooks@@UEAAHPEAVfunc_t@@@Z@4HA 000000018005a9e0 f   idp.obj
 0001:000599e0       ?dtor$2@?0??stkpnts_changed@SwigDirector_IDB_Hooks@@UEAAHPEAVfunc_t@@@Z@4HA 000000018005a9e0 f   idp.obj
 0001:000599e0       ?dtor$2@?0??ev_calc_cdecl_purged_bytes@SwigDirector_IDP_Hooks@@UEAAHI@Z@4HA 000000018005a9e0 f   idp.obj
 0001:000599e0       ?dtor$2@?0??deleting_tryblks@SwigDirector_IDB_Hooks@@UEAAHPEBUrange_t@@@Z@4HA 000000018005a9e0 f   idp.obj
 0001:000599e0       ?dtor$2@?0??ev_calc_arglocs@SwigDirector_IDP_Hooks@@UEAAHPEAUfunc_type_data_t@@@Z@4HA 000000018005a9e0 f   idp.obj
 0001:000599e0       ?dtor$2@?0??deleting_struc@SwigDirector_IDB_Hooks@@UEAAHPEAVstruc_t@@@Z@4HA 000000018005a9e0 f   idp.obj
 0001:000599e0       ?dtor$2@?0??deleting_func@SwigDirector_IDB_Hooks@@UEAAHPEAVfunc_t@@@Z@4HA 000000018005a9e0 f   idp.obj
 0001:000599e0       ?dtor$2@?0??deleting_segm@SwigDirector_IDB_Hooks@@UEAAHI@Z@4HA 000000018005a9e0 f   idp.obj
 0001:000599e0       ?dtor$2@?0??ev_is_insn_table_jump@SwigDirector_IDP_Hooks@@UEAAHPEBVinsn_t@@@Z@4HA 000000018005a9e0 f   idp.obj
 0001:000599f0       ?dtor$0@?0??ev_loader@SwigDirector_IDP_Hooks@@UEAAHXZ@4HA 000000018005a9f0 f   idp.obj
 0001:000599f0       ?dtor$4@?0??ev_moving_segm@SwigDirector_IDP_Hooks@@UEAAHPEAVsegment_t@@IH@Z@4HA 000000018005a9f0 f   idp.obj
 0001:000599f0       ?dtor$0@?0??ev_max_ptr_size@SwigDirector_IDP_Hooks@@UEAAHXZ@4HA 000000018005a9f0 f   idp.obj
 0001:000599f0       ?dtor$0@?0??closebase@SwigDirector_IDB_Hooks@@UEAAHXZ@4HA 000000018005a9f0 f   idp.obj
 0001:000599f0       ?dtor$4@?0??ev_add_cref@SwigDirector_IDP_Hooks@@UEAAHIIW4cref_t@@@Z@4HA 000000018005a9f0 f   idp.obj
 0001:000599f0       ?dtor$4@?0??ev_realcvt@SwigDirector_IDP_Hooks@@UEAAHPEAXPEAGG@Z@4HA 000000018005a9f0 f   idp.obj
 0001:000599f0       ?dtor$4@?0??ev_is_sp_based@SwigDirector_IDP_Hooks@@UEAAHPEAHPEBVinsn_t@@PEBVop_t@@@Z@4HA 000000018005a9f0 f   idp.obj
 0001:000599f0       ?dtor$4@?0??ev_add_dref@SwigDirector_IDP_Hooks@@UEAAHIIW4dref_t@@@Z@4HA 000000018005a9f0 f   idp.obj
 0001:000599f0       ?dtor$4@?0??destroyed_items@SwigDirector_IDB_Hooks@@UEAAHII_N@Z@4HA 000000018005a9f0 f   idp.obj
 0001:000599f0       ?dtor$0@?0??ev_calcrel@SwigDirector_IDP_Hooks@@UEAAHXZ@4HA 000000018005a9f0 f   idp.obj
 0001:000599f0       ?dtor$2@?0??ev_treat_hindering_item@SwigDirector_IDP_Hooks@@UEAAHIIII@Z@4HA 000000018005a9f0 f   idp.obj
 0001:000599f0       ?dtor$4@?0??ev_is_jump_func@SwigDirector_IDP_Hooks@@UEAAHPEAVfunc_t@@PEAI1@Z@4HA 000000018005a9f0 f   idp.obj
 0001:000599f0       ?dtor$2@?0??ev_coagulate_dref@SwigDirector_IDP_Hooks@@UEAAHII_NPEAI@Z@4HA 000000018005a9f0 f   idp.obj
 0001:000599f0       ?dtor$4@?0??ev_insn_reads_tbit@SwigDirector_IDP_Hooks@@UEAAHPEBVinsn_t@@P6AAEBUregval_t@@PEBDPEBU3@@Z2@Z@4HA 000000018005a9f0 f   idp.obj
 0001:000599f0       ?dtor$4@?0??ev_use_arg_types@SwigDirector_IDP_Hooks@@UEAAHIPEAUfunc_type_data_t@@PEAV?$qvector@Ufuncarg_t@@@@@Z@4HA 000000018005a9f0 f   idp.obj
 0001:000599f0       ?dtor$4@?0??expanding_struc@SwigDirector_IDB_Hooks@@UEAAHPEAVstruc_t@@IH@Z@4HA 000000018005a9f0 f   idp.obj
 0001:000599f0       ?dtor$4@?0??ev_adjust_argloc@SwigDirector_IDP_Hooks@@UEAAHPEAVargloc_t@@PEBVtinfo_t@@H@Z@4HA 000000018005a9f0 f   idp.obj
 0001:000599f0       ?dtor$2@?0??ev_calc_varglocs@SwigDirector_IDP_Hooks@@UEAAHPEAUfunc_type_data_t@@PEAUregobjs_t@@PEAUrelobj_t@@H@Z@4HA 000000018005a9f0 f   idp.obj
 0001:000599f0       ?dtor$4@?0??ev_adjust_libfunc_ea@SwigDirector_IDP_Hooks@@UEAAHPEBVidasgn_t@@PEBUlibfunc_t@@PEAI@Z@4HA 000000018005a9f0 f   idp.obj
 0001:000599f0       ?dtor$5@?0??ev_newbinary@SwigDirector_IDP_Hooks@@UEAAHPEAD_JII_K@Z@4HA 000000018005a9f0 f   idp.obj
 0001:000599f0       ?dtor$3@?0??ev_set_idp_options@SwigDirector_IDP_Hooks@@UEAAHPEBDHPEBXPEAPEBD@Z@4HA 000000018005a9f0 f   idp.obj
 0001:000599f0       ?dtor$4@?0??extlang_changed@SwigDirector_IDB_Hooks@@UEAAHHPEAUextlang_t@@H@Z@4HA 000000018005a9f0 f   idp.obj
 0001:000599f0       ?dtor$4@?0??ev_get_abi_info@SwigDirector_IDP_Hooks@@UEAAHPEAV?$qvector@V?$_qstring@D@@@@0E@Z@4HA 000000018005a9f0 f   idp.obj
 0001:000599f0       ?dtor$2@?0??make_data@SwigDirector_IDB_Hooks@@UEAAHIIII@Z@4HA 000000018005a9f0 f   idp.obj
 0001:000599f0       ?dtor$4@?0??ev_gen_stkvar_def@SwigDirector_IDP_Hooks@@UEAAHPEAUoutctx_t@@PEBVmember_t@@H@Z@4HA 000000018005a9f0 f   idp.obj
 0001:000599f0       ?dtor$2@?0??changing_struc_member@SwigDirector_IDB_Hooks@@UEAAHPEAVstruc_t@@PEAVmember_t@@IPEBTopinfo_t@@I@Z@4HA 000000018005a9f0 f   idp.obj
 0001:000599f0       ?dtor$4@?0??ev_calc_next_eas@SwigDirector_IDP_Hooks@@UEAAHPEAV?$qvector@I@@PEBVinsn_t@@_N@Z@4HA 000000018005a9f0 f   idp.obj
 0001:000599f0       ?dtor$0@?0??ev_get_stkvar_scale_factor@SwigDirector_IDP_Hooks@@UEAAHXZ@4HA 000000018005a9f0 f   idp.obj
 0001:000599f0       ?dtor$3@?0??range_cmt_changed@SwigDirector_IDB_Hooks@@UEAAHW4range_kind_t@@PEBUrange_t@@PEBD_N@Z@4HA 000000018005a9f0 f   idp.obj
 0001:000599f0       ?dtor$0@?0??ev_get_stkarg_offset@SwigDirector_IDP_Hooks@@UEAAHXZ@4HA 000000018005a9f0 f   idp.obj
 0001:000599f0       ?dtor$2@?0??ev_adjust_refinfo@SwigDirector_IDP_Hooks@@UEAAHPEAUrefinfo_t@@IHPEBUfixup_data_t@@@Z@4HA 000000018005a9f0 f   idp.obj
 0001:000599f0       ?dtor$4@?0??changing_segm_start@SwigDirector_IDB_Hooks@@UEAAHPEAVsegment_t@@IH@Z@4HA 000000018005a9f0 f   idp.obj
 0001:000599f0       ?dtor$0@?0??ev_out_footer@SwigDirector_IDP_Hooks@@UEAAXPEAUoutctx_t@@@Z@4HA 000000018005a9f0 f   idp.obj
 0001:000599f0       ?dtor$0@?0??ev_out_header@SwigDirector_IDP_Hooks@@UEAAXPEAUoutctx_t@@@Z@4HA 000000018005a9f0 f   idp.obj
 0001:000599f0       ?dtor$2@?0??ev_assemble@SwigDirector_IDP_Hooks@@UEAAPEAU_object@@III_NPEBD@Z@4HA 000000018005a9f0 f   idp.obj
 0001:000599f0       ?dtor$4@?0??ev_func_bounds@SwigDirector_IDP_Hooks@@UEAAXPEAHPEAVfunc_t@@I@Z@4HA 000000018005a9f0 f   idp.obj
 0001:000599f0       ?dtor$4@?0??ev_calc_retloc@SwigDirector_IDP_Hooks@@UEAAHPEAVargloc_t@@PEBVtinfo_t@@E@Z@4HA 000000018005a9f0 f   idp.obj
 0001:000599f0       ?dtor$4@?0??changing_segm_end@SwigDirector_IDB_Hooks@@UEAAHPEAVsegment_t@@IH@Z@4HA 000000018005a9f0 f   idp.obj
 0001:000599f0       ?dtor$2@?0??ev_arg_addrs_ready@SwigDirector_IDP_Hooks@@UEAAHIHPEAVtinfo_t@@PEAI@Z@4HA 000000018005a9f0 f   idp.obj
 0001:000599f0       ?dtor$2@?0??ev_next_exec_insn@SwigDirector_IDP_Hooks@@UEAAHPEAIIHP6AAEBUregval_t@@PEBDPEBU2@@Z2@Z@4HA 000000018005a9f0 f   idp.obj
 0001:000599f0       ?dtor$4@?0??ev_extract_address@SwigDirector_IDP_Hooks@@UEAAHPEAIIPEBD_K@Z@4HA 000000018005a9f0 f   idp.obj
 0001:000599f0       ?dtor$3@?0??ev_decorate_name@SwigDirector_IDP_Hooks@@UEAAPEAU_object@@PEBD_NHPEBVtinfo_t@@@Z@4HA 000000018005a9f0 f   idp.obj
 0001:000599f0       ?dtor$2@?0??segm_moved@SwigDirector_IDB_Hooks@@UEAAHIII_N@Z@4HA 000000018005a9f0 f   idp.obj
 0001:000599f0       ?dtor$3@?0??changing_range_cmt@SwigDirector_IDB_Hooks@@UEAAHW4range_kind_t@@PEBUrange_t@@PEBD_N@Z@4HA 000000018005a9f0 f   idp.obj
 0001:000599f0       ?dtor$4@?0??op_ti_changed@SwigDirector_IDB_Hooks@@UEAAHIHPEBE0@Z@4HA 000000018005a9f0 f   idp.obj
 0001:000599f0       ?dtor$0@?0??compiler_changed@SwigDirector_IDB_Hooks@@UEAAHXZ@4HA 000000018005a9f0 f   idp.obj
 0001:000599f0       ?dtor$0@?0??savebase@SwigDirector_IDB_Hooks@@UEAAHXZ@4HA 000000018005a9f0 f   idp.obj
 0001:000599f0       ?dtor$4@?0??changing_op_type@SwigDirector_IDB_Hooks@@UEAAHIHPEBTopinfo_t@@@Z@4HA 000000018005a9f0 f   idp.obj
 0001:000599f0       ?dtor$4@?0??changing_op_ti@SwigDirector_IDB_Hooks@@UEAAHIHPEBE0@Z@4HA 000000018005a9f0 f   idp.obj
 0001:000599f0       ?dtor$0@?0??ev_get_autocmt@SwigDirector_IDP_Hooks@@UEAAHPEAV?$_qstring@D@@PEBVinsn_t@@@Z@4HA 000000018005a9f0 f   idp.obj
 0001:000599f0       ?dtor$4@?0??tail_owner_changed@SwigDirector_IDB_Hooks@@UEAAHPEAVfunc_t@@II@Z@4HA 000000018005a9f0 f   idp.obj
 0001:000599f0       ?dtor$4@?0??ev_clean_tbit@SwigDirector_IDP_Hooks@@UEAAHIP6AAEBUregval_t@@PEBDPEBU2@@Z1@Z@4HA 000000018005a9f0 f   idp.obj
 0001:000599f0       ?dtor$0@?0??ev_term@SwigDirector_IDP_Hooks@@UEAAHXZ@4HA 000000018005a9f0 f   idp.obj
 0001:000599f0       ?dtor$4@?0??struc_member_deleted@SwigDirector_IDB_Hooks@@UEAAHPEAVstruc_t@@II@Z@4HA 000000018005a9f0 f   idp.obj
 0001:000599f0       ?dtor$4@?0??ev_delay_slot_insn@SwigDirector_IDP_Hooks@@UEAAPEAU_object@@I_N0@Z@4HA 000000018005a9f0 f   idp.obj
 0001:000599f0       ?dtor$0@?0??local_types_changed@SwigDirector_IDB_Hooks@@UEAAHXZ@4HA 000000018005a9f0 f   idp.obj
 0001:000599f0       ?dtor$4@?0??sgr_deleted@SwigDirector_IDB_Hooks@@UEAAHIIH@Z@4HA 000000018005a9f0 f   idp.obj
 0001:000599f0       ?dtor$0@?0??kernel_config_loaded@SwigDirector_IDB_Hooks@@UEAAHXZ@4HA 000000018005a9f0 f   idp.obj
 0001:000599f0       ?dtor$2@?0??ev_gen_asm_or_lst@SwigDirector_IDP_Hooks@@UEAAX_NPEAU_iobuf@@0HPEAP6AH1AEBV?$_qstring@D@@II@Z@Z@4HA 000000018005a9f0 f   idp.obj
 0001:000599f0       ?dtor$0@?0??ev_gen_src_file_lnnum@SwigDirector_IDP_Hooks@@UEAAHXZ@4HA 000000018005a9f0 f   idp.obj
 0001:000599f0       ?dtor$0@?0??auto_empty@SwigDirector_IDB_Hooks@@UEAAHXZ@4HA 000000018005a9f0 f   idp.obj
 0001:000599f0       ?dtor$0@?0??ev_auto_queue_empty@SwigDirector_IDP_Hooks@@UEAAXH@Z@4HA 000000018005a9f0 f   idp.obj
 0001:000599f0       ?dtor$2@?0??ev_calc_switch_cases@SwigDirector_IDP_Hooks@@UEAAHPEAV?$qvector@V?$qvector@H@@@@PEAV?$qvector@I@@IPEAUswitch_info_t@@@Z@4HA 000000018005a9f0 f   idp.obj
 0001:000599f0       ?dtor$0@?0??auto_empty_finally@SwigDirector_IDB_Hooks@@UEAAHXZ@4HA 000000018005a9f0 f   idp.obj
 0001:000599f0       ?dtor$4@?0??ev_create_flat_group@SwigDirector_IDP_Hooks@@UEAAHIHI@Z@4HA 000000018005a9f0 f   idp.obj
 0001:000599f0       ?dtor$2@?0??ev_get_simd_types@SwigDirector_IDP_Hooks@@UEAAHPEAV?$qvector@Usimd_info_t@@@@PEBUsimd_info_t@@PEBVargloc_t@@_N@Z@4HA 000000018005a9f0 f   idp.obj
 0001:000599f0       ?dtor$4@?0??ev_del_cref@SwigDirector_IDP_Hooks@@UEAAHII_N@Z@4HA 000000018005a9f0 f   idp.obj
 0001:00059a00       ?dtor$1@?0??savebase@SwigDirector_IDB_Hooks@@UEAAHXZ@4HA 000000018005aa00 f   idp.obj
 0001:00059a00       ?dtor$1@?0??compiler_changed@SwigDirector_IDB_Hooks@@UEAAHXZ@4HA 000000018005aa00 f   idp.obj
 0001:00059a00       ?dtor$1@?0??closebase@SwigDirector_IDB_Hooks@@UEAAHXZ@4HA 000000018005aa00 f   idp.obj
 0001:00059a00       ?dtor$4@?0??ev_decorate_name@SwigDirector_IDP_Hooks@@UEAAPEAU_object@@PEBD_NHPEBVtinfo_t@@@Z@4HA 000000018005aa00 f   idp.obj
 0001:00059a00       ?dtor$1@?0??ev_get_stkarg_offset@SwigDirector_IDP_Hooks@@UEAAHXZ@4HA 000000018005aa00 f   idp.obj
 0001:00059a00       ?dtor$1@?0??ev_max_ptr_size@SwigDirector_IDP_Hooks@@UEAAHXZ@4HA 000000018005aa00 f   idp.obj
 0001:00059a00       ?dtor$1@?0??ev_get_stkvar_scale_factor@SwigDirector_IDP_Hooks@@UEAAHXZ@4HA 000000018005aa00 f   idp.obj
 0001:00059a00       ?dtor$3@?0??ev_calc_switch_cases@SwigDirector_IDP_Hooks@@UEAAHPEAV?$qvector@V?$qvector@H@@@@PEAV?$qvector@I@@IPEAUswitch_info_t@@@Z@4HA 000000018005aa00 f   idp.obj
 0001:00059a00       ?dtor$3@?0??ev_assemble@SwigDirector_IDP_Hooks@@UEAAPEAU_object@@III_NPEBD@Z@4HA 000000018005aa00 f   idp.obj
 0001:00059a00       ?dtor$5@?0??changing_op_ti@SwigDirector_IDB_Hooks@@UEAAHIHPEBE0@Z@4HA 000000018005aa00 f   idp.obj
 0001:00059a00       ?dtor$4@?0??changing_range_cmt@SwigDirector_IDB_Hooks@@UEAAHW4range_kind_t@@PEBUrange_t@@PEBD_N@Z@4HA 000000018005aa00 f   idp.obj
 0001:00059a00       ?dtor$1@?0??ev_loader@SwigDirector_IDP_Hooks@@UEAAHXZ@4HA 000000018005aa00 f   idp.obj
 0001:00059a00       ?dtor$3@?0??ev_calc_varglocs@SwigDirector_IDP_Hooks@@UEAAHPEAUfunc_type_data_t@@PEAUregobjs_t@@PEAUrelobj_t@@H@Z@4HA 000000018005aa00 f   idp.obj
 0001:00059a00       ?dtor$3@?0??make_data@SwigDirector_IDB_Hooks@@UEAAHIIII@Z@4HA 000000018005aa00 f   idp.obj
 0001:00059a00       ?dtor$3@?0??ev_arg_addrs_ready@SwigDirector_IDP_Hooks@@UEAAHIHPEAVtinfo_t@@PEAI@Z@4HA 000000018005aa00 f   idp.obj
 0001:00059a00       ?dtor$3@?0??ev_next_exec_insn@SwigDirector_IDP_Hooks@@UEAAHPEAIIHP6AAEBUregval_t@@PEBDPEBU2@@Z2@Z@4HA 000000018005aa00 f   idp.obj
 0001:00059a00       ?dtor$3@?0??ev_coagulate_dref@SwigDirector_IDP_Hooks@@UEAAHII_NPEAI@Z@4HA 000000018005aa00 f   idp.obj
 0001:00059a00       ?dtor$5@?0??ev_extract_address@SwigDirector_IDP_Hooks@@UEAAHPEAIIPEBD_K@Z@4HA 000000018005aa00 f   idp.obj
 0001:00059a00       ?dtor$3@?0??ev_adjust_refinfo@SwigDirector_IDP_Hooks@@UEAAHPEAUrefinfo_t@@IHPEBUfixup_data_t@@@Z@4HA 000000018005aa00 f   idp.obj
 0001:00059a00       ?dtor$5@?0??op_ti_changed@SwigDirector_IDB_Hooks@@UEAAHIHPEBE0@Z@4HA 000000018005aa00 f   idp.obj
 0001:00059a00       ?dtor$1@?0??ev_gen_src_file_lnnum@SwigDirector_IDP_Hooks@@UEAAHXZ@4HA 000000018005aa00 f   idp.obj
 0001:00059a00       ?dtor$4@?0??ev_set_idp_options@SwigDirector_IDP_Hooks@@UEAAHPEBDHPEBXPEAPEBD@Z@4HA 000000018005aa00 f   idp.obj
 0001:00059a00       ?dtor$3@?0??segm_moved@SwigDirector_IDB_Hooks@@UEAAHIII_N@Z@4HA 000000018005aa00 f   idp.obj
 0001:00059a00       ?dtor$1@?0??ev_term@SwigDirector_IDP_Hooks@@UEAAHXZ@4HA 000000018005aa00 f   idp.obj
 0001:00059a00       ?dtor$6@?0??ev_newbinary@SwigDirector_IDP_Hooks@@UEAAHPEAD_JII_K@Z@4HA 000000018005aa00 f   idp.obj
 0001:00059a00       ?dtor$3@?0??ev_gen_asm_or_lst@SwigDirector_IDP_Hooks@@UEAAX_NPEAU_iobuf@@0HPEAP6AH1AEBV?$_qstring@D@@II@Z@Z@4HA 000000018005aa00 f   idp.obj
 0001:00059a00       ?dtor$3@?0??changing_struc_member@SwigDirector_IDB_Hooks@@UEAAHPEAVstruc_t@@PEAVmember_t@@IPEBTopinfo_t@@I@Z@4HA 000000018005aa00 f   idp.obj
 0001:00059a00       ?dtor$1@?0??auto_empty_finally@SwigDirector_IDB_Hooks@@UEAAHXZ@4HA 000000018005aa00 f   idp.obj
 0001:00059a00       ?dtor$1@?0??auto_empty@SwigDirector_IDB_Hooks@@UEAAHXZ@4HA 000000018005aa00 f   idp.obj
 0001:00059a00       ?dtor$3@?0??ev_treat_hindering_item@SwigDirector_IDP_Hooks@@UEAAHIIII@Z@4HA 000000018005aa00 f   idp.obj
 0001:00059a00       ?dtor$1@?0??kernel_config_loaded@SwigDirector_IDB_Hooks@@UEAAHXZ@4HA 000000018005aa00 f   idp.obj
 0001:00059a00       ?dtor$1@?0??local_types_changed@SwigDirector_IDB_Hooks@@UEAAHXZ@4HA 000000018005aa00 f   idp.obj
 0001:00059a00       ?dtor$3@?0??ev_get_simd_types@SwigDirector_IDP_Hooks@@UEAAHPEAV?$qvector@Usimd_info_t@@@@PEBUsimd_info_t@@PEBVargloc_t@@_N@Z@4HA 000000018005aa00 f   idp.obj
 0001:00059a00       ?dtor$0@?0??sgr_changed@SwigDirector_IDB_Hooks@@UEAAHIIHIIE@Z@4HA 000000018005aa00 f   idp.obj
 0001:00059a00       ?dtor$1@?0??ev_calcrel@SwigDirector_IDP_Hooks@@UEAAHXZ@4HA 000000018005aa00 f   idp.obj
 0001:00059a00       ?dtor$4@?0??range_cmt_changed@SwigDirector_IDB_Hooks@@UEAAHW4range_kind_t@@PEBUrange_t@@PEBD_N@Z@4HA 000000018005aa00 f   idp.obj
 0001:00059a10       ?dtor$0@?0??segm_start_changed@SwigDirector_IDB_Hooks@@UEAAHPEAVsegment_t@@I@Z@4HA 000000018005aa10 f   idp.obj
 0001:00059a10       ?dtor$0@?0??set_func_start@SwigDirector_IDB_Hooks@@UEAAHPEAVfunc_t@@I@Z@4HA 000000018005aa10 f   idp.obj
 0001:00059a10       ?dtor$0@?0??segm_end_changed@SwigDirector_IDB_Hooks@@UEAAHPEAVsegment_t@@I@Z@4HA 000000018005aa10 f   idp.obj
 0001:00059a10       ?dtor$0@?0??ev_out_data@SwigDirector_IDP_Hooks@@UEAAHPEAUoutctx_t@@_N@Z@4HA 000000018005aa10 f   idp.obj
 0001:00059a10       ?dtor$0@?0??ev_calc_purged_bytes@SwigDirector_IDP_Hooks@@UEAAHPEAHPEBUfunc_type_data_t@@@Z@4HA 000000018005aa10 f   idp.obj
 0001:00059a10       ?dtor$0@?0??struc_cmt_changed@SwigDirector_IDB_Hooks@@UEAAHI_N@Z@4HA 000000018005aa10 f   idp.obj
 0001:00059a10       ?dtor$0@?0??ev_out_operand@SwigDirector_IDP_Hooks@@UEAA_NPEAUoutctx_t@@PEBVop_t@@@Z@4HA 000000018005aa10 f   idp.obj
 0001:00059a10       ?dtor$0@?0??struc_member_changed@SwigDirector_IDB_Hooks@@UEAAHPEAVstruc_t@@PEAVmember_t@@@Z@4HA 000000018005aa10 f   idp.obj
 0001:00059a10       ?dtor$1@?0??segm_name_changed@SwigDirector_IDB_Hooks@@UEAAHPEAVsegment_t@@PEBD@Z@4HA 000000018005aa10 f   idp.obj
 0001:00059a10       ?dtor$0@?0??ev_newprc@SwigDirector_IDP_Hooks@@UEAAHH_N@Z@4HA 000000018005aa10 f   idp.obj
 0001:00059a10       ?dtor$0@?0??struc_member_created@SwigDirector_IDB_Hooks@@UEAAHPEAVstruc_t@@PEAVmember_t@@@Z@4HA 000000018005aa10 f   idp.obj
 0001:00059a10       ?dtor$0@?0??struc_member_renamed@SwigDirector_IDB_Hooks@@UEAAHPEAVstruc_t@@PEAVmember_t@@@Z@4HA 000000018005aa10 f   idp.obj
 0001:00059a10       ?dtor$0@?0??ev_calc_spdelta@SwigDirector_IDP_Hooks@@UEAAHPEAHPEBVinsn_t@@@Z@4HA 000000018005aa10 f   idp.obj
 0001:00059a10       ?dtor$0@?0??ev_out_segend@SwigDirector_IDP_Hooks@@UEAAHPEAUoutctx_t@@PEAVsegment_t@@@Z@4HA 000000018005aa10 f   idp.obj
 0001:00059a10       ?dtor$0@?0??changing_struc_cmt@SwigDirector_IDB_Hooks@@UEAAHI_NPEBD@Z@4HA 000000018005aa10 f   idp.obj
 0001:00059a10       ?dtor$1@?0??ev_rename@SwigDirector_IDP_Hooks@@UEAAHIPEBD@Z@4HA 000000018005aa10 f   idp.obj
 0001:00059a10       ?dtor$0@?0??ev_may_be_func@SwigDirector_IDP_Hooks@@UEAAHPEBVinsn_t@@H@Z@4HA 000000018005aa10 f   idp.obj
 0001:00059a10       ?dtor$0@?0??ev_out_segstart@SwigDirector_IDP_Hooks@@UEAAHPEAUoutctx_t@@PEAVsegment_t@@@Z@4HA 000000018005aa10 f   idp.obj
 0001:00059a10       ?dtor$0@?0??ev_lower_func_type@SwigDirector_IDP_Hooks@@UEAAHPEAV?$qvector@H@@PEAUfunc_type_data_t@@@Z@4HA 000000018005aa10 f   idp.obj
 0001:00059a10       ?dtor$0@?0??segm_deleted@SwigDirector_IDB_Hooks@@UEAAHII@Z@4HA 000000018005aa10 f   idp.obj
 0001:00059a10       ?dtor$0@?0??ev_is_switch@SwigDirector_IDP_Hooks@@UEAAHPEAUswitch_info_t@@PEBVinsn_t@@@Z@4HA 000000018005aa10 f   idp.obj
 0001:00059a10       ?dtor$0@?0??ev_is_sane_insn@SwigDirector_IDP_Hooks@@UEAAHPEBVinsn_t@@H@Z@4HA 000000018005aa10 f   idp.obj
 0001:00059a10       ?dtor$0@?0??ev_out_special_item@SwigDirector_IDP_Hooks@@UEAAHPEAUoutctx_t@@E@Z@4HA 000000018005aa10 f   idp.obj
 0001:00059a10       ?dtor$0@?0??ev_is_ret_insn@SwigDirector_IDP_Hooks@@UEAAHPEBVinsn_t@@_N@Z@4HA 000000018005aa10 f   idp.obj
 0001:00059a10       ?dtor$1@?0??segm_class_changed@SwigDirector_IDB_Hooks@@UEAAHPEAVsegment_t@@PEBD@Z@4HA 000000018005aa10 f   idp.obj
 0001:00059a10       ?dtor$0@?0??deleting_struc_member@SwigDirector_IDB_Hooks@@UEAAHPEAVstruc_t@@PEAVmember_t@@@Z@4HA 000000018005aa10 f   idp.obj
 0001:00059a10       ?dtor$1@?0??ev_validate_flirt_func@SwigDirector_IDP_Hooks@@UEAAHIPEBD@Z@4HA 000000018005aa10 f   idp.obj
 0001:00059a10       ?dtor$0@?0??enum_cmt_changed@SwigDirector_IDB_Hooks@@UEAAHI_N@Z@4HA 000000018005aa10 f   idp.obj
 0001:00059a10       ?dtor$5@?0??sgr_changed@SwigDirector_IDB_Hooks@@UEAAHIIHIIE@Z@4HA 000000018005aa10 f   idp.obj
 0001:00059a10       ?dtor$0@?0??ev_shadow_args_size@SwigDirector_IDP_Hooks@@UEAAHPEAHPEAVfunc_t@@@Z@4HA 000000018005aa10 f   idp.obj
 0001:00059a10       ?dtor$0@?0??ev_calc_step_over@SwigDirector_IDP_Hooks@@UEAAHPEAII@Z@4HA 000000018005aa10 f   idp.obj
 0001:00059a10       ?dtor$0@?0??renaming_struc_member@SwigDirector_IDB_Hooks@@UEAAHPEAVstruc_t@@PEAVmember_t@@PEBD@Z@4HA 000000018005aa10 f   idp.obj
 0001:00059a10       ?dtor$0@?0??renaming_enum@SwigDirector_IDB_Hooks@@UEAAHI_NPEBD@Z@4HA 000000018005aa10 f   idp.obj
 0001:00059a10       ?dtor$0@?0??cmt_changed@SwigDirector_IDB_Hooks@@UEAAHI_N@Z@4HA 000000018005aa10 f   idp.obj
 0001:00059a10       ?dtor$0@?0??enum_member_created@SwigDirector_IDB_Hooks@@UEAAHII@Z@4HA 000000018005aa10 f   idp.obj
 0001:00059a10       ?dtor$0@?0??ev_is_basic_block_end@SwigDirector_IDP_Hooks@@UEAAHPEBVinsn_t@@_N@Z@4HA 000000018005aa10 f   idp.obj
 0001:00059a10       ?dtor$0@?0??ev_cmp_operands@SwigDirector_IDP_Hooks@@UEAAHPEBVop_t@@0@Z@4HA 000000018005aa10 f   idp.obj
 0001:00059a10       ?dtor$0@?0??ev_create_switch_xrefs@SwigDirector_IDP_Hooks@@UEAAHIPEBUswitch_info_t@@@Z@4HA 000000018005aa10 f   idp.obj
