 _ida_xref

 Timestamp is 5e3da0c7 (Fri Feb  7 17:39:19 2020)

 Preferred load address is 0000000180000000

 Start         Length     Name                   Class
 0001:00000000 0000e470H .text$mn                CODE
 0001:0000e470 00000020H .text$mn$00             CODE
 0001:0000e490 00005273H .text$x                 CODE
 0002:00000000 00000560H .idata$5                DATA
 0002:00000560 00000010H .00cfg                  DATA
 0002:00000570 00000008H .CRT$XCA                DATA
 0002:00000578 00000008H .CRT$XCZ                DATA
 0002:00000580 00000008H .CRT$XIA                DATA
 0002:00000588 00000008H .CRT$XIC                DATA
 0002:00000590 00000008H .CRT$XIZ                DATA
 0002:00000598 00000008H .CRT$XLA                DATA
 0002:000005a0 00000008H .CRT$XLZ                DATA
 0002:000005a8 00000008H .CRT$XPA                DATA
 0002:000005b0 00000008H .CRT$XPZ                DATA
 0002:000005b8 00000008H .CRT$XTA                DATA
 0002:000005c0 00000010H .CRT$XTZ                DATA
 0002:000005c8 00000000H .gfids$y                DATA
 0002:000005d0 00007a70H .rdata                  DATA
 0002:00008040 00000028H .rdata$T                DATA
 0002:00008068 000002fcH .rdata$r                DATA
 0002:00008364 00000314H .rdata$zzzdbg           DATA
 0002:00008678 00000008H .rtc$IAA                DATA
 0002:00008680 00000008H .rtc$IZZ                DATA
 0002:00008688 00000008H .rtc$TAA                DATA
 0002:00008690 00000008H .rtc$TZZ                DATA
 0002:00008698 00000004H .tls                    DATA
 0002:0000869c 00000004H .tls$                   DATA
 0002:000086a0 00000008H .tls$ZZZ                DATA
 0002:000086a8 000044a0H .xdata                  DATA
 0002:0000cb48 00000188H .xdata$x                DATA
 0002:0000ccd0 00000054H .edata                  DATA
 0002:0000cd24 000000b4H .idata$2                DATA
 0002:0000cdd8 00000018H .idata$3                DATA
 0002:0000cdf0 00000560H .idata$4                DATA
 0002:0000d350 00000d96H .idata$6                DATA
 0003:00000000 00003028H .data                   DATA
 0003:00003028 00000148H .data$r                 DATA
 0003:00003170 00000928H .bss                    DATA
 0004:00000000 00001fa4H .pdata                  DATA

  Address         Publics by Value              Rva+Base               Lib:Object

 0000:00000000       __volatile_metadata        0000000000000000     <absolute>
 0000:00000000       ___safe_se_handler_count   0000000000000000     <absolute>
 0000:00000000       __enclave_config           0000000000000000     <absolute>
 0000:00000000       __guard_iat_count          0000000000000000     <absolute>
 0000:00000000       __hybrid_code_map          0000000000000000     <absolute>
 0000:00000000       __dynamic_value_reloc_table 0000000000000000     <absolute>
 0000:00000000       __guard_longjmp_table      0000000000000000     <absolute>
 0000:00000000       __guard_longjmp_count      0000000000000000     <absolute>
 0000:00000000       __guard_iat_table          0000000000000000     <absolute>
 0000:00000000       ___safe_se_handler_table   0000000000000000     <absolute>
 0000:00000000       __guard_fids_table         0000000000000000     <absolute>
 0000:00000000       __hybrid_code_map_count    0000000000000000     <absolute>
 0000:00000000       __guard_fids_count         0000000000000000     <absolute>
 0000:00000000       __hybrid_auxiliary_iat     0000000000000000     <absolute>
 0000:00000100       __guard_flags              0000000000000100     <absolute>
 0000:00000000       __ImageBase                0000000180000000     <linker-defined>
 0001:000084c0       ??0?$qvector@H@@QEAA@AEBV0@@Z 00000001800094c0 f i xref.obj
 0001:00008550       ??0exception@std@@QEAA@AEBV01@@Z 0000000180009550 f i xref.obj
 0001:00008590       ??0logic_error@std@@QEAA@AEBV01@@Z 0000000180009590 f i xref.obj
 0001:000085d0       ??0out_of_range@std@@QEAA@AEBV01@@Z 00000001800095d0 f i xref.obj
 0001:00008610       ??0out_of_range@std@@QEAA@PEBD@Z 0000000180009610 f i xref.obj
 0001:00008660       ??1?$qvector@H@@QEAA@XZ    0000000180009660 f i xref.obj
 0001:00008670       ??1bad_array_new_length@std@@UEAA@XZ 0000000180009670 f i MSVCRT:throw_bad_alloc.obj
 0001:00008670       ??1bad_alloc@std@@UEAA@XZ  0000000180009670 f i MSVCRT:throw_bad_alloc.obj
 0001:00008670       ??1out_of_range@std@@UEAA@XZ 0000000180009670 f i xref.obj
 0001:00008690       ??4?$qvector@I@@QEAAAEAV0@AEBV0@@Z 0000000180009690 f i xref.obj
 0001:00008690       ??4?$qvector@H@@QEAAAEAV0@AEBV0@@Z 0000000180009690 f i xref.obj
 0001:00008780       ??4?$qvector@V?$qvector@H@@@@QEAAAEAV0@AEBV0@@Z 0000000180009780 f i xref.obj
 0001:000089e0       ??8?$qvector@V?$qvector@H@@@@QEBA_NAEBV0@@Z 00000001800099e0 f i xref.obj
 0001:00008a80       ??_Gbad_array_new_length@std@@UEAAPEAXI@Z 0000000180009a80 f i MSVCRT:throw_bad_alloc.obj
 0001:00008a80       ??_Ebad_array_new_length@std@@UEAAPEAXI@Z 0000000180009a80 f i MSVCRT:throw_bad_alloc.obj
 0001:00008a80       ??_Elogic_error@std@@UEAAPEAXI@Z 0000000180009a80 f i xref.obj
 0001:00008a80       ??_Gexception@std@@UEAAPEAXI@Z 0000000180009a80 f i xref.obj
 0001:00008a80       ??_Gbad_alloc@std@@UEAAPEAXI@Z 0000000180009a80 f i MSVCRT:throw_bad_alloc.obj
 0001:00008a80       ??_Eout_of_range@std@@UEAAPEAXI@Z 0000000180009a80 f i xref.obj
 0001:00008a80       ??_Gout_of_range@std@@UEAAPEAXI@Z 0000000180009a80 f i xref.obj
 0001:00008a80       ??_Eexception@std@@UEAAPEAXI@Z 0000000180009a80 f i xref.obj
 0001:00008a80       ??_Glogic_error@std@@UEAAPEAXI@Z 0000000180009a80 f i xref.obj
 0001:00008a80       ??_Ebad_alloc@std@@UEAAPEAXI@Z 0000000180009a80 f i MSVCRT:throw_bad_alloc.obj
 0001:000090d0       ?clear@?$qvector@V?$qvector@H@@@@QEAAXXZ 000000018000a0d0 f i xref.obj
 0001:00009130       ?erase@?$qvector@V?$qvector@H@@@@QEAAPEAV?$qvector@H@@PEAV2@@Z 000000018000a130 f i xref.obj
 0001:000091a0       ?find@?$qvector@V?$qvector@H@@@@QEAAPEAV?$qvector@H@@AEBV2@@Z 000000018000a1a0 f i xref.obj
 0001:000091a0       ?find@?$qvector@V?$qvector@H@@@@QEBAPEBV?$qvector@H@@AEBV2@@Z 000000018000a1a0 f i xref.obj
 0001:00009210       ?push_back@?$qvector@V?$qvector@H@@@@QEAAXAEBV?$qvector@H@@@Z 000000018000a210 f i xref.obj
 0001:00009290       ?resize@?$qvector@V?$qvector@H@@@@QEAAX_KAEBV?$qvector@H@@@Z 000000018000a290 f i xref.obj
 0001:000093d0       ?sprnt@?$_qstring@D@@QEAAAEAV1@PEBDZZ 000000018000a3d0 f i xref.obj
 0001:00009490       ?what@exception@std@@UEBAPEBDXZ 000000018000a490 f i xref.obj
 0001:000094b0       PyInit__ida_xref           000000018000a4b0 f   xref.obj
 0001:0000af30       __local_stdio_printf_options 000000018000bf30 f i xref.obj
 0001:0000cf90       printf                     000000018000df90 f i xref.obj
 0001:0000cfe5       qrealloc                   000000018000dfe5 f   ida:ida.dll
 0001:0000cfeb       qfree                      000000018000dfeb f   ida:ida.dll
 0001:0000cff1       qvsnprintf                 000000018000dff1 f   ida:ida.dll
 0001:0000cff7       qalloc_or_throw            000000018000dff7 f   ida:ida.dll
 0001:0000cffd       qvector_reserve            000000018000dffd f   ida:ida.dll
 0001:0000d003       is_main_thread             000000018000e003 f   ida:ida.dll
 0001:0000d009       xrefchar                   000000018000e009 f   ida:ida.dll
 0001:0000d00f       add_cref                   000000018000e00f f   ida:ida.dll
 0001:0000d015       del_cref                   000000018000e015 f   ida:ida.dll
 0001:0000d01b       add_dref                   000000018000e01b f   ida:ida.dll
 0001:0000d021       del_dref                   000000018000e021 f   ida:ida.dll
 0001:0000d027       xrefblk_t_first_from       000000018000e027 f   ida:ida.dll
 0001:0000d02d       xrefblk_t_next_from        000000018000e02d f   ida:ida.dll
 0001:0000d033       xrefblk_t_first_to         000000018000e033 f   ida:ida.dll
 0001:0000d039       xrefblk_t_next_to          000000018000e039 f   ida:ida.dll
 0001:0000d03f       get_first_dref_from        000000018000e03f f   ida:ida.dll
 0001:0000d045       get_next_dref_from         000000018000e045 f   ida:ida.dll
 0001:0000d04b       get_first_dref_to          000000018000e04b f   ida:ida.dll
 0001:0000d051       get_next_dref_to           000000018000e051 f   ida:ida.dll
 0001:0000d057       get_first_cref_from        000000018000e057 f   ida:ida.dll
 0001:0000d05d       get_next_cref_from         000000018000e05d f   ida:ida.dll
 0001:0000d063       get_first_cref_to          000000018000e063 f   ida:ida.dll
 0001:0000d069       get_next_cref_to           000000018000e069 f   ida:ida.dll
 0001:0000d06f       get_first_fcref_from       000000018000e06f f   ida:ida.dll
 0001:0000d075       get_next_fcref_from        000000018000e075 f   ida:ida.dll
 0001:0000d07b       get_first_fcref_to         000000018000e07b f   ida:ida.dll
 0001:0000d081       get_next_fcref_to          000000018000e081 f   ida:ida.dll
 0001:0000d087       has_external_refs          000000018000e087 f   ida:ida.dll
 0001:0000d08d       create_switch_table        000000018000e08d f   ida:ida.dll
 0001:0000d093       create_switch_xrefs        000000018000e093 f   ida:ida.dll
 0001:0000d099       calc_switch_cases          000000018000e099 f   ida:ida.dll
 0001:0000d09f       delete_switch_table        000000018000e09f f   ida:ida.dll
 0001:0000d0a5       PyW_GetNumber              000000018000e0a5 f   python:python.dll
 0001:0000d0ab       PyW_PyListToEaVec          000000018000e0ab f   python:python.dll
 0001:0000d0b4       ??2@YAPEAX_K@Z             000000018000e0b4 f   MSVCRT:new_scalar.obj
 0001:0000d0f0       ??3@YAXPEAX_K@Z            000000018000e0f0 f   MSVCRT:delete_scalar_size.obj
 0001:0000d0f0       ??_V@YAXPEAX@Z             000000018000e0f0 f   MSVCRT:delete_array.obj
 0001:0000d0f8       ??_U@YAPEAX_K@Z            000000018000e0f8 f   MSVCRT:new_array.obj
 0001:0000d288       _Init_thread_footer        000000018000e288 f   MSVCRT:thread_safe_statics.obj
 0001:0000d2e8       _Init_thread_header        000000018000e2e8 f   MSVCRT:thread_safe_statics.obj
 0001:0000d350       _Init_thread_notify        000000018000e350 f   MSVCRT:thread_safe_statics.obj
 0001:0000d3a0       _Init_thread_wait          000000018000e3a0 f   MSVCRT:thread_safe_statics.obj
 0001:0000d418       __GSHandlerCheck           000000018000e418 f   MSVCRT:gshandler.obj
 0001:0000d438       __GSHandlerCheckCommon     000000018000e438 f   MSVCRT:gshandler.obj
 0001:0000d494       __GSHandlerCheck_EH        000000018000e494 f   MSVCRT:gshandlereh.obj
 0001:0000d530       __security_check_cookie    000000018000e530 f   MSVCRT:amdsecgs.obj
 0001:0000d554       ??_Etype_info@@UEAAPEAXI@Z 000000018000e554 f i MSVCRT:std_type_info_static.obj
 0001:0000d554       ??_Gtype_info@@UEAAPEAXI@Z 000000018000e554 f i MSVCRT:std_type_info_static.obj
 0001:0000d8b0       _DllMainCRTStartup         000000018000e8b0 f   MSVCRT:dll_dllmain.obj
 0001:0000d8f0       ??0bad_alloc@std@@QEAA@AEBV01@@Z 000000018000e8f0 f i MSVCRT:throw_bad_alloc.obj
 0001:0000d930       ??0bad_alloc@std@@QEAA@XZ  000000018000e930 f i MSVCRT:throw_bad_alloc.obj
 0001:0000d950       ??0bad_array_new_length@std@@QEAA@AEBV01@@Z 000000018000e950 f i MSVCRT:throw_bad_alloc.obj
 0001:0000d990       ??0bad_array_new_length@std@@QEAA@XZ 000000018000e990 f i MSVCRT:throw_bad_alloc.obj
 0001:0000d9b0       ?__scrt_throw_std_bad_alloc@@YAXXZ 000000018000e9b0 f   MSVCRT:throw_bad_alloc.obj
 0001:0000d9d0       ?__scrt_throw_std_bad_array_new_length@@YAXXZ 000000018000e9d0 f   MSVCRT:throw_bad_alloc.obj
 0001:0000d9f0       ??3@YAXPEAX@Z              000000018000e9f0 f   MSVCRT:delete_scalar.obj
 0001:0000d9f8       __scrt_acquire_startup_lock 000000018000e9f8 f   MSVCRT:utility.obj
 0001:0000da34       __scrt_dllmain_after_initialize_c 000000018000ea34 f   MSVCRT:utility.obj
 0001:0000da68       __scrt_dllmain_before_initialize_c 000000018000ea68 f   MSVCRT:utility.obj
 0001:0000da80       __scrt_dllmain_crt_thread_attach 000000018000ea80 f   MSVCRT:utility.obj
 0001:0000daa8       __scrt_dllmain_crt_thread_detach 000000018000eaa8 f   MSVCRT:utility.obj
 0001:0000dac0       __scrt_dllmain_exception_filter 000000018000eac0 f   MSVCRT:utility.obj
 0001:0000db20       __scrt_dllmain_uninitialize_c 000000018000eb20 f   MSVCRT:utility.obj
 0001:0000db50       __scrt_dllmain_uninitialize_critical 000000018000eb50 f   MSVCRT:utility.obj
 0001:0000db64       __scrt_initialize_crt      000000018000eb64 f   MSVCRT:utility.obj
 0001:0000dbb0       __scrt_initialize_onexit_tables 000000018000ebb0 f   MSVCRT:utility.obj
 0001:0000dc88       __scrt_is_nonwritable_in_current_image 000000018000ec88 f   MSVCRT:utility.obj
 0001:0000dd24       __scrt_release_startup_lock 000000018000ed24 f   MSVCRT:utility.obj
 0001:0000dd48       __scrt_uninitialize_crt    000000018000ed48 f   MSVCRT:utility.obj
 0001:0000dd74       _onexit                    000000018000ed74 f   MSVCRT:utility.obj
 0001:0000ddc4       atexit                     000000018000edc4 f   MSVCRT:utility.obj
 0001:0000dddc       __crt_debugger_hook        000000018000eddc f   MSVCRT:utility_desktop.obj
 0001:0000dde4       __scrt_fastfail            000000018000ede4 f   MSVCRT:utility_desktop.obj
 0001:0000df30       _guard_check_icall_nop     000000018000ef30 f i MSVCRT:guard_support.obj
 0001:0000df34       __raise_securityfailure    000000018000ef34 f   MSVCRT:gs_report.obj
 0001:0000df68       __report_gsfailure         000000018000ef68 f   MSVCRT:gs_report.obj
 0001:0000e0b0       __security_init_cookie     000000018000f0b0 f   MSVCRT:gs_support.obj
 0001:0000e15c       DllMain                    000000018000f15c f   MSVCRT:dll_dllmain_stub.obj
 0001:0000e180       ?__scrt_initialize_type_info@@YAXXZ 000000018000f180 f   MSVCRT:tncleanup.obj
 0001:0000e190       ?__scrt_uninitialize_type_info@@YAXXZ 000000018000f190 f   MSVCRT:tncleanup.obj
 0001:0000e19c       __local_stdio_scanf_options 000000018000f19c f i MSVCRT:default_local_stdio_options.obj
 0001:0000e1a4       __scrt_initialize_default_local_stdio_options 000000018000f1a4 f   MSVCRT:default_local_stdio_options.obj
 0001:0000e1c0       __scrt_get_dyn_tls_init_callback 000000018000f1c0 f   MSVCRT:dyn_tls_init.obj
 0001:0000e1c8       _RTC_Initialize            000000018000f1c8 f   MSVCRT:initsect.obj
 0001:0000e204       _RTC_Terminate             000000018000f204 f   MSVCRT:initsect.obj
 0001:0000e240       __isa_available_init       000000018000f240 f   MSVCRT:cpu_disp.obj
 0001:0000e3bc       _get_startup_argv_mode     000000018000f3bc f   MSVCRT:argv_mode.obj
 0001:0000e3c4       __scrt_is_ucrt_dll_in_use  000000018000f3c4 f   MSVCRT:ucrt_detection.obj
 0001:0000e3d0       IsProcessorFeaturePresent  000000018000f3d0 f   kernel32:KERNEL32.dll
 0001:0000e3d6       strstr                     000000018000f3d6 f   vcruntime:VCRUNTIME140.dll
 0001:0000e3dc       __std_exception_copy       000000018000f3dc f   vcruntime:VCRUNTIME140.dll
 0001:0000e3e2       __std_exception_destroy    000000018000f3e2 f   vcruntime:VCRUNTIME140.dll
 0001:0000e3e8       _CxxThrowException         000000018000f3e8 f   vcruntime:VCRUNTIME140.dll
 0001:0000e3ee       __CxxFrameHandler3         000000018000f3ee f   vcruntime:VCRUNTIME140.dll
 0001:0000e3f4       memcpy                     000000018000f3f4 f   vcruntime:VCRUNTIME140.dll
 0001:0000e3fa       memmove                    000000018000f3fa f   vcruntime:VCRUNTIME140.dll
 0001:0000e400       memset                     000000018000f400 f   vcruntime:VCRUNTIME140.dll
 0001:0000e406       __std_terminate            000000018000f406 f   vcruntime:VCRUNTIME140.dll
 0001:0000e40c       __C_specific_handler       000000018000f40c f   vcruntime:VCRUNTIME140.dll
 0001:0000e412       __std_type_info_destroy_list 000000018000f412 f   vcruntime:VCRUNTIME140.dll
 0001:0000e418       free                       000000018000f418 f   ucrt:api-ms-win-crt-heap-l1-1-0.dll
 0001:0000e41e       malloc                     000000018000f41e f   ucrt:api-ms-win-crt-heap-l1-1-0.dll
 0001:0000e424       _callnewh                  000000018000f424 f   ucrt:api-ms-win-crt-heap-l1-1-0.dll
 0001:0000e42a       _initterm                  000000018000f42a f   ucrt:api-ms-win-crt-runtime-l1-1-0.dll
 0001:0000e430       _initterm_e                000000018000f430 f   ucrt:api-ms-win-crt-runtime-l1-1-0.dll
 0001:0000e436       _seh_filter_dll            000000018000f436 f   ucrt:api-ms-win-crt-runtime-l1-1-0.dll
 0001:0000e43c       _configure_narrow_argv     000000018000f43c f   ucrt:api-ms-win-crt-runtime-l1-1-0.dll
 0001:0000e442       _initialize_narrow_environment 000000018000f442 f   ucrt:api-ms-win-crt-runtime-l1-1-0.dll
 0001:0000e448       _initialize_onexit_table   000000018000f448 f   ucrt:api-ms-win-crt-runtime-l1-1-0.dll
 0001:0000e44e       _register_onexit_function  000000018000f44e f   ucrt:api-ms-win-crt-runtime-l1-1-0.dll
 0001:0000e454       _execute_onexit_table      000000018000f454 f   ucrt:api-ms-win-crt-runtime-l1-1-0.dll
 0001:0000e45a       _crt_atexit                000000018000f45a f   ucrt:api-ms-win-crt-runtime-l1-1-0.dll
 0001:0000e460       _cexit                     000000018000f460 f   ucrt:api-ms-win-crt-runtime-l1-1-0.dll
 0001:0000e468       __scrt_stub_for_acrt_uninitialize 000000018000f468 f   MSVCRT:ucrt_stubs.obj
 0001:0000e468       __acrt_uninitialize_critical 000000018000f468 f   MSVCRT:ucrt_stubs.obj
 0001:0000e468       __scrt_stub_for_acrt_thread_attach 000000018000f468 f   MSVCRT:ucrt_stubs.obj
 0001:0000e468       __scrt_stub_for_acrt_uninitialize_critical 000000018000f468 f   MSVCRT:ucrt_stubs.obj
 0001:0000e468       __vcrt_uninitialize_critical 000000018000f468 f   MSVCRT:ucrt_stubs.obj
 0001:0000e468       __vcrt_thread_attach       000000018000f468 f   MSVCRT:ucrt_stubs.obj
 0001:0000e468       __scrt_stub_for_acrt_initialize 000000018000f468 f   MSVCRT:ucrt_stubs.obj
 0001:0000e468       __vcrt_thread_detach       000000018000f468 f   MSVCRT:ucrt_stubs.obj
 0001:0000e468       __acrt_initialize          000000018000f468 f   MSVCRT:ucrt_stubs.obj
 0001:0000e468       __acrt_thread_attach       000000018000f468 f   MSVCRT:ucrt_stubs.obj
 0001:0000e468       __scrt_stub_for_acrt_thread_detach 000000018000f468 f   MSVCRT:ucrt_stubs.obj
 0001:0000e468       __acrt_thread_detach       000000018000f468 f   MSVCRT:ucrt_stubs.obj
 0001:0000e468       __acrt_uninitialize        000000018000f468 f   MSVCRT:ucrt_stubs.obj
 0001:0000e468       __vcrt_uninitialize        000000018000f468 f   MSVCRT:ucrt_stubs.obj
 0001:0000e468       __vcrt_initialize          000000018000f468 f   MSVCRT:ucrt_stubs.obj
 0001:0000e46c       __scrt_stub_for_is_c_termination_complete 000000018000f46c f   MSVCRT:ucrt_stubs.obj
 0001:0000e46c       _is_c_termination_complete 000000018000f46c f   MSVCRT:ucrt_stubs.obj
 0001:0000e480       _guard_dispatch_icall_nop  000000018000f480 f   MSVCRT:guard_dispatch.obj
 0002:00000000       __imp_CloseHandle          0000000180015000     kernel32:KERNEL32.dll
 0002:00000008       __imp_EnterCriticalSection 0000000180015008     kernel32:KERNEL32.dll
 0002:00000010       __imp_LeaveCriticalSection 0000000180015010     kernel32:KERNEL32.dll
 0002:00000018       __imp_InitializeCriticalSectionAndSpinCount 0000000180015018     kernel32:KERNEL32.dll
 0002:00000020       __imp_DeleteCriticalSection 0000000180015020     kernel32:KERNEL32.dll
 0002:00000028       __imp_SetEvent             0000000180015028     kernel32:KERNEL32.dll
 0002:00000030       __imp_ResetEvent           0000000180015030     kernel32:KERNEL32.dll
 0002:00000038       __imp_WaitForSingleObjectEx 0000000180015038     kernel32:KERNEL32.dll
 0002:00000040       __imp_CreateEventW         0000000180015040     kernel32:KERNEL32.dll
 0002:00000048       __imp_GetModuleHandleW     0000000180015048     kernel32:KERNEL32.dll
 0002:00000050       __imp_GetProcAddress       0000000180015050     kernel32:KERNEL32.dll
 0002:00000058       __imp_RtlCaptureContext    0000000180015058     kernel32:KERNEL32.dll
 0002:00000060       __imp_RtlLookupFunctionEntry 0000000180015060     kernel32:KERNEL32.dll
 0002:00000068       __imp_RtlVirtualUnwind     0000000180015068     kernel32:KERNEL32.dll
 0002:00000070       __imp_IsDebuggerPresent    0000000180015070     kernel32:KERNEL32.dll
 0002:00000078       __imp_UnhandledExceptionFilter 0000000180015078     kernel32:KERNEL32.dll
 0002:00000080       __imp_SetUnhandledExceptionFilter 0000000180015080     kernel32:KERNEL32.dll
 0002:00000088       __imp_IsProcessorFeaturePresent 0000000180015088     kernel32:KERNEL32.dll
 0002:00000090       __imp_GetCurrentProcess    0000000180015090     kernel32:KERNEL32.dll
 0002:00000098       __imp_TerminateProcess     0000000180015098     kernel32:KERNEL32.dll
 0002:000000a0       __imp_QueryPerformanceCounter 00000001800150a0     kernel32:KERNEL32.dll
 0002:000000a8       __imp_GetCurrentProcessId  00000001800150a8     kernel32:KERNEL32.dll
 0002:000000b0       __imp_GetCurrentThreadId   00000001800150b0     kernel32:KERNEL32.dll
 0002:000000b8       __imp_GetSystemTimeAsFileTime 00000001800150b8     kernel32:KERNEL32.dll
 0002:000000c0       __imp_DisableThreadLibraryCalls 00000001800150c0     kernel32:KERNEL32.dll
 0002:000000c8       __imp_InitializeSListHead  00000001800150c8     kernel32:KERNEL32.dll
 0002:000000d0       \177KERNEL32_NULL_THUNK_DATA 00000001800150d0     kernel32:KERNEL32.dll
 0002:000000d8       __imp_strstr               00000001800150d8     vcruntime:VCRUNTIME140.dll
 0002:000000e0       __imp___std_exception_copy 00000001800150e0     vcruntime:VCRUNTIME140.dll
 0002:000000e8       __imp___std_exception_destroy 00000001800150e8     vcruntime:VCRUNTIME140.dll
 0002:000000f0       __imp__CxxThrowException   00000001800150f0     vcruntime:VCRUNTIME140.dll
 0002:000000f8       __imp___CxxFrameHandler3   00000001800150f8     vcruntime:VCRUNTIME140.dll
 0002:00000100       __imp_memcpy               0000000180015100     vcruntime:VCRUNTIME140.dll
 0002:00000108       __imp_memmove              0000000180015108     vcruntime:VCRUNTIME140.dll
 0002:00000110       __imp_memset               0000000180015110     vcruntime:VCRUNTIME140.dll
 0002:00000118       __imp___std_terminate      0000000180015118     vcruntime:VCRUNTIME140.dll
 0002:00000120       __imp___C_specific_handler 0000000180015120     vcruntime:VCRUNTIME140.dll
 0002:00000128       __imp___std_type_info_destroy_list 0000000180015128     vcruntime:VCRUNTIME140.dll
 0002:00000130       \177VCRUNTIME140_NULL_THUNK_DATA 0000000180015130     vcruntime:VCRUNTIME140.dll
 0002:00000138       __imp_free                 0000000180015138     ucrt:api-ms-win-crt-heap-l1-1-0.dll
 0002:00000140       __imp_malloc               0000000180015140     ucrt:api-ms-win-crt-heap-l1-1-0.dll
 0002:00000148       __imp__callnewh            0000000180015148     ucrt:api-ms-win-crt-heap-l1-1-0.dll
 0002:00000150       \177api-ms-win-crt-heap-l1-1-0_NULL_THUNK_DATA 0000000180015150     ucrt:api-ms-win-crt-heap-l1-1-0.dll
 0002:00000158       __imp__seh_filter_dll      0000000180015158     ucrt:api-ms-win-crt-runtime-l1-1-0.dll
 0002:00000160       __imp__initterm_e          0000000180015160     ucrt:api-ms-win-crt-runtime-l1-1-0.dll
 0002:00000168       __imp__initterm            0000000180015168     ucrt:api-ms-win-crt-runtime-l1-1-0.dll
 0002:00000170       __imp__initialize_narrow_environment 0000000180015170     ucrt:api-ms-win-crt-runtime-l1-1-0.dll
 0002:00000178       __imp__initialize_onexit_table 0000000180015178     ucrt:api-ms-win-crt-runtime-l1-1-0.dll
 0002:00000180       __imp__register_onexit_function 0000000180015180     ucrt:api-ms-win-crt-runtime-l1-1-0.dll
 0002:00000188       __imp__configure_narrow_argv 0000000180015188     ucrt:api-ms-win-crt-runtime-l1-1-0.dll
 0002:00000190       __imp__cexit               0000000180015190     ucrt:api-ms-win-crt-runtime-l1-1-0.dll
 0002:00000198       __imp__execute_onexit_table 0000000180015198     ucrt:api-ms-win-crt-runtime-l1-1-0.dll
 0002:000001a0       __imp__crt_atexit          00000001800151a0     ucrt:api-ms-win-crt-runtime-l1-1-0.dll
 0002:000001a8       \177api-ms-win-crt-runtime-l1-1-0_NULL_THUNK_DATA 00000001800151a8     ucrt:api-ms-win-crt-runtime-l1-1-0.dll
 0002:000001b0       __imp___stdio_common_vfprintf 00000001800151b0     ucrt:api-ms-win-crt-stdio-l1-1-0.dll
 0002:000001b8       __imp___acrt_iob_func      00000001800151b8     ucrt:api-ms-win-crt-stdio-l1-1-0.dll
 0002:000001c0       \177api-ms-win-crt-stdio-l1-1-0_NULL_THUNK_DATA 00000001800151c0     ucrt:api-ms-win-crt-stdio-l1-1-0.dll
 0002:000001c8       __imp_strncmp              00000001800151c8     ucrt:api-ms-win-crt-string-l1-1-0.dll
 0002:000001d0       \177api-ms-win-crt-string-l1-1-0_NULL_THUNK_DATA 00000001800151d0     ucrt:api-ms-win-crt-string-l1-1-0.dll
 0002:000001d8       __imp_create_switch_xrefs  00000001800151d8     ida:ida.dll
 0002:000001e0       __imp_create_switch_table  00000001800151e0     ida:ida.dll
 0002:000001e8       __imp_has_external_refs    00000001800151e8     ida:ida.dll
 0002:000001f0       __imp_get_next_fcref_to    00000001800151f0     ida:ida.dll
 0002:000001f8       __imp_get_first_fcref_to   00000001800151f8     ida:ida.dll
 0002:00000200       __imp_calc_switch_cases    0000000180015200     ida:ida.dll
 0002:00000208       __imp_delete_switch_table  0000000180015208     ida:ida.dll
 0002:00000210       __imp_get_first_fcref_from 0000000180015210     ida:ida.dll
 0002:00000218       __imp_get_next_cref_to     0000000180015218     ida:ida.dll
 0002:00000220       __imp_get_first_cref_to    0000000180015220     ida:ida.dll
 0002:00000228       __imp_get_next_cref_from   0000000180015228     ida:ida.dll
 0002:00000230       __imp_get_first_cref_from  0000000180015230     ida:ida.dll
 0002:00000238       __imp_get_next_dref_to     0000000180015238     ida:ida.dll
 0002:00000240       __imp_get_first_dref_to    0000000180015240     ida:ida.dll
 0002:00000248       __imp_get_next_dref_from   0000000180015248     ida:ida.dll
 0002:00000250       __imp_get_first_dref_from  0000000180015250     ida:ida.dll
 0002:00000258       __imp_xrefblk_t_next_to    0000000180015258     ida:ida.dll
 0002:00000260       __imp_xrefblk_t_first_to   0000000180015260     ida:ida.dll
 0002:00000268       __imp_xrefblk_t_next_from  0000000180015268     ida:ida.dll
 0002:00000270       __imp_xrefblk_t_first_from 0000000180015270     ida:ida.dll
 0002:00000278       __imp_del_dref             0000000180015278     ida:ida.dll
 0002:00000280       __imp_add_dref             0000000180015280     ida:ida.dll
 0002:00000288       __imp_del_cref             0000000180015288     ida:ida.dll
 0002:00000290       __imp_add_cref             0000000180015290     ida:ida.dll
 0002:00000298       __imp_xrefchar             0000000180015298     ida:ida.dll
 0002:000002a0       __imp_qrealloc             00000001800152a0     ida:ida.dll
 0002:000002a8       __imp_is_main_thread       00000001800152a8     ida:ida.dll
 0002:000002b0       __imp_qvector_reserve      00000001800152b0     ida:ida.dll
 0002:000002b8       __imp_qalloc_or_throw      00000001800152b8     ida:ida.dll
 0002:000002c0       __imp_qvsnprintf           00000001800152c0     ida:ida.dll
 0002:000002c8       __imp_qfree                00000001800152c8     ida:ida.dll
 0002:000002d0       __imp_get_next_fcref_from  00000001800152d0     ida:ida.dll
 0002:000002d8       \177ida_NULL_THUNK_DATA    00000001800152d8     ida:ida.dll
 0002:000002e0       __imp_PyW_GetNumber        00000001800152e0     python:python.dll
 0002:000002e8       __imp_PyW_PyListToEaVec    00000001800152e8     python:python.dll
 0002:000002f0       \177python_NULL_THUNK_DATA 00000001800152f0     python:python.dll
 0002:000002f8       __imp_PyExc_AttributeError 00000001800152f8     python38:python38.dll
 0002:00000300       __imp_PyExc_IndexError     0000000180015300     python38:python38.dll
 0002:00000308       __imp_PyExc_MemoryError    0000000180015308     python38:python38.dll
 0002:00000310       __imp_PyExc_OverflowError  0000000180015310     python38:python38.dll
 0002:00000318       __imp_PyExc_RuntimeError   0000000180015318     python38:python38.dll
 0002:00000320       __imp_PyBool_Type          0000000180015320     python38:python38.dll
 0002:00000328       __imp_PyExc_SystemError    0000000180015328     python38:python38.dll
 0002:00000330       __imp_PyExc_TypeError      0000000180015330     python38:python38.dll
 0002:00000338       __imp_PyExc_ValueError     0000000180015338     python38:python38.dll
 0002:00000340       __imp_PyExc_ZeroDivisionError 0000000180015340     python38:python38.dll
 0002:00000348       __imp_PyExc_IOError        0000000180015348     python38:python38.dll
 0002:00000350       __imp__Py_NotImplementedStruct 0000000180015350     python38:python38.dll
 0002:00000358       __imp__Py_NoneStruct       0000000180015358     python38:python38.dll
 0002:00000360       __imp_PyExc_SyntaxError    0000000180015360     python38:python38.dll
 0002:00000368       __imp_PyType_Type          0000000180015368     python38:python38.dll
 0002:00000370       __imp_PyObject_IsInstance  0000000180015370     python38:python38.dll
 0002:00000378       __imp_PySequence_Check     0000000180015378     python38:python38.dll
 0002:00000380       __imp_PyObject_CallFunctionObjArgs 0000000180015380     python38:python38.dll
 0002:00000388       __imp_PyObject_Call        0000000180015388     python38:python38.dll
 0002:00000390       __imp_PyImport_AddModule   0000000180015390     python38:python38.dll
 0002:00000398       __imp_PyEval_InitThreads   0000000180015398     python38:python38.dll
 0002:000003a0       __imp_PyModule_AddObject   00000001800153a0     python38:python38.dll
 0002:000003a8       __imp_PyArg_UnpackTuple    00000001800153a8     python38:python38.dll
 0002:000003b0       __imp_PyGILState_Release   00000001800153b0     python38:python38.dll
 0002:000003b8       __imp_PyGILState_Ensure    00000001800153b8     python38:python38.dll
 0002:000003c0       __imp_PyErr_WriteUnraisable 00000001800153c0     python38:python38.dll
 0002:000003c8       __imp_PyErr_Format         00000001800153c8     python38:python38.dll
 0002:000003d0       __imp_PyErr_GivenExceptionMatches 00000001800153d0     python38:python38.dll
 0002:000003d8       __imp_PyErr_Restore        00000001800153d8     python38:python38.dll
 0002:000003e0       __imp_PyErr_Fetch          00000001800153e0     python38:python38.dll
 0002:000003e8       __imp_PyErr_Clear          00000001800153e8     python38:python38.dll
 0002:000003f0       __imp_PyErr_Occurred       00000001800153f0     python38:python38.dll
 0002:000003f8       __imp_PyErr_SetString      00000001800153f8     python38:python38.dll
 0002:00000400       __imp_PyCapsule_Import     0000000180015400     python38:python38.dll
 0002:00000408       __imp_PyCapsule_GetPointer 0000000180015408     python38:python38.dll
 0002:00000410       __imp_PyCapsule_New        0000000180015410     python38:python38.dll
 0002:00000418       __imp_PyModule_GetDict     0000000180015418     python38:python38.dll
 0002:00000420       __imp_PyCFunction_GetFlags 0000000180015420     python38:python38.dll
 0002:00000428       __imp_PyCFunction_GetSelf  0000000180015428     python38:python38.dll
 0002:00000430       __imp_PyCFunction_GetFunction 0000000180015430     python38:python38.dll
 0002:00000438       __imp_PyDict_SetItemString 0000000180015438     python38:python38.dll
 0002:00000440       __imp_PyDict_SetItem       0000000180015440     python38:python38.dll
 0002:00000448       __imp_PyDict_GetItem       0000000180015448     python38:python38.dll
 0002:00000450       __imp_PyDict_New           0000000180015450     python38:python38.dll
 0002:00000458       __imp_PyTuple_SetItem      0000000180015458     python38:python38.dll
 0002:00000460       __imp_PyTuple_GetItem      0000000180015460     python38:python38.dll
 0002:00000468       __imp_PyTuple_Size         0000000180015468     python38:python38.dll
 0002:00000470       __imp_PyTuple_New          0000000180015470     python38:python38.dll
 0002:00000478       __imp_PyBool_FromLong      0000000180015478     python38:python38.dll
 0002:00000480       __imp_PyLong_AsUnsignedLongLong 0000000180015480     python38:python38.dll
 0002:00000488       __imp_PyLong_FromUnsignedLongLong 0000000180015488     python38:python38.dll
 0002:00000490       __imp_PyLong_FromVoidPtr   0000000180015490     python38:python38.dll
 0002:00000498       __imp_PyLong_AsUnsignedLong 0000000180015498     python38:python38.dll
 0002:000004a0       __imp_PyLong_AsLong        00000001800154a0     python38:python38.dll
 0002:000004a8       __imp_PyLong_FromLong      00000001800154a8     python38:python38.dll
 0002:000004b0       __imp_PyUnicode_CompareWithASCIIString 00000001800154b0     python38:python38.dll
 0002:000004b8       __imp_PyUnicode_Concat     00000001800154b8     python38:python38.dll
 0002:000004c0       __imp_PyUnicode_AsUTF8String 00000001800154c0     python38:python38.dll
 0002:000004c8       __imp_PyUnicode_DecodeUTF8 00000001800154c8     python38:python38.dll
 0002:000004d0       __imp_PyUnicode_FromFormat 00000001800154d0     python38:python38.dll
 0002:000004d8       __imp_PyUnicode_FromString 00000001800154d8     python38:python38.dll
 0002:000004e0       __imp_PyBytes_AsStringAndSize 00000001800154e0     python38:python38.dll
 0002:000004e8       __imp__PyObject_New        00000001800154e8     python38:python38.dll
 0002:000004f0       __imp_PyObject_Free        00000001800154f0     python38:python38.dll
 0002:000004f8       __imp_Py_DecRef            00000001800154f8     python38:python38.dll
 0002:00000500       __imp__Py_Dealloc          0000000180015500     python38:python38.dll
 0002:00000508       __imp_PyObject_IsTrue      0000000180015508     python38:python38.dll
 0002:00000510       __imp_PyObject_GenericGetAttr 0000000180015510     python38:python38.dll
 0002:00000518       __imp_PyObject_SetAttr     0000000180015518     python38:python38.dll
 0002:00000520       __imp_PyObject_GetAttr     0000000180015520     python38:python38.dll
 0002:00000528       __imp_PyObject_GetAttrString 0000000180015528     python38:python38.dll
 0002:00000530       __imp_PyType_Modified      0000000180015530     python38:python38.dll
 0002:00000538       __imp_PyType_GetFlags      0000000180015538     python38:python38.dll
 0002:00000540       __imp_PyType_GetSlot       0000000180015540     python38:python38.dll
 0002:00000548       __imp_PyType_FromSpec      0000000180015548     python38:python38.dll
 0002:00000550       __imp_PyModule_Create2     0000000180015550     python38:python38.dll
 0002:00000558       \177python38_NULL_THUNK_DATA 0000000180015558     python38:python38.dll
 0002:00000560       __guard_check_icall_fptr   0000000180015560     MSVCRT:guard_support.obj
 0002:00000568       __guard_dispatch_icall_fptr 0000000180015568     MSVCRT:guard_support.obj
 0002:00000570       __xc_a                     0000000180015570     MSVCRT:initializers.obj
 0002:00000578       __xc_z                     0000000180015578     MSVCRT:initializers.obj
 0002:00000580       __xi_a                     0000000180015580     MSVCRT:initializers.obj
 0002:00000590       __xi_z                     0000000180015590     MSVCRT:initializers.obj
 0002:00000598       __xl_a                     0000000180015598     MSVCRT:tlssup.obj
 0002:000005a0       __xl_z                     00000001800155a0     MSVCRT:tlssup.obj
 0002:000005a8       __xp_a                     00000001800155a8     MSVCRT:initializers.obj
 0002:000005b0       __xp_z                     00000001800155b0     MSVCRT:initializers.obj
 0002:000005b8       __xt_a                     00000001800155b8     MSVCRT:initializers.obj
 0002:000005c0       __xt_z                     00000001800155c0     MSVCRT:initializers.obj
 0002:000005d0       ??_C@_0BC@GDBAHJEF@casevec_t_reserve@ 00000001800155d0     xref.obj
 0002:000005e8       ??_C@_0P@NOIMCJMB@casevec_t_swap@ 00000001800155e8     xref.obj
 0002:000005f8       ??_C@_0BB@GGPBGPAL@casevec_t_inject@ 00000001800155f8     xref.obj
 0002:00000610       ??_C@_0BB@GEEOJNOP@casevec_t___eq__@ 0000000180015610     xref.obj
 0002:00000628       ??_C@_0BB@MMOFGMDG@casevec_t___ne__@ 0000000180015628     xref.obj
 0002:00000640       ??_C@_0BA@PDPFOKNJ@casevec_t_begin@ 0000000180015640     xref.obj
 0002:00000650       ??_C@_0O@HMEABBCI@casevec_t_end@ 0000000180015650     xref.obj
 0002:00000660       ??_C@_0BB@BGOFFDLP@casevec_t_insert@ 0000000180015660     xref.obj
 0002:00000678       ??_C@_0BA@OLBODBEC@casevec_t_erase@ 0000000180015678     xref.obj
 0002:00000688       ??_C@_0P@ODLIIBPH@casevec_t_find@ 0000000180015688     xref.obj
 0002:00000698       ??_C@_0O@IAPFAKFO@casevec_t_has@ 0000000180015698     xref.obj
 0002:000006a8       ??_C@_0BF@OHIAJFLD@casevec_t_add_unique@ 00000001800156a8     xref.obj
 0002:000006c0       ??_C@_0P@HJGPOGDE@casevec_t__del@ 00000001800156c0     xref.obj
 0002:000006d0       ??_C@_0BG@FGKDPKBE@casevec_t___getitem__@ 00000001800156d0     xref.obj
 0002:000006e8       ??_C@_0BG@HIOGNLIG@casevec_t___setitem__@ 00000001800156e8     xref.obj
 0002:00000700       ??_C@_0CE@PJBGLOKG@create_switch_xrefs?$CIea?0?5si?$CJ?5?9?$DO?5@ 0000000180015700     xref.obj
 0002:00000728       ??_C@_0CL@CCBDPAKO@cases_and_targets_t_cases_set?$CIs@ 0000000180015728     xref.obj
 0002:00000758       ??_C@_0BO@JJDFNPIP@cases_and_targets_t_cases_get@ 0000000180015758     xref.obj
 0002:00000778       ??_C@_0DB@NDPPDNKE@cases_and_targets_t_cases_get?$CIs@ 0000000180015778     xref.obj
 0002:000007b0       ??_C@_0CP@PPIDBIEF@cases_and_targets_t_targets_set@ 00000001800157b0     xref.obj
 0002:000007e0       ??_C@_0CA@FAJIGNBH@cases_and_targets_t_targets_get@ 00000001800157e0     xref.obj
 0002:00000800       ??_C@_0DD@OJBBJIDM@cases_and_targets_t_targets_get@ 0000000180015800     xref.obj
 0002:00000838       ??_C@_0DB@CPKAFOI@new_cases_and_targets_t?$CI?$CJ?5?9?$DO?5ca@ 0000000180015838     xref.obj
 0002:00000870       ??_C@_0BL@IIFNGOCA@delete_cases_and_targets_t@ 0000000180015870     xref.obj
 0002:00000890       ??_C@_0CB@KODFMBDG@delete_cases_and_targets_t?$CIself@ 0000000180015890     xref.obj
 0002:000008b8       ??_C@_0CB@NECIIBIK@cases_and_targets_t_swigregiste@ 00000001800158b8     xref.obj
 0002:000008e0       ??_C@_0BN@MIBEIGIN@cases_and_targets_t_swiginit@ 00000001800158e0     xref.obj
 0002:00000900       ??_C@_0DB@PDABEJDC@calc_switch_cases?$CIea?0?5si?$CJ?5?9?$DO?5ca@ 0000000180015900     xref.obj
 0002:00000938       ??_C@_0CE@JAIAMGND@create_switch_table?$CIea?0?5si?$CJ?5?9?$DO?5@ 0000000180015938     xref.obj
 0002:00000960       ??_C@_08MPMHPLGG@xrefchar@ 0000000180015960     xref.obj
 0002:00000970       ??_C@_0BJ@LIDOBOHG@xrefchar?$CIxrtype?$CJ?5?9?$DO?5char@ 0000000180015970     xref.obj
 0002:00000990       ??_C@_0CA@OIGIKJKI@add_cref?$CIfrm?0?5to?0?5type?$CJ?5?9?$DO?5bool@ 0000000180015990     xref.obj
 0002:000009b0       ??_C@_0CB@CBNDMFPH@del_cref?$CIfrm?0?5to?0?5expand?$CJ?5?9?$DO?5in@ 00000001800159b0     xref.obj
 0002:000009d8       ??_C@_0CA@OMGBFKPL@add_dref?$CIfrm?0?5to?0?5type?$CJ?5?9?$DO?5bool@ 00000001800159d8     xref.obj
 0002:000009f8       ??_C@_0BC@NFCPKNKO@del_dref?$CIfrm?0?5to?$CJ@ 00000001800159f8     xref.obj
 0002:00000a10       ??_C@_0BN@LJKHNCOK@xrefblk_t_frm_set?$CIself?0?5frm?$CJ@ 0000000180015a10     xref.obj
 0002:00000a30       ??_C@_0BC@MFIKBGB@xrefblk_t_frm_get@ 0000000180015a30     xref.obj
 0002:00000a48       ??_C@_0CA@OKFLKMBG@xrefblk_t_frm_get?$CIself?$CJ?5?9?$DO?5ea_t@ 0000000180015a48     xref.obj
 0002:00000a68       ??_C@_0BL@FGGFDKIC@xrefblk_t_to_set?$CIself?0?5to?$CJ@ 0000000180015a68     xref.obj
 0002:00000a88       ??_C@_0BB@EIPILMJK@xrefblk_t_to_get@ 0000000180015a88     xref.obj
 0002:00000aa0       ??_C@_0BP@CBDDNDIN@xrefblk_t_to_get?$CIself?$CJ?5?9?$DO?5ea_t@ 0000000180015aa0     xref.obj
 0002:00000ac0       ??_C@_0CD@DEPJKIDJ@xrefblk_t_iscode_set?$CIself?0?5isco@ 0000000180015ac0     xref.obj
 0002:00000ae8       ??_C@_0BF@IOMLJMGJ@xrefblk_t_iscode_get@ 0000000180015ae8     xref.obj
 0002:00000b00       ??_C@_0CE@BBMOODOF@xrefblk_t_iscode_get?$CIself?$CJ?5?9?$DO?5u@ 0000000180015b00     xref.obj
 0002:00000b28       ??_C@_0BP@EPNKLGME@xrefblk_t_type_set?$CIself?0?5type?$CJ@ 0000000180015b28     xref.obj
 0002:00000b48       ??_C@_0BD@CLOCOIHC@xrefblk_t_type_get@ 0000000180015b48     xref.obj
 0002:00000b60       ??_C@_0CC@KMCFGEBP@xrefblk_t_type_get?$CIself?$CJ?5?9?$DO?5uch@ 0000000180015b60     xref.obj
 0002:00000b88       ??_C@_0BP@JKBCKMPE@xrefblk_t_user_set?$CIself?0?5user?$CJ@ 0000000180015b88     xref.obj
 0002:00000ba8       ??_C@_0BD@IGGMGBLD@xrefblk_t_user_get@ 0000000180015ba8     xref.obj
 0002:00000bc0       ??_C@_0CC@FCLIMC@xrefblk_t_user_get?$CIself?$CJ?5?9?$DO?5uch@ 0000000180015bc0     xref.obj
 0002:00000be8       ??_C@_0DB@LNMNJOAJ@xrefblk_t_first_from?$CIself?0?5_fro@ 0000000180015be8     xref.obj
 0002:00000c20       ??_C@_0CN@CMDBGDHI@xrefblk_t_first_to?$CIself?0?5_to?0?5f@ 0000000180015c20     xref.obj
 0002:00000c50       ??_C@_0FJ@KBDOJIBH@?6xrefblk_t_next_from?$CIself?$CJ?5?9?$DO?5b@ 0000000180015c50     xref.obj
 0002:00000cb0       ??_C@_0FF@CELEAMCA@?6xrefblk_t_next_to?$CIself?$CJ?5?9?$DO?5boo@ 0000000180015cb0     xref.obj
 0002:00000d08       ??_C@_0BN@GOKFKBCM@new_xrefblk_t?$CI?$CJ?5?9?$DO?5xrefblk_t@ 0000000180015d08     xref.obj
 0002:00000d28       ??_C@_0BB@MJGGGPOG@delete_xrefblk_t@ 0000000180015d28     xref.obj
 0002:00000d40       ??_C@_0BH@CJGINHI@delete_xrefblk_t?$CIself?$CJ@ 0000000180015d40     xref.obj
 0002:00000d58       ??_C@_0BH@PDEJKDJK@xrefblk_t_swigregister@ 0000000180015d58     xref.obj
 0002:00000d70       ??_C@_0BD@LPPEBEFH@xrefblk_t_swiginit@ 0000000180015d70     xref.obj
 0002:00000d88       ??_C@_0BE@HEOALKDK@get_first_dref_from@ 0000000180015d88     xref.obj
 0002:00000da0       ??_C@_0CB@CKLDKAND@get_first_dref_from?$CIfrm?$CJ?5?9?$DO?5ea_@ 0000000180015da0     xref.obj
 0002:00000dc8       ??_C@_0CJ@GFGHABPM@get_next_dref_from?$CIfrm?0?5current@ 0000000180015dc8     xref.obj
 0002:00000df8       ??_C@_0BC@ILGDNOJH@get_first_dref_to@ 0000000180015df8     xref.obj
 0002:00000e10       ??_C@_0BO@MEGCHCAB@get_first_dref_to?$CIto?$CJ?5?9?$DO?5ea_t@ 0000000180015e10     xref.obj
 0002:00000e30       ??_C@_0CG@PEKNCBGL@get_next_dref_to?$CIto?0?5current?$CJ?5?9@ 0000000180015e30     xref.obj
 0002:00000e58       ??_C@_0BE@JGDMKBED@get_first_cref_from@ 0000000180015e58     xref.obj
 0002:00000e70       ??_C@_0CB@FMAKDIHN@get_first_cref_from?$CIfrm?$CJ?5?9?$DO?5ea_@ 0000000180015e70     xref.obj
 0002:00000e98       ??_C@_0CJ@NNPCBDGJ@get_next_cref_from?$CIfrm?0?5current@ 0000000180015e98     xref.obj
 0002:00000ec8       ??_C@_0BC@IBKGNHIO@get_first_cref_to@ 0000000180015ec8     xref.obj
 0002:00000ee0       ??_C@_0BO@CFCGNEJC@get_first_cref_to?$CIto?$CJ?5?9?$DO?5ea_t@ 0000000180015ee0     xref.obj
 0002:00000f00       ??_C@_0CG@GMLCING@get_next_cref_to?$CIto?0?5current?$CJ?5?9@ 0000000180015f00     xref.obj
 0002:00000f28       ??_C@_0BF@OKBMILCE@get_first_fcref_from@ 0000000180015f28     xref.obj
 0002:00000f40       ??_C@_0CC@LHGFDNCD@get_first_fcref_from?$CIfrm?$CJ?5?9?$DO?5ea@ 0000000180015f40     xref.obj
 0002:00000f68       ??_C@_0CK@FDHOHADP@get_next_fcref_from?$CIfrm?0?5curren@ 0000000180015f68     xref.obj
 0002:00000f98       ??_C@_0BD@PNPOGFNF@get_first_fcref_to@ 0000000180015f98     xref.obj
 0002:00000fb0       ??_C@_0BP@NDHMBLKP@get_first_fcref_to?$CIto?$CJ?5?9?$DO?5ea_t@ 0000000180015fb0     xref.obj
 0002:00000fd0       ??_C@_0CH@BLOCCNCA@get_next_fcref_to?$CIto?0?5current?$CJ?5@ 0000000180015fd0     xref.obj
 0002:00000ff8       ??_C@_0CD@HHHCLIDM@has_external_refs?$CIpfn?0?5ea?$CJ?5?9?$DO?5b@ 0000000180015ff8     xref.obj
 0002:00001020       ??_C@_0CB@BHELEFHB@delete_switch_table?$CIjump_ea?0?5si@ 0000000180016020     xref.obj
 0002:00001048       ??_C@_0CM@EEKHOKAO@?6casevec_t?$CI?$CJ?6new_casevec_t?$CIx?$CJ?5?9@ 0000000180016048     xref.obj
 0002:00001078       ??_C@_0BB@FILKEDGP@delete_casevec_t@ 0000000180016078     xref.obj
 0002:00001090       ??_C@_0BH@KPELNOIL@delete_casevec_t?$CIself?$CJ@ 0000000180016090     xref.obj
 0002:000010b0       ??_C@_0EN@PMLJCDJF@?6casevec_t_push_back?$CIself?0?5x?$CJ?6c@ 00000001800160b0     xref.obj
 0002:00001100       ??_C@_0BD@CEAJJAE@casevec_t_pop_back@ 0000000180016100     xref.obj
 0002:00001118       ??_C@_0BJ@IGMNBLEP@casevec_t_pop_back?$CIself?$CJ@ 0000000180016118     xref.obj
 0002:00001138       ??_C@_0P@EJIMKDOI@casevec_t_size@ 0000000180016138     xref.obj
 0002:00001148       ??_C@_0BP@NCOEAFEA@casevec_t_size?$CIself?$CJ?5?9?$DO?5size_t@ 0000000180016148     xref.obj
 0002:00001168       ??_C@_0BA@CDDEKDD@casevec_t_empty@ 0000000180016168     xref.obj
 0002:00001178       ??_C@_0BO@JKFHNGCG@casevec_t_empty?$CIself?$CJ?5?9?$DO?5bool@ 0000000180016178     xref.obj
 0002:00001198       ??_C@_0DD@JCCGEDPL@casevec_t_at?$CIself?0?5_idx?$CJ?5?9?$DO?5qve@ 0000000180016198     xref.obj
 0002:000011d0       ??_C@_0BB@FEMACIDE@casevec_t_qclear@ 00000001800161d0     xref.obj
 0002:000011e8       ??_C@_0BH@CKHINJHP@casevec_t_qclear?$CIself?$CJ@ 00000001800161e8     xref.obj
 0002:00001200       ??_C@_0BA@HHNEJPGD@casevec_t_clear@ 0000000180016200     xref.obj
 0002:00001210       ??_C@_0BG@HMGEANEF@casevec_t_clear?$CIself?$CJ@ 0000000180016210     xref.obj
 0002:00001230       ??_C@_0EH@LBKGMDCG@?6casevec_t_resize?$CIself?0?5_newsiz@ 0000000180016230     xref.obj
 0002:00001278       ??_C@_0CJ@MMJMJAOB@casevec_t_grow?$CIself?0?5x?$DNqvector?$DM@ 0000000180016278     xref.obj
 0002:000012a8       ??_C@_0BD@CFLOFHCG@casevec_t_capacity@ 00000001800162a8     xref.obj
 0002:000012c0       ??_C@_0CD@JMLDEECN@casevec_t_capacity?$CIself?$CJ?5?9?$DO?5siz@ 00000001800162c0     xref.obj
 0002:000012e8       ??_C@_0BN@KAGDPHIO@casevec_t_reserve?$CIself?0?5cnt?$CJ@ 00000001800162e8     xref.obj
 0002:00001308       ??_C@_0BD@JPIGKGJG@casevec_t_truncate@ 0000000180016308     xref.obj
 0002:00001320       ??_C@_0BJ@FDPPBJCJ@casevec_t_truncate?$CIself?$CJ@ 0000000180016320     xref.obj
 0002:00001340       ??_C@_0BI@GCDAFHM@casevec_t_swap?$CIself?0?5r?$CJ@ 0000000180016340     xref.obj
 0002:00001358       ??_C@_0BC@NHDKHNKJ@casevec_t_extract@ 0000000180016358     xref.obj
 0002:00001370       ??_C@_0CM@HHFJOKLB@casevec_t_extract?$CIself?$CJ?5?9?$DO?5qvec@ 0000000180016370     xref.obj
 0002:000013a0       ??_C@_0BP@PKJOPPFC@casevec_t_inject?$CIself?0?5s?0?5len?$CJ@ 00000001800163a0     xref.obj
 0002:000013c0       ??_C@_0CC@HCICAJPF@casevec_t___eq__?$CIself?0?5r?$CJ?5?9?$DO?5bo@ 00000001800163c0     xref.obj
 0002:000013e8       ??_C@_0CC@KLKEJEOC@casevec_t___ne__?$CIself?0?5r?$CJ?5?9?$DO?5bo@ 00000001800163e8     xref.obj
 0002:00001410       ??_C@_0IC@PLCEEJAA@?6casevec_t_begin?$CIself?$CJ?5?9?$DO?5qvect@ 0000000180016410     xref.obj
 0002:000014a0       ??_C@_0HO@NKFJDBAA@?6casevec_t_end?$CIself?$CJ?5?9?$DO?5qvector@ 00000001800164a0     xref.obj
 0002:00001520       ??_C@_0EF@EIPPDOLK@casevec_t_insert?$CIself?0?5it?0?5x?$CJ?5?9@ 0000000180016520     xref.obj
 0002:00001570       ??_C@_0IN@CEEJGAED@?6casevec_t_erase?$CIself?0?5it?$CJ?5?9?$DO?5q@ 0000000180016570     xref.obj
 0002:00001600       ??_C@_0IG@JKIMDLJN@?6casevec_t_find?$CIself?0?5x?$CJ?5?9?$DO?5qve@ 0000000180016600     xref.obj
 0002:00001688       ??_C@_0BP@JJAAMJAG@casevec_t_has?$CIself?0?5x?$CJ?5?9?$DO?5bool@ 0000000180016688     xref.obj
 0002:000016a8       ??_C@_0CG@KKCMADGM@casevec_t_add_unique?$CIself?0?5x?$CJ?5?9@ 00000001800166a8     xref.obj
 0002:000016d0       ??_C@_0CA@LAPHEDOP@casevec_t__del?$CIself?0?5x?$CJ?5?9?$DO?5bool@ 00000001800166d0     xref.obj
 0002:000016f0       ??_C@_0BC@PHAKAPKB@casevec_t___len__@ 00000001800166f0     xref.obj
 0002:00001708       ??_C@_0CC@IEBCPKHJ@casevec_t___len__?$CIself?$CJ?5?9?$DO?5size@ 0000000180016708     xref.obj
 0002:00001730       ??_C@_0DJ@BAADLDDF@casevec_t___getitem__?$CIself?0?5i?$CJ?5@ 0000000180016730     xref.obj
 0002:00001770       ??_C@_0CC@FDCNKCBH@casevec_t___setitem__?$CIself?0?5i?0?5@ 0000000180016770     xref.obj
 0002:00001798       ??_C@_0BH@OCKBIDLH@casevec_t_swigregister@ 0000000180016798     xref.obj
 0002:000017b0       ??_C@_0BD@GBICHJIN@casevec_t_swiginit@ 00000001800167b0     xref.obj
 0002:000017c8       ??_C@_0BE@LADBKDLC@_p__qstringT_char_t@ 00000001800167c8     xref.obj
 0002:000017e0       ??_C@_0BN@OHJFNODI@_qstring?$DM?5char?5?$DO?5?$CK?$HMqstring?5?$CK@ 00000001800167e0     xref.obj
 0002:00001800       ??_C@_0BN@OGMFMNEO@_p__qstringT_unsigned_char_t@ 0000000180016800     xref.obj
 0002:00001820       ??_C@_0CE@FCOOCMMP@qtype?5?$CK?$HM_qstring?$DM?5unsigned?5char@ 0000000180016820     xref.obj
 0002:00001848       ??_C@_0BO@NPELMEMN@_p__qstringT_unsigned_short_t@ 0000000180016848     xref.obj
 0002:00001868       ??_C@_0CI@MOGIECDE@_qstring?$DM?5unsigned?5short?5?$DO?5?$CK?$HMqw@ 0000000180016868     xref.obj
 0002:00001890       ??_C@_0BF@FIODJLOI@_p_action_ctx_base_t@ 0000000180016890     xref.obj
 0002:000018b0       ??_C@_0EE@ODNBPOJC@action_ctx_base_t?5?$CK?$HMaction_upda@ 00000001800168b0     xref.obj
 0002:000018f8       ??_C@_0N@IODFCNBG@_p_biggest_t@ 00000001800168f8     xref.obj
 0002:00001908       ??_C@_0M@LMODFOHJ@biggest_t?5?$CK@ 0000000180016908     xref.obj
 0002:00001918       ??_C@_0BH@GDFBFBCK@_p_cases_and_targets_t@ 0000000180016918     xref.obj
 0002:00001930       ??_C@_0BG@LBHPBHDC@cases_and_targets_t?5?$CK@ 0000000180016930     xref.obj
 0002:00001948       ??_C@_0O@HOPHBKAL@char?5?$CK?$HMint8?5?$CK@ 0000000180016948     xref.obj
 0002:00001958       ??_C@_0BC@KJKOCNNG@_p_const_iterator@ 0000000180016958     xref.obj
 0002:00001970       ??_C@_0BB@LAJPCFIO@const_iterator?5?$CK@ 0000000180016970     xref.obj
 0002:00001988       ??_C@_0CE@DHGPAIMI@_p_f_p_TWidget_int_int_p_void__@ 0000000180016988     xref.obj
 0002:000019b0       ??_C@_0DN@DFPOHMBA@custom_viewer_keydown_t?5?$CK?$HMbool?5@ 00000001800169b0     xref.obj
 0002:000019f0       ??_C@_0DF@PENMGFJK@_p_f_p_TWidget_int_p_view_mouse@ 00000001800169f0     xref.obj
 0002:00001a30       ??_C@_0FC@NPHKCCPL@void?5?$CI?$CK?$CJ?$CITWidget?5?$CK?0int?0view_mou@ 0000000180016a30     xref.obj
 0002:00001a88       ??_C@_0CA@IGCEDJID@_p_f_p_TWidget_int_p_void__bool@ 0000000180016a88     xref.obj
 0002:00001ab0       ??_C@_0FC@PJNOFHGN@custom_viewer_click_t?5?$CK?$HMcustom_@ 0000000180016ab0     xref.obj
 0002:00001b08       ??_C@_0CO@MIHLPJDD@_p_f_p_TWidget_p_lochist_entry_@ 0000000180016b08     xref.obj
 0002:00001b40       ??_C@_0EM@HBPJNBB@custom_viewer_adjust_place_t?5?$CK?$HM@ 0000000180016b40     xref.obj
 0002:00001b90       ??_C@_0GM@LBGPKCPI@_p_f_p_TWidget_p_q_const__lochi@ 0000000180016b90     xref.obj
 0002:00001c00       ??_C@_0IF@FKBGALIG@void?5?$CI?$CK?$CJ?$CITWidget?5?$CK?0lochist_entr@ 0000000180016c00     xref.obj
 0002:00001c90       ??_C@_0FA@DFBJAGBE@_p_f_p_TWidget_p_q_const__lochi@ 0000000180016c90     xref.obj
 0002:00001ce0       ??_C@_0GI@FMPBFLEM@custom_viewer_can_navigate_t?5?$CK?$HM@ 0000000180016ce0     xref.obj
 0002:00001d48       ??_C@_0DH@JJEDBLDE@_p_f_p_TWidget_p_q_const__place@ 0000000180016d48     xref.obj
 0002:00001d80       ??_C@_0EP@PJDAMEBK@code_viewer_lines_click_t?5?$CK?$HMvoi@ 0000000180016d80     xref.obj
 0002:00001dd0       ??_C@_0DE@PBNPHPNC@_p_f_p_TWidget_p_q_const__place@ 0000000180016dd0     xref.obj
 0002:00001e10       ??_C@_0EL@JKPIBDKO@code_viewer_lines_icon_t?5?$CK?$HMint?5@ 0000000180016e10     xref.obj
 0002:00001e60       ??_C@_0EB@FDCGDBJI@_p_f_p_TWidget_p_q_const__place@ 0000000180016e60     xref.obj
 0002:00001eb0       ??_C@_0FN@GGLCMJJK@custom_viewer_get_place_xcoord_@ 0000000180016eb0     xref.obj
 0002:00001f10       ??_C@_0DO@KLDLOPHE@_p_f_p_TWidget_p_q_const__place@ 0000000180016f10     xref.obj
 0002:00001f50       ??_C@_0FI@GOMHMLF@code_viewer_lines_linenum_t?5?$CK?$HMb@ 0000000180016f50     xref.obj
 0002:00001fa8       ??_C@_0BL@BMEJNHDD@_p_f_p_TWidget_p_void__int@ 0000000180016fa8     xref.obj
 0002:00001fc8       ??_C@_0DB@GMPMLKDG@custom_viewer_help_t?5?$CK?$HMint?5?$CI?$CK?$CJ?$CI@ 0000000180016fc8     xref.obj
 0002:00002000       ??_C@_0BM@PAKPNBHH@_p_f_p_TWidget_p_void__void@ 0000000180017000     xref.obj
 0002:00002020       ??_C@_0GE@BLLNJKNN@custom_viewer_popup_t?5?$CK?$HMcustom_@ 0000000180017020     xref.obj
 0002:00002088       ??_C@_0DM@PKHFKJJF@_p_f_p_chooser_multi_t_p_sizeve@ 0000000180017088     xref.obj
 0002:000020d0       ??_C@_0FA@INGPHNGB@chooser_base_t?3?3cbres_t?5?$CI?$CK?$CJ?$CIcho@ 00000001800170d0     xref.obj
 0002:00002120       ??_C@_0CN@LJCPBILN@_p_f_p_chooser_t_ssize_t__choos@ 0000000180017120     xref.obj
 0002:00002150       ??_C@_0DL@IKAMODJA@chooser_t?3?3cbret_t?5?$CI?$CK?$CJ?$CIchooser_@ 0000000180017150     xref.obj
 0002:00002190       ??_C@_0EC@GIKOMIMG@_p_f_p_lochist_entry_t_r_q_cons@ 0000000180017190     xref.obj
 0002:000021e0       ??_C@_0FE@OJIOMBOE@bool?5?$CI?$CK?$CJ?$CIlochist_entry_t?5?$CK?0loch@ 00000001800171e0     xref.obj
 0002:00002238       ??_C@_0CC@HPECDOJE@_p_f_p_q_const__char_p_void__vo@ 0000000180017238     xref.obj
 0002:00002260       ??_C@_0DA@LKJNDOAC@void?5?$CI?$CK?$CJ?$CIchar?5const?5?$CK?0void?5?$CK?$CJ?$HMs@ 0000000180017260     xref.obj
 0002:00002290       ??_C@_0GC@HKCHLFJ@_p_f_p_q_const__char_r_q_const_@ 0000000180017290     xref.obj
 0002:00002300       ??_C@_0GE@CDAMLIPA@h2ti_type_cb?5?$CK?$HMint?5?$CI?$CK?$CJ?$CIchar?5con@ 0000000180017300     xref.obj
 0002:00002368       ??_C@_0CB@PLKCNJF@_p_f_p_q_const__char_v_______in@ 0000000180017368     xref.obj
 0002:00002390       ??_C@_0CG@EHKOJEHN@int?5?$CI?$CK?$CJ?$CIchar?5const?5?$CK?0?4?4?4?$CJ?$HMprint@ 0000000180017390     xref.obj
 0002:000023b8       ??_C@_0CB@PPFKEDBB@_p_f_p_void_int_va_list__ssize_@ 00000001800173b8     xref.obj
 0002:000023e0       ??_C@_0CM@ODIKDJIA@ssize_t?5?$CI?$CK?$CJ?$CIvoid?5?$CK?0int?0va_list?$CJ@ 00000001800173e0     xref.obj
 0002:00002410       ??_C@_0CJ@KNMLBMOG@_p_f_r_q_const__insn_t_p_int_p_@ 0000000180017410     xref.obj
 0002:00002440       ??_C@_0DI@CGFAFNOI@bool?5?$CI?$CK?$CJ?$CIinsn_t?5const?5?$CG?0int?5?$CK?0i@ 0000000180017440     xref.obj
 0002:00002480       ??_C@_0FA@JJBGCIIH@_p_f_r_q_const__insn_t_r_q_cons@ 0000000180017480     xref.obj
 0002:000024d0       ??_C@_0FE@IBKJNBMI@bool?5?$CI?$CK?$CJ?$CIinsn_t?5const?5?$CG?0op_t?5co@ 00000001800174d0     xref.obj
 0002:00002528       ??_C@_0BI@PGCOIKGG@_p_f_unsigned_int__bool@ 0000000180017528     xref.obj
 0002:00002540       ??_C@_0DN@OGOBIPP@bool?5?$CI?$CK?$CJ?$CIunsigned?5int?$CJ?$HMhas_dela@ 0000000180017540     xref.obj
 0002:00002580       ??_C@_0DL@FFEHDPON@_p_f_unsigned_int_p_q_const__ch@ 0000000180017580     xref.obj
 0002:000025c0       ??_C@_0EK@MACPDLHN@int?5?$CI?$CK?$CJ?$CIunsigned?5int?0char?5const@ 00000001800175c0     xref.obj
 0002:00002610       ??_C@_0BP@HNIFGGKH@_p_f_unsigned_int_p_void__bool@ 0000000180017610     xref.obj
 0002:00002630       ??_C@_0CI@PMEGIBIK@testf_t?5?$CK?$HMbool?5?$CI?$CK?$CJ?$CIunsigned?5int@ 0000000180017630     xref.obj
 0002:00002658       ??_C@_0DB@CEAPILAH@_p_f_unsigned_int_r_q_const__ti@ 0000000180017658     xref.obj
 0002:00002690       ??_C@_0EH@MLDNCCKC@local_tinfo_predicate_t?5?$CK?$HMint?5?$CI@ 0000000180017690     xref.obj
 0002:000026d8       ??_C@_0CN@BPIIPJKN@_p_f_unsigned_int_unsigned_int_@ 00000001800176d8     xref.obj
 0002:00002708       ??_C@_0DO@CKIBBIPB@unsigned?5int?5?$CI?$CK?$CJ?$CIunsigned?5int?0u@ 0000000180017708     xref.obj
 0002:00002748       ??_C@_09LIGEMJOA@_p_func_t@ 0000000180017748     xref.obj
 0002:00002758       ??_C@_08IOOOCDNO@func_t?5?$CK@ 0000000180017758     xref.obj
 0002:00002764       ??_C@_06EJFLAOFF@_p_int@   0000000180017764     xref.obj
 0002:00002770       ??_C@_0IG@FDKJDHEK@adiff_t?5?$CK?$HMint?5?$CK?$HMint32?5?$CK?$HMsval_t?5@ 0000000180017770     xref.obj
 0002:000027f8       ??_C@_0M@CFMLOKJJ@_p_iterator@ 00000001800177f8     xref.obj
 0002:00002808       ??_C@_0L@IIMCJLIP@iterator?5?$CK@ 0000000180017808     xref.obj
 0002:00002818       ??_C@_0O@HDLJBJJF@_p_location_t@ 0000000180017818     xref.obj
 0002:00002828       ??_C@_0N@ONMECIKA@location_t?5?$CK@ 0000000180017828     xref.obj
 0002:00002838       ??_C@_0N@HIKGEFDH@_p_long_long@ 0000000180017838     xref.obj
 0002:00002848       ??_C@_0BP@FECEFBLL@int64?5?$CK?$HMlonglong?5?$CK?$HMlong?5long?5?$CK@ 0000000180017848     xref.obj
 0002:00002868       ??_C@_0CJ@KBPLCHCN@_p_qvectorT__qstringT_unsigned_@ 0000000180017868     xref.obj
 0002:00002898       ??_C@_0DF@GOALPBDM@qvector?$DM?5_qstring?$DM?5unsigned?5sho@ 0000000180017898     xref.obj
 0002:000028d0       ??_C@_0BH@EHIHPDFP@_p_qvectorT_argloc_t_t@ 00000001800178d0     xref.obj
 0002:000028e8       ??_C@_0CC@PMMGEEHP@qvector?$DM?5argloc_t?5?$DO?5?$CK?$HMarglocs_t@ 00000001800178e8     xref.obj
 0002:00002910       ??_C@_0BD@IFPOLGLB@_p_qvectorT_bool_t@ 0000000180017910     xref.obj
 0002:00002928       ??_C@_0BO@JEOEHDBE@boolvec_t?5?$CK?$HMqvector?$DM?5bool?5?$DO?5?$CK@ 0000000180017928     xref.obj
 0002:00002948       ??_C@_0BO@BMBALGLA@_p_qvectorT_channel_redir_t_t@ 0000000180017948     xref.obj
 0002:00002968       ??_C@_0DA@DFOFPPPA@qvector?$DM?5channel_redir_t?5?$DO?5?$CK?$HMch@ 0000000180017968     xref.obj
 0002:00002998       ??_C@_0CA@KLOIFAIM@_p_qvectorT_compiled_binpat_t_t@ 0000000180017998     xref.obj
 0002:000029b8       ??_C@_0DH@JJMOBCIB@compiled_binpat_vec_t?5?$CK?$HMqvector@ 00000001800179b8     xref.obj
 0002:000029f0       ??_C@_0BI@HPPPANA@_p_qvectorT_funcarg_t_t@ 00000001800179f0     xref.obj
 0002:00002a08       ??_C@_0CG@BKJABKPP@funcargvec_t?5?$CK?$HMqvector?$DM?5funcarg@ 0000000180017a08     xref.obj
 0002:00002a30       ??_C@_0BC@EMAMHDDK@_p_qvectorT_int_t@ 0000000180017a30     xref.obj
 0002:00002a50       ??_C@_0HG@NALNKPMI@svalvec_t?5?$CK?$HMintvec_t?5?$CK?$HMqvector?$DM@ 0000000180017a50     xref.obj
 0002:00002ac8       ??_C@_0BN@EANNCGDG@_p_qvectorT_qvectorT_int_t_t@ 0000000180017ac8     xref.obj
 0002:00002af0       ??_C@_0EH@CJPILNDP@qvector?$DM?5qvector?$DM?5int?5?$DO?5?$DO?5?$CK?$HMqve@ 0000000180017af0     xref.obj
 0002:00002b38       ??_C@_0BG@NGNJJEPD@_p_qvectorT_range_t_t@ 0000000180017b38     xref.obj
 0002:00002b50       ??_C@_0CH@CMPFLCHN@rangevec_base_t?5?$CK?$HMqvector?$DM?5rang@ 0000000180017b50     xref.obj
 0002:00002b78       ??_C@_0CB@DLEFICAI@_p_qvectorT_rangeset_t_const_p_@ 0000000180017b78     xref.obj
 0002:00002ba0       ??_C@_0DF@CPGECBJE@rangeset_crefvec_t?5?$CK?$HMqvector?$DM?5r@ 0000000180017ba0     xref.obj
 0002:00002bd8       ??_C@_0BJ@CBEEABAG@_p_qvectorT_rangeset_t_t@ 0000000180017bd8     xref.obj
 0002:00002bf8       ??_C@_0CN@NEPIOIFG@qvector?$DM?5rangeset_t?5?$DO?5?$CK?$HMarray_o@ 0000000180017bf8     xref.obj
 0002:00002c28       ??_C@_0BN@HCIAELAH@_p_qvectorT_refinfo_desc_t_t@ 0000000180017c28     xref.obj
 0002:00002c48       ??_C@_0DB@OEPGJFJL@refinfo_desc_vec_t?5?$CK?$HMqvector?$DM?5r@ 0000000180017c48     xref.obj
 0002:00002c80       ??_C@_0BK@JBDFAIAF@_p_qvectorT_simd_info_t_t@ 0000000180017c80     xref.obj
 0002:00002ca0       ??_C@_0CL@IAEHADMA@simd_info_vec_t?5?$CK?$HMqvector?$DM?5simd@ 0000000180017ca0     xref.obj
 0002:00002cd0       ??_C@_0BL@JOHIOMBL@_p_qvectorT_simpleline_t_t@ 0000000180017cd0     xref.obj
 0002:00002cf0       ??_C@_0CF@LMLHENLN@strvec_t?5?$CK?$HMqvector?$DM?5simpleline_@ 0000000180017cf0     xref.obj
 0002:00002d18       ??_C@_0BF@JMFCGENF@_p_qvectorT_size_t_t@ 0000000180017d18     xref.obj
 0002:00002d30       ??_C@_0CA@PKGFIBKP@sizevec_t?5?$CK?$HMqvector?$DM?5size_t?5?$DO?5?$CK@ 0000000180017d30     xref.obj
 0002:00002d50       ??_C@_0BG@GHPDGOHO@_p_qvectorT_tinfo_t_t@ 0000000180017d50     xref.obj
 0002:00002d68       ??_C@_0CC@CEHAEEKI@tinfovec_t?5?$CK?$HMqvector?$DM?5tinfo_t?5?$DO@ 0000000180017d68     xref.obj
 0002:00002d90       ??_C@_0BK@KGMCEJE@_p_qvectorT_type_attr_t_t@ 0000000180017d90     xref.obj
 0002:00002db0       ??_C@_0CI@PENEDOEG@type_attrs_t?5?$CK?$HMqvector?$DM?5type_at@ 0000000180017db0     xref.obj
 0002:00002dd8       ??_C@_0BL@MFAEBBAF@_p_qvectorT_udt_member_t_t@ 0000000180017dd8     xref.obj
 0002:00002df8       ??_C@_0CL@HFANAPIM@udtmembervec_t?5?$CK?$HMqvector?$DM?5udt_m@ 0000000180017df8     xref.obj
 0002:00002e28       ??_C@_0BM@DFOCNGNJ@_p_qvectorT_unsigned_char_t@ 0000000180017e28     xref.obj
 0002:00002e48       ??_C@_0CH@MCODNJGI@qvector?$DM?5unsigned?5char?5?$DO?5?$CK?$HMcomp@ 0000000180017e48     xref.obj
 0002:00002e70       ??_C@_0M@BEMIELHM@_p_relobj_t@ 0000000180017e70     xref.obj
 0002:00002e80       ??_C@_0N@OAHCDFLH@_p_bytevec_t@ 0000000180017e80     xref.obj
 0002:00002e90       ??_C@_0BA@KOPDLMDG@_p_reloc_info_t@ 0000000180017e90     xref.obj
 0002:00002ea0       ??_C@_0BL@POPMPLM@_p_qvectorT_unsigned_int_t@ 0000000180017ea0     xref.obj
 0002:00002ec0       ??_C@_0DL@HDEADPMO@eavec_t?5?$CK?$HMordvec_t?5?$CK?$HMuvalvec_t?5@ 0000000180017ec0     xref.obj
 0002:00002f00       ??_C@_08JGEHMJEC@_p_short@ 0000000180017f00     xref.obj
 0002:00002f10       ??_C@_0BA@BBDCPKKI@int16?5?$CK?$HMshort?5?$CK@ 0000000180017f10     xref.obj
 0002:00002f20       ??_C@_0P@IHEJCACJ@_p_signed_char@ 0000000180017f20     xref.obj
 0002:00002f30       ??_C@_0BG@CGJIOBCI@signed?5char?5?$CK?$HMsint8?5?$CK@ 0000000180017f30     xref.obj
 0002:00002f48       ??_C@_0BB@DBECGEHM@_p_switch_info_t@ 0000000180017f48     xref.obj
 0002:00002f60       ??_C@_0BA@PAOILAPD@switch_info_t?5?$CK@ 0000000180017f60     xref.obj
 0002:00002f70       ??_C@_0BB@JEMKPEPB@_p_unsigned_char@ 0000000180017f70     xref.obj
 0002:00002f90       ??_C@_0HI@NBHOBBOJ@uchar?5?$CK?$HMunsigned?5char?5?$CK?$HMcm_t?5?$CK?$HM@ 0000000180017f90     xref.obj
 0002:00003008       ??_C@_0BA@EMEBBPFL@_p_unsigned_int@ 0000000180018008     xref.obj
 0002:00003020       ??_C@_0JE@GCFOGLMK@bgcolor_t?5?$CK?$HMenum_t?5?$CK?$HMtid_t?5?$CK?$HMbm@ 0000000180018020     xref.obj
 0002:000030b8       ??_C@_0BG@CGEDOPGF@_p_unsigned_long_long@ 00000001800180b8     xref.obj
 0002:000030d0       ??_C@_0CK@FCLCDGJM@uint64?5?$CK?$HMulonglong?5?$CK?$HMunsigned?5l@ 00000001800180d0     xref.obj
 0002:00003100       ??_C@_0BC@GCHEMBCE@_p_unsigned_short@ 0000000180018100     xref.obj
 0002:00003118       ??_C@_0CP@HNCAPCKA@uint16?5?$CK?$HMunsigned?5short?5?$CK?$HMushor@ 0000000180018118     xref.obj
 0002:00003148       ??_C@_0O@KPNNNNNL@_p_value_type@ 0000000180018148     xref.obj
 0002:00003158       ??_C@_0N@BPDHJAOG@value_type?5?$CK@ 0000000180018158     xref.obj
 0002:00003168       ??_C@_0N@IDLBJLHA@_p_xrefblk_t@ 0000000180018168     xref.obj
 0002:00003178       ??_C@_0M@KNEGIJGF@xrefblk_t?5?$CK@ 0000000180018178     xref.obj
 0002:00003184       ??_C@_03BHDOPPEK@own@      0000000180018184     xref.obj
 0002:00003188       ??_C@_06EFGGFDFD@disown@   0000000180018188     xref.obj
 0002:00003190       ??_C@_0CC@CFIMIIPD@releases?5ownership?5of?5the?5point@ 0000000180018190     xref.obj
 0002:000031b8       ??_C@_07MEFPPMEF@acquire@  00000001800181b8     xref.obj
 0002:000031c0       ??_C@_0CC@BAIBAPCI@acquires?5ownership?5of?5the?5point@ 00000001800181c0     xref.obj
 0002:000031e8       ??_C@_0CG@GKPKGEFE@returns?1sets?5ownership?5of?5the?5p@ 00000001800181e8     xref.obj
 0002:00003210       ??_C@_06PCICMFGG@append@   0000000180018210     xref.obj
 0002:00003218       ??_C@_0BO@NCOOMDHM@appends?5another?5?8this?8?5object@ 0000000180018218     xref.obj
 0002:00003238       ??_C@_04CJGEDOF@next@      0000000180018238     xref.obj
 0002:00003240       ??_C@_0BP@IMIAEPNG@returns?5the?5next?5?8this?8?5object@ 0000000180018240     xref.obj
 0002:00003260       ??_C@_08HJPCHLLJ@__repr__@ 0000000180018260     xref.obj
 0002:00003270       ??_C@_0BO@PNCCHPAD@returns?5object?5representation@ 0000000180018270     xref.obj
 0002:00003290       ??_C@_07HDHHMDOH@_p_char@  0000000180018290     xref.obj
 0002:00003298       ??_C@_0BE@JAIHPMMP@create_switch_xrefs@ 0000000180018298     xref.obj
 0002:000032b0       ??_C@_0BO@EGEOBPEH@cases_and_targets_t_cases_set@ 00000001800182b0     xref.obj
 0002:000032d0       ??_C@_0CA@IPODKNNP@cases_and_targets_t_targets_set@ 00000001800182d0     xref.obj
 0002:000032f0       ??_C@_0BI@IDGLPBDE@new_cases_and_targets_t@ 00000001800182f0     xref.obj
 0002:00003308       ??_C@_0BC@PEEJNCKJ@calc_switch_cases@ 0000000180018308     xref.obj
 0002:00003320       ??_C@_0BE@EMNNNJFO@create_switch_table@ 0000000180018320     xref.obj
 0002:00003338       ??_C@_08OGHBKCED@add_cref@ 0000000180018338     xref.obj
 0002:00003348       ??_C@_08FDKDKJPF@del_cref@ 0000000180018348     xref.obj
 0002:00003358       ??_C@_08FEFBHOFD@add_dref@ 0000000180018358     xref.obj
 0002:00003368       ??_C@_08OBIDHFOF@del_dref@ 0000000180018368     xref.obj
 0002:00003378       ??_C@_0BC@NDCDGBKJ@xrefblk_t_frm_set@ 0000000180018378     xref.obj
 0002:00003390       ??_C@_0BB@JHIDHMFC@xrefblk_t_to_set@ 0000000180018390     xref.obj
 0002:000033a8       ??_C@_0BF@FBLAFMKB@xrefblk_t_iscode_set@ 00000001800183a8     xref.obj
 0002:000033c0       ??_C@_0BD@PEJJCILK@xrefblk_t_type_set@ 00000001800183c0     xref.obj
 0002:000033d8       ??_C@_0BD@FJBHKBHL@xrefblk_t_user_set@ 00000001800183d8     xref.obj
 0002:000033f0       ??_C@_0BF@CCEOOCEJ@xrefblk_t_first_from@ 00000001800183f0     xref.obj
 0002:00003408       ??_C@_0BD@KACDIPIH@xrefblk_t_first_to@ 0000000180018408     xref.obj
 0002:00003420       ??_C@_0BE@OGJKMBJO@xrefblk_t_next_from@ 0000000180018420     xref.obj
 0002:00003438       ??_C@_0BC@BJIDEHDK@xrefblk_t_next_to@ 0000000180018438     xref.obj
 0002:00003450       ??_C@_0O@FDIGBMBK@new_xrefblk_t@ 0000000180018450     xref.obj
 0002:00003460       ??_C@_0BD@BCMFBJJG@get_next_dref_from@ 0000000180018460     xref.obj
 0002:00003478       ??_C@_0BB@MKGCLLGA@get_next_dref_to@ 0000000180018478     xref.obj
 0002:00003490       ??_C@_0BD@PABJACOP@get_next_cref_from@ 0000000180018490     xref.obj
 0002:000034a8       ??_C@_0BB@MAKHLCHJ@get_next_cref_to@ 00000001800184a8     xref.obj
 0002:000034c0       ??_C@_0BE@DFBKEBEE@get_next_fcref_from@ 00000001800184c0     xref.obj
 0002:000034d8       ??_C@_0BC@NOGGADAP@get_next_fcref_to@ 00000001800184d8     xref.obj
 0002:000034f0       ??_C@_0BC@FCPEDOIH@has_external_refs@ 00000001800184f0     xref.obj
 0002:00003508       ??_C@_0BE@HPOOPAKO@delete_switch_table@ 0000000180018508     xref.obj
 0002:00003520       ??_C@_0O@MCFKDAJD@new_casevec_t@ 0000000180018520     xref.obj
 0002:00003530       ??_C@_0BE@JNJFKM@casevec_t_push_back@ 0000000180018530     xref.obj
 0002:00003548       ??_C@_0N@GBAFGIII@casevec_t_at@ 0000000180018548     xref.obj
 0002:00003558       ??_C@_0BB@OOHKGFI@casevec_t_resize@ 0000000180018558     xref.obj
 0002:00003570       ??_C@_0P@DJONFDHM@casevec_t_grow@ 0000000180018570     xref.obj
 0002:00004060       ??_C@_0BO@CMHFAAKD@?$CFS?6Additional?5information?3?6?$CFs@ 0000000180019060     xref.obj
 0002:0000407e       ??_C@_00CNPNBAHC@@         000000018001907e     xref.obj
 0002:00004080       ??_C@_09HJOCAFJB@at?5least?5@ 0000000180019080     xref.obj
 0002:00004090       ??_C@_0CF@KFFOGCID@?$CFs?5expected?5?$CFs?$CFd?5arguments?0?5got@ 0000000180019090     xref.obj
 0002:000040b8       ??_C@_0CL@NPJGKHAI@UnpackTuple?$CI?$CJ?5argument?5list?5is?5@ 00000001800190b8     xref.obj
 0002:000040e8       ??_C@_0CD@DMIOPJCG@?$CFs?5expected?5?$CFs?$CFd?5arguments?0?5got@ 00000001800190e8     xref.obj
 0002:00004110       ??_C@_08KFLHMPAE@at?5most?5@ 0000000180019110     xref.obj
 0002:00004120       ??_C@_07MEBHOIG@__new__@   0000000180019120     xref.obj
 0002:00004128       ??_C@_0BB@LPCDDCDP@__swig_destroy__@ 0000000180019128     xref.obj
 0002:00004140       ??_C@_07CIFAGBMG@unknown@  0000000180019140     xref.obj
 0002:00004148       ??_C@_0CB@HIOLGNHE@?$DMSwig?5Object?5of?5type?5?8?$CFs?8?5at?5?$CFp@ 0000000180019148     xref.obj
 0002:00004170       ??_C@_08BHKDPDAA@__name__@ 0000000180019170     xref.obj
 0002:00004180       ??_C@_0N@OEDBPMFH@SwigPyObject@ 0000000180019180     xref.obj
 0002:00004190       ??_C@_0EH@KGGHIIII@swig?1python?5detected?5a?5memory?5l@ 0000000180019190     xref.obj
 0002:000041d8       ??_C@_0CF@NBDOMJMA@Attempt?5to?5append?5a?5non?5SwigPyO@ 00000001800191d8     xref.obj
 0002:00004200       ??_C@_0BG@BEMBDPAG@?$DMSwig?5Packed?5at?5?$CFs?$CFs?$DO@ 0000000180019200     xref.obj
 0002:00004218       ??_C@_0BB@KEMDDLH@?$DMSwig?5Packed?5?$CFs?$DO@ 0000000180019218     xref.obj
 0002:0000422c       ??_C@_04HDOCAJNK@?$CFs?$CFs@ 000000018001922c     xref.obj
 0002:00004238       ??_C@_0N@FALDBJHP@SwigPyPacked@ 0000000180019238     xref.obj
 0002:00004248       ??_C@_04IIAJELJL@this@     0000000180019248     xref.obj
 0002:00004250       ??_C@_0L@GCGAIEDO@swig_ptr?3?5@ 0000000180019250     xref.obj
 0002:00004260       ??_C@_08IBFKALI@__dict__@  0000000180019260     xref.obj
 0002:00004270       ??_C@_08DOBMGDEN@swiginit@ 0000000180019270     xref.obj
 0002:00004280       ??_C@_0CO@FOLKHJOC@swig_runtime_data4?4type_pointer@ 0000000180019280     xref.obj
 0002:000042b0       ??_C@_0BD@BFIMCAOH@swig_runtime_data4@ 00000001800192b0     xref.obj
 0002:000042c8       ??_C@_0BL@LFDLKGPB@type_pointer_capsuleidaapi@ 00000001800192c8     xref.obj
 0002:000042f0       ??_7exception@std@@6B@     00000001800192f0     xref.obj
 0002:00004300       ??_C@_0BC@EOODALEL@Unknown?5exception@ 0000000180019300     xref.obj
 0002:00004320       ??_7logic_error@std@@6B@   0000000180019320     xref.obj
 0002:00004338       ??_7out_of_range@std@@6B@  0000000180019338     xref.obj
 0002:00004348       ??_C@_0BK@NPFFDHAP@Out?5of?5memory?5?$CIbad_alloc?$CJ@ 0000000180019348     xref.obj
 0002:00004370       ??_C@_0BCP@OKJACFO@Internal?5error?5?$CFd?5occurred?5when@ 0000000180019370     xref.obj
 0002:000044a0       ??_C@_0DB@OCJMLGAO@Function?5can?5be?5called?5from?5the@ 00000001800194a0     xref.obj
 0002:000044d8       ??_C@_0BA@GMJLDMKP@surrogateescape@ 00000001800194d8     xref.obj
 0002:000044e8       ??_C@_0BF@NPFMAGNK@out?5of?5bounds?5access@ 00000001800194e8     xref.obj
 0002:00004500       ??_C@_0DL@JMAOAHHA@in?5method?5?8create_switch_xrefs?8@ 0000000180019500     xref.obj
 0002:00004540       ??_C@_0EM@DKJBNFAF@in?5method?5?8create_switch_xrefs?8@ 0000000180019540     xref.obj
 0002:00004590       ??_C@_0GD@DOHFOMLP@invalid?5null?5reference?5in?5metho@ 0000000180019590     xref.obj
 0002:00004600       ??_C@_0FG@CMNJEDLE@in?5method?5?8cases_and_targets_t_@ 0000000180019600     xref.obj
 0002:00004660       ??_C@_0EM@GGKFBHKH@in?5method?5?8cases_and_targets_t_@ 0000000180019660     xref.obj
 0002:000046b0       ??_C@_0FG@OEJFCJEG@in?5method?5?8cases_and_targets_t_@ 00000001800196b0     xref.obj
 0002:00004710       ??_C@_0FI@BJEALPCI@in?5method?5?8cases_and_targets_t_@ 0000000180019710     xref.obj
 0002:00004770       ??_C@_0EK@BGOJOINJ@in?5method?5?8cases_and_targets_t_@ 0000000180019770     xref.obj
 0002:000047c0       ??_C@_0FI@NBAMNFNK@in?5method?5?8cases_and_targets_t_@ 00000001800197c0     xref.obj
 0002:00004820       ??_C@_0FD@JAOBANGA@in?5method?5?8delete_cases_and_tar@ 0000000180019820     xref.obj
 0002:00004878       ??_C@_0N@JBELKAOG@swigregister@ 0000000180019878     xref.obj
 0002:00004888       ??_C@_0DJ@EAKKEOMC@in?5method?5?8calc_switch_cases?8?0?5@ 0000000180019888     xref.obj
 0002:000048d0       ??_C@_0EK@FMGFMDJN@in?5method?5?8calc_switch_cases?8?0?5@ 00000001800198d0     xref.obj
 0002:00004920       ??_C@_0GB@PGMMJIDL@invalid?5null?5reference?5in?5metho@ 0000000180019920     xref.obj
 0002:00004988       ??_C@_0DL@FIHDINHD@in?5method?5?8create_switch_table?8@ 0000000180019988     xref.obj
 0002:000049d0       ??_C@_0EM@OAHBOGPB@in?5method?5?8create_switch_table?8@ 00000001800199d0     xref.obj
 0002:00004a20       ??_C@_0GD@OEJFNPEL@invalid?5null?5reference?5in?5metho@ 0000000180019a20     xref.obj
 0002:00004a88       ??_C@_0DA@OPFJFFBF@in?5method?5?8xrefchar?8?0?5argument?5@ 0000000180019a88     xref.obj
 0002:00004ab8       ??_C@_0DA@DAFPPDAB@in?5method?5?8add_cref?8?0?5argument?5@ 0000000180019ab8     xref.obj
 0002:00004ae8       ??_C@_0DA@GDMFKIIF@in?5method?5?8add_cref?8?0?5argument?5@ 0000000180019ae8     xref.obj
 0002:00004b18       ??_C@_0DC@EBDFDBCO@in?5method?5?8add_cref?8?0?5argument?5@ 0000000180019b18     xref.obj
 0002:00004b50       ??_C@_0DA@IBMJMHDB@in?5method?5?8del_cref?8?0?5argument?5@ 0000000180019b50     xref.obj
 0002:00004b80       ??_C@_0DA@NCFDJMLF@in?5method?5?8del_cref?8?0?5argument?5@ 0000000180019b80     xref.obj
 0002:00004bb0       ??_C@_0DA@BFNONDEG@in?5method?5?8del_cref?8?0?5argument?5@ 0000000180019bb0     xref.obj
 0002:00004be0       ??_C@_0DA@LAICABNI@in?5method?5?8add_dref?8?0?5argument?5@ 0000000180019be0     xref.obj
 0002:00004c10       ??_C@_0DA@ODBIFKFM@in?5method?5?8add_dref?8?0?5argument?5@ 0000000180019c10     xref.obj
 0002:00004c40       ??_C@_0DC@EILJFFIM@in?5method?5?8add_dref?8?0?5argument?5@ 0000000180019c40     xref.obj
 0002:00004c78       ??_C@_0DA@BBEDFOI@in?5method?5?8del_dref?8?0?5argument?5@ 0000000180019c78     xref.obj
 0002:00004ca8       ??_C@_0DA@FCIOGOGM@in?5method?5?8del_dref?8?0?5argument?5@ 0000000180019ca8     xref.obj
 0002:00004ce0       ??_C@_0EA@EFKEDGED@in?5method?5?8xrefblk_t_frm_set?8?0?5@ 0000000180019ce0     xref.obj
 0002:00004d20       ??_C@_0DJ@KJBNJGCE@in?5method?5?8xrefblk_t_frm_set?8?0?5@ 0000000180019d20     xref.obj
 0002:00004d60       ??_C@_0EA@JHEHLBLA@in?5method?5?8xrefblk_t_frm_get?8?0?5@ 0000000180019d60     xref.obj
 0002:00004da0       ??_C@_0DP@LNKJHEGN@in?5method?5?8xrefblk_t_to_set?8?0?5a@ 0000000180019da0     xref.obj
 0002:00004de0       ??_C@_0DI@GOJHDOKN@in?5method?5?8xrefblk_t_to_set?8?0?5a@ 0000000180019de0     xref.obj
 0002:00004e18       ??_C@_0DP@GPEKPDJO@in?5method?5?8xrefblk_t_to_get?8?0?5a@ 0000000180019e18     xref.obj
 0002:00004e60       ??_C@_0ED@EGOEFGDE@in?5method?5?8xrefblk_t_iscode_set@ 0000000180019e60     xref.obj
 0002:00004ea8       ??_C@_0DN@CKDPHDMO@in?5method?5?8xrefblk_t_iscode_set@ 0000000180019ea8     xref.obj
 0002:00004ef0       ??_C@_0ED@JEAHNBMH@in?5method?5?8xrefblk_t_iscode_get@ 0000000180019ef0     xref.obj
 0002:00004f40       ??_C@_0EB@JHLEGHDD@in?5method?5?8xrefblk_t_type_set?8?0@ 0000000180019f40     xref.obj
 0002:00004f88       ??_C@_0DL@GBHJNPOE@in?5method?5?8xrefblk_t_type_set?8?0@ 0000000180019f88     xref.obj
 0002:00004fd0       ??_C@_0EB@EFFHOAMA@in?5method?5?8xrefblk_t_type_get?8?0@ 0000000180019fd0     xref.obj
 0002:00005020       ??_C@_0EB@JCMJDKPL@in?5method?5?8xrefblk_t_user_set?8?0@ 000000018001a020     xref.obj
 0002:00005068       ??_C@_0DL@OKBEGAKJ@in?5method?5?8xrefblk_t_user_set?8?0@ 000000018001a068     xref.obj
 0002:000050b0       ??_C@_0EB@EACKLNAI@in?5method?5?8xrefblk_t_user_get?8?0@ 000000018001a0b0     xref.obj
 0002:00005100       ??_C@_0ED@KNCJHD@in?5method?5?8xrefblk_t_first_from@ 000000018001a100     xref.obj
 0002:00005148       ??_C@_0DM@NOOOCFA@in?5method?5?8xrefblk_t_first_from@ 000000018001a148     xref.obj
 0002:00005188       ??_C@_0DL@LAPHBALB@in?5method?5?8xrefblk_t_first_from@ 000000018001a188     xref.obj
 0002:000051d0       ??_C@_0EC@PMLGMIAI@in?5method?5?8xrefblk_t_next_from?8@ 000000018001a1d0     xref.obj
 0002:00005220       ??_C@_0EB@FJKOGOAG@in?5method?5?8xrefblk_t_first_to?8?0@ 000000018001a220     xref.obj
 0002:00005268       ??_C@_0DK@IGGALLBL@in?5method?5?8xrefblk_t_first_to?8?0@ 000000018001a268     xref.obj
 0002:000052a8       ??_C@_0DJ@IABGLBOL@in?5method?5?8xrefblk_t_first_to?8?0@ 000000018001a2a8     xref.obj
 0002:000052f0       ??_C@_0EA@FHNIEHCF@in?5method?5?8xrefblk_t_next_to?8?0?5@ 000000018001a2f0     xref.obj
 0002:00005330       ??_C@_0DL@JNOOLEGI@in?5method?5?8xrefblk_t_next_from?8@ 000000018001a330     xref.obj
 0002:00005370       ??_C@_0DL@BKEIHPCL@in?5method?5?8xrefblk_t_next_from?8@ 000000018001a370     xref.obj
 0002:000053b0       ??_C@_0DK@PCEFEBML@in?5method?5?8xrefblk_t_next_from?8@ 000000018001a3b0     xref.obj
 0002:000053f0       ??_C@_0LG@DPENIMJ@Wrong?5number?5or?5type?5of?5argumen@ 000000018001a3f0     xref.obj
 0002:000054a8       ??_C@_0DJ@BNKIKCCI@in?5method?5?8xrefblk_t_next_to?8?0?5@ 000000018001a4a8     xref.obj
 0002:000054e8       ??_C@_0DJ@JKAOGJGL@in?5method?5?8xrefblk_t_next_to?8?0?5@ 000000018001a4e8     xref.obj
 0002:00005528       ??_C@_0DI@NBDEMKFO@in?5method?5?8xrefblk_t_next_to?8?0?5@ 000000018001a528     xref.obj
 0002:00005560       ??_C@_0LA@ELMFCEJA@Wrong?5number?5or?5type?5of?5argumen@ 000000018001a560     xref.obj
 0002:00005610       ??_C@_0DP@FBNHANND@in?5method?5?8delete_xrefblk_t?8?0?5a@ 000000018001a610     xref.obj
 0002:00005650       ??_C@_0DL@NBKPEBKC@in?5method?5?8get_first_dref_from?8@ 000000018001a650     xref.obj
 0002:00005690       ??_C@_0DK@EAGKNGND@in?5method?5?8get_next_dref_from?8?0@ 000000018001a690     xref.obj
 0002:000056d0       ??_C@_0DK@BDPAINFH@in?5method?5?8get_next_dref_from?8?0@ 000000018001a6d0     xref.obj
 0002:00005710       ??_C@_0DJ@LIGDCMON@in?5method?5?8get_first_dref_to?8?0?5@ 000000018001a710     xref.obj
 0002:00005750       ??_C@_0DI@JCBGBMEM@in?5method?5?8get_next_dref_to?8?0?5a@ 000000018001a750     xref.obj
 0002:00005788       ??_C@_0DI@MBIMEHMI@in?5method?5?8get_next_dref_to?8?0?5a@ 000000018001a788     xref.obj
 0002:000057c0       ??_C@_0DL@MHPHLMIO@in?5method?5?8get_first_cref_from?8@ 000000018001a7c0     xref.obj
 0002:00005800       ??_C@_0DK@FGDCCLPP@in?5method?5?8get_next_cref_from?8?0@ 000000018001a800     xref.obj
 0002:00005840       ??_C@_0DK@FKIHAHL@in?5method?5?8get_next_cref_from?8?0@ 000000018001a840     xref.obj
 0002:00005880       ??_C@_0DJ@OENDAPIE@in?5method?5?8get_first_cref_to?8?0?5@ 000000018001a880     xref.obj
 0002:000058c0       ??_C@_0DI@MOKGDPCF@in?5method?5?8get_next_cref_to?8?0?5a@ 000000018001a8c0     xref.obj
 0002:000058f8       ??_C@_0DI@JNDMGEKB@in?5method?5?8get_next_cref_to?8?0?5a@ 000000018001a8f8     xref.obj
 0002:00005930       ??_C@_0DM@PMPDMCAI@in?5method?5?8get_first_fcref_from@ 000000018001a930     xref.obj
 0002:00005970       ??_C@_0DL@NLGAEGDF@in?5method?5?8get_next_fcref_from?8@ 000000018001a970     xref.obj
 0002:000059b0       ??_C@_0DL@IIPKBNLB@in?5method?5?8get_next_fcref_from?8@ 000000018001a9b0     xref.obj
 0002:000059f0       ??_C@_0DK@KLNNNJF@in?5method?5?8get_first_fcref_to?8?0@ 000000018001a9f0     xref.obj
 0002:00005a30       ??_C@_0DJ@KLEGDLNL@in?5method?5?8get_next_fcref_to?8?0?5@ 000000018001aa30     xref.obj
 0002:00005a70       ??_C@_0DJ@PINMGAFP@in?5method?5?8get_next_fcref_to?8?0?5@ 000000018001aa70     xref.obj
 0002:00005ab0       ??_C@_0DN@OEFDPLDE@in?5method?5?8has_external_refs?8?0?5@ 000000018001aab0     xref.obj
 0002:00005af0       ??_C@_0DJ@JHBOGNKJ@in?5method?5?8has_external_refs?8?0?5@ 000000018001aaf0     xref.obj
 0002:00005b30       ??_C@_0DL@NIPBHEHC@in?5method?5?8delete_switch_table?8@ 000000018001ab30     xref.obj
 0002:00005b70       ??_C@_0EM@FMEFNDEJ@in?5method?5?8delete_switch_table?8@ 000000018001ab70     xref.obj
 0002:00005bc0       ??_C@_0GD@FIKBOKPD@invalid?5null?5reference?5in?5metho@ 000000018001abc0     xref.obj
 0002:00005c30       ??_C@_0FC@HKHKCLFM@in?5method?5?8new_casevec_t?8?0?5argu@ 000000018001ac30     xref.obj
 0002:00005c90       ??_C@_0GJ@DDAOLPAL@invalid?5null?5reference?5in?5metho@ 000000018001ac90     xref.obj
 0002:00005d00       ??_C@_0OG@DNFNHCOB@Wrong?5number?5or?5type?5of?5argumen@ 000000018001ad00     xref.obj
 0002:00005df0       ??_C@_0FC@KOEFIAJG@in?5method?5?8delete_casevec_t?8?0?5a@ 000000018001adf0     xref.obj
 0002:00005e50       ??_C@_0FF@DJOPNNPD@in?5method?5?8casevec_t_push_back?8@ 000000018001ae50     xref.obj
 0002:00005eb0       ??_C@_0EN@BIJLOEKJ@in?5method?5?8casevec_t_push_back?8@ 000000018001aeb0     xref.obj
 0002:00005f00       ??_C@_0GE@DDCLFKAC@invalid?5null?5reference?5in?5metho@ 000000018001af00     xref.obj
 0002:00005f70       ??_C@_0OF@GDGDNHPL@Wrong?5number?5or?5type?5of?5argumen@ 000000018001af70     xref.obj
 0002:00006060       ??_C@_0FE@LEAMIHAD@in?5method?5?8casevec_t_pop_back?8?0@ 000000018001b060     xref.obj
 0002:000060c0       ??_C@_0FG@IKHBBHBC@in?5method?5?8casevec_t_size?8?0?5arg@ 000000018001b0c0     xref.obj
 0002:00006120       ??_C@_0FH@FCIOICAF@in?5method?5?8casevec_t_empty?8?0?5ar@ 000000018001b120     xref.obj
 0002:00006180       ??_C@_0FE@HMDCKLOB@in?5method?5?8casevec_t_at?8?0?5argum@ 000000018001b180     xref.obj
 0002:000061d8       ??_C@_0DG@KMIHDCLM@in?5method?5?8casevec_t_at?8?0?5argum@ 000000018001b1d8     xref.obj
 0002:00006210       ??_C@_0FC@CDJLJGKH@in?5method?5?8casevec_t_qclear?8?0?5a@ 000000018001b210     xref.obj
 0002:00006270       ??_C@_0FB@GFHPFJOC@in?5method?5?8casevec_t_clear?8?0?5ar@ 000000018001b270     xref.obj
 0002:000062d0       ??_C@_0FC@EJKMNLAB@in?5method?5?8casevec_t_resize?8?0?5a@ 000000018001b2d0     xref.obj
 0002:00006328       ??_C@_0DK@HKIAFAJI@in?5method?5?8casevec_t_resize?8?0?5a@ 000000018001b328     xref.obj
 0002:00006370       ??_C@_0EK@KIHNBCFA@in?5method?5?8casevec_t_resize?8?0?5a@ 000000018001b370     xref.obj
 0002:000063c0       ??_C@_0GB@CNEEJPG@invalid?5null?5reference?5in?5metho@ 000000018001b3c0     xref.obj
 0002:00006430       ??_C@_0OJ@PLLKKJPD@Wrong?5number?5or?5type?5of?5argumen@ 000000018001b430     xref.obj
 0002:00006520       ??_C@_0FA@FPLGGFMN@in?5method?5?8casevec_t_grow?8?0?5arg@ 000000018001b520     xref.obj
 0002:00006570       ??_C@_0EI@BJGLPLHG@in?5method?5?8casevec_t_grow?8?0?5arg@ 000000018001b570     xref.obj
 0002:000065c0       ??_C@_0FP@LCJCOBBE@invalid?5null?5reference?5in?5metho@ 000000018001b5c0     xref.obj
 0002:00006620       ??_C@_0FK@NMDOAKCP@in?5method?5?8casevec_t_capacity?8?0@ 000000018001b620     xref.obj
 0002:00006680       ??_C@_0FD@CHLOHEAI@in?5method?5?8casevec_t_reserve?8?0?5@ 000000018001b680     xref.obj
 0002:000066d8       ??_C@_0DL@DGAGLILG@in?5method?5?8casevec_t_reserve?8?0?5@ 000000018001b6d8     xref.obj
 0002:00006720       ??_C@_0FE@EAJCBKAP@in?5method?5?8casevec_t_truncate?8?0@ 000000018001b720     xref.obj
 0002:00006780       ??_C@_0FA@HPGLAGNO@in?5method?5?8casevec_t_swap?8?0?5arg@ 000000018001b780     xref.obj
 0002:000067d0       ??_C@_0EN@MPIOFNBF@in?5method?5?8casevec_t_swap?8?0?5arg@ 000000018001b7d0     xref.obj
 0002:00006820       ??_C@_0GE@OEDOODLO@invalid?5null?5reference?5in?5metho@ 000000018001b820     xref.obj
 0002:00006890       ??_C@_0FD@PDFBLMKE@in?5method?5?8casevec_t_extract?8?0?5@ 000000018001b890     xref.obj
 0002:000068f0       ??_C@_0FC@KNKHDMHI@in?5method?5?8casevec_t_inject?8?0?5a@ 000000018001b8f0     xref.obj
 0002:00006950       ??_C@_0EE@EHBJHDJF@in?5method?5?8casevec_t_inject?8?0?5a@ 000000018001b950     xref.obj
 0002:00006998       ??_C@_0DK@BFMNJEMH@in?5method?5?8casevec_t_inject?8?0?5a@ 000000018001b998     xref.obj
 0002:000069e0       ??_C@_0FI@EELCLGIK@in?5method?5?8casevec_t___eq__?8?0?5a@ 000000018001b9e0     xref.obj
 0002:00006a40       ??_C@_0FF@HGOINJOK@in?5method?5?8casevec_t___eq__?8?0?5a@ 000000018001ba40     xref.obj
 0002:00006aa0       ??_C@_0GM@FNFOBLKN@invalid?5null?5reference?5in?5metho@ 000000018001baa0     xref.obj
 0002:00006b10       ??_C@_0FI@NKBINNN@in?5method?5?8casevec_t___ne__?8?0?5a@ 000000018001bb10     xref.obj
 0002:00006b70       ??_C@_0FF@FKGJBHDF@in?5method?5?8casevec_t___ne__?8?0?5a@ 000000018001bb70     xref.obj
 0002:00006bd0       ??_C@_0GM@HBNPNFHC@invalid?5null?5reference?5in?5metho@ 000000018001bbd0     xref.obj
 0002:00006c40       ??_C@_0FB@PCGGJHEF@in?5method?5?8casevec_t_begin?8?0?5ar@ 000000018001bc40     xref.obj
 0002:00006ca0       ??_C@_0EP@MMGMHMMC@in?5method?5?8casevec_t_end?8?0?5argu@ 000000018001bca0     xref.obj
 0002:00006cf0       ??_C@_0FH@JLHNDAP@in?5method?5?8casevec_t_begin?8?0?5ar@ 000000018001bcf0     xref.obj
 0002:00006d50       ??_C@_0MJ@JNBOCINN@Wrong?5number?5or?5type?5of?5argumen@ 000000018001bd50     xref.obj
 0002:00006e20       ??_C@_0FF@BEEOCJFP@in?5method?5?8casevec_t_end?8?0?5argu@ 000000018001be20     xref.obj
 0002:00006e80       ??_C@_0MD@JJCMFIPI@Wrong?5number?5or?5type?5of?5argumen@ 000000018001be80     xref.obj
 0002:00006f50       ??_C@_0FC@FDGKKILD@in?5method?5?8casevec_t_insert?8?0?5a@ 000000018001bf50     xref.obj
 0002:00006fb0       ??_C@_0FH@GAEPILLB@in?5method?5?8casevec_t_insert?8?0?5a@ 000000018001bfb0     xref.obj
 0002:00007010       ??_C@_0EK@NPPPEOHJ@in?5method?5?8casevec_t_insert?8?0?5a@ 000000018001c010     xref.obj
 0002:00007060       ??_C@_0GB@HFFGBFNP@invalid?5null?5reference?5in?5metho@ 000000018001c060     xref.obj
 0002:000070d0       ??_C@_0FB@GAEPBOL@in?5method?5?8casevec_t_erase?8?0?5ar@ 000000018001c0d0     xref.obj
 0002:00007130       ??_C@_0FG@FLKMAAKI@in?5method?5?8casevec_t_erase?8?0?5ar@ 000000018001c130     xref.obj
 0002:00007190       ??_C@_0FG@GGBNOMHE@in?5method?5?8casevec_t_erase?8?0?5ar@ 000000018001c190     xref.obj
 0002:000071f0       ??_C@_0BCN@BKDNFIMM@Wrong?5number?5or?5type?5of?5argumen@ 000000018001c1f0     xref.obj
 0002:00007320       ??_C@_0FA@JJHLDHEI@in?5method?5?8casevec_t_find?8?0?5arg@ 000000018001c320     xref.obj
 0002:00007370       ??_C@_0EI@PEIDJHNB@in?5method?5?8casevec_t_find?8?0?5arg@ 000000018001c370     xref.obj
 0002:000073c0       ??_C@_0FP@FPHKINLD@invalid?5null?5reference?5in?5metho@ 000000018001c3c0     xref.obj
 0002:00007420       ??_C@_0FG@CDPPPEME@in?5method?5?8casevec_t_find?8?0?5arg@ 000000018001c420     xref.obj
 0002:00007480       ??_C@_0PC@LPJHGGDN@Wrong?5number?5or?5type?5of?5argumen@ 000000018001c480     xref.obj
 0002:00007580       ??_C@_0FF@OGBCAEBI@in?5method?5?8casevec_t_has?8?0?5argu@ 000000018001c580     xref.obj
 0002:000075e0       ??_C@_0EH@GDBJLNBH@in?5method?5?8casevec_t_has?8?0?5argu@ 000000018001c5e0     xref.obj
 0002:00007630       ??_C@_0FO@ELDOIGDI@invalid?5null?5reference?5in?5metho@ 000000018001c630     xref.obj
 0002:00007690       ??_C@_0FG@DLIMONFJ@in?5method?5?8casevec_t_add_unique@ 000000018001c690     xref.obj
 0002:000076f0       ??_C@_0EO@EEMFKPJO@in?5method?5?8casevec_t_add_unique@ 000000018001c6f0     xref.obj
 0002:00007740       ??_C@_0GF@FOKGFEA@invalid?5null?5reference?5in?5metho@ 000000018001c740     xref.obj
 0002:000077b0       ??_C@_0FA@OLCKOLLN@in?5method?5?8casevec_t__del?8?0?5arg@ 000000018001c7b0     xref.obj
 0002:00007800       ??_C@_0EI@DJKLDBKB@in?5method?5?8casevec_t__del?8?0?5arg@ 000000018001c800     xref.obj
 0002:00007850       ??_C@_0FP@JCFCCLMD@invalid?5null?5reference?5in?5metho@ 000000018001c850     xref.obj
 0002:000078b0       ??_C@_0FJ@OJDIHLLO@in?5method?5?8casevec_t___len__?8?0?5@ 000000018001c8b0     xref.obj
 0002:00007910       ??_C@_0FN@BEAPEHI@in?5method?5?8casevec_t___getitem_@ 000000018001c910     xref.obj
 0002:00007970       ??_C@_0DP@NBOMIN@in?5method?5?8casevec_t___getitem_@ 000000018001c970     xref.obj
 0002:000079b0       ??_C@_0FH@IEEADCEH@in?5method?5?8casevec_t___setitem_@ 000000018001c9b0     xref.obj
 0002:00007a08       ??_C@_0DP@CELHKMKM@in?5method?5?8casevec_t___setitem_@ 000000018001ca08     xref.obj
 0002:00007a50       ??_C@_0EP@LNANENHC@in?5method?5?8casevec_t___setitem_@ 000000018001ca50     xref.obj
 0002:00007aa0       ??_C@_0GG@NMCHJNGL@invalid?5null?5reference?5in?5metho@ 000000018001caa0     xref.obj
 0002:00007b08       ??_C@_09FFDNCIHC@_ida_xref@ 000000018001cb08     xref.obj
 0002:00007c70       ??_C@_04POHDACCI@fl_U@     000000018001cc70     xref.obj
 0002:00007c78       ??_C@_05ILMDOMLJ@fl_CF@    000000018001cc78     xref.obj
 0002:00007c80       ??_C@_05EDBKGGLB@fl_CN@    000000018001cc80     xref.obj
 0002:00007c88       ??_C@_05IEBCNHDG@fl_JF@    000000018001cc88     xref.obj
 0002:00007c90       ??_C@_05EMMLFNDO@fl_JN@    000000018001cc90     xref.obj
 0002:00007c98       ??_C@_0O@PFEJPEML@fl_USobsolete@ 000000018001cc98     xref.obj
 0002:00007ca8       ??_C@_04JPJMEDLK@fl_F@     000000018001cca8     xref.obj
 0002:00007cb0       ??_C@_04DEHFHBOE@dr_U@     000000018001ccb0     xref.obj
 0002:00007cb8       ??_C@_04IEFIILDP@dr_O@     000000018001ccb8     xref.obj
 0002:00007cc0       ??_C@_04GEDBDGG@dr_W@      000000018001ccc0     xref.obj
 0002:00007cc8       ??_C@_04HLDEOHCD@dr_R@     000000018001ccc8     xref.obj
 0002:00007cd0       ??_C@_04CNGOEAKF@dr_T@     000000018001ccd0     xref.obj
 0002:00007cd8       ??_C@_04NCACCMLJ@dr_I@     000000018001ccd8     xref.obj
 0002:00007ce0       ??_C@_09IGPLJOCH@XREF_USER@ 000000018001cce0     xref.obj
 0002:00007cf0       ??_C@_09JMNAOODI@XREF_TAIL@ 000000018001ccf0     xref.obj
 0002:00007d00       ??_C@_09LDADBBPF@XREF_BASE@ 000000018001cd00     xref.obj
 0002:00007d10       ??_C@_09KPNAKLKK@XREF_MASK@ 000000018001cd10     xref.obj
 0002:00007d20       ??_C@_0N@FIBKMJIC@XREF_PASTEND@ 000000018001cd20     xref.obj
 0002:00007d30       ??_C@_08LEOKFMME@XREF_ALL@ 000000018001cd30     xref.obj
 0002:00007d40       ??_C@_08PFKEMIPB@XREF_FAR@ 000000018001cd40     xref.obj
 0002:00007d50       ??_C@_09FNGADHNE@XREF_DATA@ 000000018001cd50     xref.obj
 0002:00007d90       ??_C@_1EC@JIJBPKFM@?$AAa?$AAp?$AAi?$AA?9?$AAm?$AAs?$AA?9?$AAw?$AAi?$AAn?$AA?9?$AAc?$AAo?$AAr?$AAe@ 000000018001cd90     MSVCRT:thread_safe_statics.obj
 0002:00007dd8       ??_C@_1BK@MGMFAEKH@?$AAk?$AAe?$AAr?$AAn?$AAe?$AAl?$AA3?$AA2?$AA?4?$AAd?$AAl?$AAl@ 000000018001cdd8     MSVCRT:thread_safe_statics.obj
 0002:00007df8       ??_C@_0BM@HLJJNPAH@InitializeConditionVariable@ 000000018001cdf8     MSVCRT:thread_safe_statics.obj
 0002:00007e18       ??_C@_0BJ@JEBJOJFJ@SleepConditionVariableCS@ 000000018001ce18     MSVCRT:thread_safe_statics.obj
 0002:00007e38       ??_C@_0BJ@PGPPEPCC@WakeAllConditionVariable@ 000000018001ce38     MSVCRT:thread_safe_statics.obj
 0002:00007e60       ??_7type_info@@6B@         000000018001ce60     MSVCRT:std_type_info_static.obj
 0002:00007e68       _pRawDllMain               000000018001ce68     MSVCRT:dll_dllmain.obj
 0002:00007e68       _pDefaultRawDllMain        000000018001ce68     MSVCRT:dll_dllmain.obj
 0002:00007e78       ??_7bad_alloc@std@@6B@     000000018001ce78     MSVCRT:throw_bad_alloc.obj
 0002:00007e88       ??_C@_0P@GHFPNOJB@bad?5allocation@ 000000018001ce88     MSVCRT:throw_bad_alloc.obj
 0002:00007ea0       ??_7bad_array_new_length@std@@6B@ 000000018001cea0     MSVCRT:throw_bad_alloc.obj
 0002:00007eb0       ??_C@_0BF@KINCDENJ@bad?5array?5new?5length@ 000000018001ceb0     MSVCRT:throw_bad_alloc.obj
 0002:00007f40       _load_config_used          000000018001cf40     MSVCRT:loadcfg.obj
 0002:00008040       _tls_used                  000000018001d040     MSVCRT:tlssup.obj
 0002:00008068       ??_R4exception@std@@6B@    000000018001d068     xref.obj
 0002:00008090       ??_R3exception@std@@8      000000018001d090     xref.obj
 0002:000080a8       ??_R2exception@std@@8      000000018001d0a8     xref.obj
 0002:000080b8       ??_R1A@?0A@EA@exception@std@@8 000000018001d0b8     xref.obj
 0002:000080e0       ??_R4logic_error@std@@6B@  000000018001d0e0     xref.obj
 0002:00008108       ??_R3logic_error@std@@8    000000018001d108     xref.obj
 0002:00008120       ??_R2logic_error@std@@8    000000018001d120     xref.obj
 0002:00008138       ??_R1A@?0A@EA@logic_error@std@@8 000000018001d138     xref.obj
 0002:00008160       ??_R4out_of_range@std@@6B@ 000000018001d160     xref.obj
 0002:00008188       ??_R3out_of_range@std@@8   000000018001d188     xref.obj
 0002:000081a0       ??_R2out_of_range@std@@8   000000018001d1a0     xref.obj
 0002:000081c0       ??_R1A@?0A@EA@out_of_range@std@@8 000000018001d1c0     xref.obj
 0002:000081e8       ??_R4type_info@@6B@        000000018001d1e8     MSVCRT:std_type_info_static.obj
 0002:00008210       ??_R3type_info@@8          000000018001d210     MSVCRT:std_type_info_static.obj
 0002:00008228       ??_R2type_info@@8          000000018001d228     MSVCRT:std_type_info_static.obj
 0002:00008238       ??_R1A@?0A@EA@type_info@@8 000000018001d238     MSVCRT:std_type_info_static.obj
 0002:00008260       ??_R4bad_alloc@std@@6B@    000000018001d260     MSVCRT:throw_bad_alloc.obj
 0002:00008288       ??_R3bad_alloc@std@@8      000000018001d288     MSVCRT:throw_bad_alloc.obj
 0002:000082a0       ??_R2bad_alloc@std@@8      000000018001d2a0     MSVCRT:throw_bad_alloc.obj
 0002:000082b8       ??_R1A@?0A@EA@bad_alloc@std@@8 000000018001d2b8     MSVCRT:throw_bad_alloc.obj
 0002:000082e0       ??_R4bad_array_new_length@std@@6B@ 000000018001d2e0     MSVCRT:throw_bad_alloc.obj
 0002:00008308       ??_R3bad_array_new_length@std@@8 000000018001d308     MSVCRT:throw_bad_alloc.obj
 0002:00008320       ??_R2bad_array_new_length@std@@8 000000018001d320     MSVCRT:throw_bad_alloc.obj
 0002:00008340       ??_R1A@?0A@EA@bad_array_new_length@std@@8 000000018001d340     MSVCRT:throw_bad_alloc.obj
 0002:00008678       __rtc_iaa                  000000018001d678     MSVCRT:initsect.obj
 0002:00008680       __rtc_izz                  000000018001d680     MSVCRT:initsect.obj
 0002:00008688       __rtc_taa                  000000018001d688     MSVCRT:initsect.obj
 0002:00008690       __rtc_tzz                  000000018001d690     MSVCRT:initsect.obj
 0002:00008698       _tls_start                 000000018001d698     MSVCRT:tlssup.obj
 0002:0000869c       _Init_thread_epoch         000000018001d69c     MSVCRT:thread_safe_statics.obj
 0002:000086a0       _tls_end                   000000018001d6a0     MSVCRT:tlssup.obj
 0002:0000cb48       _CT??_R0?AVexception@std@@@8??0exception@std@@QEAA@AEBV01@@Z24 0000000180021b48     xref.obj
 0002:0000cb70       _TI3?AVout_of_range@std@@  0000000180021b70     xref.obj
 0002:0000cb90       _CTA3?AVout_of_range@std@@ 0000000180021b90     xref.obj
 0002:0000cbb0       _CT??_R0?AVout_of_range@std@@@8??0out_of_range@std@@QEAA@AEBV01@@Z24 0000000180021bb0     xref.obj
 0002:0000cbd8       _CT??_R0?AVlogic_error@std@@@8??0logic_error@std@@QEAA@AEBV01@@Z24 0000000180021bd8     xref.obj
 0002:0000cc00       _TI2?AVbad_alloc@std@@     0000000180021c00     MSVCRT:throw_bad_alloc.obj
 0002:0000cc20       _CTA2?AVbad_alloc@std@@    0000000180021c20     MSVCRT:throw_bad_alloc.obj
 0002:0000cc38       _CT??_R0?AVbad_alloc@std@@@8??0bad_alloc@std@@QEAA@AEBV01@@Z24 0000000180021c38     MSVCRT:throw_bad_alloc.obj
 0002:0000cc60       _TI3?AVbad_array_new_length@std@@ 0000000180021c60     MSVCRT:throw_bad_alloc.obj
 0002:0000cc80       _CTA3?AVbad_array_new_length@std@@ 0000000180021c80     MSVCRT:throw_bad_alloc.obj
 0002:0000cca0       _CT??_R0?AVbad_array_new_length@std@@@8??0bad_array_new_length@std@@QEAA@AEBV01@@Z24 0000000180021ca0     MSVCRT:throw_bad_alloc.obj
 0002:0000cd24       __IMPORT_DESCRIPTOR_ida    0000000180021d24     ida:ida.dll
 0002:0000cd38       __IMPORT_DESCRIPTOR_python38 0000000180021d38     python38:python38.dll
 0002:0000cd4c       __IMPORT_DESCRIPTOR_python 0000000180021d4c     python:python.dll
 0002:0000cd60       __IMPORT_DESCRIPTOR_KERNEL32 0000000180021d60     kernel32:KERNEL32.dll
 0002:0000cd74       __IMPORT_DESCRIPTOR_VCRUNTIME140 0000000180021d74     vcruntime:VCRUNTIME140.dll
 0002:0000cd88       __IMPORT_DESCRIPTOR_api-ms-win-crt-stdio-l1-1-0 0000000180021d88     ucrt:api-ms-win-crt-stdio-l1-1-0.dll
 0002:0000cd9c       __IMPORT_DESCRIPTOR_api-ms-win-crt-string-l1-1-0 0000000180021d9c     ucrt:api-ms-win-crt-string-l1-1-0.dll
 0002:0000cdb0       __IMPORT_DESCRIPTOR_api-ms-win-crt-heap-l1-1-0 0000000180021db0     ucrt:api-ms-win-crt-heap-l1-1-0.dll
 0002:0000cdc4       __IMPORT_DESCRIPTOR_api-ms-win-crt-runtime-l1-1-0 0000000180021dc4     ucrt:api-ms-win-crt-runtime-l1-1-0.dll
 0002:0000cdd8       __NULL_IMPORT_DESCRIPTOR   0000000180021dd8     ida:ida.dll
 0003:00002fe8       _Init_global_epoch         0000000180026fe8     MSVCRT:thread_safe_statics.obj
 0003:00002ff0       __security_cookie_complement 0000000180026ff0     MSVCRT:gs_cookie.obj
 0003:00002ff8       __security_cookie          0000000180026ff8     MSVCRT:gs_cookie.obj
 0003:00003000       __scrt_native_dllmain_reason 0000000180027000     MSVCRT:utility.obj
 0003:00003008       __isa_available            0000000180027008     MSVCRT:cpu_disp.obj
 0003:0000300c       __isa_enabled              000000018002700c     MSVCRT:cpu_disp.obj
 0003:00003010       __memcpy_nt_iters          0000000180027010     MSVCRT:cpu_disp.obj
 0003:00003020       __scrt_ucrt_dll_is_in_use  0000000180027020     MSVCRT:ucrt_stubs.obj
 0003:00003028       ??_R0?AVexception@std@@@8  0000000180027028     xref.obj
 0003:00003050       ??_R0?AVDirectorException@Swig@@@8 0000000180027050     xref.obj
 0003:00003080       ??_R0?AVout_of_range@std@@@8 0000000180027080     xref.obj
 0003:000030a8       ??_R0?AVlogic_error@std@@@8 00000001800270a8     xref.obj
 0003:000030d0       ??_R0?AVbad_alloc@std@@@8  00000001800270d0     xref.obj
 0003:000030f8       ??_R0?AUinterr_exc_t@@@8   00000001800270f8     xref.obj
 0003:00003120       ??_R0?AVtype_info@@@8      0000000180027120     MSVCRT:std_type_info_static.obj
 0003:00003140       ??_R0?AVbad_array_new_length@std@@@8 0000000180027140     MSVCRT:throw_bad_alloc.obj
 0003:000031a0       ?swig_mutex_own@Director@Swig@@0U_RTL_CRITICAL_SECTION@2@A 00000001800271a0     xref.obj
 0003:00003418       ?_OptionsStorage@?1??__local_stdio_printf_options@@9@4_KA 0000000180027418     xref.obj
 0003:000034a8       _tls_index                 00000001800274a8     MSVCRT:tlssup.obj
 0003:000034b0       __scrt_current_native_startup_state 00000001800274b0     MSVCRT:utility.obj
 0003:000034b8       __scrt_native_startup_lock 00000001800274b8     MSVCRT:utility.obj
 0003:000034f8       __scrt_debugger_hook_flag  00000001800274f8     MSVCRT:utility_desktop.obj
 0003:00003a70       ?__type_info_root_node@@3U__type_info_node@@A 0000000180027a70     MSVCRT:tncleanup.obj
 0003:00003a80       ?_OptionsStorage@?1??__local_stdio_scanf_options@@9@4_KA 0000000180027a80     MSVCRT:default_local_stdio_options.obj
 0003:00003a88       __favor                    0000000180027a88     MSVCRT:cpu_disp.obj
 0003:00003a90       __dyn_tls_init_callback    0000000180027a90     <common>

 entry point at        0001:0000d8b0

 Static symbols

 0000:fffd5000       .debug$S                   0000000180000000     python38:python38.dll
 0000:fffd5000       .debug$S                   0000000180000000     ida:ida.dll
 0000:fffd5000       .debug$S                   0000000180000000     ida:ida.dll
 0000:fffd5000       .debug$S                   0000000180000000     ida:ida.dll
 0000:fffd5000       .debug$S                   0000000180000000     ida:ida.dll
 0000:fffd5000       .debug$S                   0000000180000000     _ida_xref.exp
 0000:fffd5000       .debug$S                   0000000180000000     ida:ida.dll
 0000:fffd5000       .debug$S                   0000000180000000     ida:ida.dll
 0000:fffd5000       .debug$S                   0000000180000000     ida:ida.dll
 0000:fffd5000       .debug$S                   0000000180000000     ida:ida.dll
 0000:fffd5000       .debug$S                   0000000180000000     ida:ida.dll
 0000:fffd5000       .debug$S                   0000000180000000     ucrt:api-ms-win-crt-runtime-l1-1-0.dll
 0000:fffd5000       .debug$S                   0000000180000000     ucrt:api-ms-win-crt-runtime-l1-1-0.dll
 0000:fffd5000       .debug$S                   0000000180000000     ucrt:api-ms-win-crt-runtime-l1-1-0.dll
 0000:fffd5000       .debug$S                   0000000180000000     ucrt:api-ms-win-crt-runtime-l1-1-0.dll
 0000:fffd5000       .debug$S                   0000000180000000     ucrt:api-ms-win-crt-runtime-l1-1-0.dll
 0000:fffd5000       .debug$S                   0000000180000000     ucrt:api-ms-win-crt-runtime-l1-1-0.dll
 0000:fffd5000       .debug$S                   0000000180000000     ucrt:api-ms-win-crt-runtime-l1-1-0.dll
 0000:fffd5000       .debug$S                   0000000180000000     ucrt:api-ms-win-crt-runtime-l1-1-0.dll
 0000:fffd5000       .debug$S                   0000000180000000     ucrt:api-ms-win-crt-runtime-l1-1-0.dll
 0000:fffd5000       .debug$S                   0000000180000000     ucrt:api-ms-win-crt-runtime-l1-1-0.dll
 0000:fffd5000       .debug$S                   0000000180000000     ucrt:api-ms-win-crt-runtime-l1-1-0.dll
 0000:fffd5000       .debug$S                   0000000180000000     ucrt:api-ms-win-crt-runtime-l1-1-0.dll
 0000:fffd5000       .debug$S                   0000000180000000     ucrt:api-ms-win-crt-heap-l1-1-0.dll
 0000:fffd5000       .debug$S                   0000000180000000     ucrt:api-ms-win-crt-heap-l1-1-0.dll
 0000:fffd5000       .debug$S                   0000000180000000     ucrt:api-ms-win-crt-heap-l1-1-0.dll
 0000:fffd5000       .debug$S                   0000000180000000     ucrt:api-ms-win-crt-string-l1-1-0.dll
 0000:fffd5000       .debug$S                   0000000180000000     ucrt:api-ms-win-crt-string-l1-1-0.dll
 0000:fffd5000       .debug$S                   0000000180000000     ucrt:api-ms-win-crt-stdio-l1-1-0.dll
 0000:fffd5000       .debug$S                   0000000180000000     ucrt:api-ms-win-crt-stdio-l1-1-0.dll
 0000:fffd5000       .debug$S                   0000000180000000     ida:ida.dll
 0000:fffd5000       .debug$S                   0000000180000000     vcruntime:VCRUNTIME140.dll
 0000:fffd5000       .debug$S                   0000000180000000     vcruntime:VCRUNTIME140.dll
 0000:fffd5000       .debug$S                   0000000180000000     vcruntime:VCRUNTIME140.dll
 0000:fffd5000       .debug$S                   0000000180000000     vcruntime:VCRUNTIME140.dll
 0000:fffd5000       .debug$S                   0000000180000000     vcruntime:VCRUNTIME140.dll
 0000:fffd5000       .debug$S                   0000000180000000     vcruntime:VCRUNTIME140.dll
 0000:fffd5000       .debug$S                   0000000180000000     vcruntime:VCRUNTIME140.dll
 0000:fffd5000       .debug$S                   0000000180000000     vcruntime:VCRUNTIME140.dll
 0000:fffd5000       .debug$S                   0000000180000000     vcruntime:VCRUNTIME140.dll
 0000:fffd5000       .debug$S                   0000000180000000     vcruntime:VCRUNTIME140.dll
 0000:fffd5000       .debug$S                   0000000180000000     vcruntime:VCRUNTIME140.dll
 0000:fffd5000       .debug$S                   0000000180000000     ida:ida.dll
 0000:fffd5000       .debug$S                   0000000180000000     kernel32:KERNEL32.dll
 0000:fffd5000       .debug$S                   0000000180000000     kernel32:KERNEL32.dll
 0000:fffd5000       .debug$S                   0000000180000000     kernel32:KERNEL32.dll
 0000:fffd5000       .debug$S                   0000000180000000     kernel32:KERNEL32.dll
 0000:fffd5000       .debug$S                   0000000180000000     kernel32:KERNEL32.dll
 0000:fffd5000       .debug$S                   0000000180000000     kernel32:KERNEL32.dll
 0000:fffd5000       .debug$S                   0000000180000000     kernel32:KERNEL32.dll
 0000:fffd5000       .debug$S                   0000000180000000     kernel32:KERNEL32.dll
 0000:fffd5000       .debug$S                   0000000180000000     kernel32:KERNEL32.dll
 0000:fffd5000       .debug$S                   0000000180000000     kernel32:KERNEL32.dll
 0000:fffd5000       .debug$S                   0000000180000000     kernel32:KERNEL32.dll
 0000:fffd5000       .debug$S                   0000000180000000     kernel32:KERNEL32.dll
 0000:fffd5000       .debug$S                   0000000180000000     kernel32:KERNEL32.dll
 0000:fffd5000       .debug$S                   0000000180000000     kernel32:KERNEL32.dll
 0000:fffd5000       .debug$S                   0000000180000000     kernel32:KERNEL32.dll
 0000:fffd5000       .debug$S                   0000000180000000     kernel32:KERNEL32.dll
 0000:fffd5000       .debug$S                   0000000180000000     kernel32:KERNEL32.dll
 0000:fffd5000       .debug$S                   0000000180000000     kernel32:KERNEL32.dll
 0000:fffd5000       .debug$S                   0000000180000000     kernel32:KERNEL32.dll
 0000:fffd5000       .debug$S                   0000000180000000     kernel32:KERNEL32.dll
 0000:fffd5000       .debug$S                   0000000180000000     kernel32:KERNEL32.dll
 0000:fffd5000       .debug$S                   0000000180000000     kernel32:KERNEL32.dll
 0000:fffd5000       .debug$S                   0000000180000000     kernel32:KERNEL32.dll
 0000:fffd5000       .debug$S                   0000000180000000     kernel32:KERNEL32.dll
 0000:fffd5000       .debug$S                   0000000180000000     kernel32:KERNEL32.dll
 0000:fffd5000       .debug$S                   0000000180000000     kernel32:KERNEL32.dll
 0000:fffd5000       .debug$S                   0000000180000000     kernel32:KERNEL32.dll
 0000:fffd5000       .debug$S                   0000000180000000     ida:ida.dll
 0000:fffd5000       .debug$S                   0000000180000000     ida:ida.dll
 0000:fffd5000       .debug$S                   0000000180000000     ida:ida.dll
 0000:fffd5000       .debug$S                   0000000180000000     ida:ida.dll
 0000:fffd5000       .debug$S                   0000000180000000     ida:ida.dll
 0000:fffd5000       .debug$S                   0000000180000000     ida:ida.dll
 0000:fffd5000       .debug$S                   0000000180000000     ida:ida.dll
 0000:fffd5000       .debug$S                   0000000180000000     ida:ida.dll
 0000:fffd5000       .debug$S                   0000000180000000     ida:ida.dll
 0000:fffd5000       .debug$S                   0000000180000000     ida:ida.dll
 0000:fffd5000       .debug$S                   0000000180000000     ida:ida.dll
 0000:fffd5000       .debug$S                   0000000180000000     ida:ida.dll
 0000:fffd5000       .debug$S                   0000000180000000     ida:ida.dll
 0000:fffd5000       .debug$S                   0000000180000000     ida:ida.dll
 0000:fffd5000       .debug$S                   0000000180000000     ida:ida.dll
 0000:fffd5000       .debug$S                   0000000180000000     ida:ida.dll
 0000:fffd5000       .debug$S                   0000000180000000     ida:ida.dll
 0000:fffd5000       .debug$S                   0000000180000000     ida:ida.dll
 0000:fffd5000       .debug$S                   0000000180000000     ida:ida.dll
 0000:fffd5000       .debug$S                   0000000180000000     ida:ida.dll
 0000:fffd5000       .debug$S                   0000000180000000     ida:ida.dll
 0000:fffd5000       .debug$S                   0000000180000000     python38:python38.dll
 0000:fffd5000       .debug$S                   0000000180000000     python38:python38.dll
 0000:fffd5000       .debug$S                   0000000180000000     python38:python38.dll
 0000:fffd5000       .debug$S                   0000000180000000     python38:python38.dll
 0000:fffd5000       .debug$S                   0000000180000000     python38:python38.dll
 0000:fffd5000       .debug$S                   0000000180000000     python38:python38.dll
 0000:fffd5000       .debug$S                   0000000180000000     python38:python38.dll
 0000:fffd5000       .debug$S                   0000000180000000     python38:python38.dll
 0000:fffd5000       .debug$S                   0000000180000000     python38:python38.dll
 0000:fffd5000       .debug$S                   0000000180000000     python:python.dll
 0000:fffd5000       .debug$S                   0000000180000000     python38:python38.dll
 0000:fffd5000       .debug$S                   0000000180000000     python38:python38.dll
 0000:fffd5000       .debug$S                   0000000180000000     python38:python38.dll
 0000:fffd5000       .debug$S                   0000000180000000     python38:python38.dll
 0000:fffd5000       .debug$S                   0000000180000000     python38:python38.dll
 0000:fffd5000       .debug$S                   0000000180000000     python38:python38.dll
 0000:fffd5000       .debug$S                   0000000180000000     python38:python38.dll
 0000:fffd5000       .debug$S                   0000000180000000     python38:python38.dll
 0000:fffd5000       .debug$S                   0000000180000000     python38:python38.dll
 0000:fffd5000       .debug$S                   0000000180000000     python38:python38.dll
 0000:fffd5000       .debug$S                   0000000180000000     python38:python38.dll
 0000:fffd5000       .debug$S                   0000000180000000     python38:python38.dll
 0000:fffd5000       .debug$S                   0000000180000000     python38:python38.dll
 0000:fffd5000       .debug$S                   0000000180000000     python38:python38.dll
 0000:fffd5000       .debug$S                   0000000180000000     python38:python38.dll
 0000:fffd5000       .debug$S                   0000000180000000     python38:python38.dll
 0000:fffd5000       .debug$S                   0000000180000000     python38:python38.dll
 0000:fffd5000       .debug$S                   0000000180000000     python38:python38.dll
 0000:fffd5000       .debug$S                   0000000180000000     python38:python38.dll
 0000:fffd5000       .debug$S                   0000000180000000     python38:python38.dll
 0000:fffd5000       .debug$S                   0000000180000000     python38:python38.dll
 0000:fffd5000       .debug$S                   0000000180000000     python38:python38.dll
 0000:fffd5000       .debug$S                   0000000180000000     python38:python38.dll
 0000:fffd5000       .debug$S                   0000000180000000     python38:python38.dll
 0000:fffd5000       .debug$S                   0000000180000000     python38:python38.dll
 0000:fffd5000       .debug$S                   0000000180000000     python38:python38.dll
 0000:fffd5000       .debug$S                   0000000180000000     python38:python38.dll
 0000:fffd5000       .debug$S                   0000000180000000     python38:python38.dll
 0000:fffd5000       .debug$S                   0000000180000000     python38:python38.dll
 0000:fffd5000       .debug$S                   0000000180000000     python38:python38.dll
 0000:fffd5000       .debug$S                   0000000180000000     python38:python38.dll
 0000:fffd5000       .debug$S                   0000000180000000     python38:python38.dll
 0000:fffd5000       .debug$S                   0000000180000000     python38:python38.dll
 0000:fffd5000       .debug$S                   0000000180000000     python38:python38.dll
 0000:fffd5000       .debug$S                   0000000180000000     python38:python38.dll
 0000:fffd5000       .debug$S                   0000000180000000     python38:python38.dll
 0000:fffd5000       .debug$S                   0000000180000000     python38:python38.dll
 0000:fffd5000       .debug$S                   0000000180000000     python38:python38.dll
 0000:fffd5000       .debug$S                   0000000180000000     python38:python38.dll
 0000:fffd5000       .debug$S                   0000000180000000     python38:python38.dll
 0000:fffd5000       .debug$S                   0000000180000000     python38:python38.dll
 0000:fffd5000       .debug$S                   0000000180000000     python38:python38.dll
 0000:fffd5000       .debug$S                   0000000180000000     python38:python38.dll
 0000:fffd5000       .debug$S                   0000000180000000     python38:python38.dll
 0000:fffd5000       .debug$S                   0000000180000000     python38:python38.dll
 0000:fffd5000       .debug$S                   0000000180000000     python38:python38.dll
 0000:fffd5000       .debug$S                   0000000180000000     python38:python38.dll
 0000:fffd5000       .debug$S                   0000000180000000     python38:python38.dll
 0000:fffd5000       .debug$S                   0000000180000000     python38:python38.dll
 0000:fffd5000       .debug$S                   0000000180000000     python38:python38.dll
 0000:fffd5000       .debug$S                   0000000180000000     python38:python38.dll
 0000:fffd5000       .debug$S                   0000000180000000     python38:python38.dll
 0000:fffd5000       .debug$S                   0000000180000000     python38:python38.dll
 0000:fffd5000       .debug$S                   0000000180000000     python38:python38.dll
 0000:fffd5000       .debug$S                   0000000180000000     python38:python38.dll
 0000:fffd5000       .debug$S                   0000000180000000     python38:python38.dll
 0000:fffd5000       .debug$S                   0000000180000000     python38:python38.dll
 0000:fffd5000       .debug$S                   0000000180000000     python38:python38.dll
 0000:fffd5000       .debug$S                   0000000180000000     python38:python38.dll
 0000:fffd5000       .debug$S                   0000000180000000     python38:python38.dll
 0000:fffd5000       .debug$S                   0000000180000000     python38:python38.dll
 0000:fffd5000       .debug$S                   0000000180000000     python38:python38.dll
 0000:fffd5000       .debug$S                   0000000180000000     python38:python38.dll
 0000:fffd5000       .debug$S                   0000000180000000     python38:python38.dll
 0000:fffd5000       .debug$S                   0000000180000000     python38:python38.dll
 0000:fffd5000       .debug$S                   0000000180000000     python38:python38.dll
 0000:fffd5000       .debug$S                   0000000180000000     python38:python38.dll
 0000:fffd5000       .debug$S                   0000000180000000     python:python.dll
 0001:00000000       _wrap_casevec_t_capacity   0000000180001000 f   xref.obj
 0001:00000130       _wrap_casevec_t_reserve    0000000180001130 f   xref.obj
 0001:00000310       _wrap_casevec_t_truncate   0000000180001310 f   xref.obj
 0001:00000450       _wrap_casevec_t_swap       0000000180001450 f   xref.obj
 0001:000006a0       _wrap_casevec_t_extract    00000001800016a0 f   xref.obj
 0001:00000800       _wrap_casevec_t_inject     0000000180001800 f   xref.obj
 0001:00000ab0       _wrap_casevec_t___eq__     0000000180001ab0 f   xref.obj
 0001:00000cf0       _wrap_casevec_t___ne__     0000000180001cf0 f   xref.obj
 0001:00000f30       _wrap_casevec_t_begin      0000000180001f30 f   xref.obj
 0001:000011b0       _wrap_casevec_t_end        00000001800021b0 f   xref.obj
 0001:00001430       _wrap_casevec_t_insert     0000000180002430 f   xref.obj
 0001:000017f0       _wrap_casevec_t_erase      00000001800027f0 f   xref.obj
 0001:00001c20       _wrap_casevec_t_find       0000000180002c20 f   xref.obj
 0001:00001fb0       _wrap_casevec_t_has        0000000180002fb0 f   xref.obj
 0001:00002210       _wrap_casevec_t_add_unique 0000000180003210 f   xref.obj
 0001:00002480       _wrap_casevec_t__del       0000000180003480 f   xref.obj
 0001:00002740       _wrap_casevec_t___len__    0000000180003740 f   xref.obj
 0001:00002870       _wrap_casevec_t___getitem__ 0000000180003870 f   xref.obj
 0001:00002a70       _wrap_casevec_t___setitem__ 0000000180003a70 f   xref.obj
 0001:00002d80       casevec_t_swigregister     0000000180003d80 f   xref.obj
 0001:00002e10       casevec_t_swiginit         0000000180003e10 f   xref.obj
 0001:00002e10       xrefblk_t_swiginit         0000000180003e10 f   xref.obj
 0001:00002e10       cases_and_targets_t_swiginit 0000000180003e10 f   xref.obj
 0001:00002e20       _p_reloc_info_tTo_p_qvectorT_unsigned_char_t 0000000180003e20 f   xref.obj
 0001:00002e20       _p_bytevec_tTo_p_qvectorT_unsigned_char_t 0000000180003e20 f   xref.obj
 0001:00002e20       _p_relobj_tTo_p_qvectorT_unsigned_char_t 0000000180003e20 f   xref.obj
 0001:00002e30       SwigPyObject_repr2         0000000180003e30 f   xref.obj
 0001:00002e40       SwigPyObject_append        0000000180003e40 f   xref.obj
 0001:00002ea0       SwigPyObject_next          0000000180003ea0 f   xref.obj
 0001:00002ec0       SwigPyObject_disown        0000000180003ec0 f   xref.obj
 0001:00002ee0       SwigPyObject_acquire       0000000180003ee0 f   xref.obj
 0001:00002f00       SwigPyObject_own           0000000180003f00 f   xref.obj
 0001:00002fb0       _wrap_create_switch_xrefs  0000000180003fb0 f   xref.obj
 0001:00003150       _wrap_cases_and_targets_t_cases_set 0000000180004150 f   xref.obj
 0001:00003350       _wrap_cases_and_targets_t_cases_get 0000000180004350 f   xref.obj
 0001:00003460       _wrap_cases_and_targets_t_targets_set 0000000180004460 f   xref.obj
 0001:000036c0       _wrap_cases_and_targets_t_targets_get 00000001800046c0 f   xref.obj
 0001:000037d0       _wrap_new_cases_and_targets_t 00000001800047d0 f   xref.obj
 0001:00003860       _wrap_delete_cases_and_targets_t 0000000180004860 f   xref.obj
 0001:000039a0       cases_and_targets_t_swigregister 00000001800049a0 f   xref.obj
 0001:00003a30       _wrap_calc_switch_cases    0000000180004a30 f   xref.obj
 0001:00003c50       _wrap_create_switch_table  0000000180004c50 f   xref.obj
 0001:00003df0       _wrap_xrefchar             0000000180004df0 f   xref.obj
 0001:00003f40       _wrap_add_cref             0000000180004f40 f   xref.obj
 0001:000040d0       _wrap_del_cref             00000001800050d0 f   xref.obj
 0001:00004240       _wrap_add_dref             0000000180005240 f   xref.obj
 0001:000043d0       _wrap_del_dref             00000001800053d0 f   xref.obj
 0001:00004510       _wrap_xrefblk_t_frm_set    0000000180005510 f   xref.obj
 0001:00004680       _wrap_xrefblk_t_frm_get    0000000180005680 f   xref.obj
 0001:00004780       _wrap_xrefblk_t_to_set     0000000180005780 f   xref.obj
 0001:00004900       _wrap_xrefblk_t_to_get     0000000180005900 f   xref.obj
 0001:00004a00       _wrap_xrefblk_t_iscode_set 0000000180005a00 f   xref.obj
 0001:00004bc0       _wrap_xrefblk_t_iscode_get 0000000180005bc0 f   xref.obj
 0001:00004cc0       _wrap_xrefblk_t_type_set   0000000180005cc0 f   xref.obj
 0001:00004e80       _wrap_xrefblk_t_type_get   0000000180005e80 f   xref.obj
 0001:00004f80       _wrap_xrefblk_t_user_set   0000000180005f80 f   xref.obj
 0001:00005140       _wrap_xrefblk_t_user_get   0000000180006140 f   xref.obj
 0001:00005240       _wrap_xrefblk_t_first_from 0000000180006240 f   xref.obj
 0001:00005470       _wrap_xrefblk_t_first_to   0000000180006470 f   xref.obj
 0001:000056a0       _wrap_xrefblk_t_next_from  00000001800066a0 f   xref.obj
 0001:00005a40       _wrap_xrefblk_t_next_to    0000000180006a40 f   xref.obj
 0001:00005de0       _wrap_new_xrefblk_t        0000000180006de0 f   xref.obj
 0001:00005e60       _wrap_delete_xrefblk_t     0000000180006e60 f   xref.obj
 0001:00005f90       xrefblk_t_swigregister     0000000180006f90 f   xref.obj
 0001:00006020       _wrap_get_first_dref_from  0000000180007020 f   xref.obj
 0001:000060f0       _wrap_get_next_dref_from   00000001800070f0 f   xref.obj
 0001:00006230       _wrap_get_first_dref_to    0000000180007230 f   xref.obj
 0001:00006300       _wrap_get_next_dref_to     0000000180007300 f   xref.obj
 0001:00006440       _wrap_get_first_cref_from  0000000180007440 f   xref.obj
 0001:00006510       _wrap_get_next_cref_from   0000000180007510 f   xref.obj
 0001:00006650       _wrap_get_first_cref_to    0000000180007650 f   xref.obj
 0001:00006720       _wrap_get_next_cref_to     0000000180007720 f   xref.obj
 0001:00006860       _wrap_get_first_fcref_from 0000000180007860 f   xref.obj
 0001:00006930       _wrap_get_next_fcref_from  0000000180007930 f   xref.obj
 0001:00006a70       _wrap_get_first_fcref_to   0000000180007a70 f   xref.obj
 0001:00006b40       _wrap_get_next_fcref_to    0000000180007b40 f   xref.obj
 0001:00006c80       _wrap_has_external_refs    0000000180007c80 f   xref.obj
 0001:00006e40       _wrap_delete_switch_table  0000000180007e40 f   xref.obj
 0001:00006fe0       _wrap_new_casevec_t        0000000180007fe0 f   xref.obj
 0001:000071e0       _wrap_delete_casevec_t     00000001800081e0 f   xref.obj
 0001:00007310       _wrap_casevec_t_push_back  0000000180008310 f   xref.obj
 0001:00007640       _wrap_casevec_t_pop_back   0000000180008640 f   xref.obj
 0001:00007770       _wrap_casevec_t_size       0000000180008770 f   xref.obj
 0001:000078a0       _wrap_casevec_t_empty      00000001800088a0 f   xref.obj
 0001:000079d0       _wrap_casevec_t_at         00000001800089d0 f   xref.obj
 0001:00007ba0       _wrap_casevec_t_qclear     0000000180008ba0 f   xref.obj
 0001:00007ce0       _wrap_casevec_t_clear      0000000180008ce0 f   xref.obj
 0001:00007e00       _wrap_casevec_t_resize     0000000180008e00 f   xref.obj
 0001:000081f0       _wrap_casevec_t_grow       00000001800091f0 f   xref.obj
 0001:00008ad0       ?SWIG_AsCharArray@@YAHPEAU_object@@PEAD_K@Z 0000000180009ad0 f   xref.obj
 0001:00008ce0       ?SWIG_Python_ErrorType@@YAPEAU_object@@H@Z 0000000180009ce0 f   xref.obj
 0001:00008d7c       $LN17                      0000000180009d7c     xref.obj
 0001:00008db0       ?SWIG_Python_RaiseOrModifyTypeError@@YAXPEBD@Z 0000000180009db0 f   xref.obj
 0001:00008e70       ?SWIG_Python_UnpackTuple@@YA_JPEAU_object@@PEBD_J2PEAPEAU1@@Z 0000000180009e70 f   xref.obj
 0001:00009040       ?__raise_e@@YAXAEBVexception@std@@@Z 000000018000a040 f   xref.obj
 0001:00009080       ?__raise_ie@@YAXAEBUinterr_exc_t@@@Z 000000018000a080 f   xref.obj
 0001:000096d0       SWIG_InitializeModule      000000018000a6d0 f   xref.obj
 0001:000099f0       SWIG_MangledTypeQueryModule 000000018000a9f0 f   xref.obj
 0001:00009ac0       SWIG_Python_DestroyModule  000000018000aac0 f   xref.obj
 0001:00009bb0       SWIG_Python_FixMethods     000000018000abb0 f   xref.obj
 0001:00009df0       SWIG_Python_GetSwigThis    000000018000adf0 f   xref.obj
 0001:00009e80       SWIG_Python_InitShadowInstance 000000018000ae80 f   xref.obj
 0001:00009f80       SWIG_Python_NewPointerObj  000000018000af80 f   xref.obj
 0001:0000a1a0       SWIG_Python_TypeCache      000000018000b1a0 f   xref.obj
 0001:0000a210       SWIG_Python_TypeQuery      000000018000b210 f   xref.obj
 0001:0000a450       SWIG_This                  000000018000b450 f   xref.obj
 0001:0000a480       SWIG_TypeCheck             000000018000b480 f   xref.obj
 0001:0000a520       SWIG_TypeClientData        000000018000b520 f   xref.obj
 0001:0000a570       SwigPyClientData_New       000000018000b570 f   xref.obj
 0001:0000a680       SwigPyObject_Check         000000018000b680 f   xref.obj
 0001:0000a700       SwigPyObject_New           000000018000b700 f   xref.obj
 0001:0000a750       SwigPyObject_dealloc       000000018000b750 f   xref.obj
 0001:0000a8e0       SwigPyObject_long          000000018000b8e0 f   xref.obj
 0001:0000a8f0       SwigPyObject_repr          000000018000b8f0 f   xref.obj
 0001:0000a9b0       SwigPyObject_richcompare   000000018000b9b0 f   xref.obj
 0001:0000aa00       SwigPyObject_type          000000018000ba00 f   xref.obj
 0001:0000ab40       SwigPyPacked_Check         000000018000bb40 f   xref.obj
 0001:0000abc0       SwigPyPacked_dealloc       000000018000bbc0 f   xref.obj
 0001:0000abf0       SwigPyPacked_repr          000000018000bbf0 f   xref.obj
 0001:0000acf0       SwigPyPacked_str           000000018000bcf0 f   xref.obj
 0001:0000adf0       SwigPyPacked_type          000000018000bdf0 f   xref.obj
 0001:0000af40       _wrap_casevec_t_begin__SWIG_0 000000018000bf40 f   xref.obj
 0001:0000b070       _wrap_casevec_t_begin__SWIG_1 000000018000c070 f   xref.obj
 0001:0000b1a0       _wrap_casevec_t_end__SWIG_0 000000018000c1a0 f   xref.obj
 0001:0000b2e0       _wrap_casevec_t_end__SWIG_1 000000018000c2e0 f   xref.obj
 0001:0000b420       _wrap_casevec_t_erase__SWIG_0 000000018000c420 f   xref.obj
 0001:0000b640       _wrap_casevec_t_erase__SWIG_1 000000018000c640 f   xref.obj
 0001:0000b9a0       _wrap_casevec_t_find__SWIG_0 000000018000c9a0 f   xref.obj
 0001:0000bbd0       _wrap_casevec_t_find__SWIG_1 000000018000cbd0 f   xref.obj
 0001:0000be00       _wrap_casevec_t_push_back__SWIG_0 000000018000ce00 f   xref.obj
 0001:0000c030       _wrap_casevec_t_push_back__SWIG_1 000000018000d030 f   xref.obj
 0001:0000c1d0       _wrap_casevec_t_resize__SWIG_0 000000018000d1d0 f   xref.obj
 0001:0000c470       _wrap_casevec_t_resize__SWIG_1 000000018000d470 f   xref.obj
 0001:0000c640       _wrap_new_casevec_t__SWIG_0 000000018000d640 f   xref.obj
 0001:0000c6a0       _wrap_new_casevec_t__SWIG_1 000000018000d6a0 f   xref.obj
 0001:0000c8f0       _wrap_xrefblk_t_next_from__SWIG_0 000000018000d8f0 f   xref.obj
 0001:0000ca30       _wrap_xrefblk_t_next_from__SWIG_1 000000018000da30 f   xref.obj
 0001:0000cc40       _wrap_xrefblk_t_next_to__SWIG_0 000000018000dc40 f   xref.obj
 0001:0000cd80       _wrap_xrefblk_t_next_to__SWIG_1 000000018000dd80 f   xref.obj
 0001:0000d100       ?__scrt_initialize_thread_safe_statics@@YAHXZ 000000018000e100 f   MSVCRT:thread_safe_statics.obj
 0001:0000d260       ?__scrt_uninitialize_thread_safe_statics@@YAXXZ 000000018000e260 f   MSVCRT:thread_safe_statics.obj
 0001:0000d520       $$000000                   000000018000e520     MSVCRT:amdsecgs.obj
 0001:0000d580       ?dllmain_crt_dispatch@@YAHQEAUHINSTANCE__@@KQEAX@Z 000000018000e580 f   MSVCRT:dll_dllmain.obj
 0001:0000d5d0       ?dllmain_crt_process_attach@@YAHQEAUHINSTANCE__@@QEAX@Z 000000018000e5d0 f   MSVCRT:dll_dllmain.obj
 0001:0000d6ec       ?dllmain_crt_process_detach@@YAH_N@Z 000000018000e6ec f   MSVCRT:dll_dllmain.obj
 0001:0000d77c       ?dllmain_dispatch@@YAHQEAUHINSTANCE__@@KQEAX@Z 000000018000e77c f   MSVCRT:dll_dllmain.obj
 0001:0000e03c       capture_previous_context   000000018000f03c f   MSVCRT:gs_report.obj
 0001:0000e470       $$000000                   000000018000f470     MSVCRT:guard_dispatch.obj
 0001:0000e490       _wrap_add_cref$catch$5     000000018000f490 f   xref.obj
 0001:0000e49d       __catch$_wrap_add_cref$4   000000018000f49d f   xref.obj
 0001:0000e4c3       _wrap_add_cref$catch$4     000000018000f4c3 f   xref.obj
 0001:0000e4d0       __catch$_wrap_add_cref$6   000000018000f4d0 f   xref.obj
 0001:0000e4fc       _wrap_add_cref$catch$3     000000018000f4fc f   xref.obj
 0001:0000e509       __catch$_wrap_add_cref$8   000000018000f509 f   xref.obj
 0001:0000e521       _wrap_add_cref$catch$2     000000018000f521 f   xref.obj
 0001:0000e52e       __catch$_wrap_add_cref$10  000000018000f52e f   xref.obj
 0001:0000e546       _wrap_add_cref$catch$1     000000018000f546 f   xref.obj
 0001:0000e553       __catch$_wrap_add_cref$12  000000018000f553 f   xref.obj
 0001:0000e57f       _wrap_add_cref$catch$0     000000018000f57f f   xref.obj
 0001:0000e58c       __catch$_wrap_add_cref$14  000000018000f58c f   xref.obj
 0001:0000e5c0       _wrap_add_dref$catch$5     000000018000f5c0 f   xref.obj
 0001:0000e5cd       __catch$_wrap_add_dref$4   000000018000f5cd f   xref.obj
 0001:0000e5f3       _wrap_add_dref$catch$4     000000018000f5f3 f   xref.obj
 0001:0000e600       __catch$_wrap_add_dref$6   000000018000f600 f   xref.obj
 0001:0000e62c       _wrap_add_dref$catch$3     000000018000f62c f   xref.obj
 0001:0000e639       __catch$_wrap_add_dref$8   000000018000f639 f   xref.obj
 0001:0000e651       _wrap_add_dref$catch$2     000000018000f651 f   xref.obj
 0001:0000e65e       __catch$_wrap_add_dref$10  000000018000f65e f   xref.obj
 0001:0000e676       _wrap_add_dref$catch$1     000000018000f676 f   xref.obj
 0001:0000e683       __catch$_wrap_add_dref$12  000000018000f683 f   xref.obj
 0001:0000e6af       _wrap_add_dref$catch$0     000000018000f6af f   xref.obj
 0001:0000e6bc       __catch$_wrap_add_dref$14  000000018000f6bc f   xref.obj
 0001:0000e6f0       _wrap_calc_switch_cases$catch$2 000000018000f6f0 f   xref.obj
 0001:0000e6fd       __catch$_wrap_calc_switch_cases$4 000000018000f6fd f   xref.obj
 0001:0000e723       _wrap_calc_switch_cases$catch$3 000000018000f723 f   xref.obj
 0001:0000e730       __catch$_wrap_calc_switch_cases$6 000000018000f730 f   xref.obj
 0001:0000e75c       _wrap_calc_switch_cases$catch$4 000000018000f75c f   xref.obj
 0001:0000e769       __catch$_wrap_calc_switch_cases$8 000000018000f769 f   xref.obj
 0001:0000e781       _wrap_calc_switch_cases$catch$5 000000018000f781 f   xref.obj
 0001:0000e78e       __catch$_wrap_calc_switch_cases$10 000000018000f78e f   xref.obj
 0001:0000e7a6       _wrap_calc_switch_cases$catch$6 000000018000f7a6 f   xref.obj
 0001:0000e7b3       __catch$_wrap_calc_switch_cases$12 000000018000f7b3 f   xref.obj
 0001:0000e7df       _wrap_calc_switch_cases$catch$7 000000018000f7df f   xref.obj
 0001:0000e7ec       __catch$_wrap_calc_switch_cases$14 000000018000f7ec f   xref.obj
 0001:0000e820       _wrap_casevec_t___eq__$catch$5 000000018000f820 f   xref.obj
 0001:0000e82d       __catch$_wrap_casevec_t___eq__$4 000000018000f82d f   xref.obj
 0001:0000e853       _wrap_casevec_t___eq__$catch$4 000000018000f853 f   xref.obj
 0001:0000e860       __catch$_wrap_casevec_t___eq__$6 000000018000f860 f   xref.obj
 0001:0000e88c       _wrap_casevec_t___eq__$catch$3 000000018000f88c f   xref.obj
 0001:0000e899       __catch$_wrap_casevec_t___eq__$8 000000018000f899 f   xref.obj
 0001:0000e8b1       _wrap_casevec_t___eq__$catch$2 000000018000f8b1 f   xref.obj
 0001:0000e8be       __catch$_wrap_casevec_t___eq__$10 000000018000f8be f   xref.obj
 0001:0000e8d6       _wrap_casevec_t___eq__$catch$1 000000018000f8d6 f   xref.obj
 0001:0000e8e3       __catch$_wrap_casevec_t___eq__$12 000000018000f8e3 f   xref.obj
 0001:0000e90f       _wrap_casevec_t___eq__$catch$0 000000018000f90f f   xref.obj
 0001:0000e91c       __catch$_wrap_casevec_t___eq__$14 000000018000f91c f   xref.obj
 0001:0000e950       _wrap_casevec_t___getitem__$catch$0 000000018000f950 f   xref.obj
 0001:0000e95d       __catch$_wrap_casevec_t___getitem__$3 000000018000f95d f   xref.obj
 0001:0000e983       _wrap_casevec_t___getitem__$catch$1 000000018000f983 f   xref.obj
 0001:0000e990       __catch$_wrap_casevec_t___getitem__$5 000000018000f990 f   xref.obj
 0001:0000e9bc       _wrap_casevec_t___getitem__$catch$2 000000018000f9bc f   xref.obj
 0001:0000e9c9       __catch$_wrap_casevec_t___getitem__$7 000000018000f9c9 f   xref.obj
 0001:0000e9e1       _wrap_casevec_t___getitem__$catch$3 000000018000f9e1 f   xref.obj
 0001:0000e9ee       __catch$_wrap_casevec_t___getitem__$9 000000018000f9ee f   xref.obj
 0001:0000ea06       _wrap_casevec_t___getitem__$catch$4 000000018000fa06 f   xref.obj
 0001:0000ea13       __catch$_wrap_casevec_t___getitem__$11 000000018000fa13 f   xref.obj
 0001:0000ea3f       _wrap_casevec_t___getitem__$catch$5 000000018000fa3f f   xref.obj
 0001:0000ea4c       __catch$_wrap_casevec_t___getitem__$13 000000018000fa4c f   xref.obj
 0001:0000ea80       _wrap_casevec_t___len__$catch$5 000000018000fa80 f   xref.obj
 0001:0000ea8d       __catch$_wrap_casevec_t___len__$2 000000018000fa8d f   xref.obj
 0001:0000eab3       _wrap_casevec_t___len__$catch$4 000000018000fab3 f   xref.obj
 0001:0000eac0       __catch$_wrap_casevec_t___len__$4 000000018000fac0 f   xref.obj
 0001:0000eaec       _wrap_casevec_t___len__$catch$3 000000018000faec f   xref.obj
 0001:0000eaf9       __catch$_wrap_casevec_t___len__$6 000000018000faf9 f   xref.obj
 0001:0000eb11       _wrap_casevec_t___len__$catch$2 000000018000fb11 f   xref.obj
 0001:0000eb1e       __catch$_wrap_casevec_t___len__$8 000000018000fb1e f   xref.obj
 0001:0000eb36       _wrap_casevec_t___len__$catch$1 000000018000fb36 f   xref.obj
 0001:0000eb43       __catch$_wrap_casevec_t___len__$10 000000018000fb43 f   xref.obj
 0001:0000eb6f       _wrap_casevec_t___len__$catch$0 000000018000fb6f f   xref.obj
 0001:0000eb7c       __catch$_wrap_casevec_t___len__$12 000000018000fb7c f   xref.obj
 0001:0000ebb0       _wrap_casevec_t___ne__$catch$5 000000018000fbb0 f   xref.obj
 0001:0000ebbd       __catch$_wrap_casevec_t___ne__$4 000000018000fbbd f   xref.obj
 0001:0000ebe3       _wrap_casevec_t___ne__$catch$4 000000018000fbe3 f   xref.obj
 0001:0000ebf0       __catch$_wrap_casevec_t___ne__$6 000000018000fbf0 f   xref.obj
 0001:0000ec1c       _wrap_casevec_t___ne__$catch$3 000000018000fc1c f   xref.obj
 0001:0000ec29       __catch$_wrap_casevec_t___ne__$8 000000018000fc29 f   xref.obj
 0001:0000ec41       _wrap_casevec_t___ne__$catch$2 000000018000fc41 f   xref.obj
 0001:0000ec4e       __catch$_wrap_casevec_t___ne__$10 000000018000fc4e f   xref.obj
 0001:0000ec66       _wrap_casevec_t___ne__$catch$1 000000018000fc66 f   xref.obj
 0001:0000ec73       __catch$_wrap_casevec_t___ne__$12 000000018000fc73 f   xref.obj
 0001:0000ec9f       _wrap_casevec_t___ne__$catch$0 000000018000fc9f f   xref.obj
 0001:0000ecac       __catch$_wrap_casevec_t___ne__$14 000000018000fcac f   xref.obj
 0001:0000ece0       _wrap_casevec_t___setitem__$catch$0 000000018000fce0 f   xref.obj
 0001:0000eced       __catch$_wrap_casevec_t___setitem__$5 000000018000fced f   xref.obj
 0001:0000ed13       _wrap_casevec_t___setitem__$catch$1 000000018000fd13 f   xref.obj
 0001:0000ed20       __catch$_wrap_casevec_t___setitem__$7 000000018000fd20 f   xref.obj
 0001:0000ed4c       _wrap_casevec_t___setitem__$catch$2 000000018000fd4c f   xref.obj
 0001:0000ed59       __catch$_wrap_casevec_t___setitem__$9 000000018000fd59 f   xref.obj
 0001:0000ed71       _wrap_casevec_t___setitem__$catch$3 000000018000fd71 f   xref.obj
 0001:0000ed7e       __catch$_wrap_casevec_t___setitem__$11 000000018000fd7e f   xref.obj
 0001:0000ed96       _wrap_casevec_t___setitem__$catch$4 000000018000fd96 f   xref.obj
 0001:0000eda3       __catch$_wrap_casevec_t___setitem__$13 000000018000fda3 f   xref.obj
 0001:0000edcf       _wrap_casevec_t___setitem__$catch$5 000000018000fdcf f   xref.obj
 0001:0000eddc       __catch$_wrap_casevec_t___setitem__$15 000000018000fddc f   xref.obj
 0001:0000ee10       _wrap_casevec_t__del$catch$5 000000018000fe10 f   xref.obj
 0001:0000ee1d       __catch$_wrap_casevec_t__del$4 000000018000fe1d f   xref.obj
 0001:0000ee43       _wrap_casevec_t__del$catch$4 000000018000fe43 f   xref.obj
 0001:0000ee50       __catch$_wrap_casevec_t__del$6 000000018000fe50 f   xref.obj
 0001:0000ee7c       _wrap_casevec_t__del$catch$3 000000018000fe7c f   xref.obj
 0001:0000ee89       __catch$_wrap_casevec_t__del$8 000000018000fe89 f   xref.obj
 0001:0000eea1       _wrap_casevec_t__del$catch$2 000000018000fea1 f   xref.obj
 0001:0000eeae       __catch$_wrap_casevec_t__del$10 000000018000feae f   xref.obj
 0001:0000eec6       _wrap_casevec_t__del$catch$1 000000018000fec6 f   xref.obj
 0001:0000eed3       __catch$_wrap_casevec_t__del$12 000000018000fed3 f   xref.obj
 0001:0000eeff       _wrap_casevec_t__del$catch$0 000000018000feff f   xref.obj
 0001:0000ef0c       __catch$_wrap_casevec_t__del$14 000000018000ff0c f   xref.obj
 0001:0000ef40       _wrap_casevec_t_add_unique$catch$5 000000018000ff40 f   xref.obj
 0001:0000ef4d       __catch$_wrap_casevec_t_add_unique$4 000000018000ff4d f   xref.obj
 0001:0000ef73       _wrap_casevec_t_add_unique$catch$4 000000018000ff73 f   xref.obj
 0001:0000ef80       __catch$_wrap_casevec_t_add_unique$6 000000018000ff80 f   xref.obj
 0001:0000efac       _wrap_casevec_t_add_unique$catch$3 000000018000ffac f   xref.obj
 0001:0000efb9       __catch$_wrap_casevec_t_add_unique$8 000000018000ffb9 f   xref.obj
 0001:0000efd1       _wrap_casevec_t_add_unique$catch$2 000000018000ffd1 f   xref.obj
 0001:0000efde       __catch$_wrap_casevec_t_add_unique$10 000000018000ffde f   xref.obj
 0001:0000eff6       _wrap_casevec_t_add_unique$catch$1 000000018000fff6 f   xref.obj
 0001:0000f003       __catch$_wrap_casevec_t_add_unique$12 0000000180010003 f   xref.obj
 0001:0000f02f       _wrap_casevec_t_add_unique$catch$0 000000018001002f f   xref.obj
 0001:0000f03c       __catch$_wrap_casevec_t_add_unique$14 000000018001003c f   xref.obj
 0001:0000f070       _wrap_casevec_t_at$catch$5 0000000180010070 f   xref.obj
 0001:0000f07d       __catch$_wrap_casevec_t_at$3 000000018001007d f   xref.obj
 0001:0000f0a3       _wrap_casevec_t_at$catch$4 00000001800100a3 f   xref.obj
 0001:0000f0b0       __catch$_wrap_casevec_t_at$5 00000001800100b0 f   xref.obj
 0001:0000f0dc       _wrap_casevec_t_at$catch$3 00000001800100dc f   xref.obj
 0001:0000f0e9       __catch$_wrap_casevec_t_at$7 00000001800100e9 f   xref.obj
 0001:0000f101       _wrap_casevec_t_at$catch$2 0000000180010101 f   xref.obj
 0001:0000f10e       __catch$_wrap_casevec_t_at$9 000000018001010e f   xref.obj
 0001:0000f126       _wrap_casevec_t_at$catch$1 0000000180010126 f   xref.obj
 0001:0000f133       __catch$_wrap_casevec_t_at$11 0000000180010133 f   xref.obj
 0001:0000f15f       _wrap_casevec_t_at$catch$0 000000018001015f f   xref.obj
 0001:0000f16c       __catch$_wrap_casevec_t_at$13 000000018001016c f   xref.obj
 0001:0000f1a0       _wrap_casevec_t_begin__SWIG_0$catch$5 00000001800101a0 f   xref.obj
 0001:0000f1ad       __catch$_wrap_casevec_t_begin__SWIG_0$2 00000001800101ad f   xref.obj
 0001:0000f1d3       _wrap_casevec_t_begin__SWIG_0$catch$4 00000001800101d3 f   xref.obj
 0001:0000f1e0       __catch$_wrap_casevec_t_begin__SWIG_0$4 00000001800101e0 f   xref.obj
 0001:0000f20c       _wrap_casevec_t_begin__SWIG_0$catch$3 000000018001020c f   xref.obj
 0001:0000f219       __catch$_wrap_casevec_t_begin__SWIG_0$6 0000000180010219 f   xref.obj
 0001:0000f231       _wrap_casevec_t_begin__SWIG_0$catch$2 0000000180010231 f   xref.obj
 0001:0000f23e       __catch$_wrap_casevec_t_begin__SWIG_0$8 000000018001023e f   xref.obj
 0001:0000f256       _wrap_casevec_t_begin__SWIG_0$catch$1 0000000180010256 f   xref.obj
 0001:0000f263       __catch$_wrap_casevec_t_begin__SWIG_0$10 0000000180010263 f   xref.obj
 0001:0000f28f       _wrap_casevec_t_begin__SWIG_0$catch$0 000000018001028f f   xref.obj
 0001:0000f29c       __catch$_wrap_casevec_t_begin__SWIG_0$12 000000018001029c f   xref.obj
 0001:0000f2d0       _wrap_casevec_t_begin__SWIG_1$catch$5 00000001800102d0 f   xref.obj
 0001:0000f2dd       __catch$_wrap_casevec_t_begin__SWIG_1$2 00000001800102dd f   xref.obj
 0001:0000f303       _wrap_casevec_t_begin__SWIG_1$catch$4 0000000180010303 f   xref.obj
 0001:0000f310       __catch$_wrap_casevec_t_begin__SWIG_1$4 0000000180010310 f   xref.obj
 0001:0000f33c       _wrap_casevec_t_begin__SWIG_1$catch$3 000000018001033c f   xref.obj
 0001:0000f349       __catch$_wrap_casevec_t_begin__SWIG_1$6 0000000180010349 f   xref.obj
 0001:0000f361       _wrap_casevec_t_begin__SWIG_1$catch$2 0000000180010361 f   xref.obj
 0001:0000f36e       __catch$_wrap_casevec_t_begin__SWIG_1$8 000000018001036e f   xref.obj
 0001:0000f386       _wrap_casevec_t_begin__SWIG_1$catch$1 0000000180010386 f   xref.obj
 0001:0000f393       __catch$_wrap_casevec_t_begin__SWIG_1$10 0000000180010393 f   xref.obj
 0001:0000f3bf       _wrap_casevec_t_begin__SWIG_1$catch$0 00000001800103bf f   xref.obj
 0001:0000f3cc       __catch$_wrap_casevec_t_begin__SWIG_1$12 00000001800103cc f   xref.obj
 0001:0000f400       _wrap_casevec_t_capacity$catch$5 0000000180010400 f   xref.obj
 0001:0000f40d       __catch$_wrap_casevec_t_capacity$2 000000018001040d f   xref.obj
 0001:0000f433       _wrap_casevec_t_capacity$catch$4 0000000180010433 f   xref.obj
 0001:0000f440       __catch$_wrap_casevec_t_capacity$4 0000000180010440 f   xref.obj
 0001:0000f46c       _wrap_casevec_t_capacity$catch$3 000000018001046c f   xref.obj
 0001:0000f479       __catch$_wrap_casevec_t_capacity$6 0000000180010479 f   xref.obj
 0001:0000f491       _wrap_casevec_t_capacity$catch$2 0000000180010491 f   xref.obj
 0001:0000f49e       __catch$_wrap_casevec_t_capacity$8 000000018001049e f   xref.obj
 0001:0000f4b6       _wrap_casevec_t_capacity$catch$1 00000001800104b6 f   xref.obj
 0001:0000f4c3       __catch$_wrap_casevec_t_capacity$10 00000001800104c3 f   xref.obj
 0001:0000f4ef       _wrap_casevec_t_capacity$catch$0 00000001800104ef f   xref.obj
 0001:0000f4fc       __catch$_wrap_casevec_t_capacity$12 00000001800104fc f   xref.obj
 0001:0000f530       _wrap_casevec_t_clear$catch$5 0000000180010530 f   xref.obj
 0001:0000f53d       __catch$_wrap_casevec_t_clear$2 000000018001053d f   xref.obj
 0001:0000f563       _wrap_casevec_t_clear$catch$4 0000000180010563 f   xref.obj
 0001:0000f570       __catch$_wrap_casevec_t_clear$4 0000000180010570 f   xref.obj
 0001:0000f59c       _wrap_casevec_t_clear$catch$3 000000018001059c f   xref.obj
 0001:0000f5a9       __catch$_wrap_casevec_t_clear$6 00000001800105a9 f   xref.obj
 0001:0000f5c1       _wrap_casevec_t_clear$catch$2 00000001800105c1 f   xref.obj
 0001:0000f5ce       __catch$_wrap_casevec_t_clear$8 00000001800105ce f   xref.obj
 0001:0000f5e6       _wrap_casevec_t_clear$catch$1 00000001800105e6 f   xref.obj
 0001:0000f5f3       __catch$_wrap_casevec_t_clear$10 00000001800105f3 f   xref.obj
 0001:0000f61f       _wrap_casevec_t_clear$catch$0 000000018001061f f   xref.obj
 0001:0000f62c       __catch$_wrap_casevec_t_clear$12 000000018001062c f   xref.obj
 0001:0000f660       _wrap_casevec_t_empty$catch$5 0000000180010660 f   xref.obj
 0001:0000f66d       __catch$_wrap_casevec_t_empty$2 000000018001066d f   xref.obj
 0001:0000f693       _wrap_casevec_t_empty$catch$4 0000000180010693 f   xref.obj
 0001:0000f6a0       __catch$_wrap_casevec_t_empty$4 00000001800106a0 f   xref.obj
 0001:0000f6cc       _wrap_casevec_t_empty$catch$3 00000001800106cc f   xref.obj
 0001:0000f6d9       __catch$_wrap_casevec_t_empty$6 00000001800106d9 f   xref.obj
 0001:0000f6f1       _wrap_casevec_t_empty$catch$2 00000001800106f1 f   xref.obj
 0001:0000f6fe       __catch$_wrap_casevec_t_empty$8 00000001800106fe f   xref.obj
 0001:0000f716       _wrap_casevec_t_empty$catch$1 0000000180010716 f   xref.obj
 0001:0000f723       __catch$_wrap_casevec_t_empty$10 0000000180010723 f   xref.obj
 0001:0000f74f       _wrap_casevec_t_empty$catch$0 000000018001074f f   xref.obj
 0001:0000f75c       __catch$_wrap_casevec_t_empty$12 000000018001075c f   xref.obj
 0001:0000f790       _wrap_casevec_t_end__SWIG_0$catch$5 0000000180010790 f   xref.obj
 0001:0000f79d       __catch$_wrap_casevec_t_end__SWIG_0$2 000000018001079d f   xref.obj
 0001:0000f7c3       _wrap_casevec_t_end__SWIG_0$catch$4 00000001800107c3 f   xref.obj
 0001:0000f7d0       __catch$_wrap_casevec_t_end__SWIG_0$4 00000001800107d0 f   xref.obj
 0001:0000f7fc       _wrap_casevec_t_end__SWIG_0$catch$3 00000001800107fc f   xref.obj
 0001:0000f809       __catch$_wrap_casevec_t_end__SWIG_0$6 0000000180010809 f   xref.obj
 0001:0000f821       _wrap_casevec_t_end__SWIG_0$catch$2 0000000180010821 f   xref.obj
 0001:0000f82e       __catch$_wrap_casevec_t_end__SWIG_0$8 000000018001082e f   xref.obj
 0001:0000f846       _wrap_casevec_t_end__SWIG_0$catch$1 0000000180010846 f   xref.obj
 0001:0000f853       __catch$_wrap_casevec_t_end__SWIG_0$10 0000000180010853 f   xref.obj
 0001:0000f87f       _wrap_casevec_t_end__SWIG_0$catch$0 000000018001087f f   xref.obj
 0001:0000f88c       __catch$_wrap_casevec_t_end__SWIG_0$12 000000018001088c f   xref.obj
 0001:0000f8c0       _wrap_casevec_t_end__SWIG_1$catch$5 00000001800108c0 f   xref.obj
 0001:0000f8cd       __catch$_wrap_casevec_t_end__SWIG_1$2 00000001800108cd f   xref.obj
 0001:0000f8f3       _wrap_casevec_t_end__SWIG_1$catch$4 00000001800108f3 f   xref.obj
 0001:0000f900       __catch$_wrap_casevec_t_end__SWIG_1$4 0000000180010900 f   xref.obj
 0001:0000f92c       _wrap_casevec_t_end__SWIG_1$catch$3 000000018001092c f   xref.obj
 0001:0000f939       __catch$_wrap_casevec_t_end__SWIG_1$6 0000000180010939 f   xref.obj
 0001:0000f951       _wrap_casevec_t_end__SWIG_1$catch$2 0000000180010951 f   xref.obj
 0001:0000f95e       __catch$_wrap_casevec_t_end__SWIG_1$8 000000018001095e f   xref.obj
 0001:0000f976       _wrap_casevec_t_end__SWIG_1$catch$1 0000000180010976 f   xref.obj
 0001:0000f983       __catch$_wrap_casevec_t_end__SWIG_1$10 0000000180010983 f   xref.obj
 0001:0000f9af       _wrap_casevec_t_end__SWIG_1$catch$0 00000001800109af f   xref.obj
 0001:0000f9bc       __catch$_wrap_casevec_t_end__SWIG_1$12 00000001800109bc f   xref.obj
 0001:0000f9f0       _wrap_casevec_t_erase__SWIG_0$catch$5 00000001800109f0 f   xref.obj
 0001:0000f9fd       __catch$_wrap_casevec_t_erase__SWIG_0$3 00000001800109fd f   xref.obj
 0001:0000fa23       _wrap_casevec_t_erase__SWIG_0$catch$4 0000000180010a23 f   xref.obj
 0001:0000fa30       __catch$_wrap_casevec_t_erase__SWIG_0$5 0000000180010a30 f   xref.obj
 0001:0000fa5c       _wrap_casevec_t_erase__SWIG_0$catch$3 0000000180010a5c f   xref.obj
 0001:0000fa69       __catch$_wrap_casevec_t_erase__SWIG_0$7 0000000180010a69 f   xref.obj
 0001:0000fa81       _wrap_casevec_t_erase__SWIG_0$catch$2 0000000180010a81 f   xref.obj
 0001:0000fa8e       __catch$_wrap_casevec_t_erase__SWIG_0$9 0000000180010a8e f   xref.obj
 0001:0000faa6       _wrap_casevec_t_erase__SWIG_0$catch$1 0000000180010aa6 f   xref.obj
 0001:0000fab3       __catch$_wrap_casevec_t_erase__SWIG_0$11 0000000180010ab3 f   xref.obj
 0001:0000fadf       _wrap_casevec_t_erase__SWIG_0$catch$0 0000000180010adf f   xref.obj
 0001:0000faec       __catch$_wrap_casevec_t_erase__SWIG_0$13 0000000180010aec f   xref.obj
 0001:0000fb20       _wrap_casevec_t_erase__SWIG_1$catch$5 0000000180010b20 f   xref.obj
 0001:0000fb2d       __catch$_wrap_casevec_t_erase__SWIG_1$4 0000000180010b2d f   xref.obj
 0001:0000fb53       _wrap_casevec_t_erase__SWIG_1$catch$4 0000000180010b53 f   xref.obj
 0001:0000fb60       __catch$_wrap_casevec_t_erase__SWIG_1$6 0000000180010b60 f   xref.obj
 0001:0000fb8c       _wrap_casevec_t_erase__SWIG_1$catch$3 0000000180010b8c f   xref.obj
 0001:0000fb99       __catch$_wrap_casevec_t_erase__SWIG_1$8 0000000180010b99 f   xref.obj
 0001:0000fbb1       _wrap_casevec_t_erase__SWIG_1$catch$2 0000000180010bb1 f   xref.obj
 0001:0000fbbe       __catch$_wrap_casevec_t_erase__SWIG_1$10 0000000180010bbe f   xref.obj
 0001:0000fbd6       _wrap_casevec_t_erase__SWIG_1$catch$1 0000000180010bd6 f   xref.obj
 0001:0000fbe3       __catch$_wrap_casevec_t_erase__SWIG_1$12 0000000180010be3 f   xref.obj
 0001:0000fc0f       _wrap_casevec_t_erase__SWIG_1$catch$0 0000000180010c0f f   xref.obj
 0001:0000fc1c       __catch$_wrap_casevec_t_erase__SWIG_1$14 0000000180010c1c f   xref.obj
 0001:0000fc50       _wrap_casevec_t_extract$catch$5 0000000180010c50 f   xref.obj
 0001:0000fc5d       __catch$_wrap_casevec_t_extract$2 0000000180010c5d f   xref.obj
 0001:0000fc83       _wrap_casevec_t_extract$catch$4 0000000180010c83 f   xref.obj
 0001:0000fc90       __catch$_wrap_casevec_t_extract$4 0000000180010c90 f   xref.obj
 0001:0000fcbc       _wrap_casevec_t_extract$catch$3 0000000180010cbc f   xref.obj
 0001:0000fcc9       __catch$_wrap_casevec_t_extract$6 0000000180010cc9 f   xref.obj
 0001:0000fce1       _wrap_casevec_t_extract$catch$2 0000000180010ce1 f   xref.obj
 0001:0000fcee       __catch$_wrap_casevec_t_extract$8 0000000180010cee f   xref.obj
 0001:0000fd06       _wrap_casevec_t_extract$catch$1 0000000180010d06 f   xref.obj
 0001:0000fd13       __catch$_wrap_casevec_t_extract$10 0000000180010d13 f   xref.obj
 0001:0000fd3f       _wrap_casevec_t_extract$catch$0 0000000180010d3f f   xref.obj
 0001:0000fd4c       __catch$_wrap_casevec_t_extract$12 0000000180010d4c f   xref.obj
 0001:0000fd80       _wrap_casevec_t_find__SWIG_0$catch$5 0000000180010d80 f   xref.obj
 0001:0000fd8d       __catch$_wrap_casevec_t_find__SWIG_0$4 0000000180010d8d f   xref.obj
 0001:0000fdb3       _wrap_casevec_t_find__SWIG_0$catch$4 0000000180010db3 f   xref.obj
 0001:0000fdc0       __catch$_wrap_casevec_t_find__SWIG_0$6 0000000180010dc0 f   xref.obj
 0001:0000fdec       _wrap_casevec_t_find__SWIG_0$catch$3 0000000180010dec f   xref.obj
 0001:0000fdf9       __catch$_wrap_casevec_t_find__SWIG_0$8 0000000180010df9 f   xref.obj
 0001:0000fe11       _wrap_casevec_t_find__SWIG_0$catch$2 0000000180010e11 f   xref.obj
 0001:0000fe1e       __catch$_wrap_casevec_t_find__SWIG_0$10 0000000180010e1e f   xref.obj
 0001:0000fe36       _wrap_casevec_t_find__SWIG_0$catch$1 0000000180010e36 f   xref.obj
 0001:0000fe43       __catch$_wrap_casevec_t_find__SWIG_0$12 0000000180010e43 f   xref.obj
 0001:0000fe6f       _wrap_casevec_t_find__SWIG_0$catch$0 0000000180010e6f f   xref.obj
 0001:0000fe7c       __catch$_wrap_casevec_t_find__SWIG_0$14 0000000180010e7c f   xref.obj
 0001:0000feb0       _wrap_casevec_t_find__SWIG_1$catch$5 0000000180010eb0 f   xref.obj
 0001:0000febd       __catch$_wrap_casevec_t_find__SWIG_1$4 0000000180010ebd f   xref.obj
 0001:0000fee3       _wrap_casevec_t_find__SWIG_1$catch$4 0000000180010ee3 f   xref.obj
 0001:0000fef0       __catch$_wrap_casevec_t_find__SWIG_1$6 0000000180010ef0 f   xref.obj
 0001:0000ff1c       _wrap_casevec_t_find__SWIG_1$catch$3 0000000180010f1c f   xref.obj
 0001:0000ff29       __catch$_wrap_casevec_t_find__SWIG_1$8 0000000180010f29 f   xref.obj
 0001:0000ff41       _wrap_casevec_t_find__SWIG_1$catch$2 0000000180010f41 f   xref.obj
 0001:0000ff4e       __catch$_wrap_casevec_t_find__SWIG_1$10 0000000180010f4e f   xref.obj
 0001:0000ff66       _wrap_casevec_t_find__SWIG_1$catch$1 0000000180010f66 f   xref.obj
 0001:0000ff73       __catch$_wrap_casevec_t_find__SWIG_1$12 0000000180010f73 f   xref.obj
 0001:0000ff9f       _wrap_casevec_t_find__SWIG_1$catch$0 0000000180010f9f f   xref.obj
 0001:0000ffac       __catch$_wrap_casevec_t_find__SWIG_1$14 0000000180010fac f   xref.obj
 0001:0000ffe0       _wrap_casevec_t_grow$catch$6 0000000180010fe0 f   xref.obj
 0001:0000ffed       __catch$_wrap_casevec_t_grow$4 0000000180010fed f   xref.obj
 0001:00010013       _wrap_casevec_t_grow$catch$5 0000000180011013 f   xref.obj
 0001:00010020       __catch$_wrap_casevec_t_grow$6 0000000180011020 f   xref.obj
 0001:0001004c       _wrap_casevec_t_grow$catch$4 000000018001104c f   xref.obj
 0001:00010059       __catch$_wrap_casevec_t_grow$8 0000000180011059 f   xref.obj
 0001:00010071       _wrap_casevec_t_grow$catch$3 0000000180011071 f   xref.obj
 0001:0001007e       __catch$_wrap_casevec_t_grow$10 000000018001107e f   xref.obj
 0001:00010096       _wrap_casevec_t_grow$catch$2 0000000180011096 f   xref.obj
 0001:000100a3       __catch$_wrap_casevec_t_grow$12 00000001800110a3 f   xref.obj
 0001:000100cf       _wrap_casevec_t_grow$catch$1 00000001800110cf f   xref.obj
 0001:000100dc       __catch$_wrap_casevec_t_grow$14 00000001800110dc f   xref.obj
 0001:00010110       _wrap_casevec_t_grow$dtor$0 0000000180011110 f   xref.obj
 0001:00010120       _wrap_casevec_t_has$catch$5 0000000180011120 f   xref.obj
 0001:0001012d       __catch$_wrap_casevec_t_has$4 000000018001112d f   xref.obj
 0001:00010153       _wrap_casevec_t_has$catch$4 0000000180011153 f   xref.obj
 0001:00010160       __catch$_wrap_casevec_t_has$6 0000000180011160 f   xref.obj
 0001:0001018c       _wrap_casevec_t_has$catch$3 000000018001118c f   xref.obj
 0001:00010199       __catch$_wrap_casevec_t_has$8 0000000180011199 f   xref.obj
 0001:000101b1       _wrap_casevec_t_has$catch$2 00000001800111b1 f   xref.obj
 0001:000101be       __catch$_wrap_casevec_t_has$10 00000001800111be f   xref.obj
 0001:000101d6       _wrap_casevec_t_has$catch$1 00000001800111d6 f   xref.obj
 0001:000101e3       __catch$_wrap_casevec_t_has$12 00000001800111e3 f   xref.obj
 0001:0001020f       _wrap_casevec_t_has$catch$0 000000018001120f f   xref.obj
 0001:0001021c       __catch$_wrap_casevec_t_has$14 000000018001121c f   xref.obj
 0001:00010250       _wrap_casevec_t_inject$catch$5 0000000180011250 f   xref.obj
 0001:0001025d       __catch$_wrap_casevec_t_inject$4 000000018001125d f   xref.obj
 0001:00010283       _wrap_casevec_t_inject$catch$4 0000000180011283 f   xref.obj
 0001:00010290       __catch$_wrap_casevec_t_inject$6 0000000180011290 f   xref.obj
 0001:000102bc       _wrap_casevec_t_inject$catch$3 00000001800112bc f   xref.obj
 0001:000102c9       __catch$_wrap_casevec_t_inject$8 00000001800112c9 f   xref.obj
 0001:000102e1       _wrap_casevec_t_inject$catch$2 00000001800112e1 f   xref.obj
 0001:000102ee       __catch$_wrap_casevec_t_inject$10 00000001800112ee f   xref.obj
 0001:00010306       _wrap_casevec_t_inject$catch$1 0000000180011306 f   xref.obj
 0001:00010313       __catch$_wrap_casevec_t_inject$12 0000000180011313 f   xref.obj
 0001:0001033f       _wrap_casevec_t_inject$catch$0 000000018001133f f   xref.obj
 0001:0001034c       __catch$_wrap_casevec_t_inject$14 000000018001134c f   xref.obj
 0001:00010380       _wrap_casevec_t_insert$catch$5 0000000180011380 f   xref.obj
 0001:0001038d       __catch$_wrap_casevec_t_insert$5 000000018001138d f   xref.obj
 0001:000103b3       _wrap_casevec_t_insert$catch$4 00000001800113b3 f   xref.obj
 0001:000103c0       __catch$_wrap_casevec_t_insert$7 00000001800113c0 f   xref.obj
 0001:000103ec       _wrap_casevec_t_insert$catch$3 00000001800113ec f   xref.obj
 0001:000103f9       __catch$_wrap_casevec_t_insert$9 00000001800113f9 f   xref.obj
 0001:00010411       _wrap_casevec_t_insert$catch$2 0000000180011411 f   xref.obj
 0001:0001041e       __catch$_wrap_casevec_t_insert$11 000000018001141e f   xref.obj
 0001:00010436       _wrap_casevec_t_insert$catch$1 0000000180011436 f   xref.obj
 0001:00010443       __catch$_wrap_casevec_t_insert$13 0000000180011443 f   xref.obj
 0001:0001046f       _wrap_casevec_t_insert$catch$0 000000018001146f f   xref.obj
 0001:0001047c       __catch$_wrap_casevec_t_insert$15 000000018001147c f   xref.obj
 0001:000104b0       _wrap_casevec_t_pop_back$catch$5 00000001800114b0 f   xref.obj
 0001:000104bd       __catch$_wrap_casevec_t_pop_back$2 00000001800114bd f   xref.obj
 0001:000104e3       _wrap_casevec_t_pop_back$catch$4 00000001800114e3 f   xref.obj
 0001:000104f0       __catch$_wrap_casevec_t_pop_back$4 00000001800114f0 f   xref.obj
 0001:0001051c       _wrap_casevec_t_pop_back$catch$3 000000018001151c f   xref.obj
 0001:00010529       __catch$_wrap_casevec_t_pop_back$6 0000000180011529 f   xref.obj
 0001:00010541       _wrap_casevec_t_pop_back$catch$2 0000000180011541 f   xref.obj
 0001:0001054e       __catch$_wrap_casevec_t_pop_back$8 000000018001154e f   xref.obj
 0001:00010566       _wrap_casevec_t_pop_back$catch$1 0000000180011566 f   xref.obj
 0001:00010573       __catch$_wrap_casevec_t_pop_back$10 0000000180011573 f   xref.obj
 0001:0001059f       _wrap_casevec_t_pop_back$catch$0 000000018001159f f   xref.obj
 0001:000105ac       __catch$_wrap_casevec_t_pop_back$12 00000001800115ac f   xref.obj
 0001:000105e0       _wrap_casevec_t_push_back__SWIG_0$catch$5 00000001800115e0 f   xref.obj
 0001:000105ed       __catch$_wrap_casevec_t_push_back__SWIG_0$4 00000001800115ed f   xref.obj
 0001:00010613       _wrap_casevec_t_push_back__SWIG_0$catch$4 0000000180011613 f   xref.obj
 0001:00010620       __catch$_wrap_casevec_t_push_back__SWIG_0$6 0000000180011620 f   xref.obj
 0001:0001064c       _wrap_casevec_t_push_back__SWIG_0$catch$3 000000018001164c f   xref.obj
 0001:00010659       __catch$_wrap_casevec_t_push_back__SWIG_0$8 0000000180011659 f   xref.obj
 0001:00010671       _wrap_casevec_t_push_back__SWIG_0$catch$2 0000000180011671 f   xref.obj
 0001:0001067e       __catch$_wrap_casevec_t_push_back__SWIG_0$10 000000018001167e f   xref.obj
 0001:00010696       _wrap_casevec_t_push_back__SWIG_0$catch$1 0000000180011696 f   xref.obj
 0001:000106a3       __catch$_wrap_casevec_t_push_back__SWIG_0$12 00000001800116a3 f   xref.obj
 0001:000106cf       _wrap_casevec_t_push_back__SWIG_0$catch$0 00000001800116cf f   xref.obj
 0001:000106dc       __catch$_wrap_casevec_t_push_back__SWIG_0$14 00000001800116dc f   xref.obj
 0001:00010710       _wrap_casevec_t_push_back__SWIG_1$catch$5 0000000180011710 f   xref.obj
 0001:0001071d       __catch$_wrap_casevec_t_push_back__SWIG_1$2 000000018001171d f   xref.obj
 0001:00010743       _wrap_casevec_t_push_back__SWIG_1$catch$4 0000000180011743 f   xref.obj
 0001:00010750       __catch$_wrap_casevec_t_push_back__SWIG_1$4 0000000180011750 f   xref.obj
 0001:0001077c       _wrap_casevec_t_push_back__SWIG_1$catch$3 000000018001177c f   xref.obj
 0001:00010789       __catch$_wrap_casevec_t_push_back__SWIG_1$6 0000000180011789 f   xref.obj
 0001:000107a1       _wrap_casevec_t_push_back__SWIG_1$catch$2 00000001800117a1 f   xref.obj
 0001:000107ae       __catch$_wrap_casevec_t_push_back__SWIG_1$8 00000001800117ae f   xref.obj
 0001:000107c6       _wrap_casevec_t_push_back__SWIG_1$catch$1 00000001800117c6 f   xref.obj
 0001:000107d3       __catch$_wrap_casevec_t_push_back__SWIG_1$10 00000001800117d3 f   xref.obj
 0001:000107ff       _wrap_casevec_t_push_back__SWIG_1$catch$0 00000001800117ff f   xref.obj
 0001:0001080c       __catch$_wrap_casevec_t_push_back__SWIG_1$12 000000018001180c f   xref.obj
 0001:00010840       _wrap_casevec_t_qclear$catch$5 0000000180011840 f   xref.obj
 0001:0001084d       __catch$_wrap_casevec_t_qclear$2 000000018001184d f   xref.obj
 0001:00010873       _wrap_casevec_t_qclear$catch$4 0000000180011873 f   xref.obj
 0001:00010880       __catch$_wrap_casevec_t_qclear$4 0000000180011880 f   xref.obj
 0001:000108ac       _wrap_casevec_t_qclear$catch$3 00000001800118ac f   xref.obj
 0001:000108b9       __catch$_wrap_casevec_t_qclear$6 00000001800118b9 f   xref.obj
 0001:000108d1       _wrap_casevec_t_qclear$catch$2 00000001800118d1 f   xref.obj
 0001:000108de       __catch$_wrap_casevec_t_qclear$8 00000001800118de f   xref.obj
 0001:000108f6       _wrap_casevec_t_qclear$catch$1 00000001800118f6 f   xref.obj
 0001:00010903       __catch$_wrap_casevec_t_qclear$10 0000000180011903 f   xref.obj
 0001:0001092f       _wrap_casevec_t_qclear$catch$0 000000018001192f f   xref.obj
 0001:0001093c       __catch$_wrap_casevec_t_qclear$12 000000018001193c f   xref.obj
 0001:00010970       _wrap_casevec_t_reserve$catch$5 0000000180011970 f   xref.obj
 0001:0001097d       __catch$_wrap_casevec_t_reserve$3 000000018001197d f   xref.obj
 0001:000109a3       _wrap_casevec_t_reserve$catch$4 00000001800119a3 f   xref.obj
 0001:000109b0       __catch$_wrap_casevec_t_reserve$5 00000001800119b0 f   xref.obj
 0001:000109dc       _wrap_casevec_t_reserve$catch$3 00000001800119dc f   xref.obj
 0001:000109e9       __catch$_wrap_casevec_t_reserve$7 00000001800119e9 f   xref.obj
 0001:00010a01       _wrap_casevec_t_reserve$catch$2 0000000180011a01 f   xref.obj
 0001:00010a0e       __catch$_wrap_casevec_t_reserve$9 0000000180011a0e f   xref.obj
 0001:00010a26       _wrap_casevec_t_reserve$catch$1 0000000180011a26 f   xref.obj
 0001:00010a33       __catch$_wrap_casevec_t_reserve$11 0000000180011a33 f   xref.obj
 0001:00010a5f       _wrap_casevec_t_reserve$catch$0 0000000180011a5f f   xref.obj
 0001:00010a6c       __catch$_wrap_casevec_t_reserve$13 0000000180011a6c f   xref.obj
 0001:00010aa0       _wrap_casevec_t_resize__SWIG_0$catch$5 0000000180011aa0 f   xref.obj
 0001:00010aad       __catch$_wrap_casevec_t_resize__SWIG_0$5 0000000180011aad f   xref.obj
 0001:00010ad3       _wrap_casevec_t_resize__SWIG_0$catch$4 0000000180011ad3 f   xref.obj
 0001:00010ae0       __catch$_wrap_casevec_t_resize__SWIG_0$7 0000000180011ae0 f   xref.obj
 0001:00010b0c       _wrap_casevec_t_resize__SWIG_0$catch$3 0000000180011b0c f   xref.obj
 0001:00010b19       __catch$_wrap_casevec_t_resize__SWIG_0$9 0000000180011b19 f   xref.obj
 0001:00010b31       _wrap_casevec_t_resize__SWIG_0$catch$2 0000000180011b31 f   xref.obj
 0001:00010b3e       __catch$_wrap_casevec_t_resize__SWIG_0$11 0000000180011b3e f   xref.obj
 0001:00010b56       _wrap_casevec_t_resize__SWIG_0$catch$1 0000000180011b56 f   xref.obj
 0001:00010b63       __catch$_wrap_casevec_t_resize__SWIG_0$13 0000000180011b63 f   xref.obj
 0001:00010b8f       _wrap_casevec_t_resize__SWIG_0$catch$0 0000000180011b8f f   xref.obj
 0001:00010b9c       __catch$_wrap_casevec_t_resize__SWIG_0$15 0000000180011b9c f   xref.obj
 0001:00010bd0       _wrap_casevec_t_resize__SWIG_1$catch$5 0000000180011bd0 f   xref.obj
 0001:00010bdd       __catch$_wrap_casevec_t_resize__SWIG_1$3 0000000180011bdd f   xref.obj
 0001:00010c03       _wrap_casevec_t_resize__SWIG_1$catch$4 0000000180011c03 f   xref.obj
 0001:00010c10       __catch$_wrap_casevec_t_resize__SWIG_1$5 0000000180011c10 f   xref.obj
 0001:00010c3c       _wrap_casevec_t_resize__SWIG_1$catch$3 0000000180011c3c f   xref.obj
 0001:00010c49       __catch$_wrap_casevec_t_resize__SWIG_1$7 0000000180011c49 f   xref.obj
 0001:00010c61       _wrap_casevec_t_resize__SWIG_1$catch$2 0000000180011c61 f   xref.obj
 0001:00010c6e       __catch$_wrap_casevec_t_resize__SWIG_1$9 0000000180011c6e f   xref.obj
 0001:00010c86       _wrap_casevec_t_resize__SWIG_1$catch$1 0000000180011c86 f   xref.obj
 0001:00010c93       __catch$_wrap_casevec_t_resize__SWIG_1$11 0000000180011c93 f   xref.obj
 0001:00010cbf       _wrap_casevec_t_resize__SWIG_1$catch$0 0000000180011cbf f   xref.obj
 0001:00010ccc       __catch$_wrap_casevec_t_resize__SWIG_1$13 0000000180011ccc f   xref.obj
 0001:00010d00       _wrap_casevec_t_size$catch$5 0000000180011d00 f   xref.obj
 0001:00010d0d       __catch$_wrap_casevec_t_size$2 0000000180011d0d f   xref.obj
 0001:00010d33       _wrap_casevec_t_size$catch$4 0000000180011d33 f   xref.obj
 0001:00010d40       __catch$_wrap_casevec_t_size$4 0000000180011d40 f   xref.obj
 0001:00010d6c       _wrap_casevec_t_size$catch$3 0000000180011d6c f   xref.obj
 0001:00010d79       __catch$_wrap_casevec_t_size$6 0000000180011d79 f   xref.obj
 0001:00010d91       _wrap_casevec_t_size$catch$2 0000000180011d91 f   xref.obj
 0001:00010d9e       __catch$_wrap_casevec_t_size$8 0000000180011d9e f   xref.obj
 0001:00010db6       _wrap_casevec_t_size$catch$1 0000000180011db6 f   xref.obj
 0001:00010dc3       __catch$_wrap_casevec_t_size$10 0000000180011dc3 f   xref.obj
 0001:00010def       _wrap_casevec_t_size$catch$0 0000000180011def f   xref.obj
 0001:00010dfc       __catch$_wrap_casevec_t_size$12 0000000180011dfc f   xref.obj
 0001:00010e30       _wrap_casevec_t_swap$catch$5 0000000180011e30 f   xref.obj
 0001:00010e3d       __catch$_wrap_casevec_t_swap$4 0000000180011e3d f   xref.obj
 0001:00010e63       _wrap_casevec_t_swap$catch$4 0000000180011e63 f   xref.obj
 0001:00010e70       __catch$_wrap_casevec_t_swap$6 0000000180011e70 f   xref.obj
 0001:00010e9c       _wrap_casevec_t_swap$catch$3 0000000180011e9c f   xref.obj
 0001:00010ea9       __catch$_wrap_casevec_t_swap$8 0000000180011ea9 f   xref.obj
 0001:00010ec1       _wrap_casevec_t_swap$catch$2 0000000180011ec1 f   xref.obj
 0001:00010ece       __catch$_wrap_casevec_t_swap$10 0000000180011ece f   xref.obj
 0001:00010ee6       _wrap_casevec_t_swap$catch$1 0000000180011ee6 f   xref.obj
 0001:00010ef3       __catch$_wrap_casevec_t_swap$12 0000000180011ef3 f   xref.obj
 0001:00010f1f       _wrap_casevec_t_swap$catch$0 0000000180011f1f f   xref.obj
 0001:00010f2c       __catch$_wrap_casevec_t_swap$14 0000000180011f2c f   xref.obj
 0001:00010f60       _wrap_casevec_t_truncate$catch$5 0000000180011f60 f   xref.obj
 0001:00010f6d       __catch$_wrap_casevec_t_truncate$2 0000000180011f6d f   xref.obj
 0001:00010f93       _wrap_casevec_t_truncate$catch$4 0000000180011f93 f   xref.obj
 0001:00010fa0       __catch$_wrap_casevec_t_truncate$4 0000000180011fa0 f   xref.obj
 0001:00010fcc       _wrap_casevec_t_truncate$catch$3 0000000180011fcc f   xref.obj
 0001:00010fd9       __catch$_wrap_casevec_t_truncate$6 0000000180011fd9 f   xref.obj
 0001:00010ff1       _wrap_casevec_t_truncate$catch$2 0000000180011ff1 f   xref.obj
 0001:00010ffe       __catch$_wrap_casevec_t_truncate$8 0000000180011ffe f   xref.obj
 0001:00011016       _wrap_casevec_t_truncate$catch$1 0000000180012016 f   xref.obj
 0001:00011023       __catch$_wrap_casevec_t_truncate$10 0000000180012023 f   xref.obj
 0001:0001104f       _wrap_casevec_t_truncate$catch$0 000000018001204f f   xref.obj
 0001:0001105c       __catch$_wrap_casevec_t_truncate$12 000000018001205c f   xref.obj
 0001:00011090       _wrap_create_switch_table$catch$5 0000000180012090 f   xref.obj
 0001:0001109d       __catch$_wrap_create_switch_table$4 000000018001209d f   xref.obj
 0001:000110c3       _wrap_create_switch_table$catch$4 00000001800120c3 f   xref.obj
 0001:000110d0       __catch$_wrap_create_switch_table$6 00000001800120d0 f   xref.obj
 0001:000110fc       _wrap_create_switch_table$catch$3 00000001800120fc f   xref.obj
 0001:00011109       __catch$_wrap_create_switch_table$8 0000000180012109 f   xref.obj
 0001:00011121       _wrap_create_switch_table$catch$2 0000000180012121 f   xref.obj
 0001:0001112e       __catch$_wrap_create_switch_table$10 000000018001212e f   xref.obj
 0001:00011146       _wrap_create_switch_table$catch$1 0000000180012146 f   xref.obj
 0001:00011153       __catch$_wrap_create_switch_table$12 0000000180012153 f   xref.obj
 0001:0001117f       _wrap_create_switch_table$catch$0 000000018001217f f   xref.obj
 0001:0001118c       __catch$_wrap_create_switch_table$14 000000018001218c f   xref.obj
 0001:000111c0       _wrap_create_switch_xrefs$catch$5 00000001800121c0 f   xref.obj
 0001:000111cd       __catch$_wrap_create_switch_xrefs$4 00000001800121cd f   xref.obj
 0001:000111f3       _wrap_create_switch_xrefs$catch$4 00000001800121f3 f   xref.obj
 0001:00011200       __catch$_wrap_create_switch_xrefs$6 0000000180012200 f   xref.obj
 0001:0001122c       _wrap_create_switch_xrefs$catch$3 000000018001222c f   xref.obj
 0001:00011239       __catch$_wrap_create_switch_xrefs$8 0000000180012239 f   xref.obj
 0001:00011251       _wrap_create_switch_xrefs$catch$2 0000000180012251 f   xref.obj
 0001:0001125e       __catch$_wrap_create_switch_xrefs$10 000000018001225e f   xref.obj
 0001:00011276       _wrap_create_switch_xrefs$catch$1 0000000180012276 f   xref.obj
 0001:00011283       __catch$_wrap_create_switch_xrefs$12 0000000180012283 f   xref.obj
 0001:000112af       _wrap_create_switch_xrefs$catch$0 00000001800122af f   xref.obj
 0001:000112bc       __catch$_wrap_create_switch_xrefs$14 00000001800122bc f   xref.obj
 0001:000112f0       _wrap_del_cref$catch$5     00000001800122f0 f   xref.obj
 0001:000112fd       __catch$_wrap_del_cref$4   00000001800122fd f   xref.obj
 0001:00011323       _wrap_del_cref$catch$4     0000000180012323 f   xref.obj
 0001:00011330       __catch$_wrap_del_cref$6   0000000180012330 f   xref.obj
 0001:0001135c       _wrap_del_cref$catch$3     000000018001235c f   xref.obj
 0001:00011369       __catch$_wrap_del_cref$8   0000000180012369 f   xref.obj
 0001:00011381       _wrap_del_cref$catch$2     0000000180012381 f   xref.obj
 0001:0001138e       __catch$_wrap_del_cref$10  000000018001238e f   xref.obj
 0001:000113a6       _wrap_del_cref$catch$1     00000001800123a6 f   xref.obj
 0001:000113b3       __catch$_wrap_del_cref$12  00000001800123b3 f   xref.obj
 0001:000113df       _wrap_del_cref$catch$0     00000001800123df f   xref.obj
 0001:000113ec       __catch$_wrap_del_cref$14  00000001800123ec f   xref.obj
 0001:00011420       _wrap_del_dref$catch$5     0000000180012420 f   xref.obj
 0001:0001142d       __catch$_wrap_del_dref$3   000000018001242d f   xref.obj
 0001:00011453       _wrap_del_dref$catch$4     0000000180012453 f   xref.obj
 0001:00011460       __catch$_wrap_del_dref$5   0000000180012460 f   xref.obj
 0001:0001148c       _wrap_del_dref$catch$3     000000018001248c f   xref.obj
 0001:00011499       __catch$_wrap_del_dref$7   0000000180012499 f   xref.obj
 0001:000114b1       _wrap_del_dref$catch$2     00000001800124b1 f   xref.obj
 0001:000114be       __catch$_wrap_del_dref$9   00000001800124be f   xref.obj
 0001:000114d6       _wrap_del_dref$catch$1     00000001800124d6 f   xref.obj
 0001:000114e3       __catch$_wrap_del_dref$11  00000001800124e3 f   xref.obj
 0001:0001150f       _wrap_del_dref$catch$0     000000018001250f f   xref.obj
 0001:0001151c       __catch$_wrap_del_dref$13  000000018001251c f   xref.obj
 0001:00011550       _wrap_delete_cases_and_targets_t$catch$6 0000000180012550 f   xref.obj
 0001:0001155d       __catch$_wrap_delete_cases_and_targets_t$2 000000018001255d f   xref.obj
 0001:00011583       _wrap_delete_cases_and_targets_t$catch$5 0000000180012583 f   xref.obj
 0001:00011590       __catch$_wrap_delete_cases_and_targets_t$4 0000000180012590 f   xref.obj
 0001:000115bc       _wrap_delete_cases_and_targets_t$catch$4 00000001800125bc f   xref.obj
 0001:000115c9       __catch$_wrap_delete_cases_and_targets_t$6 00000001800125c9 f   xref.obj
 0001:000115e1       _wrap_delete_cases_and_targets_t$catch$3 00000001800125e1 f   xref.obj
 0001:000115ee       __catch$_wrap_delete_cases_and_targets_t$8 00000001800125ee f   xref.obj
 0001:00011606       _wrap_delete_cases_and_targets_t$catch$2 0000000180012606 f   xref.obj
 0001:00011613       __catch$_wrap_delete_cases_and_targets_t$10 0000000180012613 f   xref.obj
 0001:0001163f       _wrap_delete_cases_and_targets_t$catch$1 000000018001263f f   xref.obj
 0001:0001164c       __catch$_wrap_delete_cases_and_targets_t$12 000000018001264c f   xref.obj
 0001:00011680       _wrap_delete_casevec_t$catch$5 0000000180012680 f   xref.obj
 0001:0001168d       __catch$_wrap_delete_casevec_t$2 000000018001268d f   xref.obj
 0001:000116b3       _wrap_delete_casevec_t$catch$4 00000001800126b3 f   xref.obj
 0001:000116c0       __catch$_wrap_delete_casevec_t$4 00000001800126c0 f   xref.obj
 0001:000116ec       _wrap_delete_casevec_t$catch$3 00000001800126ec f   xref.obj
 0001:000116f9       __catch$_wrap_delete_casevec_t$6 00000001800126f9 f   xref.obj
 0001:00011711       _wrap_delete_casevec_t$catch$2 0000000180012711 f   xref.obj
 0001:0001171e       __catch$_wrap_delete_casevec_t$8 000000018001271e f   xref.obj
 0001:00011736       _wrap_delete_casevec_t$catch$1 0000000180012736 f   xref.obj
 0001:00011743       __catch$_wrap_delete_casevec_t$10 0000000180012743 f   xref.obj
 0001:0001176f       _wrap_delete_casevec_t$catch$0 000000018001276f f   xref.obj
 0001:0001177c       __catch$_wrap_delete_casevec_t$12 000000018001277c f   xref.obj
 0001:000117b0       _wrap_delete_switch_table$catch$5 00000001800127b0 f   xref.obj
 0001:000117bd       __catch$_wrap_delete_switch_table$4 00000001800127bd f   xref.obj
 0001:000117e3       _wrap_delete_switch_table$catch$4 00000001800127e3 f   xref.obj
 0001:000117f0       __catch$_wrap_delete_switch_table$6 00000001800127f0 f   xref.obj
 0001:0001181c       _wrap_delete_switch_table$catch$3 000000018001281c f   xref.obj
 0001:00011829       __catch$_wrap_delete_switch_table$8 0000000180012829 f   xref.obj
 0001:00011841       _wrap_delete_switch_table$catch$2 0000000180012841 f   xref.obj
 0001:0001184e       __catch$_wrap_delete_switch_table$10 000000018001284e f   xref.obj
 0001:00011866       _wrap_delete_switch_table$catch$1 0000000180012866 f   xref.obj
 0001:00011873       __catch$_wrap_delete_switch_table$12 0000000180012873 f   xref.obj
 0001:0001189f       _wrap_delete_switch_table$catch$0 000000018001289f f   xref.obj
 0001:000118ac       __catch$_wrap_delete_switch_table$14 00000001800128ac f   xref.obj
 0001:000118e0       _wrap_delete_xrefblk_t$catch$5 00000001800128e0 f   xref.obj
 0001:000118ed       __catch$_wrap_delete_xrefblk_t$2 00000001800128ed f   xref.obj
 0001:00011913       _wrap_delete_xrefblk_t$catch$4 0000000180012913 f   xref.obj
 0001:00011920       __catch$_wrap_delete_xrefblk_t$4 0000000180012920 f   xref.obj
 0001:0001194c       _wrap_delete_xrefblk_t$catch$3 000000018001294c f   xref.obj
 0001:00011959       __catch$_wrap_delete_xrefblk_t$6 0000000180012959 f   xref.obj
 0001:00011971       _wrap_delete_xrefblk_t$catch$2 0000000180012971 f   xref.obj
 0001:0001197e       __catch$_wrap_delete_xrefblk_t$8 000000018001297e f   xref.obj
 0001:00011996       _wrap_delete_xrefblk_t$catch$1 0000000180012996 f   xref.obj
 0001:000119a3       __catch$_wrap_delete_xrefblk_t$10 00000001800129a3 f   xref.obj
 0001:000119cf       _wrap_delete_xrefblk_t$catch$0 00000001800129cf f   xref.obj
 0001:000119dc       __catch$_wrap_delete_xrefblk_t$12 00000001800129dc f   xref.obj
 0001:00011a10       _wrap_get_first_cref_from$catch$5 0000000180012a10 f   xref.obj
 0001:00011a1d       __catch$_wrap_get_first_cref_from$2 0000000180012a1d f   xref.obj
 0001:00011a43       _wrap_get_first_cref_from$catch$4 0000000180012a43 f   xref.obj
 0001:00011a50       __catch$_wrap_get_first_cref_from$4 0000000180012a50 f   xref.obj
 0001:00011a7c       _wrap_get_first_cref_from$catch$3 0000000180012a7c f   xref.obj
 0001:00011a89       __catch$_wrap_get_first_cref_from$6 0000000180012a89 f   xref.obj
 0001:00011aa1       _wrap_get_first_cref_from$catch$2 0000000180012aa1 f   xref.obj
 0001:00011aae       __catch$_wrap_get_first_cref_from$8 0000000180012aae f   xref.obj
 0001:00011ac6       _wrap_get_first_cref_from$catch$1 0000000180012ac6 f   xref.obj
 0001:00011ad3       __catch$_wrap_get_first_cref_from$10 0000000180012ad3 f   xref.obj
 0001:00011aff       _wrap_get_first_cref_from$catch$0 0000000180012aff f   xref.obj
 0001:00011b0c       __catch$_wrap_get_first_cref_from$12 0000000180012b0c f   xref.obj
 0001:00011b40       _wrap_get_first_cref_to$catch$5 0000000180012b40 f   xref.obj
 0001:00011b4d       __catch$_wrap_get_first_cref_to$2 0000000180012b4d f   xref.obj
 0001:00011b73       _wrap_get_first_cref_to$catch$4 0000000180012b73 f   xref.obj
 0001:00011b80       __catch$_wrap_get_first_cref_to$4 0000000180012b80 f   xref.obj
 0001:00011bac       _wrap_get_first_cref_to$catch$3 0000000180012bac f   xref.obj
 0001:00011bb9       __catch$_wrap_get_first_cref_to$6 0000000180012bb9 f   xref.obj
 0001:00011bd1       _wrap_get_first_cref_to$catch$2 0000000180012bd1 f   xref.obj
 0001:00011bde       __catch$_wrap_get_first_cref_to$8 0000000180012bde f   xref.obj
 0001:00011bf6       _wrap_get_first_cref_to$catch$1 0000000180012bf6 f   xref.obj
 0001:00011c03       __catch$_wrap_get_first_cref_to$10 0000000180012c03 f   xref.obj
 0001:00011c2f       _wrap_get_first_cref_to$catch$0 0000000180012c2f f   xref.obj
 0001:00011c3c       __catch$_wrap_get_first_cref_to$12 0000000180012c3c f   xref.obj
 0001:00011c70       _wrap_get_first_dref_from$catch$5 0000000180012c70 f   xref.obj
 0001:00011c7d       __catch$_wrap_get_first_dref_from$2 0000000180012c7d f   xref.obj
 0001:00011ca3       _wrap_get_first_dref_from$catch$4 0000000180012ca3 f   xref.obj
 0001:00011cb0       __catch$_wrap_get_first_dref_from$4 0000000180012cb0 f   xref.obj
 0001:00011cdc       _wrap_get_first_dref_from$catch$3 0000000180012cdc f   xref.obj
 0001:00011ce9       __catch$_wrap_get_first_dref_from$6 0000000180012ce9 f   xref.obj
 0001:00011d01       _wrap_get_first_dref_from$catch$2 0000000180012d01 f   xref.obj
 0001:00011d0e       __catch$_wrap_get_first_dref_from$8 0000000180012d0e f   xref.obj
 0001:00011d26       _wrap_get_first_dref_from$catch$1 0000000180012d26 f   xref.obj
 0001:00011d33       __catch$_wrap_get_first_dref_from$10 0000000180012d33 f   xref.obj
 0001:00011d5f       _wrap_get_first_dref_from$catch$0 0000000180012d5f f   xref.obj
 0001:00011d6c       __catch$_wrap_get_first_dref_from$12 0000000180012d6c f   xref.obj
 0001:00011da0       _wrap_get_first_dref_to$catch$5 0000000180012da0 f   xref.obj
 0001:00011dad       __catch$_wrap_get_first_dref_to$2 0000000180012dad f   xref.obj
 0001:00011dd3       _wrap_get_first_dref_to$catch$4 0000000180012dd3 f   xref.obj
 0001:00011de0       __catch$_wrap_get_first_dref_to$4 0000000180012de0 f   xref.obj
 0001:00011e0c       _wrap_get_first_dref_to$catch$3 0000000180012e0c f   xref.obj
 0001:00011e19       __catch$_wrap_get_first_dref_to$6 0000000180012e19 f   xref.obj
 0001:00011e31       _wrap_get_first_dref_to$catch$2 0000000180012e31 f   xref.obj
 0001:00011e3e       __catch$_wrap_get_first_dref_to$8 0000000180012e3e f   xref.obj
 0001:00011e56       _wrap_get_first_dref_to$catch$1 0000000180012e56 f   xref.obj
 0001:00011e63       __catch$_wrap_get_first_dref_to$10 0000000180012e63 f   xref.obj
 0001:00011e8f       _wrap_get_first_dref_to$catch$0 0000000180012e8f f   xref.obj
 0001:00011e9c       __catch$_wrap_get_first_dref_to$12 0000000180012e9c f   xref.obj
 0001:00011ed0       _wrap_get_first_fcref_from$catch$5 0000000180012ed0 f   xref.obj
 0001:00011edd       __catch$_wrap_get_first_fcref_from$2 0000000180012edd f   xref.obj
 0001:00011f03       _wrap_get_first_fcref_from$catch$4 0000000180012f03 f   xref.obj
 0001:00011f10       __catch$_wrap_get_first_fcref_from$4 0000000180012f10 f   xref.obj
 0001:00011f3c       _wrap_get_first_fcref_from$catch$3 0000000180012f3c f   xref.obj
 0001:00011f49       __catch$_wrap_get_first_fcref_from$6 0000000180012f49 f   xref.obj
 0001:00011f61       _wrap_get_first_fcref_from$catch$2 0000000180012f61 f   xref.obj
 0001:00011f6e       __catch$_wrap_get_first_fcref_from$8 0000000180012f6e f   xref.obj
 0001:00011f86       _wrap_get_first_fcref_from$catch$1 0000000180012f86 f   xref.obj
 0001:00011f93       __catch$_wrap_get_first_fcref_from$10 0000000180012f93 f   xref.obj
 0001:00011fbf       _wrap_get_first_fcref_from$catch$0 0000000180012fbf f   xref.obj
 0001:00011fcc       __catch$_wrap_get_first_fcref_from$12 0000000180012fcc f   xref.obj
 0001:00012000       _wrap_get_first_fcref_to$catch$5 0000000180013000 f   xref.obj
 0001:0001200d       __catch$_wrap_get_first_fcref_to$2 000000018001300d f   xref.obj
 0001:00012033       _wrap_get_first_fcref_to$catch$4 0000000180013033 f   xref.obj
 0001:00012040       __catch$_wrap_get_first_fcref_to$4 0000000180013040 f   xref.obj
 0001:0001206c       _wrap_get_first_fcref_to$catch$3 000000018001306c f   xref.obj
 0001:00012079       __catch$_wrap_get_first_fcref_to$6 0000000180013079 f   xref.obj
 0001:00012091       _wrap_get_first_fcref_to$catch$2 0000000180013091 f   xref.obj
 0001:0001209e       __catch$_wrap_get_first_fcref_to$8 000000018001309e f   xref.obj
 0001:000120b6       _wrap_get_first_fcref_to$catch$1 00000001800130b6 f   xref.obj
 0001:000120c3       __catch$_wrap_get_first_fcref_to$10 00000001800130c3 f   xref.obj
 0001:000120ef       _wrap_get_first_fcref_to$catch$0 00000001800130ef f   xref.obj
 0001:000120fc       __catch$_wrap_get_first_fcref_to$12 00000001800130fc f   xref.obj
 0001:00012130       _wrap_get_next_cref_from$catch$5 0000000180013130 f   xref.obj
 0001:0001213d       __catch$_wrap_get_next_cref_from$3 000000018001313d f   xref.obj
 0001:00012163       _wrap_get_next_cref_from$catch$4 0000000180013163 f   xref.obj
 0001:00012170       __catch$_wrap_get_next_cref_from$5 0000000180013170 f   xref.obj
 0001:0001219c       _wrap_get_next_cref_from$catch$3 000000018001319c f   xref.obj
 0001:000121a9       __catch$_wrap_get_next_cref_from$7 00000001800131a9 f   xref.obj
 0001:000121c1       _wrap_get_next_cref_from$catch$2 00000001800131c1 f   xref.obj
 0001:000121ce       __catch$_wrap_get_next_cref_from$9 00000001800131ce f   xref.obj
 0001:000121e6       _wrap_get_next_cref_from$catch$1 00000001800131e6 f   xref.obj
 0001:000121f3       __catch$_wrap_get_next_cref_from$11 00000001800131f3 f   xref.obj
 0001:0001221f       _wrap_get_next_cref_from$catch$0 000000018001321f f   xref.obj
 0001:0001222c       __catch$_wrap_get_next_cref_from$13 000000018001322c f   xref.obj
 0001:00012260       _wrap_get_next_cref_to$catch$5 0000000180013260 f   xref.obj
 0001:0001226d       __catch$_wrap_get_next_cref_to$3 000000018001326d f   xref.obj
 0001:00012293       _wrap_get_next_cref_to$catch$4 0000000180013293 f   xref.obj
 0001:000122a0       __catch$_wrap_get_next_cref_to$5 00000001800132a0 f   xref.obj
 0001:000122cc       _wrap_get_next_cref_to$catch$3 00000001800132cc f   xref.obj
 0001:000122d9       __catch$_wrap_get_next_cref_to$7 00000001800132d9 f   xref.obj
 0001:000122f1       _wrap_get_next_cref_to$catch$2 00000001800132f1 f   xref.obj
 0001:000122fe       __catch$_wrap_get_next_cref_to$9 00000001800132fe f   xref.obj
 0001:00012316       _wrap_get_next_cref_to$catch$1 0000000180013316 f   xref.obj
 0001:00012323       __catch$_wrap_get_next_cref_to$11 0000000180013323 f   xref.obj
 0001:0001234f       _wrap_get_next_cref_to$catch$0 000000018001334f f   xref.obj
 0001:0001235c       __catch$_wrap_get_next_cref_to$13 000000018001335c f   xref.obj
 0001:00012390       _wrap_get_next_dref_from$catch$5 0000000180013390 f   xref.obj
 0001:0001239d       __catch$_wrap_get_next_dref_from$3 000000018001339d f   xref.obj
 0001:000123c3       _wrap_get_next_dref_from$catch$4 00000001800133c3 f   xref.obj
 0001:000123d0       __catch$_wrap_get_next_dref_from$5 00000001800133d0 f   xref.obj
 0001:000123fc       _wrap_get_next_dref_from$catch$3 00000001800133fc f   xref.obj
 0001:00012409       __catch$_wrap_get_next_dref_from$7 0000000180013409 f   xref.obj
 0001:00012421       _wrap_get_next_dref_from$catch$2 0000000180013421 f   xref.obj
 0001:0001242e       __catch$_wrap_get_next_dref_from$9 000000018001342e f   xref.obj
 0001:00012446       _wrap_get_next_dref_from$catch$1 0000000180013446 f   xref.obj
 0001:00012453       __catch$_wrap_get_next_dref_from$11 0000000180013453 f   xref.obj
 0001:0001247f       _wrap_get_next_dref_from$catch$0 000000018001347f f   xref.obj
 0001:0001248c       __catch$_wrap_get_next_dref_from$13 000000018001348c f   xref.obj
 0001:000124c0       _wrap_get_next_dref_to$catch$5 00000001800134c0 f   xref.obj
 0001:000124cd       __catch$_wrap_get_next_dref_to$3 00000001800134cd f   xref.obj
 0001:000124f3       _wrap_get_next_dref_to$catch$4 00000001800134f3 f   xref.obj
 0001:00012500       __catch$_wrap_get_next_dref_to$5 0000000180013500 f   xref.obj
 0001:0001252c       _wrap_get_next_dref_to$catch$3 000000018001352c f   xref.obj
 0001:00012539       __catch$_wrap_get_next_dref_to$7 0000000180013539 f   xref.obj
 0001:00012551       _wrap_get_next_dref_to$catch$2 0000000180013551 f   xref.obj
 0001:0001255e       __catch$_wrap_get_next_dref_to$9 000000018001355e f   xref.obj
 0001:00012576       _wrap_get_next_dref_to$catch$1 0000000180013576 f   xref.obj
 0001:00012583       __catch$_wrap_get_next_dref_to$11 0000000180013583 f   xref.obj
 0001:000125af       _wrap_get_next_dref_to$catch$0 00000001800135af f   xref.obj
 0001:000125bc       __catch$_wrap_get_next_dref_to$13 00000001800135bc f   xref.obj
 0001:000125f0       _wrap_get_next_fcref_from$catch$5 00000001800135f0 f   xref.obj
 0001:000125fd       __catch$_wrap_get_next_fcref_from$3 00000001800135fd f   xref.obj
 0001:00012623       _wrap_get_next_fcref_from$catch$4 0000000180013623 f   xref.obj
 0001:00012630       __catch$_wrap_get_next_fcref_from$5 0000000180013630 f   xref.obj
 0001:0001265c       _wrap_get_next_fcref_from$catch$3 000000018001365c f   xref.obj
 0001:00012669       __catch$_wrap_get_next_fcref_from$7 0000000180013669 f   xref.obj
 0001:00012681       _wrap_get_next_fcref_from$catch$2 0000000180013681 f   xref.obj
 0001:0001268e       __catch$_wrap_get_next_fcref_from$9 000000018001368e f   xref.obj
 0001:000126a6       _wrap_get_next_fcref_from$catch$1 00000001800136a6 f   xref.obj
 0001:000126b3       __catch$_wrap_get_next_fcref_from$11 00000001800136b3 f   xref.obj
 0001:000126df       _wrap_get_next_fcref_from$catch$0 00000001800136df f   xref.obj
 0001:000126ec       __catch$_wrap_get_next_fcref_from$13 00000001800136ec f   xref.obj
 0001:00012720       _wrap_get_next_fcref_to$catch$5 0000000180013720 f   xref.obj
 0001:0001272d       __catch$_wrap_get_next_fcref_to$3 000000018001372d f   xref.obj
 0001:00012753       _wrap_get_next_fcref_to$catch$4 0000000180013753 f   xref.obj
 0001:00012760       __catch$_wrap_get_next_fcref_to$5 0000000180013760 f   xref.obj
 0001:0001278c       _wrap_get_next_fcref_to$catch$3 000000018001378c f   xref.obj
 0001:00012799       __catch$_wrap_get_next_fcref_to$7 0000000180013799 f   xref.obj
 0001:000127b1       _wrap_get_next_fcref_to$catch$2 00000001800137b1 f   xref.obj
 0001:000127be       __catch$_wrap_get_next_fcref_to$9 00000001800137be f   xref.obj
 0001:000127d6       _wrap_get_next_fcref_to$catch$1 00000001800137d6 f   xref.obj
 0001:000127e3       __catch$_wrap_get_next_fcref_to$11 00000001800137e3 f   xref.obj
 0001:0001280f       _wrap_get_next_fcref_to$catch$0 000000018001380f f   xref.obj
 0001:0001281c       __catch$_wrap_get_next_fcref_to$13 000000018001381c f   xref.obj
 0001:00012850       _wrap_has_external_refs$catch$5 0000000180013850 f   xref.obj
 0001:0001285d       __catch$_wrap_has_external_refs$3 000000018001385d f   xref.obj
 0001:00012883       _wrap_has_external_refs$catch$4 0000000180013883 f   xref.obj
 0001:00012890       __catch$_wrap_has_external_refs$5 0000000180013890 f   xref.obj
 0001:000128bc       _wrap_has_external_refs$catch$3 00000001800138bc f   xref.obj
 0001:000128c9       __catch$_wrap_has_external_refs$7 00000001800138c9 f   xref.obj
 0001:000128e1       _wrap_has_external_refs$catch$2 00000001800138e1 f   xref.obj
 0001:000128ee       __catch$_wrap_has_external_refs$9 00000001800138ee f   xref.obj
 0001:00012906       _wrap_has_external_refs$catch$1 0000000180013906 f   xref.obj
 0001:00012913       __catch$_wrap_has_external_refs$11 0000000180013913 f   xref.obj
 0001:0001293f       _wrap_has_external_refs$catch$0 000000018001393f f   xref.obj
 0001:0001294c       __catch$_wrap_has_external_refs$13 000000018001394c f   xref.obj
 0001:00012980       _wrap_new_cases_and_targets_t$catch$1 0000000180013980 f   xref.obj
 0001:0001298d       __catch$_wrap_new_cases_and_targets_t$1 000000018001398d f   xref.obj
 0001:000129b3       _wrap_new_cases_and_targets_t$catch$2 00000001800139b3 f   xref.obj
 0001:000129c0       __catch$_wrap_new_cases_and_targets_t$3 00000001800139c0 f   xref.obj
 0001:000129ec       _wrap_new_cases_and_targets_t$catch$3 00000001800139ec f   xref.obj
 0001:000129f9       __catch$_wrap_new_cases_and_targets_t$5 00000001800139f9 f   xref.obj
 0001:00012a11       _wrap_new_cases_and_targets_t$catch$4 0000000180013a11 f   xref.obj
 0001:00012a1e       __catch$_wrap_new_cases_and_targets_t$7 0000000180013a1e f   xref.obj
 0001:00012a36       _wrap_new_cases_and_targets_t$catch$5 0000000180013a36 f   xref.obj
 0001:00012a43       __catch$_wrap_new_cases_and_targets_t$9 0000000180013a43 f   xref.obj
 0001:00012a6f       _wrap_new_cases_and_targets_t$catch$6 0000000180013a6f f   xref.obj
 0001:00012a7c       __catch$_wrap_new_cases_and_targets_t$11 0000000180013a7c f   xref.obj
 0001:00012ab0       _wrap_new_casevec_t__SWIG_0$catch$6 0000000180013ab0 f   xref.obj
 0001:00012abd       __catch$_wrap_new_casevec_t__SWIG_0$1 0000000180013abd f   xref.obj
 0001:00012ae3       _wrap_new_casevec_t__SWIG_0$catch$5 0000000180013ae3 f   xref.obj
 0001:00012af0       __catch$_wrap_new_casevec_t__SWIG_0$3 0000000180013af0 f   xref.obj
 0001:00012b1c       _wrap_new_casevec_t__SWIG_0$catch$4 0000000180013b1c f   xref.obj
 0001:00012b29       __catch$_wrap_new_casevec_t__SWIG_0$5 0000000180013b29 f   xref.obj
 0001:00012b41       _wrap_new_casevec_t__SWIG_0$catch$3 0000000180013b41 f   xref.obj
 0001:00012b4e       __catch$_wrap_new_casevec_t__SWIG_0$7 0000000180013b4e f   xref.obj
 0001:00012b66       _wrap_new_casevec_t__SWIG_0$catch$2 0000000180013b66 f   xref.obj
 0001:00012b73       __catch$_wrap_new_casevec_t__SWIG_0$9 0000000180013b73 f   xref.obj
 0001:00012b9f       _wrap_new_casevec_t__SWIG_0$catch$1 0000000180013b9f f   xref.obj
 0001:00012bac       __catch$_wrap_new_casevec_t__SWIG_0$11 0000000180013bac f   xref.obj
 0001:00012be0       _wrap_new_casevec_t__SWIG_1$catch$6 0000000180013be0 f   xref.obj
 0001:00012bed       __catch$_wrap_new_casevec_t__SWIG_1$3 0000000180013bed f   xref.obj
 0001:00012c13       _wrap_new_casevec_t__SWIG_1$catch$5 0000000180013c13 f   xref.obj
 0001:00012c20       __catch$_wrap_new_casevec_t__SWIG_1$5 0000000180013c20 f   xref.obj
 0001:00012c4c       _wrap_new_casevec_t__SWIG_1$catch$4 0000000180013c4c f   xref.obj
 0001:00012c59       __catch$_wrap_new_casevec_t__SWIG_1$7 0000000180013c59 f   xref.obj
 0001:00012c71       _wrap_new_casevec_t__SWIG_1$catch$3 0000000180013c71 f   xref.obj
 0001:00012c7e       __catch$_wrap_new_casevec_t__SWIG_1$9 0000000180013c7e f   xref.obj
 0001:00012c96       _wrap_new_casevec_t__SWIG_1$catch$2 0000000180013c96 f   xref.obj
 0001:00012ca3       __catch$_wrap_new_casevec_t__SWIG_1$11 0000000180013ca3 f   xref.obj
 0001:00012ccf       _wrap_new_casevec_t__SWIG_1$catch$1 0000000180013ccf f   xref.obj
 0001:00012cdc       __catch$_wrap_new_casevec_t__SWIG_1$13 0000000180013cdc f   xref.obj
 0001:00012d10       _wrap_new_xrefblk_t$catch$0 0000000180013d10 f   xref.obj
 0001:00012d1d       __catch$_wrap_new_xrefblk_t$1 0000000180013d1d f   xref.obj
 0001:00012d43       _wrap_new_xrefblk_t$catch$1 0000000180013d43 f   xref.obj
 0001:00012d50       __catch$_wrap_new_xrefblk_t$3 0000000180013d50 f   xref.obj
 0001:00012d7c       _wrap_new_xrefblk_t$catch$2 0000000180013d7c f   xref.obj
 0001:00012d89       __catch$_wrap_new_xrefblk_t$5 0000000180013d89 f   xref.obj
 0001:00012da1       _wrap_new_xrefblk_t$catch$3 0000000180013da1 f   xref.obj
 0001:00012dae       __catch$_wrap_new_xrefblk_t$7 0000000180013dae f   xref.obj
 0001:00012dc6       _wrap_new_xrefblk_t$catch$4 0000000180013dc6 f   xref.obj
 0001:00012dd3       __catch$_wrap_new_xrefblk_t$9 0000000180013dd3 f   xref.obj
 0001:00012dff       _wrap_new_xrefblk_t$catch$5 0000000180013dff f   xref.obj
 0001:00012e0c       __catch$_wrap_new_xrefblk_t$11 0000000180013e0c f   xref.obj
 0001:00012e40       _wrap_xrefblk_t_first_from$catch$5 0000000180013e40 f   xref.obj
 0001:00012e4d       __catch$_wrap_xrefblk_t_first_from$4 0000000180013e4d f   xref.obj
 0001:00012e73       _wrap_xrefblk_t_first_from$catch$4 0000000180013e73 f   xref.obj
 0001:00012e80       __catch$_wrap_xrefblk_t_first_from$6 0000000180013e80 f   xref.obj
 0001:00012eac       _wrap_xrefblk_t_first_from$catch$3 0000000180013eac f   xref.obj
 0001:00012eb9       __catch$_wrap_xrefblk_t_first_from$8 0000000180013eb9 f   xref.obj
 0001:00012ed1       _wrap_xrefblk_t_first_from$catch$2 0000000180013ed1 f   xref.obj
 0001:00012ede       __catch$_wrap_xrefblk_t_first_from$10 0000000180013ede f   xref.obj
 0001:00012ef6       _wrap_xrefblk_t_first_from$catch$1 0000000180013ef6 f   xref.obj
 0001:00012f03       __catch$_wrap_xrefblk_t_first_from$12 0000000180013f03 f   xref.obj
 0001:00012f2f       _wrap_xrefblk_t_first_from$catch$0 0000000180013f2f f   xref.obj
 0001:00012f3c       __catch$_wrap_xrefblk_t_first_from$14 0000000180013f3c f   xref.obj
 0001:00012f70       _wrap_xrefblk_t_first_to$catch$5 0000000180013f70 f   xref.obj
 0001:00012f7d       __catch$_wrap_xrefblk_t_first_to$4 0000000180013f7d f   xref.obj
 0001:00012fa3       _wrap_xrefblk_t_first_to$catch$4 0000000180013fa3 f   xref.obj
 0001:00012fb0       __catch$_wrap_xrefblk_t_first_to$6 0000000180013fb0 f   xref.obj
 0001:00012fdc       _wrap_xrefblk_t_first_to$catch$3 0000000180013fdc f   xref.obj
 0001:00012fe9       __catch$_wrap_xrefblk_t_first_to$8 0000000180013fe9 f   xref.obj
 0001:00013001       _wrap_xrefblk_t_first_to$catch$2 0000000180014001 f   xref.obj
 0001:0001300e       __catch$_wrap_xrefblk_t_first_to$10 000000018001400e f   xref.obj
 0001:00013026       _wrap_xrefblk_t_first_to$catch$1 0000000180014026 f   xref.obj
 0001:00013033       __catch$_wrap_xrefblk_t_first_to$12 0000000180014033 f   xref.obj
 0001:0001305f       _wrap_xrefblk_t_first_to$catch$0 000000018001405f f   xref.obj
 0001:0001306c       __catch$_wrap_xrefblk_t_first_to$14 000000018001406c f   xref.obj
 0001:000130a0       _wrap_xrefblk_t_next_from__SWIG_0$catch$5 00000001800140a0 f   xref.obj
 0001:000130ad       __catch$_wrap_xrefblk_t_next_from__SWIG_0$2 00000001800140ad f   xref.obj
 0001:000130d3       _wrap_xrefblk_t_next_from__SWIG_0$catch$4 00000001800140d3 f   xref.obj
 0001:000130e0       __catch$_wrap_xrefblk_t_next_from__SWIG_0$4 00000001800140e0 f   xref.obj
 0001:0001310c       _wrap_xrefblk_t_next_from__SWIG_0$catch$3 000000018001410c f   xref.obj
 0001:00013119       __catch$_wrap_xrefblk_t_next_from__SWIG_0$6 0000000180014119 f   xref.obj
 0001:00013131       _wrap_xrefblk_t_next_from__SWIG_0$catch$2 0000000180014131 f   xref.obj
 0001:0001313e       __catch$_wrap_xrefblk_t_next_from__SWIG_0$8 000000018001413e f   xref.obj
 0001:00013156       _wrap_xrefblk_t_next_from__SWIG_0$catch$1 0000000180014156 f   xref.obj
 0001:00013163       __catch$_wrap_xrefblk_t_next_from__SWIG_0$10 0000000180014163 f   xref.obj
 0001:0001318f       _wrap_xrefblk_t_next_from__SWIG_0$catch$0 000000018001418f f   xref.obj
 0001:0001319c       __catch$_wrap_xrefblk_t_next_from__SWIG_0$12 000000018001419c f   xref.obj
 0001:000131d0       _wrap_xrefblk_t_next_from__SWIG_1$catch$5 00000001800141d0 f   xref.obj
 0001:000131dd       __catch$_wrap_xrefblk_t_next_from__SWIG_1$5 00000001800141dd f   xref.obj
 0001:00013203       _wrap_xrefblk_t_next_from__SWIG_1$catch$4 0000000180014203 f   xref.obj
 0001:00013210       __catch$_wrap_xrefblk_t_next_from__SWIG_1$7 0000000180014210 f   xref.obj
 0001:0001323c       _wrap_xrefblk_t_next_from__SWIG_1$catch$3 000000018001423c f   xref.obj
 0001:00013249       __catch$_wrap_xrefblk_t_next_from__SWIG_1$9 0000000180014249 f   xref.obj
 0001:00013261       _wrap_xrefblk_t_next_from__SWIG_1$catch$2 0000000180014261 f   xref.obj
 0001:0001326e       __catch$_wrap_xrefblk_t_next_from__SWIG_1$11 000000018001426e f   xref.obj
 0001:00013286       _wrap_xrefblk_t_next_from__SWIG_1$catch$1 0000000180014286 f   xref.obj
 0001:00013293       __catch$_wrap_xrefblk_t_next_from__SWIG_1$13 0000000180014293 f   xref.obj
 0001:000132bf       _wrap_xrefblk_t_next_from__SWIG_1$catch$0 00000001800142bf f   xref.obj
 0001:000132cc       __catch$_wrap_xrefblk_t_next_from__SWIG_1$15 00000001800142cc f   xref.obj
 0001:00013300       _wrap_xrefblk_t_next_to__SWIG_0$catch$5 0000000180014300 f   xref.obj
 0001:0001330d       __catch$_wrap_xrefblk_t_next_to__SWIG_0$2 000000018001430d f   xref.obj
 0001:00013333       _wrap_xrefblk_t_next_to__SWIG_0$catch$4 0000000180014333 f   xref.obj
 0001:00013340       __catch$_wrap_xrefblk_t_next_to__SWIG_0$4 0000000180014340 f   xref.obj
 0001:0001336c       _wrap_xrefblk_t_next_to__SWIG_0$catch$3 000000018001436c f   xref.obj
 0001:00013379       __catch$_wrap_xrefblk_t_next_to__SWIG_0$6 0000000180014379 f   xref.obj
 0001:00013391       _wrap_xrefblk_t_next_to__SWIG_0$catch$2 0000000180014391 f   xref.obj
 0001:0001339e       __catch$_wrap_xrefblk_t_next_to__SWIG_0$8 000000018001439e f   xref.obj
 0001:000133b6       _wrap_xrefblk_t_next_to__SWIG_0$catch$1 00000001800143b6 f   xref.obj
 0001:000133c3       __catch$_wrap_xrefblk_t_next_to__SWIG_0$10 00000001800143c3 f   xref.obj
 0001:000133ef       _wrap_xrefblk_t_next_to__SWIG_0$catch$0 00000001800143ef f   xref.obj
 0001:000133fc       __catch$_wrap_xrefblk_t_next_to__SWIG_0$12 00000001800143fc f   xref.obj
 0001:00013430       _wrap_xrefblk_t_next_to__SWIG_1$catch$5 0000000180014430 f   xref.obj
 0001:0001343d       __catch$_wrap_xrefblk_t_next_to__SWIG_1$5 000000018001443d f   xref.obj
 0001:00013463       _wrap_xrefblk_t_next_to__SWIG_1$catch$4 0000000180014463 f   xref.obj
 0001:00013470       __catch$_wrap_xrefblk_t_next_to__SWIG_1$7 0000000180014470 f   xref.obj
 0001:0001349c       _wrap_xrefblk_t_next_to__SWIG_1$catch$3 000000018001449c f   xref.obj
 0001:000134a9       __catch$_wrap_xrefblk_t_next_to__SWIG_1$9 00000001800144a9 f   xref.obj
 0001:000134c1       _wrap_xrefblk_t_next_to__SWIG_1$catch$2 00000001800144c1 f   xref.obj
 0001:000134ce       __catch$_wrap_xrefblk_t_next_to__SWIG_1$11 00000001800144ce f   xref.obj
 0001:000134e6       _wrap_xrefblk_t_next_to__SWIG_1$catch$1 00000001800144e6 f   xref.obj
 0001:000134f3       __catch$_wrap_xrefblk_t_next_to__SWIG_1$13 00000001800144f3 f   xref.obj
 0001:0001351f       _wrap_xrefblk_t_next_to__SWIG_1$catch$0 000000018001451f f   xref.obj
 0001:0001352c       __catch$_wrap_xrefblk_t_next_to__SWIG_1$15 000000018001452c f   xref.obj
 0001:00013560       _wrap_xrefchar$catch$5     0000000180014560 f   xref.obj
 0001:0001356d       __catch$_wrap_xrefchar$2   000000018001456d f   xref.obj
 0001:00013593       _wrap_xrefchar$catch$4     0000000180014593 f   xref.obj
 0001:000135a0       __catch$_wrap_xrefchar$4   00000001800145a0 f   xref.obj
 0001:000135cc       _wrap_xrefchar$catch$3     00000001800145cc f   xref.obj
 0001:000135d9       __catch$_wrap_xrefchar$6   00000001800145d9 f   xref.obj
 0001:000135f1       _wrap_xrefchar$catch$2     00000001800145f1 f   xref.obj
 0001:000135fe       __catch$_wrap_xrefchar$8   00000001800145fe f   xref.obj
 0001:00013616       _wrap_xrefchar$catch$1     0000000180014616 f   xref.obj
 0001:00013623       __catch$_wrap_xrefchar$10  0000000180014623 f   xref.obj
 0001:0001364f       _wrap_xrefchar$catch$0     000000018001464f f   xref.obj
 0001:0001365c       __catch$_wrap_xrefchar$12  000000018001465c f   xref.obj
 0001:00013682       ?fin$0@?0??dllmain_crt_process_attach@@YAHQEAUHINSTANCE__@@QEAX@Z@4HA 0000000180014682 f   MSVCRT:dll_dllmain.obj
 0001:00013699       ?fin$0@?0??dllmain_crt_process_detach@@YAH_N@Z@4HA 0000000180014699 f   MSVCRT:dll_dllmain.obj
 0001:000136b5       ?filt$0@?0??dllmain_dispatch@@YAHQEAUHINSTANCE__@@KQEAX@Z@4HA 00000001800146b5 f   MSVCRT:dll_dllmain.obj
 0001:000136eb       __scrt_is_nonwritable_in_current_image$filt$0 00000001800146eb f   MSVCRT:utility.obj
 0002:00000588       ?__scrt_initialize_tss_var@@3P6AHXZEA 0000000180015588     MSVCRT:thread_safe_statics.obj
 0002:00003580       $cppxdata$_wrap_create_switch_xrefs 0000000180018580     xref.obj
 0002:000035a8       $cppxdata$_wrap_new_cases_and_targets_t 00000001800185a8     xref.obj
 0002:000035d0       $cppxdata$_wrap_delete_cases_and_targets_t 00000001800185d0     xref.obj
 0002:000035f8       $cppxdata$_wrap_calc_switch_cases 00000001800185f8     xref.obj
 0002:00003620       $cppxdata$_wrap_create_switch_table 0000000180018620     xref.obj
 0002:00003648       $cppxdata$_wrap_xrefchar   0000000180018648     xref.obj
 0002:00003670       $cppxdata$_wrap_add_cref   0000000180018670     xref.obj
 0002:00003698       $cppxdata$_wrap_del_cref   0000000180018698     xref.obj
 0002:000036c0       $cppxdata$_wrap_add_dref   00000001800186c0     xref.obj
 0002:000036e8       $cppxdata$_wrap_del_dref   00000001800186e8     xref.obj
 0002:00003710       $cppxdata$_wrap_xrefblk_t_first_from 0000000180018710     xref.obj
 0002:00003738       $cppxdata$_wrap_xrefblk_t_next_from__SWIG_0 0000000180018738     xref.obj
 0002:00003760       $cppxdata$_wrap_xrefblk_t_first_to 0000000180018760     xref.obj
 0002:00003788       $cppxdata$_wrap_xrefblk_t_next_to__SWIG_0 0000000180018788     xref.obj
 0002:000037b0       $cppxdata$_wrap_xrefblk_t_next_from__SWIG_1 00000001800187b0     xref.obj
 0002:000037d8       $cppxdata$_wrap_xrefblk_t_next_to__SWIG_1 00000001800187d8     xref.obj
 0002:00003800       $cppxdata$_wrap_new_xrefblk_t 0000000180018800     xref.obj
 0002:00003828       $cppxdata$_wrap_delete_xrefblk_t 0000000180018828     xref.obj
 0002:00003850       $cppxdata$_wrap_get_first_dref_from 0000000180018850     xref.obj
 0002:00003878       $cppxdata$_wrap_get_next_dref_from 0000000180018878     xref.obj
 0002:000038a0       $cppxdata$_wrap_get_first_dref_to 00000001800188a0     xref.obj
 0002:000038c8       $cppxdata$_wrap_get_next_dref_to 00000001800188c8     xref.obj
 0002:000038f0       $cppxdata$_wrap_get_first_cref_from 00000001800188f0     xref.obj
 0002:00003918       $cppxdata$_wrap_get_next_cref_from 0000000180018918     xref.obj
 0002:00003940       $cppxdata$_wrap_get_first_cref_to 0000000180018940     xref.obj
 0002:00003968       $cppxdata$_wrap_get_next_cref_to 0000000180018968     xref.obj
 0002:00003990       $cppxdata$_wrap_get_first_fcref_from 0000000180018990     xref.obj
 0002:000039b8       $cppxdata$_wrap_get_next_fcref_from 00000001800189b8     xref.obj
 0002:000039e0       $cppxdata$_wrap_get_first_fcref_to 00000001800189e0     xref.obj
 0002:00003a08       $cppxdata$_wrap_get_next_fcref_to 0000000180018a08     xref.obj
 0002:00003a30       $cppxdata$_wrap_has_external_refs 0000000180018a30     xref.obj
 0002:00003a58       $cppxdata$_wrap_delete_switch_table 0000000180018a58     xref.obj
 0002:00003a80       $cppxdata$_wrap_new_casevec_t__SWIG_0 0000000180018a80     xref.obj
 0002:00003aa8       $cppxdata$_wrap_new_casevec_t__SWIG_1 0000000180018aa8     xref.obj
 0002:00003ad0       $cppxdata$_wrap_delete_casevec_t 0000000180018ad0     xref.obj
 0002:00003af8       $cppxdata$_wrap_casevec_t_push_back__SWIG_0 0000000180018af8     xref.obj
 0002:00003b20       $cppxdata$_wrap_casevec_t_push_back__SWIG_1 0000000180018b20     xref.obj
 0002:00003b48       $cppxdata$_wrap_casevec_t_pop_back 0000000180018b48     xref.obj
 0002:00003b70       $cppxdata$_wrap_casevec_t_size 0000000180018b70     xref.obj
 0002:00003b98       $cppxdata$_wrap_casevec_t_empty 0000000180018b98     xref.obj
 0002:00003bc0       $cppxdata$_wrap_casevec_t_at 0000000180018bc0     xref.obj
 0002:00003be8       $cppxdata$_wrap_casevec_t_qclear 0000000180018be8     xref.obj
 0002:00003c10       $cppxdata$_wrap_casevec_t_clear 0000000180018c10     xref.obj
 0002:00003c38       $cppxdata$_wrap_casevec_t_resize__SWIG_0 0000000180018c38     xref.obj
 0002:00003c60       $cppxdata$_wrap_casevec_t_resize__SWIG_1 0000000180018c60     xref.obj
 0002:00003c88       $cppxdata$_wrap_casevec_t_grow 0000000180018c88     xref.obj
 0002:00003cb0       $cppxdata$_wrap_casevec_t_capacity 0000000180018cb0     xref.obj
 0002:00003cd8       $cppxdata$_wrap_casevec_t_reserve 0000000180018cd8     xref.obj
 0002:00003d00       $cppxdata$_wrap_casevec_t_truncate 0000000180018d00     xref.obj
 0002:00003d28       $cppxdata$_wrap_casevec_t_swap 0000000180018d28     xref.obj
 0002:00003d50       $cppxdata$_wrap_casevec_t_extract 0000000180018d50     xref.obj
 0002:00003d78       $cppxdata$_wrap_casevec_t_inject 0000000180018d78     xref.obj
 0002:00003da0       $cppxdata$_wrap_casevec_t___eq__ 0000000180018da0     xref.obj
 0002:00003dc8       $cppxdata$_wrap_casevec_t___ne__ 0000000180018dc8     xref.obj
 0002:00003df0       $cppxdata$_wrap_casevec_t_begin__SWIG_0 0000000180018df0     xref.obj
 0002:00003e18       $cppxdata$_wrap_casevec_t_end__SWIG_0 0000000180018e18     xref.obj
 0002:00003e40       $cppxdata$_wrap_casevec_t_begin__SWIG_1 0000000180018e40     xref.obj
 0002:00003e68       $cppxdata$_wrap_casevec_t_end__SWIG_1 0000000180018e68     xref.obj
 0002:00003e90       $cppxdata$_wrap_casevec_t_insert 0000000180018e90     xref.obj
 0002:00003eb8       $cppxdata$_wrap_casevec_t_erase__SWIG_0 0000000180018eb8     xref.obj
 0002:00003ee0       $cppxdata$_wrap_casevec_t_erase__SWIG_1 0000000180018ee0     xref.obj
 0002:00003f08       $cppxdata$_wrap_casevec_t_find__SWIG_0 0000000180018f08     xref.obj
 0002:00003f30       $cppxdata$_wrap_casevec_t_find__SWIG_1 0000000180018f30     xref.obj
 0002:00003f58       $cppxdata$_wrap_casevec_t_has 0000000180018f58     xref.obj
 0002:00003f80       $cppxdata$_wrap_casevec_t_add_unique 0000000180018f80     xref.obj
 0002:00003fa8       $cppxdata$_wrap_casevec_t__del 0000000180018fa8     xref.obj
 0002:00003fd0       $cppxdata$_wrap_casevec_t___len__ 0000000180018fd0     xref.obj
 0002:00003ff8       $cppxdata$_wrap_casevec_t___getitem__ 0000000180018ff8     xref.obj
 0002:00004020       $cppxdata$_wrap_casevec_t___setitem__ 0000000180019020     xref.obj
 0002:00004048       ?hex@?1??SWIG_PackData@@9@4QBDB 0000000180019048     xref.obj
 0002:00007b20       ?cis@?1??PyInit__ida_xref@@9@4QBUci_t@?1??1@YAPEAU_object@@XZ@B 000000018001cb20     xref.obj
 0002:00007d60       $cppxdata$?__scrt_initialize_thread_safe_statics@@YAHXZ 000000018001cd60     MSVCRT:thread_safe_statics.obj
 0002:00007ec8       GS_ExceptionPointers       000000018001cec8     MSVCRT:gs_report.obj
 0002:000086a8       $unwind$printf             000000018001d6a8     xref.obj
 0002:000086b4       $unwind$??_Gout_of_range@std@@UEAAPEAXI@Z 000000018001d6b4     xref.obj
 0002:000086b4       $unwind$??4?$qvector@I@@QEAAAEAV0@AEBV0@@Z 000000018001d6b4     xref.obj
 0002:000086b4       $unwind$SWIG_TypeClientData 000000018001d6b4     xref.obj
 0002:000086b4       $unwind$_RTC_Initialize    000000018001d6b4     MSVCRT:initsect.obj
 0002:000086b4       $unwind$SwigPyObject_append 000000018001d6b4     xref.obj
 0002:000086b4       $unwind$_RTC_Terminate     000000018001d6b4     MSVCRT:initsect.obj
 0002:000086b4       $unwind$??_Gexception@std@@UEAAPEAXI@Z 000000018001d6b4     xref.obj
 0002:000086b4       $unwind$?erase@?$qvector@V?$qvector@H@@@@QEAAPEAV?$qvector@H@@PEAV2@@Z 000000018001d6b4     xref.obj
 0002:000086b4       $unwind$??_Gbad_array_new_length@std@@UEAAPEAXI@Z 000000018001d6b4     MSVCRT:throw_bad_alloc.obj
 0002:000086b4       $unwind$??_Gbad_alloc@std@@UEAAPEAXI@Z 000000018001d6b4     MSVCRT:throw_bad_alloc.obj
 0002:000086b4       $unwind$??4?$qvector@H@@QEAAAEAV0@AEBV0@@Z 000000018001d6b4     xref.obj
 0002:000086b4       $unwind$??_Glogic_error@std@@UEAAPEAXI@Z 000000018001d6b4     xref.obj
 0002:000086c0       $unwind$SWIG_MangledTypeQueryModule 000000018001d6c0     xref.obj
 0002:000086c0       $unwind$??8?$qvector@V?$qvector@H@@@@QEBA_NAEBV0@@Z 000000018001d6c0     xref.obj
 0002:000086d0       $unwind$??_Gtype_info@@UEAAPEAXI@Z 000000018001d6d0     MSVCRT:std_type_info_static.obj
 0002:000086d0       $unwind$__scrt_initialize_crt 000000018001d6d0     MSVCRT:utility.obj
 0002:000086d0       $unwind$??0logic_error@std@@QEAA@AEBV01@@Z 000000018001d6d0     xref.obj
 0002:000086d0       $unwind$__scrt_release_startup_lock 000000018001d6d0     MSVCRT:utility.obj
 0002:000086d0       $unwind$??2@YAPEAX_K@Z     000000018001d6d0     MSVCRT:new_scalar.obj
 0002:000086d0       $unwind$??0out_of_range@std@@QEAA@AEBV01@@Z 000000018001d6d0     xref.obj
 0002:000086d0       $unwind$?clear@?$qvector@V?$qvector@H@@@@QEAAXXZ 000000018001d6d0     xref.obj
 0002:000086d0       $unwind$_Init_thread_header 000000018001d6d0     MSVCRT:thread_safe_statics.obj
 0002:000086d0       $unwind$?SWIG_Python_RaiseOrModifyTypeError@@YAXPEBD@Z 000000018001d6d0     xref.obj
 0002:000086d0       $unwind$__scrt_uninitialize_crt 000000018001d6d0     MSVCRT:utility.obj
 0002:000086d0       $unwind$??0exception@std@@QEAA@AEBV01@@Z 000000018001d6d0     xref.obj
 0002:000086d0       $unwind$??0bad_alloc@std@@QEAA@AEBV01@@Z 000000018001d6d0     MSVCRT:throw_bad_alloc.obj
 0002:000086d0       $unwind$_Init_thread_wait  000000018001d6d0     MSVCRT:thread_safe_statics.obj
 0002:000086d0       $unwind$SwigPyPacked_dealloc 000000018001d6d0     xref.obj
 0002:000086d0       $unwind$SWIG_Python_GetSwigThis 000000018001d6d0     xref.obj
 0002:000086d0       $unwind$__raise_securityfailure 000000018001d6d0     MSVCRT:gs_report.obj
 0002:000086d0       $unwind$_onexit            000000018001d6d0     MSVCRT:utility.obj
 0002:000086d0       $unwind$??0bad_array_new_length@std@@QEAA@AEBV01@@Z 000000018001d6d0     MSVCRT:throw_bad_alloc.obj
 0002:000086d0       $unwind$_Init_thread_footer 000000018001d6d0     MSVCRT:thread_safe_statics.obj
 0002:000086d8       $unwind$?SWIG_Python_UnpackTuple@@YA_JPEAU_object@@PEBD_J2PEAPEAU1@@Z 000000018001d6d8     xref.obj
 0002:000086ec       $chain$0$?SWIG_Python_UnpackTuple@@YA_JPEAU_object@@PEBD_J2PEAPEAU1@@Z 000000018001d6ec     xref.obj
 0002:00008700       $chain$1$?SWIG_Python_UnpackTuple@@YA_JPEAU_object@@PEBD_J2PEAPEAU1@@Z 000000018001d700     xref.obj
 0002:00008710       $unwind$SwigPyClientData_New 000000018001d710     xref.obj
 0002:00008720       $chain$2$SwigPyClientData_New 000000018001d720     xref.obj
 0002:00008734       $chain$3$SwigPyClientData_New 000000018001d734     xref.obj
 0002:00008744       $unwind$SwigPyObject_repr  000000018001d744     xref.obj
 0002:00008750       $chain$0$SwigPyObject_repr 000000018001d750     xref.obj
 0002:00008764       $chain$1$SwigPyObject_repr 000000018001d764     xref.obj
 0002:00008774       $unwind$SwigPyObject_type  000000018001d774     xref.obj
 0002:00008788       $unwind$SwigPyPacked_Check 000000018001d788     xref.obj
 0002:00008788       $unwind$SwigPyObject_Check 000000018001d788     xref.obj
 0002:00008794       $unwind$SwigPyObject_New   000000018001d794     xref.obj
 0002:00008794       $unwind$_DllMainCRTStartup 000000018001d794     MSVCRT:dll_dllmain.obj
 0002:00008794       $unwind$??0?$qvector@H@@QEAA@AEBV0@@Z 000000018001d794     xref.obj
 0002:000087a4       $unwind$SwigPyObject_dealloc 000000018001d7a4     xref.obj
 0002:000087b0       $chain$2$SwigPyObject_dealloc 000000018001d7b0     xref.obj
 0002:000087cc       $chain$3$SwigPyObject_dealloc 000000018001d7cc     xref.obj
 0002:000087dc       $unwind$??0out_of_range@std@@QEAA@PEBD@Z 000000018001d7dc     xref.obj
 0002:000087dc       $unwind$SwigPyObject_own   000000018001d7dc     xref.obj
 0002:000087e4       $chain$0$SwigPyObject_own  000000018001d7e4     xref.obj
 0002:000087f8       $chain$2$SwigPyObject_own  000000018001d7f8     xref.obj
 0002:0000880c       $unwind$SwigPyPacked_str   000000018001d80c     xref.obj
 0002:0000880c       $unwind$SwigPyPacked_repr  000000018001d80c     xref.obj
 0002:0000881c       $chain$0$SwigPyPacked_repr 000000018001d81c     xref.obj
 0002:00008830       $chain$1$SwigPyPacked_repr 000000018001d830     xref.obj
 0002:00008840       $chain$0$SwigPyPacked_str  000000018001d840     xref.obj
 0002:00008854       $chain$1$SwigPyPacked_str  000000018001d854     xref.obj
 0002:00008864       $unwind$SwigPyPacked_type  000000018001d864     xref.obj
 0002:00008874       $unwind$__scrt_dllmain_crt_thread_detach 000000018001d874     MSVCRT:utility.obj
 0002:00008874       $unwind$?__scrt_uninitialize_thread_safe_statics@@YAXXZ 000000018001d874     MSVCRT:thread_safe_statics.obj
 0002:00008874       $unwind$_Init_thread_notify 000000018001d874     MSVCRT:thread_safe_statics.obj
 0002:00008874       $unwind$DllMain            000000018001d874     MSVCRT:dll_dllmain_stub.obj
 0002:00008874       $unwind$__scrt_dllmain_uninitialize_critical 000000018001d874     MSVCRT:utility.obj
 0002:00008874       $unwind$SWIG_Python_DestroyModule 000000018001d874     xref.obj
 0002:00008874       $unwind$__scrt_dllmain_uninitialize_c 000000018001d874     MSVCRT:utility.obj
 0002:00008874       $unwind$?__raise_e@@YAXAEBVexception@std@@@Z 000000018001d874     xref.obj
 0002:00008874       $unwind$__scrt_dllmain_after_initialize_c 000000018001d874     MSVCRT:utility.obj
 0002:00008874       $unwind$atexit             000000018001d874     MSVCRT:utility.obj
 0002:00008874       $unwind$__scrt_dllmain_before_initialize_c 000000018001d874     MSVCRT:utility.obj
 0002:00008874       $unwind$__GSHandlerCheck   000000018001d874     MSVCRT:gshandler.obj
 0002:00008874       $unwind$SWIG_Python_TypeCache 000000018001d874     xref.obj
 0002:00008874       $unwind$__scrt_acquire_startup_lock 000000018001d874     MSVCRT:utility.obj
 0002:00008874       $unwind$__scrt_initialize_default_local_stdio_options 000000018001d874     MSVCRT:default_local_stdio_options.obj
 0002:00008874       $unwind$SWIG_This          000000018001d874     xref.obj
 0002:00008874       $unwind$?dllmain_crt_dispatch@@YAHQEAUHINSTANCE__@@KQEAX@Z 000000018001d874     MSVCRT:dll_dllmain.obj
 0002:00008874       $unwind$__scrt_dllmain_crt_thread_attach 000000018001d874     MSVCRT:utility.obj
 0002:0000887c       $unwind$SWIG_Python_InitShadowInstance 000000018001d87c     xref.obj
 0002:0000888c       $unwind$SWIG_Python_NewPointerObj 000000018001d88c     xref.obj
 0002:000088a8       $chain$2$SWIG_Python_DestroyModule 000000018001d8a8     xref.obj
 0002:000088c4       $chain$3$SWIG_Python_DestroyModule 000000018001d8c4     xref.obj
 0002:000088d8       $chain$4$SWIG_Python_DestroyModule 000000018001d8d8     xref.obj
 0002:000088e8       $chain$5$SWIG_Python_DestroyModule 000000018001d8e8     xref.obj
 0002:000088f8       $unwind$SWIG_Python_TypeQuery 000000018001d8f8     xref.obj
 0002:00008904       $chain$1$SWIG_Python_TypeQuery 000000018001d904     xref.obj
 0002:0000891c       $chain$5$SWIG_Python_TypeQuery 000000018001d91c     xref.obj
 0002:0000893c       $chain$6$SWIG_Python_TypeQuery 000000018001d93c     xref.obj
 0002:0000894c       $chain$7$SWIG_Python_TypeQuery 000000018001d94c     xref.obj
 0002:0000895c       $unwind$?sprnt@?$_qstring@D@@QEAAAEAV1@PEBDZZ 000000018001d95c     xref.obj
 0002:0000896c       $unwind$?__scrt_throw_std_bad_array_new_length@@YAXXZ 000000018001d96c     MSVCRT:throw_bad_alloc.obj
 0002:0000896c       $unwind$?__scrt_throw_std_bad_alloc@@YAXXZ 000000018001d96c     MSVCRT:throw_bad_alloc.obj
 0002:0000896c       $unwind$?__raise_ie@@YAXAEBUinterr_exc_t@@@Z 000000018001d96c     xref.obj
 0002:00008974       $unwind$?push_back@?$qvector@V?$qvector@H@@@@QEAAXAEBV?$qvector@H@@@Z 000000018001d974     xref.obj
 0002:00008980       $unwind$??4?$qvector@V?$qvector@H@@@@QEAAAEAV0@AEBV0@@Z 000000018001d980     xref.obj
 0002:0000898c       $chain$0$??4?$qvector@V?$qvector@H@@@@QEAAAEAV0@AEBV0@@Z 000000018001d98c     xref.obj
 0002:000089a0       $chain$5$??4?$qvector@V?$qvector@H@@@@QEAAAEAV0@AEBV0@@Z 000000018001d9a0     xref.obj
 0002:000089c4       $chain$6$??4?$qvector@V?$qvector@H@@@@QEAAAEAV0@AEBV0@@Z 000000018001d9c4     xref.obj
 0002:000089e0       $chain$7$??4?$qvector@V?$qvector@H@@@@QEAAAEAV0@AEBV0@@Z 000000018001d9e0     xref.obj
 0002:000089f0       $unwind$?resize@?$qvector@V?$qvector@H@@@@QEAAX_KAEBV?$qvector@H@@@Z 000000018001d9f0     xref.obj
 0002:00008a04       $chain$0$?resize@?$qvector@V?$qvector@H@@@@QEAAX_KAEBV?$qvector@H@@@Z 000000018001da04     xref.obj
 0002:00008a18       $chain$1$?resize@?$qvector@V?$qvector@H@@@@QEAAX_KAEBV?$qvector@H@@@Z 000000018001da18     xref.obj
 0002:00008a28       $unwind$?find@?$qvector@V?$qvector@H@@@@QEAAPEAV?$qvector@H@@AEBV2@@Z 000000018001da28     xref.obj
 0002:00008a28       $unwind$?find@?$qvector@V?$qvector@H@@@@QEBAPEBV?$qvector@H@@AEBV2@@Z 000000018001da28     xref.obj
 0002:00008a30       $unwind$?SWIG_AsCharArray@@YAHPEAU_object@@PEAD_K@Z 000000018001da30     xref.obj
 0002:00008a48       $unwind$_wrap_create_switch_xrefs 000000018001da48     xref.obj
 0002:00008a64       $stateUnwindMap$_wrap_del_dref 000000018001da64     xref.obj
 0002:00008a64       $stateUnwindMap$_wrap_casevec_t_begin__SWIG_0 000000018001da64     xref.obj
 0002:00008a64       $stateUnwindMap$_wrap_get_next_dref_from 000000018001da64     xref.obj
 0002:00008a64       $stateUnwindMap$_wrap_casevec_t_empty 000000018001da64     xref.obj
 0002:00008a64       $stateUnwindMap$_wrap_casevec_t_resize__SWIG_0 000000018001da64     xref.obj
 0002:00008a64       $stateUnwindMap$_wrap_get_first_fcref_to 000000018001da64     xref.obj
 0002:00008a64       $stateUnwindMap$_wrap_get_first_dref_from 000000018001da64     xref.obj
 0002:00008a64       $stateUnwindMap$_wrap_get_first_cref_to 000000018001da64     xref.obj
 0002:00008a64       $stateUnwindMap$_wrap_casevec_t_find__SWIG_0 000000018001da64     xref.obj
 0002:00008a64       $stateUnwindMap$_wrap_add_cref 000000018001da64     xref.obj
 0002:00008a64       $stateUnwindMap$_wrap_casevec_t_insert 000000018001da64     xref.obj
 0002:00008a64       $stateUnwindMap$_wrap_get_next_cref_to 000000018001da64     xref.obj
 0002:00008a64       $stateUnwindMap$_wrap_casevec_t_find__SWIG_1 000000018001da64     xref.obj
 0002:00008a64       $stateUnwindMap$_wrap_xrefblk_t_first_from 000000018001da64     xref.obj
 0002:00008a64       $stateUnwindMap$_wrap_calc_switch_cases 000000018001da64     xref.obj
 0002:00008a64       $stateUnwindMap$_wrap_get_first_dref_to 000000018001da64     xref.obj
 0002:00008a64       $stateUnwindMap$_wrap_casevec_t_has 000000018001da64     xref.obj
 0002:00008a64       $stateUnwindMap$_wrap_xrefblk_t_next_from__SWIG_1 000000018001da64     xref.obj
 0002:00008a64       $stateUnwindMap$_wrap_casevec_t_resize__SWIG_1 000000018001da64     xref.obj
 0002:00008a64       $stateUnwindMap$_wrap_casevec_t_at 000000018001da64     xref.obj
 0002:00008a64       $stateUnwindMap$_wrap_casevec_t_add_unique 000000018001da64     xref.obj
 0002:00008a64       $stateUnwindMap$_wrap_casevec_t_extract 000000018001da64     xref.obj
 0002:00008a64       $stateUnwindMap$_wrap_get_next_fcref_to 000000018001da64     xref.obj
 0002:00008a64       $stateUnwindMap$_wrap_get_next_cref_from 000000018001da64     xref.obj
 0002:00008a64       $stateUnwindMap$_wrap_casevec_t_push_back__SWIG_0 000000018001da64     xref.obj
 0002:00008a64       $stateUnwindMap$_wrap_casevec_t_capacity 000000018001da64     xref.obj
 0002:00008a64       $stateUnwindMap$_wrap_casevec_t_push_back__SWIG_1 000000018001da64     xref.obj
 0002:00008a64       $stateUnwindMap$_wrap_casevec_t_truncate 000000018001da64     xref.obj
 0002:00008a64       $stateUnwindMap$_wrap_xrefblk_t_next_to__SWIG_0 000000018001da64     xref.obj
 0002:00008a64       $stateUnwindMap$_wrap_xrefblk_t_next_from__SWIG_0 000000018001da64     xref.obj
 0002:00008a64       $stateUnwindMap$_wrap_casevec_t_reserve 000000018001da64     xref.obj
 0002:00008a64       $stateUnwindMap$_wrap_casevec_t_qclear 000000018001da64     xref.obj
 0002:00008a64       $stateUnwindMap$_wrap_xrefchar 000000018001da64     xref.obj
 0002:00008a64       $stateUnwindMap$_wrap_casevec_t__del 000000018001da64     xref.obj
 0002:00008a64       $stateUnwindMap$_wrap_del_cref 000000018001da64     xref.obj
 0002:00008a64       $stateUnwindMap$_wrap_casevec_t_end__SWIG_0 000000018001da64     xref.obj
 0002:00008a64       $stateUnwindMap$_wrap_get_next_dref_to 000000018001da64     xref.obj
 0002:00008a64       $stateUnwindMap$_wrap_casevec_t___len__ 000000018001da64     xref.obj
 0002:00008a64       $stateUnwindMap$_wrap_new_casevec_t__SWIG_0 000000018001da64     xref.obj
 0002:00008a64       $stateUnwindMap$_wrap_get_first_fcref_from 000000018001da64     xref.obj
 0002:00008a64       $stateUnwindMap$_wrap_casevec_t_begin__SWIG_1 000000018001da64     xref.obj
 0002:00008a64       $stateUnwindMap$_wrap_casevec_t_inject 000000018001da64     xref.obj
 0002:00008a64       $stateUnwindMap$_wrap_casevec_t_erase__SWIG_0 000000018001da64     xref.obj
 0002:00008a64       $stateUnwindMap$_wrap_has_external_refs 000000018001da64     xref.obj
 0002:00008a64       $stateUnwindMap$_wrap_casevec_t___ne__ 000000018001da64     xref.obj
 0002:00008a64       $stateUnwindMap$_wrap_casevec_t_end__SWIG_1 000000018001da64     xref.obj
 0002:00008a64       $stateUnwindMap$_wrap_new_xrefblk_t 000000018001da64     xref.obj
 0002:00008a64       $stateUnwindMap$_wrap_delete_cases_and_targets_t 000000018001da64     xref.obj
 0002:00008a64       $stateUnwindMap$_wrap_casevec_t___getitem__ 000000018001da64     xref.obj
 0002:00008a64       $stateUnwindMap$_wrap_create_switch_xrefs 000000018001da64     xref.obj
 0002:00008a64       $stateUnwindMap$_wrap_new_cases_and_targets_t 000000018001da64     xref.obj
 0002:00008a64       $stateUnwindMap$_wrap_delete_switch_table 000000018001da64     xref.obj
 0002:00008a64       $stateUnwindMap$_wrap_casevec_t___setitem__ 000000018001da64     xref.obj
 0002:00008a64       $stateUnwindMap$_wrap_create_switch_table 000000018001da64     xref.obj
 0002:00008a64       $stateUnwindMap$_wrap_xrefblk_t_first_to 000000018001da64     xref.obj
 0002:00008a64       $stateUnwindMap$_wrap_delete_casevec_t 000000018001da64     xref.obj
 0002:00008a64       $stateUnwindMap$_wrap_get_first_cref_from 000000018001da64     xref.obj
 0002:00008a64       $stateUnwindMap$_wrap_get_next_fcref_from 000000018001da64     xref.obj
 0002:00008a64       $stateUnwindMap$_wrap_casevec_t_pop_back 000000018001da64     xref.obj
 0002:00008a64       $stateUnwindMap$_wrap_casevec_t_erase__SWIG_1 000000018001da64     xref.obj
 0002:00008a64       $stateUnwindMap$_wrap_casevec_t___eq__ 000000018001da64     xref.obj
 0002:00008a64       $stateUnwindMap$_wrap_xrefblk_t_next_to__SWIG_1 000000018001da64     xref.obj
 0002:00008a64       $stateUnwindMap$_wrap_casevec_t_size 000000018001da64     xref.obj
 0002:00008a64       $stateUnwindMap$_wrap_delete_xrefblk_t 000000018001da64     xref.obj
 0002:00008a64       $stateUnwindMap$_wrap_new_casevec_t__SWIG_1 000000018001da64     xref.obj
 0002:00008a64       $stateUnwindMap$_wrap_casevec_t_swap 000000018001da64     xref.obj
 0002:00008a64       $stateUnwindMap$_wrap_casevec_t_clear 000000018001da64     xref.obj
 0002:00008a64       $stateUnwindMap$_wrap_add_dref 000000018001da64     xref.obj
 0002:00008a74       $tryMap$_wrap_create_switch_xrefs 000000018001da74     xref.obj
 0002:00008a88       $handlerMap$0$_wrap_create_switch_xrefs 000000018001da88     xref.obj
 0002:00008b00       $ip2state$_wrap_create_switch_xrefs 000000018001db00     xref.obj
 0002:00008b20       $unwind$_wrap_create_switch_xrefs$catch$0 000000018001db20     xref.obj
 0002:00008b20       $unwind$_wrap_create_switch_xrefs$catch$3 000000018001db20     xref.obj
 0002:00008b20       $unwind$_wrap_create_switch_xrefs$catch$2 000000018001db20     xref.obj
 0002:00008b20       $unwind$_wrap_create_switch_xrefs$catch$1 000000018001db20     xref.obj
 0002:00008b20       $unwind$_wrap_create_switch_xrefs$catch$5 000000018001db20     xref.obj
 0002:00008b20       $unwind$_wrap_create_switch_xrefs$catch$4 000000018001db20     xref.obj
 0002:00008b30       $unwind$_wrap_cases_and_targets_t_cases_set 000000018001db30     xref.obj
 0002:00008b48       $unwind$_wrap_cases_and_targets_t_cases_get 000000018001db48     xref.obj
 0002:00008b48       $unwind$_wrap_xrefblk_t_iscode_get 000000018001db48     xref.obj
 0002:00008b48       $unwind$_wrap_xrefblk_t_user_get 000000018001db48     xref.obj
 0002:00008b48       $unwind$_wrap_xrefblk_t_type_get 000000018001db48     xref.obj
 0002:00008b48       $unwind$_wrap_xrefblk_t_to_get 000000018001db48     xref.obj
 0002:00008b48       $unwind$_wrap_xrefblk_t_frm_get 000000018001db48     xref.obj
 0002:00008b48       $unwind$_wrap_cases_and_targets_t_targets_get 000000018001db48     xref.obj
 0002:00008b58       $chain$0$_wrap_cases_and_targets_t_cases_get 000000018001db58     xref.obj
 0002:00008b6c       $chain$1$_wrap_cases_and_targets_t_cases_get 000000018001db6c     xref.obj
 0002:00008b7c       $unwind$_wrap_cases_and_targets_t_targets_set 000000018001db7c     xref.obj
 0002:00008b88       $chain$4$_wrap_cases_and_targets_t_targets_set 000000018001db88     xref.obj
 0002:00008bac       $chain$5$_wrap_cases_and_targets_t_targets_set 000000018001dbac     xref.obj
 0002:00008bbc       $chain$6$_wrap_cases_and_targets_t_targets_set 000000018001dbbc     xref.obj
 0002:00008be0       $chain$0$_wrap_cases_and_targets_t_targets_get 000000018001dbe0     xref.obj
 0002:00008bf4       $chain$1$_wrap_cases_and_targets_t_targets_get 000000018001dbf4     xref.obj
 0002:00008c04       $unwind$_wrap_new_cases_and_targets_t 000000018001dc04     xref.obj
 0002:00008c14       $tryMap$_wrap_new_cases_and_targets_t 000000018001dc14     xref.obj
 0002:00008c28       $handlerMap$0$_wrap_new_cases_and_targets_t 000000018001dc28     xref.obj
 0002:00008ca0       $ip2state$_wrap_new_cases_and_targets_t 000000018001dca0     xref.obj
 0002:00008cc0       $unwind$_wrap_new_cases_and_targets_t$catch$5 000000018001dcc0     xref.obj
 0002:00008cc0       $unwind$_wrap_new_cases_and_targets_t$catch$4 000000018001dcc0     xref.obj
 0002:00008cc0       $unwind$_wrap_new_cases_and_targets_t$catch$3 000000018001dcc0     xref.obj
 0002:00008cc0       $unwind$_wrap_new_cases_and_targets_t$catch$1 000000018001dcc0     xref.obj
 0002:00008cc0       $unwind$_wrap_new_cases_and_targets_t$catch$2 000000018001dcc0     xref.obj
 0002:00008cc0       $unwind$_wrap_new_cases_and_targets_t$catch$6 000000018001dcc0     xref.obj
 0002:00008cd0       $unwind$_wrap_delete_cases_and_targets_t 000000018001dcd0     xref.obj
 0002:00008cec       $tryMap$_wrap_delete_cases_and_targets_t 000000018001dcec     xref.obj
 0002:00008d00       $handlerMap$0$_wrap_delete_cases_and_targets_t 000000018001dd00     xref.obj
 0002:00008d78       $ip2state$_wrap_delete_cases_and_targets_t 000000018001dd78     xref.obj
 0002:00008d98       $unwind$_wrap_delete_cases_and_targets_t$catch$6 000000018001dd98     xref.obj
 0002:00008d98       $unwind$_wrap_delete_cases_and_targets_t$catch$5 000000018001dd98     xref.obj
 0002:00008d98       $unwind$_wrap_delete_cases_and_targets_t$catch$4 000000018001dd98     xref.obj
 0002:00008d98       $unwind$_wrap_delete_cases_and_targets_t$catch$3 000000018001dd98     xref.obj
 0002:00008d98       $unwind$_wrap_delete_cases_and_targets_t$catch$2 000000018001dd98     xref.obj
 0002:00008d98       $unwind$_wrap_delete_cases_and_targets_t$catch$1 000000018001dd98     xref.obj
 0002:00008da8       $unwind$xrefblk_t_swigregister 000000018001dda8     xref.obj
 0002:00008da8       $unwind$casevec_t_swigregister 000000018001dda8     xref.obj
 0002:00008da8       $unwind$cases_and_targets_t_swigregister 000000018001dda8     xref.obj
 0002:00008db0       $unwind$_wrap_calc_switch_cases 000000018001ddb0     xref.obj
 0002:00008dcc       $tryMap$_wrap_calc_switch_cases 000000018001ddcc     xref.obj
 0002:00008de0       $handlerMap$0$_wrap_calc_switch_cases 000000018001dde0     xref.obj
 0002:00008e58       $ip2state$_wrap_calc_switch_cases 000000018001de58     xref.obj
 0002:00008e80       $unwind$_wrap_calc_switch_cases$catch$5 000000018001de80     xref.obj
 0002:00008e80       $unwind$_wrap_calc_switch_cases$catch$6 000000018001de80     xref.obj
 0002:00008e80       $unwind$_wrap_calc_switch_cases$catch$2 000000018001de80     xref.obj
 0002:00008e80       $unwind$_wrap_calc_switch_cases$catch$7 000000018001de80     xref.obj
 0002:00008e80       $unwind$_wrap_calc_switch_cases$catch$4 000000018001de80     xref.obj
 0002:00008e80       $unwind$_wrap_calc_switch_cases$catch$3 000000018001de80     xref.obj
 0002:00008e90       $unwind$_wrap_create_switch_table 000000018001de90     xref.obj
 0002:00008eac       $tryMap$_wrap_create_switch_table 000000018001deac     xref.obj
 0002:00008ec0       $handlerMap$0$_wrap_create_switch_table 000000018001dec0     xref.obj
 0002:00008f38       $ip2state$_wrap_create_switch_table 000000018001df38     xref.obj
 0002:00008f58       $unwind$_wrap_create_switch_table$catch$0 000000018001df58     xref.obj
 0002:00008f58       $unwind$_wrap_create_switch_table$catch$5 000000018001df58     xref.obj
 0002:00008f58       $unwind$_wrap_create_switch_table$catch$4 000000018001df58     xref.obj
 0002:00008f58       $unwind$_wrap_create_switch_table$catch$2 000000018001df58     xref.obj
 0002:00008f58       $unwind$_wrap_create_switch_table$catch$3 000000018001df58     xref.obj
 0002:00008f58       $unwind$_wrap_create_switch_table$catch$1 000000018001df58     xref.obj
 0002:00008f68       $unwind$_wrap_xrefchar     000000018001df68     xref.obj
 0002:00008f7c       $tryMap$_wrap_xrefchar     000000018001df7c     xref.obj
 0002:00008f90       $handlerMap$0$_wrap_xrefchar 000000018001df90     xref.obj
 0002:00009008       $ip2state$_wrap_xrefchar   000000018001e008     xref.obj
 0002:00009028       $unwind$_wrap_xrefchar$catch$2 000000018001e028     xref.obj
 0002:00009028       $unwind$_wrap_xrefchar$catch$3 000000018001e028     xref.obj
 0002:00009028       $unwind$_wrap_xrefchar$catch$5 000000018001e028     xref.obj
 0002:00009028       $unwind$_wrap_xrefchar$catch$1 000000018001e028     xref.obj
 0002:00009028       $unwind$_wrap_xrefchar$catch$0 000000018001e028     xref.obj
 0002:00009028       $unwind$_wrap_xrefchar$catch$4 000000018001e028     xref.obj
 0002:00009038       $unwind$_wrap_add_cref     000000018001e038     xref.obj
 0002:00009054       $tryMap$_wrap_add_cref     000000018001e054     xref.obj
 0002:00009068       $handlerMap$0$_wrap_add_cref 000000018001e068     xref.obj
 0002:000090e0       $ip2state$_wrap_add_cref   000000018001e0e0     xref.obj
 0002:00009100       $unwind$_wrap_add_cref$catch$0 000000018001e100     xref.obj
 0002:00009100       $unwind$_wrap_add_cref$catch$1 000000018001e100     xref.obj
 0002:00009100       $unwind$_wrap_add_cref$catch$5 000000018001e100     xref.obj
 0002:00009100       $unwind$_wrap_add_cref$catch$2 000000018001e100     xref.obj
 0002:00009100       $unwind$_wrap_add_cref$catch$3 000000018001e100     xref.obj
 0002:00009100       $unwind$_wrap_add_cref$catch$4 000000018001e100     xref.obj
 0002:00009110       $unwind$_wrap_del_cref     000000018001e110     xref.obj
 0002:0000912c       $tryMap$_wrap_del_cref     000000018001e12c     xref.obj
 0002:00009140       $handlerMap$0$_wrap_del_cref 000000018001e140     xref.obj
 0002:000091b8       $ip2state$_wrap_del_cref   000000018001e1b8     xref.obj
 0002:000091d8       $unwind$_wrap_del_cref$catch$3 000000018001e1d8     xref.obj
 0002:000091d8       $unwind$_wrap_del_cref$catch$0 000000018001e1d8     xref.obj
 0002:000091d8       $unwind$_wrap_del_cref$catch$1 000000018001e1d8     xref.obj
 0002:000091d8       $unwind$_wrap_del_cref$catch$2 000000018001e1d8     xref.obj
 0002:000091d8       $unwind$_wrap_del_cref$catch$5 000000018001e1d8     xref.obj
 0002:000091d8       $unwind$_wrap_del_cref$catch$4 000000018001e1d8     xref.obj
 0002:000091e8       $unwind$_wrap_add_dref     000000018001e1e8     xref.obj
 0002:00009204       $tryMap$_wrap_add_dref     000000018001e204     xref.obj
 0002:00009218       $handlerMap$0$_wrap_add_dref 000000018001e218     xref.obj
 0002:00009290       $ip2state$_wrap_add_dref   000000018001e290     xref.obj
 0002:000092b0       $unwind$_wrap_add_dref$catch$3 000000018001e2b0     xref.obj
 0002:000092b0       $unwind$_wrap_add_dref$catch$2 000000018001e2b0     xref.obj
 0002:000092b0       $unwind$_wrap_add_dref$catch$4 000000018001e2b0     xref.obj
 0002:000092b0       $unwind$_wrap_add_dref$catch$5 000000018001e2b0     xref.obj
 0002:000092b0       $unwind$_wrap_add_dref$catch$1 000000018001e2b0     xref.obj
 0002:000092b0       $unwind$_wrap_add_dref$catch$0 000000018001e2b0     xref.obj
 0002:000092c0       $unwind$_wrap_del_dref     000000018001e2c0     xref.obj
 0002:000092d4       $tryMap$_wrap_del_dref     000000018001e2d4     xref.obj
 0002:000092e8       $handlerMap$0$_wrap_del_dref 000000018001e2e8     xref.obj
 0002:00009360       $ip2state$_wrap_del_dref   000000018001e360     xref.obj
 0002:00009378       $unwind$_wrap_del_dref$catch$1 000000018001e378     xref.obj
 0002:00009378       $unwind$_wrap_del_dref$catch$0 000000018001e378     xref.obj
 0002:00009378       $unwind$_wrap_del_dref$catch$4 000000018001e378     xref.obj
 0002:00009378       $unwind$_wrap_del_dref$catch$5 000000018001e378     xref.obj
 0002:00009378       $unwind$_wrap_del_dref$catch$3 000000018001e378     xref.obj
 0002:00009378       $unwind$_wrap_del_dref$catch$2 000000018001e378     xref.obj
 0002:00009388       $unwind$_wrap_xrefblk_t_to_set 000000018001e388     xref.obj
 0002:00009388       $unwind$_wrap_xrefblk_t_frm_set 000000018001e388     xref.obj
 0002:00009398       $chain$0$_wrap_xrefblk_t_frm_set 000000018001e398     xref.obj
 0002:000093ac       $chain$1$_wrap_xrefblk_t_frm_set 000000018001e3ac     xref.obj
 0002:000093bc       $chain$0$_wrap_xrefblk_t_frm_get 000000018001e3bc     xref.obj
 0002:000093d0       $chain$1$_wrap_xrefblk_t_frm_get 000000018001e3d0     xref.obj
 0002:000093e0       $chain$0$_wrap_xrefblk_t_to_set 000000018001e3e0     xref.obj
 0002:000093f4       $chain$1$_wrap_xrefblk_t_to_set 000000018001e3f4     xref.obj
 0002:00009404       $chain$0$_wrap_xrefblk_t_to_get 000000018001e404     xref.obj
 0002:00009418       $chain$1$_wrap_xrefblk_t_to_get 000000018001e418     xref.obj
 0002:00009428       $unwind$_wrap_xrefblk_t_type_set 000000018001e428     xref.obj
 0002:00009428       $unwind$_wrap_xrefblk_t_iscode_set 000000018001e428     xref.obj
 0002:00009428       $unwind$_wrap_xrefblk_t_user_set 000000018001e428     xref.obj
 0002:0000943c       $chain$0$_wrap_xrefblk_t_iscode_set 000000018001e43c     xref.obj
 0002:00009450       $chain$1$_wrap_xrefblk_t_iscode_set 000000018001e450     xref.obj
 0002:00009460       $chain$0$_wrap_xrefblk_t_iscode_get 000000018001e460     xref.obj
 0002:00009474       $chain$1$_wrap_xrefblk_t_iscode_get 000000018001e474     xref.obj
 0002:00009484       $chain$0$_wrap_xrefblk_t_type_set 000000018001e484     xref.obj
 0002:00009498       $chain$1$_wrap_xrefblk_t_type_set 000000018001e498     xref.obj
 0002:000094a8       $chain$0$_wrap_xrefblk_t_type_get 000000018001e4a8     xref.obj
 0002:000094bc       $chain$1$_wrap_xrefblk_t_type_get 000000018001e4bc     xref.obj
 0002:000094cc       $chain$0$_wrap_xrefblk_t_user_set 000000018001e4cc     xref.obj
 0002:000094e0       $chain$1$_wrap_xrefblk_t_user_set 000000018001e4e0     xref.obj
 0002:000094f0       $chain$0$_wrap_xrefblk_t_user_get 000000018001e4f0     xref.obj
 0002:00009504       $chain$1$_wrap_xrefblk_t_user_get 000000018001e504     xref.obj
 0002:00009514       $unwind$_wrap_xrefblk_t_first_from 000000018001e514     xref.obj
 0002:0000953c       $tryMap$_wrap_xrefblk_t_first_from 000000018001e53c     xref.obj
 0002:00009550       $handlerMap$0$_wrap_xrefblk_t_first_from 000000018001e550     xref.obj
 0002:000095c8       $ip2state$_wrap_xrefblk_t_first_from 000000018001e5c8     xref.obj
 0002:000095e8       $unwind$_wrap_xrefblk_t_first_from$catch$5 000000018001e5e8     xref.obj
 0002:000095e8       $unwind$_wrap_xrefblk_t_first_from$catch$3 000000018001e5e8     xref.obj
 0002:000095e8       $unwind$_wrap_xrefblk_t_first_from$catch$2 000000018001e5e8     xref.obj
 0002:000095e8       $unwind$_wrap_xrefblk_t_first_from$catch$0 000000018001e5e8     xref.obj
 0002:000095e8       $unwind$_wrap_xrefblk_t_first_from$catch$1 000000018001e5e8     xref.obj
 0002:000095e8       $unwind$_wrap_xrefblk_t_first_from$catch$4 000000018001e5e8     xref.obj
 0002:000095f8       $unwind$_wrap_xrefblk_t_next_from__SWIG_0 000000018001e5f8     xref.obj
 0002:00009618       $tryMap$_wrap_xrefblk_t_next_from__SWIG_0 000000018001e618     xref.obj
 0002:0000962c       $handlerMap$0$_wrap_xrefblk_t_next_from__SWIG_0 000000018001e62c     xref.obj
 0002:000096a8       $ip2state$_wrap_xrefblk_t_next_from__SWIG_0 000000018001e6a8     xref.obj
 0002:000096c8       $unwind$_wrap_xrefblk_t_next_from__SWIG_0$catch$0 000000018001e6c8     xref.obj
 0002:000096c8       $unwind$_wrap_xrefblk_t_next_from__SWIG_0$catch$5 000000018001e6c8     xref.obj
 0002:000096c8       $unwind$_wrap_xrefblk_t_next_from__SWIG_0$catch$4 000000018001e6c8     xref.obj
 0002:000096c8       $unwind$_wrap_xrefblk_t_next_from__SWIG_0$catch$3 000000018001e6c8     xref.obj
 0002:000096c8       $unwind$_wrap_xrefblk_t_next_from__SWIG_0$catch$2 000000018001e6c8     xref.obj
 0002:000096c8       $unwind$_wrap_xrefblk_t_next_from__SWIG_0$catch$1 000000018001e6c8     xref.obj
 0002:000096d8       $unwind$_wrap_xrefblk_t_first_to 000000018001e6d8     xref.obj
 0002:00009700       $tryMap$_wrap_xrefblk_t_first_to 000000018001e700     xref.obj
 0002:00009714       $handlerMap$0$_wrap_xrefblk_t_first_to 000000018001e714     xref.obj
 0002:00009790       $ip2state$_wrap_xrefblk_t_first_to 000000018001e790     xref.obj
 0002:000097b0       $unwind$_wrap_xrefblk_t_first_to$catch$1 000000018001e7b0     xref.obj
 0002:000097b0       $unwind$_wrap_xrefblk_t_first_to$catch$0 000000018001e7b0     xref.obj
 0002:000097b0       $unwind$_wrap_xrefblk_t_first_to$catch$5 000000018001e7b0     xref.obj
 0002:000097b0       $unwind$_wrap_xrefblk_t_first_to$catch$4 000000018001e7b0     xref.obj
 0002:000097b0       $unwind$_wrap_xrefblk_t_first_to$catch$3 000000018001e7b0     xref.obj
 0002:000097b0       $unwind$_wrap_xrefblk_t_first_to$catch$2 000000018001e7b0     xref.obj
 0002:000097c0       $unwind$_wrap_xrefblk_t_next_to__SWIG_0 000000018001e7c0     xref.obj
 0002:000097e0       $tryMap$_wrap_xrefblk_t_next_to__SWIG_0 000000018001e7e0     xref.obj
 0002:000097f4       $handlerMap$0$_wrap_xrefblk_t_next_to__SWIG_0 000000018001e7f4     xref.obj
 0002:00009870       $ip2state$_wrap_xrefblk_t_next_to__SWIG_0 000000018001e870     xref.obj
 0002:00009890       $unwind$_wrap_xrefblk_t_next_to__SWIG_0$catch$1 000000018001e890     xref.obj
 0002:00009890       $unwind$_wrap_xrefblk_t_next_to__SWIG_0$catch$0 000000018001e890     xref.obj
 0002:00009890       $unwind$_wrap_xrefblk_t_next_to__SWIG_0$catch$5 000000018001e890     xref.obj
 0002:00009890       $unwind$_wrap_xrefblk_t_next_to__SWIG_0$catch$4 000000018001e890     xref.obj
 0002:00009890       $unwind$_wrap_xrefblk_t_next_to__SWIG_0$catch$3 000000018001e890     xref.obj
 0002:00009890       $unwind$_wrap_xrefblk_t_next_to__SWIG_0$catch$2 000000018001e890     xref.obj
 0002:000098a0       $unwind$_wrap_xrefblk_t_next_from__SWIG_1 000000018001e8a0     xref.obj
 0002:000098bc       $tryMap$_wrap_xrefblk_t_next_from__SWIG_1 000000018001e8bc     xref.obj
 0002:000098d0       $handlerMap$0$_wrap_xrefblk_t_next_from__SWIG_1 000000018001e8d0     xref.obj
 0002:00009948       $ip2state$_wrap_xrefblk_t_next_from__SWIG_1 000000018001e948     xref.obj
 0002:00009968       $unwind$_wrap_xrefblk_t_next_from__SWIG_1$catch$0 000000018001e968     xref.obj
 0002:00009968       $unwind$_wrap_xrefblk_t_next_from__SWIG_1$catch$1 000000018001e968     xref.obj
 0002:00009968       $unwind$_wrap_xrefblk_t_next_from__SWIG_1$catch$5 000000018001e968     xref.obj
 0002:00009968       $unwind$_wrap_xrefblk_t_next_from__SWIG_1$catch$4 000000018001e968     xref.obj
 0002:00009968       $unwind$_wrap_xrefblk_t_next_from__SWIG_1$catch$3 000000018001e968     xref.obj
 0002:00009968       $unwind$_wrap_xrefblk_t_next_from__SWIG_1$catch$2 000000018001e968     xref.obj
 0002:00009978       $unwind$_wrap_xrefblk_t_next_to 000000018001e978     xref.obj
 0002:00009978       $unwind$_wrap_xrefblk_t_next_from 000000018001e978     xref.obj
 0002:0000998c       $chain$3$_wrap_xrefblk_t_next_from 000000018001e98c     xref.obj
 0002:000099ac       $chain$4$_wrap_xrefblk_t_next_from 000000018001e9ac     xref.obj
 0002:000099bc       $unwind$_wrap_xrefblk_t_next_to__SWIG_1 000000018001e9bc     xref.obj
 0002:000099d8       $tryMap$_wrap_xrefblk_t_next_to__SWIG_1 000000018001e9d8     xref.obj
 0002:000099ec       $handlerMap$0$_wrap_xrefblk_t_next_to__SWIG_1 000000018001e9ec     xref.obj
 0002:00009a68       $ip2state$_wrap_xrefblk_t_next_to__SWIG_1 000000018001ea68     xref.obj
 0002:00009a88       $unwind$_wrap_xrefblk_t_next_to__SWIG_1$catch$1 000000018001ea88     xref.obj
 0002:00009a88       $unwind$_wrap_xrefblk_t_next_to__SWIG_1$catch$5 000000018001ea88     xref.obj
 0002:00009a88       $unwind$_wrap_xrefblk_t_next_to__SWIG_1$catch$4 000000018001ea88     xref.obj
 0002:00009a88       $unwind$_wrap_xrefblk_t_next_to__SWIG_1$catch$3 000000018001ea88     xref.obj
 0002:00009a88       $unwind$_wrap_xrefblk_t_next_to__SWIG_1$catch$2 000000018001ea88     xref.obj
 0002:00009a88       $unwind$_wrap_xrefblk_t_next_to__SWIG_1$catch$0 000000018001ea88     xref.obj
 0002:00009a98       $chain$3$_wrap_xrefblk_t_next_to 000000018001ea98     xref.obj
 0002:00009ab8       $chain$4$_wrap_xrefblk_t_next_to 000000018001eab8     xref.obj
 0002:00009ac8       $unwind$_wrap_new_xrefblk_t 000000018001eac8     xref.obj
 0002:00009ad8       $tryMap$_wrap_new_xrefblk_t 000000018001ead8     xref.obj
 0002:00009aec       $handlerMap$0$_wrap_new_xrefblk_t 000000018001eaec     xref.obj
 0002:00009b68       $ip2state$_wrap_new_xrefblk_t 000000018001eb68     xref.obj
 0002:00009b88       $unwind$_wrap_new_xrefblk_t$catch$1 000000018001eb88     xref.obj
 0002:00009b88       $unwind$_wrap_new_xrefblk_t$catch$4 000000018001eb88     xref.obj
 0002:00009b88       $unwind$_wrap_new_xrefblk_t$catch$3 000000018001eb88     xref.obj
 0002:00009b88       $unwind$_wrap_new_xrefblk_t$catch$2 000000018001eb88     xref.obj
 0002:00009b88       $unwind$_wrap_new_xrefblk_t$catch$0 000000018001eb88     xref.obj
 0002:00009b88       $unwind$_wrap_new_xrefblk_t$catch$5 000000018001eb88     xref.obj
 0002:00009b98       $unwind$_wrap_delete_xrefblk_t 000000018001eb98     xref.obj
 0002:00009bb4       $tryMap$_wrap_delete_xrefblk_t 000000018001ebb4     xref.obj
 0002:00009bc8       $handlerMap$0$_wrap_delete_xrefblk_t 000000018001ebc8     xref.obj
 0002:00009c40       $ip2state$_wrap_delete_xrefblk_t 000000018001ec40     xref.obj
 0002:00009c60       $unwind$_wrap_delete_xrefblk_t$catch$2 000000018001ec60     xref.obj
 0002:00009c60       $unwind$_wrap_delete_xrefblk_t$catch$4 000000018001ec60     xref.obj
 0002:00009c60       $unwind$_wrap_delete_xrefblk_t$catch$1 000000018001ec60     xref.obj
 0002:00009c60       $unwind$_wrap_delete_xrefblk_t$catch$5 000000018001ec60     xref.obj
 0002:00009c60       $unwind$_wrap_delete_xrefblk_t$catch$0 000000018001ec60     xref.obj
 0002:00009c60       $unwind$_wrap_delete_xrefblk_t$catch$3 000000018001ec60     xref.obj
 0002:00009c70       $unwind$_wrap_get_first_dref_from 000000018001ec70     xref.obj
 0002:00009c84       $tryMap$_wrap_get_first_dref_from 000000018001ec84     xref.obj
 0002:00009c98       $handlerMap$0$_wrap_get_first_dref_from 000000018001ec98     xref.obj
 0002:00009d10       $ip2state$_wrap_get_first_dref_from 000000018001ed10     xref.obj
 0002:00009d28       $unwind$_wrap_get_first_dref_from$catch$1 000000018001ed28     xref.obj
 0002:00009d28       $unwind$_wrap_get_first_dref_from$catch$5 000000018001ed28     xref.obj
 0002:00009d28       $unwind$_wrap_get_first_dref_from$catch$0 000000018001ed28     xref.obj
 0002:00009d28       $unwind$_wrap_get_first_dref_from$catch$2 000000018001ed28     xref.obj
 0002:00009d28       $unwind$_wrap_get_first_dref_from$catch$4 000000018001ed28     xref.obj
 0002:00009d28       $unwind$_wrap_get_first_dref_from$catch$3 000000018001ed28     xref.obj
 0002:00009d38       $unwind$_wrap_get_next_dref_from 000000018001ed38     xref.obj
 0002:00009d4c       $tryMap$_wrap_get_next_dref_from 000000018001ed4c     xref.obj
 0002:00009d60       $handlerMap$0$_wrap_get_next_dref_from 000000018001ed60     xref.obj
 0002:00009dd8       $ip2state$_wrap_get_next_dref_from 000000018001edd8     xref.obj
 0002:00009df0       $unwind$_wrap_get_next_dref_from$catch$5 000000018001edf0     xref.obj
 0002:00009df0       $unwind$_wrap_get_next_dref_from$catch$3 000000018001edf0     xref.obj
 0002:00009df0       $unwind$_wrap_get_next_dref_from$catch$2 000000018001edf0     xref.obj
 0002:00009df0       $unwind$_wrap_get_next_dref_from$catch$0 000000018001edf0     xref.obj
 0002:00009df0       $unwind$_wrap_get_next_dref_from$catch$1 000000018001edf0     xref.obj
 0002:00009df0       $unwind$_wrap_get_next_dref_from$catch$4 000000018001edf0     xref.obj
 0002:00009e00       $unwind$_wrap_get_first_dref_to 000000018001ee00     xref.obj
 0002:00009e14       $tryMap$_wrap_get_first_dref_to 000000018001ee14     xref.obj
 0002:00009e28       $handlerMap$0$_wrap_get_first_dref_to 000000018001ee28     xref.obj
 0002:00009ea0       $ip2state$_wrap_get_first_dref_to 000000018001eea0     xref.obj
 0002:00009eb8       $unwind$_wrap_get_first_dref_to$catch$3 000000018001eeb8     xref.obj
 0002:00009eb8       $unwind$_wrap_get_first_dref_to$catch$4 000000018001eeb8     xref.obj
 0002:00009eb8       $unwind$_wrap_get_first_dref_to$catch$2 000000018001eeb8     xref.obj
 0002:00009eb8       $unwind$_wrap_get_first_dref_to$catch$1 000000018001eeb8     xref.obj
 0002:00009eb8       $unwind$_wrap_get_first_dref_to$catch$0 000000018001eeb8     xref.obj
 0002:00009eb8       $unwind$_wrap_get_first_dref_to$catch$5 000000018001eeb8     xref.obj
 0002:00009ec8       $unwind$_wrap_get_next_dref_to 000000018001eec8     xref.obj
 0002:00009edc       $tryMap$_wrap_get_next_dref_to 000000018001eedc     xref.obj
 0002:00009ef0       $handlerMap$0$_wrap_get_next_dref_to 000000018001eef0     xref.obj
 0002:00009f68       $ip2state$_wrap_get_next_dref_to 000000018001ef68     xref.obj
 0002:00009f80       $unwind$_wrap_get_next_dref_to$catch$2 000000018001ef80     xref.obj
 0002:00009f80       $unwind$_wrap_get_next_dref_to$catch$3 000000018001ef80     xref.obj
 0002:00009f80       $unwind$_wrap_get_next_dref_to$catch$5 000000018001ef80     xref.obj
 0002:00009f80       $unwind$_wrap_get_next_dref_to$catch$1 000000018001ef80     xref.obj
 0002:00009f80       $unwind$_wrap_get_next_dref_to$catch$0 000000018001ef80     xref.obj
 0002:00009f80       $unwind$_wrap_get_next_dref_to$catch$4 000000018001ef80     xref.obj
 0002:00009f90       $unwind$_wrap_get_first_cref_from 000000018001ef90     xref.obj
 0002:00009fa4       $tryMap$_wrap_get_first_cref_from 000000018001efa4     xref.obj
 0002:00009fb8       $handlerMap$0$_wrap_get_first_cref_from 000000018001efb8     xref.obj
 0002:0000a030       $ip2state$_wrap_get_first_cref_from 000000018001f030     xref.obj
 0002:0000a048       $unwind$_wrap_get_first_cref_from$catch$4 000000018001f048     xref.obj
 0002:0000a048       $unwind$_wrap_get_first_cref_from$catch$5 000000018001f048     xref.obj
 0002:0000a048       $unwind$_wrap_get_first_cref_from$catch$0 000000018001f048     xref.obj
 0002:0000a048       $unwind$_wrap_get_first_cref_from$catch$2 000000018001f048     xref.obj
 0002:0000a048       $unwind$_wrap_get_first_cref_from$catch$1 000000018001f048     xref.obj
 0002:0000a048       $unwind$_wrap_get_first_cref_from$catch$3 000000018001f048     xref.obj
 0002:0000a058       $unwind$_wrap_get_next_cref_from 000000018001f058     xref.obj
 0002:0000a06c       $tryMap$_wrap_get_next_cref_from 000000018001f06c     xref.obj
 0002:0000a080       $handlerMap$0$_wrap_get_next_cref_from 000000018001f080     xref.obj
 0002:0000a0f8       $ip2state$_wrap_get_next_cref_from 000000018001f0f8     xref.obj
 0002:0000a110       $unwind$_wrap_get_next_cref_from$catch$5 000000018001f110     xref.obj
 0002:0000a110       $unwind$_wrap_get_next_cref_from$catch$3 000000018001f110     xref.obj
 0002:0000a110       $unwind$_wrap_get_next_cref_from$catch$2 000000018001f110     xref.obj
 0002:0000a110       $unwind$_wrap_get_next_cref_from$catch$1 000000018001f110     xref.obj
 0002:0000a110       $unwind$_wrap_get_next_cref_from$catch$0 000000018001f110     xref.obj
 0002:0000a110       $unwind$_wrap_get_next_cref_from$catch$4 000000018001f110     xref.obj
 0002:0000a120       $unwind$_wrap_get_first_cref_to 000000018001f120     xref.obj
 0002:0000a134       $tryMap$_wrap_get_first_cref_to 000000018001f134     xref.obj
 0002:0000a148       $handlerMap$0$_wrap_get_first_cref_to 000000018001f148     xref.obj
 0002:0000a1c0       $ip2state$_wrap_get_first_cref_to 000000018001f1c0     xref.obj
 0002:0000a1d8       $unwind$_wrap_get_first_cref_to$catch$4 000000018001f1d8     xref.obj
 0002:0000a1d8       $unwind$_wrap_get_first_cref_to$catch$3 000000018001f1d8     xref.obj
 0002:0000a1d8       $unwind$_wrap_get_first_cref_to$catch$2 000000018001f1d8     xref.obj
 0002:0000a1d8       $unwind$_wrap_get_first_cref_to$catch$1 000000018001f1d8     xref.obj
 0002:0000a1d8       $unwind$_wrap_get_first_cref_to$catch$0 000000018001f1d8     xref.obj
 0002:0000a1d8       $unwind$_wrap_get_first_cref_to$catch$5 000000018001f1d8     xref.obj
 0002:0000a1e8       $unwind$_wrap_get_next_cref_to 000000018001f1e8     xref.obj
 0002:0000a1fc       $tryMap$_wrap_get_next_cref_to 000000018001f1fc     xref.obj
 0002:0000a210       $handlerMap$0$_wrap_get_next_cref_to 000000018001f210     xref.obj
 0002:0000a288       $ip2state$_wrap_get_next_cref_to 000000018001f288     xref.obj
 0002:0000a2a0       $unwind$_wrap_get_next_cref_to$catch$2 000000018001f2a0     xref.obj
 0002:0000a2a0       $unwind$_wrap_get_next_cref_to$catch$4 000000018001f2a0     xref.obj
 0002:0000a2a0       $unwind$_wrap_get_next_cref_to$catch$1 000000018001f2a0     xref.obj
 0002:0000a2a0       $unwind$_wrap_get_next_cref_to$catch$3 000000018001f2a0     xref.obj
 0002:0000a2a0       $unwind$_wrap_get_next_cref_to$catch$5 000000018001f2a0     xref.obj
 0002:0000a2a0       $unwind$_wrap_get_next_cref_to$catch$0 000000018001f2a0     xref.obj
 0002:0000a2b0       $unwind$_wrap_get_first_fcref_from 000000018001f2b0     xref.obj
 0002:0000a2c4       $tryMap$_wrap_get_first_fcref_from 000000018001f2c4     xref.obj
 0002:0000a2d8       $handlerMap$0$_wrap_get_first_fcref_from 000000018001f2d8     xref.obj
 0002:0000a350       $ip2state$_wrap_get_first_fcref_from 000000018001f350     xref.obj
 0002:0000a368       $unwind$_wrap_get_first_fcref_from$catch$5 000000018001f368     xref.obj
 0002:0000a368       $unwind$_wrap_get_first_fcref_from$catch$0 000000018001f368     xref.obj
 0002:0000a368       $unwind$_wrap_get_first_fcref_from$catch$1 000000018001f368     xref.obj
 0002:0000a368       $unwind$_wrap_get_first_fcref_from$catch$2 000000018001f368     xref.obj
 0002:0000a368       $unwind$_wrap_get_first_fcref_from$catch$4 000000018001f368     xref.obj
 0002:0000a368       $unwind$_wrap_get_first_fcref_from$catch$3 000000018001f368     xref.obj
 0002:0000a378       $unwind$_wrap_get_next_fcref_from 000000018001f378     xref.obj
 0002:0000a38c       $tryMap$_wrap_get_next_fcref_from 000000018001f38c     xref.obj
 0002:0000a3a0       $handlerMap$0$_wrap_get_next_fcref_from 000000018001f3a0     xref.obj
 0002:0000a418       $ip2state$_wrap_get_next_fcref_from 000000018001f418     xref.obj
 0002:0000a430       $unwind$_wrap_get_next_fcref_from$catch$0 000000018001f430     xref.obj
 0002:0000a430       $unwind$_wrap_get_next_fcref_from$catch$1 000000018001f430     xref.obj
 0002:0000a430       $unwind$_wrap_get_next_fcref_from$catch$2 000000018001f430     xref.obj
 0002:0000a430       $unwind$_wrap_get_next_fcref_from$catch$3 000000018001f430     xref.obj
 0002:0000a430       $unwind$_wrap_get_next_fcref_from$catch$4 000000018001f430     xref.obj
 0002:0000a430       $unwind$_wrap_get_next_fcref_from$catch$5 000000018001f430     xref.obj
 0002:0000a440       $unwind$_wrap_get_first_fcref_to 000000018001f440     xref.obj
 0002:0000a454       $tryMap$_wrap_get_first_fcref_to 000000018001f454     xref.obj
 0002:0000a468       $handlerMap$0$_wrap_get_first_fcref_to 000000018001f468     xref.obj
 0002:0000a4e0       $ip2state$_wrap_get_first_fcref_to 000000018001f4e0     xref.obj
 0002:0000a4f8       $unwind$_wrap_get_first_fcref_to$catch$5 000000018001f4f8     xref.obj
 0002:0000a4f8       $unwind$_wrap_get_first_fcref_to$catch$2 000000018001f4f8     xref.obj
 0002:0000a4f8       $unwind$_wrap_get_first_fcref_to$catch$3 000000018001f4f8     xref.obj
 0002:0000a4f8       $unwind$_wrap_get_first_fcref_to$catch$0 000000018001f4f8     xref.obj
 0002:0000a4f8       $unwind$_wrap_get_first_fcref_to$catch$4 000000018001f4f8     xref.obj
 0002:0000a4f8       $unwind$_wrap_get_first_fcref_to$catch$1 000000018001f4f8     xref.obj
 0002:0000a508       $unwind$_wrap_get_next_fcref_to 000000018001f508     xref.obj
 0002:0000a51c       $tryMap$_wrap_get_next_fcref_to 000000018001f51c     xref.obj
 0002:0000a530       $handlerMap$0$_wrap_get_next_fcref_to 000000018001f530     xref.obj
 0002:0000a5a8       $ip2state$_wrap_get_next_fcref_to 000000018001f5a8     xref.obj
 0002:0000a5c0       $unwind$_wrap_get_next_fcref_to$catch$2 000000018001f5c0     xref.obj
 0002:0000a5c0       $unwind$_wrap_get_next_fcref_to$catch$0 000000018001f5c0     xref.obj
 0002:0000a5c0       $unwind$_wrap_get_next_fcref_to$catch$4 000000018001f5c0     xref.obj
 0002:0000a5c0       $unwind$_wrap_get_next_fcref_to$catch$5 000000018001f5c0     xref.obj
 0002:0000a5c0       $unwind$_wrap_get_next_fcref_to$catch$3 000000018001f5c0     xref.obj
 0002:0000a5c0       $unwind$_wrap_get_next_fcref_to$catch$1 000000018001f5c0     xref.obj
 0002:0000a5d0       $unwind$_wrap_has_external_refs 000000018001f5d0     xref.obj
 0002:0000a5f0       $tryMap$_wrap_has_external_refs 000000018001f5f0     xref.obj
 0002:0000a604       $handlerMap$0$_wrap_has_external_refs 000000018001f604     xref.obj
 0002:0000a680       $ip2state$_wrap_has_external_refs 000000018001f680     xref.obj
 0002:0000a6a0       $unwind$_wrap_has_external_refs$catch$5 000000018001f6a0     xref.obj
 0002:0000a6a0       $unwind$_wrap_has_external_refs$catch$3 000000018001f6a0     xref.obj
 0002:0000a6a0       $unwind$_wrap_has_external_refs$catch$2 000000018001f6a0     xref.obj
 0002:0000a6a0       $unwind$_wrap_has_external_refs$catch$1 000000018001f6a0     xref.obj
 0002:0000a6a0       $unwind$_wrap_has_external_refs$catch$0 000000018001f6a0     xref.obj
 0002:0000a6a0       $unwind$_wrap_has_external_refs$catch$4 000000018001f6a0     xref.obj
 0002:0000a6b0       $unwind$_wrap_delete_switch_table 000000018001f6b0     xref.obj
 0002:0000a6cc       $tryMap$_wrap_delete_switch_table 000000018001f6cc     xref.obj
 0002:0000a6e0       $handlerMap$0$_wrap_delete_switch_table 000000018001f6e0     xref.obj
 0002:0000a758       $ip2state$_wrap_delete_switch_table 000000018001f758     xref.obj
 0002:0000a778       $unwind$_wrap_delete_switch_table$catch$5 000000018001f778     xref.obj
 0002:0000a778       $unwind$_wrap_delete_switch_table$catch$4 000000018001f778     xref.obj
 0002:0000a778       $unwind$_wrap_delete_switch_table$catch$1 000000018001f778     xref.obj
 0002:0000a778       $unwind$_wrap_delete_switch_table$catch$0 000000018001f778     xref.obj
 0002:0000a778       $unwind$_wrap_delete_switch_table$catch$3 000000018001f778     xref.obj
 0002:0000a778       $unwind$_wrap_delete_switch_table$catch$2 000000018001f778     xref.obj
 0002:0000a788       $unwind$_wrap_new_casevec_t__SWIG_0 000000018001f788     xref.obj
 0002:0000a798       $tryMap$_wrap_new_casevec_t__SWIG_0 000000018001f798     xref.obj
 0002:0000a7ac       $handlerMap$0$_wrap_new_casevec_t__SWIG_0 000000018001f7ac     xref.obj
 0002:0000a828       $ip2state$_wrap_new_casevec_t__SWIG_0 000000018001f828     xref.obj
 0002:0000a840       $unwind$_wrap_new_casevec_t__SWIG_0$catch$5 000000018001f840     xref.obj
 0002:0000a840       $unwind$_wrap_new_casevec_t__SWIG_0$catch$1 000000018001f840     xref.obj
 0002:0000a840       $unwind$_wrap_new_casevec_t__SWIG_0$catch$2 000000018001f840     xref.obj
 0002:0000a840       $unwind$_wrap_new_casevec_t__SWIG_0$catch$3 000000018001f840     xref.obj
 0002:0000a840       $unwind$_wrap_new_casevec_t__SWIG_0$catch$6 000000018001f840     xref.obj
 0002:0000a840       $unwind$_wrap_new_casevec_t__SWIG_0$catch$4 000000018001f840     xref.obj
 0002:0000a850       $unwind$_wrap_new_casevec_t__SWIG_1 000000018001f850     xref.obj
 0002:0000a870       $tryMap$_wrap_new_casevec_t__SWIG_1 000000018001f870     xref.obj
 0002:0000a884       $handlerMap$0$_wrap_new_casevec_t__SWIG_1 000000018001f884     xref.obj
 0002:0000a900       $ip2state$_wrap_new_casevec_t__SWIG_1 000000018001f900     xref.obj
 0002:0000a920       $unwind$_wrap_new_casevec_t__SWIG_1$catch$4 000000018001f920     xref.obj
 0002:0000a920       $unwind$_wrap_new_casevec_t__SWIG_1$catch$1 000000018001f920     xref.obj
 0002:0000a920       $unwind$_wrap_new_casevec_t__SWIG_1$catch$5 000000018001f920     xref.obj
 0002:0000a920       $unwind$_wrap_new_casevec_t__SWIG_1$catch$2 000000018001f920     xref.obj
 0002:0000a920       $unwind$_wrap_new_casevec_t__SWIG_1$catch$6 000000018001f920     xref.obj
 0002:0000a920       $unwind$_wrap_new_casevec_t__SWIG_1$catch$3 000000018001f920     xref.obj
 0002:0000a930       $unwind$_wrap_new_casevec_t 000000018001f930     xref.obj
 0002:0000a948       $unwind$_wrap_delete_casevec_t 000000018001f948     xref.obj
 0002:0000a964       $tryMap$_wrap_delete_casevec_t 000000018001f964     xref.obj
 0002:0000a978       $handlerMap$0$_wrap_delete_casevec_t 000000018001f978     xref.obj
 0002:0000a9f0       $ip2state$_wrap_delete_casevec_t 000000018001f9f0     xref.obj
 0002:0000aa10       $unwind$_wrap_delete_casevec_t$catch$5 000000018001fa10     xref.obj
 0002:0000aa10       $unwind$_wrap_delete_casevec_t$catch$2 000000018001fa10     xref.obj
 0002:0000aa10       $unwind$_wrap_delete_casevec_t$catch$0 000000018001fa10     xref.obj
 0002:0000aa10       $unwind$_wrap_delete_casevec_t$catch$1 000000018001fa10     xref.obj
 0002:0000aa10       $unwind$_wrap_delete_casevec_t$catch$3 000000018001fa10     xref.obj
 0002:0000aa10       $unwind$_wrap_delete_casevec_t$catch$4 000000018001fa10     xref.obj
 0002:0000aa20       $unwind$_wrap_casevec_t_push_back__SWIG_0 000000018001fa20     xref.obj
 0002:0000aa40       $tryMap$_wrap_casevec_t_push_back__SWIG_0 000000018001fa40     xref.obj
 0002:0000aa54       $handlerMap$0$_wrap_casevec_t_push_back__SWIG_0 000000018001fa54     xref.obj
 0002:0000aad0       $ip2state$_wrap_casevec_t_push_back__SWIG_0 000000018001fad0     xref.obj
 0002:0000aaf8       $unwind$_wrap_casevec_t_push_back__SWIG_0$catch$2 000000018001faf8     xref.obj
 0002:0000aaf8       $unwind$_wrap_casevec_t_push_back__SWIG_0$catch$1 000000018001faf8     xref.obj
 0002:0000aaf8       $unwind$_wrap_casevec_t_push_back__SWIG_0$catch$0 000000018001faf8     xref.obj
 0002:0000aaf8       $unwind$_wrap_casevec_t_push_back__SWIG_0$catch$3 000000018001faf8     xref.obj
 0002:0000aaf8       $unwind$_wrap_casevec_t_push_back__SWIG_0$catch$4 000000018001faf8     xref.obj
 0002:0000aaf8       $unwind$_wrap_casevec_t_push_back__SWIG_0$catch$5 000000018001faf8     xref.obj
 0002:0000ab08       $unwind$_wrap_casevec_t_push_back__SWIG_1 000000018001fb08     xref.obj
 0002:0000ab28       $tryMap$_wrap_casevec_t_push_back__SWIG_1 000000018001fb28     xref.obj
 0002:0000ab3c       $handlerMap$0$_wrap_casevec_t_push_back__SWIG_1 000000018001fb3c     xref.obj
 0002:0000abb8       $ip2state$_wrap_casevec_t_push_back__SWIG_1 000000018001fbb8     xref.obj
 0002:0000abd8       $unwind$_wrap_casevec_t_push_back__SWIG_1$catch$3 000000018001fbd8     xref.obj
 0002:0000abd8       $unwind$_wrap_casevec_t_push_back__SWIG_1$catch$5 000000018001fbd8     xref.obj
 0002:0000abd8       $unwind$_wrap_casevec_t_push_back__SWIG_1$catch$4 000000018001fbd8     xref.obj
 0002:0000abd8       $unwind$_wrap_casevec_t_push_back__SWIG_1$catch$2 000000018001fbd8     xref.obj
 0002:0000abd8       $unwind$_wrap_casevec_t_push_back__SWIG_1$catch$1 000000018001fbd8     xref.obj
 0002:0000abd8       $unwind$_wrap_casevec_t_push_back__SWIG_1$catch$0 000000018001fbd8     xref.obj
 0002:0000abe8       $unwind$_wrap_casevec_t_find 000000018001fbe8     xref.obj
 0002:0000abe8       $unwind$_wrap_casevec_t_push_back 000000018001fbe8     xref.obj
 0002:0000ac08       $unwind$_wrap_casevec_t_pop_back 000000018001fc08     xref.obj
 0002:0000ac24       $tryMap$_wrap_casevec_t_pop_back 000000018001fc24     xref.obj
 0002:0000ac38       $handlerMap$0$_wrap_casevec_t_pop_back 000000018001fc38     xref.obj
 0002:0000acb0       $ip2state$_wrap_casevec_t_pop_back 000000018001fcb0     xref.obj
 0002:0000acd0       $unwind$_wrap_casevec_t_pop_back$catch$1 000000018001fcd0     xref.obj
 0002:0000acd0       $unwind$_wrap_casevec_t_pop_back$catch$3 000000018001fcd0     xref.obj
 0002:0000acd0       $unwind$_wrap_casevec_t_pop_back$catch$5 000000018001fcd0     xref.obj
 0002:0000acd0       $unwind$_wrap_casevec_t_pop_back$catch$0 000000018001fcd0     xref.obj
 0002:0000acd0       $unwind$_wrap_casevec_t_pop_back$catch$2 000000018001fcd0     xref.obj
 0002:0000acd0       $unwind$_wrap_casevec_t_pop_back$catch$4 000000018001fcd0     xref.obj
 0002:0000ace0       $unwind$_wrap_casevec_t_size 000000018001fce0     xref.obj
 0002:0000acfc       $tryMap$_wrap_casevec_t_size 000000018001fcfc     xref.obj
 0002:0000ad10       $handlerMap$0$_wrap_casevec_t_size 000000018001fd10     xref.obj
 0002:0000ad88       $ip2state$_wrap_casevec_t_size 000000018001fd88     xref.obj
 0002:0000ada8       $unwind$_wrap_casevec_t_size$catch$5 000000018001fda8     xref.obj
 0002:0000ada8       $unwind$_wrap_casevec_t_size$catch$4 000000018001fda8     xref.obj
 0002:0000ada8       $unwind$_wrap_casevec_t_size$catch$2 000000018001fda8     xref.obj
 0002:0000ada8       $unwind$_wrap_casevec_t_size$catch$1 000000018001fda8     xref.obj
 0002:0000ada8       $unwind$_wrap_casevec_t_size$catch$0 000000018001fda8     xref.obj
 0002:0000ada8       $unwind$_wrap_casevec_t_size$catch$3 000000018001fda8     xref.obj
 0002:0000adb8       $unwind$_wrap_casevec_t_empty 000000018001fdb8     xref.obj
 0002:0000add8       $tryMap$_wrap_casevec_t_empty 000000018001fdd8     xref.obj
 0002:0000adec       $handlerMap$0$_wrap_casevec_t_empty 000000018001fdec     xref.obj
 0002:0000ae68       $ip2state$_wrap_casevec_t_empty 000000018001fe68     xref.obj
 0002:0000ae88       $unwind$_wrap_casevec_t_empty$catch$3 000000018001fe88     xref.obj
 0002:0000ae88       $unwind$_wrap_casevec_t_empty$catch$4 000000018001fe88     xref.obj
 0002:0000ae88       $unwind$_wrap_casevec_t_empty$catch$5 000000018001fe88     xref.obj
 0002:0000ae88       $unwind$_wrap_casevec_t_empty$catch$2 000000018001fe88     xref.obj
 0002:0000ae88       $unwind$_wrap_casevec_t_empty$catch$1 000000018001fe88     xref.obj
 0002:0000ae88       $unwind$_wrap_casevec_t_empty$catch$0 000000018001fe88     xref.obj
 0002:0000ae98       $unwind$_wrap_casevec_t_at 000000018001fe98     xref.obj
 0002:0000aeb4       $tryMap$_wrap_casevec_t_at 000000018001feb4     xref.obj
 0002:0000aec8       $handlerMap$0$_wrap_casevec_t_at 000000018001fec8     xref.obj
 0002:0000af40       $ip2state$_wrap_casevec_t_at 000000018001ff40     xref.obj
 0002:0000af60       $unwind$_wrap_casevec_t_at$catch$2 000000018001ff60     xref.obj
 0002:0000af60       $unwind$_wrap_casevec_t_at$catch$1 000000018001ff60     xref.obj
 0002:0000af60       $unwind$_wrap_casevec_t_at$catch$0 000000018001ff60     xref.obj
 0002:0000af60       $unwind$_wrap_casevec_t_at$catch$3 000000018001ff60     xref.obj
 0002:0000af60       $unwind$_wrap_casevec_t_at$catch$5 000000018001ff60     xref.obj
 0002:0000af60       $unwind$_wrap_casevec_t_at$catch$4 000000018001ff60     xref.obj
 0002:0000af70       $unwind$_wrap_casevec_t_qclear 000000018001ff70     xref.obj
 0002:0000af8c       $tryMap$_wrap_casevec_t_qclear 000000018001ff8c     xref.obj
 0002:0000afa0       $handlerMap$0$_wrap_casevec_t_qclear 000000018001ffa0     xref.obj
 0002:0000b018       $ip2state$_wrap_casevec_t_qclear 0000000180020018     xref.obj
 0002:0000b038       $unwind$_wrap_casevec_t_qclear$catch$2 0000000180020038     xref.obj
 0002:0000b038       $unwind$_wrap_casevec_t_qclear$catch$1 0000000180020038     xref.obj
 0002:0000b038       $unwind$_wrap_casevec_t_qclear$catch$0 0000000180020038     xref.obj
 0002:0000b038       $unwind$_wrap_casevec_t_qclear$catch$5 0000000180020038     xref.obj
 0002:0000b038       $unwind$_wrap_casevec_t_qclear$catch$4 0000000180020038     xref.obj
 0002:0000b038       $unwind$_wrap_casevec_t_qclear$catch$3 0000000180020038     xref.obj
 0002:0000b048       $unwind$_wrap_casevec_t_clear 0000000180020048     xref.obj
 0002:0000b064       $tryMap$_wrap_casevec_t_clear 0000000180020064     xref.obj
 0002:0000b078       $handlerMap$0$_wrap_casevec_t_clear 0000000180020078     xref.obj
 0002:0000b0f0       $ip2state$_wrap_casevec_t_clear 00000001800200f0     xref.obj
 0002:0000b110       $unwind$_wrap_casevec_t_clear$catch$3 0000000180020110     xref.obj
 0002:0000b110       $unwind$_wrap_casevec_t_clear$catch$5 0000000180020110     xref.obj
 0002:0000b110       $unwind$_wrap_casevec_t_clear$catch$2 0000000180020110     xref.obj
 0002:0000b110       $unwind$_wrap_casevec_t_clear$catch$0 0000000180020110     xref.obj
 0002:0000b110       $unwind$_wrap_casevec_t_clear$catch$4 0000000180020110     xref.obj
 0002:0000b110       $unwind$_wrap_casevec_t_clear$catch$1 0000000180020110     xref.obj
 0002:0000b120       $unwind$_wrap_casevec_t_resize__SWIG_0 0000000180020120     xref.obj
 0002:0000b140       $tryMap$_wrap_casevec_t_resize__SWIG_0 0000000180020140     xref.obj
 0002:0000b154       $handlerMap$0$_wrap_casevec_t_resize__SWIG_0 0000000180020154     xref.obj
 0002:0000b1d0       $ip2state$_wrap_casevec_t_resize__SWIG_0 00000001800201d0     xref.obj
 0002:0000b1f8       $unwind$_wrap_casevec_t_resize__SWIG_0$catch$2 00000001800201f8     xref.obj
 0002:0000b1f8       $unwind$_wrap_casevec_t_resize__SWIG_0$catch$1 00000001800201f8     xref.obj
 0002:0000b1f8       $unwind$_wrap_casevec_t_resize__SWIG_0$catch$3 00000001800201f8     xref.obj
 0002:0000b1f8       $unwind$_wrap_casevec_t_resize__SWIG_0$catch$5 00000001800201f8     xref.obj
 0002:0000b1f8       $unwind$_wrap_casevec_t_resize__SWIG_0$catch$4 00000001800201f8     xref.obj
 0002:0000b1f8       $unwind$_wrap_casevec_t_resize__SWIG_0$catch$0 00000001800201f8     xref.obj
 0002:0000b208       $unwind$_wrap_casevec_t_resize__SWIG_1 0000000180020208     xref.obj
 0002:0000b228       $tryMap$_wrap_casevec_t_resize__SWIG_1 0000000180020228     xref.obj
 0002:0000b23c       $handlerMap$0$_wrap_casevec_t_resize__SWIG_1 000000018002023c     xref.obj
 0002:0000b2b8       $ip2state$_wrap_casevec_t_resize__SWIG_1 00000001800202b8     xref.obj
 0002:0000b2d8       $unwind$_wrap_casevec_t_resize__SWIG_1$catch$4 00000001800202d8     xref.obj
 0002:0000b2d8       $unwind$_wrap_casevec_t_resize__SWIG_1$catch$5 00000001800202d8     xref.obj
 0002:0000b2d8       $unwind$_wrap_casevec_t_resize__SWIG_1$catch$0 00000001800202d8     xref.obj
 0002:0000b2d8       $unwind$_wrap_casevec_t_resize__SWIG_1$catch$3 00000001800202d8     xref.obj
 0002:0000b2d8       $unwind$_wrap_casevec_t_resize__SWIG_1$catch$1 00000001800202d8     xref.obj
 0002:0000b2d8       $unwind$_wrap_casevec_t_resize__SWIG_1$catch$2 00000001800202d8     xref.obj
 0002:0000b2e8       $unwind$_wrap_casevec_t_resize 00000001800202e8     xref.obj
 0002:0000b308       $unwind$_wrap_casevec_t_grow 0000000180020308     xref.obj
 0002:0000b32c       $stateUnwindMap$_wrap_casevec_t_grow 000000018002032c     xref.obj
 0002:0000b344       $tryMap$_wrap_casevec_t_grow 0000000180020344     xref.obj
 0002:0000b358       $handlerMap$0$_wrap_casevec_t_grow 0000000180020358     xref.obj
 0002:0000b3d0       $ip2state$_wrap_casevec_t_grow 00000001800203d0     xref.obj
 0002:0000b3f8       $unwind$_wrap_casevec_t_grow$catch$3 00000001800203f8     xref.obj
 0002:0000b3f8       $unwind$_wrap_casevec_t_grow$catch$4 00000001800203f8     xref.obj
 0002:0000b3f8       $unwind$_wrap_casevec_t_grow$catch$6 00000001800203f8     xref.obj
 0002:0000b3f8       $unwind$_wrap_casevec_t_grow$catch$2 00000001800203f8     xref.obj
 0002:0000b3f8       $unwind$_wrap_casevec_t_grow$catch$5 00000001800203f8     xref.obj
 0002:0000b3f8       $unwind$_wrap_casevec_t_grow$catch$1 00000001800203f8     xref.obj
 0002:0000b408       $unwind$_wrap_casevec_t_capacity 0000000180020408     xref.obj
 0002:0000b424       $tryMap$_wrap_casevec_t_capacity 0000000180020424     xref.obj
 0002:0000b438       $handlerMap$0$_wrap_casevec_t_capacity 0000000180020438     xref.obj
 0002:0000b4b0       $ip2state$_wrap_casevec_t_capacity 00000001800204b0     xref.obj
 0002:0000b4d0       $unwind$_wrap_casevec_t_capacity$catch$5 00000001800204d0     xref.obj
 0002:0000b4d0       $unwind$_wrap_casevec_t_capacity$catch$1 00000001800204d0     xref.obj
 0002:0000b4d0       $unwind$_wrap_casevec_t_capacity$catch$3 00000001800204d0     xref.obj
 0002:0000b4d0       $unwind$_wrap_casevec_t_capacity$catch$4 00000001800204d0     xref.obj
 0002:0000b4d0       $unwind$_wrap_casevec_t_capacity$catch$0 00000001800204d0     xref.obj
 0002:0000b4d0       $unwind$_wrap_casevec_t_capacity$catch$2 00000001800204d0     xref.obj
 0002:0000b4e0       $unwind$_wrap_casevec_t_reserve 00000001800204e0     xref.obj
 0002:0000b4fc       $tryMap$_wrap_casevec_t_reserve 00000001800204fc     xref.obj
 0002:0000b510       $handlerMap$0$_wrap_casevec_t_reserve 0000000180020510     xref.obj
 0002:0000b588       $ip2state$_wrap_casevec_t_reserve 0000000180020588     xref.obj
 0002:0000b5a8       $unwind$_wrap_casevec_t_reserve$catch$0 00000001800205a8     xref.obj
 0002:0000b5a8       $unwind$_wrap_casevec_t_reserve$catch$1 00000001800205a8     xref.obj
 0002:0000b5a8       $unwind$_wrap_casevec_t_reserve$catch$4 00000001800205a8     xref.obj
 0002:0000b5a8       $unwind$_wrap_casevec_t_reserve$catch$3 00000001800205a8     xref.obj
 0002:0000b5a8       $unwind$_wrap_casevec_t_reserve$catch$2 00000001800205a8     xref.obj
 0002:0000b5a8       $unwind$_wrap_casevec_t_reserve$catch$5 00000001800205a8     xref.obj
 0002:0000b5b8       $unwind$_wrap_casevec_t_truncate 00000001800205b8     xref.obj
 0002:0000b5d4       $tryMap$_wrap_casevec_t_truncate 00000001800205d4     xref.obj
 0002:0000b5e8       $handlerMap$0$_wrap_casevec_t_truncate 00000001800205e8     xref.obj
 0002:0000b660       $ip2state$_wrap_casevec_t_truncate 0000000180020660     xref.obj
 0002:0000b680       $unwind$_wrap_casevec_t_truncate$catch$4 0000000180020680     xref.obj
 0002:0000b680       $unwind$_wrap_casevec_t_truncate$catch$0 0000000180020680     xref.obj
 0002:0000b680       $unwind$_wrap_casevec_t_truncate$catch$5 0000000180020680     xref.obj
 0002:0000b680       $unwind$_wrap_casevec_t_truncate$catch$2 0000000180020680     xref.obj
 0002:0000b680       $unwind$_wrap_casevec_t_truncate$catch$1 0000000180020680     xref.obj
 0002:0000b680       $unwind$_wrap_casevec_t_truncate$catch$3 0000000180020680     xref.obj
 0002:0000b690       $unwind$_wrap_casevec_t_swap 0000000180020690     xref.obj
 0002:0000b6b0       $tryMap$_wrap_casevec_t_swap 00000001800206b0     xref.obj
 0002:0000b6c4       $handlerMap$0$_wrap_casevec_t_swap 00000001800206c4     xref.obj
 0002:0000b740       $ip2state$_wrap_casevec_t_swap 0000000180020740     xref.obj
 0002:0000b768       $unwind$_wrap_casevec_t_swap$catch$5 0000000180020768     xref.obj
 0002:0000b768       $unwind$_wrap_casevec_t_swap$catch$2 0000000180020768     xref.obj
 0002:0000b768       $unwind$_wrap_casevec_t_swap$catch$0 0000000180020768     xref.obj
 0002:0000b768       $unwind$_wrap_casevec_t_swap$catch$3 0000000180020768     xref.obj
 0002:0000b768       $unwind$_wrap_casevec_t_swap$catch$4 0000000180020768     xref.obj
 0002:0000b768       $unwind$_wrap_casevec_t_swap$catch$1 0000000180020768     xref.obj
 0002:0000b778       $unwind$_wrap_casevec_t_extract 0000000180020778     xref.obj
 0002:0000b798       $tryMap$_wrap_casevec_t_extract 0000000180020798     xref.obj
 0002:0000b7ac       $handlerMap$0$_wrap_casevec_t_extract 00000001800207ac     xref.obj
 0002:0000b828       $ip2state$_wrap_casevec_t_extract 0000000180020828     xref.obj
 0002:0000b848       $unwind$_wrap_casevec_t_extract$catch$2 0000000180020848     xref.obj
 0002:0000b848       $unwind$_wrap_casevec_t_extract$catch$0 0000000180020848     xref.obj
 0002:0000b848       $unwind$_wrap_casevec_t_extract$catch$4 0000000180020848     xref.obj
 0002:0000b848       $unwind$_wrap_casevec_t_extract$catch$5 0000000180020848     xref.obj
 0002:0000b848       $unwind$_wrap_casevec_t_extract$catch$1 0000000180020848     xref.obj
 0002:0000b848       $unwind$_wrap_casevec_t_extract$catch$3 0000000180020848     xref.obj
 0002:0000b858       $unwind$_wrap_casevec_t_inject 0000000180020858     xref.obj
 0002:0000b880       $tryMap$_wrap_casevec_t_inject 0000000180020880     xref.obj
 0002:0000b894       $handlerMap$0$_wrap_casevec_t_inject 0000000180020894     xref.obj
 0002:0000b910       $ip2state$_wrap_casevec_t_inject 0000000180020910     xref.obj
 0002:0000b940       $unwind$_wrap_casevec_t_inject$catch$1 0000000180020940     xref.obj
 0002:0000b940       $unwind$_wrap_casevec_t_inject$catch$5 0000000180020940     xref.obj
 0002:0000b940       $unwind$_wrap_casevec_t_inject$catch$0 0000000180020940     xref.obj
 0002:0000b940       $unwind$_wrap_casevec_t_inject$catch$4 0000000180020940     xref.obj
 0002:0000b940       $unwind$_wrap_casevec_t_inject$catch$2 0000000180020940     xref.obj
 0002:0000b940       $unwind$_wrap_casevec_t_inject$catch$3 0000000180020940     xref.obj
 0002:0000b950       $unwind$_wrap_casevec_t___eq__ 0000000180020950     xref.obj
 0002:0000b970       $tryMap$_wrap_casevec_t___eq__ 0000000180020970     xref.obj
 0002:0000b984       $handlerMap$0$_wrap_casevec_t___eq__ 0000000180020984     xref.obj
 0002:0000ba00       $ip2state$_wrap_casevec_t___eq__ 0000000180020a00     xref.obj
 0002:0000ba28       $unwind$_wrap_casevec_t___eq__$catch$0 0000000180020a28     xref.obj
 0002:0000ba28       $unwind$_wrap_casevec_t___eq__$catch$1 0000000180020a28     xref.obj
 0002:0000ba28       $unwind$_wrap_casevec_t___eq__$catch$2 0000000180020a28     xref.obj
 0002:0000ba28       $unwind$_wrap_casevec_t___eq__$catch$4 0000000180020a28     xref.obj
 0002:0000ba28       $unwind$_wrap_casevec_t___eq__$catch$5 0000000180020a28     xref.obj
 0002:0000ba28       $unwind$_wrap_casevec_t___eq__$catch$3 0000000180020a28     xref.obj
 0002:0000ba38       $unwind$_wrap_casevec_t___ne__ 0000000180020a38     xref.obj
 0002:0000ba58       $tryMap$_wrap_casevec_t___ne__ 0000000180020a58     xref.obj
 0002:0000ba6c       $handlerMap$0$_wrap_casevec_t___ne__ 0000000180020a6c     xref.obj
 0002:0000bae8       $ip2state$_wrap_casevec_t___ne__ 0000000180020ae8     xref.obj
 0002:0000bb10       $unwind$_wrap_casevec_t___ne__$catch$5 0000000180020b10     xref.obj
 0002:0000bb10       $unwind$_wrap_casevec_t___ne__$catch$4 0000000180020b10     xref.obj
 0002:0000bb10       $unwind$_wrap_casevec_t___ne__$catch$0 0000000180020b10     xref.obj
 0002:0000bb10       $unwind$_wrap_casevec_t___ne__$catch$1 0000000180020b10     xref.obj
 0002:0000bb10       $unwind$_wrap_casevec_t___ne__$catch$2 0000000180020b10     xref.obj
 0002:0000bb10       $unwind$_wrap_casevec_t___ne__$catch$3 0000000180020b10     xref.obj
 0002:0000bb20       $unwind$_wrap_casevec_t_begin__SWIG_0 0000000180020b20     xref.obj
 0002:0000bb3c       $tryMap$_wrap_casevec_t_begin__SWIG_0 0000000180020b3c     xref.obj
 0002:0000bb50       $handlerMap$0$_wrap_casevec_t_begin__SWIG_0 0000000180020b50     xref.obj
 0002:0000bbc8       $ip2state$_wrap_casevec_t_begin__SWIG_0 0000000180020bc8     xref.obj
 0002:0000bbe8       $unwind$_wrap_casevec_t_begin__SWIG_0$catch$5 0000000180020be8     xref.obj
 0002:0000bbe8       $unwind$_wrap_casevec_t_begin__SWIG_0$catch$4 0000000180020be8     xref.obj
 0002:0000bbe8       $unwind$_wrap_casevec_t_begin__SWIG_0$catch$3 0000000180020be8     xref.obj
 0002:0000bbe8       $unwind$_wrap_casevec_t_begin__SWIG_0$catch$2 0000000180020be8     xref.obj
 0002:0000bbe8       $unwind$_wrap_casevec_t_begin__SWIG_0$catch$1 0000000180020be8     xref.obj
 0002:0000bbe8       $unwind$_wrap_casevec_t_begin__SWIG_0$catch$0 0000000180020be8     xref.obj
 0002:0000bbf8       $unwind$_wrap_casevec_t_end__SWIG_0 0000000180020bf8     xref.obj
 0002:0000bc14       $tryMap$_wrap_casevec_t_end__SWIG_0 0000000180020c14     xref.obj
 0002:0000bc28       $handlerMap$0$_wrap_casevec_t_end__SWIG_0 0000000180020c28     xref.obj
 0002:0000bca0       $ip2state$_wrap_casevec_t_end__SWIG_0 0000000180020ca0     xref.obj
 0002:0000bcc0       $unwind$_wrap_casevec_t_end__SWIG_0$catch$0 0000000180020cc0     xref.obj
 0002:0000bcc0       $unwind$_wrap_casevec_t_end__SWIG_0$catch$5 0000000180020cc0     xref.obj
 0002:0000bcc0       $unwind$_wrap_casevec_t_end__SWIG_0$catch$2 0000000180020cc0     xref.obj
 0002:0000bcc0       $unwind$_wrap_casevec_t_end__SWIG_0$catch$3 0000000180020cc0     xref.obj
 0002:0000bcc0       $unwind$_wrap_casevec_t_end__SWIG_0$catch$4 0000000180020cc0     xref.obj
 0002:0000bcc0       $unwind$_wrap_casevec_t_end__SWIG_0$catch$1 0000000180020cc0     xref.obj
 0002:0000bcd0       $unwind$_wrap_casevec_t_begin__SWIG_1 0000000180020cd0     xref.obj
 0002:0000bcec       $tryMap$_wrap_casevec_t_begin__SWIG_1 0000000180020cec     xref.obj
 0002:0000bd00       $handlerMap$0$_wrap_casevec_t_begin__SWIG_1 0000000180020d00     xref.obj
 0002:0000bd78       $ip2state$_wrap_casevec_t_begin__SWIG_1 0000000180020d78     xref.obj
 0002:0000bd98       $unwind$_wrap_casevec_t_begin__SWIG_1$catch$5 0000000180020d98     xref.obj
 0002:0000bd98       $unwind$_wrap_casevec_t_begin__SWIG_1$catch$4 0000000180020d98     xref.obj
 0002:0000bd98       $unwind$_wrap_casevec_t_begin__SWIG_1$catch$3 0000000180020d98     xref.obj
 0002:0000bd98       $unwind$_wrap_casevec_t_begin__SWIG_1$catch$2 0000000180020d98     xref.obj
 0002:0000bd98       $unwind$_wrap_casevec_t_begin__SWIG_1$catch$1 0000000180020d98     xref.obj
 0002:0000bd98       $unwind$_wrap_casevec_t_begin__SWIG_1$catch$0 0000000180020d98     xref.obj
 0002:0000bda8       $unwind$_wrap_casevec_t_end 0000000180020da8     xref.obj
 0002:0000bda8       $unwind$_wrap_casevec_t_begin 0000000180020da8     xref.obj
 0002:0000bdbc       $unwind$_wrap_casevec_t_end__SWIG_1 0000000180020dbc     xref.obj
 0002:0000bdd8       $tryMap$_wrap_casevec_t_end__SWIG_1 0000000180020dd8     xref.obj
 0002:0000bdec       $handlerMap$0$_wrap_casevec_t_end__SWIG_1 0000000180020dec     xref.obj
 0002:0000be68       $ip2state$_wrap_casevec_t_end__SWIG_1 0000000180020e68     xref.obj
 0002:0000be88       $unwind$_wrap_casevec_t_end__SWIG_1$catch$3 0000000180020e88     xref.obj
 0002:0000be88       $unwind$_wrap_casevec_t_end__SWIG_1$catch$0 0000000180020e88     xref.obj
 0002:0000be88       $unwind$_wrap_casevec_t_end__SWIG_1$catch$1 0000000180020e88     xref.obj
 0002:0000be88       $unwind$_wrap_casevec_t_end__SWIG_1$catch$4 0000000180020e88     xref.obj
 0002:0000be88       $unwind$_wrap_casevec_t_end__SWIG_1$catch$5 0000000180020e88     xref.obj
 0002:0000be88       $unwind$_wrap_casevec_t_end__SWIG_1$catch$2 0000000180020e88     xref.obj
 0002:0000be98       $unwind$_wrap_casevec_t_insert 0000000180020e98     xref.obj
 0002:0000bec0       $tryMap$_wrap_casevec_t_insert 0000000180020ec0     xref.obj
 0002:0000bed4       $handlerMap$0$_wrap_casevec_t_insert 0000000180020ed4     xref.obj
 0002:0000bf50       $ip2state$_wrap_casevec_t_insert 0000000180020f50     xref.obj
 0002:0000bf80       $unwind$_wrap_casevec_t_insert$catch$1 0000000180020f80     xref.obj
 0002:0000bf80       $unwind$_wrap_casevec_t_insert$catch$4 0000000180020f80     xref.obj
 0002:0000bf80       $unwind$_wrap_casevec_t_insert$catch$0 0000000180020f80     xref.obj
 0002:0000bf80       $unwind$_wrap_casevec_t_insert$catch$2 0000000180020f80     xref.obj
 0002:0000bf80       $unwind$_wrap_casevec_t_insert$catch$3 0000000180020f80     xref.obj
 0002:0000bf80       $unwind$_wrap_casevec_t_insert$catch$5 0000000180020f80     xref.obj
 0002:0000bf90       $unwind$_wrap_casevec_t_erase__SWIG_0 0000000180020f90     xref.obj
 0002:0000bfb0       $tryMap$_wrap_casevec_t_erase__SWIG_0 0000000180020fb0     xref.obj
 0002:0000bfc4       $handlerMap$0$_wrap_casevec_t_erase__SWIG_0 0000000180020fc4     xref.obj
 0002:0000c040       $ip2state$_wrap_casevec_t_erase__SWIG_0 0000000180021040     xref.obj
 0002:0000c068       $unwind$_wrap_casevec_t_erase__SWIG_0$catch$1 0000000180021068     xref.obj
 0002:0000c068       $unwind$_wrap_casevec_t_erase__SWIG_0$catch$4 0000000180021068     xref.obj
 0002:0000c068       $unwind$_wrap_casevec_t_erase__SWIG_0$catch$3 0000000180021068     xref.obj
 0002:0000c068       $unwind$_wrap_casevec_t_erase__SWIG_0$catch$5 0000000180021068     xref.obj
 0002:0000c068       $unwind$_wrap_casevec_t_erase__SWIG_0$catch$0 0000000180021068     xref.obj
 0002:0000c068       $unwind$_wrap_casevec_t_erase__SWIG_0$catch$2 0000000180021068     xref.obj
 0002:0000c078       $unwind$_wrap_casevec_t_erase__SWIG_1 0000000180021078     xref.obj
 0002:0000c094       $tryMap$_wrap_casevec_t_erase__SWIG_1 0000000180021094     xref.obj
 0002:0000c0a8       $handlerMap$0$_wrap_casevec_t_erase__SWIG_1 00000001800210a8     xref.obj
 0002:0000c120       $ip2state$_wrap_casevec_t_erase__SWIG_1 0000000180021120     xref.obj
 0002:0000c148       $unwind$_wrap_casevec_t_erase__SWIG_1$catch$3 0000000180021148     xref.obj
 0002:0000c148       $unwind$_wrap_casevec_t_erase__SWIG_1$catch$1 0000000180021148     xref.obj
 0002:0000c148       $unwind$_wrap_casevec_t_erase__SWIG_1$catch$0 0000000180021148     xref.obj
 0002:0000c148       $unwind$_wrap_casevec_t_erase__SWIG_1$catch$5 0000000180021148     xref.obj
 0002:0000c148       $unwind$_wrap_casevec_t_erase__SWIG_1$catch$4 0000000180021148     xref.obj
 0002:0000c148       $unwind$_wrap_casevec_t_erase__SWIG_1$catch$2 0000000180021148     xref.obj
 0002:0000c158       $unwind$_wrap_casevec_t_erase 0000000180021158     xref.obj
 0002:0000c17c       $unwind$_wrap_casevec_t_find__SWIG_0 000000018002117c     xref.obj
 0002:0000c19c       $tryMap$_wrap_casevec_t_find__SWIG_0 000000018002119c     xref.obj
 0002:0000c1b0       $handlerMap$0$_wrap_casevec_t_find__SWIG_0 00000001800211b0     xref.obj
 0002:0000c228       $ip2state$_wrap_casevec_t_find__SWIG_0 0000000180021228     xref.obj
 0002:0000c250       $unwind$_wrap_casevec_t_find__SWIG_0$catch$5 0000000180021250     xref.obj
 0002:0000c250       $unwind$_wrap_casevec_t_find__SWIG_0$catch$4 0000000180021250     xref.obj
 0002:0000c250       $unwind$_wrap_casevec_t_find__SWIG_0$catch$3 0000000180021250     xref.obj
 0002:0000c250       $unwind$_wrap_casevec_t_find__SWIG_0$catch$2 0000000180021250     xref.obj
 0002:0000c250       $unwind$_wrap_casevec_t_find__SWIG_0$catch$1 0000000180021250     xref.obj
 0002:0000c250       $unwind$_wrap_casevec_t_find__SWIG_0$catch$0 0000000180021250     xref.obj
 0002:0000c260       $unwind$_wrap_casevec_t_find__SWIG_1 0000000180021260     xref.obj
 0002:0000c280       $tryMap$_wrap_casevec_t_find__SWIG_1 0000000180021280     xref.obj
 0002:0000c294       $handlerMap$0$_wrap_casevec_t_find__SWIG_1 0000000180021294     xref.obj
 0002:0000c310       $ip2state$_wrap_casevec_t_find__SWIG_1 0000000180021310     xref.obj
 0002:0000c338       $unwind$_wrap_casevec_t_find__SWIG_1$catch$2 0000000180021338     xref.obj
 0002:0000c338       $unwind$_wrap_casevec_t_find__SWIG_1$catch$5 0000000180021338     xref.obj
 0002:0000c338       $unwind$_wrap_casevec_t_find__SWIG_1$catch$1 0000000180021338     xref.obj
 0002:0000c338       $unwind$_wrap_casevec_t_find__SWIG_1$catch$0 0000000180021338     xref.obj
 0002:0000c338       $unwind$_wrap_casevec_t_find__SWIG_1$catch$4 0000000180021338     xref.obj
 0002:0000c338       $unwind$_wrap_casevec_t_find__SWIG_1$catch$3 0000000180021338     xref.obj
 0002:0000c348       $unwind$_wrap_casevec_t_has 0000000180021348     xref.obj
 0002:0000c368       $tryMap$_wrap_casevec_t_has 0000000180021368     xref.obj
 0002:0000c37c       $handlerMap$0$_wrap_casevec_t_has 000000018002137c     xref.obj
 0002:0000c3f8       $ip2state$_wrap_casevec_t_has 00000001800213f8     xref.obj
 0002:0000c420       $unwind$_wrap_casevec_t_has$catch$4 0000000180021420     xref.obj
 0002:0000c420       $unwind$_wrap_casevec_t_has$catch$3 0000000180021420     xref.obj
 0002:0000c420       $unwind$_wrap_casevec_t_has$catch$2 0000000180021420     xref.obj
 0002:0000c420       $unwind$_wrap_casevec_t_has$catch$1 0000000180021420     xref.obj
 0002:0000c420       $unwind$_wrap_casevec_t_has$catch$0 0000000180021420     xref.obj
 0002:0000c420       $unwind$_wrap_casevec_t_has$catch$5 0000000180021420     xref.obj
 0002:0000c430       $unwind$_wrap_casevec_t_add_unique 0000000180021430     xref.obj
 0002:0000c450       $tryMap$_wrap_casevec_t_add_unique 0000000180021450     xref.obj
 0002:0000c464       $handlerMap$0$_wrap_casevec_t_add_unique 0000000180021464     xref.obj
 0002:0000c4e0       $ip2state$_wrap_casevec_t_add_unique 00000001800214e0     xref.obj
 0002:0000c508       $unwind$_wrap_casevec_t_add_unique$catch$2 0000000180021508     xref.obj
 0002:0000c508       $unwind$_wrap_casevec_t_add_unique$catch$5 0000000180021508     xref.obj
 0002:0000c508       $unwind$_wrap_casevec_t_add_unique$catch$4 0000000180021508     xref.obj
 0002:0000c508       $unwind$_wrap_casevec_t_add_unique$catch$3 0000000180021508     xref.obj
 0002:0000c508       $unwind$_wrap_casevec_t_add_unique$catch$0 0000000180021508     xref.obj
 0002:0000c508       $unwind$_wrap_casevec_t_add_unique$catch$1 0000000180021508     xref.obj
 0002:0000c518       $unwind$_wrap_casevec_t__del 0000000180021518     xref.obj
 0002:0000c538       $tryMap$_wrap_casevec_t__del 0000000180021538     xref.obj
 0002:0000c54c       $handlerMap$0$_wrap_casevec_t__del 000000018002154c     xref.obj
 0002:0000c5c8       $ip2state$_wrap_casevec_t__del 00000001800215c8     xref.obj
 0002:0000c5f0       $unwind$_wrap_casevec_t__del$catch$0 00000001800215f0     xref.obj
 0002:0000c5f0       $unwind$_wrap_casevec_t__del$catch$5 00000001800215f0     xref.obj
 0002:0000c5f0       $unwind$_wrap_casevec_t__del$catch$4 00000001800215f0     xref.obj
 0002:0000c5f0       $unwind$_wrap_casevec_t__del$catch$3 00000001800215f0     xref.obj
 0002:0000c5f0       $unwind$_wrap_casevec_t__del$catch$2 00000001800215f0     xref.obj
 0002:0000c5f0       $unwind$_wrap_casevec_t__del$catch$1 00000001800215f0     xref.obj
 0002:0000c600       $unwind$_wrap_casevec_t___len__ 0000000180021600     xref.obj
 0002:0000c61c       $tryMap$_wrap_casevec_t___len__ 000000018002161c     xref.obj
 0002:0000c630       $handlerMap$0$_wrap_casevec_t___len__ 0000000180021630     xref.obj
 0002:0000c6a8       $ip2state$_wrap_casevec_t___len__ 00000001800216a8     xref.obj
 0002:0000c6c8       $unwind$_wrap_casevec_t___len__$catch$2 00000001800216c8     xref.obj
 0002:0000c6c8       $unwind$_wrap_casevec_t___len__$catch$1 00000001800216c8     xref.obj
 0002:0000c6c8       $unwind$_wrap_casevec_t___len__$catch$5 00000001800216c8     xref.obj
 0002:0000c6c8       $unwind$_wrap_casevec_t___len__$catch$0 00000001800216c8     xref.obj
 0002:0000c6c8       $unwind$_wrap_casevec_t___len__$catch$3 00000001800216c8     xref.obj
 0002:0000c6c8       $unwind$_wrap_casevec_t___len__$catch$4 00000001800216c8     xref.obj
 0002:0000c6d8       $unwind$_wrap_casevec_t___getitem__ 00000001800216d8     xref.obj
 0002:0000c6f8       $tryMap$_wrap_casevec_t___getitem__ 00000001800216f8     xref.obj
 0002:0000c70c       $handlerMap$0$_wrap_casevec_t___getitem__ 000000018002170c     xref.obj
 0002:0000c788       $ip2state$_wrap_casevec_t___getitem__ 0000000180021788     xref.obj
 0002:0000c7b0       $unwind$_wrap_casevec_t___getitem__$catch$1 00000001800217b0     xref.obj
 0002:0000c7b0       $unwind$_wrap_casevec_t___getitem__$catch$2 00000001800217b0     xref.obj
 0002:0000c7b0       $unwind$_wrap_casevec_t___getitem__$catch$4 00000001800217b0     xref.obj
 0002:0000c7b0       $unwind$_wrap_casevec_t___getitem__$catch$3 00000001800217b0     xref.obj
 0002:0000c7b0       $unwind$_wrap_casevec_t___getitem__$catch$5 00000001800217b0     xref.obj
 0002:0000c7b0       $unwind$_wrap_casevec_t___getitem__$catch$0 00000001800217b0     xref.obj
 0002:0000c7c0       $unwind$_wrap_casevec_t___setitem__ 00000001800217c0     xref.obj
 0002:0000c7e8       $tryMap$_wrap_casevec_t___setitem__ 00000001800217e8     xref.obj
 0002:0000c7fc       $handlerMap$0$_wrap_casevec_t___setitem__ 00000001800217fc     xref.obj
 0002:0000c878       $ip2state$_wrap_casevec_t___setitem__ 0000000180021878     xref.obj
 0002:0000c8b0       $unwind$_wrap_casevec_t___setitem__$catch$3 00000001800218b0     xref.obj
 0002:0000c8b0       $unwind$_wrap_casevec_t___setitem__$catch$0 00000001800218b0     xref.obj
 0002:0000c8b0       $unwind$_wrap_casevec_t___setitem__$catch$5 00000001800218b0     xref.obj
 0002:0000c8b0       $unwind$_wrap_casevec_t___setitem__$catch$4 00000001800218b0     xref.obj
 0002:0000c8b0       $unwind$_wrap_casevec_t___setitem__$catch$1 00000001800218b0     xref.obj
 0002:0000c8b0       $unwind$_wrap_casevec_t___setitem__$catch$2 00000001800218b0     xref.obj
 0002:0000c8c0       $unwind$SWIG_InitializeModule 00000001800218c0     xref.obj
 0002:0000c8d0       $chain$1$SWIG_InitializeModule 00000001800218d0     xref.obj
 0002:0000c8e4       $chain$4$SWIG_InitializeModule 00000001800218e4     xref.obj
 0002:0000c900       $chain$5$SWIG_InitializeModule 0000000180021900     xref.obj
 0002:0000c910       $chain$6$SWIG_InitializeModule 0000000180021910     xref.obj
 0002:0000c920       $unwind$SWIG_Python_FixMethods 0000000180021920     xref.obj
 0002:0000c92c       $chain$4$SWIG_Python_FixMethods 000000018002192c     xref.obj
 0002:0000c950       $chain$5$SWIG_Python_FixMethods 0000000180021950     xref.obj
 0002:0000c960       $unwind$PyInit__ida_xref   0000000180021960     xref.obj
 0002:0000c970       $chain$1$PyInit__ida_xref  0000000180021970     xref.obj
 0002:0000c988       $chain$2$PyInit__ida_xref  0000000180021988     xref.obj
 0002:0000c99c       $chain$3$PyInit__ida_xref  000000018002199c     xref.obj
 0002:0000c9ac       $chain$4$PyInit__ida_xref  00000001800219ac     xref.obj
 0002:0000c9bc       $unwind$?__scrt_initialize_thread_safe_statics@@YAHXZ 00000001800219bc     MSVCRT:thread_safe_statics.obj
 0002:0000c9d4       $stateUnwindMap$?__scrt_initialize_thread_safe_statics@@YAHXZ 00000001800219d4     MSVCRT:thread_safe_statics.obj
 0002:0000c9e0       $ip2state$?__scrt_initialize_thread_safe_statics@@YAHXZ 00000001800219e0     MSVCRT:thread_safe_statics.obj
 0002:0000c9e8       $unwind$__GSHandlerCheckCommon 00000001800219e8     MSVCRT:gshandler.obj
 0002:0000c9f0       $unwind$__GSHandlerCheck_EH 00000001800219f0     MSVCRT:gshandlereh.obj
 0002:0000ca08       $xdatasym                  0000000180021a08     MSVCRT:amdsecgs.obj
 0002:0000ca0c       $unwind$?dllmain_crt_process_attach@@YAHQEAUHINSTANCE__@@QEAX@Z 0000000180021a0c     MSVCRT:dll_dllmain.obj
 0002:0000ca48       $unwind$?fin$0@?0??dllmain_crt_process_attach@@YAHQEAUHINSTANCE__@@QEAX@Z@4HA 0000000180021a48     MSVCRT:dll_dllmain.obj
 0002:0000ca48       $unwind$?fin$0@?0??dllmain_crt_process_detach@@YAH_N@Z@4HA 0000000180021a48     MSVCRT:dll_dllmain.obj
 0002:0000ca50       $unwind$?dllmain_crt_process_detach@@YAH_N@Z 0000000180021a50     MSVCRT:dll_dllmain.obj
 0002:0000ca88       $unwind$?dllmain_dispatch@@YAHQEAUHINSTANCE__@@KQEAX@Z 0000000180021a88     MSVCRT:dll_dllmain.obj
 0002:0000cab0       $unwind$?filt$0@?0??dllmain_dispatch@@YAHQEAUHINSTANCE__@@KQEAX@Z@4HA 0000000180021ab0     MSVCRT:dll_dllmain.obj
 0002:0000cab8       $unwind$__scrt_is_nonwritable_in_current_image 0000000180021ab8     MSVCRT:utility.obj
 0002:0000cad8       $unwind$__scrt_is_nonwritable_in_current_image$filt$0 0000000180021ad8     MSVCRT:utility.obj
 0002:0000cae0       $unwind$__scrt_initialize_onexit_tables 0000000180021ae0     MSVCRT:utility.obj
 0002:0000cae8       $unwind$__scrt_dllmain_exception_filter 0000000180021ae8     MSVCRT:utility.obj
 0002:0000cafc       $unwind$__scrt_fastfail    0000000180021afc     MSVCRT:utility_desktop.obj
 0002:0000cb0c       $unwind$__report_gsfailure 0000000180021b0c     MSVCRT:gs_report.obj
 0002:0000cb14       $unwind$capture_previous_context 0000000180021b14     MSVCRT:gs_report.obj
 0002:0000cb20       $unwind$__security_init_cookie 0000000180021b20     MSVCRT:gs_support.obj
 0002:0000cb2c       $unwind$__isa_available_init 0000000180021b2c     MSVCRT:cpu_disp.obj
 0002:0000cb40       $xdatasym                  0000000180021b40     MSVCRT:guard_dispatch.obj
 0002:0000ccd0       .edata                     0000000180021cd0     _ida_xref.exp
 0002:0000ccf8       rgpv                       0000000180021cf8     _ida_xref.exp
 0002:0000ccfc       rgszName                   0000000180021cfc     _ida_xref.exp
 0002:0000cd00       rgwOrd                     0000000180021d00     _ida_xref.exp
 0002:0000cd02       szName                     0000000180021d02     _ida_xref.exp
 0002:0000cd10       $N00001                    0000000180021d10     _ida_xref.exp
 0002:0000d5a6       .idata$6                   00000001800225a6     ida:ida.dll
 0002:0000dbc4       .idata$6                   0000000180022bc4     python38:python38.dll
 0002:0000dbf6       .idata$6                   0000000180022bf6     python:python.dll
 0002:0000de4e       .idata$6                   0000000180022e4e     kernel32:KERNEL32.dll
 0002:0000df2c       .idata$6                   0000000180022f2c     vcruntime:VCRUNTIME140.dll
 0002:0000e062       .idata$6                   0000000180023062     ucrt:api-ms-win-crt-stdio-l1-1-0.dll
 0002:0000e082       .idata$6                   0000000180023082     ucrt:api-ms-win-crt-string-l1-1-0.dll
 0002:0000e0a4       .idata$6                   00000001800230a4     ucrt:api-ms-win-crt-heap-l1-1-0.dll
 0002:0000e0c4       .idata$6                   00000001800230c4     ucrt:api-ms-win-crt-runtime-l1-1-0.dll
 0003:00000000       SwigMethods                0000000180024000     xref.obj
 0003:00000a20       _swigt__p__qstringT_char_t 0000000180024a20     xref.obj
 0003:00000a50       _swigt__p__qstringT_unsigned_char_t 0000000180024a50     xref.obj
 0003:00000a80       _swigt__p__qstringT_unsigned_short_t 0000000180024a80     xref.obj
 0003:00000ab0       _swigt__p_action_ctx_base_t 0000000180024ab0     xref.obj
 0003:00000ae0       _swigt__p_biggest_t        0000000180024ae0     xref.obj
 0003:00000b10       _swigt__p_cases_and_targets_t 0000000180024b10     xref.obj
 0003:00000b40       _swigt__p_char             0000000180024b40     xref.obj
 0003:00000b70       _swigt__p_const_iterator   0000000180024b70     xref.obj
 0003:00000ba0       _swigt__p_f_p_TWidget_int_int_p_void__bool 0000000180024ba0     xref.obj
 0003:00000bd0       _swigt__p_f_p_TWidget_int_p_view_mouse_event_t_p_void__void 0000000180024bd0     xref.obj
 0003:00000c00       _swigt__p_f_p_TWidget_int_p_void__bool 0000000180024c00     xref.obj
 0003:00000c30       _swigt__p_f_p_TWidget_p_lochist_entry_t_p_void__void 0000000180024c30     xref.obj
 0003:00000c60       _swigt__p_f_p_TWidget_p_q_const__lochist_entry_t_p_q_const__lochist_entry_t_r_q_const__locchange_md_t_p_void__void 0000000180024c60     xref.obj
 0003:00000c90       _swigt__p_f_p_TWidget_p_q_const__lochist_entry_t_r_q_const__locchange_md_t_p_void__int 0000000180024c90     xref.obj
 0003:00000cc0       _swigt__p_f_p_TWidget_p_q_const__place_t_int_int_p_void__void 0000000180024cc0     xref.obj
 0003:00000cf0       _swigt__p_f_p_TWidget_p_q_const__place_t_p_int_p_void__int 0000000180024cf0     xref.obj
 0003:00000d20       _swigt__p_f_p_TWidget_p_q_const__place_t_p_q_const__place_t_p_void__int 0000000180024d20     xref.obj
 0003:00000d50       _swigt__p_f_p_TWidget_p_q_const__place_t_p_unsigned_int_p_void__bool 0000000180024d50     xref.obj
 0003:00000d80       _swigt__p_f_p_TWidget_p_void__int 0000000180024d80     xref.obj
 0003:00000db0       _swigt__p_f_p_TWidget_p_void__void 0000000180024db0     xref.obj
 0003:00000de0       _swigt__p_f_p_chooser_multi_t_p_sizevec_t__chooser_base_t__cbres_t 0000000180024de0     xref.obj
 0003:00000e10       _swigt__p_f_p_chooser_t_ssize_t__chooser_t__cbret_t 0000000180024e10     xref.obj
 0003:00000e40       _swigt__p_f_p_lochist_entry_t_r_q_const__lochist_entry_t_p_TWidget__bool 0000000180024e40     xref.obj
 0003:00000e70       _swigt__p_f_p_q_const__char_p_void__void 0000000180024e70     xref.obj
 0003:00000ea0       _swigt__p_f_p_q_const__char_r_q_const__tinfo_t_p_q_const__char_p_q_const__unsigned_long_long_p_void__int 0000000180024ea0     xref.obj
 0003:00000ed0       _swigt__p_f_p_q_const__char_v_______int 0000000180024ed0     xref.obj
 0003:00000f00       _swigt__p_f_p_void_int_va_list__ssize_t 0000000180024f00     xref.obj
 0003:00000f30       _swigt__p_f_r_q_const__insn_t_p_int_p_int__bool 0000000180024f30     xref.obj
 0003:00000f60       _swigt__p_f_r_q_const__insn_t_r_q_const__op_t_r_q_const__tinfo_t_p_q_const__char__bool 0000000180024f60     xref.obj
 0003:00000f90       _swigt__p_f_unsigned_int__bool 0000000180024f90     xref.obj
 0003:00000fc0       _swigt__p_f_unsigned_int_p_q_const__char_unsigned_int_p_void__int 0000000180024fc0     xref.obj
 0003:00000ff0       _swigt__p_f_unsigned_int_p_void__bool 0000000180024ff0     xref.obj
 0003:00001020       _swigt__p_f_unsigned_int_r_q_const__tinfo_t_p_void__int 0000000180025020     xref.obj
 0003:00001050       _swigt__p_f_unsigned_int_unsigned_int__unsigned_int 0000000180025050     xref.obj
 0003:00001080       _swigt__p_func_t           0000000180025080     xref.obj
 0003:000010b0       _swigt__p_int              00000001800250b0     xref.obj
 0003:000010e0       _swigt__p_iterator         00000001800250e0     xref.obj
 0003:00001110       _swigt__p_location_t       0000000180025110     xref.obj
 0003:00001140       _swigt__p_long_long        0000000180025140     xref.obj
 0003:00001170       _swigt__p_qvectorT__qstringT_unsigned_short_t_t 0000000180025170     xref.obj
 0003:000011a0       _swigt__p_qvectorT_argloc_t_t 00000001800251a0     xref.obj
 0003:000011d0       _swigt__p_qvectorT_bool_t  00000001800251d0     xref.obj
 0003:00001200       _swigt__p_qvectorT_channel_redir_t_t 0000000180025200     xref.obj
 0003:00001230       _swigt__p_qvectorT_compiled_binpat_t_t 0000000180025230     xref.obj
 0003:00001260       _swigt__p_qvectorT_funcarg_t_t 0000000180025260     xref.obj
 0003:00001290       _swigt__p_qvectorT_int_t   0000000180025290     xref.obj
 0003:000012c0       _swigt__p_qvectorT_qvectorT_int_t_t 00000001800252c0     xref.obj
 0003:000012f0       _swigt__p_qvectorT_range_t_t 00000001800252f0     xref.obj
 0003:00001320       _swigt__p_qvectorT_rangeset_t_const_p_t 0000000180025320     xref.obj
 0003:00001350       _swigt__p_qvectorT_rangeset_t_t 0000000180025350     xref.obj
 0003:00001380       _swigt__p_qvectorT_refinfo_desc_t_t 0000000180025380     xref.obj
 0003:000013b0       _swigt__p_qvectorT_simd_info_t_t 00000001800253b0     xref.obj
 0003:000013e0       _swigt__p_qvectorT_simpleline_t_t 00000001800253e0     xref.obj
 0003:00001410       _swigt__p_qvectorT_size_t_t 0000000180025410     xref.obj
 0003:00001440       _swigt__p_qvectorT_tinfo_t_t 0000000180025440     xref.obj
 0003:00001470       _swigt__p_qvectorT_type_attr_t_t 0000000180025470     xref.obj
 0003:000014a0       _swigt__p_qvectorT_udt_member_t_t 00000001800254a0     xref.obj
 0003:000014d0       _swigt__p_qvectorT_unsigned_char_t 00000001800254d0     xref.obj
 0003:00001500       _swigt__p_relobj_t         0000000180025500     xref.obj
 0003:00001530       _swigt__p_bytevec_t        0000000180025530     xref.obj
 0003:00001560       _swigt__p_reloc_info_t     0000000180025560     xref.obj
 0003:00001590       _swigt__p_qvectorT_unsigned_int_t 0000000180025590     xref.obj
 0003:000015c0       _swigt__p_short            00000001800255c0     xref.obj
 0003:000015f0       _swigt__p_signed_char      00000001800255f0     xref.obj
 0003:00001620       _swigt__p_switch_info_t    0000000180025620     xref.obj
 0003:00001650       _swigt__p_unsigned_char    0000000180025650     xref.obj
 0003:00001680       _swigt__p_unsigned_int     0000000180025680     xref.obj
 0003:000016b0       _swigt__p_unsigned_long_long 00000001800256b0     xref.obj
 0003:000016e0       _swigt__p_unsigned_short   00000001800256e0     xref.obj
 0003:00001710       _swigt__p_value_type       0000000180025710     xref.obj
 0003:00001740       _swigt__p_xrefblk_t        0000000180025740     xref.obj
 0003:00001770       swig_type_initial          0000000180025770     xref.obj
 0003:000019b0       _swigc__p__qstringT_char_t 00000001800259b0     xref.obj
 0003:000019f0       _swigc__p__qstringT_unsigned_char_t 00000001800259f0     xref.obj
 0003:00001a30       _swigc__p__qstringT_unsigned_short_t 0000000180025a30     xref.obj
 0003:00001a70       _swigc__p_action_ctx_base_t 0000000180025a70     xref.obj
 0003:00001ab0       _swigc__p_biggest_t        0000000180025ab0     xref.obj
 0003:00001af0       _swigc__p_cases_and_targets_t 0000000180025af0     xref.obj
 0003:00001b30       _swigc__p_char             0000000180025b30     xref.obj
 0003:00001b70       _swigc__p_const_iterator   0000000180025b70     xref.obj
 0003:00001bb0       _swigc__p_f_p_TWidget_int_int_p_void__bool 0000000180025bb0     xref.obj
 0003:00001bf0       _swigc__p_f_p_TWidget_int_p_view_mouse_event_t_p_void__void 0000000180025bf0     xref.obj
 0003:00001c30       _swigc__p_f_p_TWidget_int_p_void__bool 0000000180025c30     xref.obj
 0003:00001c70       _swigc__p_f_p_TWidget_p_lochist_entry_t_p_void__void 0000000180025c70     xref.obj
 0003:00001cb0       _swigc__p_f_p_TWidget_p_q_const__lochist_entry_t_p_q_const__lochist_entry_t_r_q_const__locchange_md_t_p_void__void 0000000180025cb0     xref.obj
 0003:00001cf0       _swigc__p_f_p_TWidget_p_q_const__lochist_entry_t_r_q_const__locchange_md_t_p_void__int 0000000180025cf0     xref.obj
 0003:00001d30       _swigc__p_f_p_TWidget_p_q_const__place_t_int_int_p_void__void 0000000180025d30     xref.obj
 0003:00001d70       _swigc__p_f_p_TWidget_p_q_const__place_t_p_int_p_void__int 0000000180025d70     xref.obj
 0003:00001db0       _swigc__p_f_p_TWidget_p_q_const__place_t_p_q_const__place_t_p_void__int 0000000180025db0     xref.obj
 0003:00001df0       _swigc__p_f_p_TWidget_p_q_const__place_t_p_unsigned_int_p_void__bool 0000000180025df0     xref.obj
 0003:00001e30       _swigc__p_f_p_TWidget_p_void__int 0000000180025e30     xref.obj
 0003:00001e70       _swigc__p_f_p_TWidget_p_void__void 0000000180025e70     xref.obj
 0003:00001eb0       _swigc__p_f_p_chooser_multi_t_p_sizevec_t__chooser_base_t__cbres_t 0000000180025eb0     xref.obj
 0003:00001ef0       _swigc__p_f_p_chooser_t_ssize_t__chooser_t__cbret_t 0000000180025ef0     xref.obj
 0003:00001f30       _swigc__p_f_p_lochist_entry_t_r_q_const__lochist_entry_t_p_TWidget__bool 0000000180025f30     xref.obj
 0003:00001f70       _swigc__p_f_p_q_const__char_p_void__void 0000000180025f70     xref.obj
 0003:00001fb0       _swigc__p_f_p_q_const__char_r_q_const__tinfo_t_p_q_const__char_p_q_const__unsigned_long_long_p_void__int 0000000180025fb0     xref.obj
 0003:00001ff0       _swigc__p_f_p_q_const__char_v_______int 0000000180025ff0     xref.obj
 0003:00002030       _swigc__p_f_p_void_int_va_list__ssize_t 0000000180026030     xref.obj
 0003:00002070       _swigc__p_f_r_q_const__insn_t_p_int_p_int__bool 0000000180026070     xref.obj
 0003:000020b0       _swigc__p_f_r_q_const__insn_t_r_q_const__op_t_r_q_const__tinfo_t_p_q_const__char__bool 00000001800260b0     xref.obj
 0003:000020f0       _swigc__p_f_unsigned_int__bool 00000001800260f0     xref.obj
 0003:00002130       _swigc__p_f_unsigned_int_p_q_const__char_unsigned_int_p_void__int 0000000180026130     xref.obj
 0003:00002170       _swigc__p_f_unsigned_int_p_void__bool 0000000180026170     xref.obj
 0003:000021b0       _swigc__p_f_unsigned_int_r_q_const__tinfo_t_p_void__int 00000001800261b0     xref.obj
 0003:000021f0       _swigc__p_f_unsigned_int_unsigned_int__unsigned_int 00000001800261f0     xref.obj
 0003:00002230       _swigc__p_func_t           0000000180026230     xref.obj
 0003:00002270       _swigc__p_int              0000000180026270     xref.obj
 0003:000022b0       _swigc__p_iterator         00000001800262b0     xref.obj
 0003:000022f0       _swigc__p_location_t       00000001800262f0     xref.obj
 0003:00002330       _swigc__p_long_long        0000000180026330     xref.obj
 0003:00002370       _swigc__p_qvectorT__qstringT_unsigned_short_t_t 0000000180026370     xref.obj
 0003:000023b0       _swigc__p_qvectorT_argloc_t_t 00000001800263b0     xref.obj
 0003:000023f0       _swigc__p_qvectorT_bool_t  00000001800263f0     xref.obj
 0003:00002430       _swigc__p_qvectorT_channel_redir_t_t 0000000180026430     xref.obj
 0003:00002470       _swigc__p_qvectorT_compiled_binpat_t_t 0000000180026470     xref.obj
 0003:000024b0       _swigc__p_qvectorT_funcarg_t_t 00000001800264b0     xref.obj
 0003:000024f0       _swigc__p_qvectorT_int_t   00000001800264f0     xref.obj
 0003:00002530       _swigc__p_qvectorT_qvectorT_int_t_t 0000000180026530     xref.obj
 0003:00002570       _swigc__p_qvectorT_range_t_t 0000000180026570     xref.obj
 0003:000025b0       _swigc__p_qvectorT_rangeset_t_const_p_t 00000001800265b0     xref.obj
 0003:000025f0       _swigc__p_qvectorT_rangeset_t_t 00000001800265f0     xref.obj
 0003:00002630       _swigc__p_qvectorT_refinfo_desc_t_t 0000000180026630     xref.obj
 0003:00002670       _swigc__p_qvectorT_simd_info_t_t 0000000180026670     xref.obj
 0003:000026b0       _swigc__p_qvectorT_simpleline_t_t 00000001800266b0     xref.obj
 0003:000026f0       _swigc__p_qvectorT_size_t_t 00000001800266f0     xref.obj
 0003:00002730       _swigc__p_qvectorT_tinfo_t_t 0000000180026730     xref.obj
 0003:00002770       _swigc__p_qvectorT_type_attr_t_t 0000000180026770     xref.obj
 0003:000027b0       _swigc__p_qvectorT_udt_member_t_t 00000001800267b0     xref.obj
 0003:000027f0       _swigc__p_relobj_t         00000001800267f0     xref.obj
 0003:00002830       _swigc__p_bytevec_t        0000000180026830     xref.obj
 0003:00002870       _swigc__p_reloc_info_t     0000000180026870     xref.obj
 0003:000028b0       _swigc__p_qvectorT_unsigned_char_t 00000001800268b0     xref.obj
 0003:00002950       _swigc__p_qvectorT_unsigned_int_t 0000000180026950     xref.obj
 0003:00002990       _swigc__p_short            0000000180026990     xref.obj
 0003:000029d0       _swigc__p_signed_char      00000001800269d0     xref.obj
 0003:00002a10       _swigc__p_switch_info_t    0000000180026a10     xref.obj
 0003:00002a50       _swigc__p_unsigned_char    0000000180026a50     xref.obj
 0003:00002a90       _swigc__p_unsigned_int     0000000180026a90     xref.obj
 0003:00002ad0       _swigc__p_unsigned_long_long 0000000180026ad0     xref.obj
 0003:00002b10       _swigc__p_unsigned_short   0000000180026b10     xref.obj
 0003:00002b50       _swigc__p_value_type       0000000180026b50     xref.obj
 0003:00002b90       _swigc__p_xrefblk_t        0000000180026b90     xref.obj
 0003:00002bd0       swig_cast_initial          0000000180026bd0     xref.obj
 0003:00002e08       ?swig_module@@3Uswig_module_info@@A 0000000180026e08     xref.obj
 0003:00002e40       swigobject_methods         0000000180026e40     xref.obj
 0003:00002f20       ?swigobject_doc@?1??SwigPyObject_TypeOnce@@9@4PADA 0000000180026f20     xref.obj
 0003:00002f50       ?swigpacked_doc@?1??SwigPyPacked_TypeOnce@@9@4PADA 0000000180026f50     xref.obj
 0003:00002f80       ?SWIG_module@?1??PyInit__ida_xref@@9@4UPyModuleDef@@A 0000000180026f80     xref.obj
 0003:00003170       swig_const_table           0000000180027170     xref.obj
 0003:000031d0       ?swig_types@@3PAPEAUswig_type_info@@A 00000001800271d0     xref.obj
 0003:00003410       Swig_This_global           0000000180027410     xref.obj
 0003:00003420       ?type@?1??SwigPyObject_type@@9@4PEAU_typeobject@@EA 0000000180027420     xref.obj
 0003:00003428       ?$TSS0@?1??SwigPyObject_type@@9@4HA 0000000180027428     xref.obj
 0003:00003430       ?type@?1??SwigPyPacked_type@@9@4PEAU_typeobject@@EA 0000000180027430     xref.obj
 0003:00003438       ?$TSS0@?1??SwigPyPacked_type@@9@4HA 0000000180027438     xref.obj
 0003:00003440       ?type_pointer@?1??SWIG_Python_GetModule@@9@4PEAXEA 0000000180027440     xref.obj
 0003:00003448       ?cache@?1??SWIG_Python_TypeCache@@9@4PEAU_object@@EA 0000000180027448     xref.obj
 0003:00003450       ?$TSS0@?1??SWIG_Python_TypeCache@@9@4HA 0000000180027450     xref.obj
 0003:00003454       ?init@?1??SWIG_pchar_descriptor@@YAPEAUswig_type_info@@XZ@4HA 0000000180027454     xref.obj
 0003:00003458       ?info@?1??SWIG_pchar_descriptor@@YAPEAUswig_type_info@@XZ@4PEAU2@EA 0000000180027458     xref.obj
 0003:00003460       ?_Tss_mutex@@3U_RTL_CRITICAL_SECTION@@A 0000000180027460     MSVCRT:thread_safe_statics.obj
 0003:00003488       ?_Tss_cv@@3U_RTL_CONDITION_VARIABLE@@A 0000000180027488     MSVCRT:thread_safe_statics.obj
 0003:00003490       ?_Tss_event@@3PEAXEA       0000000180027490     MSVCRT:thread_safe_statics.obj
 0003:00003498       ?encoded_sleep_condition_variable_cs@@3P6AHPEAU_RTL_CONDITION_VARIABLE@@PEAU_RTL_CRITICAL_SECTION@@K@ZEA 0000000180027498     MSVCRT:thread_safe_statics.obj
 0003:000034a0       ?encoded_wake_all_condition_variable@@3P6AXPEAU_RTL_CONDITION_VARIABLE@@@ZEA 00000001800274a0     MSVCRT:thread_safe_statics.obj
 0003:000034ac       ?__proc_attached@@3HA      00000001800274ac     MSVCRT:dll_dllmain.obj
 0003:000034c0       ?is_initialized_as_dll@@3_NA 00000001800274c0     MSVCRT:utility.obj
 0003:000034c1       ?module_local_atexit_table_initialized@@3_NA 00000001800274c1     MSVCRT:utility.obj
 0003:000034c8       ?module_local_atexit_table@@3U_onexit_table_t@@A 00000001800274c8     MSVCRT:utility.obj
 0003:000034e0       ?module_local_at_quick_exit_table@@3U_onexit_table_t@@A 00000001800274e0     MSVCRT:utility.obj
 0003:00003500       GS_ExceptionRecord         0000000180027500     MSVCRT:gs_report.obj
 0003:000035a0       GS_ContextRecord           00000001800275a0     MSVCRT:gs_report.obj
 0004:00000000       $pdata$printf              0000000180028000     xref.obj
 0004:0000000c       $pdata$SWIG_TypeClientData 000000018002800c     xref.obj
 0004:00000018       $pdata$SWIG_MangledTypeQueryModule 0000000180028018     xref.obj
 0004:00000024       $pdata$?SWIG_Python_RaiseOrModifyTypeError@@YAXPEBD@Z 0000000180028024     xref.obj
 0004:00000030       $pdata$?SWIG_Python_UnpackTuple@@YA_JPEAU_object@@PEBD_J2PEAPEAU1@@Z 0000000180028030     xref.obj
 0004:0000003c       $pdata$0$?SWIG_Python_UnpackTuple@@YA_JPEAU_object@@PEBD_J2PEAPEAU1@@Z 000000018002803c     xref.obj
 0004:00000048       $pdata$1$?SWIG_Python_UnpackTuple@@YA_JPEAU_object@@PEBD_J2PEAPEAU1@@Z 0000000180028048     xref.obj
 0004:00000054       $pdata$SwigPyClientData_New 0000000180028054     xref.obj
 0004:00000060       $pdata$2$SwigPyClientData_New 0000000180028060     xref.obj
 0004:0000006c       $pdata$3$SwigPyClientData_New 000000018002806c     xref.obj
 0004:00000078       $pdata$SwigPyObject_repr   0000000180028078     xref.obj
 0004:00000084       $pdata$0$SwigPyObject_repr 0000000180028084     xref.obj
 0004:00000090       $pdata$1$SwigPyObject_repr 0000000180028090     xref.obj
 0004:0000009c       $pdata$SwigPyObject_type   000000018002809c     xref.obj
 0004:000000a8       $pdata$SwigPyObject_Check  00000001800280a8     xref.obj
 0004:000000b4       $pdata$SwigPyObject_New    00000001800280b4     xref.obj
 0004:000000c0       $pdata$SwigPyObject_dealloc 00000001800280c0     xref.obj
 0004:000000cc       $pdata$2$SwigPyObject_dealloc 00000001800280cc     xref.obj
 0004:000000d8       $pdata$3$SwigPyObject_dealloc 00000001800280d8     xref.obj
 0004:000000e4       $pdata$SwigPyObject_append 00000001800280e4     xref.obj
 0004:000000f0       $pdata$SwigPyObject_own    00000001800280f0     xref.obj
 0004:000000fc       $pdata$0$SwigPyObject_own  00000001800280fc     xref.obj
 0004:00000108       $pdata$2$SwigPyObject_own  0000000180028108     xref.obj
 0004:00000114       $pdata$SwigPyPacked_repr   0000000180028114     xref.obj
 0004:00000120       $pdata$0$SwigPyPacked_repr 0000000180028120     xref.obj
 0004:0000012c       $pdata$1$SwigPyPacked_repr 000000018002812c     xref.obj
 0004:00000138       $pdata$SwigPyPacked_str    0000000180028138     xref.obj
 0004:00000144       $pdata$0$SwigPyPacked_str  0000000180028144     xref.obj
 0004:00000150       $pdata$1$SwigPyPacked_str  0000000180028150     xref.obj
 0004:0000015c       $pdata$SwigPyPacked_type   000000018002815c     xref.obj
 0004:00000168       $pdata$SwigPyPacked_Check  0000000180028168     xref.obj
 0004:00000174       $pdata$SwigPyPacked_dealloc 0000000180028174     xref.obj
 0004:00000180       $pdata$SWIG_This           0000000180028180     xref.obj
 0004:0000018c       $pdata$SWIG_Python_GetSwigThis 000000018002818c     xref.obj
 0004:00000198       $pdata$SWIG_Python_InitShadowInstance 0000000180028198     xref.obj
 0004:000001a4       $pdata$SWIG_Python_NewPointerObj 00000001800281a4     xref.obj
 0004:000001b0       $pdata$SWIG_Python_DestroyModule 00000001800281b0     xref.obj
 0004:000001bc       $pdata$2$SWIG_Python_DestroyModule 00000001800281bc     xref.obj
 0004:000001c8       $pdata$3$SWIG_Python_DestroyModule 00000001800281c8     xref.obj
 0004:000001d4       $pdata$4$SWIG_Python_DestroyModule 00000001800281d4     xref.obj
 0004:000001e0       $pdata$5$SWIG_Python_DestroyModule 00000001800281e0     xref.obj
 0004:000001ec       $pdata$SWIG_Python_TypeCache 00000001800281ec     xref.obj
 0004:000001f8       $pdata$SWIG_Python_TypeQuery 00000001800281f8     xref.obj
 0004:00000204       $pdata$1$SWIG_Python_TypeQuery 0000000180028204     xref.obj
 0004:00000210       $pdata$5$SWIG_Python_TypeQuery 0000000180028210     xref.obj
 0004:0000021c       $pdata$6$SWIG_Python_TypeQuery 000000018002821c     xref.obj
 0004:00000228       $pdata$7$SWIG_Python_TypeQuery 0000000180028228     xref.obj
 0004:00000234       $pdata$??0exception@std@@QEAA@AEBV01@@Z 0000000180028234     xref.obj
 0004:00000240       $pdata$??_Gbad_array_new_length@std@@UEAAPEAXI@Z 0000000180028240     MSVCRT:throw_bad_alloc.obj
 0004:00000240       $pdata$??_Gbad_alloc@std@@UEAAPEAXI@Z 0000000180028240     MSVCRT:throw_bad_alloc.obj
 0004:00000240       $pdata$??_Gexception@std@@UEAAPEAXI@Z 0000000180028240     xref.obj
 0004:00000240       $pdata$??_Gout_of_range@std@@UEAAPEAXI@Z 0000000180028240     xref.obj
 0004:00000240       $pdata$??_Glogic_error@std@@UEAAPEAXI@Z 0000000180028240     xref.obj
 0004:0000024c       $pdata$??0logic_error@std@@QEAA@AEBV01@@Z 000000018002824c     xref.obj
 0004:00000258       $pdata$??0out_of_range@std@@QEAA@PEBD@Z 0000000180028258     xref.obj
 0004:00000264       $pdata$??0out_of_range@std@@QEAA@AEBV01@@Z 0000000180028264     xref.obj
 0004:00000270       $pdata$?sprnt@?$_qstring@D@@QEAAAEAV1@PEBDZZ 0000000180028270     xref.obj
 0004:0000027c       $pdata$?__raise_e@@YAXAEBVexception@std@@@Z 000000018002827c     xref.obj
 0004:00000288       $pdata$?__raise_ie@@YAXAEBUinterr_exc_t@@@Z 0000000180028288     xref.obj
 0004:00000294       $pdata$??4?$qvector@I@@QEAAAEAV0@AEBV0@@Z 0000000180028294     xref.obj
 0004:00000294       $pdata$??4?$qvector@H@@QEAAAEAV0@AEBV0@@Z 0000000180028294     xref.obj
 0004:000002a0       $pdata$??0?$qvector@H@@QEAA@AEBV0@@Z 00000001800282a0     xref.obj
 0004:000002ac       $pdata$?push_back@?$qvector@V?$qvector@H@@@@QEAAXAEBV?$qvector@H@@@Z 00000001800282ac     xref.obj
 0004:000002b8       $pdata$?clear@?$qvector@V?$qvector@H@@@@QEAAXXZ 00000001800282b8     xref.obj
 0004:000002c4       $pdata$??4?$qvector@V?$qvector@H@@@@QEAAAEAV0@AEBV0@@Z 00000001800282c4     xref.obj
 0004:000002d0       $pdata$0$??4?$qvector@V?$qvector@H@@@@QEAAAEAV0@AEBV0@@Z 00000001800282d0     xref.obj
 0004:000002dc       $pdata$5$??4?$qvector@V?$qvector@H@@@@QEAAAEAV0@AEBV0@@Z 00000001800282dc     xref.obj
 0004:000002e8       $pdata$6$??4?$qvector@V?$qvector@H@@@@QEAAAEAV0@AEBV0@@Z 00000001800282e8     xref.obj
 0004:000002f4       $pdata$7$??4?$qvector@V?$qvector@H@@@@QEAAAEAV0@AEBV0@@Z 00000001800282f4     xref.obj
 0004:00000300       $pdata$?resize@?$qvector@V?$qvector@H@@@@QEAAX_KAEBV?$qvector@H@@@Z 0000000180028300     xref.obj
 0004:0000030c       $pdata$0$?resize@?$qvector@V?$qvector@H@@@@QEAAX_KAEBV?$qvector@H@@@Z 000000018002830c     xref.obj
 0004:00000318       $pdata$1$?resize@?$qvector@V?$qvector@H@@@@QEAAX_KAEBV?$qvector@H@@@Z 0000000180028318     xref.obj
 0004:00000324       $pdata$??8?$qvector@V?$qvector@H@@@@QEBA_NAEBV0@@Z 0000000180028324     xref.obj
 0004:00000330       $pdata$?erase@?$qvector@V?$qvector@H@@@@QEAAPEAV?$qvector@H@@PEAV2@@Z 0000000180028330     xref.obj
 0004:0000033c       $pdata$?find@?$qvector@V?$qvector@H@@@@QEBAPEBV?$qvector@H@@AEBV2@@Z 000000018002833c     xref.obj
 0004:0000033c       $pdata$?find@?$qvector@V?$qvector@H@@@@QEAAPEAV?$qvector@H@@AEBV2@@Z 000000018002833c     xref.obj
 0004:00000348       $pdata$?SWIG_AsCharArray@@YAHPEAU_object@@PEAD_K@Z 0000000180028348     xref.obj
 0004:00000354       $pdata$_wrap_create_switch_xrefs 0000000180028354     xref.obj
 0004:00000360       $pdata$_wrap_create_switch_xrefs$catch$5 0000000180028360     xref.obj
 0004:0000036c       $pdata$_wrap_create_switch_xrefs$catch$4 000000018002836c     xref.obj
 0004:00000378       $pdata$_wrap_create_switch_xrefs$catch$3 0000000180028378     xref.obj
 0004:00000384       $pdata$_wrap_create_switch_xrefs$catch$2 0000000180028384     xref.obj
 0004:00000390       $pdata$_wrap_create_switch_xrefs$catch$1 0000000180028390     xref.obj
 0004:0000039c       $pdata$_wrap_create_switch_xrefs$catch$0 000000018002839c     xref.obj
 0004:000003a8       $pdata$_wrap_cases_and_targets_t_cases_set 00000001800283a8     xref.obj
 0004:000003b4       $pdata$_wrap_cases_and_targets_t_cases_get 00000001800283b4     xref.obj
 0004:000003c0       $pdata$0$_wrap_cases_and_targets_t_cases_get 00000001800283c0     xref.obj
 0004:000003cc       $pdata$1$_wrap_cases_and_targets_t_cases_get 00000001800283cc     xref.obj
 0004:000003d8       $pdata$_wrap_cases_and_targets_t_targets_set 00000001800283d8     xref.obj
 0004:000003e4       $pdata$4$_wrap_cases_and_targets_t_targets_set 00000001800283e4     xref.obj
 0004:000003f0       $pdata$5$_wrap_cases_and_targets_t_targets_set 00000001800283f0     xref.obj
 0004:000003fc       $pdata$6$_wrap_cases_and_targets_t_targets_set 00000001800283fc     xref.obj
 0004:00000408       $pdata$_wrap_cases_and_targets_t_targets_get 0000000180028408     xref.obj
 0004:00000414       $pdata$0$_wrap_cases_and_targets_t_targets_get 0000000180028414     xref.obj
 0004:00000420       $pdata$1$_wrap_cases_and_targets_t_targets_get 0000000180028420     xref.obj
 0004:0000042c       $pdata$_wrap_new_cases_and_targets_t 000000018002842c     xref.obj
 0004:00000438       $pdata$_wrap_new_cases_and_targets_t$catch$1 0000000180028438     xref.obj
 0004:00000444       $pdata$_wrap_new_cases_and_targets_t$catch$2 0000000180028444     xref.obj
 0004:00000450       $pdata$_wrap_new_cases_and_targets_t$catch$3 0000000180028450     xref.obj
 0004:0000045c       $pdata$_wrap_new_cases_and_targets_t$catch$4 000000018002845c     xref.obj
 0004:00000468       $pdata$_wrap_new_cases_and_targets_t$catch$5 0000000180028468     xref.obj
 0004:00000474       $pdata$_wrap_new_cases_and_targets_t$catch$6 0000000180028474     xref.obj
 0004:00000480       $pdata$_wrap_delete_cases_and_targets_t 0000000180028480     xref.obj
 0004:0000048c       $pdata$_wrap_delete_cases_and_targets_t$catch$6 000000018002848c     xref.obj
 0004:00000498       $pdata$_wrap_delete_cases_and_targets_t$catch$5 0000000180028498     xref.obj
 0004:000004a4       $pdata$_wrap_delete_cases_and_targets_t$catch$4 00000001800284a4     xref.obj
 0004:000004b0       $pdata$_wrap_delete_cases_and_targets_t$catch$3 00000001800284b0     xref.obj
 0004:000004bc       $pdata$_wrap_delete_cases_and_targets_t$catch$2 00000001800284bc     xref.obj
 0004:000004c8       $pdata$_wrap_delete_cases_and_targets_t$catch$1 00000001800284c8     xref.obj
 0004:000004d4       $pdata$cases_and_targets_t_swigregister 00000001800284d4     xref.obj
 0004:000004e0       $pdata$_wrap_calc_switch_cases 00000001800284e0     xref.obj
 0004:000004ec       $pdata$_wrap_calc_switch_cases$catch$2 00000001800284ec     xref.obj
 0004:000004f8       $pdata$_wrap_calc_switch_cases$catch$3 00000001800284f8     xref.obj
 0004:00000504       $pdata$_wrap_calc_switch_cases$catch$4 0000000180028504     xref.obj
 0004:00000510       $pdata$_wrap_calc_switch_cases$catch$5 0000000180028510     xref.obj
 0004:0000051c       $pdata$_wrap_calc_switch_cases$catch$6 000000018002851c     xref.obj
 0004:00000528       $pdata$_wrap_calc_switch_cases$catch$7 0000000180028528     xref.obj
 0004:00000534       $pdata$_wrap_create_switch_table 0000000180028534     xref.obj
 0004:00000540       $pdata$_wrap_create_switch_table$catch$5 0000000180028540     xref.obj
 0004:0000054c       $pdata$_wrap_create_switch_table$catch$4 000000018002854c     xref.obj
 0004:00000558       $pdata$_wrap_create_switch_table$catch$3 0000000180028558     xref.obj
 0004:00000564       $pdata$_wrap_create_switch_table$catch$2 0000000180028564     xref.obj
 0004:00000570       $pdata$_wrap_create_switch_table$catch$1 0000000180028570     xref.obj
 0004:0000057c       $pdata$_wrap_create_switch_table$catch$0 000000018002857c     xref.obj
 0004:00000588       $pdata$_wrap_xrefchar      0000000180028588     xref.obj
 0004:00000594       $pdata$_wrap_xrefchar$catch$5 0000000180028594     xref.obj
 0004:000005a0       $pdata$_wrap_xrefchar$catch$4 00000001800285a0     xref.obj
 0004:000005ac       $pdata$_wrap_xrefchar$catch$3 00000001800285ac     xref.obj
 0004:000005b8       $pdata$_wrap_xrefchar$catch$2 00000001800285b8     xref.obj
 0004:000005c4       $pdata$_wrap_xrefchar$catch$1 00000001800285c4     xref.obj
 0004:000005d0       $pdata$_wrap_xrefchar$catch$0 00000001800285d0     xref.obj
 0004:000005dc       $pdata$_wrap_add_cref      00000001800285dc     xref.obj
 0004:000005e8       $pdata$_wrap_add_cref$catch$5 00000001800285e8     xref.obj
 0004:000005f4       $pdata$_wrap_add_cref$catch$4 00000001800285f4     xref.obj
 0004:00000600       $pdata$_wrap_add_cref$catch$3 0000000180028600     xref.obj
 0004:0000060c       $pdata$_wrap_add_cref$catch$2 000000018002860c     xref.obj
 0004:00000618       $pdata$_wrap_add_cref$catch$1 0000000180028618     xref.obj
 0004:00000624       $pdata$_wrap_add_cref$catch$0 0000000180028624     xref.obj
 0004:00000630       $pdata$_wrap_del_cref      0000000180028630     xref.obj
 0004:0000063c       $pdata$_wrap_del_cref$catch$5 000000018002863c     xref.obj
 0004:00000648       $pdata$_wrap_del_cref$catch$4 0000000180028648     xref.obj
 0004:00000654       $pdata$_wrap_del_cref$catch$3 0000000180028654     xref.obj
 0004:00000660       $pdata$_wrap_del_cref$catch$2 0000000180028660     xref.obj
 0004:0000066c       $pdata$_wrap_del_cref$catch$1 000000018002866c     xref.obj
 0004:00000678       $pdata$_wrap_del_cref$catch$0 0000000180028678     xref.obj
 0004:00000684       $pdata$_wrap_add_dref      0000000180028684     xref.obj
 0004:00000690       $pdata$_wrap_add_dref$catch$5 0000000180028690     xref.obj
 0004:0000069c       $pdata$_wrap_add_dref$catch$4 000000018002869c     xref.obj
 0004:000006a8       $pdata$_wrap_add_dref$catch$3 00000001800286a8     xref.obj
 0004:000006b4       $pdata$_wrap_add_dref$catch$2 00000001800286b4     xref.obj
 0004:000006c0       $pdata$_wrap_add_dref$catch$1 00000001800286c0     xref.obj
 0004:000006cc       $pdata$_wrap_add_dref$catch$0 00000001800286cc     xref.obj
 0004:000006d8       $pdata$_wrap_del_dref      00000001800286d8     xref.obj
 0004:000006e4       $pdata$_wrap_del_dref$catch$5 00000001800286e4     xref.obj
 0004:000006f0       $pdata$_wrap_del_dref$catch$4 00000001800286f0     xref.obj
 0004:000006fc       $pdata$_wrap_del_dref$catch$3 00000001800286fc     xref.obj
 0004:00000708       $pdata$_wrap_del_dref$catch$2 0000000180028708     xref.obj
 0004:00000714       $pdata$_wrap_del_dref$catch$1 0000000180028714     xref.obj
 0004:00000720       $pdata$_wrap_del_dref$catch$0 0000000180028720     xref.obj
 0004:0000072c       $pdata$_wrap_xrefblk_t_frm_set 000000018002872c     xref.obj
 0004:00000738       $pdata$0$_wrap_xrefblk_t_frm_set 0000000180028738     xref.obj
 0004:00000744       $pdata$1$_wrap_xrefblk_t_frm_set 0000000180028744     xref.obj
 0004:00000750       $pdata$_wrap_xrefblk_t_frm_get 0000000180028750     xref.obj
 0004:0000075c       $pdata$0$_wrap_xrefblk_t_frm_get 000000018002875c     xref.obj
 0004:00000768       $pdata$1$_wrap_xrefblk_t_frm_get 0000000180028768     xref.obj
 0004:00000774       $pdata$_wrap_xrefblk_t_to_set 0000000180028774     xref.obj
 0004:00000780       $pdata$0$_wrap_xrefblk_t_to_set 0000000180028780     xref.obj
 0004:0000078c       $pdata$1$_wrap_xrefblk_t_to_set 000000018002878c     xref.obj
 0004:00000798       $pdata$_wrap_xrefblk_t_to_get 0000000180028798     xref.obj
 0004:000007a4       $pdata$0$_wrap_xrefblk_t_to_get 00000001800287a4     xref.obj
 0004:000007b0       $pdata$1$_wrap_xrefblk_t_to_get 00000001800287b0     xref.obj
 0004:000007bc       $pdata$_wrap_xrefblk_t_iscode_set 00000001800287bc     xref.obj
 0004:000007c8       $pdata$0$_wrap_xrefblk_t_iscode_set 00000001800287c8     xref.obj
 0004:000007d4       $pdata$1$_wrap_xrefblk_t_iscode_set 00000001800287d4     xref.obj
 0004:000007e0       $pdata$_wrap_xrefblk_t_iscode_get 00000001800287e0     xref.obj
 0004:000007ec       $pdata$0$_wrap_xrefblk_t_iscode_get 00000001800287ec     xref.obj
 0004:000007f8       $pdata$1$_wrap_xrefblk_t_iscode_get 00000001800287f8     xref.obj
 0004:00000804       $pdata$_wrap_xrefblk_t_type_set 0000000180028804     xref.obj
 0004:00000810       $pdata$0$_wrap_xrefblk_t_type_set 0000000180028810     xref.obj
 0004:0000081c       $pdata$1$_wrap_xrefblk_t_type_set 000000018002881c     xref.obj
 0004:00000828       $pdata$_wrap_xrefblk_t_type_get 0000000180028828     xref.obj
 0004:00000834       $pdata$0$_wrap_xrefblk_t_type_get 0000000180028834     xref.obj
 0004:00000840       $pdata$1$_wrap_xrefblk_t_type_get 0000000180028840     xref.obj
 0004:0000084c       $pdata$_wrap_xrefblk_t_user_set 000000018002884c     xref.obj
 0004:00000858       $pdata$0$_wrap_xrefblk_t_user_set 0000000180028858     xref.obj
 0004:00000864       $pdata$1$_wrap_xrefblk_t_user_set 0000000180028864     xref.obj
 0004:00000870       $pdata$_wrap_xrefblk_t_user_get 0000000180028870     xref.obj
 0004:0000087c       $pdata$0$_wrap_xrefblk_t_user_get 000000018002887c     xref.obj
 0004:00000888       $pdata$1$_wrap_xrefblk_t_user_get 0000000180028888     xref.obj
 0004:00000894       $pdata$_wrap_xrefblk_t_first_from 0000000180028894     xref.obj
 0004:000008a0       $pdata$_wrap_xrefblk_t_first_from$catch$5 00000001800288a0     xref.obj
 0004:000008ac       $pdata$_wrap_xrefblk_t_first_from$catch$4 00000001800288ac     xref.obj
 0004:000008b8       $pdata$_wrap_xrefblk_t_first_from$catch$3 00000001800288b8     xref.obj
 0004:000008c4       $pdata$_wrap_xrefblk_t_first_from$catch$2 00000001800288c4     xref.obj
 0004:000008d0       $pdata$_wrap_xrefblk_t_first_from$catch$1 00000001800288d0     xref.obj
 0004:000008dc       $pdata$_wrap_xrefblk_t_first_from$catch$0 00000001800288dc     xref.obj
 0004:000008e8       $pdata$_wrap_xrefblk_t_next_from__SWIG_0 00000001800288e8     xref.obj
 0004:000008f4       $pdata$_wrap_xrefblk_t_next_from__SWIG_0$catch$5 00000001800288f4     xref.obj
 0004:00000900       $pdata$_wrap_xrefblk_t_next_from__SWIG_0$catch$4 0000000180028900     xref.obj
 0004:0000090c       $pdata$_wrap_xrefblk_t_next_from__SWIG_0$catch$3 000000018002890c     xref.obj
 0004:00000918       $pdata$_wrap_xrefblk_t_next_from__SWIG_0$catch$2 0000000180028918     xref.obj
 0004:00000924       $pdata$_wrap_xrefblk_t_next_from__SWIG_0$catch$1 0000000180028924     xref.obj
 0004:00000930       $pdata$_wrap_xrefblk_t_next_from__SWIG_0$catch$0 0000000180028930     xref.obj
 0004:0000093c       $pdata$_wrap_xrefblk_t_first_to 000000018002893c     xref.obj
 0004:00000948       $pdata$_wrap_xrefblk_t_first_to$catch$5 0000000180028948     xref.obj
 0004:00000954       $pdata$_wrap_xrefblk_t_first_to$catch$4 0000000180028954     xref.obj
 0004:00000960       $pdata$_wrap_xrefblk_t_first_to$catch$3 0000000180028960     xref.obj
 0004:0000096c       $pdata$_wrap_xrefblk_t_first_to$catch$2 000000018002896c     xref.obj
 0004:00000978       $pdata$_wrap_xrefblk_t_first_to$catch$1 0000000180028978     xref.obj
 0004:00000984       $pdata$_wrap_xrefblk_t_first_to$catch$0 0000000180028984     xref.obj
 0004:00000990       $pdata$_wrap_xrefblk_t_next_to__SWIG_0 0000000180028990     xref.obj
 0004:0000099c       $pdata$_wrap_xrefblk_t_next_to__SWIG_0$catch$5 000000018002899c     xref.obj
 0004:000009a8       $pdata$_wrap_xrefblk_t_next_to__SWIG_0$catch$4 00000001800289a8     xref.obj
 0004:000009b4       $pdata$_wrap_xrefblk_t_next_to__SWIG_0$catch$3 00000001800289b4     xref.obj
 0004:000009c0       $pdata$_wrap_xrefblk_t_next_to__SWIG_0$catch$2 00000001800289c0     xref.obj
 0004:000009cc       $pdata$_wrap_xrefblk_t_next_to__SWIG_0$catch$1 00000001800289cc     xref.obj
 0004:000009d8       $pdata$_wrap_xrefblk_t_next_to__SWIG_0$catch$0 00000001800289d8     xref.obj
 0004:000009e4       $pdata$_wrap_xrefblk_t_next_from__SWIG_1 00000001800289e4     xref.obj
 0004:000009f0       $pdata$_wrap_xrefblk_t_next_from__SWIG_1$catch$5 00000001800289f0     xref.obj
 0004:000009fc       $pdata$_wrap_xrefblk_t_next_from__SWIG_1$catch$4 00000001800289fc     xref.obj
 0004:00000a08       $pdata$_wrap_xrefblk_t_next_from__SWIG_1$catch$3 0000000180028a08     xref.obj
 0004:00000a14       $pdata$_wrap_xrefblk_t_next_from__SWIG_1$catch$2 0000000180028a14     xref.obj
 0004:00000a20       $pdata$_wrap_xrefblk_t_next_from__SWIG_1$catch$1 0000000180028a20     xref.obj
 0004:00000a2c       $pdata$_wrap_xrefblk_t_next_from__SWIG_1$catch$0 0000000180028a2c     xref.obj
 0004:00000a38       $pdata$_wrap_xrefblk_t_next_from 0000000180028a38     xref.obj
 0004:00000a44       $pdata$3$_wrap_xrefblk_t_next_from 0000000180028a44     xref.obj
 0004:00000a50       $pdata$4$_wrap_xrefblk_t_next_from 0000000180028a50     xref.obj
 0004:00000a5c       $pdata$_wrap_xrefblk_t_next_to__SWIG_1 0000000180028a5c     xref.obj
 0004:00000a68       $pdata$_wrap_xrefblk_t_next_to__SWIG_1$catch$5 0000000180028a68     xref.obj
 0004:00000a74       $pdata$_wrap_xrefblk_t_next_to__SWIG_1$catch$4 0000000180028a74     xref.obj
 0004:00000a80       $pdata$_wrap_xrefblk_t_next_to__SWIG_1$catch$3 0000000180028a80     xref.obj
 0004:00000a8c       $pdata$_wrap_xrefblk_t_next_to__SWIG_1$catch$2 0000000180028a8c     xref.obj
 0004:00000a98       $pdata$_wrap_xrefblk_t_next_to__SWIG_1$catch$1 0000000180028a98     xref.obj
 0004:00000aa4       $pdata$_wrap_xrefblk_t_next_to__SWIG_1$catch$0 0000000180028aa4     xref.obj
 0004:00000ab0       $pdata$_wrap_xrefblk_t_next_to 0000000180028ab0     xref.obj
 0004:00000abc       $pdata$3$_wrap_xrefblk_t_next_to 0000000180028abc     xref.obj
 0004:00000ac8       $pdata$4$_wrap_xrefblk_t_next_to 0000000180028ac8     xref.obj
 0004:00000ad4       $pdata$_wrap_new_xrefblk_t 0000000180028ad4     xref.obj
 0004:00000ae0       $pdata$_wrap_new_xrefblk_t$catch$0 0000000180028ae0     xref.obj
 0004:00000aec       $pdata$_wrap_new_xrefblk_t$catch$1 0000000180028aec     xref.obj
 0004:00000af8       $pdata$_wrap_new_xrefblk_t$catch$2 0000000180028af8     xref.obj
 0004:00000b04       $pdata$_wrap_new_xrefblk_t$catch$3 0000000180028b04     xref.obj
 0004:00000b10       $pdata$_wrap_new_xrefblk_t$catch$4 0000000180028b10     xref.obj
 0004:00000b1c       $pdata$_wrap_new_xrefblk_t$catch$5 0000000180028b1c     xref.obj
 0004:00000b28       $pdata$_wrap_delete_xrefblk_t 0000000180028b28     xref.obj
 0004:00000b34       $pdata$_wrap_delete_xrefblk_t$catch$5 0000000180028b34     xref.obj
 0004:00000b40       $pdata$_wrap_delete_xrefblk_t$catch$4 0000000180028b40     xref.obj
 0004:00000b4c       $pdata$_wrap_delete_xrefblk_t$catch$3 0000000180028b4c     xref.obj
 0004:00000b58       $pdata$_wrap_delete_xrefblk_t$catch$2 0000000180028b58     xref.obj
 0004:00000b64       $pdata$_wrap_delete_xrefblk_t$catch$1 0000000180028b64     xref.obj
 0004:00000b70       $pdata$_wrap_delete_xrefblk_t$catch$0 0000000180028b70     xref.obj
 0004:00000b7c       $pdata$xrefblk_t_swigregister 0000000180028b7c     xref.obj
 0004:00000b88       $pdata$_wrap_get_first_dref_from 0000000180028b88     xref.obj
 0004:00000b94       $pdata$_wrap_get_first_dref_from$catch$5 0000000180028b94     xref.obj
 0004:00000ba0       $pdata$_wrap_get_first_dref_from$catch$4 0000000180028ba0     xref.obj
 0004:00000bac       $pdata$_wrap_get_first_dref_from$catch$3 0000000180028bac     xref.obj
 0004:00000bb8       $pdata$_wrap_get_first_dref_from$catch$2 0000000180028bb8     xref.obj
 0004:00000bc4       $pdata$_wrap_get_first_dref_from$catch$1 0000000180028bc4     xref.obj
 0004:00000bd0       $pdata$_wrap_get_first_dref_from$catch$0 0000000180028bd0     xref.obj
 0004:00000bdc       $pdata$_wrap_get_next_dref_from 0000000180028bdc     xref.obj
 0004:00000be8       $pdata$_wrap_get_next_dref_from$catch$5 0000000180028be8     xref.obj
 0004:00000bf4       $pdata$_wrap_get_next_dref_from$catch$4 0000000180028bf4     xref.obj
 0004:00000c00       $pdata$_wrap_get_next_dref_from$catch$3 0000000180028c00     xref.obj
 0004:00000c0c       $pdata$_wrap_get_next_dref_from$catch$2 0000000180028c0c     xref.obj
 0004:00000c18       $pdata$_wrap_get_next_dref_from$catch$1 0000000180028c18     xref.obj
 0004:00000c24       $pdata$_wrap_get_next_dref_from$catch$0 0000000180028c24     xref.obj
 0004:00000c30       $pdata$_wrap_get_first_dref_to 0000000180028c30     xref.obj
 0004:00000c3c       $pdata$_wrap_get_first_dref_to$catch$5 0000000180028c3c     xref.obj
 0004:00000c48       $pdata$_wrap_get_first_dref_to$catch$4 0000000180028c48     xref.obj
 0004:00000c54       $pdata$_wrap_get_first_dref_to$catch$3 0000000180028c54     xref.obj
 0004:00000c60       $pdata$_wrap_get_first_dref_to$catch$2 0000000180028c60     xref.obj
 0004:00000c6c       $pdata$_wrap_get_first_dref_to$catch$1 0000000180028c6c     xref.obj
 0004:00000c78       $pdata$_wrap_get_first_dref_to$catch$0 0000000180028c78     xref.obj
 0004:00000c84       $pdata$_wrap_get_next_dref_to 0000000180028c84     xref.obj
 0004:00000c90       $pdata$_wrap_get_next_dref_to$catch$5 0000000180028c90     xref.obj
 0004:00000c9c       $pdata$_wrap_get_next_dref_to$catch$4 0000000180028c9c     xref.obj
 0004:00000ca8       $pdata$_wrap_get_next_dref_to$catch$3 0000000180028ca8     xref.obj
 0004:00000cb4       $pdata$_wrap_get_next_dref_to$catch$2 0000000180028cb4     xref.obj
 0004:00000cc0       $pdata$_wrap_get_next_dref_to$catch$1 0000000180028cc0     xref.obj
 0004:00000ccc       $pdata$_wrap_get_next_dref_to$catch$0 0000000180028ccc     xref.obj
 0004:00000cd8       $pdata$_wrap_get_first_cref_from 0000000180028cd8     xref.obj
 0004:00000ce4       $pdata$_wrap_get_first_cref_from$catch$5 0000000180028ce4     xref.obj
 0004:00000cf0       $pdata$_wrap_get_first_cref_from$catch$4 0000000180028cf0     xref.obj
 0004:00000cfc       $pdata$_wrap_get_first_cref_from$catch$3 0000000180028cfc     xref.obj
 0004:00000d08       $pdata$_wrap_get_first_cref_from$catch$2 0000000180028d08     xref.obj
 0004:00000d14       $pdata$_wrap_get_first_cref_from$catch$1 0000000180028d14     xref.obj
 0004:00000d20       $pdata$_wrap_get_first_cref_from$catch$0 0000000180028d20     xref.obj
 0004:00000d2c       $pdata$_wrap_get_next_cref_from 0000000180028d2c     xref.obj
 0004:00000d38       $pdata$_wrap_get_next_cref_from$catch$5 0000000180028d38     xref.obj
 0004:00000d44       $pdata$_wrap_get_next_cref_from$catch$4 0000000180028d44     xref.obj
 0004:00000d50       $pdata$_wrap_get_next_cref_from$catch$3 0000000180028d50     xref.obj
 0004:00000d5c       $pdata$_wrap_get_next_cref_from$catch$2 0000000180028d5c     xref.obj
 0004:00000d68       $pdata$_wrap_get_next_cref_from$catch$1 0000000180028d68     xref.obj
 0004:00000d74       $pdata$_wrap_get_next_cref_from$catch$0 0000000180028d74     xref.obj
 0004:00000d80       $pdata$_wrap_get_first_cref_to 0000000180028d80     xref.obj
 0004:00000d8c       $pdata$_wrap_get_first_cref_to$catch$5 0000000180028d8c     xref.obj
 0004:00000d98       $pdata$_wrap_get_first_cref_to$catch$4 0000000180028d98     xref.obj
 0004:00000da4       $pdata$_wrap_get_first_cref_to$catch$3 0000000180028da4     xref.obj
 0004:00000db0       $pdata$_wrap_get_first_cref_to$catch$2 0000000180028db0     xref.obj
 0004:00000dbc       $pdata$_wrap_get_first_cref_to$catch$1 0000000180028dbc     xref.obj
 0004:00000dc8       $pdata$_wrap_get_first_cref_to$catch$0 0000000180028dc8     xref.obj
 0004:00000dd4       $pdata$_wrap_get_next_cref_to 0000000180028dd4     xref.obj
 0004:00000de0       $pdata$_wrap_get_next_cref_to$catch$5 0000000180028de0     xref.obj
 0004:00000dec       $pdata$_wrap_get_next_cref_to$catch$4 0000000180028dec     xref.obj
 0004:00000df8       $pdata$_wrap_get_next_cref_to$catch$3 0000000180028df8     xref.obj
 0004:00000e04       $pdata$_wrap_get_next_cref_to$catch$2 0000000180028e04     xref.obj
 0004:00000e10       $pdata$_wrap_get_next_cref_to$catch$1 0000000180028e10     xref.obj
 0004:00000e1c       $pdata$_wrap_get_next_cref_to$catch$0 0000000180028e1c     xref.obj
 0004:00000e28       $pdata$_wrap_get_first_fcref_from 0000000180028e28     xref.obj
 0004:00000e34       $pdata$_wrap_get_first_fcref_from$catch$5 0000000180028e34     xref.obj
 0004:00000e40       $pdata$_wrap_get_first_fcref_from$catch$4 0000000180028e40     xref.obj
 0004:00000e4c       $pdata$_wrap_get_first_fcref_from$catch$3 0000000180028e4c     xref.obj
 0004:00000e58       $pdata$_wrap_get_first_fcref_from$catch$2 0000000180028e58     xref.obj
 0004:00000e64       $pdata$_wrap_get_first_fcref_from$catch$1 0000000180028e64     xref.obj
 0004:00000e70       $pdata$_wrap_get_first_fcref_from$catch$0 0000000180028e70     xref.obj
 0004:00000e7c       $pdata$_wrap_get_next_fcref_from 0000000180028e7c     xref.obj
 0004:00000e88       $pdata$_wrap_get_next_fcref_from$catch$5 0000000180028e88     xref.obj
 0004:00000e94       $pdata$_wrap_get_next_fcref_from$catch$4 0000000180028e94     xref.obj
 0004:00000ea0       $pdata$_wrap_get_next_fcref_from$catch$3 0000000180028ea0     xref.obj
 0004:00000eac       $pdata$_wrap_get_next_fcref_from$catch$2 0000000180028eac     xref.obj
 0004:00000eb8       $pdata$_wrap_get_next_fcref_from$catch$1 0000000180028eb8     xref.obj
 0004:00000ec4       $pdata$_wrap_get_next_fcref_from$catch$0 0000000180028ec4     xref.obj
 0004:00000ed0       $pdata$_wrap_get_first_fcref_to 0000000180028ed0     xref.obj
 0004:00000edc       $pdata$_wrap_get_first_fcref_to$catch$5 0000000180028edc     xref.obj
 0004:00000ee8       $pdata$_wrap_get_first_fcref_to$catch$4 0000000180028ee8     xref.obj
 0004:00000ef4       $pdata$_wrap_get_first_fcref_to$catch$3 0000000180028ef4     xref.obj
 0004:00000f00       $pdata$_wrap_get_first_fcref_to$catch$2 0000000180028f00     xref.obj
 0004:00000f0c       $pdata$_wrap_get_first_fcref_to$catch$1 0000000180028f0c     xref.obj
 0004:00000f18       $pdata$_wrap_get_first_fcref_to$catch$0 0000000180028f18     xref.obj
 0004:00000f24       $pdata$_wrap_get_next_fcref_to 0000000180028f24     xref.obj
 0004:00000f30       $pdata$_wrap_get_next_fcref_to$catch$5 0000000180028f30     xref.obj
 0004:00000f3c       $pdata$_wrap_get_next_fcref_to$catch$4 0000000180028f3c     xref.obj
 0004:00000f48       $pdata$_wrap_get_next_fcref_to$catch$3 0000000180028f48     xref.obj
 0004:00000f54       $pdata$_wrap_get_next_fcref_to$catch$2 0000000180028f54     xref.obj
 0004:00000f60       $pdata$_wrap_get_next_fcref_to$catch$1 0000000180028f60     xref.obj
 0004:00000f6c       $pdata$_wrap_get_next_fcref_to$catch$0 0000000180028f6c     xref.obj
 0004:00000f78       $pdata$_wrap_has_external_refs 0000000180028f78     xref.obj
 0004:00000f84       $pdata$_wrap_has_external_refs$catch$5 0000000180028f84     xref.obj
 0004:00000f90       $pdata$_wrap_has_external_refs$catch$4 0000000180028f90     xref.obj
 0004:00000f9c       $pdata$_wrap_has_external_refs$catch$3 0000000180028f9c     xref.obj
 0004:00000fa8       $pdata$_wrap_has_external_refs$catch$2 0000000180028fa8     xref.obj
 0004:00000fb4       $pdata$_wrap_has_external_refs$catch$1 0000000180028fb4     xref.obj
 0004:00000fc0       $pdata$_wrap_has_external_refs$catch$0 0000000180028fc0     xref.obj
 0004:00000fcc       $pdata$_wrap_delete_switch_table 0000000180028fcc     xref.obj
 0004:00000fd8       $pdata$_wrap_delete_switch_table$catch$5 0000000180028fd8     xref.obj
 0004:00000fe4       $pdata$_wrap_delete_switch_table$catch$4 0000000180028fe4     xref.obj
 0004:00000ff0       $pdata$_wrap_delete_switch_table$catch$3 0000000180028ff0     xref.obj
 0004:00000ffc       $pdata$_wrap_delete_switch_table$catch$2 0000000180028ffc     xref.obj
 0004:00001008       $pdata$_wrap_delete_switch_table$catch$1 0000000180029008     xref.obj
 0004:00001014       $pdata$_wrap_delete_switch_table$catch$0 0000000180029014     xref.obj
 0004:00001020       $pdata$_wrap_new_casevec_t__SWIG_0 0000000180029020     xref.obj
 0004:0000102c       $pdata$_wrap_new_casevec_t__SWIG_0$catch$6 000000018002902c     xref.obj
 0004:00001038       $pdata$_wrap_new_casevec_t__SWIG_0$catch$5 0000000180029038     xref.obj
 0004:00001044       $pdata$_wrap_new_casevec_t__SWIG_0$catch$4 0000000180029044     xref.obj
 0004:00001050       $pdata$_wrap_new_casevec_t__SWIG_0$catch$3 0000000180029050     xref.obj
 0004:0000105c       $pdata$_wrap_new_casevec_t__SWIG_0$catch$2 000000018002905c     xref.obj
 0004:00001068       $pdata$_wrap_new_casevec_t__SWIG_0$catch$1 0000000180029068     xref.obj
 0004:00001074       $pdata$_wrap_new_casevec_t__SWIG_1 0000000180029074     xref.obj
 0004:00001080       $pdata$_wrap_new_casevec_t__SWIG_1$catch$6 0000000180029080     xref.obj
 0004:0000108c       $pdata$_wrap_new_casevec_t__SWIG_1$catch$5 000000018002908c     xref.obj
 0004:00001098       $pdata$_wrap_new_casevec_t__SWIG_1$catch$4 0000000180029098     xref.obj
 0004:000010a4       $pdata$_wrap_new_casevec_t__SWIG_1$catch$3 00000001800290a4     xref.obj
 0004:000010b0       $pdata$_wrap_new_casevec_t__SWIG_1$catch$2 00000001800290b0     xref.obj
 0004:000010bc       $pdata$_wrap_new_casevec_t__SWIG_1$catch$1 00000001800290bc     xref.obj
 0004:000010c8       $pdata$_wrap_new_casevec_t 00000001800290c8     xref.obj
 0004:000010d4       $pdata$_wrap_delete_casevec_t 00000001800290d4     xref.obj
 0004:000010e0       $pdata$_wrap_delete_casevec_t$catch$5 00000001800290e0     xref.obj
 0004:000010ec       $pdata$_wrap_delete_casevec_t$catch$4 00000001800290ec     xref.obj
 0004:000010f8       $pdata$_wrap_delete_casevec_t$catch$3 00000001800290f8     xref.obj
 0004:00001104       $pdata$_wrap_delete_casevec_t$catch$2 0000000180029104     xref.obj
 0004:00001110       $pdata$_wrap_delete_casevec_t$catch$1 0000000180029110     xref.obj
 0004:0000111c       $pdata$_wrap_delete_casevec_t$catch$0 000000018002911c     xref.obj
 0004:00001128       $pdata$_wrap_casevec_t_push_back__SWIG_0 0000000180029128     xref.obj
 0004:00001134       $pdata$_wrap_casevec_t_push_back__SWIG_0$catch$5 0000000180029134     xref.obj
 0004:00001140       $pdata$_wrap_casevec_t_push_back__SWIG_0$catch$4 0000000180029140     xref.obj
 0004:0000114c       $pdata$_wrap_casevec_t_push_back__SWIG_0$catch$3 000000018002914c     xref.obj
 0004:00001158       $pdata$_wrap_casevec_t_push_back__SWIG_0$catch$2 0000000180029158     xref.obj
 0004:00001164       $pdata$_wrap_casevec_t_push_back__SWIG_0$catch$1 0000000180029164     xref.obj
 0004:00001170       $pdata$_wrap_casevec_t_push_back__SWIG_0$catch$0 0000000180029170     xref.obj
 0004:0000117c       $pdata$_wrap_casevec_t_push_back__SWIG_1 000000018002917c     xref.obj
 0004:00001188       $pdata$_wrap_casevec_t_push_back__SWIG_1$catch$5 0000000180029188     xref.obj
 0004:00001194       $pdata$_wrap_casevec_t_push_back__SWIG_1$catch$4 0000000180029194     xref.obj
 0004:000011a0       $pdata$_wrap_casevec_t_push_back__SWIG_1$catch$3 00000001800291a0     xref.obj
 0004:000011ac       $pdata$_wrap_casevec_t_push_back__SWIG_1$catch$2 00000001800291ac     xref.obj
 0004:000011b8       $pdata$_wrap_casevec_t_push_back__SWIG_1$catch$1 00000001800291b8     xref.obj
 0004:000011c4       $pdata$_wrap_casevec_t_push_back__SWIG_1$catch$0 00000001800291c4     xref.obj
 0004:000011d0       $pdata$_wrap_casevec_t_push_back 00000001800291d0     xref.obj
 0004:000011dc       $pdata$_wrap_casevec_t_pop_back 00000001800291dc     xref.obj
 0004:000011e8       $pdata$_wrap_casevec_t_pop_back$catch$5 00000001800291e8     xref.obj
 0004:000011f4       $pdata$_wrap_casevec_t_pop_back$catch$4 00000001800291f4     xref.obj
 0004:00001200       $pdata$_wrap_casevec_t_pop_back$catch$3 0000000180029200     xref.obj
 0004:0000120c       $pdata$_wrap_casevec_t_pop_back$catch$2 000000018002920c     xref.obj
 0004:00001218       $pdata$_wrap_casevec_t_pop_back$catch$1 0000000180029218     xref.obj
 0004:00001224       $pdata$_wrap_casevec_t_pop_back$catch$0 0000000180029224     xref.obj
 0004:00001230       $pdata$_wrap_casevec_t_size 0000000180029230     xref.obj
 0004:0000123c       $pdata$_wrap_casevec_t_size$catch$5 000000018002923c     xref.obj
 0004:00001248       $pdata$_wrap_casevec_t_size$catch$4 0000000180029248     xref.obj
 0004:00001254       $pdata$_wrap_casevec_t_size$catch$3 0000000180029254     xref.obj
 0004:00001260       $pdata$_wrap_casevec_t_size$catch$2 0000000180029260     xref.obj
 0004:0000126c       $pdata$_wrap_casevec_t_size$catch$1 000000018002926c     xref.obj
 0004:00001278       $pdata$_wrap_casevec_t_size$catch$0 0000000180029278     xref.obj
 0004:00001284       $pdata$_wrap_casevec_t_empty 0000000180029284     xref.obj
 0004:00001290       $pdata$_wrap_casevec_t_empty$catch$5 0000000180029290     xref.obj
 0004:0000129c       $pdata$_wrap_casevec_t_empty$catch$4 000000018002929c     xref.obj
 0004:000012a8       $pdata$_wrap_casevec_t_empty$catch$3 00000001800292a8     xref.obj
 0004:000012b4       $pdata$_wrap_casevec_t_empty$catch$2 00000001800292b4     xref.obj
 0004:000012c0       $pdata$_wrap_casevec_t_empty$catch$1 00000001800292c0     xref.obj
 0004:000012cc       $pdata$_wrap_casevec_t_empty$catch$0 00000001800292cc     xref.obj
 0004:000012d8       $pdata$_wrap_casevec_t_at  00000001800292d8     xref.obj
 0004:000012e4       $pdata$_wrap_casevec_t_at$catch$5 00000001800292e4     xref.obj
 0004:000012f0       $pdata$_wrap_casevec_t_at$catch$4 00000001800292f0     xref.obj
 0004:000012fc       $pdata$_wrap_casevec_t_at$catch$3 00000001800292fc     xref.obj
 0004:00001308       $pdata$_wrap_casevec_t_at$catch$2 0000000180029308     xref.obj
 0004:00001314       $pdata$_wrap_casevec_t_at$catch$1 0000000180029314     xref.obj
 0004:00001320       $pdata$_wrap_casevec_t_at$catch$0 0000000180029320     xref.obj
 0004:0000132c       $pdata$_wrap_casevec_t_qclear 000000018002932c     xref.obj
 0004:00001338       $pdata$_wrap_casevec_t_qclear$catch$5 0000000180029338     xref.obj
 0004:00001344       $pdata$_wrap_casevec_t_qclear$catch$4 0000000180029344     xref.obj
 0004:00001350       $pdata$_wrap_casevec_t_qclear$catch$3 0000000180029350     xref.obj
 0004:0000135c       $pdata$_wrap_casevec_t_qclear$catch$2 000000018002935c     xref.obj
 0004:00001368       $pdata$_wrap_casevec_t_qclear$catch$1 0000000180029368     xref.obj
 0004:00001374       $pdata$_wrap_casevec_t_qclear$catch$0 0000000180029374     xref.obj
 0004:00001380       $pdata$_wrap_casevec_t_clear 0000000180029380     xref.obj
 0004:0000138c       $pdata$_wrap_casevec_t_clear$catch$5 000000018002938c     xref.obj
 0004:00001398       $pdata$_wrap_casevec_t_clear$catch$4 0000000180029398     xref.obj
 0004:000013a4       $pdata$_wrap_casevec_t_clear$catch$3 00000001800293a4     xref.obj
 0004:000013b0       $pdata$_wrap_casevec_t_clear$catch$2 00000001800293b0     xref.obj
 0004:000013bc       $pdata$_wrap_casevec_t_clear$catch$1 00000001800293bc     xref.obj
 0004:000013c8       $pdata$_wrap_casevec_t_clear$catch$0 00000001800293c8     xref.obj
 0004:000013d4       $pdata$_wrap_casevec_t_resize__SWIG_0 00000001800293d4     xref.obj
 0004:000013e0       $pdata$_wrap_casevec_t_resize__SWIG_0$catch$5 00000001800293e0     xref.obj
 0004:000013ec       $pdata$_wrap_casevec_t_resize__SWIG_0$catch$4 00000001800293ec     xref.obj
 0004:000013f8       $pdata$_wrap_casevec_t_resize__SWIG_0$catch$3 00000001800293f8     xref.obj
 0004:00001404       $pdata$_wrap_casevec_t_resize__SWIG_0$catch$2 0000000180029404     xref.obj
 0004:00001410       $pdata$_wrap_casevec_t_resize__SWIG_0$catch$1 0000000180029410     xref.obj
 0004:0000141c       $pdata$_wrap_casevec_t_resize__SWIG_0$catch$0 000000018002941c     xref.obj
 0004:00001428       $pdata$_wrap_casevec_t_resize__SWIG_1 0000000180029428     xref.obj
 0004:00001434       $pdata$_wrap_casevec_t_resize__SWIG_1$catch$5 0000000180029434     xref.obj
 0004:00001440       $pdata$_wrap_casevec_t_resize__SWIG_1$catch$4 0000000180029440     xref.obj
 0004:0000144c       $pdata$_wrap_casevec_t_resize__SWIG_1$catch$3 000000018002944c     xref.obj
 0004:00001458       $pdata$_wrap_casevec_t_resize__SWIG_1$catch$2 0000000180029458     xref.obj
 0004:00001464       $pdata$_wrap_casevec_t_resize__SWIG_1$catch$1 0000000180029464     xref.obj
 0004:00001470       $pdata$_wrap_casevec_t_resize__SWIG_1$catch$0 0000000180029470     xref.obj
 0004:0000147c       $pdata$_wrap_casevec_t_resize 000000018002947c     xref.obj
 0004:00001488       $pdata$_wrap_casevec_t_grow 0000000180029488     xref.obj
 0004:00001494       $pdata$_wrap_casevec_t_grow$catch$6 0000000180029494     xref.obj
 0004:000014a0       $pdata$_wrap_casevec_t_grow$catch$5 00000001800294a0     xref.obj
 0004:000014ac       $pdata$_wrap_casevec_t_grow$catch$4 00000001800294ac     xref.obj
 0004:000014b8       $pdata$_wrap_casevec_t_grow$catch$3 00000001800294b8     xref.obj
 0004:000014c4       $pdata$_wrap_casevec_t_grow$catch$2 00000001800294c4     xref.obj
 0004:000014d0       $pdata$_wrap_casevec_t_grow$catch$1 00000001800294d0     xref.obj
 0004:000014dc       $pdata$_wrap_casevec_t_capacity 00000001800294dc     xref.obj
 0004:000014e8       $pdata$_wrap_casevec_t_capacity$catch$5 00000001800294e8     xref.obj
 0004:000014f4       $pdata$_wrap_casevec_t_capacity$catch$4 00000001800294f4     xref.obj
 0004:00001500       $pdata$_wrap_casevec_t_capacity$catch$3 0000000180029500     xref.obj
 0004:0000150c       $pdata$_wrap_casevec_t_capacity$catch$2 000000018002950c     xref.obj
 0004:00001518       $pdata$_wrap_casevec_t_capacity$catch$1 0000000180029518     xref.obj
 0004:00001524       $pdata$_wrap_casevec_t_capacity$catch$0 0000000180029524     xref.obj
 0004:00001530       $pdata$_wrap_casevec_t_reserve 0000000180029530     xref.obj
 0004:0000153c       $pdata$_wrap_casevec_t_reserve$catch$5 000000018002953c     xref.obj
 0004:00001548       $pdata$_wrap_casevec_t_reserve$catch$4 0000000180029548     xref.obj
 0004:00001554       $pdata$_wrap_casevec_t_reserve$catch$3 0000000180029554     xref.obj
 0004:00001560       $pdata$_wrap_casevec_t_reserve$catch$2 0000000180029560     xref.obj
 0004:0000156c       $pdata$_wrap_casevec_t_reserve$catch$1 000000018002956c     xref.obj
 0004:00001578       $pdata$_wrap_casevec_t_reserve$catch$0 0000000180029578     xref.obj
 0004:00001584       $pdata$_wrap_casevec_t_truncate 0000000180029584     xref.obj
 0004:00001590       $pdata$_wrap_casevec_t_truncate$catch$5 0000000180029590     xref.obj
 0004:0000159c       $pdata$_wrap_casevec_t_truncate$catch$4 000000018002959c     xref.obj
 0004:000015a8       $pdata$_wrap_casevec_t_truncate$catch$3 00000001800295a8     xref.obj
 0004:000015b4       $pdata$_wrap_casevec_t_truncate$catch$2 00000001800295b4     xref.obj
 0004:000015c0       $pdata$_wrap_casevec_t_truncate$catch$1 00000001800295c0     xref.obj
 0004:000015cc       $pdata$_wrap_casevec_t_truncate$catch$0 00000001800295cc     xref.obj
 0004:000015d8       $pdata$_wrap_casevec_t_swap 00000001800295d8     xref.obj
 0004:000015e4       $pdata$_wrap_casevec_t_swap$catch$5 00000001800295e4     xref.obj
 0004:000015f0       $pdata$_wrap_casevec_t_swap$catch$4 00000001800295f0     xref.obj
 0004:000015fc       $pdata$_wrap_casevec_t_swap$catch$3 00000001800295fc     xref.obj
 0004:00001608       $pdata$_wrap_casevec_t_swap$catch$2 0000000180029608     xref.obj
 0004:00001614       $pdata$_wrap_casevec_t_swap$catch$1 0000000180029614     xref.obj
 0004:00001620       $pdata$_wrap_casevec_t_swap$catch$0 0000000180029620     xref.obj
 0004:0000162c       $pdata$_wrap_casevec_t_extract 000000018002962c     xref.obj
 0004:00001638       $pdata$_wrap_casevec_t_extract$catch$5 0000000180029638     xref.obj
 0004:00001644       $pdata$_wrap_casevec_t_extract$catch$4 0000000180029644     xref.obj
 0004:00001650       $pdata$_wrap_casevec_t_extract$catch$3 0000000180029650     xref.obj
 0004:0000165c       $pdata$_wrap_casevec_t_extract$catch$2 000000018002965c     xref.obj
 0004:00001668       $pdata$_wrap_casevec_t_extract$catch$1 0000000180029668     xref.obj
 0004:00001674       $pdata$_wrap_casevec_t_extract$catch$0 0000000180029674     xref.obj
 0004:00001680       $pdata$_wrap_casevec_t_inject 0000000180029680     xref.obj
 0004:0000168c       $pdata$_wrap_casevec_t_inject$catch$5 000000018002968c     xref.obj
 0004:00001698       $pdata$_wrap_casevec_t_inject$catch$4 0000000180029698     xref.obj
 0004:000016a4       $pdata$_wrap_casevec_t_inject$catch$3 00000001800296a4     xref.obj
 0004:000016b0       $pdata$_wrap_casevec_t_inject$catch$2 00000001800296b0     xref.obj
 0004:000016bc       $pdata$_wrap_casevec_t_inject$catch$1 00000001800296bc     xref.obj
 0004:000016c8       $pdata$_wrap_casevec_t_inject$catch$0 00000001800296c8     xref.obj
 0004:000016d4       $pdata$_wrap_casevec_t___eq__ 00000001800296d4     xref.obj
 0004:000016e0       $pdata$_wrap_casevec_t___eq__$catch$5 00000001800296e0     xref.obj
 0004:000016ec       $pdata$_wrap_casevec_t___eq__$catch$4 00000001800296ec     xref.obj
 0004:000016f8       $pdata$_wrap_casevec_t___eq__$catch$3 00000001800296f8     xref.obj
 0004:00001704       $pdata$_wrap_casevec_t___eq__$catch$2 0000000180029704     xref.obj
 0004:00001710       $pdata$_wrap_casevec_t___eq__$catch$1 0000000180029710     xref.obj
 0004:0000171c       $pdata$_wrap_casevec_t___eq__$catch$0 000000018002971c     xref.obj
 0004:00001728       $pdata$_wrap_casevec_t___ne__ 0000000180029728     xref.obj
 0004:00001734       $pdata$_wrap_casevec_t___ne__$catch$5 0000000180029734     xref.obj
 0004:00001740       $pdata$_wrap_casevec_t___ne__$catch$4 0000000180029740     xref.obj
 0004:0000174c       $pdata$_wrap_casevec_t___ne__$catch$3 000000018002974c     xref.obj
 0004:00001758       $pdata$_wrap_casevec_t___ne__$catch$2 0000000180029758     xref.obj
 0004:00001764       $pdata$_wrap_casevec_t___ne__$catch$1 0000000180029764     xref.obj
 0004:00001770       $pdata$_wrap_casevec_t___ne__$catch$0 0000000180029770     xref.obj
 0004:0000177c       $pdata$_wrap_casevec_t_begin__SWIG_0 000000018002977c     xref.obj
 0004:00001788       $pdata$_wrap_casevec_t_begin__SWIG_0$catch$5 0000000180029788     xref.obj
 0004:00001794       $pdata$_wrap_casevec_t_begin__SWIG_0$catch$4 0000000180029794     xref.obj
 0004:000017a0       $pdata$_wrap_casevec_t_begin__SWIG_0$catch$3 00000001800297a0     xref.obj
 0004:000017ac       $pdata$_wrap_casevec_t_begin__SWIG_0$catch$2 00000001800297ac     xref.obj
 0004:000017b8       $pdata$_wrap_casevec_t_begin__SWIG_0$catch$1 00000001800297b8     xref.obj
 0004:000017c4       $pdata$_wrap_casevec_t_begin__SWIG_0$catch$0 00000001800297c4     xref.obj
 0004:000017d0       $pdata$_wrap_casevec_t_end__SWIG_0 00000001800297d0     xref.obj
 0004:000017dc       $pdata$_wrap_casevec_t_end__SWIG_0$catch$5 00000001800297dc     xref.obj
 0004:000017e8       $pdata$_wrap_casevec_t_end__SWIG_0$catch$4 00000001800297e8     xref.obj
 0004:000017f4       $pdata$_wrap_casevec_t_end__SWIG_0$catch$3 00000001800297f4     xref.obj
 0004:00001800       $pdata$_wrap_casevec_t_end__SWIG_0$catch$2 0000000180029800     xref.obj
 0004:0000180c       $pdata$_wrap_casevec_t_end__SWIG_0$catch$1 000000018002980c     xref.obj
 0004:00001818       $pdata$_wrap_casevec_t_end__SWIG_0$catch$0 0000000180029818     xref.obj
 0004:00001824       $pdata$_wrap_casevec_t_begin__SWIG_1 0000000180029824     xref.obj
 0004:00001830       $pdata$_wrap_casevec_t_begin__SWIG_1$catch$5 0000000180029830     xref.obj
 0004:0000183c       $pdata$_wrap_casevec_t_begin__SWIG_1$catch$4 000000018002983c     xref.obj
 0004:00001848       $pdata$_wrap_casevec_t_begin__SWIG_1$catch$3 0000000180029848     xref.obj
 0004:00001854       $pdata$_wrap_casevec_t_begin__SWIG_1$catch$2 0000000180029854     xref.obj
 0004:00001860       $pdata$_wrap_casevec_t_begin__SWIG_1$catch$1 0000000180029860     xref.obj
 0004:0000186c       $pdata$_wrap_casevec_t_begin__SWIG_1$catch$0 000000018002986c     xref.obj
 0004:00001878       $pdata$_wrap_casevec_t_begin 0000000180029878     xref.obj
 0004:00001884       $pdata$_wrap_casevec_t_end__SWIG_1 0000000180029884     xref.obj
 0004:00001890       $pdata$_wrap_casevec_t_end__SWIG_1$catch$5 0000000180029890     xref.obj
 0004:0000189c       $pdata$_wrap_casevec_t_end__SWIG_1$catch$4 000000018002989c     xref.obj
 0004:000018a8       $pdata$_wrap_casevec_t_end__SWIG_1$catch$3 00000001800298a8     xref.obj
 0004:000018b4       $pdata$_wrap_casevec_t_end__SWIG_1$catch$2 00000001800298b4     xref.obj
 0004:000018c0       $pdata$_wrap_casevec_t_end__SWIG_1$catch$1 00000001800298c0     xref.obj
 0004:000018cc       $pdata$_wrap_casevec_t_end__SWIG_1$catch$0 00000001800298cc     xref.obj
 0004:000018d8       $pdata$_wrap_casevec_t_end 00000001800298d8     xref.obj
 0004:000018e4       $pdata$_wrap_casevec_t_insert 00000001800298e4     xref.obj
 0004:000018f0       $pdata$_wrap_casevec_t_insert$catch$5 00000001800298f0     xref.obj
 0004:000018fc       $pdata$_wrap_casevec_t_insert$catch$4 00000001800298fc     xref.obj
 0004:00001908       $pdata$_wrap_casevec_t_insert$catch$3 0000000180029908     xref.obj
 0004:00001914       $pdata$_wrap_casevec_t_insert$catch$2 0000000180029914     xref.obj
 0004:00001920       $pdata$_wrap_casevec_t_insert$catch$1 0000000180029920     xref.obj
 0004:0000192c       $pdata$_wrap_casevec_t_insert$catch$0 000000018002992c     xref.obj
 0004:00001938       $pdata$_wrap_casevec_t_erase__SWIG_0 0000000180029938     xref.obj
 0004:00001944       $pdata$_wrap_casevec_t_erase__SWIG_0$catch$5 0000000180029944     xref.obj
 0004:00001950       $pdata$_wrap_casevec_t_erase__SWIG_0$catch$4 0000000180029950     xref.obj
 0004:0000195c       $pdata$_wrap_casevec_t_erase__SWIG_0$catch$3 000000018002995c     xref.obj
 0004:00001968       $pdata$_wrap_casevec_t_erase__SWIG_0$catch$2 0000000180029968     xref.obj
 0004:00001974       $pdata$_wrap_casevec_t_erase__SWIG_0$catch$1 0000000180029974     xref.obj
 0004:00001980       $pdata$_wrap_casevec_t_erase__SWIG_0$catch$0 0000000180029980     xref.obj
 0004:0000198c       $pdata$_wrap_casevec_t_erase__SWIG_1 000000018002998c     xref.obj
 0004:00001998       $pdata$_wrap_casevec_t_erase__SWIG_1$catch$5 0000000180029998     xref.obj
 0004:000019a4       $pdata$_wrap_casevec_t_erase__SWIG_1$catch$4 00000001800299a4     xref.obj
 0004:000019b0       $pdata$_wrap_casevec_t_erase__SWIG_1$catch$3 00000001800299b0     xref.obj
 0004:000019bc       $pdata$_wrap_casevec_t_erase__SWIG_1$catch$2 00000001800299bc     xref.obj
 0004:000019c8       $pdata$_wrap_casevec_t_erase__SWIG_1$catch$1 00000001800299c8     xref.obj
 0004:000019d4       $pdata$_wrap_casevec_t_erase__SWIG_1$catch$0 00000001800299d4     xref.obj
 0004:000019e0       $pdata$_wrap_casevec_t_erase 00000001800299e0     xref.obj
 0004:000019ec       $pdata$_wrap_casevec_t_find__SWIG_0 00000001800299ec     xref.obj
 0004:000019f8       $pdata$_wrap_casevec_t_find__SWIG_0$catch$5 00000001800299f8     xref.obj
 0004:00001a04       $pdata$_wrap_casevec_t_find__SWIG_0$catch$4 0000000180029a04     xref.obj
 0004:00001a10       $pdata$_wrap_casevec_t_find__SWIG_0$catch$3 0000000180029a10     xref.obj
 0004:00001a1c       $pdata$_wrap_casevec_t_find__SWIG_0$catch$2 0000000180029a1c     xref.obj
 0004:00001a28       $pdata$_wrap_casevec_t_find__SWIG_0$catch$1 0000000180029a28     xref.obj
 0004:00001a34       $pdata$_wrap_casevec_t_find__SWIG_0$catch$0 0000000180029a34     xref.obj
 0004:00001a40       $pdata$_wrap_casevec_t_find__SWIG_1 0000000180029a40     xref.obj
 0004:00001a4c       $pdata$_wrap_casevec_t_find__SWIG_1$catch$5 0000000180029a4c     xref.obj
 0004:00001a58       $pdata$_wrap_casevec_t_find__SWIG_1$catch$4 0000000180029a58     xref.obj
 0004:00001a64       $pdata$_wrap_casevec_t_find__SWIG_1$catch$3 0000000180029a64     xref.obj
 0004:00001a70       $pdata$_wrap_casevec_t_find__SWIG_1$catch$2 0000000180029a70     xref.obj
 0004:00001a7c       $pdata$_wrap_casevec_t_find__SWIG_1$catch$1 0000000180029a7c     xref.obj
 0004:00001a88       $pdata$_wrap_casevec_t_find__SWIG_1$catch$0 0000000180029a88     xref.obj
 0004:00001a94       $pdata$_wrap_casevec_t_find 0000000180029a94     xref.obj
 0004:00001aa0       $pdata$_wrap_casevec_t_has 0000000180029aa0     xref.obj
 0004:00001aac       $pdata$_wrap_casevec_t_has$catch$5 0000000180029aac     xref.obj
 0004:00001ab8       $pdata$_wrap_casevec_t_has$catch$4 0000000180029ab8     xref.obj
 0004:00001ac4       $pdata$_wrap_casevec_t_has$catch$3 0000000180029ac4     xref.obj
 0004:00001ad0       $pdata$_wrap_casevec_t_has$catch$2 0000000180029ad0     xref.obj
 0004:00001adc       $pdata$_wrap_casevec_t_has$catch$1 0000000180029adc     xref.obj
 0004:00001ae8       $pdata$_wrap_casevec_t_has$catch$0 0000000180029ae8     xref.obj
 0004:00001af4       $pdata$_wrap_casevec_t_add_unique 0000000180029af4     xref.obj
 0004:00001b00       $pdata$_wrap_casevec_t_add_unique$catch$5 0000000180029b00     xref.obj
 0004:00001b0c       $pdata$_wrap_casevec_t_add_unique$catch$4 0000000180029b0c     xref.obj
 0004:00001b18       $pdata$_wrap_casevec_t_add_unique$catch$3 0000000180029b18     xref.obj
 0004:00001b24       $pdata$_wrap_casevec_t_add_unique$catch$2 0000000180029b24     xref.obj
 0004:00001b30       $pdata$_wrap_casevec_t_add_unique$catch$1 0000000180029b30     xref.obj
 0004:00001b3c       $pdata$_wrap_casevec_t_add_unique$catch$0 0000000180029b3c     xref.obj
 0004:00001b48       $pdata$_wrap_casevec_t__del 0000000180029b48     xref.obj
 0004:00001b54       $pdata$_wrap_casevec_t__del$catch$5 0000000180029b54     xref.obj
 0004:00001b60       $pdata$_wrap_casevec_t__del$catch$4 0000000180029b60     xref.obj
 0004:00001b6c       $pdata$_wrap_casevec_t__del$catch$3 0000000180029b6c     xref.obj
 0004:00001b78       $pdata$_wrap_casevec_t__del$catch$2 0000000180029b78     xref.obj
 0004:00001b84       $pdata$_wrap_casevec_t__del$catch$1 0000000180029b84     xref.obj
 0004:00001b90       $pdata$_wrap_casevec_t__del$catch$0 0000000180029b90     xref.obj
 0004:00001b9c       $pdata$_wrap_casevec_t___len__ 0000000180029b9c     xref.obj
 0004:00001ba8       $pdata$_wrap_casevec_t___len__$catch$5 0000000180029ba8     xref.obj
 0004:00001bb4       $pdata$_wrap_casevec_t___len__$catch$4 0000000180029bb4     xref.obj
 0004:00001bc0       $pdata$_wrap_casevec_t___len__$catch$3 0000000180029bc0     xref.obj
 0004:00001bcc       $pdata$_wrap_casevec_t___len__$catch$2 0000000180029bcc     xref.obj
 0004:00001bd8       $pdata$_wrap_casevec_t___len__$catch$1 0000000180029bd8     xref.obj
 0004:00001be4       $pdata$_wrap_casevec_t___len__$catch$0 0000000180029be4     xref.obj
 0004:00001bf0       $pdata$_wrap_casevec_t___getitem__ 0000000180029bf0     xref.obj
 0004:00001bfc       $pdata$_wrap_casevec_t___getitem__$catch$0 0000000180029bfc     xref.obj
 0004:00001c08       $pdata$_wrap_casevec_t___getitem__$catch$1 0000000180029c08     xref.obj
 0004:00001c14       $pdata$_wrap_casevec_t___getitem__$catch$2 0000000180029c14     xref.obj
 0004:00001c20       $pdata$_wrap_casevec_t___getitem__$catch$3 0000000180029c20     xref.obj
 0004:00001c2c       $pdata$_wrap_casevec_t___getitem__$catch$4 0000000180029c2c     xref.obj
 0004:00001c38       $pdata$_wrap_casevec_t___getitem__$catch$5 0000000180029c38     xref.obj
 0004:00001c44       $pdata$_wrap_casevec_t___setitem__ 0000000180029c44     xref.obj
 0004:00001c50       $pdata$_wrap_casevec_t___setitem__$catch$0 0000000180029c50     xref.obj
 0004:00001c5c       $pdata$_wrap_casevec_t___setitem__$catch$1 0000000180029c5c     xref.obj
 0004:00001c68       $pdata$_wrap_casevec_t___setitem__$catch$2 0000000180029c68     xref.obj
 0004:00001c74       $pdata$_wrap_casevec_t___setitem__$catch$3 0000000180029c74     xref.obj
 0004:00001c80       $pdata$_wrap_casevec_t___setitem__$catch$4 0000000180029c80     xref.obj
 0004:00001c8c       $pdata$_wrap_casevec_t___setitem__$catch$5 0000000180029c8c     xref.obj
 0004:00001c98       $pdata$casevec_t_swigregister 0000000180029c98     xref.obj
 0004:00001ca4       $pdata$SWIG_InitializeModule 0000000180029ca4     xref.obj
 0004:00001cb0       $pdata$1$SWIG_InitializeModule 0000000180029cb0     xref.obj
 0004:00001cbc       $pdata$4$SWIG_InitializeModule 0000000180029cbc     xref.obj
 0004:00001cc8       $pdata$5$SWIG_InitializeModule 0000000180029cc8     xref.obj
 0004:00001cd4       $pdata$6$SWIG_InitializeModule 0000000180029cd4     xref.obj
 0004:00001ce0       $pdata$SWIG_Python_FixMethods 0000000180029ce0     xref.obj
 0004:00001cec       $pdata$4$SWIG_Python_FixMethods 0000000180029cec     xref.obj
 0004:00001cf8       $pdata$5$SWIG_Python_FixMethods 0000000180029cf8     xref.obj
 0004:00001d04       $pdata$PyInit__ida_xref    0000000180029d04     xref.obj
 0004:00001d10       $pdata$1$PyInit__ida_xref  0000000180029d10     xref.obj
 0004:00001d1c       $pdata$2$PyInit__ida_xref  0000000180029d1c     xref.obj
 0004:00001d28       $pdata$3$PyInit__ida_xref  0000000180029d28     xref.obj
 0004:00001d34       $pdata$4$PyInit__ida_xref  0000000180029d34     xref.obj
 0004:00001d40       $pdata$??2@YAPEAX_K@Z      0000000180029d40     MSVCRT:new_scalar.obj
 0004:00001d4c       $pdata$_Init_thread_header 0000000180029d4c     MSVCRT:thread_safe_statics.obj
 0004:00001d58       $pdata$_Init_thread_footer 0000000180029d58     MSVCRT:thread_safe_statics.obj
 0004:00001d64       $pdata$_Init_thread_wait   0000000180029d64     MSVCRT:thread_safe_statics.obj
 0004:00001d70       $pdata$_Init_thread_notify 0000000180029d70     MSVCRT:thread_safe_statics.obj
 0004:00001d7c       $pdata$?__scrt_uninitialize_thread_safe_statics@@YAXXZ 0000000180029d7c     MSVCRT:thread_safe_statics.obj
 0004:00001d88       $pdata$?__scrt_initialize_thread_safe_statics@@YAHXZ 0000000180029d88     MSVCRT:thread_safe_statics.obj
 0004:00001d94       $pdata$__GSHandlerCheckCommon 0000000180029d94     MSVCRT:gshandler.obj
 0004:00001da0       $pdata$__GSHandlerCheck    0000000180029da0     MSVCRT:gshandler.obj
 0004:00001dac       $pdata$__GSHandlerCheck_EH 0000000180029dac     MSVCRT:gshandlereh.obj
 0004:00001dc4       $pdata$??_Gtype_info@@UEAAPEAXI@Z 0000000180029dc4     MSVCRT:std_type_info_static.obj
 0004:00001dd0       $pdata$?dllmain_crt_process_attach@@YAHQEAUHINSTANCE__@@QEAX@Z 0000000180029dd0     MSVCRT:dll_dllmain.obj
 0004:00001ddc       $pdata$?fin$0@?0??dllmain_crt_process_attach@@YAHQEAUHINSTANCE__@@QEAX@Z@4HA 0000000180029ddc     MSVCRT:dll_dllmain.obj
 0004:00001de8       $pdata$?dllmain_crt_process_detach@@YAH_N@Z 0000000180029de8     MSVCRT:dll_dllmain.obj
 0004:00001df4       $pdata$?fin$0@?0??dllmain_crt_process_detach@@YAH_N@Z@4HA 0000000180029df4     MSVCRT:dll_dllmain.obj
 0004:00001e00       $pdata$?dllmain_crt_dispatch@@YAHQEAUHINSTANCE__@@KQEAX@Z 0000000180029e00     MSVCRT:dll_dllmain.obj
 0004:00001e0c       $pdata$?dllmain_dispatch@@YAHQEAUHINSTANCE__@@KQEAX@Z 0000000180029e0c     MSVCRT:dll_dllmain.obj
 0004:00001e18       $pdata$?filt$0@?0??dllmain_dispatch@@YAHQEAUHINSTANCE__@@KQEAX@Z@4HA 0000000180029e18     MSVCRT:dll_dllmain.obj
 0004:00001e24       $pdata$_DllMainCRTStartup  0000000180029e24     MSVCRT:dll_dllmain.obj
 0004:00001e30       $pdata$??0bad_alloc@std@@QEAA@AEBV01@@Z 0000000180029e30     MSVCRT:throw_bad_alloc.obj
 0004:00001e3c       $pdata$??0bad_array_new_length@std@@QEAA@AEBV01@@Z 0000000180029e3c     MSVCRT:throw_bad_alloc.obj
 0004:00001e48       $pdata$?__scrt_throw_std_bad_alloc@@YAXXZ 0000000180029e48     MSVCRT:throw_bad_alloc.obj
 0004:00001e54       $pdata$?__scrt_throw_std_bad_array_new_length@@YAXXZ 0000000180029e54     MSVCRT:throw_bad_alloc.obj
 0004:00001e60       $pdata$atexit              0000000180029e60     MSVCRT:utility.obj
 0004:00001e6c       $pdata$_onexit             0000000180029e6c     MSVCRT:utility.obj
 0004:00001e78       $pdata$__scrt_is_nonwritable_in_current_image 0000000180029e78     MSVCRT:utility.obj
 0004:00001e84       $pdata$__scrt_is_nonwritable_in_current_image$filt$0 0000000180029e84     MSVCRT:utility.obj
 0004:00001e90       $pdata$__scrt_acquire_startup_lock 0000000180029e90     MSVCRT:utility.obj
 0004:00001e9c       $pdata$__scrt_release_startup_lock 0000000180029e9c     MSVCRT:utility.obj
 0004:00001ea8       $pdata$__scrt_initialize_crt 0000000180029ea8     MSVCRT:utility.obj
 0004:00001eb4       $pdata$__scrt_uninitialize_crt 0000000180029eb4     MSVCRT:utility.obj
 0004:00001ec0       $pdata$__scrt_initialize_onexit_tables 0000000180029ec0     MSVCRT:utility.obj
 0004:00001ecc       $pdata$__scrt_dllmain_exception_filter 0000000180029ecc     MSVCRT:utility.obj
 0004:00001ed8       $pdata$__scrt_dllmain_before_initialize_c 0000000180029ed8     MSVCRT:utility.obj
 0004:00001ee4       $pdata$__scrt_dllmain_after_initialize_c 0000000180029ee4     MSVCRT:utility.obj
 0004:00001ef0       $pdata$__scrt_dllmain_uninitialize_c 0000000180029ef0     MSVCRT:utility.obj
 0004:00001efc       $pdata$__scrt_dllmain_uninitialize_critical 0000000180029efc     MSVCRT:utility.obj
 0004:00001f08       $pdata$__scrt_dllmain_crt_thread_attach 0000000180029f08     MSVCRT:utility.obj
 0004:00001f14       $pdata$__scrt_dllmain_crt_thread_detach 0000000180029f14     MSVCRT:utility.obj
 0004:00001f20       $pdata$__scrt_fastfail     0000000180029f20     MSVCRT:utility_desktop.obj
 0004:00001f2c       $pdata$__report_gsfailure  0000000180029f2c     MSVCRT:gs_report.obj
 0004:00001f38       $pdata$capture_previous_context 0000000180029f38     MSVCRT:gs_report.obj
 0004:00001f44       $pdata$__raise_securityfailure 0000000180029f44     MSVCRT:gs_report.obj
 0004:00001f50       $pdata$__security_init_cookie 0000000180029f50     MSVCRT:gs_support.obj
 0004:00001f5c       $pdata$DllMain             0000000180029f5c     MSVCRT:dll_dllmain_stub.obj
 0004:00001f68       $pdata$__scrt_initialize_default_local_stdio_options 0000000180029f68     MSVCRT:default_local_stdio_options.obj
 0004:00001f74       $pdata$_RTC_Initialize     0000000180029f74     MSVCRT:initsect.obj
 0004:00001f80       $pdata$_RTC_Terminate      0000000180029f80     MSVCRT:initsect.obj
 0004:00001f8c       $pdata$__isa_available_init 0000000180029f8c     MSVCRT:cpu_disp.obj
