 _ida_segment

 Timestamp is 5e3da0b5 (Fri Feb  7 17:39:01 2020)

 Preferred load address is 0000000180000000

 Start         Length     Name                   Class
 0001:00000000 0000e090H .text$mn                CODE
 0001:0000e090 00000020H .text$mn$00             CODE
 0001:0000e0b0 00006dd3H .text$x                 CODE
 0002:00000000 00000678H .idata$5                DATA
 0002:00000678 00000010H .00cfg                  DATA
 0002:00000688 00000008H .CRT$XCA                DATA
 0002:00000690 00000008H .CRT$XCZ                DATA
 0002:00000698 00000008H .CRT$XIA                DATA
 0002:000006a0 00000008H .CRT$XIC                DATA
 0002:000006a8 00000008H .CRT$XIZ                DATA
 0002:000006b0 00000008H .CRT$XLA                DATA
 0002:000006b8 00000008H .CRT$XLZ                DATA
 0002:000006c0 00000008H .CRT$XPA                DATA
 0002:000006c8 00000008H .CRT$XPZ                DATA
 0002:000006d0 00000008H .CRT$XTA                DATA
 0002:000006d8 00000008H .CRT$XTZ                DATA
 0002:000006e0 00000000H .gfids$y                DATA
 0002:000006e0 000082b0H .rdata                  DATA
 0002:00008990 00000028H .rdata$T                DATA
 0002:000089b8 000001f4H .rdata$r                DATA
 0002:00008bac 00000314H .rdata$zzzdbg           DATA
 0002:00008ec0 00000008H .rtc$IAA                DATA
 0002:00008ec8 00000008H .rtc$IZZ                DATA
 0002:00008ed0 00000008H .rtc$TAA                DATA
 0002:00008ed8 00000008H .rtc$TZZ                DATA
 0002:00008ee0 00000004H .tls                    DATA
 0002:00008ee4 00000004H .tls$                   DATA
 0002:00008ee8 00000008H .tls$ZZZ                DATA
 0002:00008ef0 000055f0H .xdata                  DATA
 0002:0000e4e0 000000f0H .xdata$x                DATA
 0002:0000e5d0 00000058H .edata                  DATA
 0002:0000e628 000000b4H .idata$2                DATA
 0002:0000e6dc 00000014H .idata$3                DATA
 0002:0000e6f0 00000678H .idata$4                DATA
 0002:0000ed68 00000fdaH .idata$6                DATA
 0003:00000000 00003568H .data                   DATA
 0003:00003568 00000128H .data$r                 DATA
 0003:00003690 00000928H .bss                    DATA
 0004:00000000 00002724H .pdata                  DATA

  Address         Publics by Value              Rva+Base               Lib:Object

 0000:00000000       __guard_longjmp_table      0000000000000000     <absolute>
 0000:00000000       __enclave_config           0000000000000000     <absolute>
 0000:00000000       __guard_longjmp_count      0000000000000000     <absolute>
 0000:00000000       __volatile_metadata        0000000000000000     <absolute>
 0000:00000000       __guard_iat_table          0000000000000000     <absolute>
 0000:00000000       ___safe_se_handler_count   0000000000000000     <absolute>
 0000:00000000       ___safe_se_handler_table   0000000000000000     <absolute>
 0000:00000000       __guard_fids_count         0000000000000000     <absolute>
 0000:00000000       __dynamic_value_reloc_table 0000000000000000     <absolute>
 0000:00000000       __hybrid_code_map_count    0000000000000000     <absolute>
 0000:00000000       __guard_fids_table         0000000000000000     <absolute>
 0000:00000000       __guard_iat_count          0000000000000000     <absolute>
 0000:00000000       __hybrid_code_map          0000000000000000     <absolute>
 0000:00000000       __hybrid_auxiliary_iat     0000000000000000     <absolute>
 0000:00000100       __guard_flags              0000000000000100     <absolute>
 0000:00000000       __ImageBase                0000000180000000     <linker-defined>
 0001:0000aa80       ??1?$_qstring@D@@QEAA@XZ   000000018000ba80 f i segment.obj
 0001:0000aa80       ??1?$qvector@I@@QEAA@XZ    000000018000ba80 f i segment.obj
 0001:0000af00       ?sprnt@?$_qstring@D@@QEAAAEAV1@PEBDZZ 000000018000bf00 f i segment.obj
 0001:0000afc0       PyInit__ida_segment        000000018000bfc0 f   segment.obj
 0001:0000ca40       __local_stdio_printf_options 000000018000da40 f i segment.obj
 0001:0000ca50       printf                     000000018000da50 f i segment.obj
 0001:0000caa5       qfree                      000000018000daa5 f   ida:ida.dll
 0001:0000caab       qvsnprintf                 000000018000daab f   ida:ida.dll
 0001:0000cab1       qvector_reserve            000000018000dab1 f   ida:ida.dll
 0001:0000cab7       is_main_thread             000000018000dab7 f   ida:ida.dll
 0001:0000cabd       set_visible_segm           000000018000dabd f   ida:ida.dll
 0001:0000cac3       is_spec_segm               000000018000dac3 f   ida:ida.dll
 0001:0000cac9       is_spec_ea                 000000018000dac9 f   ida:ida.dll
 0001:0000cacf       lock_segm                  000000018000dacf f   ida:ida.dll
 0001:0000cad5       is_segm_locked             000000018000dad5 f   ida:ida.dll
 0001:0000cadb       getn_selector              000000018000dadb f   ida:ida.dll
 0001:0000cae1       get_selector_qty           000000018000dae1 f   ida:ida.dll
 0001:0000cae7       setup_selector             000000018000dae7 f   ida:ida.dll
 0001:0000caed       allocate_selector          000000018000daed f   ida:ida.dll
 0001:0000caf3       find_free_selector         000000018000daf3 f   ida:ida.dll
 0001:0000caf9       set_selector               000000018000daf9 f   ida:ida.dll
 0001:0000caff       del_selector               000000018000daff f   ida:ida.dll
 0001:0000cb05       sel2para                   000000018000db05 f   ida:ida.dll
 0001:0000cb0b       find_selector              000000018000db0b f   ida:ida.dll
 0001:0000cb11       get_segm_by_sel            000000018000db11 f   ida:ida.dll
 0001:0000cb17       add_segm_ex                000000018000db17 f   ida:ida.dll
 0001:0000cb1d       add_segm                   000000018000db1d f   ida:ida.dll
 0001:0000cb23       del_segm                   000000018000db23 f   ida:ida.dll
 0001:0000cb29       get_segm_qty               000000018000db29 f   ida:ida.dll
 0001:0000cb2f       getseg                     000000018000db2f f   ida:ida.dll
 0001:0000cb35       getnseg                    000000018000db35 f   ida:ida.dll
 0001:0000cb3b       get_segm_num               000000018000db3b f   ida:ida.dll
 0001:0000cb41       get_next_seg               000000018000db41 f   ida:ida.dll
 0001:0000cb47       get_prev_seg               000000018000db47 f   ida:ida.dll
 0001:0000cb4d       get_first_seg              000000018000db4d f   ida:ida.dll
 0001:0000cb53       get_last_seg               000000018000db53 f   ida:ida.dll
 0001:0000cb59       get_segm_by_name           000000018000db59 f   ida:ida.dll
 0001:0000cb5f       set_segm_end               000000018000db5f f   ida:ida.dll
 0001:0000cb65       set_segm_start             000000018000db65 f   ida:ida.dll
 0001:0000cb6b       move_segm_start            000000018000db6b f   ida:ida.dll
 0001:0000cb71       move_segm                  000000018000db71 f   ida:ida.dll
 0001:0000cb77       rebase_program             000000018000db77 f   ida:ida.dll
 0001:0000cb7d       change_segment_status      000000018000db7d f   ida:ida.dll
 0001:0000cb83       take_memory_snapshot       000000018000db83 f   ida:ida.dll
 0001:0000cb89       is_miniidb                 000000018000db89 f   ida:ida.dll
 0001:0000cb8f       set_segm_base              000000018000db8f f   ida:ida.dll
 0001:0000cb95       set_group_selector         000000018000db95 f   ida:ida.dll
 0001:0000cb9b       get_group_selector         000000018000db9b f   ida:ida.dll
 0001:0000cba1       add_segment_translation    000000018000dba1 f   ida:ida.dll
 0001:0000cba7       set_segment_translations   000000018000dba7 f   ida:ida.dll
 0001:0000cbad       del_segment_translations   000000018000dbad f   ida:ida.dll
 0001:0000cbb3       get_segment_translations   000000018000dbb3 f   ida:ida.dll
 0001:0000cbb9       get_segment_cmt            000000018000dbb9 f   ida:ida.dll
 0001:0000cbbf       set_segment_cmt            000000018000dbbf f   ida:ida.dll
 0001:0000cbc5       std_out_segm_footer        000000018000dbc5 f   ida:ida.dll
 0001:0000cbcb       set_segm_name              000000018000dbcb f   ida:ida.dll
 0001:0000cbd1       get_segm_name              000000018000dbd1 f   ida:ida.dll
 0001:0000cbd7       get_segm_class             000000018000dbd7 f   ida:ida.dll
 0001:0000cbdd       set_segm_class             000000018000dbdd f   ida:ida.dll
 0001:0000cbe3       segtype                    000000018000dbe3 f   ida:ida.dll
 0001:0000cbe9       get_segment_alignment      000000018000dbe9 f   ida:ida.dll
 0001:0000cbef       get_segment_combination    000000018000dbef f   ida:ida.dll
 0001:0000cbf5       get_segm_para              000000018000dbf5 f   ida:ida.dll
 0001:0000cbfb       get_segm_base              000000018000dbfb f   ida:ida.dll
 0001:0000cc01       set_segm_addressing        000000018000dc01 f   ida:ida.dll
 0001:0000cc07       update_segm                000000018000dc07 f   ida:ida.dll
 0001:0000cc0d       segm_adjust_diff           000000018000dc0d f   ida:ida.dll
 0001:0000cc13       segm_adjust_ea             000000018000dc13 f   ida:ida.dll
 0001:0000cc19       PyW_GetNumber              000000018000dc19 f   python:python.dll
 0001:0000cc1f       PyW_PyListToEaVec          000000018000dc1f f   python:python.dll
 0001:0000cc28       ??2@YAPEAX_K@Z             000000018000dc28 f   MSVCRT:new_scalar.obj
 0001:0000cc64       ??_V@YAXPEAX@Z             000000018000dc64 f   MSVCRT:delete_array.obj
 0001:0000cc64       ??3@YAXPEAX_K@Z            000000018000dc64 f   MSVCRT:delete_scalar_size.obj
 0001:0000cc6c       ??_U@YAPEAX_K@Z            000000018000dc6c f   MSVCRT:new_array.obj
 0001:0000cdfc       _Init_thread_footer        000000018000ddfc f   MSVCRT:thread_safe_statics.obj
 0001:0000ce5c       _Init_thread_header        000000018000de5c f   MSVCRT:thread_safe_statics.obj
 0001:0000cec4       _Init_thread_notify        000000018000dec4 f   MSVCRT:thread_safe_statics.obj
 0001:0000cf14       _Init_thread_wait          000000018000df14 f   MSVCRT:thread_safe_statics.obj
 0001:0000cf8c       __GSHandlerCheck           000000018000df8c f   MSVCRT:gshandler.obj
 0001:0000cfac       __GSHandlerCheckCommon     000000018000dfac f   MSVCRT:gshandler.obj
 0001:0000d008       __GSHandlerCheck_EH        000000018000e008 f   MSVCRT:gshandlereh.obj
 0001:0000d0a0       __security_check_cookie    000000018000e0a0 f   MSVCRT:amdsecgs.obj
 0001:0000d0c4       ??_Gtype_info@@UEAAPEAXI@Z 000000018000e0c4 f i MSVCRT:std_type_info_static.obj
 0001:0000d0c4       ??_Etype_info@@UEAAPEAXI@Z 000000018000e0c4 f i MSVCRT:std_type_info_static.obj
 0001:0000d420       _DllMainCRTStartup         000000018000e420 f   MSVCRT:dll_dllmain.obj
 0001:0000d460       ??0bad_alloc@std@@QEAA@AEBV01@@Z 000000018000e460 f i MSVCRT:throw_bad_alloc.obj
 0001:0000d4a0       ??0bad_alloc@std@@QEAA@XZ  000000018000e4a0 f i MSVCRT:throw_bad_alloc.obj
 0001:0000d4c0       ??0bad_array_new_length@std@@QEAA@AEBV01@@Z 000000018000e4c0 f i MSVCRT:throw_bad_alloc.obj
 0001:0000d500       ??0bad_array_new_length@std@@QEAA@XZ 000000018000e500 f i MSVCRT:throw_bad_alloc.obj
 0001:0000d520       ??0exception@std@@QEAA@AEBV01@@Z 000000018000e520 f i MSVCRT:throw_bad_alloc.obj
 0001:0000d558       ??1bad_array_new_length@std@@UEAA@XZ 000000018000e558 f i MSVCRT:throw_bad_alloc.obj
 0001:0000d558       ??1bad_alloc@std@@UEAA@XZ  000000018000e558 f i MSVCRT:throw_bad_alloc.obj
 0001:0000d56c       ??_Ebad_array_new_length@std@@UEAAPEAXI@Z 000000018000e56c f i MSVCRT:throw_bad_alloc.obj
 0001:0000d56c       ??_Eexception@std@@UEAAPEAXI@Z 000000018000e56c f i MSVCRT:throw_bad_alloc.obj
 0001:0000d56c       ??_Gbad_alloc@std@@UEAAPEAXI@Z 000000018000e56c f i MSVCRT:throw_bad_alloc.obj
 0001:0000d56c       ??_Gexception@std@@UEAAPEAXI@Z 000000018000e56c f i MSVCRT:throw_bad_alloc.obj
 0001:0000d56c       ??_Ebad_alloc@std@@UEAAPEAXI@Z 000000018000e56c f i MSVCRT:throw_bad_alloc.obj
 0001:0000d56c       ??_Gbad_array_new_length@std@@UEAAPEAXI@Z 000000018000e56c f i MSVCRT:throw_bad_alloc.obj
 0001:0000d5b0       ?__scrt_throw_std_bad_alloc@@YAXXZ 000000018000e5b0 f   MSVCRT:throw_bad_alloc.obj
 0001:0000d5d0       ?__scrt_throw_std_bad_array_new_length@@YAXXZ 000000018000e5d0 f   MSVCRT:throw_bad_alloc.obj
 0001:0000d5f0       ?what@exception@std@@UEBAPEBDXZ 000000018000e5f0 f i MSVCRT:throw_bad_alloc.obj
 0001:0000d604       ??3@YAXPEAX@Z              000000018000e604 f   MSVCRT:delete_scalar.obj
 0001:0000d60c       __scrt_acquire_startup_lock 000000018000e60c f   MSVCRT:utility.obj
 0001:0000d648       __scrt_dllmain_after_initialize_c 000000018000e648 f   MSVCRT:utility.obj
 0001:0000d67c       __scrt_dllmain_before_initialize_c 000000018000e67c f   MSVCRT:utility.obj
 0001:0000d694       __scrt_dllmain_crt_thread_attach 000000018000e694 f   MSVCRT:utility.obj
 0001:0000d6bc       __scrt_dllmain_crt_thread_detach 000000018000e6bc f   MSVCRT:utility.obj
 0001:0000d6d4       __scrt_dllmain_exception_filter 000000018000e6d4 f   MSVCRT:utility.obj
 0001:0000d734       __scrt_dllmain_uninitialize_c 000000018000e734 f   MSVCRT:utility.obj
 0001:0000d764       __scrt_dllmain_uninitialize_critical 000000018000e764 f   MSVCRT:utility.obj
 0001:0000d778       __scrt_initialize_crt      000000018000e778 f   MSVCRT:utility.obj
 0001:0000d7c4       __scrt_initialize_onexit_tables 000000018000e7c4 f   MSVCRT:utility.obj
 0001:0000d89c       __scrt_is_nonwritable_in_current_image 000000018000e89c f   MSVCRT:utility.obj
 0001:0000d938       __scrt_release_startup_lock 000000018000e938 f   MSVCRT:utility.obj
 0001:0000d95c       __scrt_uninitialize_crt    000000018000e95c f   MSVCRT:utility.obj
 0001:0000d988       _onexit                    000000018000e988 f   MSVCRT:utility.obj
 0001:0000d9d8       atexit                     000000018000e9d8 f   MSVCRT:utility.obj
 0001:0000d9f0       __crt_debugger_hook        000000018000e9f0 f   MSVCRT:utility_desktop.obj
 0001:0000d9f8       __scrt_fastfail            000000018000e9f8 f   MSVCRT:utility_desktop.obj
 0001:0000db44       _guard_check_icall_nop     000000018000eb44 f i MSVCRT:guard_support.obj
 0001:0000db48       __raise_securityfailure    000000018000eb48 f   MSVCRT:gs_report.obj
 0001:0000db7c       __report_gsfailure         000000018000eb7c f   MSVCRT:gs_report.obj
 0001:0000dcc4       __security_init_cookie     000000018000ecc4 f   MSVCRT:gs_support.obj
 0001:0000dd70       DllMain                    000000018000ed70 f   MSVCRT:dll_dllmain_stub.obj
 0001:0000dd94       ?__scrt_initialize_type_info@@YAXXZ 000000018000ed94 f   MSVCRT:tncleanup.obj
 0001:0000dda4       ?__scrt_uninitialize_type_info@@YAXXZ 000000018000eda4 f   MSVCRT:tncleanup.obj
 0001:0000ddb0       __local_stdio_scanf_options 000000018000edb0 f i MSVCRT:default_local_stdio_options.obj
 0001:0000ddb8       __scrt_initialize_default_local_stdio_options 000000018000edb8 f   MSVCRT:default_local_stdio_options.obj
 0001:0000ddd4       __scrt_get_dyn_tls_init_callback 000000018000edd4 f   MSVCRT:dyn_tls_init.obj
 0001:0000dddc       _RTC_Initialize            000000018000eddc f   MSVCRT:initsect.obj
 0001:0000de18       _RTC_Terminate             000000018000ee18 f   MSVCRT:initsect.obj
 0001:0000de54       __isa_available_init       000000018000ee54 f   MSVCRT:cpu_disp.obj
 0001:0000dfd0       _get_startup_argv_mode     000000018000efd0 f   MSVCRT:argv_mode.obj
 0001:0000dfd8       __scrt_is_ucrt_dll_in_use  000000018000efd8 f   MSVCRT:ucrt_detection.obj
 0001:0000dff0       IsProcessorFeaturePresent  000000018000eff0 f   kernel32:KERNEL32.dll
 0001:0000dff6       strstr                     000000018000eff6 f   vcruntime:VCRUNTIME140.dll
 0001:0000dffc       __CxxFrameHandler3         000000018000effc f   vcruntime:VCRUNTIME140.dll
 0001:0000e002       memcpy                     000000018000f002 f   vcruntime:VCRUNTIME140.dll
 0001:0000e008       memset                     000000018000f008 f   vcruntime:VCRUNTIME140.dll
 0001:0000e00e       __std_terminate            000000018000f00e f   vcruntime:VCRUNTIME140.dll
 0001:0000e014       __C_specific_handler       000000018000f014 f   vcruntime:VCRUNTIME140.dll
 0001:0000e01a       __std_exception_copy       000000018000f01a f   vcruntime:VCRUNTIME140.dll
 0001:0000e020       __std_exception_destroy    000000018000f020 f   vcruntime:VCRUNTIME140.dll
 0001:0000e026       _CxxThrowException         000000018000f026 f   vcruntime:VCRUNTIME140.dll
 0001:0000e02c       __std_type_info_destroy_list 000000018000f02c f   vcruntime:VCRUNTIME140.dll
 0001:0000e032       free                       000000018000f032 f   ucrt:api-ms-win-crt-heap-l1-1-0.dll
 0001:0000e038       malloc                     000000018000f038 f   ucrt:api-ms-win-crt-heap-l1-1-0.dll
 0001:0000e03e       _callnewh                  000000018000f03e f   ucrt:api-ms-win-crt-heap-l1-1-0.dll
 0001:0000e044       _initterm                  000000018000f044 f   ucrt:api-ms-win-crt-runtime-l1-1-0.dll
 0001:0000e04a       _initterm_e                000000018000f04a f   ucrt:api-ms-win-crt-runtime-l1-1-0.dll
 0001:0000e050       _seh_filter_dll            000000018000f050 f   ucrt:api-ms-win-crt-runtime-l1-1-0.dll
 0001:0000e056       _configure_narrow_argv     000000018000f056 f   ucrt:api-ms-win-crt-runtime-l1-1-0.dll
 0001:0000e05c       _initialize_narrow_environment 000000018000f05c f   ucrt:api-ms-win-crt-runtime-l1-1-0.dll
 0001:0000e062       _initialize_onexit_table   000000018000f062 f   ucrt:api-ms-win-crt-runtime-l1-1-0.dll
 0001:0000e068       _register_onexit_function  000000018000f068 f   ucrt:api-ms-win-crt-runtime-l1-1-0.dll
 0001:0000e06e       _execute_onexit_table      000000018000f06e f   ucrt:api-ms-win-crt-runtime-l1-1-0.dll
 0001:0000e074       _crt_atexit                000000018000f074 f   ucrt:api-ms-win-crt-runtime-l1-1-0.dll
 0001:0000e07a       _cexit                     000000018000f07a f   ucrt:api-ms-win-crt-runtime-l1-1-0.dll
 0001:0000e080       __vcrt_initialize          000000018000f080 f   MSVCRT:ucrt_stubs.obj
 0001:0000e080       __scrt_stub_for_acrt_thread_attach 000000018000f080 f   MSVCRT:ucrt_stubs.obj
 0001:0000e080       __scrt_stub_for_acrt_thread_detach 000000018000f080 f   MSVCRT:ucrt_stubs.obj
 0001:0000e080       __acrt_uninitialize_critical 000000018000f080 f   MSVCRT:ucrt_stubs.obj
 0001:0000e080       __acrt_thread_detach       000000018000f080 f   MSVCRT:ucrt_stubs.obj
 0001:0000e080       __vcrt_thread_detach       000000018000f080 f   MSVCRT:ucrt_stubs.obj
 0001:0000e080       __scrt_stub_for_acrt_initialize 000000018000f080 f   MSVCRT:ucrt_stubs.obj
 0001:0000e080       __scrt_stub_for_acrt_uninitialize 000000018000f080 f   MSVCRT:ucrt_stubs.obj
 0001:0000e080       __vcrt_uninitialize_critical 000000018000f080 f   MSVCRT:ucrt_stubs.obj
 0001:0000e080       __acrt_uninitialize        000000018000f080 f   MSVCRT:ucrt_stubs.obj
 0001:0000e080       __acrt_thread_attach       000000018000f080 f   MSVCRT:ucrt_stubs.obj
 0001:0000e080       __scrt_stub_for_acrt_uninitialize_critical 000000018000f080 f   MSVCRT:ucrt_stubs.obj
 0001:0000e080       __vcrt_uninitialize        000000018000f080 f   MSVCRT:ucrt_stubs.obj
 0001:0000e080       __acrt_initialize          000000018000f080 f   MSVCRT:ucrt_stubs.obj
 0001:0000e080       __vcrt_thread_attach       000000018000f080 f   MSVCRT:ucrt_stubs.obj
 0001:0000e084       __scrt_stub_for_is_c_termination_complete 000000018000f084 f   MSVCRT:ucrt_stubs.obj
 0001:0000e084       _is_c_termination_complete 000000018000f084 f   MSVCRT:ucrt_stubs.obj
 0001:0000e0a0       _guard_dispatch_icall_nop  000000018000f0a0 f   MSVCRT:guard_dispatch.obj
 0002:00000000       __imp_CloseHandle          0000000180016000     kernel32:KERNEL32.dll
 0002:00000008       __imp_EnterCriticalSection 0000000180016008     kernel32:KERNEL32.dll
 0002:00000010       __imp_LeaveCriticalSection 0000000180016010     kernel32:KERNEL32.dll
 0002:00000018       __imp_InitializeCriticalSectionAndSpinCount 0000000180016018     kernel32:KERNEL32.dll
 0002:00000020       __imp_DeleteCriticalSection 0000000180016020     kernel32:KERNEL32.dll
 0002:00000028       __imp_SetEvent             0000000180016028     kernel32:KERNEL32.dll
 0002:00000030       __imp_ResetEvent           0000000180016030     kernel32:KERNEL32.dll
 0002:00000038       __imp_WaitForSingleObjectEx 0000000180016038     kernel32:KERNEL32.dll
 0002:00000040       __imp_CreateEventW         0000000180016040     kernel32:KERNEL32.dll
 0002:00000048       __imp_GetModuleHandleW     0000000180016048     kernel32:KERNEL32.dll
 0002:00000050       __imp_GetProcAddress       0000000180016050     kernel32:KERNEL32.dll
 0002:00000058       __imp_RtlCaptureContext    0000000180016058     kernel32:KERNEL32.dll
 0002:00000060       __imp_RtlLookupFunctionEntry 0000000180016060     kernel32:KERNEL32.dll
 0002:00000068       __imp_RtlVirtualUnwind     0000000180016068     kernel32:KERNEL32.dll
 0002:00000070       __imp_IsDebuggerPresent    0000000180016070     kernel32:KERNEL32.dll
 0002:00000078       __imp_UnhandledExceptionFilter 0000000180016078     kernel32:KERNEL32.dll
 0002:00000080       __imp_SetUnhandledExceptionFilter 0000000180016080     kernel32:KERNEL32.dll
 0002:00000088       __imp_IsProcessorFeaturePresent 0000000180016088     kernel32:KERNEL32.dll
 0002:00000090       __imp_GetCurrentProcess    0000000180016090     kernel32:KERNEL32.dll
 0002:00000098       __imp_TerminateProcess     0000000180016098     kernel32:KERNEL32.dll
 0002:000000a0       __imp_QueryPerformanceCounter 00000001800160a0     kernel32:KERNEL32.dll
 0002:000000a8       __imp_GetCurrentProcessId  00000001800160a8     kernel32:KERNEL32.dll
 0002:000000b0       __imp_GetCurrentThreadId   00000001800160b0     kernel32:KERNEL32.dll
 0002:000000b8       __imp_GetSystemTimeAsFileTime 00000001800160b8     kernel32:KERNEL32.dll
 0002:000000c0       __imp_DisableThreadLibraryCalls 00000001800160c0     kernel32:KERNEL32.dll
 0002:000000c8       __imp_InitializeSListHead  00000001800160c8     kernel32:KERNEL32.dll
 0002:000000d0       \177KERNEL32_NULL_THUNK_DATA 00000001800160d0     kernel32:KERNEL32.dll
 0002:000000d8       __imp_strstr               00000001800160d8     vcruntime:VCRUNTIME140.dll
 0002:000000e0       __imp___CxxFrameHandler3   00000001800160e0     vcruntime:VCRUNTIME140.dll
 0002:000000e8       __imp_memcpy               00000001800160e8     vcruntime:VCRUNTIME140.dll
 0002:000000f0       __imp_memset               00000001800160f0     vcruntime:VCRUNTIME140.dll
 0002:000000f8       __imp___std_terminate      00000001800160f8     vcruntime:VCRUNTIME140.dll
 0002:00000100       __imp___C_specific_handler 0000000180016100     vcruntime:VCRUNTIME140.dll
 0002:00000108       __imp___std_exception_copy 0000000180016108     vcruntime:VCRUNTIME140.dll
 0002:00000110       __imp___std_exception_destroy 0000000180016110     vcruntime:VCRUNTIME140.dll
 0002:00000118       __imp__CxxThrowException   0000000180016118     vcruntime:VCRUNTIME140.dll
 0002:00000120       __imp___std_type_info_destroy_list 0000000180016120     vcruntime:VCRUNTIME140.dll
 0002:00000128       \177VCRUNTIME140_NULL_THUNK_DATA 0000000180016128     vcruntime:VCRUNTIME140.dll
 0002:00000130       __imp_malloc               0000000180016130     ucrt:api-ms-win-crt-heap-l1-1-0.dll
 0002:00000138       __imp__callnewh            0000000180016138     ucrt:api-ms-win-crt-heap-l1-1-0.dll
 0002:00000140       __imp_free                 0000000180016140     ucrt:api-ms-win-crt-heap-l1-1-0.dll
 0002:00000148       \177api-ms-win-crt-heap-l1-1-0_NULL_THUNK_DATA 0000000180016148     ucrt:api-ms-win-crt-heap-l1-1-0.dll
 0002:00000150       __imp__initialize_onexit_table 0000000180016150     ucrt:api-ms-win-crt-runtime-l1-1-0.dll
 0002:00000158       __imp__cexit               0000000180016158     ucrt:api-ms-win-crt-runtime-l1-1-0.dll
 0002:00000160       __imp__initterm            0000000180016160     ucrt:api-ms-win-crt-runtime-l1-1-0.dll
 0002:00000168       __imp__initterm_e          0000000180016168     ucrt:api-ms-win-crt-runtime-l1-1-0.dll
 0002:00000170       __imp__seh_filter_dll      0000000180016170     ucrt:api-ms-win-crt-runtime-l1-1-0.dll
 0002:00000178       __imp__configure_narrow_argv 0000000180016178     ucrt:api-ms-win-crt-runtime-l1-1-0.dll
 0002:00000180       __imp__initialize_narrow_environment 0000000180016180     ucrt:api-ms-win-crt-runtime-l1-1-0.dll
 0002:00000188       __imp__register_onexit_function 0000000180016188     ucrt:api-ms-win-crt-runtime-l1-1-0.dll
 0002:00000190       __imp__execute_onexit_table 0000000180016190     ucrt:api-ms-win-crt-runtime-l1-1-0.dll
 0002:00000198       __imp__crt_atexit          0000000180016198     ucrt:api-ms-win-crt-runtime-l1-1-0.dll
 0002:000001a0       \177api-ms-win-crt-runtime-l1-1-0_NULL_THUNK_DATA 00000001800161a0     ucrt:api-ms-win-crt-runtime-l1-1-0.dll
 0002:000001a8       __imp___stdio_common_vfprintf 00000001800161a8     ucrt:api-ms-win-crt-stdio-l1-1-0.dll
 0002:000001b0       __imp___acrt_iob_func      00000001800161b0     ucrt:api-ms-win-crt-stdio-l1-1-0.dll
 0002:000001b8       \177api-ms-win-crt-stdio-l1-1-0_NULL_THUNK_DATA 00000001800161b8     ucrt:api-ms-win-crt-stdio-l1-1-0.dll
 0002:000001c0       __imp_strncmp              00000001800161c0     ucrt:api-ms-win-crt-string-l1-1-0.dll
 0002:000001c8       \177api-ms-win-crt-string-l1-1-0_NULL_THUNK_DATA 00000001800161c8     ucrt:api-ms-win-crt-string-l1-1-0.dll
 0002:000001d0       __imp_set_segment_translations 00000001800161d0     ida:ida.dll
 0002:000001d8       __imp_set_segm_addressing  00000001800161d8     ida:ida.dll
 0002:000001e0       __imp_inf                  00000001800161e0     ida:ida.dll
 0002:000001e8       __imp_get_segm_base        00000001800161e8     ida:ida.dll
 0002:000001f0       __imp_get_segm_para        00000001800161f0     ida:ida.dll
 0002:000001f8       __imp_get_segment_combination 00000001800161f8     ida:ida.dll
 0002:00000200       __imp_get_segment_alignment 0000000180016200     ida:ida.dll
 0002:00000208       __imp_segtype              0000000180016208     ida:ida.dll
 0002:00000210       __imp_segm_adjust_ea       0000000180016210     ida:ida.dll
 0002:00000218       __imp_get_segm_class       0000000180016218     ida:ida.dll
 0002:00000220       __imp_get_segm_name        0000000180016220     ida:ida.dll
 0002:00000228       __imp_set_segm_name        0000000180016228     ida:ida.dll
 0002:00000230       __imp_std_out_segm_footer  0000000180016230     ida:ida.dll
 0002:00000238       __imp_set_segment_cmt      0000000180016238     ida:ida.dll
 0002:00000240       __imp_get_segment_cmt      0000000180016240     ida:ida.dll
 0002:00000248       __imp_add_segment_translation 0000000180016248     ida:ida.dll
 0002:00000250       __imp_get_group_selector   0000000180016250     ida:ida.dll
 0002:00000258       __imp_set_group_selector   0000000180016258     ida:ida.dll
 0002:00000260       __imp_segm_adjust_diff     0000000180016260     ida:ida.dll
 0002:00000268       __imp_set_segm_class       0000000180016268     ida:ida.dll
 0002:00000270       __imp_get_segment_translations 0000000180016270     ida:ida.dll
 0002:00000278       __imp_update_segm          0000000180016278     ida:ida.dll
 0002:00000280       __imp_set_segm_base        0000000180016280     ida:ida.dll
 0002:00000288       __imp_is_miniidb           0000000180016288     ida:ida.dll
 0002:00000290       __imp_take_memory_snapshot 0000000180016290     ida:ida.dll
 0002:00000298       __imp_change_segment_status 0000000180016298     ida:ida.dll
 0002:000002a0       __imp_rebase_program       00000001800162a0     ida:ida.dll
 0002:000002a8       __imp_move_segm            00000001800162a8     ida:ida.dll
 0002:000002b0       __imp_move_segm_start      00000001800162b0     ida:ida.dll
 0002:000002b8       __imp_set_segm_start       00000001800162b8     ida:ida.dll
 0002:000002c0       __imp_set_segm_end         00000001800162c0     ida:ida.dll
 0002:000002c8       __imp_get_segm_by_name     00000001800162c8     ida:ida.dll
 0002:000002d0       __imp_get_last_seg         00000001800162d0     ida:ida.dll
 0002:000002d8       __imp_get_first_seg        00000001800162d8     ida:ida.dll
 0002:000002e0       __imp_get_prev_seg         00000001800162e0     ida:ida.dll
 0002:000002e8       __imp_get_next_seg         00000001800162e8     ida:ida.dll
 0002:000002f0       __imp_get_segm_num         00000001800162f0     ida:ida.dll
 0002:000002f8       __imp_getnseg              00000001800162f8     ida:ida.dll
 0002:00000300       __imp_getseg               0000000180016300     ida:ida.dll
 0002:00000308       __imp_get_segm_qty         0000000180016308     ida:ida.dll
 0002:00000310       __imp_del_segm             0000000180016310     ida:ida.dll
 0002:00000318       __imp_add_segm             0000000180016318     ida:ida.dll
 0002:00000320       __imp_add_segm_ex          0000000180016320     ida:ida.dll
 0002:00000328       __imp_qfree                0000000180016328     ida:ida.dll
 0002:00000330       __imp_get_segm_by_sel      0000000180016330     ida:ida.dll
 0002:00000338       __imp_find_selector        0000000180016338     ida:ida.dll
 0002:00000340       __imp_sel2para             0000000180016340     ida:ida.dll
 0002:00000348       __imp_del_selector         0000000180016348     ida:ida.dll
 0002:00000350       __imp_set_selector         0000000180016350     ida:ida.dll
 0002:00000358       __imp_find_free_selector   0000000180016358     ida:ida.dll
 0002:00000360       __imp_allocate_selector    0000000180016360     ida:ida.dll
 0002:00000368       __imp_setup_selector       0000000180016368     ida:ida.dll
 0002:00000370       __imp_get_selector_qty     0000000180016370     ida:ida.dll
 0002:00000378       __imp_getn_selector        0000000180016378     ida:ida.dll
 0002:00000380       __imp_is_segm_locked       0000000180016380     ida:ida.dll
 0002:00000388       __imp_lock_segm            0000000180016388     ida:ida.dll
 0002:00000390       __imp_is_spec_ea           0000000180016390     ida:ida.dll
 0002:00000398       __imp_is_spec_segm         0000000180016398     ida:ida.dll
 0002:000003a0       __imp_set_visible_segm     00000001800163a0     ida:ida.dll
 0002:000003a8       __imp_is_main_thread       00000001800163a8     ida:ida.dll
 0002:000003b0       __imp_qvector_reserve      00000001800163b0     ida:ida.dll
 0002:000003b8       __imp_qvsnprintf           00000001800163b8     ida:ida.dll
 0002:000003c0       __imp_del_segment_translations 00000001800163c0     ida:ida.dll
 0002:000003c8       \177ida_NULL_THUNK_DATA    00000001800163c8     ida:ida.dll
 0002:000003d0       __imp_PyW_GetNumber        00000001800163d0     python:python.dll
 0002:000003d8       __imp_PyW_PyListToEaVec    00000001800163d8     python:python.dll
 0002:000003e0       \177python_NULL_THUNK_DATA 00000001800163e0     python:python.dll
 0002:000003e8       __imp_PyObject_IsInstance  00000001800163e8     python38:python38.dll
 0002:000003f0       __imp_PyType_Type          00000001800163f0     python38:python38.dll
 0002:000003f8       __imp__Py_NoneStruct       00000001800163f8     python38:python38.dll
 0002:00000400       __imp__Py_NotImplementedStruct 0000000180016400     python38:python38.dll
 0002:00000408       __imp_PyBool_Type          0000000180016408     python38:python38.dll
 0002:00000410       __imp_PyExc_AttributeError 0000000180016410     python38:python38.dll
 0002:00000418       __imp_PyExc_IndexError     0000000180016418     python38:python38.dll
 0002:00000420       __imp_PySequence_Check     0000000180016420     python38:python38.dll
 0002:00000428       __imp_PyExc_OverflowError  0000000180016428     python38:python38.dll
 0002:00000430       __imp_PyExc_RuntimeError   0000000180016430     python38:python38.dll
 0002:00000438       __imp_PyExc_SyntaxError    0000000180016438     python38:python38.dll
 0002:00000440       __imp_PyExc_SystemError    0000000180016440     python38:python38.dll
 0002:00000448       __imp_PyExc_TypeError      0000000180016448     python38:python38.dll
 0002:00000450       __imp_PyExc_ValueError     0000000180016450     python38:python38.dll
 0002:00000458       __imp_PyExc_ZeroDivisionError 0000000180016458     python38:python38.dll
 0002:00000460       __imp_PyExc_IOError        0000000180016460     python38:python38.dll
 0002:00000468       __imp_PyObject_CallFunctionObjArgs 0000000180016468     python38:python38.dll
 0002:00000470       __imp_PyObject_Call        0000000180016470     python38:python38.dll
 0002:00000478       __imp_PyExc_MemoryError    0000000180016478     python38:python38.dll
 0002:00000480       __imp_PyImport_AddModule   0000000180016480     python38:python38.dll
 0002:00000488       __imp_PyEval_InitThreads   0000000180016488     python38:python38.dll
 0002:00000490       __imp_PyModule_Create2     0000000180016490     python38:python38.dll
 0002:00000498       __imp_PyModule_AddObject   0000000180016498     python38:python38.dll
 0002:000004a0       __imp_PyArg_UnpackTuple    00000001800164a0     python38:python38.dll
 0002:000004a8       __imp_PyGILState_Release   00000001800164a8     python38:python38.dll
 0002:000004b0       __imp_PyGILState_Ensure    00000001800164b0     python38:python38.dll
 0002:000004b8       __imp_PyErr_WriteUnraisable 00000001800164b8     python38:python38.dll
 0002:000004c0       __imp_PyErr_Format         00000001800164c0     python38:python38.dll
 0002:000004c8       __imp_PyErr_Restore        00000001800164c8     python38:python38.dll
 0002:000004d0       __imp_PyErr_Fetch          00000001800164d0     python38:python38.dll
 0002:000004d8       __imp_PyErr_Clear          00000001800164d8     python38:python38.dll
 0002:000004e0       __imp_PyErr_Occurred       00000001800164e0     python38:python38.dll
 0002:000004e8       __imp_PyErr_SetString      00000001800164e8     python38:python38.dll
 0002:000004f0       __imp_PyCapsule_Import     00000001800164f0     python38:python38.dll
 0002:000004f8       __imp_PyCapsule_GetPointer 00000001800164f8     python38:python38.dll
 0002:00000500       __imp_PyCapsule_New        0000000180016500     python38:python38.dll
 0002:00000508       __imp_PyModule_GetDict     0000000180016508     python38:python38.dll
 0002:00000510       __imp_PyCFunction_GetFlags 0000000180016510     python38:python38.dll
 0002:00000518       __imp_PyCFunction_GetSelf  0000000180016518     python38:python38.dll
 0002:00000520       __imp_PyDict_SetItemString 0000000180016520     python38:python38.dll
 0002:00000528       __imp_PyDict_SetItem       0000000180016528     python38:python38.dll
 0002:00000530       __imp_PyDict_GetItem       0000000180016530     python38:python38.dll
 0002:00000538       __imp_PyDict_New           0000000180016538     python38:python38.dll
 0002:00000540       __imp_PyList_Append        0000000180016540     python38:python38.dll
 0002:00000548       __imp_PyList_SetItem       0000000180016548     python38:python38.dll
 0002:00000550       __imp_PyList_New           0000000180016550     python38:python38.dll
 0002:00000558       __imp_PyTuple_SetItem      0000000180016558     python38:python38.dll
 0002:00000560       __imp_PyTuple_GetItem      0000000180016560     python38:python38.dll
 0002:00000568       __imp_PyTuple_Size         0000000180016568     python38:python38.dll
 0002:00000570       __imp_PyTuple_New          0000000180016570     python38:python38.dll
 0002:00000578       __imp_PyBool_FromLong      0000000180016578     python38:python38.dll
 0002:00000580       __imp_PyLong_AsUnsignedLongLong 0000000180016580     python38:python38.dll
 0002:00000588       __imp_PyLong_FromUnsignedLongLong 0000000180016588     python38:python38.dll
 0002:00000590       __imp_PyLong_FromLongLong  0000000180016590     python38:python38.dll
 0002:00000598       __imp_PyLong_FromVoidPtr   0000000180016598     python38:python38.dll
 0002:000005a0       __imp_PyLong_AsUnsignedLong 00000001800165a0     python38:python38.dll
 0002:000005a8       __imp_PyLong_AsLong        00000001800165a8     python38:python38.dll
 0002:000005b0       __imp_PyLong_FromSize_t    00000001800165b0     python38:python38.dll
 0002:000005b8       __imp_PyLong_FromLong      00000001800165b8     python38:python38.dll
 0002:000005c0       __imp_PyUnicode_CompareWithASCIIString 00000001800165c0     python38:python38.dll
 0002:000005c8       __imp_PyUnicode_Concat     00000001800165c8     python38:python38.dll
 0002:000005d0       __imp_PyUnicode_AsUTF8String 00000001800165d0     python38:python38.dll
 0002:000005d8       __imp_PyUnicode_DecodeUTF8 00000001800165d8     python38:python38.dll
 0002:000005e0       __imp_PyUnicode_FromFormat 00000001800165e0     python38:python38.dll
 0002:000005e8       __imp_PyUnicode_FromString 00000001800165e8     python38:python38.dll
 0002:000005f0       __imp_PyUnicode_FromStringAndSize 00000001800165f0     python38:python38.dll
 0002:000005f8       __imp_PyBytes_AsStringAndSize 00000001800165f8     python38:python38.dll
 0002:00000600       __imp__PyObject_New        0000000180016600     python38:python38.dll
 0002:00000608       __imp_PyObject_Free        0000000180016608     python38:python38.dll
 0002:00000610       __imp_Py_DecRef            0000000180016610     python38:python38.dll
 0002:00000618       __imp__Py_Dealloc          0000000180016618     python38:python38.dll
 0002:00000620       __imp_PyObject_IsTrue      0000000180016620     python38:python38.dll
 0002:00000628       __imp_PyObject_GenericGetAttr 0000000180016628     python38:python38.dll
 0002:00000630       __imp_PyObject_SetAttr     0000000180016630     python38:python38.dll
 0002:00000638       __imp_PyObject_GetAttr     0000000180016638     python38:python38.dll
 0002:00000640       __imp_PyObject_GetAttrString 0000000180016640     python38:python38.dll
 0002:00000648       __imp_PyType_Modified      0000000180016648     python38:python38.dll
 0002:00000650       __imp_PyType_GetFlags      0000000180016650     python38:python38.dll
 0002:00000658       __imp_PyType_GetSlot       0000000180016658     python38:python38.dll
 0002:00000660       __imp_PyType_FromSpec      0000000180016660     python38:python38.dll
 0002:00000668       __imp_PyCFunction_GetFunction 0000000180016668     python38:python38.dll
 0002:00000670       \177python38_NULL_THUNK_DATA 0000000180016670     python38:python38.dll
 0002:00000678       __guard_check_icall_fptr   0000000180016678     MSVCRT:guard_support.obj
 0002:00000680       __guard_dispatch_icall_fptr 0000000180016680     MSVCRT:guard_support.obj
 0002:00000688       __xc_a                     0000000180016688     MSVCRT:initializers.obj
 0002:00000690       __xc_z                     0000000180016690     MSVCRT:initializers.obj
 0002:00000698       __xi_a                     0000000180016698     MSVCRT:initializers.obj
 0002:000006a8       __xi_z                     00000001800166a8     MSVCRT:initializers.obj
 0002:000006b0       __xl_a                     00000001800166b0     MSVCRT:tlssup.obj
 0002:000006b8       __xl_z                     00000001800166b8     MSVCRT:tlssup.obj
 0002:000006c0       __xp_a                     00000001800166c0     MSVCRT:initializers.obj
 0002:000006c8       __xp_z                     00000001800166c8     MSVCRT:initializers.obj
 0002:000006d0       __xt_a                     00000001800166d0     MSVCRT:initializers.obj
 0002:000006d8       __xt_z                     00000001800166d8     MSVCRT:initializers.obj
 0002:000006e0       ??_C@_08KLCPFHEC@add_segm@ 00000001800166e0     segment.obj
 0002:000006f0       ??_C@_08BOPNFMPE@del_segm@ 00000001800166f0     segment.obj
 0002:00000700       ??_C@_0N@FKIFCACH@get_segm_qty@ 0000000180016700     segment.obj
 0002:00000710       ??_C@_0O@DAJEKKHC@get_first_seg@ 0000000180016710     segment.obj
 0002:00000720       ??_C@_0N@HJFCHGOA@get_last_seg@ 0000000180016720     segment.obj
 0002:00000730       ??_C@_0N@BPJNGGBJ@set_segm_end@ 0000000180016730     segment.obj
 0002:00000740       ??_C@_0P@OLPGOMLD@set_segm_start@ 0000000180016740     segment.obj
 0002:00000750       ??_C@_0BA@JCEADLJM@move_segm_start@ 0000000180016750     segment.obj
 0002:00000760       ??_C@_09NKJOECCK@move_segm@ 0000000180016760     segment.obj
 0002:00000770       ??_C@_0BG@FGPJFDLP@change_segment_status@ 0000000180016770     segment.obj
 0002:00000788       ??_C@_0L@KCFDEDII@is_miniidb@ 0000000180016788     segment.obj
 0002:00000798       ??_C@_0O@IPNENDPH@set_segm_base@ 0000000180016798     segment.obj
 0002:000007a8       ??_C@_0BD@HMHPPBHK@set_group_selector@ 00000001800167a8     segment.obj
 0002:000007c0       ??_C@_0BI@PINDMKBE@add_segment_translation@ 00000001800167c0     segment.obj
 0002:000007d8       ??_C@_0BJ@FGBGMPNK@set_segment_translations@ 00000001800167d8     segment.obj
 0002:000007f8       ??_C@_0BJ@PFLMKCEP@get_segment_translations@ 00000001800167f8     segment.obj
 0002:00000818       ??_C@_0BA@NMIBMGGI@get_segment_cmt@ 0000000180016818     segment.obj
 0002:00000828       ??_C@_0BA@OOJHLEHB@set_segment_cmt@ 0000000180016828     segment.obj
 0002:00000838       ??_C@_0BE@ODPAKOII@std_out_segm_footer@ 0000000180016838     segment.obj
 0002:00000850       ??_C@_0O@FMJMLAIM@set_segm_name@ 0000000180016850     segment.obj
 0002:00000860       ??_C@_0O@CDICADPL@get_segm_name@ 0000000180016860     segment.obj
 0002:00000870       ??_C@_0P@PGDDMOJL@set_segm_class@ 0000000180016870     segment.obj
 0002:00000880       ??_C@_0BE@IABIMBGF@set_segm_addressing@ 0000000180016880     segment.obj
 0002:00000898       ??_C@_0BB@DDIOIBML@segm_adjust_diff@ 0000000180016898     segment.obj
 0002:000008b0       ??_C@_0P@PJOJLMCL@segm_adjust_ea@ 00000001800168b0     segment.obj
 0002:000008c0       ??_C@_09FDHJJKIM@get_defsr@ 00000001800168c0     segment.obj
 0002:000008d0       ??_C@_09HNDMLLBO@set_defsr@ 00000001800168d0     segment.obj
 0002:000008e0       ??_C@_0P@PDFCNGNI@rebase_program@ 00000001800168e0     segment.obj
 0002:000008f0       ??_C@_0BN@LILFGKOC@new_segment_t?$CI?$CJ?5?9?$DO?5segment_t@ 00000001800168f0     segment.obj
 0002:00000910       ??_C@_0BP@NJKGPKKD@segment_t_name_set?$CIself?0?5name?$CJ@ 0000000180016910     segment.obj
 0002:00000930       ??_C@_0BD@LJNODJHP@segment_t_name_get@ 0000000180016930     segment.obj
 0002:00000948       ??_C@_0CD@NPLOAGHD@segment_t_name_get?$CIself?$CJ?5?9?$DO?5uva@ 0000000180016948     segment.obj
 0002:00000970       ??_C@_0CD@BDFPHMLM@segment_t_sclass_set?$CIself?0?5scla@ 0000000180016970     segment.obj
 0002:00000998       ??_C@_0BF@DJCMOJKN@segment_t_sclass_get@ 0000000180016998     segment.obj
 0002:000009b0       ??_C@_0CF@CELMKPBE@segment_t_sclass_get?$CIself?$CJ?5?9?$DO?5u@ 00000001800169b0     segment.obj
 0002:000009d8       ??_C@_0CF@DKHMKJBF@segment_t_orgbase_set?$CIself?0?5org@ 00000001800169d8     segment.obj
 0002:00000a00       ??_C@_0BG@PJMJNDBM@segment_t_orgbase_get@ 0000000180016a00     segment.obj
 0002:00000a18       ??_C@_0CG@BKHDPAEP@segment_t_orgbase_get?$CIself?$CJ?5?9?$DO?5@ 0000000180016a18     segment.obj
 0002:00000a40       ??_C@_0CB@DHGGKCIK@segment_t_align_set?$CIself?0?5align@ 0000000180016a40     segment.obj
 0002:00000a68       ??_C@_0BE@HBFLILOM@segment_t_align_get@ 0000000180016a68     segment.obj
 0002:00000a80       ??_C@_0CD@ENMFMJNB@segment_t_align_get?$CIself?$CJ?5?9?$DO?5uc@ 0000000180016a80     segment.obj
 0002:00000aa8       ??_C@_0BP@IPEAIOMJ@segment_t_comb_set?$CIself?0?5comb?$CJ@ 0000000180016aa8     segment.obj
 0002:00000ac8       ??_C@_0BD@EABOPMKC@segment_t_comb_get@ 0000000180016ac8     segment.obj
 0002:00000ae0       ??_C@_0CC@MKMBOLIP@segment_t_comb_get?$CIself?$CJ?5?9?$DO?5uch@ 0000000180016ae0     segment.obj
 0002:00000b08       ??_C@_0BP@ICNJNPDE@segment_t_perm_set?$CIself?0?5perm?$CJ@ 0000000180016b08     segment.obj
 0002:00000b28       ??_C@_0BD@CEFDMACM@segment_t_perm_get@ 0000000180016b28     segment.obj
 0002:00000b40       ??_C@_0CC@DJODHAHK@segment_t_perm_get?$CIself?$CJ?5?9?$DO?5uch@ 0000000180016b40     segment.obj
 0002:00000b68       ??_C@_0CF@INCKOEMC@segment_t_bitness_set?$CIself?0?5bit@ 0000000180016b68     segment.obj
 0002:00000b90       ??_C@_0BG@JBNJLHPO@segment_t_bitness_get@ 0000000180016b90     segment.obj
 0002:00000ba8       ??_C@_0CF@KIKBKBCC@segment_t_bitness_get?$CIself?$CJ?5?9?$DO?5@ 0000000180016ba8     segment.obj
 0002:00000bd0       ??_C@_0BA@LDJNCFD@segment_t_use32@ 0000000180016bd0     segment.obj
 0002:00000be0       ??_C@_0BO@MJJONPEL@segment_t_use32?$CIself?$CJ?5?9?$DO?5bool@ 0000000180016be0     segment.obj
 0002:00000c00       ??_C@_0BA@FLKILHDO@segment_t_use64@ 0000000180016c00     segment.obj
 0002:00000c10       ??_C@_0BO@GOKBFKCD@segment_t_use64?$CIself?$CJ?5?9?$DO?5bool@ 0000000180016c10     segment.obj
 0002:00000c30       ??_C@_0BA@BIJPHGFF@segment_t_abits@ 0000000180016c30     segment.obj
 0002:00000c40       ??_C@_0BN@KHEKNMPG@segment_t_abits?$CIself?$CJ?5?9?$DO?5int@ 0000000180016c40     segment.obj
 0002:00000c60       ??_C@_0BB@GHEAFIHI@segment_t_abytes@ 0000000180016c60     segment.obj
 0002:00000c78       ??_C@_0BO@DJPNDNPD@segment_t_abytes?$CIself?$CJ?5?9?$DO?5int@ 0000000180016c78     segment.obj
 0002:00000c98       ??_C@_0CB@KBGNNNAL@segment_t_flags_set?$CIself?0?5flags@ 0000000180016c98     segment.obj
 0002:00000cc0       ??_C@_0BE@PPCKJKGF@segment_t_flags_get@ 0000000180016cc0     segment.obj
 0002:00000cd8       ??_C@_0CE@IDADCMI@segment_t_flags_get?$CIself?$CJ?5?9?$DO?5us@ 0000000180016cd8     segment.obj
 0002:00000d00       ??_C@_0BB@GJPONJPD@segment_t_comorg@ 0000000180016d00     segment.obj
 0002:00000d18       ??_C@_0BP@EMMEOJLE@segment_t_comorg?$CIself?$CJ?5?9?$DO?5bool@ 0000000180016d18     segment.obj
 0002:00000d38       ??_C@_0BF@MGHEFBIM@segment_t_set_comorg@ 0000000180016d38     segment.obj
 0002:00000d50       ??_C@_0BL@EEKEHPIK@segment_t_set_comorg?$CIself?$CJ@ 0000000180016d50     segment.obj
 0002:00000d70       ??_C@_0BF@OHINMHAH@segment_t_clr_comorg@ 0000000180016d70     segment.obj
 0002:00000d88       ??_C@_0BL@KMHEDMNL@segment_t_clr_comorg?$CIself?$CJ@ 0000000180016d88     segment.obj
 0002:00000da8       ??_C@_0BA@GFLNGEJA@segment_t_ob_ok@ 0000000180016da8     segment.obj
 0002:00000db8       ??_C@_0BO@BBKABMMH@segment_t_ob_ok?$CIself?$CJ?5?9?$DO?5bool@ 0000000180016db8     segment.obj
 0002:00000dd8       ??_C@_0BE@OFCOFHDJ@segment_t_set_ob_ok@ 0000000180016dd8     segment.obj
 0002:00000df0       ??_C@_0BK@BPFIBPJD@segment_t_set_ob_ok?$CIself?$CJ@ 0000000180016df0     segment.obj
 0002:00000e10       ??_C@_0BE@KIEMGJAN@segment_t_clr_ob_ok@ 0000000180016e10     segment.obj
 0002:00000e28       ??_C@_0BK@HHMPHNNE@segment_t_clr_ob_ok?$CIself?$CJ@ 0000000180016e28     segment.obj
 0002:00000e48       ??_C@_0BK@JBAMGMAE@segment_t_is_visible_segm@ 0000000180016e48     segment.obj
 0002:00000e68       ??_C@_0CI@GBJPJCFK@segment_t_is_visible_segm?$CIself?$CJ@ 0000000180016e68     segment.obj
 0002:00000e90       ??_C@_0CK@FJNLKOPI@segment_t_set_visible_segm?$CIself@ 0000000180016e90     segment.obj
 0002:00000ec0       ??_C@_0CK@PPMDPEIB@segment_t_set_debugger_segm?$CIsel@ 0000000180016ec0     segment.obj
 0002:00000ef0       ??_C@_0BJ@JHGAMLBE@segment_t_is_loader_segm@ 0000000180016ef0     segment.obj
 0002:00000f10       ??_C@_0CH@KMKHCNEG@segment_t_is_loader_segm?$CIself?$CJ?5@ 0000000180016f10     segment.obj
 0002:00000f38       ??_C@_0CI@OKBOAIJM@segment_t_set_loader_segm?$CIself?0@ 0000000180016f38     segment.obj
 0002:00000f60       ??_C@_0BM@BLCMHFBB@segment_t_is_hidden_segtype@ 0000000180016f60     segment.obj
 0002:00000f80       ??_C@_0CK@DNGDNKIK@segment_t_is_hidden_segtype?$CIsel@ 0000000180016f80     segment.obj
 0002:00000fb0       ??_C@_0CJ@CMMGCNDO@segment_t_set_hidden_segtype?$CIse@ 0000000180016fb0     segment.obj
 0002:00000fe0       ??_C@_0BJ@HGMJKIOP@segment_t_is_header_segm@ 0000000180016fe0     segment.obj
 0002:00001000       ??_C@_0CH@DKFOAOHC@segment_t_is_header_segm?$CIself?$CJ?5@ 0000000180017000     segment.obj
 0002:00001028       ??_C@_0CE@HAJPHNGM@segment_t_set_header_segm?$CIself?0@ 0000000180017028     segment.obj
 0002:00001050       ??_C@_0BN@LGLFPDGO@segment_t_sel_set?$CIself?0?5sel?$CJ@ 0000000180017050     segment.obj
 0002:00001070       ??_C@_0BC@LJHLJHAI@segment_t_sel_get@ 0000000180017070     segment.obj
 0002:00001088       ??_C@_0CB@MMEFLPEG@segment_t_sel_get?$CIself?$CJ?5?9?$DO?5sel_@ 0000000180017088     segment.obj
 0002:000010b0       ??_C@_0CB@COLHDMFA@segment_t_defsr_set?$CIself?0?5defsr@ 00000001800170b0     segment.obj
 0002:000010d8       ??_C@_0BE@FHEJOGC@segment_t_defsr_get@ 00000001800170d8     segment.obj
 0002:000010f0       ??_C@_0CI@OKPMJLPH@segment_t_defsr_get?$CIself?$CJ?5?9?$DO?5se@ 00000001800170f0     segment.obj
 0002:00001118       ??_C@_0BP@FKKOEEBK@segment_t_type_set?$CIself?0?5type?$CJ@ 0000000180017118     segment.obj
 0002:00001138       ??_C@_0BD@CJGHCGAA@segment_t_type_get@ 0000000180017138     segment.obj
 0002:00001150       ??_C@_0CC@FKNAEKCK@segment_t_type_get?$CIself?$CJ?5?9?$DO?5uch@ 0000000180017150     segment.obj
 0002:00001178       ??_C@_0CB@JJIDINF@segment_t_color_set?$CIself?0?5color@ 0000000180017178     segment.obj
 0002:000011a0       ??_C@_0BE@EDDIOFPH@segment_t_color_get@ 00000001800171a0     segment.obj
 0002:000011b8       ??_C@_0CH@PFBCOJGJ@segment_t_color_get?$CIself?$CJ?5?9?$DO?5bg@ 00000001800171b8     segment.obj
 0002:000011e0       ??_C@_0BB@EEAEMLDL@segment_t_update@ 00000001800171e0     segment.obj
 0002:000011f8       ??_C@_0BP@IKLODIKF@segment_t_update?$CIself?$CJ?5?9?$DO?5bool@ 00000001800171f8     segment.obj
 0002:00001218       ??_C@_0CH@HEDAOIIA@segment_t_start_ea_set?$CIself?0?5st@ 0000000180017218     segment.obj
 0002:00001240       ??_C@_0BH@BHCDMHF@segment_t_start_ea_get@ 0000000180017240     segment.obj
 0002:00001258       ??_C@_0CF@PPJGICEM@segment_t_start_ea_get?$CIself?$CJ?5?9?$DO@ 0000000180017258     segment.obj
 0002:00001280       ??_C@_0CD@CEJOHPKO@segment_t_end_ea_set?$CIself?0?5end_@ 0000000180017280     segment.obj
 0002:000012a8       ??_C@_0BF@OLBOIFKG@segment_t_end_ea_get@ 00000001800172a8     segment.obj
 0002:000012c0       ??_C@_0CD@OPMLJLJC@segment_t_end_ea_get?$CIself?$CJ?5?9?$DO?5e@ 00000001800172c0     segment.obj
 0002:000012e8       ??_C@_0BB@NGLKMMDP@delete_segment_t@ 00000001800172e8     segment.obj
 0002:00001300       ??_C@_0BH@HLNIMHLF@delete_segment_t?$CIself?$CJ@ 0000000180017300     segment.obj
 0002:00001318       ??_C@_0BH@BLEHNOF@segment_t_swigregister@ 0000000180017318     segment.obj
 0002:00001330       ??_C@_0BD@LNHBNKCF@segment_t_swiginit@ 0000000180017330     segment.obj
 0002:00001348       ??_C@_0BA@IKNOIGBC@is_visible_segm@ 0000000180017348     segment.obj
 0002:00001358       ??_C@_0BL@NMAMPDMI@is_visible_segm?$CIs?$CJ?5?9?$DO?5bool@ 0000000180017358     segment.obj
 0002:00001378       ??_C@_0BI@MPHCJMGM@is_finally_visible_segm@ 0000000180017378     segment.obj
 0002:00001390       ??_C@_0CD@CDDJCGGN@is_finally_visible_segm?$CIs?$CJ?5?9?$DO?5b@ 0000000180017390     segment.obj
 0002:000013b8       ??_C@_0BN@EDIACPLF@set_visible_segm?$CIs?0?5visible?$CJ@ 00000001800173b8     segment.obj
 0002:000013d8       ??_C@_0N@NMGOPJIH@is_spec_segm@ 00000001800173d8     segment.obj
 0002:000013e8       ??_C@_0BP@JEOPPMPD@is_spec_segm?$CIseg_type?$CJ?5?9?$DO?5bool@ 00000001800173e8     segment.obj
 0002:00001408       ??_C@_0L@OGPMMPGH@is_spec_ea@ 0000000180017408     segment.obj
 0002:00001418       ??_C@_0BH@EDFPGOPG@is_spec_ea?$CIea?$CJ?5?9?$DO?5bool@ 0000000180017418     segment.obj
 0002:00001430       ??_C@_0BG@EDCKODMF@lock_segm?$CIsegm?0?5lock?$CJ@ 0000000180017430     segment.obj
 0002:00001448       ??_C@_0BB@KCLOGOJF@new_lock_segment@ 0000000180017448     segment.obj
 0002:00001460       ??_C@_0CI@BOHPMOKL@new_lock_segment?$CI_segm?$CJ?5?9?$DO?5lock@ 0000000180017460     segment.obj
 0002:00001488       ??_C@_0BE@LKHICMPG@delete_lock_segment@ 0000000180017488     segment.obj
 0002:000014a0       ??_C@_0BK@PIGCFLNP@delete_lock_segment?$CIself?$CJ@ 00000001800174a0     segment.obj
 0002:000014c0       ??_C@_0BK@KDMFPDOM@lock_segment_swigregister@ 00000001800174c0     segment.obj
 0002:000014e0       ??_C@_0BG@JJMBELNF@lock_segment_swiginit@ 00000001800174e0     segment.obj
 0002:000014f8       ??_C@_0P@MFOGKEJ@is_segm_locked@ 00000001800174f8     segment.obj
 0002:00001508       ??_C@_0BN@KHEJJBKH@is_segm_locked?$CIsegm?$CJ?5?9?$DO?5bool@ 0000000180017508     segment.obj
 0002:00001528       ??_C@_0O@JIDOFEGE@getn_selector@ 0000000180017528     segment.obj
 0002:00001538       ??_C@_0BJ@PALFAKHN@getn_selector?$CIn?$CJ?5?9?$DO?5bool@ 0000000180017538     segment.obj
 0002:00001558       ??_C@_0BK@JNEKLHEO@get_selector_qty?$CI?$CJ?5?9?$DO?5int@ 0000000180017558     segment.obj
 0002:00001578       ??_C@_0P@GGKNIGMB@setup_selector@ 0000000180017578     segment.obj
 0002:00001588       ??_C@_0CB@NIDCNBKG@setup_selector?$CIsegbase?$CJ?5?9?$DO?5sel_@ 0000000180017588     segment.obj
 0002:000015b0       ??_C@_0BC@LCBLBJPI@allocate_selector@ 00000001800175b0     segment.obj
 0002:000015c8       ??_C@_0CE@IMJNPMDK@allocate_selector?$CIsegbase?$CJ?5?9?$DO?5s@ 00000001800175c8     segment.obj
 0002:000015f0       ??_C@_0BO@IBNEGEAF@find_free_selector?$CI?$CJ?5?9?$DO?5sel_t@ 00000001800175f0     segment.obj
 0002:00001610       ??_C@_0CJ@FGMLKLKM@set_selector?$CIselector?0?5paragrap@ 0000000180017610     segment.obj
 0002:00001640       ??_C@_0N@LNKGIPBP@del_selector@ 0000000180017640     segment.obj
 0002:00001650       ??_C@_0BH@NJJCGILP@del_selector?$CIselector?$CJ@ 0000000180017650     segment.obj
 0002:00001668       ??_C@_08BMKMKMNI@sel2para@ 0000000180017668     segment.obj
 0002:00001678       ??_C@_0BL@IBLGKFMK@sel2para?$CIselector?$CJ?5?9?$DO?5ea_t@ 0000000180017678     segment.obj
 0002:00001694       ??_C@_06NDDAINJF@sel2ea@   0000000180017694     segment.obj
 0002:000016a0       ??_C@_0BJ@KMJJKLAB@sel2ea?$CIselector?$CJ?5?9?$DO?5ea_t@ 00000001800176a0     segment.obj
 0002:000016c0       ??_C@_0O@JLALFBPA@find_selector@ 00000001800176c0     segment.obj
 0002:000016d0       ??_C@_0BN@DPDNFJDD@find_selector?$CIbase?$CJ?5?9?$DO?5sel_t@ 00000001800176d0     segment.obj
 0002:000016f0       ??_C@_0BA@GPKDGOAJ@get_segm_by_sel@ 00000001800176f0     segment.obj
 0002:00001700       ??_C@_0CH@EMGOMDHO@get_segm_by_sel?$CIselector?$CJ?5?9?$DO?5se@ 0000000180017700     segment.obj
 0002:00001728       ??_C@_0CM@KCHKICLJ@add_segm_ex?$CIs?0?5name?0?5sclass?0?5fl@ 0000000180017728     segment.obj
 0002:00001758       ??_C@_0DK@IOBNINIC@add_segm?$CIpara?0?5start?0?5end?0?5name@ 0000000180017758     segment.obj
 0002:00001798       ??_C@_0BM@HHLCNBGA@del_segm?$CIea?0?5flags?$CJ?5?9?$DO?5bool@ 0000000180017798     segment.obj
 0002:000017b8       ??_C@_0BG@PNJMIFKG@get_segm_qty?$CI?$CJ?5?9?$DO?5int@ 00000001800177b8     segment.obj
 0002:000017d0       ??_C@_06GFMDHBNF@getseg@   00000001800177d0     segment.obj
 0002:000017d8       ??_C@_0BI@IDCEJDNP@getseg?$CIea?$CJ?5?9?$DO?5segment_t@ 00000001800177d8     segment.obj
 0002:000017f0       ??_C@_07DCOGJHFE@getnseg@  00000001800177f0     segment.obj
 0002:000017f8       ??_C@_0BI@PNKAEKLF@getnseg?$CIn?$CJ?5?9?$DO?5segment_t@ 00000001800177f8     segment.obj
 0002:00001810       ??_C@_0N@HNJDNKIM@get_segm_num@ 0000000180017810     segment.obj
 0002:00001820       ??_C@_0BI@DJNFBPCK@get_segm_num?$CIea?$CJ?5?9?$DO?5int@ 0000000180017820     segment.obj
 0002:00001838       ??_C@_0N@NBOJAEGG@get_next_seg@ 0000000180017838     segment.obj
 0002:00001848       ??_C@_0BO@CIDMKBPO@get_next_seg?$CIea?$CJ?5?9?$DO?5segment_t@ 0000000180017848     segment.obj
 0002:00001868       ??_C@_0N@IIFEPJLC@get_prev_seg@ 0000000180017868     segment.obj
 0002:00001878       ??_C@_0BO@NGANLKFP@get_prev_seg?$CIea?$CJ?5?9?$DO?5segment_t@ 0000000180017878     segment.obj
 0002:00001898       ??_C@_0BN@KHDOMGBI@get_first_seg?$CI?$CJ?5?9?$DO?5segment_t@ 0000000180017898     segment.obj
 0002:000018b8       ??_C@_0BM@JLBIELCP@get_last_seg?$CI?$CJ?5?9?$DO?5segment_t@ 00000001800178b8     segment.obj
 0002:000018d8       ??_C@_0BB@HHOJCKHL@get_segm_by_name@ 00000001800178d8     segment.obj
 0002:000018f0       ??_C@_0CE@HEKDBPDE@get_segm_by_name?$CIname?$CJ?5?9?$DO?5segme@ 00000001800178f0     segment.obj
 0002:00001918       ??_C@_0CI@BDGFMFDN@set_segm_end?$CIea?0?5newend?0?5flags?$CJ@ 0000000180017918     segment.obj
 0002:00001940       ??_C@_0CM@INBJGAGG@set_segm_start?$CIea?0?5newstart?0?5fl@ 0000000180017940     segment.obj
 0002:00001970       ??_C@_0CM@HHHPFGCB@move_segm_start?$CIea?0?5newstart?0?5m@ 0000000180017970     segment.obj
 0002:000019a0       ??_C@_0CB@DGDLPDPL@move_segm?$CIs?0?5to?0?5flags?$DN0?$CJ?5?9?$DO?5in@ 00000001800179a0     segment.obj
 0002:000019c8       ??_C@_0CN@OGAOINOI@change_segment_status?$CIs?0?5is_deb@ 00000001800179c8     segment.obj
 0002:000019f8       ??_C@_0BF@LEPAPAMI@take_memory_snapshot@ 00000001800179f8     segment.obj
 0002:00001a10       ??_C@_0CP@CANJNJOP@take_memory_snapshot?$CIonly_loade@ 0000000180017a10     segment.obj
 0002:00001a40       ??_C@_0BF@IDEBEDAO@is_miniidb?$CI?$CJ?5?9?$DO?5bool@ 0000000180017a40     segment.obj
 0002:00001a58       ??_C@_0CC@KAIIFDNG@set_segm_base?$CIs?0?5newbase?$CJ?5?9?$DO?5bo@ 0000000180017a58     segment.obj
 0002:00001a80       ??_C@_0CE@IKHHBOFK@set_group_selector?$CIgrp?0?5sel?$CJ?5?9?$DO@ 0000000180017a80     segment.obj
 0002:00001aa8       ??_C@_0BD@IGFFMHJC@get_group_selector@ 0000000180017aa8     segment.obj
 0002:00001ac0       ??_C@_0CE@MAKLMFAC@get_group_selector?$CIgrpsel?$CJ?5?9?$DO?5s@ 0000000180017ac0     segment.obj
 0002:00001ae8       ??_C@_0DF@PCJACLIB@add_segment_translation?$CIsegstar@ 0000000180017ae8     segment.obj
 0002:00001b20       ??_C@_0DF@HBCLJLKG@set_segment_translations?$CIsegsta@ 0000000180017b20     segment.obj
 0002:00001b58       ??_C@_0BJ@MBJKNBHG@del_segment_translations@ 0000000180017b58     segment.obj
 0002:00001b78       ??_C@_0CD@POBDENAP@del_segment_translations?$CIsegsta@ 0000000180017b78     segment.obj
 0002:00001ba0       ??_C@_0DI@LJPJLAMC@get_segment_translations?$CItransm@ 0000000180017ba0     segment.obj
 0002:00001bd8       ??_C@_0CK@HHHNBHFK@get_segment_cmt?$CIs?0?5repeatable?$CJ?5@ 0000000180017bd8     segment.obj
 0002:00001c08       ??_C@_0CE@NCIJAAON@set_segment_cmt?$CIs?0?5cmt?0?5repeata@ 0000000180017c08     segment.obj
 0002:00001c30       ??_C@_0BO@HEAHPIOI@std_out_segm_footer?$CIctx?0?5seg?$CJ@ 0000000180017c30     segment.obj
 0002:00001c50       ??_C@_0CH@JHJGDHO@set_segm_name?$CIs?0?5name?0?5flags?$DN0?$CJ@ 0000000180017c50     segment.obj
 0002:00001c78       ??_C@_0CF@EHNAPPEJ@get_segm_name?$CIs?0?5flags?$DN0?$CJ?5?9?$DO?5ss@ 0000000180017c78     segment.obj
 0002:00001ca0       ??_C@_0BG@IMMGDBHG@get_visible_segm_name@ 0000000180017ca0     segment.obj
 0002:00001cb8       ??_C@_0CE@NPGDCBM@get_visible_segm_name?$CIs?$CJ?5?9?$DO?5ssi@ 0000000180017cb8     segment.obj
 0002:00001ce0       ??_C@_0P@DICNDELH@get_segm_class@ 0000000180017ce0     segment.obj
 0002:00001cf0       ??_C@_0BN@JJEJNCIN@get_segm_class?$CIs?$CJ?5?9?$DO?5ssize_t@ 0000000180017cf0     segment.obj
 0002:00001d10       ??_C@_0CK@FNLADCCI@set_segm_class?$CIs?0?5sclass?0?5flags@ 0000000180017d10     segment.obj
 0002:00001d40       ??_C@_07CCGDLEOO@segtype@  0000000180017d40     segment.obj
 0002:00001d48       ??_C@_0BF@EOCEMGLH@segtype?$CIea?$CJ?5?9?$DO?5uchar@ 0000000180017d48     segment.obj
 0002:00001d60       ??_C@_0BG@LPBLJPJG@get_segment_alignment@ 0000000180017d60     segment.obj
 0002:00001d78       ??_C@_0CN@MDMKAMBO@get_segment_alignment?$CIalign?$CJ?5?9?$DO@ 0000000180017d78     segment.obj
 0002:00001da8       ??_C@_0BI@OBGEJKDO@get_segment_combination@ 0000000180017da8     segment.obj
 0002:00001dc0       ??_C@_0CO@NMLHKODD@get_segment_combination?$CIcomb?$CJ?5?9@ 0000000180017dc0     segment.obj
 0002:00001df0       ??_C@_0O@IPEEALFB@get_segm_para@ 0000000180017df0     segment.obj
 0002:00001e00       ??_C@_0BJ@GDIJBOLJ@get_segm_para?$CIs?$CJ?5?9?$DO?5ea_t@ 0000000180017e00     segment.obj
 0002:00001e20       ??_C@_0O@PAMKGAIA@get_segm_base@ 0000000180017e20     segment.obj
 0002:00001e30       ??_C@_0BJ@FPLIIOKE@get_segm_base?$CIs?$CJ?5?9?$DO?5ea_t@ 0000000180017e30     segment.obj
 0002:00001e50       ??_C@_0CI@MHFCALEF@set_segm_addressing?$CIs?0?5bitness?$CJ@ 0000000180017e50     segment.obj
 0002:00001e78       ??_C@_0M@HGPILPAB@update_segm@ 0000000180017e78     segment.obj
 0002:00001e88       ??_C@_0BH@CGNBACNM@update_segm?$CIs?$CJ?5?9?$DO?5bool@ 0000000180017e88     segment.obj
 0002:00001ea0       ??_C@_0CG@BJAJKKCK@segm_adjust_diff?$CIs?0?5delta?$CJ?5?9?$DO?5a@ 0000000180017ea0     segment.obj
 0002:00001ec8       ??_C@_0BO@PAMBJMBL@segm_adjust_ea?$CIs?0?5ea?$CJ?5?9?$DO?5ea_t@ 0000000180017ec8     segment.obj
 0002:00001ee8       ??_C@_0BL@FEKANCIL@get_defsr?$CIs?0?5reg?$CJ?5?9?$DO?5sel_t@ 0000000180017ee8     segment.obj
 0002:00001f08       ??_C@_0BJ@MPFLHJHN@set_defsr?$CIs?0?5reg?0?5value?$CJ@ 0000000180017f08     segment.obj
 0002:00001f28       ??_C@_0CE@KLEMHFN@rebase_program?$CIdelta?0?5flags?$CJ?5?9?$DO@ 0000000180017f28     segment.obj
 0002:00001f50       ??_C@_0BE@LADBKDLC@_p__qstringT_char_t@ 0000000180017f50     segment.obj
 0002:00001f68       ??_C@_0BN@OHJFNODI@_qstring?$DM?5char?5?$DO?5?$CK?$HMqstring?5?$CK@ 0000000180017f68     segment.obj
 0002:00001f88       ??_C@_0BN@OGMFMNEO@_p__qstringT_unsigned_char_t@ 0000000180017f88     segment.obj
 0002:00001fa8       ??_C@_0CE@FCOOCMMP@qtype?5?$CK?$HM_qstring?$DM?5unsigned?5char@ 0000000180017fa8     segment.obj
 0002:00001fd0       ??_C@_0BO@NPELMEMN@_p__qstringT_unsigned_short_t@ 0000000180017fd0     segment.obj
 0002:00001ff0       ??_C@_0CI@MOGIECDE@_qstring?$DM?5unsigned?5short?5?$DO?5?$CK?$HMqw@ 0000000180017ff0     segment.obj
 0002:00002018       ??_C@_0BF@FIODJLOI@_p_action_ctx_base_t@ 0000000180018018     segment.obj
 0002:00002030       ??_C@_0EE@ODNBPOJC@action_ctx_base_t?5?$CK?$HMaction_upda@ 0000000180018030     segment.obj
 0002:00002078       ??_C@_0N@IODFCNBG@_p_biggest_t@ 0000000180018078     segment.obj
 0002:00002088       ??_C@_0M@LMODFOHJ@biggest_t?5?$CK@ 0000000180018088     segment.obj
 0002:00002098       ??_C@_0O@HOPHBKAL@char?5?$CK?$HMint8?5?$CK@ 0000000180018098     segment.obj
 0002:000020a8       ??_C@_0BC@KJKOCNNG@_p_const_iterator@ 00000001800180a8     segment.obj
 0002:000020c0       ??_C@_0BB@LAJPCFIO@const_iterator?5?$CK@ 00000001800180c0     segment.obj
 0002:000020d8       ??_C@_0CE@DHGPAIMI@_p_f_p_TWidget_int_int_p_void__@ 00000001800180d8     segment.obj
 0002:00002100       ??_C@_0DN@DFPOHMBA@custom_viewer_keydown_t?5?$CK?$HMbool?5@ 0000000180018100     segment.obj
 0002:00002140       ??_C@_0DF@PENMGFJK@_p_f_p_TWidget_int_p_view_mouse@ 0000000180018140     segment.obj
 0002:00002180       ??_C@_0FC@NPHKCCPL@void?5?$CI?$CK?$CJ?$CITWidget?5?$CK?0int?0view_mou@ 0000000180018180     segment.obj
 0002:000021d8       ??_C@_0CA@IGCEDJID@_p_f_p_TWidget_int_p_void__bool@ 00000001800181d8     segment.obj
 0002:00002200       ??_C@_0FC@PJNOFHGN@custom_viewer_click_t?5?$CK?$HMcustom_@ 0000000180018200     segment.obj
 0002:00002258       ??_C@_0CO@MIHLPJDD@_p_f_p_TWidget_p_lochist_entry_@ 0000000180018258     segment.obj
 0002:00002290       ??_C@_0EM@HBPJNBB@custom_viewer_adjust_place_t?5?$CK?$HM@ 0000000180018290     segment.obj
 0002:000022e0       ??_C@_0GM@LBGPKCPI@_p_f_p_TWidget_p_q_const__lochi@ 00000001800182e0     segment.obj
 0002:00002350       ??_C@_0IF@FKBGALIG@void?5?$CI?$CK?$CJ?$CITWidget?5?$CK?0lochist_entr@ 0000000180018350     segment.obj
 0002:000023e0       ??_C@_0FA@DFBJAGBE@_p_f_p_TWidget_p_q_const__lochi@ 00000001800183e0     segment.obj
 0002:00002430       ??_C@_0GI@FMPBFLEM@custom_viewer_can_navigate_t?5?$CK?$HM@ 0000000180018430     segment.obj
 0002:00002498       ??_C@_0DH@JJEDBLDE@_p_f_p_TWidget_p_q_const__place@ 0000000180018498     segment.obj
 0002:000024d0       ??_C@_0EP@PJDAMEBK@code_viewer_lines_click_t?5?$CK?$HMvoi@ 00000001800184d0     segment.obj
 0002:00002520       ??_C@_0DE@PBNPHPNC@_p_f_p_TWidget_p_q_const__place@ 0000000180018520     segment.obj
 0002:00002560       ??_C@_0EL@JKPIBDKO@code_viewer_lines_icon_t?5?$CK?$HMint?5@ 0000000180018560     segment.obj
 0002:000025b0       ??_C@_0EB@FDCGDBJI@_p_f_p_TWidget_p_q_const__place@ 00000001800185b0     segment.obj
 0002:00002600       ??_C@_0FN@GGLCMJJK@custom_viewer_get_place_xcoord_@ 0000000180018600     segment.obj
 0002:00002660       ??_C@_0DO@KLDLOPHE@_p_f_p_TWidget_p_q_const__place@ 0000000180018660     segment.obj
 0002:000026a0       ??_C@_0FI@GOMHMLF@code_viewer_lines_linenum_t?5?$CK?$HMb@ 00000001800186a0     segment.obj
 0002:000026f8       ??_C@_0BL@BMEJNHDD@_p_f_p_TWidget_p_void__int@ 00000001800186f8     segment.obj
 0002:00002718       ??_C@_0DB@GMPMLKDG@custom_viewer_help_t?5?$CK?$HMint?5?$CI?$CK?$CJ?$CI@ 0000000180018718     segment.obj
 0002:00002750       ??_C@_0BM@PAKPNBHH@_p_f_p_TWidget_p_void__void@ 0000000180018750     segment.obj
 0002:00002770       ??_C@_0GE@BLLNJKNN@custom_viewer_popup_t?5?$CK?$HMcustom_@ 0000000180018770     segment.obj
 0002:000027d8       ??_C@_0DM@PKHFKJJF@_p_f_p_chooser_multi_t_p_sizeve@ 00000001800187d8     segment.obj
 0002:00002820       ??_C@_0FA@INGPHNGB@chooser_base_t?3?3cbres_t?5?$CI?$CK?$CJ?$CIcho@ 0000000180018820     segment.obj
 0002:00002870       ??_C@_0CN@LJCPBILN@_p_f_p_chooser_t_ssize_t__choos@ 0000000180018870     segment.obj
 0002:000028a0       ??_C@_0DL@IKAMODJA@chooser_t?3?3cbret_t?5?$CI?$CK?$CJ?$CIchooser_@ 00000001800188a0     segment.obj
 0002:000028e0       ??_C@_0EC@GIKOMIMG@_p_f_p_lochist_entry_t_r_q_cons@ 00000001800188e0     segment.obj
 0002:00002930       ??_C@_0FE@OJIOMBOE@bool?5?$CI?$CK?$CJ?$CIlochist_entry_t?5?$CK?0loch@ 0000000180018930     segment.obj
 0002:00002988       ??_C@_0CC@HPECDOJE@_p_f_p_q_const__char_p_void__vo@ 0000000180018988     segment.obj
 0002:000029b0       ??_C@_0DA@LKJNDOAC@void?5?$CI?$CK?$CJ?$CIchar?5const?5?$CK?0void?5?$CK?$CJ?$HMs@ 00000001800189b0     segment.obj
 0002:000029e0       ??_C@_0GC@HKCHLFJ@_p_f_p_q_const__char_r_q_const_@ 00000001800189e0     segment.obj
 0002:00002a50       ??_C@_0GE@CDAMLIPA@h2ti_type_cb?5?$CK?$HMint?5?$CI?$CK?$CJ?$CIchar?5con@ 0000000180018a50     segment.obj
 0002:00002ab8       ??_C@_0CB@PLKCNJF@_p_f_p_q_const__char_v_______in@ 0000000180018ab8     segment.obj
 0002:00002ae0       ??_C@_0CG@EHKOJEHN@int?5?$CI?$CK?$CJ?$CIchar?5const?5?$CK?0?4?4?4?$CJ?$HMprint@ 0000000180018ae0     segment.obj
 0002:00002b08       ??_C@_0CB@PPFKEDBB@_p_f_p_void_int_va_list__ssize_@ 0000000180018b08     segment.obj
 0002:00002b30       ??_C@_0CM@ODIKDJIA@ssize_t?5?$CI?$CK?$CJ?$CIvoid?5?$CK?0int?0va_list?$CJ@ 0000000180018b30     segment.obj
 0002:00002b60       ??_C@_0CJ@KNMLBMOG@_p_f_r_q_const__insn_t_p_int_p_@ 0000000180018b60     segment.obj
 0002:00002b90       ??_C@_0DI@CGFAFNOI@bool?5?$CI?$CK?$CJ?$CIinsn_t?5const?5?$CG?0int?5?$CK?0i@ 0000000180018b90     segment.obj
 0002:00002bd0       ??_C@_0FA@JJBGCIIH@_p_f_r_q_const__insn_t_r_q_cons@ 0000000180018bd0     segment.obj
 0002:00002c20       ??_C@_0FE@IBKJNBMI@bool?5?$CI?$CK?$CJ?$CIinsn_t?5const?5?$CG?0op_t?5co@ 0000000180018c20     segment.obj
 0002:00002c78       ??_C@_0BI@PGCOIKGG@_p_f_unsigned_int__bool@ 0000000180018c78     segment.obj
 0002:00002c90       ??_C@_0DN@OGOBIPP@bool?5?$CI?$CK?$CJ?$CIunsigned?5int?$CJ?$HMhas_dela@ 0000000180018c90     segment.obj
 0002:00002cd0       ??_C@_0DL@FFEHDPON@_p_f_unsigned_int_p_q_const__ch@ 0000000180018cd0     segment.obj
 0002:00002d10       ??_C@_0EK@MACPDLHN@int?5?$CI?$CK?$CJ?$CIunsigned?5int?0char?5const@ 0000000180018d10     segment.obj
 0002:00002d60       ??_C@_0BP@HNIFGGKH@_p_f_unsigned_int_p_void__bool@ 0000000180018d60     segment.obj
 0002:00002d80       ??_C@_0CI@PMEGIBIK@testf_t?5?$CK?$HMbool?5?$CI?$CK?$CJ?$CIunsigned?5int@ 0000000180018d80     segment.obj
 0002:00002da8       ??_C@_0DB@CEAPILAH@_p_f_unsigned_int_r_q_const__ti@ 0000000180018da8     segment.obj
 0002:00002de0       ??_C@_0EH@MLDNCCKC@local_tinfo_predicate_t?5?$CK?$HMint?5?$CI@ 0000000180018de0     segment.obj
 0002:00002e28       ??_C@_0CN@BPIIPJKN@_p_f_unsigned_int_unsigned_int_@ 0000000180018e28     segment.obj
 0002:00002e58       ??_C@_0DO@CKIBBIPB@unsigned?5int?5?$CI?$CK?$CJ?$CIunsigned?5int?0u@ 0000000180018e58     segment.obj
 0002:00002e98       ??_C@_06EJFLAOFF@_p_int@   0000000180018e98     segment.obj
 0002:00002ea0       ??_C@_0IG@FDKJDHEK@adiff_t?5?$CK?$HMint?5?$CK?$HMint32?5?$CK?$HMsval_t?5@ 0000000180018ea0     segment.obj
 0002:00002f28       ??_C@_0M@CFMLOKJJ@_p_iterator@ 0000000180018f28     segment.obj
 0002:00002f38       ??_C@_0L@IIMCJLIP@iterator?5?$CK@ 0000000180018f38     segment.obj
 0002:00002f48       ??_C@_0O@HDLJBJJF@_p_location_t@ 0000000180018f48     segment.obj
 0002:00002f58       ??_C@_0N@ONMECIKA@location_t?5?$CK@ 0000000180018f58     segment.obj
 0002:00002f68       ??_C@_0BA@CLIBILDA@_p_lock_segment@ 0000000180018f68     segment.obj
 0002:00002f78       ??_C@_0P@CJEOIIF@lock_segment?5?$CK@ 0000000180018f78     segment.obj
 0002:00002f88       ??_C@_0N@HIKGEFDH@_p_long_long@ 0000000180018f88     segment.obj
 0002:00002f98       ??_C@_0BP@FECEFBLL@int64?5?$CK?$HMlonglong?5?$CK?$HMlong?5long?5?$CK@ 0000000180018f98     segment.obj
 0002:00002fb8       ??_C@_0M@DLPDAJF@_p_outctx_t@ 0000000180018fb8     segment.obj
 0002:00002fc8       ??_C@_0L@ECHBMJDN@outctx_t?5?$CK@ 0000000180018fc8     segment.obj
 0002:00002fd8       ??_C@_0CJ@KBPLCHCN@_p_qvectorT__qstringT_unsigned_@ 0000000180018fd8     segment.obj
 0002:00003008       ??_C@_0DF@GOALPBDM@qvector?$DM?5_qstring?$DM?5unsigned?5sho@ 0000000180019008     segment.obj
 0002:00003040       ??_C@_0BH@EHIHPDFP@_p_qvectorT_argloc_t_t@ 0000000180019040     segment.obj
 0002:00003058       ??_C@_0CC@PMMGEEHP@qvector?$DM?5argloc_t?5?$DO?5?$CK?$HMarglocs_t@ 0000000180019058     segment.obj
 0002:00003080       ??_C@_0BD@IFPOLGLB@_p_qvectorT_bool_t@ 0000000180019080     segment.obj
 0002:00003098       ??_C@_0BO@JEOEHDBE@boolvec_t?5?$CK?$HMqvector?$DM?5bool?5?$DO?5?$CK@ 0000000180019098     segment.obj
 0002:000030b8       ??_C@_0BO@BMBALGLA@_p_qvectorT_channel_redir_t_t@ 00000001800190b8     segment.obj
 0002:000030d8       ??_C@_0DA@DFOFPPPA@qvector?$DM?5channel_redir_t?5?$DO?5?$CK?$HMch@ 00000001800190d8     segment.obj
 0002:00003108       ??_C@_0CA@KLOIFAIM@_p_qvectorT_compiled_binpat_t_t@ 0000000180019108     segment.obj
 0002:00003128       ??_C@_0DH@JJMOBCIB@compiled_binpat_vec_t?5?$CK?$HMqvector@ 0000000180019128     segment.obj
 0002:00003160       ??_C@_0BI@HPPPANA@_p_qvectorT_funcarg_t_t@ 0000000180019160     segment.obj
 0002:00003178       ??_C@_0CG@BKJABKPP@funcargvec_t?5?$CK?$HMqvector?$DM?5funcarg@ 0000000180019178     segment.obj
 0002:000031a0       ??_C@_0BC@EMAMHDDK@_p_qvectorT_int_t@ 00000001800191a0     segment.obj
 0002:000031b8       ??_C@_0CI@OEOLBAGE@svalvec_t?5?$CK?$HMintvec_t?5?$CK?$HMqvector?$DM@ 00000001800191b8     segment.obj
 0002:000031e0       ??_C@_0BG@NGNJJEPD@_p_qvectorT_range_t_t@ 00000001800191e0     segment.obj
 0002:000031f8       ??_C@_0CH@CMPFLCHN@rangevec_base_t?5?$CK?$HMqvector?$DM?5rang@ 00000001800191f8     segment.obj
 0002:00003220       ??_C@_0O@CNCDMPHD@_p_rangevec_t@ 0000000180019220     segment.obj
 0002:00003230       ??_C@_0CB@DLEFICAI@_p_qvectorT_rangeset_t_const_p_@ 0000000180019230     segment.obj
 0002:00003258       ??_C@_0DF@CPGECBJE@rangeset_crefvec_t?5?$CK?$HMqvector?$DM?5r@ 0000000180019258     segment.obj
 0002:00003290       ??_C@_0BJ@CBEEABAG@_p_qvectorT_rangeset_t_t@ 0000000180019290     segment.obj
 0002:000032b0       ??_C@_0CN@NEPIOIFG@qvector?$DM?5rangeset_t?5?$DO?5?$CK?$HMarray_o@ 00000001800192b0     segment.obj
 0002:000032e0       ??_C@_0BN@HCIAELAH@_p_qvectorT_refinfo_desc_t_t@ 00000001800192e0     segment.obj
 0002:00003300       ??_C@_0DB@OEPGJFJL@refinfo_desc_vec_t?5?$CK?$HMqvector?$DM?5r@ 0000000180019300     segment.obj
 0002:00003338       ??_C@_0BK@JBDFAIAF@_p_qvectorT_simd_info_t_t@ 0000000180019338     segment.obj
 0002:00003358       ??_C@_0CL@IAEHADMA@simd_info_vec_t?5?$CK?$HMqvector?$DM?5simd@ 0000000180019358     segment.obj
 0002:00003388       ??_C@_0BL@JOHIOMBL@_p_qvectorT_simpleline_t_t@ 0000000180019388     segment.obj
 0002:000033a8       ??_C@_0CF@LMLHENLN@strvec_t?5?$CK?$HMqvector?$DM?5simpleline_@ 00000001800193a8     segment.obj
 0002:000033d0       ??_C@_0BF@JMFCGENF@_p_qvectorT_size_t_t@ 00000001800193d0     segment.obj
 0002:000033e8       ??_C@_0CA@PKGFIBKP@sizevec_t?5?$CK?$HMqvector?$DM?5size_t?5?$DO?5?$CK@ 00000001800193e8     segment.obj
 0002:00003408       ??_C@_0BG@GHPDGOHO@_p_qvectorT_tinfo_t_t@ 0000000180019408     segment.obj
 0002:00003420       ??_C@_0CC@CEHAEEKI@tinfovec_t?5?$CK?$HMqvector?$DM?5tinfo_t?5?$DO@ 0000000180019420     segment.obj
 0002:00003448       ??_C@_0BK@KGMCEJE@_p_qvectorT_type_attr_t_t@ 0000000180019448     segment.obj
 0002:00003468       ??_C@_0CI@PENEDOEG@type_attrs_t?5?$CK?$HMqvector?$DM?5type_at@ 0000000180019468     segment.obj
 0002:00003490       ??_C@_0BL@MFAEBBAF@_p_qvectorT_udt_member_t_t@ 0000000180019490     segment.obj
 0002:000034b0       ??_C@_0CL@HFANAPIM@udtmembervec_t?5?$CK?$HMqvector?$DM?5udt_m@ 00000001800194b0     segment.obj
 0002:000034e0       ??_C@_0BM@DFOCNGNJ@_p_qvectorT_unsigned_char_t@ 00000001800194e0     segment.obj
 0002:00003500       ??_C@_0CH@MCODNJGI@qvector?$DM?5unsigned?5char?5?$DO?5?$CK?$HMcomp@ 0000000180019500     segment.obj
 0002:00003528       ??_C@_0M@BEMIELHM@_p_relobj_t@ 0000000180019528     segment.obj
 0002:00003538       ??_C@_0N@OAHCDFLH@_p_bytevec_t@ 0000000180019538     segment.obj
 0002:00003548       ??_C@_0BA@KOPDLMDG@_p_reloc_info_t@ 0000000180019548     segment.obj
 0002:00003558       ??_C@_0BL@POPMPLM@_p_qvectorT_unsigned_int_t@ 0000000180019558     segment.obj
 0002:00003578       ??_C@_0DL@HDEADPMO@eavec_t?5?$CK?$HMordvec_t?5?$CK?$HMuvalvec_t?5@ 0000000180019578     segment.obj
 0002:000035b8       ??_C@_0L@NOIPKKEL@_p_range_t@ 00000001800195b8     segment.obj
 0002:000035c8       ??_C@_09HPKAOMNJ@range_t?5?$CK@ 00000001800195c8     segment.obj
 0002:000035d8       ??_C@_0N@JMGNDIKJ@_p_segment_t@ 00000001800195d8     segment.obj
 0002:000035e8       ??_C@_0M@LCGDBKLN@segment_t?5?$CK@ 00000001800195e8     segment.obj
 0002:000035f8       ??_C@_08JGEHMJEC@_p_short@ 00000001800195f8     segment.obj
 0002:00003608       ??_C@_0BA@BBDCPKKI@int16?5?$CK?$HMshort?5?$CK@ 0000000180019608     segment.obj
 0002:00003618       ??_C@_0P@IHEJCACJ@_p_signed_char@ 0000000180019618     segment.obj
 0002:00003628       ??_C@_0BG@CGJIOBCI@signed?5char?5?$CK?$HMsint8?5?$CK@ 0000000180019628     segment.obj
 0002:00003640       ??_C@_0BB@JEMKPEPB@_p_unsigned_char@ 0000000180019640     segment.obj
 0002:00003660       ??_C@_0HI@NBHOBBOJ@uchar?5?$CK?$HMunsigned?5char?5?$CK?$HMcm_t?5?$CK?$HM@ 0000000180019660     segment.obj
 0002:000036d8       ??_C@_0BA@EMEBBPFL@_p_unsigned_int@ 00000001800196d8     segment.obj
 0002:000036f0       ??_C@_0JE@GCFOGLMK@bgcolor_t?5?$CK?$HMenum_t?5?$CK?$HMtid_t?5?$CK?$HMbm@ 00000001800196f0     segment.obj
 0002:00003788       ??_C@_0BG@CGEDOPGF@_p_unsigned_long_long@ 0000000180019788     segment.obj
 0002:000037a0       ??_C@_0CK@FCLCDGJM@uint64?5?$CK?$HMulonglong?5?$CK?$HMunsigned?5l@ 00000001800197a0     segment.obj
 0002:000037d0       ??_C@_0BC@GCHEMBCE@_p_unsigned_short@ 00000001800197d0     segment.obj
 0002:000037e8       ??_C@_0CP@HNCAPCKA@uint16?5?$CK?$HMunsigned?5short?5?$CK?$HMushor@ 00000001800197e8     segment.obj
 0002:00003818       ??_C@_0O@KPNNNNNL@_p_value_type@ 0000000180019818     segment.obj
 0002:00003828       ??_C@_0N@BPDHJAOG@value_type?5?$CK@ 0000000180019828     segment.obj
 0002:00003838       ??_C@_03BHDOPPEK@own@      0000000180019838     segment.obj
 0002:0000383c       ??_C@_06EFGGFDFD@disown@   000000018001983c     segment.obj
 0002:00003848       ??_C@_0CC@CFIMIIPD@releases?5ownership?5of?5the?5point@ 0000000180019848     segment.obj
 0002:00003870       ??_C@_07MEFPPMEF@acquire@  0000000180019870     segment.obj
 0002:00003878       ??_C@_0CC@BAIBAPCI@acquires?5ownership?5of?5the?5point@ 0000000180019878     segment.obj
 0002:000038a0       ??_C@_0CG@GKPKGEFE@returns?1sets?5ownership?5of?5the?5p@ 00000001800198a0     segment.obj
 0002:000038c8       ??_C@_06PCICMFGG@append@   00000001800198c8     segment.obj
 0002:000038d0       ??_C@_0BO@NCOOMDHM@appends?5another?5?8this?8?5object@ 00000001800198d0     segment.obj
 0002:000038f0       ??_C@_04CJGEDOF@next@      00000001800198f0     segment.obj
 0002:000038f8       ??_C@_0BP@IMIAEPNG@returns?5the?5next?5?8this?8?5object@ 00000001800198f8     segment.obj
 0002:00003918       ??_C@_08HJPCHLLJ@__repr__@ 0000000180019918     segment.obj
 0002:00003928       ??_C@_0BO@PNCCHPAD@returns?5object?5representation@ 0000000180019928     segment.obj
 0002:00003948       ??_C@_07HDHHMDOH@_p_char@  0000000180019948     segment.obj
 0002:00003950       ??_C@_0O@EMFKLPMD@new_segment_t@ 0000000180019950     segment.obj
 0002:00003960       ??_C@_0BD@GGKFPJLH@segment_t_name_set@ 0000000180019960     segment.obj
 0002:00003978       ??_C@_0BF@OGFHCJGF@segment_t_sclass_set@ 0000000180019978     segment.obj
 0002:00003990       ??_C@_0BG@CGLCBDNE@segment_t_orgbase_set@ 0000000180019990     segment.obj
 0002:000039a8       ??_C@_0BE@KOCAELCE@segment_t_align_set@ 00000001800199a8     segment.obj
 0002:000039c0       ??_C@_0BD@JPGFDMGK@segment_t_comb_set@ 00000001800199c0     segment.obj
 0002:000039d8       ??_C@_0BD@PLCIAAOE@segment_t_perm_set@ 00000001800199d8     segment.obj
 0002:000039f0       ??_C@_0BG@EOKCHHDG@segment_t_bitness_set@ 00000001800199f0     segment.obj
 0002:00003a08       ??_C@_0BE@CAFBFKKN@segment_t_flags_set@ 0000000180019a08     segment.obj
 0002:00003a20       ??_C@_0BL@FAEIBCGE@segment_t_set_visible_segm@ 0000000180019a20     segment.obj
 0002:00003a40       ??_C@_0BM@EGKNKJOL@segment_t_set_debugger_segm@ 0000000180019a40     segment.obj
 0002:00003a60       ??_C@_0BK@LCADAACK@segment_t_set_loader_segm@ 0000000180019a60     segment.obj
 0002:00003a80       ??_C@_0BN@MJGMIDMJ@segment_t_set_hidden_segtype@ 0000000180019a80     segment.obj
 0002:00003aa0       ??_C@_0BK@FDKKGDNB@segment_t_set_header_segm@ 0000000180019aa0     segment.obj
 0002:00003ac0       ??_C@_0BC@GGAAFHMA@segment_t_sel_set@ 0000000180019ac0     segment.obj
 0002:00003ad8       ??_C@_0BE@NKAPFOKK@segment_t_defsr_set@ 0000000180019ad8     segment.obj
 0002:00003af0       ??_C@_0BD@PGBMOGMI@segment_t_type_set@ 0000000180019af0     segment.obj
 0002:00003b08       ??_C@_0BE@JMEDCFDP@segment_t_color_set@ 0000000180019b08     segment.obj
 0002:00003b20       ??_C@_0BH@NOAJPMLN@segment_t_start_ea_set@ 0000000180019b20     segment.obj
 0002:00003b38       ??_C@_0BF@DEGFEFGO@segment_t_end_ea_set@ 0000000180019b38     segment.obj
 0002:00003b50       ??_C@_0BB@KEIHHFNP@set_visible_segm@ 0000000180019b50     segment.obj
 0002:00003b68       ??_C@_09FBDIGNAG@lock_segm@ 0000000180019b68     segment.obj
 0002:00003b78       ??_C@_0BB@LDCKFKLG@get_selector_qty@ 0000000180019b78     segment.obj
 0002:00003b90       ??_C@_0BD@JPFCILEK@find_free_selector@ 0000000180019b90     segment.obj
 0002:00003ba8       ??_C@_0N@GAOHAKBD@set_selector@ 0000000180019ba8     segment.obj
 0002:00003bb8       ??_C@_0M@BHKBEKAO@add_segm_ex@ 0000000180019bb8     segment.obj
 0002:00004a39       ??_C@_00CNPNBAHC@@         000000018001aa39     segment.obj
 0002:00004a40       ??_C@_09HJOCAFJB@at?5least?5@ 000000018001aa40     segment.obj
 0002:00004a50       ??_C@_0CF@KFFOGCID@?$CFs?5expected?5?$CFs?$CFd?5arguments?0?5got@ 000000018001aa50     segment.obj
 0002:00004a78       ??_C@_0CL@NPJGKHAI@UnpackTuple?$CI?$CJ?5argument?5list?5is?5@ 000000018001aa78     segment.obj
 0002:00004aa8       ??_C@_0CD@DMIOPJCG@?$CFs?5expected?5?$CFs?$CFd?5arguments?0?5got@ 000000018001aaa8     segment.obj
 0002:00004ad0       ??_C@_08KFLHMPAE@at?5most?5@ 000000018001aad0     segment.obj
 0002:00004ae0       ??_C@_07MEBHOIG@__new__@   000000018001aae0     segment.obj
 0002:00004ae8       ??_C@_0BB@LPCDDCDP@__swig_destroy__@ 000000018001aae8     segment.obj
 0002:00004b00       ??_C@_07CIFAGBMG@unknown@  000000018001ab00     segment.obj
 0002:00004b08       ??_C@_0CB@HIOLGNHE@?$DMSwig?5Object?5of?5type?5?8?$CFs?8?5at?5?$CFp@ 000000018001ab08     segment.obj
 0002:00004b30       ??_C@_08BHKDPDAA@__name__@ 000000018001ab30     segment.obj
 0002:00004b40       ??_C@_0N@OEDBPMFH@SwigPyObject@ 000000018001ab40     segment.obj
 0002:00004b50       ??_C@_0EH@KGGHIIII@swig?1python?5detected?5a?5memory?5l@ 000000018001ab50     segment.obj
 0002:00004b98       ??_C@_0CF@NBDOMJMA@Attempt?5to?5append?5a?5non?5SwigPyO@ 000000018001ab98     segment.obj
 0002:00004bc0       ??_C@_0BG@BEMBDPAG@?$DMSwig?5Packed?5at?5?$CFs?$CFs?$DO@ 000000018001abc0     segment.obj
 0002:00004bd8       ??_C@_0BB@KEMDDLH@?$DMSwig?5Packed?5?$CFs?$DO@ 000000018001abd8     segment.obj
 0002:00004bec       ??_C@_04HDOCAJNK@?$CFs?$CFs@ 000000018001abec     segment.obj
 0002:00004bf8       ??_C@_0N@FALDBJHP@SwigPyPacked@ 000000018001abf8     segment.obj
 0002:00004c08       ??_C@_04IIAJELJL@this@     000000018001ac08     segment.obj
 0002:00004c10       ??_C@_0L@GCGAIEDO@swig_ptr?3?5@ 000000018001ac10     segment.obj
 0002:00004c20       ??_C@_08IBFKALI@__dict__@  000000018001ac20     segment.obj
 0002:00004c30       ??_C@_08DOBMGDEN@swiginit@ 000000018001ac30     segment.obj
 0002:00004c40       ??_C@_0CO@FOLKHJOC@swig_runtime_data4?4type_pointer@ 000000018001ac40     segment.obj
 0002:00004c70       ??_C@_0BD@BFIMCAOH@swig_runtime_data4@ 000000018001ac70     segment.obj
 0002:00004c88       ??_C@_0BL@LFDLKGPB@type_pointer_capsuleidaapi@ 000000018001ac88     segment.obj
 0002:00004ca8       ??_C@_0BC@EOODALEL@Unknown?5exception@ 000000018001aca8     segment.obj
 0002:00004cc0       ??_C@_0BK@NPFFDHAP@Out?5of?5memory?5?$CIbad_alloc?$CJ@ 000000018001acc0     segment.obj
 0002:00004ce0       ??_C@_0BCP@OKJACFO@Internal?5error?5?$CFd?5occurred?5when@ 000000018001ace0     segment.obj
 0002:00004e10       ??_C@_0DB@OCJMLGAO@Function?5can?5be?5called?5from?5the@ 000000018001ae10     segment.obj
 0002:00004e48       ??_C@_0DL@GNNJKBH@Can?8t?5modify?5start_ea?0?5please?5u@ 000000018001ae48     segment.obj
 0002:00004e88       ??_C@_0DH@HPJKJHKL@Can?8t?5modify?5end_ea?0?5please?5use@ 000000018001ae88     segment.obj
 0002:00004ec0       ??_C@_0BA@GMJLDMKP@surrogateescape@ 000000018001aec0     segment.obj
 0002:00004ed0       ??_C@_0BK@CMHMAOFC@Expected?5a?5delta?5in?5bytes@ 000000018001aed0     segment.obj
 0002:00004ef0       ??_C@_0EB@DKJLMMFP@in?5method?5?8segment_t_name_set?8?0@ 000000018001aef0     segment.obj
 0002:00004f38       ??_C@_0DM@BLFDOJOA@in?5method?5?8segment_t_name_set?8?0@ 000000018001af38     segment.obj
 0002:00004f80       ??_C@_0EB@OIHIELKM@in?5method?5?8segment_t_name_get?8?0@ 000000018001af80     segment.obj
 0002:00004fd0       ??_C@_0ED@MKJFDJBH@in?5method?5?8segment_t_sclass_set@ 000000018001afd0     segment.obj
 0002:00005018       ??_C@_0DO@JBJAFDAN@in?5method?5?8segment_t_sclass_set@ 000000018001b018     segment.obj
 0002:00005060       ??_C@_0ED@BIHGLOOE@in?5method?5?8segment_t_sclass_get@ 000000018001b060     segment.obj
 0002:000050b0       ??_C@_0EE@DDDBKKIM@in?5method?5?8segment_t_orgbase_se@ 000000018001b0b0     segment.obj
 0002:000050f8       ??_C@_0DP@MAFHLKEM@in?5method?5?8segment_t_orgbase_se@ 000000018001b0f8     segment.obj
 0002:00005140       ??_C@_0EE@OBNCCNHP@in?5method?5?8segment_t_orgbase_ge@ 000000018001b140     segment.obj
 0002:00005190       ??_C@_0EC@CGPABCKG@in?5method?5?8segment_t_align_set?8@ 000000018001b190     segment.obj
 0002:000051d8       ??_C@_0DM@FOPHKHEF@in?5method?5?8segment_t_align_set?8@ 000000018001b1d8     segment.obj
 0002:00005220       ??_C@_0EC@PEBDJFFF@in?5method?5?8segment_t_align_get?8@ 000000018001b220     segment.obj
 0002:00005270       ??_C@_0EB@NLMDKEAA@in?5method?5?8segment_t_comb_set?8?0@ 000000018001b270     segment.obj
 0002:000052b8       ??_C@_0DL@PAFAJIKE@in?5method?5?8segment_t_comb_set?8?0@ 000000018001b2b8     segment.obj
 0002:00005300       ??_C@_0EB@JCACDPD@in?5method?5?8segment_t_comb_get?8?0@ 000000018001b300     segment.obj
 0002:00005350       ??_C@_0EB@KCOOJKNB@in?5method?5?8segment_t_perm_set?8?0@ 000000018001b350     segment.obj
 0002:00005398       ??_C@_0DL@KGANCAK@in?5method?5?8segment_t_perm_set?8?0@ 000000018001b398     segment.obj
 0002:000053e0       ??_C@_0EB@HAANBNCC@in?5method?5?8segment_t_perm_get?8?0@ 000000018001b3e0     segment.obj
 0002:00005430       ??_C@_0EE@CEOEHELP@in?5method?5?8segment_t_bitness_se@ 000000018001b430     segment.obj
 0002:00005478       ??_C@_0DO@NDMHAKCB@in?5method?5?8segment_t_bitness_se@ 000000018001b478     segment.obj
 0002:000054c0       ??_C@_0EE@PGAHPDEM@in?5method?5?8segment_t_bitness_ge@ 000000018001b4c0     segment.obj
 0002:00005510       ??_C@_0EE@IAIIIJOO@in?5method?5?8segment_t_use32?8?0?5ar@ 000000018001b510     segment.obj
 0002:00005560       ??_C@_0EE@ELBJGAFP@in?5method?5?8segment_t_use64?8?0?5ar@ 000000018001b560     segment.obj
 0002:000055b0       ??_C@_0EE@BABMEIBN@in?5method?5?8segment_t_abits?8?0?5ar@ 000000018001b5b0     segment.obj
 0002:00005600       ??_C@_0EF@ODBABIKF@in?5method?5?8segment_t_abytes?8?0?5a@ 000000018001b600     segment.obj
 0002:00005650       ??_C@_0EC@CGNOAAGI@in?5method?5?8segment_t_flags_set?8@ 000000018001b650     segment.obj
 0002:00005698       ??_C@_0DN@BLKEBECK@in?5method?5?8segment_t_flags_set?8@ 000000018001b698     segment.obj
 0002:000056e0       ??_C@_0EC@PEDNIHJL@in?5method?5?8segment_t_flags_get?8@ 000000018001b6e0     segment.obj
 0002:00005730       ??_C@_0EF@KJLBHABE@in?5method?5?8segment_t_comorg?8?0?5a@ 000000018001b730     segment.obj
 0002:00005780       ??_C@_0ED@KIEAJGMA@in?5method?5?8segment_t_set_comorg@ 000000018001b780     segment.obj
 0002:000057d0       ??_C@_0ED@HKJNNOFD@in?5method?5?8segment_t_clr_comorg@ 000000018001b7d0     segment.obj
 0002:00005820       ??_C@_0EE@LANPPMGJ@in?5method?5?8segment_t_ob_ok?8?0?5ar@ 000000018001b820     segment.obj
 0002:00005870       ??_C@_0EC@CJDDAFLE@in?5method?5?8segment_t_set_ob_ok?8@ 000000018001b870     segment.obj
 0002:000058c0       ??_C@_0EC@PJPOGLJC@in?5method?5?8segment_t_clr_ob_ok?8@ 000000018001b8c0     segment.obj
 0002:00005910       ??_C@_0EO@BFGLEIPF@in?5method?5?8segment_t_is_visible@ 000000018001b910     segment.obj
 0002:00005960       ??_C@_0EJ@KOONLFED@in?5method?5?8segment_t_set_visibl@ 000000018001b960     segment.obj
 0002:000059b0       ??_C@_0EC@KJNIGHGK@in?5method?5?8segment_t_set_visibl@ 000000018001b9b0     segment.obj
 0002:00005a00       ??_C@_0EK@EMFFFJIH@in?5method?5?8segment_t_set_debugg@ 000000018001ba00     segment.obj
 0002:00005a50       ??_C@_0ED@LFCPGBNO@in?5method?5?8segment_t_set_debugg@ 000000018001ba50     segment.obj
 0002:00005aa0       ??_C@_0EN@HFCGGCDP@in?5method?5?8segment_t_is_loader_@ 000000018001baa0     segment.obj
 0002:00005af0       ??_C@_0EI@LOFKAOBP@in?5method?5?8segment_t_set_loader@ 000000018001baf0     segment.obj
 0002:00005b40       ??_C@_0EB@OIEANIEF@in?5method?5?8segment_t_set_loader@ 000000018001bb40     segment.obj
 0002:00005b90       ??_C@_0FA@HLBPBOHH@in?5method?5?8segment_t_is_hidden_@ 000000018001bb90     segment.obj
 0002:00005be0       ??_C@_0EL@OCILJBKH@in?5method?5?8segment_t_set_hidden@ 000000018001bbe0     segment.obj
 0002:00005c30       ??_C@_0EE@ICGBKAPN@in?5method?5?8segment_t_set_hidden@ 000000018001bc30     segment.obj
 0002:00005c80       ??_C@_0EN@HOCJLBIK@in?5method?5?8segment_t_is_header_@ 000000018001bc80     segment.obj
 0002:00005cd0       ??_C@_0EI@HHPCMCPG@in?5method?5?8segment_t_set_header@ 000000018001bcd0     segment.obj
 0002:00005d20       ??_C@_0EB@LMAINLED@in?5method?5?8segment_t_set_header@ 000000018001bd20     segment.obj
 0002:00005d70       ??_C@_0EA@HIFDMHJC@in?5method?5?8segment_t_sel_set?8?0?5@ 000000018001bd70     segment.obj
 0002:00005db0       ??_C@_0DK@HGNIPAIK@in?5method?5?8segment_t_sel_set?8?0?5@ 000000018001bdb0     segment.obj
 0002:00005df0       ??_C@_0EA@KKLAEAGB@in?5method?5?8segment_t_sel_get?8?0?5@ 000000018001bdf0     segment.obj
 0002:00005e30       ??_C@_0EC@GMFINJG@in?5method?5?8segment_t_defsr_set?8@ 000000018001be30     segment.obj
 0002:00005e80       ??_C@_0EB@PELHECBG@in?5method?5?8segment_t_defsr_set?8@ 000000018001be80     segment.obj
 0002:00005ed0       ??_C@_0EA@JJPCJODA@invalid?5null?5reference?5in?5varia@ 000000018001bed0     segment.obj
 0002:00005f10       ??_C@_0EC@NECGAKGF@in?5method?5?8segment_t_defsr_get?8@ 000000018001bf10     segment.obj
 0002:00005f60       ??_C@_0EB@IGBPPCEI@in?5method?5?8segment_t_type_set?8?0@ 000000018001bf60     segment.obj
 0002:00005fa8       ??_C@_0DL@LKMMIGFD@in?5method?5?8segment_t_type_set?8?0@ 000000018001bfa8     segment.obj
 0002:00005ff0       ??_C@_0EB@FEPMHFLL@in?5method?5?8segment_t_type_get?8?0@ 000000018001bff0     segment.obj
 0002:00006040       ??_C@_0EC@CMFGPJCK@in?5method?5?8segment_t_color_set?8@ 000000018001c040     segment.obj
 0002:00006090       ??_C@_0EA@KHNENDL@in?5method?5?8segment_t_color_set?8@ 000000018001c090     segment.obj
 0002:000060d0       ??_C@_0EC@POLFHONJ@in?5method?5?8segment_t_color_get?8@ 000000018001c0d0     segment.obj
 0002:00006118       ??_C@_0DP@JPEFCOKG@in?5method?5?8segment_t_update?8?0?5a@ 000000018001c118     segment.obj
 0002:00006160       ??_C@_0EF@MEIPAADH@in?5method?5?8segment_t_start_ea_s@ 000000018001c160     segment.obj
 0002:000061a8       ??_C@_0DO@DFONAOIE@in?5method?5?8segment_t_start_ea_s@ 000000018001c1a8     segment.obj
 0002:000061f0       ??_C@_0EF@BGGMIHME@in?5method?5?8segment_t_start_ea_g@ 000000018001c1f0     segment.obj
 0002:00006240       ??_C@_0ED@FNCGLEIJ@in?5method?5?8segment_t_end_ea_set@ 000000018001c240     segment.obj
 0002:00006288       ??_C@_0DM@NEDFMJNJ@in?5method?5?8segment_t_end_ea_set@ 000000018001c288     segment.obj
 0002:000062d0       ??_C@_0ED@IPMFDDHK@in?5method?5?8segment_t_end_ea_get@ 000000018001c2d0     segment.obj
 0002:00006318       ??_C@_0DP@DEAMDNID@in?5method?5?8delete_segment_t?8?0?5a@ 000000018001c318     segment.obj
 0002:00006358       ??_C@_0N@JBELKAOG@swigregister@ 000000018001c358     segment.obj
 0002:00006368       ??_C@_0DO@NBGFHMPF@in?5method?5?8is_visible_segm?8?0?5ar@ 000000018001c368     segment.obj
 0002:000063b0       ??_C@_0EG@JJKAPBNM@in?5method?5?8is_finally_visible_s@ 000000018001c3b0     segment.obj
 0002:000063f8       ??_C@_0DP@EEGBOAGD@in?5method?5?8set_visible_segm?8?0?5a@ 000000018001c3f8     segment.obj
 0002:00006438       ??_C@_0DI@KFMBFBOI@in?5method?5?8set_visible_segm?8?0?5a@ 000000018001c438     segment.obj
 0002:00006470       ??_C@_0DF@JOFNFMHA@in?5method?5?8is_spec_segm?8?0?5argum@ 000000018001c470     segment.obj
 0002:000064a8       ??_C@_0DC@KJFOJJG@in?5method?5?8is_spec_ea?8?0?5argumen@ 000000018001c4a8     segment.obj
 0002:000064e0       ??_C@_0DO@NOKINGLJ@in?5method?5?8lock_segm?8?0?5argument@ 000000018001c4e0     segment.obj
 0002:00006520       ??_C@_0DB@OOJIFPJH@in?5method?5?8lock_segm?8?0?5argument@ 000000018001c520     segment.obj
 0002:00006560       ??_C@_0EF@GFFGHBJB@in?5method?5?8new_lock_segment?8?0?5a@ 000000018001c560     segment.obj
 0002:000065b0       ??_C@_0EF@BMLIPPGB@in?5method?5?8delete_lock_segment?8@ 000000018001c5b0     segment.obj
 0002:00006600       ??_C@_0ED@JIDDNNPD@in?5method?5?8is_segm_locked?8?0?5arg@ 000000018001c600     segment.obj
 0002:00006648       ??_C@_0DE@HMJFFJOP@in?5method?5?8getn_selector?8?0?5argu@ 000000018001c648     segment.obj
 0002:00006680       ??_C@_0DG@PDFGHFOK@in?5method?5?8setup_selector?8?0?5arg@ 000000018001c680     segment.obj
 0002:000066b8       ??_C@_0DJ@NBIIKFBD@in?5method?5?8allocate_selector?8?0?5@ 000000018001c6b8     segment.obj
 0002:000066f8       ??_C@_0DF@FEJBPEFG@in?5method?5?8set_selector?8?0?5argum@ 000000018001c6f8     segment.obj
 0002:00006730       ??_C@_0DE@NOCMCGIG@in?5method?5?8set_selector?8?0?5argum@ 000000018001c730     segment.obj
 0002:00006768       ??_C@_0DF@BIHNINDB@in?5method?5?8del_selector?8?0?5argum@ 000000018001c768     segment.obj
 0002:000067a0       ??_C@_0DB@PJBNCADK@in?5method?5?8sel2para?8?0?5argument?5@ 000000018001c7a0     segment.obj
 0002:000067d8       ??_C@_0CP@PEDMFHFA@in?5method?5?8sel2ea?8?0?5argument?51?5@ 000000018001c7d8     segment.obj
 0002:00006808       ??_C@_0DF@MHDDBBJN@in?5method?5?8find_selector?8?0?5argu@ 000000018001c808     segment.obj
 0002:00006840       ??_C@_0DI@BNHNOHJK@in?5method?5?8get_segm_by_sel?8?0?5ar@ 000000018001c840     segment.obj
 0002:00006878       ??_C@_0DK@HBEOJIGB@in?5method?5?8add_segm_ex?8?0?5argume@ 000000018001c878     segment.obj
 0002:000068b8       ??_C@_0DL@DHKLFADD@in?5method?5?8add_segm_ex?8?0?5argume@ 000000018001c8b8     segment.obj
 0002:000068f8       ??_C@_0DL@JCCAMADN@in?5method?5?8add_segm_ex?8?0?5argume@ 000000018001c8f8     segment.obj
 0002:00006938       ??_C@_0DC@MADNIILK@in?5method?5?8add_segm_ex?8?0?5argume@ 000000018001c938     segment.obj
 0002:00006970       ??_C@_0DA@CNEAGGHE@in?5method?5?8add_segm?8?0?5argument?5@ 000000018001c970     segment.obj
 0002:000069a0       ??_C@_0DA@HONKDNPA@in?5method?5?8add_segm?8?0?5argument?5@ 000000018001c9a0     segment.obj
 0002:000069d0       ??_C@_0DA@PJHMPGLD@in?5method?5?8add_segm?8?0?5argument?5@ 000000018001c9d0     segment.obj
 0002:00006a00       ??_C@_0DI@FJAAHHCE@in?5method?5?8add_segm?8?0?5argument?5@ 000000018001ca00     segment.obj
 0002:00006a38       ??_C@_0DI@PMILOHCK@in?5method?5?8add_segm?8?0?5argument?5@ 000000018001ca38     segment.obj
 0002:00006a70       ??_C@_0CP@CCGHOOCA@in?5method?5?8add_segm?8?0?5argument?5@ 000000018001ca70     segment.obj
 0002:00006aa0       ??_C@_0DA@JMNGFCEE@in?5method?5?8del_segm?8?0?5argument?5@ 000000018001caa0     segment.obj
 0002:00006ad0       ??_C@_0CP@GLILLGJM@in?5method?5?8del_segm?8?0?5argument?5@ 000000018001cad0     segment.obj
 0002:00006b00       ??_C@_0CO@FFEEGCFO@in?5method?5?8getseg?8?0?5argument?51?5@ 000000018001cb00     segment.obj
 0002:00006b30       ??_C@_0CO@HDCKPHG@in?5method?5?8getnseg?8?0?5argument?51@ 000000018001cb30     segment.obj
 0002:00006b60       ??_C@_0DE@MGLDBNNK@in?5method?5?8get_segm_num?8?0?5argum@ 000000018001cb60     segment.obj
 0002:00006b98       ??_C@_0DE@DOPPPCBE@in?5method?5?8get_next_seg?8?0?5argum@ 000000018001cb98     segment.obj
 0002:00006bd0       ??_C@_0DE@COJDPGK@in?5method?5?8get_prev_seg?8?0?5argum@ 000000018001cbd0     segment.obj
 0002:00006c10       ??_C@_0EA@BKFKCIJB@in?5method?5?8get_segm_by_name?8?0?5a@ 000000018001cc10     segment.obj
 0002:00006c50       ??_C@_0DE@COIKFIMN@in?5method?5?8set_segm_end?8?0?5argum@ 000000018001cc50     segment.obj
 0002:00006c88       ??_C@_0DE@HNBAADEJ@in?5method?5?8set_segm_end?8?0?5argum@ 000000018001cc88     segment.obj
 0002:00006cc0       ??_C@_0DD@CEOCIGLE@in?5method?5?8set_segm_end?8?0?5argum@ 000000018001ccc0     segment.obj
 0002:00006cf8       ??_C@_0DG@KHJDCDLJ@in?5method?5?8set_segm_start?8?0?5arg@ 000000018001ccf8     segment.obj
 0002:00006d30       ??_C@_0DG@PEAJHIDN@in?5method?5?8set_segm_start?8?0?5arg@ 000000018001cd30     segment.obj
 0002:00006d68       ??_C@_0DF@OOLCBCCN@in?5method?5?8set_segm_start?8?0?5arg@ 000000018001cd68     segment.obj
 0002:00006da0       ??_C@_0DH@FKKFKCEO@in?5method?5?8move_segm_start?8?0?5ar@ 000000018001cda0     segment.obj
 0002:00006dd8       ??_C@_0DH@JDPPJMK@in?5method?5?8move_segm_start?8?0?5ar@ 000000018001cdd8     segment.obj
 0002:00006e10       ??_C@_0DG@LKMKJPDH@in?5method?5?8move_segm_start?8?0?5ar@ 000000018001ce10     segment.obj
 0002:00006e48       ??_C@_0DI@ONBDAICK@in?5method?5?8move_segm?8?0?5argument@ 000000018001ce48     segment.obj
 0002:00006e80       ??_C@_0DB@GJMIBDON@in?5method?5?8move_segm?8?0?5argument@ 000000018001ce80     segment.obj
 0002:00006eb8       ??_C@_0DA@PNKOGNKI@in?5method?5?8move_segm?8?0?5argument@ 000000018001ceb8     segment.obj
 0002:00006ef0       ??_C@_0EE@CLKBPGPO@in?5method?5?8change_segment_statu@ 000000018001cef0     segment.obj
 0002:00006f38       ??_C@_0DN@ILLCFMIJ@in?5method?5?8change_segment_statu@ 000000018001cf38     segment.obj
 0002:00006f78       ??_C@_0DM@MFCLHKJG@in?5method?5?8take_memory_snapshot@ 000000018001cf78     segment.obj
 0002:00006fb8       ??_C@_0DM@MKHCNPDI@in?5method?5?8set_segm_base?8?0?5argu@ 000000018001cfb8     segment.obj
 0002:00006ff8       ??_C@_0DF@MBIDBAPA@in?5method?5?8set_segm_base?8?0?5argu@ 000000018001cff8     segment.obj
 0002:00007030       ??_C@_0DL@NPFBNKHF@in?5method?5?8set_group_selector?8?0@ 000000018001d030     segment.obj
 0002:00007070       ??_C@_0DL@DFNHAHBH@in?5method?5?8set_group_selector?8?0@ 000000018001d070     segment.obj
 0002:000070b0       ??_C@_0DL@EEGKKIEH@in?5method?5?8get_group_selector?8?0@ 000000018001d0b0     segment.obj
 0002:000070f0       ??_C@_0DP@DABBKBBG@in?5method?5?8add_segment_translat@ 000000018001d0f0     segment.obj
 0002:00007130       ??_C@_0DP@GDILPKJC@in?5method?5?8add_segment_translat@ 000000018001d130     segment.obj
 0002:00007170       ??_C@_0EA@GGPLOOLM@in?5method?5?8set_segment_translat@ 000000018001d170     segment.obj
 0002:000071b0       ??_C@_0EJ@JOJIENPD@in?5method?5?8set_segment_translat@ 000000018001d1b0     segment.obj
 0002:00007200       ??_C@_0EA@LHHIGGAI@in?5method?5?8del_segment_translat@ 000000018001d200     segment.obj
 0002:00007240       ??_C@_0ED@ILGGOGBI@in?5method?5?8get_segment_translat@ 000000018001d240     segment.obj
 0002:00007290       ??_C@_0EA@JFDNGPGJ@in?5method?5?8get_segment_translat@ 000000018001d290     segment.obj
 0002:000072d0       ??_C@_0EE@HPNLBGII@in?5method?5?8get_segment_cmt?8?0?5ar@ 000000018001d2d0     segment.obj
 0002:00007318       ??_C@_0DH@MMLMDEKJ@in?5method?5?8get_segment_cmt?8?0?5ar@ 000000018001d318     segment.obj
 0002:00007350       ??_C@_0EE@IANFKAB@in?5method?5?8set_segment_cmt?8?0?5ar@ 000000018001d350     segment.obj
 0002:00007398       ??_C@_0DP@DFAEANJL@in?5method?5?8set_segment_cmt?8?0?5ar@ 000000018001d398     segment.obj
 0002:000073d8       ??_C@_0DH@KLAMFJMC@in?5method?5?8set_segment_cmt?8?0?5ar@ 000000018001d3d8     segment.obj
 0002:00007410       ??_C@_0EB@IGCNKFFG@in?5method?5?8std_out_segm_footer?8@ 000000018001d410     segment.obj
 0002:00007460       ??_C@_0FI@NDHMBCKF@invalid?5null?5reference?5in?5metho@ 000000018001d460     segment.obj
 0002:000074c0       ??_C@_0EC@EKLDPBAE@in?5method?5?8std_out_segm_footer?8@ 000000018001d4c0     segment.obj
 0002:00007508       ??_C@_0DM@PJIDBECN@in?5method?5?8set_segm_name?8?0?5argu@ 000000018001d508     segment.obj
 0002:00007548       ??_C@_0DN@EIEJJAAE@in?5method?5?8set_segm_name?8?0?5argu@ 000000018001d548     segment.obj
 0002:00007588       ??_C@_0DE@ICDEGDEI@in?5method?5?8set_segm_name?8?0?5argu@ 000000018001d588     segment.obj
 0002:000075c0       ??_C@_0EC@HHKFBIAK@in?5method?5?8get_segm_name?8?0?5argu@ 000000018001d5c0     segment.obj
 0002:00007608       ??_C@_0DE@MOHJBFFG@in?5method?5?8get_segm_name?8?0?5argu@ 000000018001d608     segment.obj
 0002:00007640       ??_C@_0EK@EGJHLKNC@in?5method?5?8get_visible_segm_nam@ 000000018001d640     segment.obj
 0002:00007690       ??_C@_0ED@KAKLDGKH@in?5method?5?8get_segm_class?8?0?5arg@ 000000018001d690     segment.obj
 0002:000076d8       ??_C@_0DN@NCGDCCMA@in?5method?5?8set_segm_class?8?0?5arg@ 000000018001d6d8     segment.obj
 0002:00007718       ??_C@_0DO@JGNJOOPH@in?5method?5?8set_segm_class?8?0?5arg@ 000000018001d718     segment.obj
 0002:00007758       ??_C@_0DF@HDCKBJH@in?5method?5?8set_segm_class?8?0?5arg@ 000000018001d758     segment.obj
 0002:00007790       ??_C@_0CP@LOADPBNE@in?5method?5?8segtype?8?0?5argument?51@ 000000018001d790     segment.obj
 0002:000077c0       ??_C@_0DO@KHCLGAL@in?5method?5?8get_segment_alignmen@ 000000018001d7c0     segment.obj
 0002:00007800       ??_C@_0EA@GEINMCEA@in?5method?5?8get_segment_combinat@ 000000018001d800     segment.obj
 0002:00007840       ??_C@_0EC@GFPFCPCG@in?5method?5?8get_segm_para?8?0?5argu@ 000000018001d840     segment.obj
 0002:00007890       ??_C@_0EC@OGCNFNPL@in?5method?5?8get_segm_base?8?0?5argu@ 000000018001d890     segment.obj
 0002:000078e0       ??_C@_0EC@HAIJDA@in?5method?5?8set_segm_addressing?8@ 000000018001d8e0     segment.obj
 0002:00007928       ??_C@_0DN@HKGDBMDE@in?5method?5?8set_segm_addressing?8@ 000000018001d928     segment.obj
 0002:00007968       ??_C@_0DK@OMBFLFAP@in?5method?5?8update_segm?8?0?5argume@ 000000018001d968     segment.obj
 0002:000079b0       ??_C@_0EF@GDNKFLCA@in?5method?5?8segm_adjust_diff?8?0?5a@ 000000018001d9b0     segment.obj
 0002:000079f8       ??_C@_0DL@KFDJHJIJ@in?5method?5?8segm_adjust_diff?8?0?5a@ 000000018001d9f8     segment.obj
 0002:00007a40       ??_C@_0ED@HNPBOMND@in?5method?5?8segm_adjust_ea?8?0?5arg@ 000000018001da40     segment.obj
 0002:00007a88       ??_C@_0DG@CLBJMDBE@in?5method?5?8segm_adjust_ea?8?0?5arg@ 000000018001da88     segment.obj
 0002:00007ac0       ??_C@_0DI@KPKBFMAG@in?5method?5?8get_defsr?8?0?5argument@ 000000018001dac0     segment.obj
 0002:00007af8       ??_C@_0DA@NCMMMKBC@in?5method?5?8get_defsr?8?0?5argument@ 000000018001daf8     segment.obj
 0002:00007b28       ??_C@_0DI@HFKGFELL@in?5method?5?8set_defsr?8?0?5argument@ 000000018001db28     segment.obj
 0002:00007b60       ??_C@_0DA@NOKDMABA@in?5method?5?8set_defsr?8?0?5argument@ 000000018001db60     segment.obj
 0002:00007b90       ??_C@_0DC@OALLKNDJ@in?5method?5?8set_defsr?8?0?5argument@ 000000018001db90     segment.obj
 0002:00007bc8       ??_C@_0DF@BLNHOEH@in?5method?5?8rebase_program?8?0?5arg@ 000000018001dbc8     segment.obj
 0002:00007c00       ??_C@_0N@JCKJCNDF@_ida_segment@ 000000018001dc00     segment.obj
 0002:00008170       ??_C@_08KPGMKIFE@SREG_NUM@ 000000018001e170     segment.obj
 0002:0000817c       ??_C@_05LDAHFON@saAbs@     000000018001e17c     segment.obj
 0002:00008188       ??_C@_09IENONPHM@saRelByte@ 000000018001e188     segment.obj
 0002:00008198       ??_C@_09EEDKICDO@saRelWord@ 000000018001e198     segment.obj
 0002:000081a8       ??_C@_09GLLCNNFI@saRelPara@ 000000018001e1a8     segment.obj
 0002:000081b8       ??_C@_09BFDDHJMH@saRelPage@ 000000018001e1b8     segment.obj
 0002:000081c8       ??_C@_09JOLDAIIK@saRelDble@ 000000018001e1c8     segment.obj
 0002:000081d8       ??_C@_07MEEIDDEM@saRel4K@  000000018001e1d8     segment.obj
 0002:000081e0       ??_C@_07BKMMEMNH@saGroup@  000000018001e1e0     segment.obj
 0002:000081e8       ??_C@_0N@MFLGINDI@saRel32Bytes@ 000000018001e1e8     segment.obj
 0002:000081f8       ??_C@_0N@OOIGLGGG@saRel64Bytes@ 000000018001e1f8     segment.obj
 0002:00008208       ??_C@_0L@PMKFOGFE@saRelQword@ 000000018001e208     segment.obj
 0002:00008218       ??_C@_0O@CMBIFPCC@saRel128Bytes@ 000000018001e218     segment.obj
 0002:00008228       ??_C@_0O@FLALFGID@saRel512Bytes@ 000000018001e228     segment.obj
 0002:00008238       ??_C@_0P@IHPDHODG@saRel1024Bytes@ 000000018001e238     segment.obj
 0002:00008248       ??_C@_0P@GNALKGMG@saRel2048Bytes@ 000000018001e248     segment.obj
 0002:00008258       ??_C@_0BF@NEJDMAPK@saRel_MAX_ALIGN_CODE@ 000000018001e258     segment.obj
 0002:00008270       ??_C@_06PGDFBOMA@scPriv@   000000018001e270     segment.obj
 0002:00008278       ??_C@_07INFDFNPO@scGroup@  000000018001e278     segment.obj
 0002:00008280       ??_C@_05NDOFIAJC@scPub@    000000018001e280     segment.obj
 0002:00008288       ??_C@_06PDKCEDJJ@scPub2@   000000018001e288     segment.obj
 0002:00008290       ??_C@_07MLBGILLI@scStack@  000000018001e290     segment.obj
 0002:00008298       ??_C@_08BCOGDHGE@scCommon@ 000000018001e298     segment.obj
 0002:000082a4       ??_C@_06OKLJHCNI@scPub3@   000000018001e2a4     segment.obj
 0002:000082b0       ??_C@_0BB@ECAEMCGO@sc_MAX_COMB_CODE@ 000000018001e2b0     segment.obj
 0002:000082c8       ??_C@_0N@MCMBBHPH@SEGPERM_EXEC@ 000000018001e2c8     segment.obj
 0002:000082d8       ??_C@_0O@PJAEKMJE@SEGPERM_WRITE@ 000000018001e2d8     segment.obj
 0002:000082e8       ??_C@_0N@PKDKONDM@SEGPERM_READ@ 000000018001e2e8     segment.obj
 0002:000082f8       ??_C@_0P@BNDLDOCI@SEGPERM_MAXVAL@ 000000018001e2f8     segment.obj
 0002:00008308       ??_C@_0BF@EAGLLBFM@SEG_MAX_BITNESS_CODE@ 000000018001e308     segment.obj
 0002:00008320       ??_C@_0L@GKNJLDHK@SFL_COMORG@ 000000018001e320     segment.obj
 0002:00008330       ??_C@_08EAFNPLLK@SFL_OBOK@ 000000018001e330     segment.obj
 0002:00008340       ??_C@_0L@KMDNOPFB@SFL_HIDDEN@ 000000018001e340     segment.obj
 0002:00008350       ??_C@_09KIPJKENP@SFL_DEBUG@ 000000018001e350     segment.obj
 0002:00008360       ??_C@_0L@KALMPKHC@SFL_LOADER@ 000000018001e360     segment.obj
 0002:00008370       ??_C@_0N@CJLFKIIA@SFL_HIDETYPE@ 000000018001e370     segment.obj
 0002:00008380       ??_C@_0L@PFGIPNAH@SFL_HEADER@ 000000018001e380     segment.obj
 0002:00008390       ??_C@_08EBHLMOGL@SEG_NORM@ 000000018001e390     segment.obj
 0002:000083a0       ??_C@_08COOCPBE@SEG_XTRN@  000000018001e3a0     segment.obj
 0002:000083b0       ??_C@_08GJJJFPBA@SEG_CODE@ 000000018001e3b0     segment.obj
 0002:000083c0       ??_C@_08EDCMJCEH@SEG_DATA@ 000000018001e3c0     segment.obj
 0002:000083d0       ??_C@_07NLLMLIND@SEG_IMP@  000000018001e3d0     segment.obj
 0002:000083d8       ??_C@_07CMBJCLKN@SEG_GRP@  000000018001e3d8     segment.obj
 0002:000083e0       ??_C@_08HBHMMGKL@SEG_NULL@ 000000018001e3e0     segment.obj
 0002:000083f0       ??_C@_08BFKIAJJE@SEG_UNDF@ 000000018001e3f0     segment.obj
 0002:00008400       ??_C@_07DBCIOCGL@SEG_BSS@  000000018001e400     segment.obj
 0002:00008408       ??_C@_0L@BLBPFCPM@SEG_ABSSYM@ 000000018001e408     segment.obj
 0002:00008418       ??_C@_08KOJBOOJH@SEG_COMM@ 000000018001e418     segment.obj
 0002:00008428       ??_C@_08EADLGPAF@SEG_IMEM@ 000000018001e428     segment.obj
 0002:00008438       ??_C@_0BF@OLBNCPBL@SEG_MAX_SEGTYPE_CODE@ 000000018001e438     segment.obj
 0002:00008450       ??_C@_0O@COHNENCO@ADDSEG_NOSREG@ 000000018001e450     segment.obj
 0002:00008460       ??_C@_0O@LMOMCJHL@ADDSEG_OR_DIE@ 000000018001e460     segment.obj
 0002:00008470       ??_C@_0P@EFGBDAOM@ADDSEG_NOTRUNC@ 000000018001e470     segment.obj
 0002:00008480       ??_C@_0N@IMDMGFDN@ADDSEG_QUIET@ 000000018001e480     segment.obj
 0002:00008490       ??_C@_0P@FFKCCOMN@ADDSEG_FILLGAP@ 000000018001e490     segment.obj
 0002:000084a0       ??_C@_0O@OKEJHJMM@ADDSEG_SPARSE@ 000000018001e4a0     segment.obj
 0002:000084b0       ??_C@_0M@DEHEHIKH@ADDSEG_NOAA@ 000000018001e4b0     segment.obj
 0002:000084c0       ??_C@_0O@HJGKHIJC@ADDSEG_IDBENC@ 000000018001e4c0     segment.obj
 0002:000084d0       ??_C@_0M@GKDJMNAD@SEGMOD_KILL@ 000000018001e4d0     segment.obj
 0002:000084e0       ??_C@_0M@MJEJBEGJ@SEGMOD_KEEP@ 000000018001e4e0     segment.obj
 0002:000084f0       ??_C@_0O@EDBCCCEO@SEGMOD_SILENT@ 000000018001e4f0     segment.obj
 0002:00008500       ??_C@_0N@OLOBKGBL@SEGMOD_KEEP0@ 000000018001e500     segment.obj
 0002:00008510       ??_C@_0P@JFINDBGJ@SEGMOD_KEEPSEL@ 000000018001e510     segment.obj
 0002:00008520       ??_C@_0O@IAHDCEFB@SEGMOD_NOMOVE@ 000000018001e520     segment.obj
 0002:00008530       ??_C@_0O@BFLCMJLJ@SEGMOD_SPARSE@ 000000018001e530     segment.obj
 0002:00008540       ??_C@_0L@FFHJDBAE@MSF_SILENT@ 000000018001e540     segment.obj
 0002:00008550       ??_C@_09FKCGPGGI@MSF_NOFIX@ 000000018001e550     segment.obj
 0002:00008560       ??_C@_0L@KCGIDIAI@MSF_LDKEEP@ 000000018001e560     segment.obj
 0002:00008570       ??_C@_0M@HFPDNEPO@MSF_FIXONCE@ 000000018001e570     segment.obj
 0002:00008580       ??_C@_0L@PJHGDHHG@MFS_NETMAP@ 000000018001e580     segment.obj
 0002:00008590       ??_C@_0N@NJOCBIIO@MSF_PRIORITY@ 000000018001e590     segment.obj
 0002:000085a0       ??_C@_0N@IJCPHOBN@MOVE_SEGM_OK@ 000000018001e5a0     segment.obj
 0002:000085b0       ??_C@_0BA@ODCIOAPC@MOVE_SEGM_PARAM@ 000000018001e5b0     segment.obj
 0002:000085c0       ??_C@_0P@GBNCIGNJ@MOVE_SEGM_ROOM@ 000000018001e5c0     segment.obj
 0002:000085d0       ??_C@_0O@PHADAGBC@MOVE_SEGM_IDP@ 000000018001e5d0     segment.obj
 0002:000085e0       ??_C@_0BA@KLKLCKLE@MOVE_SEGM_CHUNK@ 000000018001e5e0     segment.obj
 0002:000085f0       ??_C@_0BB@FPCEFPBE@MOVE_SEGM_LOADER@ 000000018001e5f0     segment.obj
 0002:00008608       ??_C@_0O@PMMGIOJL@MOVE_SEGM_ODD@ 000000018001e608     segment.obj
 0002:00008618       ??_C@_0BB@CHKMKAMH@MOVE_SEGM_ORPHAN@ 000000018001e618     segment.obj
 0002:0000862c       ??_C@_06BJPMMDOA@CSS_OK@   000000018001e62c     segment.obj
 0002:00008638       ??_C@_09BLLCNAGA@CSS_NODBG@ 000000018001e638     segment.obj
 0002:00008648       ??_C@_0M@PENCFGBI@CSS_NORANGE@ 000000018001e648     segment.obj
 0002:00008658       ??_C@_09JJBKGBOF@CSS_NOMEM@ 000000018001e658     segment.obj
 0002:00008668       ??_C@_09OCEPNFBI@CSS_BREAK@ 000000018001e668     segment.obj
 0002:00008678       ??_C@_0L@KGOAIGEF@MAX_GROUPS@ 000000018001e678     segment.obj
 0002:00008688       ??_C@_0BG@KBLKMEJG@MAX_SEGM_TRANSLATIONS@ 000000018001e688     segment.obj
 0002:0000869e       ?nullstr@?1??c_str@?$_qstring@D@@QEBAPEBDXZ@4QBDB 000000018001e69e     segment.obj
 0002:000086d0       ??_C@_1EC@JIJBPKFM@?$AAa?$AAp?$AAi?$AA?9?$AAm?$AAs?$AA?9?$AAw?$AAi?$AAn?$AA?9?$AAc?$AAo?$AAr?$AAe@ 000000018001e6d0     MSVCRT:thread_safe_statics.obj
 0002:00008718       ??_C@_1BK@MGMFAEKH@?$AAk?$AAe?$AAr?$AAn?$AAe?$AAl?$AA3?$AA2?$AA?4?$AAd?$AAl?$AAl@ 000000018001e718     MSVCRT:thread_safe_statics.obj
 0002:00008738       ??_C@_0BM@HLJJNPAH@InitializeConditionVariable@ 000000018001e738     MSVCRT:thread_safe_statics.obj
 0002:00008758       ??_C@_0BJ@JEBJOJFJ@SleepConditionVariableCS@ 000000018001e758     MSVCRT:thread_safe_statics.obj
 0002:00008778       ??_C@_0BJ@PGPPEPCC@WakeAllConditionVariable@ 000000018001e778     MSVCRT:thread_safe_statics.obj
 0002:000087a0       ??_7type_info@@6B@         000000018001e7a0     MSVCRT:std_type_info_static.obj
 0002:000087a8       _pRawDllMain               000000018001e7a8     MSVCRT:dll_dllmain.obj
 0002:000087a8       _pDefaultRawDllMain        000000018001e7a8     MSVCRT:dll_dllmain.obj
 0002:000087b8       ??_7exception@std@@6B@     000000018001e7b8     MSVCRT:throw_bad_alloc.obj
 0002:000087d0       ??_7bad_alloc@std@@6B@     000000018001e7d0     MSVCRT:throw_bad_alloc.obj
 0002:000087e0       ??_C@_0P@GHFPNOJB@bad?5allocation@ 000000018001e7e0     MSVCRT:throw_bad_alloc.obj
 0002:000087f8       ??_7bad_array_new_length@std@@6B@ 000000018001e7f8     MSVCRT:throw_bad_alloc.obj
 0002:00008808       ??_C@_0BF@KINCDENJ@bad?5array?5new?5length@ 000000018001e808     MSVCRT:throw_bad_alloc.obj
 0002:00008890       _load_config_used          000000018001e890     MSVCRT:loadcfg.obj
 0002:00008990       _tls_used                  000000018001e990     MSVCRT:tlssup.obj
 0002:000089b8       ??_R4type_info@@6B@        000000018001e9b8     MSVCRT:std_type_info_static.obj
 0002:000089e0       ??_R3type_info@@8          000000018001e9e0     MSVCRT:std_type_info_static.obj
 0002:000089f8       ??_R2type_info@@8          000000018001e9f8     MSVCRT:std_type_info_static.obj
 0002:00008a08       ??_R1A@?0A@EA@type_info@@8 000000018001ea08     MSVCRT:std_type_info_static.obj
 0002:00008a30       ??_R4exception@std@@6B@    000000018001ea30     MSVCRT:throw_bad_alloc.obj
 0002:00008a58       ??_R3exception@std@@8      000000018001ea58     MSVCRT:throw_bad_alloc.obj
 0002:00008a70       ??_R2exception@std@@8      000000018001ea70     MSVCRT:throw_bad_alloc.obj
 0002:00008a80       ??_R1A@?0A@EA@exception@std@@8 000000018001ea80     MSVCRT:throw_bad_alloc.obj
 0002:00008aa8       ??_R4bad_alloc@std@@6B@    000000018001eaa8     MSVCRT:throw_bad_alloc.obj
 0002:00008ad0       ??_R3bad_alloc@std@@8      000000018001ead0     MSVCRT:throw_bad_alloc.obj
 0002:00008ae8       ??_R2bad_alloc@std@@8      000000018001eae8     MSVCRT:throw_bad_alloc.obj
 0002:00008b00       ??_R1A@?0A@EA@bad_alloc@std@@8 000000018001eb00     MSVCRT:throw_bad_alloc.obj
 0002:00008b28       ??_R4bad_array_new_length@std@@6B@ 000000018001eb28     MSVCRT:throw_bad_alloc.obj
 0002:00008b50       ??_R3bad_array_new_length@std@@8 000000018001eb50     MSVCRT:throw_bad_alloc.obj
 0002:00008b68       ??_R2bad_array_new_length@std@@8 000000018001eb68     MSVCRT:throw_bad_alloc.obj
 0002:00008b88       ??_R1A@?0A@EA@bad_array_new_length@std@@8 000000018001eb88     MSVCRT:throw_bad_alloc.obj
 0002:00008ec0       __rtc_iaa                  000000018001eec0     MSVCRT:initsect.obj
 0002:00008ec8       __rtc_izz                  000000018001eec8     MSVCRT:initsect.obj
 0002:00008ed0       __rtc_taa                  000000018001eed0     MSVCRT:initsect.obj
 0002:00008ed8       __rtc_tzz                  000000018001eed8     MSVCRT:initsect.obj
 0002:00008ee0       _tls_start                 000000018001eee0     MSVCRT:tlssup.obj
 0002:00008ee4       _Init_thread_epoch         000000018001eee4     MSVCRT:thread_safe_statics.obj
 0002:00008ee8       _tls_end                   000000018001eee8     MSVCRT:tlssup.obj
 0002:0000e4e0       _TI2?AVbad_alloc@std@@     00000001800244e0     MSVCRT:throw_bad_alloc.obj
 0002:0000e500       _CTA2?AVbad_alloc@std@@    0000000180024500     MSVCRT:throw_bad_alloc.obj
 0002:0000e518       _CT??_R0?AVbad_alloc@std@@@8??0bad_alloc@std@@QEAA@AEBV01@@Z24 0000000180024518     MSVCRT:throw_bad_alloc.obj
 0002:0000e540       _CT??_R0?AVexception@std@@@8??0exception@std@@QEAA@AEBV01@@Z24 0000000180024540     MSVCRT:throw_bad_alloc.obj
 0002:0000e568       _TI3?AVbad_array_new_length@std@@ 0000000180024568     MSVCRT:throw_bad_alloc.obj
 0002:0000e588       _CTA3?AVbad_array_new_length@std@@ 0000000180024588     MSVCRT:throw_bad_alloc.obj
 0002:0000e5a8       _CT??_R0?AVbad_array_new_length@std@@@8??0bad_array_new_length@std@@QEAA@AEBV01@@Z24 00000001800245a8     MSVCRT:throw_bad_alloc.obj
 0002:0000e628       __IMPORT_DESCRIPTOR_ida    0000000180024628     ida:ida.dll
 0002:0000e63c       __IMPORT_DESCRIPTOR_python38 000000018002463c     python38:python38.dll
 0002:0000e650       __IMPORT_DESCRIPTOR_python 0000000180024650     python:python.dll
 0002:0000e664       __IMPORT_DESCRIPTOR_KERNEL32 0000000180024664     kernel32:KERNEL32.dll
 0002:0000e678       __IMPORT_DESCRIPTOR_VCRUNTIME140 0000000180024678     vcruntime:VCRUNTIME140.dll
 0002:0000e68c       __IMPORT_DESCRIPTOR_api-ms-win-crt-stdio-l1-1-0 000000018002468c     ucrt:api-ms-win-crt-stdio-l1-1-0.dll
 0002:0000e6a0       __IMPORT_DESCRIPTOR_api-ms-win-crt-string-l1-1-0 00000001800246a0     ucrt:api-ms-win-crt-string-l1-1-0.dll
 0002:0000e6b4       __IMPORT_DESCRIPTOR_api-ms-win-crt-heap-l1-1-0 00000001800246b4     ucrt:api-ms-win-crt-heap-l1-1-0.dll
 0002:0000e6c8       __IMPORT_DESCRIPTOR_api-ms-win-crt-runtime-l1-1-0 00000001800246c8     ucrt:api-ms-win-crt-runtime-l1-1-0.dll
 0002:0000e6dc       __NULL_IMPORT_DESCRIPTOR   00000001800246dc     ida:ida.dll
 0003:00003528       _Init_global_epoch         0000000180029528     MSVCRT:thread_safe_statics.obj
 0003:00003530       __security_cookie_complement 0000000180029530     MSVCRT:gs_cookie.obj
 0003:00003538       __security_cookie          0000000180029538     MSVCRT:gs_cookie.obj
 0003:00003540       __scrt_native_dllmain_reason 0000000180029540     MSVCRT:utility.obj
 0003:00003548       __isa_available            0000000180029548     MSVCRT:cpu_disp.obj
 0003:0000354c       __isa_enabled              000000018002954c     MSVCRT:cpu_disp.obj
 0003:00003550       __memcpy_nt_iters          0000000180029550     MSVCRT:cpu_disp.obj
 0003:00003560       __scrt_ucrt_dll_is_in_use  0000000180029560     MSVCRT:ucrt_stubs.obj
 0003:00003568       ??_R0?AVexception@std@@@8  0000000180029568     segment.obj
 0003:00003590       ??_R0?AVDirectorException@Swig@@@8 0000000180029590     segment.obj
 0003:000035c0       ??_R0?AVbad_alloc@std@@@8  00000001800295c0     segment.obj
 0003:000035e8       ??_R0?AVout_of_range@std@@@8 00000001800295e8     segment.obj
 0003:00003610       ??_R0?AUinterr_exc_t@@@8   0000000180029610     segment.obj
 0003:00003638       ??_R0?AVtype_info@@@8      0000000180029638     MSVCRT:std_type_info_static.obj
 0003:00003658       ??_R0?AVbad_array_new_length@std@@@8 0000000180029658     MSVCRT:throw_bad_alloc.obj
 0003:000036c0       ?swig_mutex_own@Director@Swig@@0U_RTL_CRITICAL_SECTION@2@A 00000001800296c0     segment.obj
 0003:00003938       ?_OptionsStorage@?1??__local_stdio_printf_options@@9@4_KA 0000000180029938     segment.obj
 0003:000039c8       _tls_index                 00000001800299c8     MSVCRT:tlssup.obj
 0003:000039d0       __scrt_current_native_startup_state 00000001800299d0     MSVCRT:utility.obj
 0003:000039d8       __scrt_native_startup_lock 00000001800299d8     MSVCRT:utility.obj
 0003:00003a18       __scrt_debugger_hook_flag  0000000180029a18     MSVCRT:utility_desktop.obj
 0003:00003f90       ?__type_info_root_node@@3U__type_info_node@@A 0000000180029f90     MSVCRT:tncleanup.obj
 0003:00003fa0       ?_OptionsStorage@?1??__local_stdio_scanf_options@@9@4_KA 0000000180029fa0     MSVCRT:default_local_stdio_options.obj
 0003:00003fa8       __favor                    0000000180029fa8     MSVCRT:cpu_disp.obj
 0003:00003fb0       __dyn_tls_init_callback    0000000180029fb0     <common>

 entry point at        0001:0000d420

 Static symbols

 0000:fffd2000       .debug$S                   0000000180000000     python38:python38.dll
 0000:fffd2000       .debug$S                   0000000180000000     ida:ida.dll
 0000:fffd2000       .debug$S                   0000000180000000     ida:ida.dll
 0000:fffd2000       .debug$S                   0000000180000000     ida:ida.dll
 0000:fffd2000       .debug$S                   0000000180000000     ida:ida.dll
 0000:fffd2000       .debug$S                   0000000180000000     _ida_segment.exp
 0000:fffd2000       .debug$S                   0000000180000000     ida:ida.dll
 0000:fffd2000       .debug$S                   0000000180000000     ida:ida.dll
 0000:fffd2000       .debug$S                   0000000180000000     ida:ida.dll
 0000:fffd2000       .debug$S                   0000000180000000     ida:ida.dll
 0000:fffd2000       .debug$S                   0000000180000000     ida:ida.dll
 0000:fffd2000       .debug$S                   0000000180000000     ucrt:api-ms-win-crt-runtime-l1-1-0.dll
 0000:fffd2000       .debug$S                   0000000180000000     ucrt:api-ms-win-crt-runtime-l1-1-0.dll
 0000:fffd2000       .debug$S                   0000000180000000     ucrt:api-ms-win-crt-runtime-l1-1-0.dll
 0000:fffd2000       .debug$S                   0000000180000000     ucrt:api-ms-win-crt-runtime-l1-1-0.dll
 0000:fffd2000       .debug$S                   0000000180000000     ucrt:api-ms-win-crt-runtime-l1-1-0.dll
 0000:fffd2000       .debug$S                   0000000180000000     ucrt:api-ms-win-crt-runtime-l1-1-0.dll
 0000:fffd2000       .debug$S                   0000000180000000     ucrt:api-ms-win-crt-runtime-l1-1-0.dll
 0000:fffd2000       .debug$S                   0000000180000000     ucrt:api-ms-win-crt-runtime-l1-1-0.dll
 0000:fffd2000       .debug$S                   0000000180000000     ucrt:api-ms-win-crt-runtime-l1-1-0.dll
 0000:fffd2000       .debug$S                   0000000180000000     ucrt:api-ms-win-crt-runtime-l1-1-0.dll
 0000:fffd2000       .debug$S                   0000000180000000     ucrt:api-ms-win-crt-runtime-l1-1-0.dll
 0000:fffd2000       .debug$S                   0000000180000000     ucrt:api-ms-win-crt-runtime-l1-1-0.dll
 0000:fffd2000       .debug$S                   0000000180000000     ucrt:api-ms-win-crt-heap-l1-1-0.dll
 0000:fffd2000       .debug$S                   0000000180000000     ucrt:api-ms-win-crt-heap-l1-1-0.dll
 0000:fffd2000       .debug$S                   0000000180000000     ucrt:api-ms-win-crt-heap-l1-1-0.dll
 0000:fffd2000       .debug$S                   0000000180000000     ucrt:api-ms-win-crt-string-l1-1-0.dll
 0000:fffd2000       .debug$S                   0000000180000000     ucrt:api-ms-win-crt-string-l1-1-0.dll
 0000:fffd2000       .debug$S                   0000000180000000     ucrt:api-ms-win-crt-stdio-l1-1-0.dll
 0000:fffd2000       .debug$S                   0000000180000000     ucrt:api-ms-win-crt-stdio-l1-1-0.dll
 0000:fffd2000       .debug$S                   0000000180000000     ida:ida.dll
 0000:fffd2000       .debug$S                   0000000180000000     vcruntime:VCRUNTIME140.dll
 0000:fffd2000       .debug$S                   0000000180000000     vcruntime:VCRUNTIME140.dll
 0000:fffd2000       .debug$S                   0000000180000000     vcruntime:VCRUNTIME140.dll
 0000:fffd2000       .debug$S                   0000000180000000     vcruntime:VCRUNTIME140.dll
 0000:fffd2000       .debug$S                   0000000180000000     vcruntime:VCRUNTIME140.dll
 0000:fffd2000       .debug$S                   0000000180000000     vcruntime:VCRUNTIME140.dll
 0000:fffd2000       .debug$S                   0000000180000000     vcruntime:VCRUNTIME140.dll
 0000:fffd2000       .debug$S                   0000000180000000     vcruntime:VCRUNTIME140.dll
 0000:fffd2000       .debug$S                   0000000180000000     vcruntime:VCRUNTIME140.dll
 0000:fffd2000       .debug$S                   0000000180000000     vcruntime:VCRUNTIME140.dll
 0000:fffd2000       .debug$S                   0000000180000000     vcruntime:VCRUNTIME140.dll
 0000:fffd2000       .debug$S                   0000000180000000     ida:ida.dll
 0000:fffd2000       .debug$S                   0000000180000000     kernel32:KERNEL32.dll
 0000:fffd2000       .debug$S                   0000000180000000     kernel32:KERNEL32.dll
 0000:fffd2000       .debug$S                   0000000180000000     kernel32:KERNEL32.dll
 0000:fffd2000       .debug$S                   0000000180000000     kernel32:KERNEL32.dll
 0000:fffd2000       .debug$S                   0000000180000000     kernel32:KERNEL32.dll
 0000:fffd2000       .debug$S                   0000000180000000     kernel32:KERNEL32.dll
 0000:fffd2000       .debug$S                   0000000180000000     kernel32:KERNEL32.dll
 0000:fffd2000       .debug$S                   0000000180000000     kernel32:KERNEL32.dll
 0000:fffd2000       .debug$S                   0000000180000000     kernel32:KERNEL32.dll
 0000:fffd2000       .debug$S                   0000000180000000     kernel32:KERNEL32.dll
 0000:fffd2000       .debug$S                   0000000180000000     kernel32:KERNEL32.dll
 0000:fffd2000       .debug$S                   0000000180000000     kernel32:KERNEL32.dll
 0000:fffd2000       .debug$S                   0000000180000000     kernel32:KERNEL32.dll
 0000:fffd2000       .debug$S                   0000000180000000     kernel32:KERNEL32.dll
 0000:fffd2000       .debug$S                   0000000180000000     kernel32:KERNEL32.dll
 0000:fffd2000       .debug$S                   0000000180000000     kernel32:KERNEL32.dll
 0000:fffd2000       .debug$S                   0000000180000000     kernel32:KERNEL32.dll
 0000:fffd2000       .debug$S                   0000000180000000     kernel32:KERNEL32.dll
 0000:fffd2000       .debug$S                   0000000180000000     kernel32:KERNEL32.dll
 0000:fffd2000       .debug$S                   0000000180000000     kernel32:KERNEL32.dll
 0000:fffd2000       .debug$S                   0000000180000000     kernel32:KERNEL32.dll
 0000:fffd2000       .debug$S                   0000000180000000     kernel32:KERNEL32.dll
 0000:fffd2000       .debug$S                   0000000180000000     kernel32:KERNEL32.dll
 0000:fffd2000       .debug$S                   0000000180000000     kernel32:KERNEL32.dll
 0000:fffd2000       .debug$S                   0000000180000000     kernel32:KERNEL32.dll
 0000:fffd2000       .debug$S                   0000000180000000     kernel32:KERNEL32.dll
 0000:fffd2000       .debug$S                   0000000180000000     kernel32:KERNEL32.dll
 0000:fffd2000       .debug$S                   0000000180000000     ida:ida.dll
 0000:fffd2000       .debug$S                   0000000180000000     ida:ida.dll
 0000:fffd2000       .debug$S                   0000000180000000     ida:ida.dll
 0000:fffd2000       .debug$S                   0000000180000000     ida:ida.dll
 0000:fffd2000       .debug$S                   0000000180000000     ida:ida.dll
 0000:fffd2000       .debug$S                   0000000180000000     ida:ida.dll
 0000:fffd2000       .debug$S                   0000000180000000     ida:ida.dll
 0000:fffd2000       .debug$S                   0000000180000000     ida:ida.dll
 0000:fffd2000       .debug$S                   0000000180000000     ida:ida.dll
 0000:fffd2000       .debug$S                   0000000180000000     ida:ida.dll
 0000:fffd2000       .debug$S                   0000000180000000     ida:ida.dll
 0000:fffd2000       .debug$S                   0000000180000000     ida:ida.dll
 0000:fffd2000       .debug$S                   0000000180000000     ida:ida.dll
 0000:fffd2000       .debug$S                   0000000180000000     ida:ida.dll
 0000:fffd2000       .debug$S                   0000000180000000     ida:ida.dll
 0000:fffd2000       .debug$S                   0000000180000000     ida:ida.dll
 0000:fffd2000       .debug$S                   0000000180000000     ida:ida.dll
 0000:fffd2000       .debug$S                   0000000180000000     ida:ida.dll
 0000:fffd2000       .debug$S                   0000000180000000     ida:ida.dll
 0000:fffd2000       .debug$S                   0000000180000000     ida:ida.dll
 0000:fffd2000       .debug$S                   0000000180000000     ida:ida.dll
 0000:fffd2000       .debug$S                   0000000180000000     ida:ida.dll
 0000:fffd2000       .debug$S                   0000000180000000     ida:ida.dll
 0000:fffd2000       .debug$S                   0000000180000000     ida:ida.dll
 0000:fffd2000       .debug$S                   0000000180000000     ida:ida.dll
 0000:fffd2000       .debug$S                   0000000180000000     ida:ida.dll
 0000:fffd2000       .debug$S                   0000000180000000     ida:ida.dll
 0000:fffd2000       .debug$S                   0000000180000000     ida:ida.dll
 0000:fffd2000       .debug$S                   0000000180000000     ida:ida.dll
 0000:fffd2000       .debug$S                   0000000180000000     ida:ida.dll
 0000:fffd2000       .debug$S                   0000000180000000     ida:ida.dll
 0000:fffd2000       .debug$S                   0000000180000000     ida:ida.dll
 0000:fffd2000       .debug$S                   0000000180000000     ida:ida.dll
 0000:fffd2000       .debug$S                   0000000180000000     ida:ida.dll
 0000:fffd2000       .debug$S                   0000000180000000     ida:ida.dll
 0000:fffd2000       .debug$S                   0000000180000000     ida:ida.dll
 0000:fffd2000       .debug$S                   0000000180000000     ida:ida.dll
 0000:fffd2000       .debug$S                   0000000180000000     ida:ida.dll
 0000:fffd2000       .debug$S                   0000000180000000     ida:ida.dll
 0000:fffd2000       .debug$S                   0000000180000000     ida:ida.dll
 0000:fffd2000       .debug$S                   0000000180000000     ida:ida.dll
 0000:fffd2000       .debug$S                   0000000180000000     ida:ida.dll
 0000:fffd2000       .debug$S                   0000000180000000     ida:ida.dll
 0000:fffd2000       .debug$S                   0000000180000000     ida:ida.dll
 0000:fffd2000       .debug$S                   0000000180000000     ida:ida.dll
 0000:fffd2000       .debug$S                   0000000180000000     ida:ida.dll
 0000:fffd2000       .debug$S                   0000000180000000     ida:ida.dll
 0000:fffd2000       .debug$S                   0000000180000000     ida:ida.dll
 0000:fffd2000       .debug$S                   0000000180000000     ida:ida.dll
 0000:fffd2000       .debug$S                   0000000180000000     ida:ida.dll
 0000:fffd2000       .debug$S                   0000000180000000     ida:ida.dll
 0000:fffd2000       .debug$S                   0000000180000000     ida:ida.dll
 0000:fffd2000       .debug$S                   0000000180000000     python38:python38.dll
 0000:fffd2000       .debug$S                   0000000180000000     python38:python38.dll
 0000:fffd2000       .debug$S                   0000000180000000     python38:python38.dll
 0000:fffd2000       .debug$S                   0000000180000000     python38:python38.dll
 0000:fffd2000       .debug$S                   0000000180000000     python38:python38.dll
 0000:fffd2000       .debug$S                   0000000180000000     python38:python38.dll
 0000:fffd2000       .debug$S                   0000000180000000     python38:python38.dll
 0000:fffd2000       .debug$S                   0000000180000000     python38:python38.dll
 0000:fffd2000       .debug$S                   0000000180000000     python38:python38.dll
 0000:fffd2000       .debug$S                   0000000180000000     python38:python38.dll
 0000:fffd2000       .debug$S                   0000000180000000     python38:python38.dll
 0000:fffd2000       .debug$S                   0000000180000000     python:python.dll
 0000:fffd2000       .debug$S                   0000000180000000     python38:python38.dll
 0000:fffd2000       .debug$S                   0000000180000000     python38:python38.dll
 0000:fffd2000       .debug$S                   0000000180000000     python38:python38.dll
 0000:fffd2000       .debug$S                   0000000180000000     python38:python38.dll
 0000:fffd2000       .debug$S                   0000000180000000     python38:python38.dll
 0000:fffd2000       .debug$S                   0000000180000000     python38:python38.dll
 0000:fffd2000       .debug$S                   0000000180000000     python38:python38.dll
 0000:fffd2000       .debug$S                   0000000180000000     python38:python38.dll
 0000:fffd2000       .debug$S                   0000000180000000     python38:python38.dll
 0000:fffd2000       .debug$S                   0000000180000000     python38:python38.dll
 0000:fffd2000       .debug$S                   0000000180000000     python38:python38.dll
 0000:fffd2000       .debug$S                   0000000180000000     python38:python38.dll
 0000:fffd2000       .debug$S                   0000000180000000     python38:python38.dll
 0000:fffd2000       .debug$S                   0000000180000000     python38:python38.dll
 0000:fffd2000       .debug$S                   0000000180000000     python38:python38.dll
 0000:fffd2000       .debug$S                   0000000180000000     python38:python38.dll
 0000:fffd2000       .debug$S                   0000000180000000     python38:python38.dll
 0000:fffd2000       .debug$S                   0000000180000000     python38:python38.dll
 0000:fffd2000       .debug$S                   0000000180000000     python38:python38.dll
 0000:fffd2000       .debug$S                   0000000180000000     python38:python38.dll
 0000:fffd2000       .debug$S                   0000000180000000     python38:python38.dll
 0000:fffd2000       .debug$S                   0000000180000000     python38:python38.dll
 0000:fffd2000       .debug$S                   0000000180000000     python38:python38.dll
 0000:fffd2000       .debug$S                   0000000180000000     python38:python38.dll
 0000:fffd2000       .debug$S                   0000000180000000     python38:python38.dll
 0000:fffd2000       .debug$S                   0000000180000000     python38:python38.dll
 0000:fffd2000       .debug$S                   0000000180000000     python38:python38.dll
 0000:fffd2000       .debug$S                   0000000180000000     python38:python38.dll
 0000:fffd2000       .debug$S                   0000000180000000     python38:python38.dll
 0000:fffd2000       .debug$S                   0000000180000000     python38:python38.dll
 0000:fffd2000       .debug$S                   0000000180000000     python38:python38.dll
 0000:fffd2000       .debug$S                   0000000180000000     python38:python38.dll
 0000:fffd2000       .debug$S                   0000000180000000     python38:python38.dll
 0000:fffd2000       .debug$S                   0000000180000000     python38:python38.dll
 0000:fffd2000       .debug$S                   0000000180000000     python38:python38.dll
 0000:fffd2000       .debug$S                   0000000180000000     python38:python38.dll
 0000:fffd2000       .debug$S                   0000000180000000     python38:python38.dll
 0000:fffd2000       .debug$S                   0000000180000000     python38:python38.dll
 0000:fffd2000       .debug$S                   0000000180000000     python38:python38.dll
 0000:fffd2000       .debug$S                   0000000180000000     python38:python38.dll
 0000:fffd2000       .debug$S                   0000000180000000     python38:python38.dll
 0000:fffd2000       .debug$S                   0000000180000000     python38:python38.dll
 0000:fffd2000       .debug$S                   0000000180000000     python38:python38.dll
 0000:fffd2000       .debug$S                   0000000180000000     python38:python38.dll
 0000:fffd2000       .debug$S                   0000000180000000     python38:python38.dll
 0000:fffd2000       .debug$S                   0000000180000000     python38:python38.dll
 0000:fffd2000       .debug$S                   0000000180000000     python38:python38.dll
 0000:fffd2000       .debug$S                   0000000180000000     python38:python38.dll
 0000:fffd2000       .debug$S                   0000000180000000     python38:python38.dll
 0000:fffd2000       .debug$S                   0000000180000000     python38:python38.dll
 0000:fffd2000       .debug$S                   0000000180000000     python38:python38.dll
 0000:fffd2000       .debug$S                   0000000180000000     python38:python38.dll
 0000:fffd2000       .debug$S                   0000000180000000     python38:python38.dll
 0000:fffd2000       .debug$S                   0000000180000000     python38:python38.dll
 0000:fffd2000       .debug$S                   0000000180000000     python38:python38.dll
 0000:fffd2000       .debug$S                   0000000180000000     python38:python38.dll
 0000:fffd2000       .debug$S                   0000000180000000     python38:python38.dll
 0000:fffd2000       .debug$S                   0000000180000000     python38:python38.dll
 0000:fffd2000       .debug$S                   0000000180000000     python38:python38.dll
 0000:fffd2000       .debug$S                   0000000180000000     python38:python38.dll
 0000:fffd2000       .debug$S                   0000000180000000     python38:python38.dll
 0000:fffd2000       .debug$S                   0000000180000000     python38:python38.dll
 0000:fffd2000       .debug$S                   0000000180000000     python38:python38.dll
 0000:fffd2000       .debug$S                   0000000180000000     python38:python38.dll
 0000:fffd2000       .debug$S                   0000000180000000     python38:python38.dll
 0000:fffd2000       .debug$S                   0000000180000000     python38:python38.dll
 0000:fffd2000       .debug$S                   0000000180000000     python38:python38.dll
 0000:fffd2000       .debug$S                   0000000180000000     python38:python38.dll
 0000:fffd2000       .debug$S                   0000000180000000     python38:python38.dll
 0000:fffd2000       .debug$S                   0000000180000000     python38:python38.dll
 0000:fffd2000       .debug$S                   0000000180000000     python:python.dll
 0001:00000000       _wrap_del_segm             0000000180001000 f   segment.obj
 0001:00000160       _wrap_get_segm_qty         0000000180001160 f   segment.obj
 0001:000001f0       _wrap_getseg               00000001800011f0 f   segment.obj
 0001:000002d0       _wrap_getnseg              00000001800012d0 f   segment.obj
 0001:000003c0       _wrap_get_segm_num         00000001800013c0 f   segment.obj
 0001:00000490       _wrap_get_next_seg         0000000180001490 f   segment.obj
 0001:00000570       _wrap_get_prev_seg         0000000180001570 f   segment.obj
 0001:00000650       _wrap_get_first_seg        0000000180001650 f   segment.obj
 0001:000006e0       _wrap_get_last_seg         00000001800016e0 f   segment.obj
 0001:00000770       _wrap_get_segm_by_name     0000000180001770 f   segment.obj
 0001:000009c0       _wrap_set_segm_end         00000001800019c0 f   segment.obj
 0001:00000b50       _wrap_set_segm_start       0000000180001b50 f   segment.obj
 0001:00000ce0       _wrap_move_segm_start      0000000180001ce0 f   segment.obj
 0001:00000e70       _wrap_move_segm            0000000180001e70 f   segment.obj
 0001:000010b0       _wrap_change_segment_status 00000001800020b0 f   segment.obj
 0001:00001260       _wrap_take_memory_snapshot 0000000180002260 f   segment.obj
 0001:00001330       _wrap_is_miniidb           0000000180002330 f   segment.obj
 0001:000013d0       _wrap_set_segm_base        00000001800023d0 f   segment.obj
 0001:00001590       _wrap_set_group_selector   0000000180002590 f   segment.obj
 0001:00001710       _wrap_get_group_selector   0000000180002710 f   segment.obj
 0001:00001800       _wrap_add_segment_translation 0000000180002800 f   segment.obj
 0001:00001950       _wrap_set_segment_translations 0000000180002950 f   segment.obj
 0001:00001b70       _wrap_del_segment_translations 0000000180002b70 f   segment.obj
 0001:00001c40       _wrap_get_segment_translations 0000000180002c40 f   segment.obj
 0001:00001e80       _wrap_get_segment_cmt      0000000180002e80 f   segment.obj
 0001:000020f0       _wrap_set_segment_cmt      00000001800030f0 f   segment.obj
 0001:00002470       _wrap_std_out_segm_footer  0000000180003470 f   segment.obj
 0001:000026c0       _wrap_set_segm_name        00000001800036c0 f   segment.obj
 0001:00002a60       _wrap_get_segm_name        0000000180003a60 f   segment.obj
 0001:00002ce0       _wrap_get_visible_segm_name 0000000180003ce0 f   segment.obj
 0001:00002ee0       _wrap_get_segm_class       0000000180003ee0 f   segment.obj
 0001:000030d0       _wrap_set_segm_class       00000001800040d0 f   segment.obj
 0001:00003470       _wrap_segtype              0000000180004470 f   segment.obj
 0001:00003540       _wrap_get_segment_alignment 0000000180004540 f   segment.obj
 0001:00003650       _wrap_get_segment_combination 0000000180004650 f   segment.obj
 0001:00003760       _wrap_get_segm_para        0000000180004760 f   segment.obj
 0001:000038b0       _wrap_get_segm_base        00000001800048b0 f   segment.obj
 0001:00003a00       _wrap_set_segm_addressing  0000000180004a00 f   segment.obj
 0001:00003c00       _wrap_update_segm          0000000180004c00 f   segment.obj
 0001:00003d60       _wrap_segm_adjust_diff     0000000180004d60 f   segment.obj
 0001:00003f30       _wrap_segm_adjust_ea       0000000180004f30 f   segment.obj
 0001:000040e0       _wrap_get_defsr            00000001800050e0 f   segment.obj
 0001:00004270       _wrap_set_defsr            0000000180005270 f   segment.obj
 0001:00004490       _wrap_rebase_program       0000000180005490 f   segment.obj
 0001:00004600       _p_bytevec_tTo_p_qvectorT_unsigned_char_t 0000000180005600 f   segment.obj
 0001:00004600       _p_rangevec_tTo_p_qvectorT_range_t_t 0000000180005600 f   segment.obj
 0001:00004600       _p_segment_tTo_p_range_t   0000000180005600 f   segment.obj
 0001:00004600       _p_relobj_tTo_p_qvectorT_unsigned_char_t 0000000180005600 f   segment.obj
 0001:00004600       _p_reloc_info_tTo_p_qvectorT_unsigned_char_t 0000000180005600 f   segment.obj
 0001:00004610       SwigPyObject_repr2         0000000180005610 f   segment.obj
 0001:00004620       SwigPyObject_append        0000000180005620 f   segment.obj
 0001:00004680       SwigPyObject_next          0000000180005680 f   segment.obj
 0001:000046a0       SwigPyObject_disown        00000001800056a0 f   segment.obj
 0001:000046c0       SwigPyObject_acquire       00000001800056c0 f   segment.obj
 0001:000046e0       SwigPyObject_own           00000001800056e0 f   segment.obj
 0001:00004790       _wrap_new_segment_t        0000000180005790 f   segment.obj
 0001:00004820       _wrap_segment_t_name_set   0000000180005820 f   segment.obj
 0001:000049c0       _wrap_segment_t_name_get   00000001800059c0 f   segment.obj
 0001:00004ac0       _wrap_segment_t_sclass_set 0000000180005ac0 f   segment.obj
 0001:00004c60       _wrap_segment_t_sclass_get 0000000180005c60 f   segment.obj
 0001:00004d60       _wrap_segment_t_orgbase_set 0000000180005d60 f   segment.obj
 0001:00004f00       _wrap_segment_t_orgbase_get 0000000180005f00 f   segment.obj
 0001:00005000       _wrap_segment_t_align_set  0000000180006000 f   segment.obj
 0001:000051c0       _wrap_segment_t_align_get  00000001800061c0 f   segment.obj
 0001:000052c0       _wrap_segment_t_comb_set   00000001800062c0 f   segment.obj
 0001:00005480       _wrap_segment_t_comb_get   0000000180006480 f   segment.obj
 0001:00005580       _wrap_segment_t_perm_set   0000000180006580 f   segment.obj
 0001:00005740       _wrap_segment_t_perm_get   0000000180006740 f   segment.obj
 0001:00005840       _wrap_segment_t_bitness_set 0000000180006840 f   segment.obj
 0001:00005a00       _wrap_segment_t_bitness_get 0000000180006a00 f   segment.obj
 0001:00005b00       _wrap_segment_t_use32      0000000180006b00 f   segment.obj
 0001:00005c30       _wrap_segment_t_use64      0000000180006c30 f   segment.obj
 0001:00005d60       _wrap_segment_t_abits      0000000180006d60 f   segment.obj
 0001:00005e80       _wrap_segment_t_abytes     0000000180006e80 f   segment.obj
 0001:00005fb0       _wrap_segment_t_flags_set  0000000180006fb0 f   segment.obj
 0001:00006170       _wrap_segment_t_flags_get  0000000180007170 f   segment.obj
 0001:00006270       _wrap_segment_t_comorg     0000000180007270 f   segment.obj
 0001:00006390       _wrap_segment_t_set_comorg 0000000180007390 f   segment.obj
 0001:000064b0       _wrap_segment_t_clr_comorg 00000001800074b0 f   segment.obj
 0001:000065d0       _wrap_segment_t_ob_ok      00000001800075d0 f   segment.obj
 0001:000066f0       _wrap_segment_t_set_ob_ok  00000001800076f0 f   segment.obj
 0001:00006810       _wrap_segment_t_clr_ob_ok  0000000180007810 f   segment.obj
 0001:00006930       _wrap_segment_t_is_visible_segm 0000000180007930 f   segment.obj
 0001:00006a50       _wrap_segment_t_set_visible_segm 0000000180007a50 f   segment.obj
 0001:00006be0       _wrap_segment_t_set_debugger_segm 0000000180007be0 f   segment.obj
 0001:00006d70       _wrap_segment_t_is_loader_segm 0000000180007d70 f   segment.obj
 0001:00006e90       _wrap_segment_t_set_loader_segm 0000000180007e90 f   segment.obj
 0001:00007020       _wrap_segment_t_is_hidden_segtype 0000000180008020 f   segment.obj
 0001:00007140       _wrap_segment_t_set_hidden_segtype 0000000180008140 f   segment.obj
 0001:000072d0       _wrap_segment_t_is_header_segm 00000001800082d0 f   segment.obj
 0001:000073f0       _wrap_segment_t_set_header_segm 00000001800083f0 f   segment.obj
 0001:00007580       _wrap_segment_t_sel_set    0000000180008580 f   segment.obj
 0001:00007720       _wrap_segment_t_sel_get    0000000180008720 f   segment.obj
 0001:00007820       _wrap_segment_t_defsr_set  0000000180008820 f   segment.obj
 0001:00007ac0       _wrap_segment_t_defsr_get  0000000180008ac0 f   segment.obj
 0001:00007bd0       _wrap_segment_t_type_set   0000000180008bd0 f   segment.obj
 0001:00007d90       _wrap_segment_t_type_get   0000000180008d90 f   segment.obj
 0001:00007e90       _wrap_segment_t_color_set  0000000180008e90 f   segment.obj
 0001:00008030       _wrap_segment_t_color_get  0000000180009030 f   segment.obj
 0001:00008130       _wrap_segment_t_update     0000000180009130 f   segment.obj
 0001:00008260       _wrap_segment_t_start_ea_set 0000000180009260 f   segment.obj
 0001:00008410       _wrap_segment_t_start_ea_get 0000000180009410 f   segment.obj
 0001:00008520       _wrap_segment_t_end_ea_set 0000000180009520 f   segment.obj
 0001:000086d0       _wrap_segment_t_end_ea_get 00000001800096d0 f   segment.obj
 0001:000087f0       _wrap_delete_segment_t     00000001800097f0 f   segment.obj
 0001:00008920       segment_t_swigregister     0000000180009920 f   segment.obj
 0001:000089b0       lock_segment_swiginit      00000001800099b0 f   segment.obj
 0001:000089b0       segment_t_swiginit         00000001800099b0 f   segment.obj
 0001:000089c0       _wrap_is_visible_segm      00000001800099c0 f   segment.obj
 0001:00008b10       _wrap_is_finally_visible_segm 0000000180009b10 f   segment.obj
 0001:00008c80       _wrap_set_visible_segm     0000000180009c80 f   segment.obj
 0001:00008e30       _wrap_is_spec_segm         0000000180009e30 f   segment.obj
 0001:00008f40       _wrap_is_spec_ea           0000000180009f40 f   segment.obj
 0001:00009010       _wrap_lock_segm            000000018000a010 f   segment.obj
 0001:000091c0       _wrap_new_lock_segment     000000018000a1c0 f   segment.obj
 0001:00009300       _wrap_delete_lock_segment  000000018000a300 f   segment.obj
 0001:00009440       lock_segment_swigregister  000000018000a440 f   segment.obj
 0001:000094d0       _wrap_is_segm_locked       000000018000a4d0 f   segment.obj
 0001:00009630       _wrap_getn_selector        000000018000a630 f   segment.obj
 0001:00009770       _wrap_get_selector_qty     000000018000a770 f   segment.obj
 0001:00009800       _wrap_setup_selector       000000018000a800 f   segment.obj
 0001:000098d0       _wrap_allocate_selector    000000018000a8d0 f   segment.obj
 0001:000099a0       _wrap_find_free_selector   000000018000a9a0 f   segment.obj
 0001:00009a30       _wrap_set_selector         000000018000aa30 f   segment.obj
 0001:00009b90       _wrap_del_selector         000000018000ab90 f   segment.obj
 0001:00009c80       _wrap_sel2para             000000018000ac80 f   segment.obj
 0001:00009d70       _wrap_sel2ea               000000018000ad70 f   segment.obj
 0001:00009e60       _wrap_find_selector        000000018000ae60 f   segment.obj
 0001:00009f30       _wrap_get_segm_by_sel      000000018000af30 f   segment.obj
 0001:0000a020       _wrap_add_segm_ex          000000018000b020 f   segment.obj
 0001:0000a550       _wrap_add_segm             000000018000b550 f   segment.obj
 0001:0000aa90       ?SWIG_FromCharPtr@@YAPEAU_object@@PEBD@Z 000000018000ba90 f   segment.obj
 0001:0000ab30       ?SWIG_Python_AppendOutput@@YAPEAU_object@@PEAU1@0@Z 000000018000bb30 f   segment.obj
 0001:0000abd0       ?SWIG_Python_ErrorType@@YAPEAU_object@@H@Z 000000018000bbd0 f   segment.obj
 0001:0000ac6c       $LN17                      000000018000bc6c     segment.obj
 0001:0000aca0       ?SWIG_Python_UnpackTuple@@YA_JPEAU_object@@PEBD_J2PEAPEAU1@@Z 000000018000bca0 f   segment.obj
 0001:0000ae70       ?__raise_e@@YAXAEBVexception@std@@@Z 000000018000be70 f   segment.obj
 0001:0000aeb0       ?__raise_ie@@YAXAEBUinterr_exc_t@@@Z 000000018000beb0 f   segment.obj
 0001:0000b1e0       SWIG_InitializeModule      000000018000c1e0 f   segment.obj
 0001:0000b500       SWIG_MangledTypeQueryModule 000000018000c500 f   segment.obj
 0001:0000b5d0       SWIG_Python_DestroyModule  000000018000c5d0 f   segment.obj
 0001:0000b6c0       SWIG_Python_FixMethods     000000018000c6c0 f   segment.obj
 0001:0000b900       SWIG_Python_GetSwigThis    000000018000c900 f   segment.obj
 0001:0000b990       SWIG_Python_InitShadowInstance 000000018000c990 f   segment.obj
 0001:0000ba90       SWIG_Python_NewPointerObj  000000018000ca90 f   segment.obj
 0001:0000bcb0       SWIG_Python_TypeCache      000000018000ccb0 f   segment.obj
 0001:0000bd20       SWIG_Python_TypeQuery      000000018000cd20 f   segment.obj
 0001:0000bf60       SWIG_This                  000000018000cf60 f   segment.obj
 0001:0000bf90       SWIG_TypeCheck             000000018000cf90 f   segment.obj
 0001:0000c030       SWIG_TypeClientData        000000018000d030 f   segment.obj
 0001:0000c080       SwigPyClientData_New       000000018000d080 f   segment.obj
 0001:0000c190       SwigPyObject_Check         000000018000d190 f   segment.obj
 0001:0000c210       SwigPyObject_New           000000018000d210 f   segment.obj
 0001:0000c260       SwigPyObject_dealloc       000000018000d260 f   segment.obj
 0001:0000c3f0       SwigPyObject_long          000000018000d3f0 f   segment.obj
 0001:0000c400       SwigPyObject_repr          000000018000d400 f   segment.obj
 0001:0000c4c0       SwigPyObject_richcompare   000000018000d4c0 f   segment.obj
 0001:0000c510       SwigPyObject_type          000000018000d510 f   segment.obj
 0001:0000c650       SwigPyPacked_Check         000000018000d650 f   segment.obj
 0001:0000c6d0       SwigPyPacked_dealloc       000000018000d6d0 f   segment.obj
 0001:0000c700       SwigPyPacked_repr          000000018000d700 f   segment.obj
 0001:0000c800       SwigPyPacked_str           000000018000d800 f   segment.obj
 0001:0000c900       SwigPyPacked_type          000000018000d900 f   segment.obj
 0001:0000cc74       ?__scrt_initialize_thread_safe_statics@@YAHXZ 000000018000dc74 f   MSVCRT:thread_safe_statics.obj
 0001:0000cdd4       ?__scrt_uninitialize_thread_safe_statics@@YAXXZ 000000018000ddd4 f   MSVCRT:thread_safe_statics.obj
 0001:0000d090       $$000000                   000000018000e090     MSVCRT:amdsecgs.obj
 0001:0000d0f0       ?dllmain_crt_dispatch@@YAHQEAUHINSTANCE__@@KQEAX@Z 000000018000e0f0 f   MSVCRT:dll_dllmain.obj
 0001:0000d140       ?dllmain_crt_process_attach@@YAHQEAUHINSTANCE__@@QEAX@Z 000000018000e140 f   MSVCRT:dll_dllmain.obj
 0001:0000d25c       ?dllmain_crt_process_detach@@YAH_N@Z 000000018000e25c f   MSVCRT:dll_dllmain.obj
 0001:0000d2ec       ?dllmain_dispatch@@YAHQEAUHINSTANCE__@@KQEAX@Z 000000018000e2ec f   MSVCRT:dll_dllmain.obj
 0001:0000dc50       capture_previous_context   000000018000ec50 f   MSVCRT:gs_report.obj
 0001:0000e090       $$000000                   000000018000f090     MSVCRT:guard_dispatch.obj
 0001:0000e0b0       _wrap_add_segm$catch$5     000000018000f0b0 f   segment.obj
 0001:0000e0bd       __catch$_wrap_add_segm$7   000000018000f0bd f   segment.obj
 0001:0000e0e3       _wrap_add_segm$catch$4     000000018000f0e3 f   segment.obj
 0001:0000e0f0       __catch$_wrap_add_segm$9   000000018000f0f0 f   segment.obj
 0001:0000e11f       _wrap_add_segm$catch$3     000000018000f11f f   segment.obj
 0001:0000e12c       __catch$_wrap_add_segm$11  000000018000f12c f   segment.obj
 0001:0000e147       _wrap_add_segm$catch$2     000000018000f147 f   segment.obj
 0001:0000e154       __catch$_wrap_add_segm$13  000000018000f154 f   segment.obj
 0001:0000e16f       _wrap_add_segm$catch$1     000000018000f16f f   segment.obj
 0001:0000e17c       __catch$_wrap_add_segm$15  000000018000f17c f   segment.obj
 0001:0000e1a8       _wrap_add_segm$catch$0     000000018000f1a8 f   segment.obj
 0001:0000e1b5       __catch$_wrap_add_segm$17  000000018000f1b5 f   segment.obj
 0001:0000e1e0       _wrap_add_segm_ex$catch$5  000000018000f1e0 f   segment.obj
 0001:0000e1ed       __catch$_wrap_add_segm_ex$5 000000018000f1ed f   segment.obj
 0001:0000e213       _wrap_add_segm_ex$catch$4  000000018000f213 f   segment.obj
 0001:0000e220       __catch$_wrap_add_segm_ex$7 000000018000f220 f   segment.obj
 0001:0000e24c       _wrap_add_segm_ex$catch$3  000000018000f24c f   segment.obj
 0001:0000e259       __catch$_wrap_add_segm_ex$9 000000018000f259 f   segment.obj
 0001:0000e271       _wrap_add_segm_ex$catch$2  000000018000f271 f   segment.obj
 0001:0000e27e       __catch$_wrap_add_segm_ex$11 000000018000f27e f   segment.obj
 0001:0000e296       _wrap_add_segm_ex$catch$1  000000018000f296 f   segment.obj
 0001:0000e2a3       __catch$_wrap_add_segm_ex$13 000000018000f2a3 f   segment.obj
 0001:0000e2cf       _wrap_add_segm_ex$catch$0  000000018000f2cf f   segment.obj
 0001:0000e2dc       __catch$_wrap_add_segm_ex$15 000000018000f2dc f   segment.obj
 0001:0000e310       _wrap_add_segment_translation$catch$5 000000018000f310 f   segment.obj
 0001:0000e31d       __catch$_wrap_add_segment_translation$3 000000018000f31d f   segment.obj
 0001:0000e343       _wrap_add_segment_translation$catch$4 000000018000f343 f   segment.obj
 0001:0000e350       __catch$_wrap_add_segment_translation$5 000000018000f350 f   segment.obj
 0001:0000e37c       _wrap_add_segment_translation$catch$3 000000018000f37c f   segment.obj
 0001:0000e389       __catch$_wrap_add_segment_translation$7 000000018000f389 f   segment.obj
 0001:0000e3a1       _wrap_add_segment_translation$catch$2 000000018000f3a1 f   segment.obj
 0001:0000e3ae       __catch$_wrap_add_segment_translation$9 000000018000f3ae f   segment.obj
 0001:0000e3c6       _wrap_add_segment_translation$catch$1 000000018000f3c6 f   segment.obj
 0001:0000e3d3       __catch$_wrap_add_segment_translation$11 000000018000f3d3 f   segment.obj
 0001:0000e3ff       _wrap_add_segment_translation$catch$0 000000018000f3ff f   segment.obj
 0001:0000e40c       __catch$_wrap_add_segment_translation$13 000000018000f40c f   segment.obj
 0001:0000e440       _wrap_allocate_selector$catch$5 000000018000f440 f   segment.obj
 0001:0000e44d       __catch$_wrap_allocate_selector$2 000000018000f44d f   segment.obj
 0001:0000e473       _wrap_allocate_selector$catch$4 000000018000f473 f   segment.obj
 0001:0000e480       __catch$_wrap_allocate_selector$4 000000018000f480 f   segment.obj
 0001:0000e4ac       _wrap_allocate_selector$catch$3 000000018000f4ac f   segment.obj
 0001:0000e4b9       __catch$_wrap_allocate_selector$6 000000018000f4b9 f   segment.obj
 0001:0000e4d1       _wrap_allocate_selector$catch$2 000000018000f4d1 f   segment.obj
 0001:0000e4de       __catch$_wrap_allocate_selector$8 000000018000f4de f   segment.obj
 0001:0000e4f6       _wrap_allocate_selector$catch$1 000000018000f4f6 f   segment.obj
 0001:0000e503       __catch$_wrap_allocate_selector$10 000000018000f503 f   segment.obj
 0001:0000e52f       _wrap_allocate_selector$catch$0 000000018000f52f f   segment.obj
 0001:0000e53c       __catch$_wrap_allocate_selector$12 000000018000f53c f   segment.obj
 0001:0000e570       _wrap_change_segment_status$catch$5 000000018000f570 f   segment.obj
 0001:0000e57d       __catch$_wrap_change_segment_status$3 000000018000f57d f   segment.obj
 0001:0000e5a3       _wrap_change_segment_status$catch$4 000000018000f5a3 f   segment.obj
 0001:0000e5b0       __catch$_wrap_change_segment_status$5 000000018000f5b0 f   segment.obj
 0001:0000e5dc       _wrap_change_segment_status$catch$3 000000018000f5dc f   segment.obj
 0001:0000e5e9       __catch$_wrap_change_segment_status$7 000000018000f5e9 f   segment.obj
 0001:0000e601       _wrap_change_segment_status$catch$2 000000018000f601 f   segment.obj
 0001:0000e60e       __catch$_wrap_change_segment_status$9 000000018000f60e f   segment.obj
 0001:0000e626       _wrap_change_segment_status$catch$1 000000018000f626 f   segment.obj
 0001:0000e633       __catch$_wrap_change_segment_status$11 000000018000f633 f   segment.obj
 0001:0000e65f       _wrap_change_segment_status$catch$0 000000018000f65f f   segment.obj
 0001:0000e66c       __catch$_wrap_change_segment_status$13 000000018000f66c f   segment.obj
 0001:0000e6a0       _wrap_del_segm$catch$5     000000018000f6a0 f   segment.obj
 0001:0000e6ad       __catch$_wrap_del_segm$3   000000018000f6ad f   segment.obj
 0001:0000e6d3       _wrap_del_segm$catch$4     000000018000f6d3 f   segment.obj
 0001:0000e6e0       __catch$_wrap_del_segm$5   000000018000f6e0 f   segment.obj
 0001:0000e70c       _wrap_del_segm$catch$3     000000018000f70c f   segment.obj
 0001:0000e719       __catch$_wrap_del_segm$7   000000018000f719 f   segment.obj
 0001:0000e731       _wrap_del_segm$catch$2     000000018000f731 f   segment.obj
 0001:0000e73e       __catch$_wrap_del_segm$9   000000018000f73e f   segment.obj
 0001:0000e756       _wrap_del_segm$catch$1     000000018000f756 f   segment.obj
 0001:0000e763       __catch$_wrap_del_segm$11  000000018000f763 f   segment.obj
 0001:0000e78f       _wrap_del_segm$catch$0     000000018000f78f f   segment.obj
 0001:0000e79c       __catch$_wrap_del_segm$13  000000018000f79c f   segment.obj
 0001:0000e7d0       _wrap_del_segment_translations$catch$5 000000018000f7d0 f   segment.obj
 0001:0000e7dd       __catch$_wrap_del_segment_translations$2 000000018000f7dd f   segment.obj
 0001:0000e803       _wrap_del_segment_translations$catch$4 000000018000f803 f   segment.obj
 0001:0000e810       __catch$_wrap_del_segment_translations$4 000000018000f810 f   segment.obj
 0001:0000e83c       _wrap_del_segment_translations$catch$3 000000018000f83c f   segment.obj
 0001:0000e849       __catch$_wrap_del_segment_translations$6 000000018000f849 f   segment.obj
 0001:0000e861       _wrap_del_segment_translations$catch$2 000000018000f861 f   segment.obj
 0001:0000e86e       __catch$_wrap_del_segment_translations$8 000000018000f86e f   segment.obj
 0001:0000e886       _wrap_del_segment_translations$catch$1 000000018000f886 f   segment.obj
 0001:0000e893       __catch$_wrap_del_segment_translations$10 000000018000f893 f   segment.obj
 0001:0000e8bf       _wrap_del_segment_translations$catch$0 000000018000f8bf f   segment.obj
 0001:0000e8cc       __catch$_wrap_del_segment_translations$12 000000018000f8cc f   segment.obj
 0001:0000e900       _wrap_del_selector$catch$5 000000018000f900 f   segment.obj
 0001:0000e90d       __catch$_wrap_del_selector$2 000000018000f90d f   segment.obj
 0001:0000e933       _wrap_del_selector$catch$4 000000018000f933 f   segment.obj
 0001:0000e940       __catch$_wrap_del_selector$4 000000018000f940 f   segment.obj
 0001:0000e96c       _wrap_del_selector$catch$3 000000018000f96c f   segment.obj
 0001:0000e979       __catch$_wrap_del_selector$6 000000018000f979 f   segment.obj
 0001:0000e991       _wrap_del_selector$catch$2 000000018000f991 f   segment.obj
 0001:0000e99e       __catch$_wrap_del_selector$8 000000018000f99e f   segment.obj
 0001:0000e9b6       _wrap_del_selector$catch$1 000000018000f9b6 f   segment.obj
 0001:0000e9c3       __catch$_wrap_del_selector$10 000000018000f9c3 f   segment.obj
 0001:0000e9ef       _wrap_del_selector$catch$0 000000018000f9ef f   segment.obj
 0001:0000e9fc       __catch$_wrap_del_selector$12 000000018000f9fc f   segment.obj
 0001:0000ea30       _wrap_delete_lock_segment$catch$5 000000018000fa30 f   segment.obj
 0001:0000ea3d       __catch$_wrap_delete_lock_segment$2 000000018000fa3d f   segment.obj
 0001:0000ea63       _wrap_delete_lock_segment$catch$4 000000018000fa63 f   segment.obj
 0001:0000ea70       __catch$_wrap_delete_lock_segment$4 000000018000fa70 f   segment.obj
 0001:0000ea9c       _wrap_delete_lock_segment$catch$3 000000018000fa9c f   segment.obj
 0001:0000eaa9       __catch$_wrap_delete_lock_segment$6 000000018000faa9 f   segment.obj
 0001:0000eac1       _wrap_delete_lock_segment$catch$2 000000018000fac1 f   segment.obj
 0001:0000eace       __catch$_wrap_delete_lock_segment$8 000000018000face f   segment.obj
 0001:0000eae6       _wrap_delete_lock_segment$catch$1 000000018000fae6 f   segment.obj
 0001:0000eaf3       __catch$_wrap_delete_lock_segment$10 000000018000faf3 f   segment.obj
 0001:0000eb1f       _wrap_delete_lock_segment$catch$0 000000018000fb1f f   segment.obj
 0001:0000eb2c       __catch$_wrap_delete_lock_segment$12 000000018000fb2c f   segment.obj
 0001:0000eb60       _wrap_delete_segment_t$catch$5 000000018000fb60 f   segment.obj
 0001:0000eb6d       __catch$_wrap_delete_segment_t$2 000000018000fb6d f   segment.obj
 0001:0000eb93       _wrap_delete_segment_t$catch$4 000000018000fb93 f   segment.obj
 0001:0000eba0       __catch$_wrap_delete_segment_t$4 000000018000fba0 f   segment.obj
 0001:0000ebcc       _wrap_delete_segment_t$catch$3 000000018000fbcc f   segment.obj
 0001:0000ebd9       __catch$_wrap_delete_segment_t$6 000000018000fbd9 f   segment.obj
 0001:0000ebf1       _wrap_delete_segment_t$catch$2 000000018000fbf1 f   segment.obj
 0001:0000ebfe       __catch$_wrap_delete_segment_t$8 000000018000fbfe f   segment.obj
 0001:0000ec16       _wrap_delete_segment_t$catch$1 000000018000fc16 f   segment.obj
 0001:0000ec23       __catch$_wrap_delete_segment_t$10 000000018000fc23 f   segment.obj
 0001:0000ec4f       _wrap_delete_segment_t$catch$0 000000018000fc4f f   segment.obj
 0001:0000ec5c       __catch$_wrap_delete_segment_t$12 000000018000fc5c f   segment.obj
 0001:0000ec90       _wrap_find_free_selector$catch$5 000000018000fc90 f   segment.obj
 0001:0000ec9d       __catch$_wrap_find_free_selector$1 000000018000fc9d f   segment.obj
 0001:0000ecc3       _wrap_find_free_selector$catch$4 000000018000fcc3 f   segment.obj
 0001:0000ecd0       __catch$_wrap_find_free_selector$3 000000018000fcd0 f   segment.obj
 0001:0000ecfc       _wrap_find_free_selector$catch$3 000000018000fcfc f   segment.obj
 0001:0000ed09       __catch$_wrap_find_free_selector$5 000000018000fd09 f   segment.obj
 0001:0000ed21       _wrap_find_free_selector$catch$2 000000018000fd21 f   segment.obj
 0001:0000ed2e       __catch$_wrap_find_free_selector$7 000000018000fd2e f   segment.obj
 0001:0000ed46       _wrap_find_free_selector$catch$1 000000018000fd46 f   segment.obj
 0001:0000ed53       __catch$_wrap_find_free_selector$9 000000018000fd53 f   segment.obj
 0001:0000ed7f       _wrap_find_free_selector$catch$0 000000018000fd7f f   segment.obj
 0001:0000ed8c       __catch$_wrap_find_free_selector$11 000000018000fd8c f   segment.obj
 0001:0000edc0       _wrap_find_selector$catch$5 000000018000fdc0 f   segment.obj
 0001:0000edcd       __catch$_wrap_find_selector$2 000000018000fdcd f   segment.obj
 0001:0000edf3       _wrap_find_selector$catch$4 000000018000fdf3 f   segment.obj
 0001:0000ee00       __catch$_wrap_find_selector$4 000000018000fe00 f   segment.obj
 0001:0000ee2c       _wrap_find_selector$catch$3 000000018000fe2c f   segment.obj
 0001:0000ee39       __catch$_wrap_find_selector$6 000000018000fe39 f   segment.obj
 0001:0000ee51       _wrap_find_selector$catch$2 000000018000fe51 f   segment.obj
 0001:0000ee5e       __catch$_wrap_find_selector$8 000000018000fe5e f   segment.obj
 0001:0000ee76       _wrap_find_selector$catch$1 000000018000fe76 f   segment.obj
 0001:0000ee83       __catch$_wrap_find_selector$10 000000018000fe83 f   segment.obj
 0001:0000eeaf       _wrap_find_selector$catch$0 000000018000feaf f   segment.obj
 0001:0000eebc       __catch$_wrap_find_selector$12 000000018000febc f   segment.obj
 0001:0000eef0       _wrap_get_defsr$catch$5    000000018000fef0 f   segment.obj
 0001:0000eefd       __catch$_wrap_get_defsr$3  000000018000fefd f   segment.obj
 0001:0000ef23       _wrap_get_defsr$catch$4    000000018000ff23 f   segment.obj
 0001:0000ef30       __catch$_wrap_get_defsr$5  000000018000ff30 f   segment.obj
 0001:0000ef5c       _wrap_get_defsr$catch$3    000000018000ff5c f   segment.obj
 0001:0000ef69       __catch$_wrap_get_defsr$7  000000018000ff69 f   segment.obj
 0001:0000ef81       _wrap_get_defsr$catch$2    000000018000ff81 f   segment.obj
 0001:0000ef8e       __catch$_wrap_get_defsr$9  000000018000ff8e f   segment.obj
 0001:0000efa6       _wrap_get_defsr$catch$1    000000018000ffa6 f   segment.obj
 0001:0000efb3       __catch$_wrap_get_defsr$11 000000018000ffb3 f   segment.obj
 0001:0000efdf       _wrap_get_defsr$catch$0    000000018000ffdf f   segment.obj
 0001:0000efec       __catch$_wrap_get_defsr$13 000000018000ffec f   segment.obj
 0001:0000f020       _wrap_get_first_seg$catch$5 0000000180010020 f   segment.obj
 0001:0000f02d       __catch$_wrap_get_first_seg$1 000000018001002d f   segment.obj
 0001:0000f053       _wrap_get_first_seg$catch$4 0000000180010053 f   segment.obj
 0001:0000f060       __catch$_wrap_get_first_seg$3 0000000180010060 f   segment.obj
 0001:0000f08c       _wrap_get_first_seg$catch$3 000000018001008c f   segment.obj
 0001:0000f099       __catch$_wrap_get_first_seg$5 0000000180010099 f   segment.obj
 0001:0000f0b1       _wrap_get_first_seg$catch$2 00000001800100b1 f   segment.obj
 0001:0000f0be       __catch$_wrap_get_first_seg$7 00000001800100be f   segment.obj
 0001:0000f0d6       _wrap_get_first_seg$catch$1 00000001800100d6 f   segment.obj
 0001:0000f0e3       __catch$_wrap_get_first_seg$9 00000001800100e3 f   segment.obj
 0001:0000f10f       _wrap_get_first_seg$catch$0 000000018001010f f   segment.obj
 0001:0000f11c       __catch$_wrap_get_first_seg$11 000000018001011c f   segment.obj
 0001:0000f150       _wrap_get_group_selector$catch$5 0000000180010150 f   segment.obj
 0001:0000f15d       __catch$_wrap_get_group_selector$2 000000018001015d f   segment.obj
 0001:0000f183       _wrap_get_group_selector$catch$4 0000000180010183 f   segment.obj
 0001:0000f190       __catch$_wrap_get_group_selector$4 0000000180010190 f   segment.obj
 0001:0000f1bc       _wrap_get_group_selector$catch$3 00000001800101bc f   segment.obj
 0001:0000f1c9       __catch$_wrap_get_group_selector$6 00000001800101c9 f   segment.obj
 0001:0000f1e1       _wrap_get_group_selector$catch$2 00000001800101e1 f   segment.obj
 0001:0000f1ee       __catch$_wrap_get_group_selector$8 00000001800101ee f   segment.obj
 0001:0000f206       _wrap_get_group_selector$catch$1 0000000180010206 f   segment.obj
 0001:0000f213       __catch$_wrap_get_group_selector$10 0000000180010213 f   segment.obj
 0001:0000f23f       _wrap_get_group_selector$catch$0 000000018001023f f   segment.obj
 0001:0000f24c       __catch$_wrap_get_group_selector$12 000000018001024c f   segment.obj
 0001:0000f280       _wrap_get_last_seg$catch$5 0000000180010280 f   segment.obj
 0001:0000f28d       __catch$_wrap_get_last_seg$1 000000018001028d f   segment.obj
 0001:0000f2b3       _wrap_get_last_seg$catch$4 00000001800102b3 f   segment.obj
 0001:0000f2c0       __catch$_wrap_get_last_seg$3 00000001800102c0 f   segment.obj
 0001:0000f2ec       _wrap_get_last_seg$catch$3 00000001800102ec f   segment.obj
 0001:0000f2f9       __catch$_wrap_get_last_seg$5 00000001800102f9 f   segment.obj
 0001:0000f311       _wrap_get_last_seg$catch$2 0000000180010311 f   segment.obj
 0001:0000f31e       __catch$_wrap_get_last_seg$7 000000018001031e f   segment.obj
 0001:0000f336       _wrap_get_last_seg$catch$1 0000000180010336 f   segment.obj
 0001:0000f343       __catch$_wrap_get_last_seg$9 0000000180010343 f   segment.obj
 0001:0000f36f       _wrap_get_last_seg$catch$0 000000018001036f f   segment.obj
 0001:0000f37c       __catch$_wrap_get_last_seg$11 000000018001037c f   segment.obj
 0001:0000f3b0       _wrap_get_next_seg$catch$5 00000001800103b0 f   segment.obj
 0001:0000f3bd       __catch$_wrap_get_next_seg$2 00000001800103bd f   segment.obj
 0001:0000f3e3       _wrap_get_next_seg$catch$4 00000001800103e3 f   segment.obj
 0001:0000f3f0       __catch$_wrap_get_next_seg$4 00000001800103f0 f   segment.obj
 0001:0000f41c       _wrap_get_next_seg$catch$3 000000018001041c f   segment.obj
 0001:0000f429       __catch$_wrap_get_next_seg$6 0000000180010429 f   segment.obj
 0001:0000f441       _wrap_get_next_seg$catch$2 0000000180010441 f   segment.obj
 0001:0000f44e       __catch$_wrap_get_next_seg$8 000000018001044e f   segment.obj
 0001:0000f466       _wrap_get_next_seg$catch$1 0000000180010466 f   segment.obj
 0001:0000f473       __catch$_wrap_get_next_seg$10 0000000180010473 f   segment.obj
 0001:0000f49f       _wrap_get_next_seg$catch$0 000000018001049f f   segment.obj
 0001:0000f4ac       __catch$_wrap_get_next_seg$12 00000001800104ac f   segment.obj
 0001:0000f4e0       _wrap_get_prev_seg$catch$5 00000001800104e0 f   segment.obj
 0001:0000f4ed       __catch$_wrap_get_prev_seg$2 00000001800104ed f   segment.obj
 0001:0000f513       _wrap_get_prev_seg$catch$4 0000000180010513 f   segment.obj
 0001:0000f520       __catch$_wrap_get_prev_seg$4 0000000180010520 f   segment.obj
 0001:0000f54c       _wrap_get_prev_seg$catch$3 000000018001054c f   segment.obj
 0001:0000f559       __catch$_wrap_get_prev_seg$6 0000000180010559 f   segment.obj
 0001:0000f571       _wrap_get_prev_seg$catch$2 0000000180010571 f   segment.obj
 0001:0000f57e       __catch$_wrap_get_prev_seg$8 000000018001057e f   segment.obj
 0001:0000f596       _wrap_get_prev_seg$catch$1 0000000180010596 f   segment.obj
 0001:0000f5a3       __catch$_wrap_get_prev_seg$10 00000001800105a3 f   segment.obj
 0001:0000f5cf       _wrap_get_prev_seg$catch$0 00000001800105cf f   segment.obj
 0001:0000f5dc       __catch$_wrap_get_prev_seg$12 00000001800105dc f   segment.obj
 0001:0000f610       _wrap_get_segm_base$catch$5 0000000180010610 f   segment.obj
 0001:0000f61d       __catch$_wrap_get_segm_base$2 000000018001061d f   segment.obj
 0001:0000f643       _wrap_get_segm_base$catch$4 0000000180010643 f   segment.obj
 0001:0000f650       __catch$_wrap_get_segm_base$4 0000000180010650 f   segment.obj
 0001:0000f67c       _wrap_get_segm_base$catch$3 000000018001067c f   segment.obj
 0001:0000f689       __catch$_wrap_get_segm_base$6 0000000180010689 f   segment.obj
 0001:0000f6a1       _wrap_get_segm_base$catch$2 00000001800106a1 f   segment.obj
 0001:0000f6ae       __catch$_wrap_get_segm_base$8 00000001800106ae f   segment.obj
 0001:0000f6c6       _wrap_get_segm_base$catch$1 00000001800106c6 f   segment.obj
 0001:0000f6d3       __catch$_wrap_get_segm_base$10 00000001800106d3 f   segment.obj
 0001:0000f6ff       _wrap_get_segm_base$catch$0 00000001800106ff f   segment.obj
 0001:0000f70c       __catch$_wrap_get_segm_base$12 000000018001070c f   segment.obj
 0001:0000f740       _wrap_get_segm_by_name$catch$5 0000000180010740 f   segment.obj
 0001:0000f74d       __catch$_wrap_get_segm_by_name$2 000000018001074d f   segment.obj
 0001:0000f773       _wrap_get_segm_by_name$catch$4 0000000180010773 f   segment.obj
 0001:0000f780       __catch$_wrap_get_segm_by_name$4 0000000180010780 f   segment.obj
 0001:0000f7ac       _wrap_get_segm_by_name$catch$3 00000001800107ac f   segment.obj
 0001:0000f7b9       __catch$_wrap_get_segm_by_name$6 00000001800107b9 f   segment.obj
 0001:0000f7d1       _wrap_get_segm_by_name$catch$2 00000001800107d1 f   segment.obj
 0001:0000f7de       __catch$_wrap_get_segm_by_name$8 00000001800107de f   segment.obj
 0001:0000f7f6       _wrap_get_segm_by_name$catch$1 00000001800107f6 f   segment.obj
 0001:0000f803       __catch$_wrap_get_segm_by_name$10 0000000180010803 f   segment.obj
 0001:0000f82f       _wrap_get_segm_by_name$catch$0 000000018001082f f   segment.obj
 0001:0000f83c       __catch$_wrap_get_segm_by_name$12 000000018001083c f   segment.obj
 0001:0000f870       _wrap_get_segm_by_sel$catch$5 0000000180010870 f   segment.obj
 0001:0000f87d       __catch$_wrap_get_segm_by_sel$2 000000018001087d f   segment.obj
 0001:0000f8a3       _wrap_get_segm_by_sel$catch$4 00000001800108a3 f   segment.obj
 0001:0000f8b0       __catch$_wrap_get_segm_by_sel$4 00000001800108b0 f   segment.obj
 0001:0000f8dc       _wrap_get_segm_by_sel$catch$3 00000001800108dc f   segment.obj
 0001:0000f8e9       __catch$_wrap_get_segm_by_sel$6 00000001800108e9 f   segment.obj
 0001:0000f901       _wrap_get_segm_by_sel$catch$2 0000000180010901 f   segment.obj
 0001:0000f90e       __catch$_wrap_get_segm_by_sel$8 000000018001090e f   segment.obj
 0001:0000f926       _wrap_get_segm_by_sel$catch$1 0000000180010926 f   segment.obj
 0001:0000f933       __catch$_wrap_get_segm_by_sel$10 0000000180010933 f   segment.obj
 0001:0000f95f       _wrap_get_segm_by_sel$catch$0 000000018001095f f   segment.obj
 0001:0000f96c       __catch$_wrap_get_segm_by_sel$12 000000018001096c f   segment.obj
 0001:0000f9a0       _wrap_get_segm_class$catch$8 00000001800109a0 f   segment.obj
 0001:0000f9ad       __catch$_wrap_get_segm_class$2 00000001800109ad f   segment.obj
 0001:0000f9d3       _wrap_get_segm_class$catch$7 00000001800109d3 f   segment.obj
 0001:0000f9e0       __catch$_wrap_get_segm_class$4 00000001800109e0 f   segment.obj
 0001:0000fa0c       _wrap_get_segm_class$catch$6 0000000180010a0c f   segment.obj
 0001:0000fa19       __catch$_wrap_get_segm_class$6 0000000180010a19 f   segment.obj
 0001:0000fa31       _wrap_get_segm_class$catch$5 0000000180010a31 f   segment.obj
 0001:0000fa3e       __catch$_wrap_get_segm_class$8 0000000180010a3e f   segment.obj
 0001:0000fa56       _wrap_get_segm_class$catch$4 0000000180010a56 f   segment.obj
 0001:0000fa63       __catch$_wrap_get_segm_class$10 0000000180010a63 f   segment.obj
 0001:0000fa8f       _wrap_get_segm_class$catch$3 0000000180010a8f f   segment.obj
 0001:0000fa9c       __catch$_wrap_get_segm_class$12 0000000180010a9c f   segment.obj
 0001:0000fad0       _wrap_get_segm_class$dtor$0 0000000180010ad0 f   segment.obj
 0001:0000fad0       _wrap_get_visible_segm_name$dtor$0 0000000180010ad0 f   segment.obj
 0001:0000fae0       _wrap_get_segm_name$catch$8 0000000180010ae0 f   segment.obj
 0001:0000faed       __catch$_wrap_get_segm_name$3 0000000180010aed f   segment.obj
 0001:0000fb13       _wrap_get_segm_name$catch$7 0000000180010b13 f   segment.obj
 0001:0000fb20       __catch$_wrap_get_segm_name$5 0000000180010b20 f   segment.obj
 0001:0000fb4c       _wrap_get_segm_name$catch$6 0000000180010b4c f   segment.obj
 0001:0000fb59       __catch$_wrap_get_segm_name$7 0000000180010b59 f   segment.obj
 0001:0000fb71       _wrap_get_segm_name$catch$5 0000000180010b71 f   segment.obj
 0001:0000fb7e       __catch$_wrap_get_segm_name$9 0000000180010b7e f   segment.obj
 0001:0000fb96       _wrap_get_segm_name$catch$4 0000000180010b96 f   segment.obj
 0001:0000fba3       __catch$_wrap_get_segm_name$11 0000000180010ba3 f   segment.obj
 0001:0000fbcf       _wrap_get_segm_name$catch$3 0000000180010bcf f   segment.obj
 0001:0000fbdc       __catch$_wrap_get_segm_name$13 0000000180010bdc f   segment.obj
 0001:0000fc10       _wrap_get_segm_name$dtor$0 0000000180010c10 f   segment.obj
 0001:0000fc10       _wrap_get_segment_cmt$dtor$0 0000000180010c10 f   segment.obj
 0001:0000fc10       _wrap_set_segment_translations$dtor$0 0000000180010c10 f   segment.obj
 0001:0000fc10       _wrap_get_segment_translations$dtor$0 0000000180010c10 f   segment.obj
 0001:0000fc20       _wrap_get_segm_num$catch$5 0000000180010c20 f   segment.obj
 0001:0000fc2d       __catch$_wrap_get_segm_num$2 0000000180010c2d f   segment.obj
 0001:0000fc53       _wrap_get_segm_num$catch$4 0000000180010c53 f   segment.obj
 0001:0000fc60       __catch$_wrap_get_segm_num$4 0000000180010c60 f   segment.obj
 0001:0000fc8c       _wrap_get_segm_num$catch$3 0000000180010c8c f   segment.obj
 0001:0000fc99       __catch$_wrap_get_segm_num$6 0000000180010c99 f   segment.obj
 0001:0000fcb1       _wrap_get_segm_num$catch$2 0000000180010cb1 f   segment.obj
 0001:0000fcbe       __catch$_wrap_get_segm_num$8 0000000180010cbe f   segment.obj
 0001:0000fcd6       _wrap_get_segm_num$catch$1 0000000180010cd6 f   segment.obj
 0001:0000fce3       __catch$_wrap_get_segm_num$10 0000000180010ce3 f   segment.obj
 0001:0000fd0f       _wrap_get_segm_num$catch$0 0000000180010d0f f   segment.obj
 0001:0000fd1c       __catch$_wrap_get_segm_num$12 0000000180010d1c f   segment.obj
 0001:0000fd50       _wrap_get_segm_para$catch$5 0000000180010d50 f   segment.obj
 0001:0000fd5d       __catch$_wrap_get_segm_para$2 0000000180010d5d f   segment.obj
 0001:0000fd83       _wrap_get_segm_para$catch$4 0000000180010d83 f   segment.obj
 0001:0000fd90       __catch$_wrap_get_segm_para$4 0000000180010d90 f   segment.obj
 0001:0000fdbc       _wrap_get_segm_para$catch$3 0000000180010dbc f   segment.obj
 0001:0000fdc9       __catch$_wrap_get_segm_para$6 0000000180010dc9 f   segment.obj
 0001:0000fde1       _wrap_get_segm_para$catch$2 0000000180010de1 f   segment.obj
 0001:0000fdee       __catch$_wrap_get_segm_para$8 0000000180010dee f   segment.obj
 0001:0000fe06       _wrap_get_segm_para$catch$1 0000000180010e06 f   segment.obj
 0001:0000fe13       __catch$_wrap_get_segm_para$10 0000000180010e13 f   segment.obj
 0001:0000fe3f       _wrap_get_segm_para$catch$0 0000000180010e3f f   segment.obj
 0001:0000fe4c       __catch$_wrap_get_segm_para$12 0000000180010e4c f   segment.obj
 0001:0000fe80       _wrap_get_segm_qty$catch$5 0000000180010e80 f   segment.obj
 0001:0000fe8d       __catch$_wrap_get_segm_qty$1 0000000180010e8d f   segment.obj
 0001:0000feb3       _wrap_get_segm_qty$catch$4 0000000180010eb3 f   segment.obj
 0001:0000fec0       __catch$_wrap_get_segm_qty$3 0000000180010ec0 f   segment.obj
 0001:0000feec       _wrap_get_segm_qty$catch$3 0000000180010eec f   segment.obj
 0001:0000fef9       __catch$_wrap_get_segm_qty$5 0000000180010ef9 f   segment.obj
 0001:0000ff11       _wrap_get_segm_qty$catch$2 0000000180010f11 f   segment.obj
 0001:0000ff1e       __catch$_wrap_get_segm_qty$7 0000000180010f1e f   segment.obj
 0001:0000ff36       _wrap_get_segm_qty$catch$1 0000000180010f36 f   segment.obj
 0001:0000ff43       __catch$_wrap_get_segm_qty$9 0000000180010f43 f   segment.obj
 0001:0000ff6f       _wrap_get_segm_qty$catch$0 0000000180010f6f f   segment.obj
 0001:0000ff7c       __catch$_wrap_get_segm_qty$11 0000000180010f7c f   segment.obj
 0001:0000ffb0       _wrap_get_segment_alignment$catch$5 0000000180010fb0 f   segment.obj
 0001:0000ffbd       __catch$_wrap_get_segment_alignment$2 0000000180010fbd f   segment.obj
 0001:0000ffe3       _wrap_get_segment_alignment$catch$4 0000000180010fe3 f   segment.obj
 0001:0000fff0       __catch$_wrap_get_segment_alignment$4 0000000180010ff0 f   segment.obj
 0001:0001001c       _wrap_get_segment_alignment$catch$3 000000018001101c f   segment.obj
 0001:00010029       __catch$_wrap_get_segment_alignment$6 0000000180011029 f   segment.obj
 0001:00010041       _wrap_get_segment_alignment$catch$2 0000000180011041 f   segment.obj
 0001:0001004e       __catch$_wrap_get_segment_alignment$8 000000018001104e f   segment.obj
 0001:00010066       _wrap_get_segment_alignment$catch$1 0000000180011066 f   segment.obj
 0001:00010073       __catch$_wrap_get_segment_alignment$10 0000000180011073 f   segment.obj
 0001:0001009f       _wrap_get_segment_alignment$catch$0 000000018001109f f   segment.obj
 0001:000100ac       __catch$_wrap_get_segment_alignment$12 00000001800110ac f   segment.obj
 0001:000100e0       _wrap_get_segment_cmt$catch$8 00000001800110e0 f   segment.obj
 0001:000100ed       __catch$_wrap_get_segment_cmt$3 00000001800110ed f   segment.obj
 0001:00010113       _wrap_get_segment_cmt$catch$7 0000000180011113 f   segment.obj
 0001:00010120       __catch$_wrap_get_segment_cmt$5 0000000180011120 f   segment.obj
 0001:0001014c       _wrap_get_segment_cmt$catch$6 000000018001114c f   segment.obj
 0001:00010159       __catch$_wrap_get_segment_cmt$7 0000000180011159 f   segment.obj
 0001:00010171       _wrap_get_segment_cmt$catch$5 0000000180011171 f   segment.obj
 0001:0001017e       __catch$_wrap_get_segment_cmt$9 000000018001117e f   segment.obj
 0001:00010196       _wrap_get_segment_cmt$catch$4 0000000180011196 f   segment.obj
 0001:000101a3       __catch$_wrap_get_segment_cmt$11 00000001800111a3 f   segment.obj
 0001:000101cf       _wrap_get_segment_cmt$catch$3 00000001800111cf f   segment.obj
 0001:000101dc       __catch$_wrap_get_segment_cmt$13 00000001800111dc f   segment.obj
 0001:00010210       _wrap_get_segment_combination$catch$5 0000000180011210 f   segment.obj
 0001:0001021d       __catch$_wrap_get_segment_combination$2 000000018001121d f   segment.obj
 0001:00010243       _wrap_get_segment_combination$catch$4 0000000180011243 f   segment.obj
 0001:00010250       __catch$_wrap_get_segment_combination$4 0000000180011250 f   segment.obj
 0001:0001027c       _wrap_get_segment_combination$catch$3 000000018001127c f   segment.obj
 0001:00010289       __catch$_wrap_get_segment_combination$6 0000000180011289 f   segment.obj
 0001:000102a1       _wrap_get_segment_combination$catch$2 00000001800112a1 f   segment.obj
 0001:000102ae       __catch$_wrap_get_segment_combination$8 00000001800112ae f   segment.obj
 0001:000102c6       _wrap_get_segment_combination$catch$1 00000001800112c6 f   segment.obj
 0001:000102d3       __catch$_wrap_get_segment_combination$10 00000001800112d3 f   segment.obj
 0001:000102ff       _wrap_get_segment_combination$catch$0 00000001800112ff f   segment.obj
 0001:0001030c       __catch$_wrap_get_segment_combination$12 000000018001130c f   segment.obj
 0001:00010340       _wrap_get_segment_translations$catch$6 0000000180011340 f   segment.obj
 0001:0001034d       __catch$_wrap_get_segment_translations$4 000000018001134d f   segment.obj
 0001:00010373       _wrap_get_segment_translations$catch$5 0000000180011373 f   segment.obj
 0001:00010380       __catch$_wrap_get_segment_translations$6 0000000180011380 f   segment.obj
 0001:000103ac       _wrap_get_segment_translations$catch$4 00000001800113ac f   segment.obj
 0001:000103b9       __catch$_wrap_get_segment_translations$8 00000001800113b9 f   segment.obj
 0001:000103d1       _wrap_get_segment_translations$catch$3 00000001800113d1 f   segment.obj
 0001:000103de       __catch$_wrap_get_segment_translations$10 00000001800113de f   segment.obj
 0001:000103f6       _wrap_get_segment_translations$catch$2 00000001800113f6 f   segment.obj
 0001:00010403       __catch$_wrap_get_segment_translations$12 0000000180011403 f   segment.obj
 0001:0001042f       _wrap_get_segment_translations$catch$1 000000018001142f f   segment.obj
 0001:0001043c       __catch$_wrap_get_segment_translations$14 000000018001143c f   segment.obj
 0001:00010470       _wrap_get_selector_qty$catch$5 0000000180011470 f   segment.obj
 0001:0001047d       __catch$_wrap_get_selector_qty$1 000000018001147d f   segment.obj
 0001:000104a3       _wrap_get_selector_qty$catch$4 00000001800114a3 f   segment.obj
 0001:000104b0       __catch$_wrap_get_selector_qty$3 00000001800114b0 f   segment.obj
 0001:000104dc       _wrap_get_selector_qty$catch$3 00000001800114dc f   segment.obj
 0001:000104e9       __catch$_wrap_get_selector_qty$5 00000001800114e9 f   segment.obj
 0001:00010501       _wrap_get_selector_qty$catch$2 0000000180011501 f   segment.obj
 0001:0001050e       __catch$_wrap_get_selector_qty$7 000000018001150e f   segment.obj
 0001:00010526       _wrap_get_selector_qty$catch$1 0000000180011526 f   segment.obj
 0001:00010533       __catch$_wrap_get_selector_qty$9 0000000180011533 f   segment.obj
 0001:0001055f       _wrap_get_selector_qty$catch$0 000000018001155f f   segment.obj
 0001:0001056c       __catch$_wrap_get_selector_qty$11 000000018001156c f   segment.obj
 0001:000105a0       _wrap_get_visible_segm_name$catch$8 00000001800115a0 f   segment.obj
 0001:000105ad       __catch$_wrap_get_visible_segm_name$2 00000001800115ad f   segment.obj
 0001:000105d3       _wrap_get_visible_segm_name$catch$7 00000001800115d3 f   segment.obj
 0001:000105e0       __catch$_wrap_get_visible_segm_name$4 00000001800115e0 f   segment.obj
 0001:0001060c       _wrap_get_visible_segm_name$catch$6 000000018001160c f   segment.obj
 0001:00010619       __catch$_wrap_get_visible_segm_name$6 0000000180011619 f   segment.obj
 0001:00010631       _wrap_get_visible_segm_name$catch$5 0000000180011631 f   segment.obj
 0001:0001063e       __catch$_wrap_get_visible_segm_name$8 000000018001163e f   segment.obj
 0001:00010656       _wrap_get_visible_segm_name$catch$4 0000000180011656 f   segment.obj
 0001:00010663       __catch$_wrap_get_visible_segm_name$10 0000000180011663 f   segment.obj
 0001:0001068f       _wrap_get_visible_segm_name$catch$3 000000018001168f f   segment.obj
 0001:0001069c       __catch$_wrap_get_visible_segm_name$12 000000018001169c f   segment.obj
 0001:000106d0       _wrap_getn_selector$catch$5 00000001800116d0 f   segment.obj
 0001:000106dd       __catch$_wrap_getn_selector$2 00000001800116dd f   segment.obj
 0001:00010703       _wrap_getn_selector$catch$4 0000000180011703 f   segment.obj
 0001:00010710       __catch$_wrap_getn_selector$4 0000000180011710 f   segment.obj
 0001:0001073c       _wrap_getn_selector$catch$3 000000018001173c f   segment.obj
 0001:00010749       __catch$_wrap_getn_selector$6 0000000180011749 f   segment.obj
 0001:00010761       _wrap_getn_selector$catch$2 0000000180011761 f   segment.obj
 0001:0001076e       __catch$_wrap_getn_selector$8 000000018001176e f   segment.obj
 0001:00010786       _wrap_getn_selector$catch$1 0000000180011786 f   segment.obj
 0001:00010793       __catch$_wrap_getn_selector$10 0000000180011793 f   segment.obj
 0001:000107bf       _wrap_getn_selector$catch$0 00000001800117bf f   segment.obj
 0001:000107cc       __catch$_wrap_getn_selector$12 00000001800117cc f   segment.obj
 0001:00010800       _wrap_getnseg$catch$5      0000000180011800 f   segment.obj
 0001:0001080d       __catch$_wrap_getnseg$2    000000018001180d f   segment.obj
 0001:00010833       _wrap_getnseg$catch$4      0000000180011833 f   segment.obj
 0001:00010840       __catch$_wrap_getnseg$4    0000000180011840 f   segment.obj
 0001:0001086c       _wrap_getnseg$catch$3      000000018001186c f   segment.obj
 0001:00010879       __catch$_wrap_getnseg$6    0000000180011879 f   segment.obj
 0001:00010891       _wrap_getnseg$catch$2      0000000180011891 f   segment.obj
 0001:0001089e       __catch$_wrap_getnseg$8    000000018001189e f   segment.obj
 0001:000108b6       _wrap_getnseg$catch$1      00000001800118b6 f   segment.obj
 0001:000108c3       __catch$_wrap_getnseg$10   00000001800118c3 f   segment.obj
 0001:000108ef       _wrap_getnseg$catch$0      00000001800118ef f   segment.obj
 0001:000108fc       __catch$_wrap_getnseg$12   00000001800118fc f   segment.obj
 0001:00010930       _wrap_getseg$catch$5       0000000180011930 f   segment.obj
 0001:0001093d       __catch$_wrap_getseg$2     000000018001193d f   segment.obj
 0001:00010963       _wrap_getseg$catch$4       0000000180011963 f   segment.obj
 0001:00010970       __catch$_wrap_getseg$4     0000000180011970 f   segment.obj
 0001:0001099c       _wrap_getseg$catch$3       000000018001199c f   segment.obj
 0001:000109a9       __catch$_wrap_getseg$6     00000001800119a9 f   segment.obj
 0001:000109c1       _wrap_getseg$catch$2       00000001800119c1 f   segment.obj
 0001:000109ce       __catch$_wrap_getseg$8     00000001800119ce f   segment.obj
 0001:000109e6       _wrap_getseg$catch$1       00000001800119e6 f   segment.obj
 0001:000109f3       __catch$_wrap_getseg$10    00000001800119f3 f   segment.obj
 0001:00010a1f       _wrap_getseg$catch$0       0000000180011a1f f   segment.obj
 0001:00010a2c       __catch$_wrap_getseg$12    0000000180011a2c f   segment.obj
 0001:00010a60       _wrap_is_finally_visible_segm$catch$5 0000000180011a60 f   segment.obj
 0001:00010a6d       __catch$_wrap_is_finally_visible_segm$2 0000000180011a6d f   segment.obj
 0001:00010a93       _wrap_is_finally_visible_segm$catch$4 0000000180011a93 f   segment.obj
 0001:00010aa0       __catch$_wrap_is_finally_visible_segm$4 0000000180011aa0 f   segment.obj
 0001:00010acc       _wrap_is_finally_visible_segm$catch$3 0000000180011acc f   segment.obj
 0001:00010ad9       __catch$_wrap_is_finally_visible_segm$6 0000000180011ad9 f   segment.obj
 0001:00010af1       _wrap_is_finally_visible_segm$catch$2 0000000180011af1 f   segment.obj
 0001:00010afe       __catch$_wrap_is_finally_visible_segm$8 0000000180011afe f   segment.obj
 0001:00010b16       _wrap_is_finally_visible_segm$catch$1 0000000180011b16 f   segment.obj
 0001:00010b23       __catch$_wrap_is_finally_visible_segm$10 0000000180011b23 f   segment.obj
 0001:00010b4f       _wrap_is_finally_visible_segm$catch$0 0000000180011b4f f   segment.obj
 0001:00010b5c       __catch$_wrap_is_finally_visible_segm$12 0000000180011b5c f   segment.obj
 0001:00010b90       _wrap_is_miniidb$catch$5   0000000180011b90 f   segment.obj
 0001:00010b9d       __catch$_wrap_is_miniidb$1 0000000180011b9d f   segment.obj
 0001:00010bc3       _wrap_is_miniidb$catch$4   0000000180011bc3 f   segment.obj
 0001:00010bd0       __catch$_wrap_is_miniidb$3 0000000180011bd0 f   segment.obj
 0001:00010bfc       _wrap_is_miniidb$catch$3   0000000180011bfc f   segment.obj
 0001:00010c09       __catch$_wrap_is_miniidb$5 0000000180011c09 f   segment.obj
 0001:00010c21       _wrap_is_miniidb$catch$2   0000000180011c21 f   segment.obj
 0001:00010c2e       __catch$_wrap_is_miniidb$7 0000000180011c2e f   segment.obj
 0001:00010c46       _wrap_is_miniidb$catch$1   0000000180011c46 f   segment.obj
 0001:00010c53       __catch$_wrap_is_miniidb$9 0000000180011c53 f   segment.obj
 0001:00010c7f       _wrap_is_miniidb$catch$0   0000000180011c7f f   segment.obj
 0001:00010c8c       __catch$_wrap_is_miniidb$11 0000000180011c8c f   segment.obj
 0001:00010cc0       _wrap_is_segm_locked$catch$5 0000000180011cc0 f   segment.obj
 0001:00010ccd       __catch$_wrap_is_segm_locked$2 0000000180011ccd f   segment.obj
 0001:00010cf3       _wrap_is_segm_locked$catch$4 0000000180011cf3 f   segment.obj
 0001:00010d00       __catch$_wrap_is_segm_locked$4 0000000180011d00 f   segment.obj
 0001:00010d2c       _wrap_is_segm_locked$catch$3 0000000180011d2c f   segment.obj
 0001:00010d39       __catch$_wrap_is_segm_locked$6 0000000180011d39 f   segment.obj
 0001:00010d51       _wrap_is_segm_locked$catch$2 0000000180011d51 f   segment.obj
 0001:00010d5e       __catch$_wrap_is_segm_locked$8 0000000180011d5e f   segment.obj
 0001:00010d76       _wrap_is_segm_locked$catch$1 0000000180011d76 f   segment.obj
 0001:00010d83       __catch$_wrap_is_segm_locked$10 0000000180011d83 f   segment.obj
 0001:00010daf       _wrap_is_segm_locked$catch$0 0000000180011daf f   segment.obj
 0001:00010dbc       __catch$_wrap_is_segm_locked$12 0000000180011dbc f   segment.obj
 0001:00010df0       _wrap_is_spec_ea$catch$5   0000000180011df0 f   segment.obj
 0001:00010dfd       __catch$_wrap_is_spec_ea$2 0000000180011dfd f   segment.obj
 0001:00010e23       _wrap_is_spec_ea$catch$4   0000000180011e23 f   segment.obj
 0001:00010e30       __catch$_wrap_is_spec_ea$4 0000000180011e30 f   segment.obj
 0001:00010e5c       _wrap_is_spec_ea$catch$3   0000000180011e5c f   segment.obj
 0001:00010e69       __catch$_wrap_is_spec_ea$6 0000000180011e69 f   segment.obj
 0001:00010e81       _wrap_is_spec_ea$catch$2   0000000180011e81 f   segment.obj
 0001:00010e8e       __catch$_wrap_is_spec_ea$8 0000000180011e8e f   segment.obj
 0001:00010ea6       _wrap_is_spec_ea$catch$1   0000000180011ea6 f   segment.obj
 0001:00010eb3       __catch$_wrap_is_spec_ea$10 0000000180011eb3 f   segment.obj
 0001:00010edf       _wrap_is_spec_ea$catch$0   0000000180011edf f   segment.obj
 0001:00010eec       __catch$_wrap_is_spec_ea$12 0000000180011eec f   segment.obj
 0001:00010f20       _wrap_is_spec_segm$catch$5 0000000180011f20 f   segment.obj
 0001:00010f2d       __catch$_wrap_is_spec_segm$2 0000000180011f2d f   segment.obj
 0001:00010f53       _wrap_is_spec_segm$catch$4 0000000180011f53 f   segment.obj
 0001:00010f60       __catch$_wrap_is_spec_segm$4 0000000180011f60 f   segment.obj
 0001:00010f8c       _wrap_is_spec_segm$catch$3 0000000180011f8c f   segment.obj
 0001:00010f99       __catch$_wrap_is_spec_segm$6 0000000180011f99 f   segment.obj
 0001:00010fb1       _wrap_is_spec_segm$catch$2 0000000180011fb1 f   segment.obj
 0001:00010fbe       __catch$_wrap_is_spec_segm$8 0000000180011fbe f   segment.obj
 0001:00010fd6       _wrap_is_spec_segm$catch$1 0000000180011fd6 f   segment.obj
 0001:00010fe3       __catch$_wrap_is_spec_segm$10 0000000180011fe3 f   segment.obj
 0001:0001100f       _wrap_is_spec_segm$catch$0 000000018001200f f   segment.obj
 0001:0001101c       __catch$_wrap_is_spec_segm$12 000000018001201c f   segment.obj
 0001:00011050       _wrap_is_visible_segm$catch$5 0000000180012050 f   segment.obj
 0001:0001105d       __catch$_wrap_is_visible_segm$2 000000018001205d f   segment.obj
 0001:00011083       _wrap_is_visible_segm$catch$4 0000000180012083 f   segment.obj
 0001:00011090       __catch$_wrap_is_visible_segm$4 0000000180012090 f   segment.obj
 0001:000110bc       _wrap_is_visible_segm$catch$3 00000001800120bc f   segment.obj
 0001:000110c9       __catch$_wrap_is_visible_segm$6 00000001800120c9 f   segment.obj
 0001:000110e1       _wrap_is_visible_segm$catch$2 00000001800120e1 f   segment.obj
 0001:000110ee       __catch$_wrap_is_visible_segm$8 00000001800120ee f   segment.obj
 0001:00011106       _wrap_is_visible_segm$catch$1 0000000180012106 f   segment.obj
 0001:00011113       __catch$_wrap_is_visible_segm$10 0000000180012113 f   segment.obj
 0001:0001113f       _wrap_is_visible_segm$catch$0 000000018001213f f   segment.obj
 0001:0001114c       __catch$_wrap_is_visible_segm$12 000000018001214c f   segment.obj
 0001:00011180       _wrap_lock_segm$catch$5    0000000180012180 f   segment.obj
 0001:0001118d       __catch$_wrap_lock_segm$3  000000018001218d f   segment.obj
 0001:000111b3       _wrap_lock_segm$catch$4    00000001800121b3 f   segment.obj
 0001:000111c0       __catch$_wrap_lock_segm$5  00000001800121c0 f   segment.obj
 0001:000111ec       _wrap_lock_segm$catch$3    00000001800121ec f   segment.obj
 0001:000111f9       __catch$_wrap_lock_segm$7  00000001800121f9 f   segment.obj
 0001:00011211       _wrap_lock_segm$catch$2    0000000180012211 f   segment.obj
 0001:0001121e       __catch$_wrap_lock_segm$9  000000018001221e f   segment.obj
 0001:00011236       _wrap_lock_segm$catch$1    0000000180012236 f   segment.obj
 0001:00011243       __catch$_wrap_lock_segm$11 0000000180012243 f   segment.obj
 0001:0001126f       _wrap_lock_segm$catch$0    000000018001226f f   segment.obj
 0001:0001127c       __catch$_wrap_lock_segm$13 000000018001227c f   segment.obj
 0001:000112b0       _wrap_move_segm$catch$5    00000001800122b0 f   segment.obj
 0001:000112bd       __catch$_wrap_move_segm$4  00000001800122bd f   segment.obj
 0001:000112e3       _wrap_move_segm$catch$4    00000001800122e3 f   segment.obj
 0001:000112f0       __catch$_wrap_move_segm$6  00000001800122f0 f   segment.obj
 0001:0001131c       _wrap_move_segm$catch$3    000000018001231c f   segment.obj
 0001:00011329       __catch$_wrap_move_segm$8  0000000180012329 f   segment.obj
 0001:00011341       _wrap_move_segm$catch$2    0000000180012341 f   segment.obj
 0001:0001134e       __catch$_wrap_move_segm$10 000000018001234e f   segment.obj
 0001:00011366       _wrap_move_segm$catch$1    0000000180012366 f   segment.obj
 0001:00011373       __catch$_wrap_move_segm$12 0000000180012373 f   segment.obj
 0001:0001139f       _wrap_move_segm$catch$0    000000018001239f f   segment.obj
 0001:000113ac       __catch$_wrap_move_segm$14 00000001800123ac f   segment.obj
 0001:000113e0       _wrap_move_segm_start$catch$5 00000001800123e0 f   segment.obj
 0001:000113ed       __catch$_wrap_move_segm_start$4 00000001800123ed f   segment.obj
 0001:00011413       _wrap_move_segm_start$catch$4 0000000180012413 f   segment.obj
 0001:00011420       __catch$_wrap_move_segm_start$6 0000000180012420 f   segment.obj
 0001:0001144c       _wrap_move_segm_start$catch$3 000000018001244c f   segment.obj
 0001:00011459       __catch$_wrap_move_segm_start$8 0000000180012459 f   segment.obj
 0001:00011471       _wrap_move_segm_start$catch$2 0000000180012471 f   segment.obj
 0001:0001147e       __catch$_wrap_move_segm_start$10 000000018001247e f   segment.obj
 0001:00011496       _wrap_move_segm_start$catch$1 0000000180012496 f   segment.obj
 0001:000114a3       __catch$_wrap_move_segm_start$12 00000001800124a3 f   segment.obj
 0001:000114cf       _wrap_move_segm_start$catch$0 00000001800124cf f   segment.obj
 0001:000114dc       __catch$_wrap_move_segm_start$14 00000001800124dc f   segment.obj
 0001:00011510       _wrap_new_lock_segment$catch$1 0000000180012510 f   segment.obj
 0001:0001151d       __catch$_wrap_new_lock_segment$2 000000018001251d f   segment.obj
 0001:00011543       _wrap_new_lock_segment$catch$2 0000000180012543 f   segment.obj
 0001:00011550       __catch$_wrap_new_lock_segment$4 0000000180012550 f   segment.obj
 0001:0001157c       _wrap_new_lock_segment$catch$3 000000018001257c f   segment.obj
 0001:00011589       __catch$_wrap_new_lock_segment$6 0000000180012589 f   segment.obj
 0001:000115a1       _wrap_new_lock_segment$catch$4 00000001800125a1 f   segment.obj
 0001:000115ae       __catch$_wrap_new_lock_segment$8 00000001800125ae f   segment.obj
 0001:000115c6       _wrap_new_lock_segment$catch$5 00000001800125c6 f   segment.obj
 0001:000115d3       __catch$_wrap_new_lock_segment$10 00000001800125d3 f   segment.obj
 0001:000115ff       _wrap_new_lock_segment$catch$6 00000001800125ff f   segment.obj
 0001:0001160c       __catch$_wrap_new_lock_segment$12 000000018001260c f   segment.obj
 0001:00011640       _wrap_new_segment_t$catch$1 0000000180012640 f   segment.obj
 0001:0001164d       __catch$_wrap_new_segment_t$1 000000018001264d f   segment.obj
 0001:00011673       _wrap_new_segment_t$catch$2 0000000180012673 f   segment.obj
 0001:00011680       __catch$_wrap_new_segment_t$3 0000000180012680 f   segment.obj
 0001:000116ac       _wrap_new_segment_t$catch$3 00000001800126ac f   segment.obj
 0001:000116b9       __catch$_wrap_new_segment_t$5 00000001800126b9 f   segment.obj
 0001:000116d1       _wrap_new_segment_t$catch$4 00000001800126d1 f   segment.obj
 0001:000116de       __catch$_wrap_new_segment_t$7 00000001800126de f   segment.obj
 0001:000116f6       _wrap_new_segment_t$catch$5 00000001800126f6 f   segment.obj
 0001:00011703       __catch$_wrap_new_segment_t$9 0000000180012703 f   segment.obj
 0001:0001172f       _wrap_new_segment_t$catch$6 000000018001272f f   segment.obj
 0001:0001173c       __catch$_wrap_new_segment_t$11 000000018001273c f   segment.obj
 0001:00011770       _wrap_rebase_program$catch$5 0000000180012770 f   segment.obj
 0001:0001177d       __catch$_wrap_rebase_program$2 000000018001277d f   segment.obj
 0001:000117a3       _wrap_rebase_program$catch$4 00000001800127a3 f   segment.obj
 0001:000117b0       __catch$_wrap_rebase_program$4 00000001800127b0 f   segment.obj
 0001:000117dc       _wrap_rebase_program$catch$3 00000001800127dc f   segment.obj
 0001:000117e9       __catch$_wrap_rebase_program$6 00000001800127e9 f   segment.obj
 0001:00011801       _wrap_rebase_program$catch$2 0000000180012801 f   segment.obj
 0001:0001180e       __catch$_wrap_rebase_program$8 000000018001280e f   segment.obj
 0001:00011826       _wrap_rebase_program$catch$1 0000000180012826 f   segment.obj
 0001:00011833       __catch$_wrap_rebase_program$10 0000000180012833 f   segment.obj
 0001:0001185f       _wrap_rebase_program$catch$0 000000018001285f f   segment.obj
 0001:0001186c       __catch$_wrap_rebase_program$12 000000018001286c f   segment.obj
 0001:000118a0       _wrap_segm_adjust_diff$catch$5 00000001800128a0 f   segment.obj
 0001:000118ad       __catch$_wrap_segm_adjust_diff$3 00000001800128ad f   segment.obj
 0001:000118d3       _wrap_segm_adjust_diff$catch$4 00000001800128d3 f   segment.obj
 0001:000118e0       __catch$_wrap_segm_adjust_diff$5 00000001800128e0 f   segment.obj
 0001:0001190c       _wrap_segm_adjust_diff$catch$3 000000018001290c f   segment.obj
 0001:00011919       __catch$_wrap_segm_adjust_diff$7 0000000180012919 f   segment.obj
 0001:00011931       _wrap_segm_adjust_diff$catch$2 0000000180012931 f   segment.obj
 0001:0001193e       __catch$_wrap_segm_adjust_diff$9 000000018001293e f   segment.obj
 0001:00011956       _wrap_segm_adjust_diff$catch$1 0000000180012956 f   segment.obj
 0001:00011963       __catch$_wrap_segm_adjust_diff$11 0000000180012963 f   segment.obj
 0001:0001198f       _wrap_segm_adjust_diff$catch$0 000000018001298f f   segment.obj
 0001:0001199c       __catch$_wrap_segm_adjust_diff$13 000000018001299c f   segment.obj
 0001:000119d0       _wrap_segm_adjust_ea$catch$5 00000001800129d0 f   segment.obj
 0001:000119dd       __catch$_wrap_segm_adjust_ea$3 00000001800129dd f   segment.obj
 0001:00011a03       _wrap_segm_adjust_ea$catch$4 0000000180012a03 f   segment.obj
 0001:00011a10       __catch$_wrap_segm_adjust_ea$5 0000000180012a10 f   segment.obj
 0001:00011a3c       _wrap_segm_adjust_ea$catch$3 0000000180012a3c f   segment.obj
 0001:00011a49       __catch$_wrap_segm_adjust_ea$7 0000000180012a49 f   segment.obj
 0001:00011a61       _wrap_segm_adjust_ea$catch$2 0000000180012a61 f   segment.obj
 0001:00011a6e       __catch$_wrap_segm_adjust_ea$9 0000000180012a6e f   segment.obj
 0001:00011a86       _wrap_segm_adjust_ea$catch$1 0000000180012a86 f   segment.obj
 0001:00011a93       __catch$_wrap_segm_adjust_ea$11 0000000180012a93 f   segment.obj
 0001:00011abf       _wrap_segm_adjust_ea$catch$0 0000000180012abf f   segment.obj
 0001:00011acc       __catch$_wrap_segm_adjust_ea$13 0000000180012acc f   segment.obj
 0001:00011b00       _wrap_segment_t_abits$catch$5 0000000180012b00 f   segment.obj
 0001:00011b0d       __catch$_wrap_segment_t_abits$2 0000000180012b0d f   segment.obj
 0001:00011b33       _wrap_segment_t_abits$catch$4 0000000180012b33 f   segment.obj
 0001:00011b40       __catch$_wrap_segment_t_abits$4 0000000180012b40 f   segment.obj
 0001:00011b6c       _wrap_segment_t_abits$catch$3 0000000180012b6c f   segment.obj
 0001:00011b79       __catch$_wrap_segment_t_abits$6 0000000180012b79 f   segment.obj
 0001:00011b91       _wrap_segment_t_abits$catch$2 0000000180012b91 f   segment.obj
 0001:00011b9e       __catch$_wrap_segment_t_abits$8 0000000180012b9e f   segment.obj
 0001:00011bb6       _wrap_segment_t_abits$catch$1 0000000180012bb6 f   segment.obj
 0001:00011bc3       __catch$_wrap_segment_t_abits$10 0000000180012bc3 f   segment.obj
 0001:00011bef       _wrap_segment_t_abits$catch$0 0000000180012bef f   segment.obj
 0001:00011bfc       __catch$_wrap_segment_t_abits$12 0000000180012bfc f   segment.obj
 0001:00011c30       _wrap_segment_t_abytes$catch$5 0000000180012c30 f   segment.obj
 0001:00011c3d       __catch$_wrap_segment_t_abytes$2 0000000180012c3d f   segment.obj
 0001:00011c63       _wrap_segment_t_abytes$catch$4 0000000180012c63 f   segment.obj
 0001:00011c70       __catch$_wrap_segment_t_abytes$4 0000000180012c70 f   segment.obj
 0001:00011c9c       _wrap_segment_t_abytes$catch$3 0000000180012c9c f   segment.obj
 0001:00011ca9       __catch$_wrap_segment_t_abytes$6 0000000180012ca9 f   segment.obj
 0001:00011cc1       _wrap_segment_t_abytes$catch$2 0000000180012cc1 f   segment.obj
 0001:00011cce       __catch$_wrap_segment_t_abytes$8 0000000180012cce f   segment.obj
 0001:00011ce6       _wrap_segment_t_abytes$catch$1 0000000180012ce6 f   segment.obj
 0001:00011cf3       __catch$_wrap_segment_t_abytes$10 0000000180012cf3 f   segment.obj
 0001:00011d1f       _wrap_segment_t_abytes$catch$0 0000000180012d1f f   segment.obj
 0001:00011d2c       __catch$_wrap_segment_t_abytes$12 0000000180012d2c f   segment.obj
 0001:00011d60       _wrap_segment_t_clr_comorg$catch$5 0000000180012d60 f   segment.obj
 0001:00011d6d       __catch$_wrap_segment_t_clr_comorg$2 0000000180012d6d f   segment.obj
 0001:00011d93       _wrap_segment_t_clr_comorg$catch$4 0000000180012d93 f   segment.obj
 0001:00011da0       __catch$_wrap_segment_t_clr_comorg$4 0000000180012da0 f   segment.obj
 0001:00011dcc       _wrap_segment_t_clr_comorg$catch$3 0000000180012dcc f   segment.obj
 0001:00011dd9       __catch$_wrap_segment_t_clr_comorg$6 0000000180012dd9 f   segment.obj
 0001:00011df1       _wrap_segment_t_clr_comorg$catch$2 0000000180012df1 f   segment.obj
 0001:00011dfe       __catch$_wrap_segment_t_clr_comorg$8 0000000180012dfe f   segment.obj
 0001:00011e16       _wrap_segment_t_clr_comorg$catch$1 0000000180012e16 f   segment.obj
 0001:00011e23       __catch$_wrap_segment_t_clr_comorg$10 0000000180012e23 f   segment.obj
 0001:00011e4f       _wrap_segment_t_clr_comorg$catch$0 0000000180012e4f f   segment.obj
 0001:00011e5c       __catch$_wrap_segment_t_clr_comorg$12 0000000180012e5c f   segment.obj
 0001:00011e90       _wrap_segment_t_clr_ob_ok$catch$5 0000000180012e90 f   segment.obj
 0001:00011e9d       __catch$_wrap_segment_t_clr_ob_ok$2 0000000180012e9d f   segment.obj
 0001:00011ec3       _wrap_segment_t_clr_ob_ok$catch$4 0000000180012ec3 f   segment.obj
 0001:00011ed0       __catch$_wrap_segment_t_clr_ob_ok$4 0000000180012ed0 f   segment.obj
 0001:00011efc       _wrap_segment_t_clr_ob_ok$catch$3 0000000180012efc f   segment.obj
 0001:00011f09       __catch$_wrap_segment_t_clr_ob_ok$6 0000000180012f09 f   segment.obj
 0001:00011f21       _wrap_segment_t_clr_ob_ok$catch$2 0000000180012f21 f   segment.obj
 0001:00011f2e       __catch$_wrap_segment_t_clr_ob_ok$8 0000000180012f2e f   segment.obj
 0001:00011f46       _wrap_segment_t_clr_ob_ok$catch$1 0000000180012f46 f   segment.obj
 0001:00011f53       __catch$_wrap_segment_t_clr_ob_ok$10 0000000180012f53 f   segment.obj
 0001:00011f7f       _wrap_segment_t_clr_ob_ok$catch$0 0000000180012f7f f   segment.obj
 0001:00011f8c       __catch$_wrap_segment_t_clr_ob_ok$12 0000000180012f8c f   segment.obj
 0001:00011fc0       _wrap_segment_t_comorg$catch$5 0000000180012fc0 f   segment.obj
 0001:00011fcd       __catch$_wrap_segment_t_comorg$2 0000000180012fcd f   segment.obj
 0001:00011ff3       _wrap_segment_t_comorg$catch$4 0000000180012ff3 f   segment.obj
 0001:00012000       __catch$_wrap_segment_t_comorg$4 0000000180013000 f   segment.obj
 0001:0001202c       _wrap_segment_t_comorg$catch$3 000000018001302c f   segment.obj
 0001:00012039       __catch$_wrap_segment_t_comorg$6 0000000180013039 f   segment.obj
 0001:00012051       _wrap_segment_t_comorg$catch$2 0000000180013051 f   segment.obj
 0001:0001205e       __catch$_wrap_segment_t_comorg$8 000000018001305e f   segment.obj
 0001:00012076       _wrap_segment_t_comorg$catch$1 0000000180013076 f   segment.obj
 0001:00012083       __catch$_wrap_segment_t_comorg$10 0000000180013083 f   segment.obj
 0001:000120af       _wrap_segment_t_comorg$catch$0 00000001800130af f   segment.obj
 0001:000120bc       __catch$_wrap_segment_t_comorg$12 00000001800130bc f   segment.obj
 0001:000120f0       _wrap_segment_t_end_ea_get$catch$5 00000001800130f0 f   segment.obj
 0001:000120fd       __catch$_wrap_segment_t_end_ea_get$2 00000001800130fd f   segment.obj
 0001:00012123       _wrap_segment_t_end_ea_get$catch$4 0000000180013123 f   segment.obj
 0001:00012130       __catch$_wrap_segment_t_end_ea_get$4 0000000180013130 f   segment.obj
 0001:0001215c       _wrap_segment_t_end_ea_get$catch$3 000000018001315c f   segment.obj
 0001:00012169       __catch$_wrap_segment_t_end_ea_get$6 0000000180013169 f   segment.obj
 0001:00012181       _wrap_segment_t_end_ea_get$catch$2 0000000180013181 f   segment.obj
 0001:0001218e       __catch$_wrap_segment_t_end_ea_get$8 000000018001318e f   segment.obj
 0001:000121a6       _wrap_segment_t_end_ea_get$catch$1 00000001800131a6 f   segment.obj
 0001:000121b3       __catch$_wrap_segment_t_end_ea_get$10 00000001800131b3 f   segment.obj
 0001:000121df       _wrap_segment_t_end_ea_get$catch$0 00000001800131df f   segment.obj
 0001:000121ec       __catch$_wrap_segment_t_end_ea_get$12 00000001800131ec f   segment.obj
 0001:00012220       _wrap_segment_t_end_ea_set$catch$5 0000000180013220 f   segment.obj
 0001:0001222d       __catch$_wrap_segment_t_end_ea_set$3 000000018001322d f   segment.obj
 0001:00012253       _wrap_segment_t_end_ea_set$catch$4 0000000180013253 f   segment.obj
 0001:00012260       __catch$_wrap_segment_t_end_ea_set$5 0000000180013260 f   segment.obj
 0001:0001228c       _wrap_segment_t_end_ea_set$catch$3 000000018001328c f   segment.obj
 0001:00012299       __catch$_wrap_segment_t_end_ea_set$7 0000000180013299 f   segment.obj
 0001:000122b1       _wrap_segment_t_end_ea_set$catch$2 00000001800132b1 f   segment.obj
 0001:000122be       __catch$_wrap_segment_t_end_ea_set$9 00000001800132be f   segment.obj
 0001:000122d6       _wrap_segment_t_end_ea_set$catch$1 00000001800132d6 f   segment.obj
 0001:000122e3       __catch$_wrap_segment_t_end_ea_set$11 00000001800132e3 f   segment.obj
 0001:0001230f       _wrap_segment_t_end_ea_set$catch$0 000000018001330f f   segment.obj
 0001:0001231c       __catch$_wrap_segment_t_end_ea_set$13 000000018001331c f   segment.obj
 0001:00012350       _wrap_segment_t_is_header_segm$catch$5 0000000180013350 f   segment.obj
 0001:0001235d       __catch$_wrap_segment_t_is_header_segm$2 000000018001335d f   segment.obj
 0001:00012383       _wrap_segment_t_is_header_segm$catch$4 0000000180013383 f   segment.obj
 0001:00012390       __catch$_wrap_segment_t_is_header_segm$4 0000000180013390 f   segment.obj
 0001:000123bc       _wrap_segment_t_is_header_segm$catch$3 00000001800133bc f   segment.obj
 0001:000123c9       __catch$_wrap_segment_t_is_header_segm$6 00000001800133c9 f   segment.obj
 0001:000123e1       _wrap_segment_t_is_header_segm$catch$2 00000001800133e1 f   segment.obj
 0001:000123ee       __catch$_wrap_segment_t_is_header_segm$8 00000001800133ee f   segment.obj
 0001:00012406       _wrap_segment_t_is_header_segm$catch$1 0000000180013406 f   segment.obj
 0001:00012413       __catch$_wrap_segment_t_is_header_segm$10 0000000180013413 f   segment.obj
 0001:0001243f       _wrap_segment_t_is_header_segm$catch$0 000000018001343f f   segment.obj
 0001:0001244c       __catch$_wrap_segment_t_is_header_segm$12 000000018001344c f   segment.obj
 0001:00012480       _wrap_segment_t_is_hidden_segtype$catch$5 0000000180013480 f   segment.obj
 0001:0001248d       __catch$_wrap_segment_t_is_hidden_segtype$2 000000018001348d f   segment.obj
 0001:000124b3       _wrap_segment_t_is_hidden_segtype$catch$4 00000001800134b3 f   segment.obj
 0001:000124c0       __catch$_wrap_segment_t_is_hidden_segtype$4 00000001800134c0 f   segment.obj
 0001:000124ec       _wrap_segment_t_is_hidden_segtype$catch$3 00000001800134ec f   segment.obj
 0001:000124f9       __catch$_wrap_segment_t_is_hidden_segtype$6 00000001800134f9 f   segment.obj
 0001:00012511       _wrap_segment_t_is_hidden_segtype$catch$2 0000000180013511 f   segment.obj
 0001:0001251e       __catch$_wrap_segment_t_is_hidden_segtype$8 000000018001351e f   segment.obj
 0001:00012536       _wrap_segment_t_is_hidden_segtype$catch$1 0000000180013536 f   segment.obj
 0001:00012543       __catch$_wrap_segment_t_is_hidden_segtype$10 0000000180013543 f   segment.obj
 0001:0001256f       _wrap_segment_t_is_hidden_segtype$catch$0 000000018001356f f   segment.obj
 0001:0001257c       __catch$_wrap_segment_t_is_hidden_segtype$12 000000018001357c f   segment.obj
 0001:000125b0       _wrap_segment_t_is_loader_segm$catch$5 00000001800135b0 f   segment.obj
 0001:000125bd       __catch$_wrap_segment_t_is_loader_segm$2 00000001800135bd f   segment.obj
 0001:000125e3       _wrap_segment_t_is_loader_segm$catch$4 00000001800135e3 f   segment.obj
 0001:000125f0       __catch$_wrap_segment_t_is_loader_segm$4 00000001800135f0 f   segment.obj
 0001:0001261c       _wrap_segment_t_is_loader_segm$catch$3 000000018001361c f   segment.obj
 0001:00012629       __catch$_wrap_segment_t_is_loader_segm$6 0000000180013629 f   segment.obj
 0001:00012641       _wrap_segment_t_is_loader_segm$catch$2 0000000180013641 f   segment.obj
 0001:0001264e       __catch$_wrap_segment_t_is_loader_segm$8 000000018001364e f   segment.obj
 0001:00012666       _wrap_segment_t_is_loader_segm$catch$1 0000000180013666 f   segment.obj
 0001:00012673       __catch$_wrap_segment_t_is_loader_segm$10 0000000180013673 f   segment.obj
 0001:0001269f       _wrap_segment_t_is_loader_segm$catch$0 000000018001369f f   segment.obj
 0001:000126ac       __catch$_wrap_segment_t_is_loader_segm$12 00000001800136ac f   segment.obj
 0001:000126e0       _wrap_segment_t_is_visible_segm$catch$5 00000001800136e0 f   segment.obj
 0001:000126ed       __catch$_wrap_segment_t_is_visible_segm$2 00000001800136ed f   segment.obj
 0001:00012713       _wrap_segment_t_is_visible_segm$catch$4 0000000180013713 f   segment.obj
 0001:00012720       __catch$_wrap_segment_t_is_visible_segm$4 0000000180013720 f   segment.obj
 0001:0001274c       _wrap_segment_t_is_visible_segm$catch$3 000000018001374c f   segment.obj
 0001:00012759       __catch$_wrap_segment_t_is_visible_segm$6 0000000180013759 f   segment.obj
 0001:00012771       _wrap_segment_t_is_visible_segm$catch$2 0000000180013771 f   segment.obj
 0001:0001277e       __catch$_wrap_segment_t_is_visible_segm$8 000000018001377e f   segment.obj
 0001:00012796       _wrap_segment_t_is_visible_segm$catch$1 0000000180013796 f   segment.obj
 0001:000127a3       __catch$_wrap_segment_t_is_visible_segm$10 00000001800137a3 f   segment.obj
 0001:000127cf       _wrap_segment_t_is_visible_segm$catch$0 00000001800137cf f   segment.obj
 0001:000127dc       __catch$_wrap_segment_t_is_visible_segm$12 00000001800137dc f   segment.obj
 0001:00012810       _wrap_segment_t_ob_ok$catch$5 0000000180013810 f   segment.obj
 0001:0001281d       __catch$_wrap_segment_t_ob_ok$2 000000018001381d f   segment.obj
 0001:00012843       _wrap_segment_t_ob_ok$catch$4 0000000180013843 f   segment.obj
 0001:00012850       __catch$_wrap_segment_t_ob_ok$4 0000000180013850 f   segment.obj
 0001:0001287c       _wrap_segment_t_ob_ok$catch$3 000000018001387c f   segment.obj
 0001:00012889       __catch$_wrap_segment_t_ob_ok$6 0000000180013889 f   segment.obj
 0001:000128a1       _wrap_segment_t_ob_ok$catch$2 00000001800138a1 f   segment.obj
 0001:000128ae       __catch$_wrap_segment_t_ob_ok$8 00000001800138ae f   segment.obj
 0001:000128c6       _wrap_segment_t_ob_ok$catch$1 00000001800138c6 f   segment.obj
 0001:000128d3       __catch$_wrap_segment_t_ob_ok$10 00000001800138d3 f   segment.obj
 0001:000128ff       _wrap_segment_t_ob_ok$catch$0 00000001800138ff f   segment.obj
 0001:0001290c       __catch$_wrap_segment_t_ob_ok$12 000000018001390c f   segment.obj
 0001:00012940       _wrap_segment_t_set_comorg$catch$5 0000000180013940 f   segment.obj
 0001:0001294d       __catch$_wrap_segment_t_set_comorg$2 000000018001394d f   segment.obj
 0001:00012973       _wrap_segment_t_set_comorg$catch$4 0000000180013973 f   segment.obj
 0001:00012980       __catch$_wrap_segment_t_set_comorg$4 0000000180013980 f   segment.obj
 0001:000129ac       _wrap_segment_t_set_comorg$catch$3 00000001800139ac f   segment.obj
 0001:000129b9       __catch$_wrap_segment_t_set_comorg$6 00000001800139b9 f   segment.obj
 0001:000129d1       _wrap_segment_t_set_comorg$catch$2 00000001800139d1 f   segment.obj
 0001:000129de       __catch$_wrap_segment_t_set_comorg$8 00000001800139de f   segment.obj
 0001:000129f6       _wrap_segment_t_set_comorg$catch$1 00000001800139f6 f   segment.obj
 0001:00012a03       __catch$_wrap_segment_t_set_comorg$10 0000000180013a03 f   segment.obj
 0001:00012a2f       _wrap_segment_t_set_comorg$catch$0 0000000180013a2f f   segment.obj
 0001:00012a3c       __catch$_wrap_segment_t_set_comorg$12 0000000180013a3c f   segment.obj
 0001:00012a70       _wrap_segment_t_set_debugger_segm$catch$5 0000000180013a70 f   segment.obj
 0001:00012a7d       __catch$_wrap_segment_t_set_debugger_segm$3 0000000180013a7d f   segment.obj
 0001:00012aa3       _wrap_segment_t_set_debugger_segm$catch$4 0000000180013aa3 f   segment.obj
 0001:00012ab0       __catch$_wrap_segment_t_set_debugger_segm$5 0000000180013ab0 f   segment.obj
 0001:00012adc       _wrap_segment_t_set_debugger_segm$catch$3 0000000180013adc f   segment.obj
 0001:00012ae9       __catch$_wrap_segment_t_set_debugger_segm$7 0000000180013ae9 f   segment.obj
 0001:00012b01       _wrap_segment_t_set_debugger_segm$catch$2 0000000180013b01 f   segment.obj
 0001:00012b0e       __catch$_wrap_segment_t_set_debugger_segm$9 0000000180013b0e f   segment.obj
 0001:00012b26       _wrap_segment_t_set_debugger_segm$catch$1 0000000180013b26 f   segment.obj
 0001:00012b33       __catch$_wrap_segment_t_set_debugger_segm$11 0000000180013b33 f   segment.obj
 0001:00012b5f       _wrap_segment_t_set_debugger_segm$catch$0 0000000180013b5f f   segment.obj
 0001:00012b6c       __catch$_wrap_segment_t_set_debugger_segm$13 0000000180013b6c f   segment.obj
 0001:00012ba0       _wrap_segment_t_set_header_segm$catch$5 0000000180013ba0 f   segment.obj
 0001:00012bad       __catch$_wrap_segment_t_set_header_segm$3 0000000180013bad f   segment.obj
 0001:00012bd3       _wrap_segment_t_set_header_segm$catch$4 0000000180013bd3 f   segment.obj
 0001:00012be0       __catch$_wrap_segment_t_set_header_segm$5 0000000180013be0 f   segment.obj
 0001:00012c0c       _wrap_segment_t_set_header_segm$catch$3 0000000180013c0c f   segment.obj
 0001:00012c19       __catch$_wrap_segment_t_set_header_segm$7 0000000180013c19 f   segment.obj
 0001:00012c31       _wrap_segment_t_set_header_segm$catch$2 0000000180013c31 f   segment.obj
 0001:00012c3e       __catch$_wrap_segment_t_set_header_segm$9 0000000180013c3e f   segment.obj
 0001:00012c56       _wrap_segment_t_set_header_segm$catch$1 0000000180013c56 f   segment.obj
 0001:00012c63       __catch$_wrap_segment_t_set_header_segm$11 0000000180013c63 f   segment.obj
 0001:00012c8f       _wrap_segment_t_set_header_segm$catch$0 0000000180013c8f f   segment.obj
 0001:00012c9c       __catch$_wrap_segment_t_set_header_segm$13 0000000180013c9c f   segment.obj
 0001:00012cd0       _wrap_segment_t_set_hidden_segtype$catch$5 0000000180013cd0 f   segment.obj
 0001:00012cdd       __catch$_wrap_segment_t_set_hidden_segtype$3 0000000180013cdd f   segment.obj
 0001:00012d03       _wrap_segment_t_set_hidden_segtype$catch$4 0000000180013d03 f   segment.obj
 0001:00012d10       __catch$_wrap_segment_t_set_hidden_segtype$5 0000000180013d10 f   segment.obj
 0001:00012d3c       _wrap_segment_t_set_hidden_segtype$catch$3 0000000180013d3c f   segment.obj
 0001:00012d49       __catch$_wrap_segment_t_set_hidden_segtype$7 0000000180013d49 f   segment.obj
 0001:00012d61       _wrap_segment_t_set_hidden_segtype$catch$2 0000000180013d61 f   segment.obj
 0001:00012d6e       __catch$_wrap_segment_t_set_hidden_segtype$9 0000000180013d6e f   segment.obj
 0001:00012d86       _wrap_segment_t_set_hidden_segtype$catch$1 0000000180013d86 f   segment.obj
 0001:00012d93       __catch$_wrap_segment_t_set_hidden_segtype$11 0000000180013d93 f   segment.obj
 0001:00012dbf       _wrap_segment_t_set_hidden_segtype$catch$0 0000000180013dbf f   segment.obj
 0001:00012dcc       __catch$_wrap_segment_t_set_hidden_segtype$13 0000000180013dcc f   segment.obj
 0001:00012e00       _wrap_segment_t_set_loader_segm$catch$5 0000000180013e00 f   segment.obj
 0001:00012e0d       __catch$_wrap_segment_t_set_loader_segm$3 0000000180013e0d f   segment.obj
 0001:00012e33       _wrap_segment_t_set_loader_segm$catch$4 0000000180013e33 f   segment.obj
 0001:00012e40       __catch$_wrap_segment_t_set_loader_segm$5 0000000180013e40 f   segment.obj
 0001:00012e6c       _wrap_segment_t_set_loader_segm$catch$3 0000000180013e6c f   segment.obj
 0001:00012e79       __catch$_wrap_segment_t_set_loader_segm$7 0000000180013e79 f   segment.obj
 0001:00012e91       _wrap_segment_t_set_loader_segm$catch$2 0000000180013e91 f   segment.obj
 0001:00012e9e       __catch$_wrap_segment_t_set_loader_segm$9 0000000180013e9e f   segment.obj
 0001:00012eb6       _wrap_segment_t_set_loader_segm$catch$1 0000000180013eb6 f   segment.obj
 0001:00012ec3       __catch$_wrap_segment_t_set_loader_segm$11 0000000180013ec3 f   segment.obj
 0001:00012eef       _wrap_segment_t_set_loader_segm$catch$0 0000000180013eef f   segment.obj
 0001:00012efc       __catch$_wrap_segment_t_set_loader_segm$13 0000000180013efc f   segment.obj
 0001:00012f30       _wrap_segment_t_set_ob_ok$catch$5 0000000180013f30 f   segment.obj
 0001:00012f3d       __catch$_wrap_segment_t_set_ob_ok$2 0000000180013f3d f   segment.obj
 0001:00012f63       _wrap_segment_t_set_ob_ok$catch$4 0000000180013f63 f   segment.obj
 0001:00012f70       __catch$_wrap_segment_t_set_ob_ok$4 0000000180013f70 f   segment.obj
 0001:00012f9c       _wrap_segment_t_set_ob_ok$catch$3 0000000180013f9c f   segment.obj
 0001:00012fa9       __catch$_wrap_segment_t_set_ob_ok$6 0000000180013fa9 f   segment.obj
 0001:00012fc1       _wrap_segment_t_set_ob_ok$catch$2 0000000180013fc1 f   segment.obj
 0001:00012fce       __catch$_wrap_segment_t_set_ob_ok$8 0000000180013fce f   segment.obj
 0001:00012fe6       _wrap_segment_t_set_ob_ok$catch$1 0000000180013fe6 f   segment.obj
 0001:00012ff3       __catch$_wrap_segment_t_set_ob_ok$10 0000000180013ff3 f   segment.obj
 0001:0001301f       _wrap_segment_t_set_ob_ok$catch$0 000000018001401f f   segment.obj
 0001:0001302c       __catch$_wrap_segment_t_set_ob_ok$12 000000018001402c f   segment.obj
 0001:00013060       _wrap_segment_t_set_visible_segm$catch$5 0000000180014060 f   segment.obj
 0001:0001306d       __catch$_wrap_segment_t_set_visible_segm$3 000000018001406d f   segment.obj
 0001:00013093       _wrap_segment_t_set_visible_segm$catch$4 0000000180014093 f   segment.obj
 0001:000130a0       __catch$_wrap_segment_t_set_visible_segm$5 00000001800140a0 f   segment.obj
 0001:000130cc       _wrap_segment_t_set_visible_segm$catch$3 00000001800140cc f   segment.obj
 0001:000130d9       __catch$_wrap_segment_t_set_visible_segm$7 00000001800140d9 f   segment.obj
 0001:000130f1       _wrap_segment_t_set_visible_segm$catch$2 00000001800140f1 f   segment.obj
 0001:000130fe       __catch$_wrap_segment_t_set_visible_segm$9 00000001800140fe f   segment.obj
 0001:00013116       _wrap_segment_t_set_visible_segm$catch$1 0000000180014116 f   segment.obj
 0001:00013123       __catch$_wrap_segment_t_set_visible_segm$11 0000000180014123 f   segment.obj
 0001:0001314f       _wrap_segment_t_set_visible_segm$catch$0 000000018001414f f   segment.obj
 0001:0001315c       __catch$_wrap_segment_t_set_visible_segm$13 000000018001415c f   segment.obj
 0001:00013190       _wrap_segment_t_start_ea_get$catch$5 0000000180014190 f   segment.obj
 0001:0001319d       __catch$_wrap_segment_t_start_ea_get$2 000000018001419d f   segment.obj
 0001:000131c3       _wrap_segment_t_start_ea_get$catch$4 00000001800141c3 f   segment.obj
 0001:000131d0       __catch$_wrap_segment_t_start_ea_get$4 00000001800141d0 f   segment.obj
 0001:000131fc       _wrap_segment_t_start_ea_get$catch$3 00000001800141fc f   segment.obj
 0001:00013209       __catch$_wrap_segment_t_start_ea_get$6 0000000180014209 f   segment.obj
 0001:00013221       _wrap_segment_t_start_ea_get$catch$2 0000000180014221 f   segment.obj
 0001:0001322e       __catch$_wrap_segment_t_start_ea_get$8 000000018001422e f   segment.obj
 0001:00013246       _wrap_segment_t_start_ea_get$catch$1 0000000180014246 f   segment.obj
 0001:00013253       __catch$_wrap_segment_t_start_ea_get$10 0000000180014253 f   segment.obj
 0001:0001327f       _wrap_segment_t_start_ea_get$catch$0 000000018001427f f   segment.obj
 0001:0001328c       __catch$_wrap_segment_t_start_ea_get$12 000000018001428c f   segment.obj
 0001:000132c0       _wrap_segment_t_start_ea_set$catch$5 00000001800142c0 f   segment.obj
 0001:000132cd       __catch$_wrap_segment_t_start_ea_set$3 00000001800142cd f   segment.obj
 0001:000132f3       _wrap_segment_t_start_ea_set$catch$4 00000001800142f3 f   segment.obj
 0001:00013300       __catch$_wrap_segment_t_start_ea_set$5 0000000180014300 f   segment.obj
 0001:0001332c       _wrap_segment_t_start_ea_set$catch$3 000000018001432c f   segment.obj
 0001:00013339       __catch$_wrap_segment_t_start_ea_set$7 0000000180014339 f   segment.obj
 0001:00013351       _wrap_segment_t_start_ea_set$catch$2 0000000180014351 f   segment.obj
 0001:0001335e       __catch$_wrap_segment_t_start_ea_set$9 000000018001435e f   segment.obj
 0001:00013376       _wrap_segment_t_start_ea_set$catch$1 0000000180014376 f   segment.obj
 0001:00013383       __catch$_wrap_segment_t_start_ea_set$11 0000000180014383 f   segment.obj
 0001:000133af       _wrap_segment_t_start_ea_set$catch$0 00000001800143af f   segment.obj
 0001:000133bc       __catch$_wrap_segment_t_start_ea_set$13 00000001800143bc f   segment.obj
 0001:000133f0       _wrap_segment_t_update$catch$5 00000001800143f0 f   segment.obj
 0001:000133fd       __catch$_wrap_segment_t_update$2 00000001800143fd f   segment.obj
 0001:00013423       _wrap_segment_t_update$catch$4 0000000180014423 f   segment.obj
 0001:00013430       __catch$_wrap_segment_t_update$4 0000000180014430 f   segment.obj
 0001:0001345c       _wrap_segment_t_update$catch$3 000000018001445c f   segment.obj
 0001:00013469       __catch$_wrap_segment_t_update$6 0000000180014469 f   segment.obj
 0001:00013481       _wrap_segment_t_update$catch$2 0000000180014481 f   segment.obj
 0001:0001348e       __catch$_wrap_segment_t_update$8 000000018001448e f   segment.obj
 0001:000134a6       _wrap_segment_t_update$catch$1 00000001800144a6 f   segment.obj
 0001:000134b3       __catch$_wrap_segment_t_update$10 00000001800144b3 f   segment.obj
 0001:000134df       _wrap_segment_t_update$catch$0 00000001800144df f   segment.obj
 0001:000134ec       __catch$_wrap_segment_t_update$12 00000001800144ec f   segment.obj
 0001:00013520       _wrap_segment_t_use32$catch$5 0000000180014520 f   segment.obj
 0001:0001352d       __catch$_wrap_segment_t_use32$2 000000018001452d f   segment.obj
 0001:00013553       _wrap_segment_t_use32$catch$4 0000000180014553 f   segment.obj
 0001:00013560       __catch$_wrap_segment_t_use32$4 0000000180014560 f   segment.obj
 0001:0001358c       _wrap_segment_t_use32$catch$3 000000018001458c f   segment.obj
 0001:00013599       __catch$_wrap_segment_t_use32$6 0000000180014599 f   segment.obj
 0001:000135b1       _wrap_segment_t_use32$catch$2 00000001800145b1 f   segment.obj
 0001:000135be       __catch$_wrap_segment_t_use32$8 00000001800145be f   segment.obj
 0001:000135d6       _wrap_segment_t_use32$catch$1 00000001800145d6 f   segment.obj
 0001:000135e3       __catch$_wrap_segment_t_use32$10 00000001800145e3 f   segment.obj
 0001:0001360f       _wrap_segment_t_use32$catch$0 000000018001460f f   segment.obj
 0001:0001361c       __catch$_wrap_segment_t_use32$12 000000018001461c f   segment.obj
 0001:00013650       _wrap_segment_t_use64$catch$5 0000000180014650 f   segment.obj
 0001:0001365d       __catch$_wrap_segment_t_use64$2 000000018001465d f   segment.obj
 0001:00013683       _wrap_segment_t_use64$catch$4 0000000180014683 f   segment.obj
 0001:00013690       __catch$_wrap_segment_t_use64$4 0000000180014690 f   segment.obj
 0001:000136bc       _wrap_segment_t_use64$catch$3 00000001800146bc f   segment.obj
 0001:000136c9       __catch$_wrap_segment_t_use64$6 00000001800146c9 f   segment.obj
 0001:000136e1       _wrap_segment_t_use64$catch$2 00000001800146e1 f   segment.obj
 0001:000136ee       __catch$_wrap_segment_t_use64$8 00000001800146ee f   segment.obj
 0001:00013706       _wrap_segment_t_use64$catch$1 0000000180014706 f   segment.obj
 0001:00013713       __catch$_wrap_segment_t_use64$10 0000000180014713 f   segment.obj
 0001:0001373f       _wrap_segment_t_use64$catch$0 000000018001473f f   segment.obj
 0001:0001374c       __catch$_wrap_segment_t_use64$12 000000018001474c f   segment.obj
 0001:00013780       _wrap_segtype$catch$5      0000000180014780 f   segment.obj
 0001:0001378d       __catch$_wrap_segtype$2    000000018001478d f   segment.obj
 0001:000137b3       _wrap_segtype$catch$4      00000001800147b3 f   segment.obj
 0001:000137c0       __catch$_wrap_segtype$4    00000001800147c0 f   segment.obj
 0001:000137ec       _wrap_segtype$catch$3      00000001800147ec f   segment.obj
 0001:000137f9       __catch$_wrap_segtype$6    00000001800147f9 f   segment.obj
 0001:00013811       _wrap_segtype$catch$2      0000000180014811 f   segment.obj
 0001:0001381e       __catch$_wrap_segtype$8    000000018001481e f   segment.obj
 0001:00013836       _wrap_segtype$catch$1      0000000180014836 f   segment.obj
 0001:00013843       __catch$_wrap_segtype$10   0000000180014843 f   segment.obj
 0001:0001386f       _wrap_segtype$catch$0      000000018001486f f   segment.obj
 0001:0001387c       __catch$_wrap_segtype$12   000000018001487c f   segment.obj
 0001:000138b0       _wrap_sel2ea$catch$5       00000001800148b0 f   segment.obj
 0001:000138bd       __catch$_wrap_sel2ea$2     00000001800148bd f   segment.obj
 0001:000138e3       _wrap_sel2ea$catch$4       00000001800148e3 f   segment.obj
 0001:000138f0       __catch$_wrap_sel2ea$4     00000001800148f0 f   segment.obj
 0001:0001391c       _wrap_sel2ea$catch$3       000000018001491c f   segment.obj
 0001:00013929       __catch$_wrap_sel2ea$6     0000000180014929 f   segment.obj
 0001:00013941       _wrap_sel2ea$catch$2       0000000180014941 f   segment.obj
 0001:0001394e       __catch$_wrap_sel2ea$8     000000018001494e f   segment.obj
 0001:00013966       _wrap_sel2ea$catch$1       0000000180014966 f   segment.obj
 0001:00013973       __catch$_wrap_sel2ea$10    0000000180014973 f   segment.obj
 0001:0001399f       _wrap_sel2ea$catch$0       000000018001499f f   segment.obj
 0001:000139ac       __catch$_wrap_sel2ea$12    00000001800149ac f   segment.obj
 0001:000139e0       _wrap_sel2para$catch$5     00000001800149e0 f   segment.obj
 0001:000139ed       __catch$_wrap_sel2para$2   00000001800149ed f   segment.obj
 0001:00013a13       _wrap_sel2para$catch$4     0000000180014a13 f   segment.obj
 0001:00013a20       __catch$_wrap_sel2para$4   0000000180014a20 f   segment.obj
 0001:00013a4c       _wrap_sel2para$catch$3     0000000180014a4c f   segment.obj
 0001:00013a59       __catch$_wrap_sel2para$6   0000000180014a59 f   segment.obj
 0001:00013a71       _wrap_sel2para$catch$2     0000000180014a71 f   segment.obj
 0001:00013a7e       __catch$_wrap_sel2para$8   0000000180014a7e f   segment.obj
 0001:00013a96       _wrap_sel2para$catch$1     0000000180014a96 f   segment.obj
 0001:00013aa3       __catch$_wrap_sel2para$10  0000000180014aa3 f   segment.obj
 0001:00013acf       _wrap_sel2para$catch$0     0000000180014acf f   segment.obj
 0001:00013adc       __catch$_wrap_sel2para$12  0000000180014adc f   segment.obj
 0001:00013b10       _wrap_set_defsr$catch$5    0000000180014b10 f   segment.obj
 0001:00013b1d       __catch$_wrap_set_defsr$4  0000000180014b1d f   segment.obj
 0001:00013b43       _wrap_set_defsr$catch$4    0000000180014b43 f   segment.obj
 0001:00013b50       __catch$_wrap_set_defsr$6  0000000180014b50 f   segment.obj
 0001:00013b7c       _wrap_set_defsr$catch$3    0000000180014b7c f   segment.obj
 0001:00013b89       __catch$_wrap_set_defsr$8  0000000180014b89 f   segment.obj
 0001:00013ba1       _wrap_set_defsr$catch$2    0000000180014ba1 f   segment.obj
 0001:00013bae       __catch$_wrap_set_defsr$10 0000000180014bae f   segment.obj
 0001:00013bc6       _wrap_set_defsr$catch$1    0000000180014bc6 f   segment.obj
 0001:00013bd3       __catch$_wrap_set_defsr$12 0000000180014bd3 f   segment.obj
 0001:00013bff       _wrap_set_defsr$catch$0    0000000180014bff f   segment.obj
 0001:00013c0c       __catch$_wrap_set_defsr$14 0000000180014c0c f   segment.obj
 0001:00013c40       _wrap_set_group_selector$catch$5 0000000180014c40 f   segment.obj
 0001:00013c4d       __catch$_wrap_set_group_selector$3 0000000180014c4d f   segment.obj
 0001:00013c73       _wrap_set_group_selector$catch$4 0000000180014c73 f   segment.obj
 0001:00013c80       __catch$_wrap_set_group_selector$5 0000000180014c80 f   segment.obj
 0001:00013cac       _wrap_set_group_selector$catch$3 0000000180014cac f   segment.obj
 0001:00013cb9       __catch$_wrap_set_group_selector$7 0000000180014cb9 f   segment.obj
 0001:00013cd1       _wrap_set_group_selector$catch$2 0000000180014cd1 f   segment.obj
 0001:00013cde       __catch$_wrap_set_group_selector$9 0000000180014cde f   segment.obj
 0001:00013cf6       _wrap_set_group_selector$catch$1 0000000180014cf6 f   segment.obj
 0001:00013d03       __catch$_wrap_set_group_selector$11 0000000180014d03 f   segment.obj
 0001:00013d2f       _wrap_set_group_selector$catch$0 0000000180014d2f f   segment.obj
 0001:00013d3c       __catch$_wrap_set_group_selector$13 0000000180014d3c f   segment.obj
 0001:00013d70       _wrap_set_segm_addressing$catch$5 0000000180014d70 f   segment.obj
 0001:00013d7d       __catch$_wrap_set_segm_addressing$3 0000000180014d7d f   segment.obj
 0001:00013da3       _wrap_set_segm_addressing$catch$4 0000000180014da3 f   segment.obj
 0001:00013db0       __catch$_wrap_set_segm_addressing$5 0000000180014db0 f   segment.obj
 0001:00013ddc       _wrap_set_segm_addressing$catch$3 0000000180014ddc f   segment.obj
 0001:00013de9       __catch$_wrap_set_segm_addressing$7 0000000180014de9 f   segment.obj
 0001:00013e01       _wrap_set_segm_addressing$catch$2 0000000180014e01 f   segment.obj
 0001:00013e0e       __catch$_wrap_set_segm_addressing$9 0000000180014e0e f   segment.obj
 0001:00013e26       _wrap_set_segm_addressing$catch$1 0000000180014e26 f   segment.obj
 0001:00013e33       __catch$_wrap_set_segm_addressing$11 0000000180014e33 f   segment.obj
 0001:00013e5f       _wrap_set_segm_addressing$catch$0 0000000180014e5f f   segment.obj
 0001:00013e6c       __catch$_wrap_set_segm_addressing$13 0000000180014e6c f   segment.obj
 0001:00013ea0       _wrap_set_segm_base$catch$5 0000000180014ea0 f   segment.obj
 0001:00013ead       __catch$_wrap_set_segm_base$3 0000000180014ead f   segment.obj
 0001:00013ed3       _wrap_set_segm_base$catch$4 0000000180014ed3 f   segment.obj
 0001:00013ee0       __catch$_wrap_set_segm_base$5 0000000180014ee0 f   segment.obj
 0001:00013f0c       _wrap_set_segm_base$catch$3 0000000180014f0c f   segment.obj
 0001:00013f19       __catch$_wrap_set_segm_base$7 0000000180014f19 f   segment.obj
 0001:00013f31       _wrap_set_segm_base$catch$2 0000000180014f31 f   segment.obj
 0001:00013f3e       __catch$_wrap_set_segm_base$9 0000000180014f3e f   segment.obj
 0001:00013f56       _wrap_set_segm_base$catch$1 0000000180014f56 f   segment.obj
 0001:00013f63       __catch$_wrap_set_segm_base$11 0000000180014f63 f   segment.obj
 0001:00013f8f       _wrap_set_segm_base$catch$0 0000000180014f8f f   segment.obj
 0001:00013f9c       __catch$_wrap_set_segm_base$13 0000000180014f9c f   segment.obj
 0001:00013fd0       _wrap_set_segm_class$catch$5 0000000180014fd0 f   segment.obj
 0001:00013fdd       __catch$_wrap_set_segm_class$4 0000000180014fdd f   segment.obj
 0001:00014003       _wrap_set_segm_class$catch$4 0000000180015003 f   segment.obj
 0001:00014010       __catch$_wrap_set_segm_class$6 0000000180015010 f   segment.obj
 0001:0001403c       _wrap_set_segm_class$catch$3 000000018001503c f   segment.obj
 0001:00014049       __catch$_wrap_set_segm_class$8 0000000180015049 f   segment.obj
 0001:00014061       _wrap_set_segm_class$catch$2 0000000180015061 f   segment.obj
 0001:0001406e       __catch$_wrap_set_segm_class$10 000000018001506e f   segment.obj
 0001:00014086       _wrap_set_segm_class$catch$1 0000000180015086 f   segment.obj
 0001:00014093       __catch$_wrap_set_segm_class$12 0000000180015093 f   segment.obj
 0001:000140bf       _wrap_set_segm_class$catch$0 00000001800150bf f   segment.obj
 0001:000140cc       __catch$_wrap_set_segm_class$14 00000001800150cc f   segment.obj
 0001:00014100       _wrap_set_segm_end$catch$5 0000000180015100 f   segment.obj
 0001:0001410d       __catch$_wrap_set_segm_end$4 000000018001510d f   segment.obj
 0001:00014133       _wrap_set_segm_end$catch$4 0000000180015133 f   segment.obj
 0001:00014140       __catch$_wrap_set_segm_end$6 0000000180015140 f   segment.obj
 0001:0001416c       _wrap_set_segm_end$catch$3 000000018001516c f   segment.obj
 0001:00014179       __catch$_wrap_set_segm_end$8 0000000180015179 f   segment.obj
 0001:00014191       _wrap_set_segm_end$catch$2 0000000180015191 f   segment.obj
 0001:0001419e       __catch$_wrap_set_segm_end$10 000000018001519e f   segment.obj
 0001:000141b6       _wrap_set_segm_end$catch$1 00000001800151b6 f   segment.obj
 0001:000141c3       __catch$_wrap_set_segm_end$12 00000001800151c3 f   segment.obj
 0001:000141ef       _wrap_set_segm_end$catch$0 00000001800151ef f   segment.obj
 0001:000141fc       __catch$_wrap_set_segm_end$14 00000001800151fc f   segment.obj
 0001:00014230       _wrap_set_segm_name$catch$5 0000000180015230 f   segment.obj
 0001:0001423d       __catch$_wrap_set_segm_name$4 000000018001523d f   segment.obj
 0001:00014263       _wrap_set_segm_name$catch$4 0000000180015263 f   segment.obj
 0001:00014270       __catch$_wrap_set_segm_name$6 0000000180015270 f   segment.obj
 0001:0001429c       _wrap_set_segm_name$catch$3 000000018001529c f   segment.obj
 0001:000142a9       __catch$_wrap_set_segm_name$8 00000001800152a9 f   segment.obj
 0001:000142c1       _wrap_set_segm_name$catch$2 00000001800152c1 f   segment.obj
 0001:000142ce       __catch$_wrap_set_segm_name$10 00000001800152ce f   segment.obj
 0001:000142e6       _wrap_set_segm_name$catch$1 00000001800152e6 f   segment.obj
 0001:000142f3       __catch$_wrap_set_segm_name$12 00000001800152f3 f   segment.obj
 0001:0001431f       _wrap_set_segm_name$catch$0 000000018001531f f   segment.obj
 0001:0001432c       __catch$_wrap_set_segm_name$14 000000018001532c f   segment.obj
 0001:00014360       _wrap_set_segm_start$catch$5 0000000180015360 f   segment.obj
 0001:0001436d       __catch$_wrap_set_segm_start$4 000000018001536d f   segment.obj
 0001:00014393       _wrap_set_segm_start$catch$4 0000000180015393 f   segment.obj
 0001:000143a0       __catch$_wrap_set_segm_start$6 00000001800153a0 f   segment.obj
 0001:000143cc       _wrap_set_segm_start$catch$3 00000001800153cc f   segment.obj
 0001:000143d9       __catch$_wrap_set_segm_start$8 00000001800153d9 f   segment.obj
 0001:000143f1       _wrap_set_segm_start$catch$2 00000001800153f1 f   segment.obj
 0001:000143fe       __catch$_wrap_set_segm_start$10 00000001800153fe f   segment.obj
 0001:00014416       _wrap_set_segm_start$catch$1 0000000180015416 f   segment.obj
 0001:00014423       __catch$_wrap_set_segm_start$12 0000000180015423 f   segment.obj
 0001:0001444f       _wrap_set_segm_start$catch$0 000000018001544f f   segment.obj
 0001:0001445c       __catch$_wrap_set_segm_start$14 000000018001545c f   segment.obj
 0001:00014490       _wrap_set_segment_cmt$catch$5 0000000180015490 f   segment.obj
 0001:0001449d       __catch$_wrap_set_segment_cmt$4 000000018001549d f   segment.obj
 0001:000144c3       _wrap_set_segment_cmt$catch$4 00000001800154c3 f   segment.obj
 0001:000144d0       __catch$_wrap_set_segment_cmt$6 00000001800154d0 f   segment.obj
 0001:000144fc       _wrap_set_segment_cmt$catch$3 00000001800154fc f   segment.obj
 0001:00014509       __catch$_wrap_set_segment_cmt$8 0000000180015509 f   segment.obj
 0001:00014521       _wrap_set_segment_cmt$catch$2 0000000180015521 f   segment.obj
 0001:0001452e       __catch$_wrap_set_segment_cmt$10 000000018001552e f   segment.obj
 0001:00014546       _wrap_set_segment_cmt$catch$1 0000000180015546 f   segment.obj
 0001:00014553       __catch$_wrap_set_segment_cmt$12 0000000180015553 f   segment.obj
 0001:0001457f       _wrap_set_segment_cmt$catch$0 000000018001557f f   segment.obj
 0001:0001458c       __catch$_wrap_set_segment_cmt$14 000000018001558c f   segment.obj
 0001:000145c0       _wrap_set_segment_translations$catch$6 00000001800155c0 f   segment.obj
 0001:000145cd       __catch$_wrap_set_segment_translations$4 00000001800155cd f   segment.obj
 0001:000145f3       _wrap_set_segment_translations$catch$5 00000001800155f3 f   segment.obj
 0001:00014600       __catch$_wrap_set_segment_translations$6 0000000180015600 f   segment.obj
 0001:0001462c       _wrap_set_segment_translations$catch$4 000000018001562c f   segment.obj
 0001:00014639       __catch$_wrap_set_segment_translations$8 0000000180015639 f   segment.obj
 0001:00014651       _wrap_set_segment_translations$catch$3 0000000180015651 f   segment.obj
 0001:0001465e       __catch$_wrap_set_segment_translations$10 000000018001565e f   segment.obj
 0001:00014676       _wrap_set_segment_translations$catch$2 0000000180015676 f   segment.obj
 0001:00014683       __catch$_wrap_set_segment_translations$12 0000000180015683 f   segment.obj
 0001:000146af       _wrap_set_segment_translations$catch$1 00000001800156af f   segment.obj
 0001:000146bc       __catch$_wrap_set_segment_translations$14 00000001800156bc f   segment.obj
 0001:000146f0       _wrap_set_selector$catch$5 00000001800156f0 f   segment.obj
 0001:000146fd       __catch$_wrap_set_selector$3 00000001800156fd f   segment.obj
 0001:00014723       _wrap_set_selector$catch$4 0000000180015723 f   segment.obj
 0001:00014730       __catch$_wrap_set_selector$5 0000000180015730 f   segment.obj
 0001:0001475c       _wrap_set_selector$catch$3 000000018001575c f   segment.obj
 0001:00014769       __catch$_wrap_set_selector$7 0000000180015769 f   segment.obj
 0001:00014781       _wrap_set_selector$catch$2 0000000180015781 f   segment.obj
 0001:0001478e       __catch$_wrap_set_selector$9 000000018001578e f   segment.obj
 0001:000147a6       _wrap_set_selector$catch$1 00000001800157a6 f   segment.obj
 0001:000147b3       __catch$_wrap_set_selector$11 00000001800157b3 f   segment.obj
 0001:000147df       _wrap_set_selector$catch$0 00000001800157df f   segment.obj
 0001:000147ec       __catch$_wrap_set_selector$13 00000001800157ec f   segment.obj
 0001:00014820       _wrap_set_visible_segm$catch$5 0000000180015820 f   segment.obj
 0001:0001482d       __catch$_wrap_set_visible_segm$3 000000018001582d f   segment.obj
 0001:00014853       _wrap_set_visible_segm$catch$4 0000000180015853 f   segment.obj
 0001:00014860       __catch$_wrap_set_visible_segm$5 0000000180015860 f   segment.obj
 0001:0001488c       _wrap_set_visible_segm$catch$3 000000018001588c f   segment.obj
 0001:00014899       __catch$_wrap_set_visible_segm$7 0000000180015899 f   segment.obj
 0001:000148b1       _wrap_set_visible_segm$catch$2 00000001800158b1 f   segment.obj
 0001:000148be       __catch$_wrap_set_visible_segm$9 00000001800158be f   segment.obj
 0001:000148d6       _wrap_set_visible_segm$catch$1 00000001800158d6 f   segment.obj
 0001:000148e3       __catch$_wrap_set_visible_segm$11 00000001800158e3 f   segment.obj
 0001:0001490f       _wrap_set_visible_segm$catch$0 000000018001590f f   segment.obj
 0001:0001491c       __catch$_wrap_set_visible_segm$13 000000018001591c f   segment.obj
 0001:00014950       _wrap_setup_selector$catch$5 0000000180015950 f   segment.obj
 0001:0001495d       __catch$_wrap_setup_selector$2 000000018001595d f   segment.obj
 0001:00014983       _wrap_setup_selector$catch$4 0000000180015983 f   segment.obj
 0001:00014990       __catch$_wrap_setup_selector$4 0000000180015990 f   segment.obj
 0001:000149bc       _wrap_setup_selector$catch$3 00000001800159bc f   segment.obj
 0001:000149c9       __catch$_wrap_setup_selector$6 00000001800159c9 f   segment.obj
 0001:000149e1       _wrap_setup_selector$catch$2 00000001800159e1 f   segment.obj
 0001:000149ee       __catch$_wrap_setup_selector$8 00000001800159ee f   segment.obj
 0001:00014a06       _wrap_setup_selector$catch$1 0000000180015a06 f   segment.obj
 0001:00014a13       __catch$_wrap_setup_selector$10 0000000180015a13 f   segment.obj
 0001:00014a3f       _wrap_setup_selector$catch$0 0000000180015a3f f   segment.obj
 0001:00014a4c       __catch$_wrap_setup_selector$12 0000000180015a4c f   segment.obj
 0001:00014a80       _wrap_std_out_segm_footer$catch$5 0000000180015a80 f   segment.obj
 0001:00014a8d       __catch$_wrap_std_out_segm_footer$4 0000000180015a8d f   segment.obj
 0001:00014ab3       _wrap_std_out_segm_footer$catch$4 0000000180015ab3 f   segment.obj
 0001:00014ac0       __catch$_wrap_std_out_segm_footer$6 0000000180015ac0 f   segment.obj
 0001:00014aec       _wrap_std_out_segm_footer$catch$3 0000000180015aec f   segment.obj
 0001:00014af9       __catch$_wrap_std_out_segm_footer$8 0000000180015af9 f   segment.obj
 0001:00014b11       _wrap_std_out_segm_footer$catch$2 0000000180015b11 f   segment.obj
 0001:00014b1e       __catch$_wrap_std_out_segm_footer$10 0000000180015b1e f   segment.obj
 0001:00014b36       _wrap_std_out_segm_footer$catch$1 0000000180015b36 f   segment.obj
 0001:00014b43       __catch$_wrap_std_out_segm_footer$12 0000000180015b43 f   segment.obj
 0001:00014b6f       _wrap_std_out_segm_footer$catch$0 0000000180015b6f f   segment.obj
 0001:00014b7c       __catch$_wrap_std_out_segm_footer$14 0000000180015b7c f   segment.obj
 0001:00014bb0       _wrap_take_memory_snapshot$catch$5 0000000180015bb0 f   segment.obj
 0001:00014bbd       __catch$_wrap_take_memory_snapshot$2 0000000180015bbd f   segment.obj
 0001:00014be3       _wrap_take_memory_snapshot$catch$4 0000000180015be3 f   segment.obj
 0001:00014bf0       __catch$_wrap_take_memory_snapshot$4 0000000180015bf0 f   segment.obj
 0001:00014c1c       _wrap_take_memory_snapshot$catch$3 0000000180015c1c f   segment.obj
 0001:00014c29       __catch$_wrap_take_memory_snapshot$6 0000000180015c29 f   segment.obj
 0001:00014c41       _wrap_take_memory_snapshot$catch$2 0000000180015c41 f   segment.obj
 0001:00014c4e       __catch$_wrap_take_memory_snapshot$8 0000000180015c4e f   segment.obj
 0001:00014c66       _wrap_take_memory_snapshot$catch$1 0000000180015c66 f   segment.obj
 0001:00014c73       __catch$_wrap_take_memory_snapshot$10 0000000180015c73 f   segment.obj
 0001:00014c9f       _wrap_take_memory_snapshot$catch$0 0000000180015c9f f   segment.obj
 0001:00014cac       __catch$_wrap_take_memory_snapshot$12 0000000180015cac f   segment.obj
 0001:00014ce0       _wrap_update_segm$catch$5  0000000180015ce0 f   segment.obj
 0001:00014ced       __catch$_wrap_update_segm$2 0000000180015ced f   segment.obj
 0001:00014d13       _wrap_update_segm$catch$4  0000000180015d13 f   segment.obj
 0001:00014d20       __catch$_wrap_update_segm$4 0000000180015d20 f   segment.obj
 0001:00014d4c       _wrap_update_segm$catch$3  0000000180015d4c f   segment.obj
 0001:00014d59       __catch$_wrap_update_segm$6 0000000180015d59 f   segment.obj
 0001:00014d71       _wrap_update_segm$catch$2  0000000180015d71 f   segment.obj
 0001:00014d7e       __catch$_wrap_update_segm$8 0000000180015d7e f   segment.obj
 0001:00014d96       _wrap_update_segm$catch$1  0000000180015d96 f   segment.obj
 0001:00014da3       __catch$_wrap_update_segm$10 0000000180015da3 f   segment.obj
 0001:00014dcf       _wrap_update_segm$catch$0  0000000180015dcf f   segment.obj
 0001:00014ddc       __catch$_wrap_update_segm$12 0000000180015ddc f   segment.obj
 0001:00014e02       ?fin$0@?0??dllmain_crt_process_attach@@YAHQEAUHINSTANCE__@@QEAX@Z@4HA 0000000180015e02 f   MSVCRT:dll_dllmain.obj
 0001:00014e19       ?fin$0@?0??dllmain_crt_process_detach@@YAH_N@Z@4HA 0000000180015e19 f   MSVCRT:dll_dllmain.obj
 0001:00014e35       ?filt$0@?0??dllmain_dispatch@@YAHQEAUHINSTANCE__@@KQEAX@Z@4HA 0000000180015e35 f   MSVCRT:dll_dllmain.obj
 0001:00014e6b       __scrt_is_nonwritable_in_current_image$filt$0 0000000180015e6b f   MSVCRT:utility.obj
 0002:000006a0       ?__scrt_initialize_tss_var@@3P6AHXZEA 00000001800166a0     MSVCRT:thread_safe_statics.obj
 0002:00003bc8       $cppxdata$_wrap_new_segment_t 0000000180019bc8     segment.obj
 0002:00003bf0       $cppxdata$_wrap_segment_t_use32 0000000180019bf0     segment.obj
 0002:00003c18       $cppxdata$_wrap_segment_t_use64 0000000180019c18     segment.obj
 0002:00003c40       $cppxdata$_wrap_segment_t_abits 0000000180019c40     segment.obj
 0002:00003c68       $cppxdata$_wrap_segment_t_abytes 0000000180019c68     segment.obj
 0002:00003c90       $cppxdata$_wrap_segment_t_comorg 0000000180019c90     segment.obj
 0002:00003cb8       $cppxdata$_wrap_segment_t_set_comorg 0000000180019cb8     segment.obj
 0002:00003ce0       $cppxdata$_wrap_segment_t_clr_comorg 0000000180019ce0     segment.obj
 0002:00003d08       $cppxdata$_wrap_segment_t_ob_ok 0000000180019d08     segment.obj
 0002:00003d30       $cppxdata$_wrap_segment_t_set_ob_ok 0000000180019d30     segment.obj
 0002:00003d58       $cppxdata$_wrap_segment_t_clr_ob_ok 0000000180019d58     segment.obj
 0002:00003d80       $cppxdata$_wrap_segment_t_is_visible_segm 0000000180019d80     segment.obj
 0002:00003da8       $cppxdata$_wrap_segment_t_set_visible_segm 0000000180019da8     segment.obj
 0002:00003dd0       $cppxdata$_wrap_segment_t_set_debugger_segm 0000000180019dd0     segment.obj
 0002:00003df8       $cppxdata$_wrap_segment_t_is_loader_segm 0000000180019df8     segment.obj
 0002:00003e20       $cppxdata$_wrap_segment_t_set_loader_segm 0000000180019e20     segment.obj
 0002:00003e48       $cppxdata$_wrap_segment_t_is_hidden_segtype 0000000180019e48     segment.obj
 0002:00003e70       $cppxdata$_wrap_segment_t_set_hidden_segtype 0000000180019e70     segment.obj
 0002:00003e98       $cppxdata$_wrap_segment_t_is_header_segm 0000000180019e98     segment.obj
 0002:00003ec0       $cppxdata$_wrap_segment_t_set_header_segm 0000000180019ec0     segment.obj
 0002:00003ee8       $cppxdata$_wrap_segment_t_update 0000000180019ee8     segment.obj
 0002:00003f10       $cppxdata$_wrap_segment_t_start_ea_set 0000000180019f10     segment.obj
 0002:00003f38       $cppxdata$_wrap_segment_t_start_ea_get 0000000180019f38     segment.obj
 0002:00003f60       $cppxdata$_wrap_segment_t_end_ea_set 0000000180019f60     segment.obj
 0002:00003f88       $cppxdata$_wrap_segment_t_end_ea_get 0000000180019f88     segment.obj
 0002:00003fb0       $cppxdata$_wrap_delete_segment_t 0000000180019fb0     segment.obj
 0002:00003fd8       $cppxdata$_wrap_is_visible_segm 0000000180019fd8     segment.obj
 0002:00004000       $cppxdata$_wrap_is_finally_visible_segm 000000018001a000     segment.obj
 0002:00004028       $cppxdata$_wrap_set_visible_segm 000000018001a028     segment.obj
 0002:00004050       $cppxdata$_wrap_is_spec_segm 000000018001a050     segment.obj
 0002:00004078       $cppxdata$_wrap_is_spec_ea 000000018001a078     segment.obj
 0002:000040a0       $cppxdata$_wrap_lock_segm  000000018001a0a0     segment.obj
 0002:000040c8       $cppxdata$_wrap_new_lock_segment 000000018001a0c8     segment.obj
 0002:000040f0       $cppxdata$_wrap_delete_lock_segment 000000018001a0f0     segment.obj
 0002:00004118       $cppxdata$_wrap_is_segm_locked 000000018001a118     segment.obj
 0002:00004140       $cppxdata$_wrap_getn_selector 000000018001a140     segment.obj
 0002:00004168       $cppxdata$_wrap_get_selector_qty 000000018001a168     segment.obj
 0002:00004190       $cppxdata$_wrap_setup_selector 000000018001a190     segment.obj
 0002:000041b8       $cppxdata$_wrap_allocate_selector 000000018001a1b8     segment.obj
 0002:000041e0       $cppxdata$_wrap_find_free_selector 000000018001a1e0     segment.obj
 0002:00004208       $cppxdata$_wrap_set_selector 000000018001a208     segment.obj
 0002:00004230       $cppxdata$_wrap_del_selector 000000018001a230     segment.obj
 0002:00004258       $cppxdata$_wrap_sel2para   000000018001a258     segment.obj
 0002:00004280       $cppxdata$_wrap_sel2ea     000000018001a280     segment.obj
 0002:000042a8       $cppxdata$_wrap_find_selector 000000018001a2a8     segment.obj
 0002:000042d0       $cppxdata$_wrap_get_segm_by_sel 000000018001a2d0     segment.obj
 0002:000042f8       $cppxdata$_wrap_add_segm_ex 000000018001a2f8     segment.obj
 0002:00004320       $cppxdata$_wrap_add_segm   000000018001a320     segment.obj
 0002:00004348       $cppxdata$_wrap_del_segm   000000018001a348     segment.obj
 0002:00004370       $cppxdata$_wrap_get_segm_qty 000000018001a370     segment.obj
 0002:00004398       $cppxdata$_wrap_getseg     000000018001a398     segment.obj
 0002:000043c0       $cppxdata$_wrap_getnseg    000000018001a3c0     segment.obj
 0002:000043e8       $cppxdata$_wrap_get_segm_num 000000018001a3e8     segment.obj
 0002:00004410       $cppxdata$_wrap_get_next_seg 000000018001a410     segment.obj
 0002:00004438       $cppxdata$_wrap_get_prev_seg 000000018001a438     segment.obj
 0002:00004460       $cppxdata$_wrap_get_first_seg 000000018001a460     segment.obj
 0002:00004488       $cppxdata$_wrap_get_last_seg 000000018001a488     segment.obj
 0002:000044b0       $cppxdata$_wrap_get_segm_by_name 000000018001a4b0     segment.obj
 0002:000044d8       $cppxdata$_wrap_set_segm_end 000000018001a4d8     segment.obj
 0002:00004500       $cppxdata$_wrap_set_segm_start 000000018001a500     segment.obj
 0002:00004528       $cppxdata$_wrap_move_segm_start 000000018001a528     segment.obj
 0002:00004550       $cppxdata$_wrap_move_segm  000000018001a550     segment.obj
 0002:00004578       $cppxdata$_wrap_change_segment_status 000000018001a578     segment.obj
 0002:000045a0       $cppxdata$_wrap_take_memory_snapshot 000000018001a5a0     segment.obj
 0002:000045c8       $cppxdata$_wrap_is_miniidb 000000018001a5c8     segment.obj
 0002:000045f0       $cppxdata$_wrap_set_segm_base 000000018001a5f0     segment.obj
 0002:00004618       $cppxdata$_wrap_set_group_selector 000000018001a618     segment.obj
 0002:00004640       $cppxdata$_wrap_get_group_selector 000000018001a640     segment.obj
 0002:00004668       $cppxdata$_wrap_add_segment_translation 000000018001a668     segment.obj
 0002:00004690       $cppxdata$_wrap_set_segment_translations 000000018001a690     segment.obj
 0002:000046b8       $cppxdata$_wrap_del_segment_translations 000000018001a6b8     segment.obj
 0002:000046e0       $cppxdata$_wrap_get_segment_translations 000000018001a6e0     segment.obj
 0002:00004708       $cppxdata$_wrap_get_segment_cmt 000000018001a708     segment.obj
 0002:00004730       $cppxdata$_wrap_set_segment_cmt 000000018001a730     segment.obj
 0002:00004758       $cppxdata$_wrap_std_out_segm_footer 000000018001a758     segment.obj
 0002:00004780       $cppxdata$_wrap_set_segm_name 000000018001a780     segment.obj
 0002:000047a8       $cppxdata$_wrap_get_segm_name 000000018001a7a8     segment.obj
 0002:000047d0       $cppxdata$_wrap_get_visible_segm_name 000000018001a7d0     segment.obj
 0002:000047f8       $cppxdata$_wrap_get_segm_class 000000018001a7f8     segment.obj
 0002:00004820       $cppxdata$_wrap_set_segm_class 000000018001a820     segment.obj
 0002:00004848       $cppxdata$_wrap_segtype    000000018001a848     segment.obj
 0002:00004870       $cppxdata$_wrap_get_segment_alignment 000000018001a870     segment.obj
 0002:00004898       $cppxdata$_wrap_get_segment_combination 000000018001a898     segment.obj
 0002:000048c0       $cppxdata$_wrap_get_segm_para 000000018001a8c0     segment.obj
 0002:000048e8       $cppxdata$_wrap_get_segm_base 000000018001a8e8     segment.obj
 0002:00004910       $cppxdata$_wrap_set_segm_addressing 000000018001a910     segment.obj
 0002:00004938       $cppxdata$_wrap_update_segm 000000018001a938     segment.obj
 0002:00004960       $cppxdata$_wrap_segm_adjust_diff 000000018001a960     segment.obj
 0002:00004988       $cppxdata$_wrap_segm_adjust_ea 000000018001a988     segment.obj
 0002:000049b0       $cppxdata$_wrap_get_defsr  000000018001a9b0     segment.obj
 0002:000049d8       $cppxdata$_wrap_set_defsr  000000018001a9d8     segment.obj
 0002:00004a00       $cppxdata$_wrap_rebase_program 000000018001aa00     segment.obj
 0002:00004a28       ?hex@?1??SWIG_PackData@@9@4QBDB 000000018001aa28     segment.obj
 0002:00007c10       ?cis@?1??PyInit__ida_segment@@9@4QBUci_t@?1??1@YAPEAU_object@@XZ@B 000000018001dc10     segment.obj
 0002:000086a0       $cppxdata$?__scrt_initialize_thread_safe_statics@@YAHXZ 000000018001e6a0     MSVCRT:thread_safe_statics.obj
 0002:00008820       GS_ExceptionPointers       000000018001e820     MSVCRT:gs_report.obj
 0002:00008ef0       $unwind$printf             000000018001eef0     segment.obj
 0002:00008efc       $unwind$_RTC_Initialize    000000018001eefc     MSVCRT:initsect.obj
 0002:00008efc       $unwind$_RTC_Terminate     000000018001eefc     MSVCRT:initsect.obj
 0002:00008efc       $unwind$??_Gexception@std@@UEAAPEAXI@Z 000000018001eefc     MSVCRT:throw_bad_alloc.obj
 0002:00008efc       $unwind$??_Gbad_array_new_length@std@@UEAAPEAXI@Z 000000018001eefc     MSVCRT:throw_bad_alloc.obj
 0002:00008efc       $unwind$SwigPyObject_append 000000018001eefc     segment.obj
 0002:00008efc       $unwind$SWIG_TypeClientData 000000018001eefc     segment.obj
 0002:00008efc       $unwind$??_Gbad_alloc@std@@UEAAPEAXI@Z 000000018001eefc     MSVCRT:throw_bad_alloc.obj
 0002:00008f08       $unwind$SWIG_MangledTypeQueryModule 000000018001ef08     segment.obj
 0002:00008f18       $unwind$?SWIG_Python_AppendOutput@@YAPEAU_object@@PEAU1@0@Z 000000018001ef18     segment.obj
 0002:00008f24       $chain$0$?SWIG_Python_AppendOutput@@YAPEAU_object@@PEAU1@0@Z 000000018001ef24     segment.obj
 0002:00008f38       $chain$1$?SWIG_Python_AppendOutput@@YAPEAU_object@@PEAU1@0@Z 000000018001ef38     segment.obj
 0002:00008f48       $unwind$?SWIG_Python_UnpackTuple@@YA_JPEAU_object@@PEBD_J2PEAPEAU1@@Z 000000018001ef48     segment.obj
 0002:00008f5c       $chain$0$?SWIG_Python_UnpackTuple@@YA_JPEAU_object@@PEBD_J2PEAPEAU1@@Z 000000018001ef5c     segment.obj
 0002:00008f70       $chain$1$?SWIG_Python_UnpackTuple@@YA_JPEAU_object@@PEBD_J2PEAPEAU1@@Z 000000018001ef70     segment.obj
 0002:00008f80       $unwind$SwigPyClientData_New 000000018001ef80     segment.obj
 0002:00008f90       $chain$2$SwigPyClientData_New 000000018001ef90     segment.obj
 0002:00008fa4       $chain$3$SwigPyClientData_New 000000018001efa4     segment.obj
 0002:00008fb4       $unwind$SwigPyObject_repr  000000018001efb4     segment.obj
 0002:00008fc0       $chain$0$SwigPyObject_repr 000000018001efc0     segment.obj
 0002:00008fd4       $chain$1$SwigPyObject_repr 000000018001efd4     segment.obj
 0002:00008fe4       $unwind$SwigPyObject_type  000000018001efe4     segment.obj
 0002:00008ff8       $unwind$SwigPyPacked_Check 000000018001eff8     segment.obj
 0002:00008ff8       $unwind$SwigPyObject_Check 000000018001eff8     segment.obj
 0002:00009004       $unwind$_DllMainCRTStartup 000000018001f004     MSVCRT:dll_dllmain.obj
 0002:00009004       $unwind$SwigPyObject_New   000000018001f004     segment.obj
 0002:00009014       $unwind$SwigPyObject_dealloc 000000018001f014     segment.obj
 0002:00009020       $chain$2$SwigPyObject_dealloc 000000018001f020     segment.obj
 0002:0000903c       $chain$3$SwigPyObject_dealloc 000000018001f03c     segment.obj
 0002:0000904c       $unwind$SwigPyObject_own   000000018001f04c     segment.obj
 0002:00009054       $chain$0$SwigPyObject_own  000000018001f054     segment.obj
 0002:00009068       $chain$2$SwigPyObject_own  000000018001f068     segment.obj
 0002:0000907c       $unwind$SwigPyPacked_str   000000018001f07c     segment.obj
 0002:0000907c       $unwind$SwigPyPacked_repr  000000018001f07c     segment.obj
 0002:0000908c       $chain$0$SwigPyPacked_repr 000000018001f08c     segment.obj
 0002:000090a0       $chain$1$SwigPyPacked_repr 000000018001f0a0     segment.obj
 0002:000090b0       $chain$0$SwigPyPacked_str  000000018001f0b0     segment.obj
 0002:000090c4       $chain$1$SwigPyPacked_str  000000018001f0c4     segment.obj
 0002:000090d4       $unwind$SwigPyPacked_type  000000018001f0d4     segment.obj
 0002:000090e4       $unwind$SwigPyPacked_dealloc 000000018001f0e4     segment.obj
 0002:000090e4       $unwind$__raise_securityfailure 000000018001f0e4     MSVCRT:gs_report.obj
 0002:000090e4       $unwind$__scrt_uninitialize_crt 000000018001f0e4     MSVCRT:utility.obj
 0002:000090e4       $unwind$??2@YAPEAX_K@Z     000000018001f0e4     MSVCRT:new_scalar.obj
 0002:000090e4       $unwind$_Init_thread_footer 000000018001f0e4     MSVCRT:thread_safe_statics.obj
 0002:000090e4       $unwind$?SWIG_FromCharPtr@@YAPEAU_object@@PEBD@Z 000000018001f0e4     segment.obj
 0002:000090e4       $unwind$??_Gtype_info@@UEAAPEAXI@Z 000000018001f0e4     MSVCRT:std_type_info_static.obj
 0002:000090e4       $unwind$__scrt_release_startup_lock 000000018001f0e4     MSVCRT:utility.obj
 0002:000090e4       $unwind$__scrt_initialize_crt 000000018001f0e4     MSVCRT:utility.obj
 0002:000090e4       $unwind$_Init_thread_wait  000000018001f0e4     MSVCRT:thread_safe_statics.obj
 0002:000090e4       $unwind$_Init_thread_header 000000018001f0e4     MSVCRT:thread_safe_statics.obj
 0002:000090e4       $unwind$??0exception@std@@QEAA@AEBV01@@Z 000000018001f0e4     MSVCRT:throw_bad_alloc.obj
 0002:000090e4       $unwind$_onexit            000000018001f0e4     MSVCRT:utility.obj
 0002:000090e4       $unwind$??0bad_array_new_length@std@@QEAA@AEBV01@@Z 000000018001f0e4     MSVCRT:throw_bad_alloc.obj
 0002:000090e4       $unwind$??0bad_alloc@std@@QEAA@AEBV01@@Z 000000018001f0e4     MSVCRT:throw_bad_alloc.obj
 0002:000090e4       $unwind$SWIG_Python_GetSwigThis 000000018001f0e4     segment.obj
 0002:000090ec       $unwind$__scrt_dllmain_before_initialize_c 000000018001f0ec     MSVCRT:utility.obj
 0002:000090ec       $unwind$__scrt_dllmain_after_initialize_c 000000018001f0ec     MSVCRT:utility.obj
 0002:000090ec       $unwind$__scrt_dllmain_uninitialize_c 000000018001f0ec     MSVCRT:utility.obj
 0002:000090ec       $unwind$?__raise_e@@YAXAEBVexception@std@@@Z 000000018001f0ec     segment.obj
 0002:000090ec       $unwind$__scrt_dllmain_uninitialize_critical 000000018001f0ec     MSVCRT:utility.obj
 0002:000090ec       $unwind$?dllmain_crt_dispatch@@YAHQEAUHINSTANCE__@@KQEAX@Z 000000018001f0ec     MSVCRT:dll_dllmain.obj
 0002:000090ec       $unwind$__scrt_dllmain_crt_thread_attach 000000018001f0ec     MSVCRT:utility.obj
 0002:000090ec       $unwind$__scrt_dllmain_crt_thread_detach 000000018001f0ec     MSVCRT:utility.obj
 0002:000090ec       $unwind$SWIG_This          000000018001f0ec     segment.obj
 0002:000090ec       $unwind$DllMain            000000018001f0ec     MSVCRT:dll_dllmain_stub.obj
 0002:000090ec       $unwind$?__scrt_uninitialize_thread_safe_statics@@YAXXZ 000000018001f0ec     MSVCRT:thread_safe_statics.obj
 0002:000090ec       $unwind$atexit             000000018001f0ec     MSVCRT:utility.obj
 0002:000090ec       $unwind$__scrt_initialize_default_local_stdio_options 000000018001f0ec     MSVCRT:default_local_stdio_options.obj
 0002:000090ec       $unwind$SWIG_Python_DestroyModule 000000018001f0ec     segment.obj
 0002:000090ec       $unwind$SWIG_Python_TypeCache 000000018001f0ec     segment.obj
 0002:000090ec       $unwind$_Init_thread_notify 000000018001f0ec     MSVCRT:thread_safe_statics.obj
 0002:000090ec       $unwind$__scrt_acquire_startup_lock 000000018001f0ec     MSVCRT:utility.obj
 0002:000090ec       $unwind$__GSHandlerCheck   000000018001f0ec     MSVCRT:gshandler.obj
 0002:000090f4       $unwind$SWIG_Python_InitShadowInstance 000000018001f0f4     segment.obj
 0002:00009104       $unwind$SWIG_Python_NewPointerObj 000000018001f104     segment.obj
 0002:00009120       $chain$2$SWIG_Python_DestroyModule 000000018001f120     segment.obj
 0002:0000913c       $chain$3$SWIG_Python_DestroyModule 000000018001f13c     segment.obj
 0002:00009150       $chain$4$SWIG_Python_DestroyModule 000000018001f150     segment.obj
 0002:00009160       $chain$5$SWIG_Python_DestroyModule 000000018001f160     segment.obj
 0002:00009170       $unwind$SWIG_Python_TypeQuery 000000018001f170     segment.obj
 0002:0000917c       $chain$1$SWIG_Python_TypeQuery 000000018001f17c     segment.obj
 0002:00009194       $chain$5$SWIG_Python_TypeQuery 000000018001f194     segment.obj
 0002:000091b4       $chain$6$SWIG_Python_TypeQuery 000000018001f1b4     segment.obj
 0002:000091c4       $chain$7$SWIG_Python_TypeQuery 000000018001f1c4     segment.obj
 0002:000091d4       $unwind$?sprnt@?$_qstring@D@@QEAAAEAV1@PEBDZZ 000000018001f1d4     segment.obj
 0002:000091e4       $unwind$?__raise_ie@@YAXAEBUinterr_exc_t@@@Z 000000018001f1e4     segment.obj
 0002:000091e4       $unwind$?__scrt_throw_std_bad_array_new_length@@YAXXZ 000000018001f1e4     MSVCRT:throw_bad_alloc.obj
 0002:000091e4       $unwind$?__scrt_throw_std_bad_alloc@@YAXXZ 000000018001f1e4     MSVCRT:throw_bad_alloc.obj
 0002:000091ec       $unwind$_wrap_new_segment_t 000000018001f1ec     segment.obj
 0002:000091fc       $stateUnwindMap$_wrap_is_spec_segm 000000018001f1fc     segment.obj
 0002:000091fc       $stateUnwindMap$_wrap_get_last_seg 000000018001f1fc     segment.obj
 0002:000091fc       $stateUnwindMap$_wrap_get_segm_by_sel 000000018001f1fc     segment.obj
 0002:000091fc       $stateUnwindMap$_wrap_allocate_selector 000000018001f1fc     segment.obj
 0002:000091fc       $stateUnwindMap$_wrap_is_spec_ea 000000018001f1fc     segment.obj
 0002:000091fc       $stateUnwindMap$_wrap_segment_t_clr_comorg 000000018001f1fc     segment.obj
 0002:000091fc       $stateUnwindMap$_wrap_add_segm_ex 000000018001f1fc     segment.obj
 0002:000091fc       $stateUnwindMap$_wrap_del_segment_translations 000000018001f1fc     segment.obj
 0002:000091fc       $stateUnwindMap$_wrap_set_segm_base 000000018001f1fc     segment.obj
 0002:000091fc       $stateUnwindMap$_wrap_new_segment_t 000000018001f1fc     segment.obj
 0002:000091fc       $stateUnwindMap$_wrap_set_group_selector 000000018001f1fc     segment.obj
 0002:000091fc       $stateUnwindMap$_wrap_segment_t_set_visible_segm 000000018001f1fc     segment.obj
 0002:000091fc       $stateUnwindMap$_wrap_add_segm 000000018001f1fc     segment.obj
 0002:000091fc       $stateUnwindMap$_wrap_segment_t_end_ea_get 000000018001f1fc     segment.obj
 0002:000091fc       $stateUnwindMap$_wrap_find_selector 000000018001f1fc     segment.obj
 0002:000091fc       $stateUnwindMap$_wrap_segment_t_set_header_segm 000000018001f1fc     segment.obj
 0002:000091fc       $stateUnwindMap$_wrap_segment_t_is_loader_segm 000000018001f1fc     segment.obj
 0002:000091fc       $stateUnwindMap$_wrap_is_miniidb 000000018001f1fc     segment.obj
 0002:000091fc       $stateUnwindMap$_wrap_setup_selector 000000018001f1fc     segment.obj
 0002:000091fc       $stateUnwindMap$_wrap_del_segm 000000018001f1fc     segment.obj
 0002:000091fc       $stateUnwindMap$_wrap_set_segm_start 000000018001f1fc     segment.obj
 0002:000091fc       $stateUnwindMap$_wrap_segment_t_set_debugger_segm 000000018001f1fc     segment.obj
 0002:000091fc       $stateUnwindMap$_wrap_set_segm_class 000000018001f1fc     segment.obj
 0002:000091fc       $stateUnwindMap$_wrap_std_out_segm_footer 000000018001f1fc     segment.obj
 0002:000091fc       $stateUnwindMap$_wrap_segtype 000000018001f1fc     segment.obj
 0002:000091fc       $stateUnwindMap$_wrap_is_visible_segm 000000018001f1fc     segment.obj
 0002:000091fc       $stateUnwindMap$_wrap_get_segm_qty 000000018001f1fc     segment.obj
 0002:000091fc       $stateUnwindMap$_wrap_sel2ea 000000018001f1fc     segment.obj
 0002:000091fc       $stateUnwindMap$_wrap_get_segment_alignment 000000018001f1fc     segment.obj
 0002:000091fc       $stateUnwindMap$_wrap_take_memory_snapshot 000000018001f1fc     segment.obj
 0002:000091fc       $stateUnwindMap$_wrap_segment_t_is_visible_segm 000000018001f1fc     segment.obj
 0002:000091fc       $stateUnwindMap$_wrap_segment_t_set_loader_segm 000000018001f1fc     segment.obj
 0002:000091fc       $stateUnwindMap$_wrap_segment_t_end_ea_set 000000018001f1fc     segment.obj
 0002:000091fc       $stateUnwindMap$_wrap_lock_segm 000000018001f1fc     segment.obj
 0002:000091fc       $stateUnwindMap$_wrap_getseg 000000018001f1fc     segment.obj
 0002:000091fc       $stateUnwindMap$_wrap_segment_t_set_comorg 000000018001f1fc     segment.obj
 0002:000091fc       $stateUnwindMap$_wrap_get_segment_combination 000000018001f1fc     segment.obj
 0002:000091fc       $stateUnwindMap$_wrap_find_free_selector 000000018001f1fc     segment.obj
 0002:000091fc       $stateUnwindMap$_wrap_segment_t_use32 000000018001f1fc     segment.obj
 0002:000091fc       $stateUnwindMap$_wrap_getnseg 000000018001f1fc     segment.obj
 0002:000091fc       $stateUnwindMap$_wrap_get_segm_para 000000018001f1fc     segment.obj
 0002:000091fc       $stateUnwindMap$_wrap_get_segm_by_name 000000018001f1fc     segment.obj
 0002:000091fc       $stateUnwindMap$_wrap_change_segment_status 000000018001f1fc     segment.obj
 0002:000091fc       $stateUnwindMap$_wrap_get_segm_base 000000018001f1fc     segment.obj
 0002:000091fc       $stateUnwindMap$_wrap_get_selector_qty 000000018001f1fc     segment.obj
 0002:000091fc       $stateUnwindMap$_wrap_get_group_selector 000000018001f1fc     segment.obj
 0002:000091fc       $stateUnwindMap$_wrap_get_segm_num 000000018001f1fc     segment.obj
 0002:000091fc       $stateUnwindMap$_wrap_is_finally_visible_segm 000000018001f1fc     segment.obj
 0002:000091fc       $stateUnwindMap$_wrap_set_segm_addressing 000000018001f1fc     segment.obj
 0002:000091fc       $stateUnwindMap$_wrap_segment_t_is_hidden_segtype 000000018001f1fc     segment.obj
 0002:000091fc       $stateUnwindMap$_wrap_segment_t_use64 000000018001f1fc     segment.obj
 0002:000091fc       $stateUnwindMap$_wrap_segment_t_start_ea_get 000000018001f1fc     segment.obj
 0002:000091fc       $stateUnwindMap$_wrap_update_segm 000000018001f1fc     segment.obj
 0002:000091fc       $stateUnwindMap$_wrap_sel2para 000000018001f1fc     segment.obj
 0002:000091fc       $stateUnwindMap$_wrap_segm_adjust_diff 000000018001f1fc     segment.obj
 0002:000091fc       $stateUnwindMap$_wrap_getn_selector 000000018001f1fc     segment.obj
 0002:000091fc       $stateUnwindMap$_wrap_segm_adjust_ea 000000018001f1fc     segment.obj
 0002:000091fc       $stateUnwindMap$_wrap_segment_t_comorg 000000018001f1fc     segment.obj
 0002:000091fc       $stateUnwindMap$_wrap_get_defsr 000000018001f1fc     segment.obj
 0002:000091fc       $stateUnwindMap$_wrap_new_lock_segment 000000018001f1fc     segment.obj
 0002:000091fc       $stateUnwindMap$_wrap_segment_t_update 000000018001f1fc     segment.obj
 0002:000091fc       $stateUnwindMap$_wrap_get_next_seg 000000018001f1fc     segment.obj
 0002:000091fc       $stateUnwindMap$_wrap_set_defsr 000000018001f1fc     segment.obj
 0002:000091fc       $stateUnwindMap$_wrap_segment_t_abits 000000018001f1fc     segment.obj
 0002:000091fc       $stateUnwindMap$_wrap_rebase_program 000000018001f1fc     segment.obj
 0002:000091fc       $stateUnwindMap$_wrap_move_segm 000000018001f1fc     segment.obj
 0002:000091fc       $stateUnwindMap$_wrap_set_segment_cmt 000000018001f1fc     segment.obj
 0002:000091fc       $stateUnwindMap$_wrap_segment_t_set_hidden_segtype 000000018001f1fc     segment.obj
 0002:000091fc       $stateUnwindMap$_wrap_segment_t_clr_ob_ok 000000018001f1fc     segment.obj
 0002:000091fc       $stateUnwindMap$_wrap_get_prev_seg 000000018001f1fc     segment.obj
 0002:000091fc       $stateUnwindMap$_wrap_segment_t_start_ea_set 000000018001f1fc     segment.obj
 0002:000091fc       $stateUnwindMap$_wrap_is_segm_locked 000000018001f1fc     segment.obj
 0002:000091fc       $stateUnwindMap$_wrap_set_selector 000000018001f1fc     segment.obj
 0002:000091fc       $stateUnwindMap$_wrap_add_segment_translation 000000018001f1fc     segment.obj
 0002:000091fc       $stateUnwindMap$_wrap_del_selector 000000018001f1fc     segment.obj
 0002:000091fc       $stateUnwindMap$_wrap_move_segm_start 000000018001f1fc     segment.obj
 0002:000091fc       $stateUnwindMap$_wrap_segment_t_abytes 000000018001f1fc     segment.obj
 0002:000091fc       $stateUnwindMap$_wrap_set_segm_end 000000018001f1fc     segment.obj
 0002:000091fc       $stateUnwindMap$_wrap_get_first_seg 000000018001f1fc     segment.obj
 0002:000091fc       $stateUnwindMap$_wrap_delete_segment_t 000000018001f1fc     segment.obj
 0002:000091fc       $stateUnwindMap$_wrap_segment_t_ob_ok 000000018001f1fc     segment.obj
 0002:000091fc       $stateUnwindMap$_wrap_set_visible_segm 000000018001f1fc     segment.obj
 0002:000091fc       $stateUnwindMap$_wrap_segment_t_set_ob_ok 000000018001f1fc     segment.obj
 0002:000091fc       $stateUnwindMap$_wrap_delete_lock_segment 000000018001f1fc     segment.obj
 0002:000091fc       $stateUnwindMap$_wrap_set_segm_name 000000018001f1fc     segment.obj
 0002:000091fc       $stateUnwindMap$_wrap_segment_t_is_header_segm 000000018001f1fc     segment.obj
 0002:0000920c       $tryMap$_wrap_new_segment_t 000000018001f20c     segment.obj
 0002:00009220       $handlerMap$0$_wrap_new_segment_t 000000018001f220     segment.obj
 0002:00009298       $ip2state$_wrap_new_segment_t 000000018001f298     segment.obj
 0002:000092b8       $unwind$_wrap_new_segment_t$catch$4 000000018001f2b8     segment.obj
 0002:000092b8       $unwind$_wrap_new_segment_t$catch$5 000000018001f2b8     segment.obj
 0002:000092b8       $unwind$_wrap_new_segment_t$catch$1 000000018001f2b8     segment.obj
 0002:000092b8       $unwind$_wrap_new_segment_t$catch$6 000000018001f2b8     segment.obj
 0002:000092b8       $unwind$_wrap_new_segment_t$catch$2 000000018001f2b8     segment.obj
 0002:000092b8       $unwind$_wrap_new_segment_t$catch$3 000000018001f2b8     segment.obj
 0002:000092c8       $unwind$_wrap_segment_t_sel_set 000000018001f2c8     segment.obj
 0002:000092c8       $unwind$_wrap_segment_t_name_set 000000018001f2c8     segment.obj
 0002:000092c8       $unwind$_wrap_segment_t_color_set 000000018001f2c8     segment.obj
 0002:000092c8       $unwind$_wrap_segment_t_orgbase_set 000000018001f2c8     segment.obj
 0002:000092c8       $unwind$_wrap_segment_t_sclass_set 000000018001f2c8     segment.obj
 0002:000092d8       $chain$0$_wrap_segment_t_name_set 000000018001f2d8     segment.obj
 0002:000092ec       $chain$1$_wrap_segment_t_name_set 000000018001f2ec     segment.obj
 0002:000092fc       $unwind$_wrap_segment_t_color_get 000000018001f2fc     segment.obj
 0002:000092fc       $unwind$_wrap_segment_t_align_get 000000018001f2fc     segment.obj
 0002:000092fc       $unwind$_wrap_segment_t_sel_get 000000018001f2fc     segment.obj
 0002:000092fc       $unwind$_wrap_segment_t_orgbase_get 000000018001f2fc     segment.obj
 0002:000092fc       $unwind$_wrap_segment_t_perm_get 000000018001f2fc     segment.obj
 0002:000092fc       $unwind$_wrap_segment_t_comb_get 000000018001f2fc     segment.obj
 0002:000092fc       $unwind$_wrap_segment_t_bitness_get 000000018001f2fc     segment.obj
 0002:000092fc       $unwind$_wrap_segment_t_sclass_get 000000018001f2fc     segment.obj
 0002:000092fc       $unwind$_wrap_segment_t_type_get 000000018001f2fc     segment.obj
 0002:000092fc       $unwind$_wrap_segment_t_flags_get 000000018001f2fc     segment.obj
 0002:000092fc       $unwind$_wrap_segment_t_defsr_get 000000018001f2fc     segment.obj
 0002:000092fc       $unwind$_wrap_segment_t_name_get 000000018001f2fc     segment.obj
 0002:0000930c       $chain$0$_wrap_segment_t_name_get 000000018001f30c     segment.obj
 0002:00009320       $chain$1$_wrap_segment_t_name_get 000000018001f320     segment.obj
 0002:00009330       $chain$0$_wrap_segment_t_sclass_set 000000018001f330     segment.obj
 0002:00009344       $chain$1$_wrap_segment_t_sclass_set 000000018001f344     segment.obj
 0002:00009354       $chain$0$_wrap_segment_t_sclass_get 000000018001f354     segment.obj
 0002:00009368       $chain$1$_wrap_segment_t_sclass_get 000000018001f368     segment.obj
 0002:00009378       $chain$0$_wrap_segment_t_orgbase_set 000000018001f378     segment.obj
 0002:0000938c       $chain$1$_wrap_segment_t_orgbase_set 000000018001f38c     segment.obj
 0002:0000939c       $chain$0$_wrap_segment_t_orgbase_get 000000018001f39c     segment.obj
 0002:000093b0       $chain$1$_wrap_segment_t_orgbase_get 000000018001f3b0     segment.obj
 0002:000093c0       $unwind$_wrap_segment_t_perm_set 000000018001f3c0     segment.obj
 0002:000093c0       $unwind$_wrap_segment_t_type_set 000000018001f3c0     segment.obj
 0002:000093c0       $unwind$_wrap_segment_t_align_set 000000018001f3c0     segment.obj
 0002:000093c0       $unwind$_wrap_segment_t_bitness_set 000000018001f3c0     segment.obj
 0002:000093c0       $unwind$_wrap_segment_t_comb_set 000000018001f3c0     segment.obj
 0002:000093c0       $unwind$_wrap_segment_t_flags_set 000000018001f3c0     segment.obj
 0002:000093d4       $chain$0$_wrap_segment_t_align_set 000000018001f3d4     segment.obj
 0002:000093e8       $chain$1$_wrap_segment_t_align_set 000000018001f3e8     segment.obj
 0002:000093f8       $chain$0$_wrap_segment_t_align_get 000000018001f3f8     segment.obj
 0002:0000940c       $chain$1$_wrap_segment_t_align_get 000000018001f40c     segment.obj
 0002:0000941c       $chain$0$_wrap_segment_t_comb_set 000000018001f41c     segment.obj
 0002:00009430       $chain$1$_wrap_segment_t_comb_set 000000018001f430     segment.obj
 0002:00009440       $chain$0$_wrap_segment_t_comb_get 000000018001f440     segment.obj
 0002:00009454       $chain$1$_wrap_segment_t_comb_get 000000018001f454     segment.obj
 0002:00009464       $chain$0$_wrap_segment_t_perm_set 000000018001f464     segment.obj
 0002:00009478       $chain$1$_wrap_segment_t_perm_set 000000018001f478     segment.obj
 0002:00009488       $chain$0$_wrap_segment_t_perm_get 000000018001f488     segment.obj
 0002:0000949c       $chain$1$_wrap_segment_t_perm_get 000000018001f49c     segment.obj
 0002:000094ac       $chain$0$_wrap_segment_t_bitness_set 000000018001f4ac     segment.obj
 0002:000094c0       $chain$1$_wrap_segment_t_bitness_set 000000018001f4c0     segment.obj
 0002:000094d0       $chain$0$_wrap_segment_t_bitness_get 000000018001f4d0     segment.obj
 0002:000094e4       $chain$1$_wrap_segment_t_bitness_get 000000018001f4e4     segment.obj
 0002:000094f4       $unwind$_wrap_segment_t_use32 000000018001f4f4     segment.obj
 0002:00009514       $tryMap$_wrap_segment_t_use32 000000018001f514     segment.obj
 0002:00009528       $handlerMap$0$_wrap_segment_t_use32 000000018001f528     segment.obj
 0002:000095a0       $ip2state$_wrap_segment_t_use32 000000018001f5a0     segment.obj
 0002:000095c0       $unwind$_wrap_segment_t_use32$catch$4 000000018001f5c0     segment.obj
 0002:000095c0       $unwind$_wrap_segment_t_use32$catch$5 000000018001f5c0     segment.obj
 0002:000095c0       $unwind$_wrap_segment_t_use32$catch$1 000000018001f5c0     segment.obj
 0002:000095c0       $unwind$_wrap_segment_t_use32$catch$3 000000018001f5c0     segment.obj
 0002:000095c0       $unwind$_wrap_segment_t_use32$catch$2 000000018001f5c0     segment.obj
 0002:000095c0       $unwind$_wrap_segment_t_use32$catch$0 000000018001f5c0     segment.obj
 0002:000095d0       $unwind$_wrap_segment_t_use64 000000018001f5d0     segment.obj
 0002:000095f0       $tryMap$_wrap_segment_t_use64 000000018001f5f0     segment.obj
 0002:00009604       $handlerMap$0$_wrap_segment_t_use64 000000018001f604     segment.obj
 0002:00009680       $ip2state$_wrap_segment_t_use64 000000018001f680     segment.obj
 0002:000096a0       $unwind$_wrap_segment_t_use64$catch$2 000000018001f6a0     segment.obj
 0002:000096a0       $unwind$_wrap_segment_t_use64$catch$5 000000018001f6a0     segment.obj
 0002:000096a0       $unwind$_wrap_segment_t_use64$catch$4 000000018001f6a0     segment.obj
 0002:000096a0       $unwind$_wrap_segment_t_use64$catch$3 000000018001f6a0     segment.obj
 0002:000096a0       $unwind$_wrap_segment_t_use64$catch$0 000000018001f6a0     segment.obj
 0002:000096a0       $unwind$_wrap_segment_t_use64$catch$1 000000018001f6a0     segment.obj
 0002:000096b0       $unwind$_wrap_segment_t_abits 000000018001f6b0     segment.obj
 0002:000096cc       $tryMap$_wrap_segment_t_abits 000000018001f6cc     segment.obj
 0002:000096e0       $handlerMap$0$_wrap_segment_t_abits 000000018001f6e0     segment.obj
 0002:00009758       $ip2state$_wrap_segment_t_abits 000000018001f758     segment.obj
 0002:00009778       $unwind$_wrap_segment_t_abits$catch$4 000000018001f778     segment.obj
 0002:00009778       $unwind$_wrap_segment_t_abits$catch$5 000000018001f778     segment.obj
 0002:00009778       $unwind$_wrap_segment_t_abits$catch$0 000000018001f778     segment.obj
 0002:00009778       $unwind$_wrap_segment_t_abits$catch$3 000000018001f778     segment.obj
 0002:00009778       $unwind$_wrap_segment_t_abits$catch$2 000000018001f778     segment.obj
 0002:00009778       $unwind$_wrap_segment_t_abits$catch$1 000000018001f778     segment.obj
 0002:00009788       $unwind$_wrap_segment_t_abytes 000000018001f788     segment.obj
 0002:000097a4       $tryMap$_wrap_segment_t_abytes 000000018001f7a4     segment.obj
 0002:000097b8       $handlerMap$0$_wrap_segment_t_abytes 000000018001f7b8     segment.obj
 0002:00009830       $ip2state$_wrap_segment_t_abytes 000000018001f830     segment.obj
 0002:00009850       $unwind$_wrap_segment_t_abytes$catch$4 000000018001f850     segment.obj
 0002:00009850       $unwind$_wrap_segment_t_abytes$catch$5 000000018001f850     segment.obj
 0002:00009850       $unwind$_wrap_segment_t_abytes$catch$0 000000018001f850     segment.obj
 0002:00009850       $unwind$_wrap_segment_t_abytes$catch$3 000000018001f850     segment.obj
 0002:00009850       $unwind$_wrap_segment_t_abytes$catch$2 000000018001f850     segment.obj
 0002:00009850       $unwind$_wrap_segment_t_abytes$catch$1 000000018001f850     segment.obj
 0002:00009860       $chain$0$_wrap_segment_t_flags_set 000000018001f860     segment.obj
 0002:00009874       $chain$1$_wrap_segment_t_flags_set 000000018001f874     segment.obj
 0002:00009884       $chain$0$_wrap_segment_t_flags_get 000000018001f884     segment.obj
 0002:00009898       $chain$1$_wrap_segment_t_flags_get 000000018001f898     segment.obj
 0002:000098a8       $unwind$_wrap_segment_t_comorg 000000018001f8a8     segment.obj
 0002:000098c4       $tryMap$_wrap_segment_t_comorg 000000018001f8c4     segment.obj
 0002:000098d8       $handlerMap$0$_wrap_segment_t_comorg 000000018001f8d8     segment.obj
 0002:00009950       $ip2state$_wrap_segment_t_comorg 000000018001f950     segment.obj
 0002:00009970       $unwind$_wrap_segment_t_comorg$catch$2 000000018001f970     segment.obj
 0002:00009970       $unwind$_wrap_segment_t_comorg$catch$5 000000018001f970     segment.obj
 0002:00009970       $unwind$_wrap_segment_t_comorg$catch$4 000000018001f970     segment.obj
 0002:00009970       $unwind$_wrap_segment_t_comorg$catch$3 000000018001f970     segment.obj
 0002:00009970       $unwind$_wrap_segment_t_comorg$catch$0 000000018001f970     segment.obj
 0002:00009970       $unwind$_wrap_segment_t_comorg$catch$1 000000018001f970     segment.obj
 0002:00009980       $unwind$_wrap_segment_t_set_comorg 000000018001f980     segment.obj
 0002:0000999c       $tryMap$_wrap_segment_t_set_comorg 000000018001f99c     segment.obj
 0002:000099b0       $handlerMap$0$_wrap_segment_t_set_comorg 000000018001f9b0     segment.obj
 0002:00009a28       $ip2state$_wrap_segment_t_set_comorg 000000018001fa28     segment.obj
 0002:00009a48       $unwind$_wrap_segment_t_set_comorg$catch$0 000000018001fa48     segment.obj
 0002:00009a48       $unwind$_wrap_segment_t_set_comorg$catch$5 000000018001fa48     segment.obj
 0002:00009a48       $unwind$_wrap_segment_t_set_comorg$catch$4 000000018001fa48     segment.obj
 0002:00009a48       $unwind$_wrap_segment_t_set_comorg$catch$3 000000018001fa48     segment.obj
 0002:00009a48       $unwind$_wrap_segment_t_set_comorg$catch$2 000000018001fa48     segment.obj
 0002:00009a48       $unwind$_wrap_segment_t_set_comorg$catch$1 000000018001fa48     segment.obj
 0002:00009a58       $unwind$_wrap_segment_t_clr_comorg 000000018001fa58     segment.obj
 0002:00009a74       $tryMap$_wrap_segment_t_clr_comorg 000000018001fa74     segment.obj
 0002:00009a88       $handlerMap$0$_wrap_segment_t_clr_comorg 000000018001fa88     segment.obj
 0002:00009b00       $ip2state$_wrap_segment_t_clr_comorg 000000018001fb00     segment.obj
 0002:00009b20       $unwind$_wrap_segment_t_clr_comorg$catch$2 000000018001fb20     segment.obj
 0002:00009b20       $unwind$_wrap_segment_t_clr_comorg$catch$5 000000018001fb20     segment.obj
 0002:00009b20       $unwind$_wrap_segment_t_clr_comorg$catch$4 000000018001fb20     segment.obj
 0002:00009b20       $unwind$_wrap_segment_t_clr_comorg$catch$3 000000018001fb20     segment.obj
 0002:00009b20       $unwind$_wrap_segment_t_clr_comorg$catch$1 000000018001fb20     segment.obj
 0002:00009b20       $unwind$_wrap_segment_t_clr_comorg$catch$0 000000018001fb20     segment.obj
 0002:00009b30       $unwind$_wrap_segment_t_ob_ok 000000018001fb30     segment.obj
 0002:00009b4c       $tryMap$_wrap_segment_t_ob_ok 000000018001fb4c     segment.obj
 0002:00009b60       $handlerMap$0$_wrap_segment_t_ob_ok 000000018001fb60     segment.obj
 0002:00009bd8       $ip2state$_wrap_segment_t_ob_ok 000000018001fbd8     segment.obj
 0002:00009bf8       $unwind$_wrap_segment_t_ob_ok$catch$0 000000018001fbf8     segment.obj
 0002:00009bf8       $unwind$_wrap_segment_t_ob_ok$catch$5 000000018001fbf8     segment.obj
 0002:00009bf8       $unwind$_wrap_segment_t_ob_ok$catch$4 000000018001fbf8     segment.obj
 0002:00009bf8       $unwind$_wrap_segment_t_ob_ok$catch$3 000000018001fbf8     segment.obj
 0002:00009bf8       $unwind$_wrap_segment_t_ob_ok$catch$2 000000018001fbf8     segment.obj
 0002:00009bf8       $unwind$_wrap_segment_t_ob_ok$catch$1 000000018001fbf8     segment.obj
 0002:00009c08       $unwind$_wrap_segment_t_set_ob_ok 000000018001fc08     segment.obj
 0002:00009c24       $tryMap$_wrap_segment_t_set_ob_ok 000000018001fc24     segment.obj
 0002:00009c38       $handlerMap$0$_wrap_segment_t_set_ob_ok 000000018001fc38     segment.obj
 0002:00009cb0       $ip2state$_wrap_segment_t_set_ob_ok 000000018001fcb0     segment.obj
 0002:00009cd0       $unwind$_wrap_segment_t_set_ob_ok$catch$0 000000018001fcd0     segment.obj
 0002:00009cd0       $unwind$_wrap_segment_t_set_ob_ok$catch$1 000000018001fcd0     segment.obj
 0002:00009cd0       $unwind$_wrap_segment_t_set_ob_ok$catch$3 000000018001fcd0     segment.obj
 0002:00009cd0       $unwind$_wrap_segment_t_set_ob_ok$catch$2 000000018001fcd0     segment.obj
 0002:00009cd0       $unwind$_wrap_segment_t_set_ob_ok$catch$5 000000018001fcd0     segment.obj
 0002:00009cd0       $unwind$_wrap_segment_t_set_ob_ok$catch$4 000000018001fcd0     segment.obj
 0002:00009ce0       $unwind$_wrap_segment_t_clr_ob_ok 000000018001fce0     segment.obj
 0002:00009cfc       $tryMap$_wrap_segment_t_clr_ob_ok 000000018001fcfc     segment.obj
 0002:00009d10       $handlerMap$0$_wrap_segment_t_clr_ob_ok 000000018001fd10     segment.obj
 0002:00009d88       $ip2state$_wrap_segment_t_clr_ob_ok 000000018001fd88     segment.obj
 0002:00009da8       $unwind$_wrap_segment_t_clr_ob_ok$catch$0 000000018001fda8     segment.obj
 0002:00009da8       $unwind$_wrap_segment_t_clr_ob_ok$catch$4 000000018001fda8     segment.obj
 0002:00009da8       $unwind$_wrap_segment_t_clr_ob_ok$catch$2 000000018001fda8     segment.obj
 0002:00009da8       $unwind$_wrap_segment_t_clr_ob_ok$catch$5 000000018001fda8     segment.obj
 0002:00009da8       $unwind$_wrap_segment_t_clr_ob_ok$catch$3 000000018001fda8     segment.obj
 0002:00009da8       $unwind$_wrap_segment_t_clr_ob_ok$catch$1 000000018001fda8     segment.obj
 0002:00009db8       $unwind$_wrap_segment_t_is_visible_segm 000000018001fdb8     segment.obj
 0002:00009dd4       $tryMap$_wrap_segment_t_is_visible_segm 000000018001fdd4     segment.obj
 0002:00009de8       $handlerMap$0$_wrap_segment_t_is_visible_segm 000000018001fde8     segment.obj
 0002:00009e60       $ip2state$_wrap_segment_t_is_visible_segm 000000018001fe60     segment.obj
 0002:00009e80       $unwind$_wrap_segment_t_is_visible_segm$catch$4 000000018001fe80     segment.obj
 0002:00009e80       $unwind$_wrap_segment_t_is_visible_segm$catch$2 000000018001fe80     segment.obj
 0002:00009e80       $unwind$_wrap_segment_t_is_visible_segm$catch$1 000000018001fe80     segment.obj
 0002:00009e80       $unwind$_wrap_segment_t_is_visible_segm$catch$0 000000018001fe80     segment.obj
 0002:00009e80       $unwind$_wrap_segment_t_is_visible_segm$catch$3 000000018001fe80     segment.obj
 0002:00009e80       $unwind$_wrap_segment_t_is_visible_segm$catch$5 000000018001fe80     segment.obj
 0002:00009e90       $unwind$_wrap_segment_t_set_visible_segm 000000018001fe90     segment.obj
 0002:00009eac       $tryMap$_wrap_segment_t_set_visible_segm 000000018001feac     segment.obj
 0002:00009ec0       $handlerMap$0$_wrap_segment_t_set_visible_segm 000000018001fec0     segment.obj
 0002:00009f38       $ip2state$_wrap_segment_t_set_visible_segm 000000018001ff38     segment.obj
 0002:00009f58       $unwind$_wrap_segment_t_set_visible_segm$catch$1 000000018001ff58     segment.obj
 0002:00009f58       $unwind$_wrap_segment_t_set_visible_segm$catch$3 000000018001ff58     segment.obj
 0002:00009f58       $unwind$_wrap_segment_t_set_visible_segm$catch$5 000000018001ff58     segment.obj
 0002:00009f58       $unwind$_wrap_segment_t_set_visible_segm$catch$0 000000018001ff58     segment.obj
 0002:00009f58       $unwind$_wrap_segment_t_set_visible_segm$catch$2 000000018001ff58     segment.obj
 0002:00009f58       $unwind$_wrap_segment_t_set_visible_segm$catch$4 000000018001ff58     segment.obj
 0002:00009f68       $unwind$_wrap_segment_t_set_debugger_segm 000000018001ff68     segment.obj
 0002:00009f84       $tryMap$_wrap_segment_t_set_debugger_segm 000000018001ff84     segment.obj
 0002:00009f98       $handlerMap$0$_wrap_segment_t_set_debugger_segm 000000018001ff98     segment.obj
 0002:0000a010       $ip2state$_wrap_segment_t_set_debugger_segm 0000000180020010     segment.obj
 0002:0000a030       $unwind$_wrap_segment_t_set_debugger_segm$catch$4 0000000180020030     segment.obj
 0002:0000a030       $unwind$_wrap_segment_t_set_debugger_segm$catch$0 0000000180020030     segment.obj
 0002:0000a030       $unwind$_wrap_segment_t_set_debugger_segm$catch$2 0000000180020030     segment.obj
 0002:0000a030       $unwind$_wrap_segment_t_set_debugger_segm$catch$5 0000000180020030     segment.obj
 0002:0000a030       $unwind$_wrap_segment_t_set_debugger_segm$catch$3 0000000180020030     segment.obj
 0002:0000a030       $unwind$_wrap_segment_t_set_debugger_segm$catch$1 0000000180020030     segment.obj
 0002:0000a040       $unwind$_wrap_segment_t_is_loader_segm 0000000180020040     segment.obj
 0002:0000a05c       $tryMap$_wrap_segment_t_is_loader_segm 000000018002005c     segment.obj
 0002:0000a070       $handlerMap$0$_wrap_segment_t_is_loader_segm 0000000180020070     segment.obj
 0002:0000a0e8       $ip2state$_wrap_segment_t_is_loader_segm 00000001800200e8     segment.obj
 0002:0000a108       $unwind$_wrap_segment_t_is_loader_segm$catch$2 0000000180020108     segment.obj
 0002:0000a108       $unwind$_wrap_segment_t_is_loader_segm$catch$1 0000000180020108     segment.obj
 0002:0000a108       $unwind$_wrap_segment_t_is_loader_segm$catch$0 0000000180020108     segment.obj
 0002:0000a108       $unwind$_wrap_segment_t_is_loader_segm$catch$3 0000000180020108     segment.obj
 0002:0000a108       $unwind$_wrap_segment_t_is_loader_segm$catch$4 0000000180020108     segment.obj
 0002:0000a108       $unwind$_wrap_segment_t_is_loader_segm$catch$5 0000000180020108     segment.obj
 0002:0000a118       $unwind$_wrap_segment_t_set_loader_segm 0000000180020118     segment.obj
 0002:0000a134       $tryMap$_wrap_segment_t_set_loader_segm 0000000180020134     segment.obj
 0002:0000a148       $handlerMap$0$_wrap_segment_t_set_loader_segm 0000000180020148     segment.obj
 0002:0000a1c0       $ip2state$_wrap_segment_t_set_loader_segm 00000001800201c0     segment.obj
 0002:0000a1e0       $unwind$_wrap_segment_t_set_loader_segm$catch$0 00000001800201e0     segment.obj
 0002:0000a1e0       $unwind$_wrap_segment_t_set_loader_segm$catch$2 00000001800201e0     segment.obj
 0002:0000a1e0       $unwind$_wrap_segment_t_set_loader_segm$catch$5 00000001800201e0     segment.obj
 0002:0000a1e0       $unwind$_wrap_segment_t_set_loader_segm$catch$3 00000001800201e0     segment.obj
 0002:0000a1e0       $unwind$_wrap_segment_t_set_loader_segm$catch$4 00000001800201e0     segment.obj
 0002:0000a1e0       $unwind$_wrap_segment_t_set_loader_segm$catch$1 00000001800201e0     segment.obj
 0002:0000a1f0       $unwind$_wrap_segment_t_is_hidden_segtype 00000001800201f0     segment.obj
 0002:0000a20c       $tryMap$_wrap_segment_t_is_hidden_segtype 000000018002020c     segment.obj
 0002:0000a220       $handlerMap$0$_wrap_segment_t_is_hidden_segtype 0000000180020220     segment.obj
 0002:0000a298       $ip2state$_wrap_segment_t_is_hidden_segtype 0000000180020298     segment.obj
 0002:0000a2b8       $unwind$_wrap_segment_t_is_hidden_segtype$catch$2 00000001800202b8     segment.obj
 0002:0000a2b8       $unwind$_wrap_segment_t_is_hidden_segtype$catch$5 00000001800202b8     segment.obj
 0002:0000a2b8       $unwind$_wrap_segment_t_is_hidden_segtype$catch$4 00000001800202b8     segment.obj
 0002:0000a2b8       $unwind$_wrap_segment_t_is_hidden_segtype$catch$1 00000001800202b8     segment.obj
 0002:0000a2b8       $unwind$_wrap_segment_t_is_hidden_segtype$catch$3 00000001800202b8     segment.obj
 0002:0000a2b8       $unwind$_wrap_segment_t_is_hidden_segtype$catch$0 00000001800202b8     segment.obj
 0002:0000a2c8       $unwind$_wrap_segment_t_set_hidden_segtype 00000001800202c8     segment.obj
 0002:0000a2e4       $tryMap$_wrap_segment_t_set_hidden_segtype 00000001800202e4     segment.obj
 0002:0000a2f8       $handlerMap$0$_wrap_segment_t_set_hidden_segtype 00000001800202f8     segment.obj
 0002:0000a370       $ip2state$_wrap_segment_t_set_hidden_segtype 0000000180020370     segment.obj
 0002:0000a390       $unwind$_wrap_segment_t_set_hidden_segtype$catch$0 0000000180020390     segment.obj
 0002:0000a390       $unwind$_wrap_segment_t_set_hidden_segtype$catch$1 0000000180020390     segment.obj
 0002:0000a390       $unwind$_wrap_segment_t_set_hidden_segtype$catch$4 0000000180020390     segment.obj
 0002:0000a390       $unwind$_wrap_segment_t_set_hidden_segtype$catch$5 0000000180020390     segment.obj
 0002:0000a390       $unwind$_wrap_segment_t_set_hidden_segtype$catch$2 0000000180020390     segment.obj
 0002:0000a390       $unwind$_wrap_segment_t_set_hidden_segtype$catch$3 0000000180020390     segment.obj
 0002:0000a3a0       $unwind$_wrap_segment_t_is_header_segm 00000001800203a0     segment.obj
 0002:0000a3bc       $tryMap$_wrap_segment_t_is_header_segm 00000001800203bc     segment.obj
 0002:0000a3d0       $handlerMap$0$_wrap_segment_t_is_header_segm 00000001800203d0     segment.obj
 0002:0000a448       $ip2state$_wrap_segment_t_is_header_segm 0000000180020448     segment.obj
 0002:0000a468       $unwind$_wrap_segment_t_is_header_segm$catch$0 0000000180020468     segment.obj
 0002:0000a468       $unwind$_wrap_segment_t_is_header_segm$catch$3 0000000180020468     segment.obj
 0002:0000a468       $unwind$_wrap_segment_t_is_header_segm$catch$2 0000000180020468     segment.obj
 0002:0000a468       $unwind$_wrap_segment_t_is_header_segm$catch$4 0000000180020468     segment.obj
 0002:0000a468       $unwind$_wrap_segment_t_is_header_segm$catch$1 0000000180020468     segment.obj
 0002:0000a468       $unwind$_wrap_segment_t_is_header_segm$catch$5 0000000180020468     segment.obj
 0002:0000a478       $unwind$_wrap_segment_t_set_header_segm 0000000180020478     segment.obj
 0002:0000a494       $tryMap$_wrap_segment_t_set_header_segm 0000000180020494     segment.obj
 0002:0000a4a8       $handlerMap$0$_wrap_segment_t_set_header_segm 00000001800204a8     segment.obj
 0002:0000a520       $ip2state$_wrap_segment_t_set_header_segm 0000000180020520     segment.obj
 0002:0000a540       $unwind$_wrap_segment_t_set_header_segm$catch$5 0000000180020540     segment.obj
 0002:0000a540       $unwind$_wrap_segment_t_set_header_segm$catch$0 0000000180020540     segment.obj
 0002:0000a540       $unwind$_wrap_segment_t_set_header_segm$catch$3 0000000180020540     segment.obj
 0002:0000a540       $unwind$_wrap_segment_t_set_header_segm$catch$2 0000000180020540     segment.obj
 0002:0000a540       $unwind$_wrap_segment_t_set_header_segm$catch$1 0000000180020540     segment.obj
 0002:0000a540       $unwind$_wrap_segment_t_set_header_segm$catch$4 0000000180020540     segment.obj
 0002:0000a550       $chain$0$_wrap_segment_t_sel_set 0000000180020550     segment.obj
 0002:0000a564       $chain$1$_wrap_segment_t_sel_set 0000000180020564     segment.obj
 0002:0000a574       $chain$0$_wrap_segment_t_sel_get 0000000180020574     segment.obj
 0002:0000a588       $chain$1$_wrap_segment_t_sel_get 0000000180020588     segment.obj
 0002:0000a598       $unwind$_wrap_segment_t_defsr_set 0000000180020598     segment.obj
 0002:0000a5b0       $chain$0$_wrap_segment_t_defsr_get 00000001800205b0     segment.obj
 0002:0000a5c4       $chain$1$_wrap_segment_t_defsr_get 00000001800205c4     segment.obj
 0002:0000a5d4       $chain$0$_wrap_segment_t_type_set 00000001800205d4     segment.obj
 0002:0000a5e8       $chain$1$_wrap_segment_t_type_set 00000001800205e8     segment.obj
 0002:0000a5f8       $chain$0$_wrap_segment_t_type_get 00000001800205f8     segment.obj
 0002:0000a60c       $chain$1$_wrap_segment_t_type_get 000000018002060c     segment.obj
 0002:0000a61c       $chain$0$_wrap_segment_t_color_set 000000018002061c     segment.obj
 0002:0000a630       $chain$1$_wrap_segment_t_color_set 0000000180020630     segment.obj
 0002:0000a640       $chain$0$_wrap_segment_t_color_get 0000000180020640     segment.obj
 0002:0000a654       $chain$1$_wrap_segment_t_color_get 0000000180020654     segment.obj
 0002:0000a664       $unwind$_wrap_segment_t_update 0000000180020664     segment.obj
 0002:0000a684       $tryMap$_wrap_segment_t_update 0000000180020684     segment.obj
 0002:0000a698       $handlerMap$0$_wrap_segment_t_update 0000000180020698     segment.obj
 0002:0000a710       $ip2state$_wrap_segment_t_update 0000000180020710     segment.obj
 0002:0000a730       $unwind$_wrap_segment_t_update$catch$3 0000000180020730     segment.obj
 0002:0000a730       $unwind$_wrap_segment_t_update$catch$1 0000000180020730     segment.obj
 0002:0000a730       $unwind$_wrap_segment_t_update$catch$4 0000000180020730     segment.obj
 0002:0000a730       $unwind$_wrap_segment_t_update$catch$5 0000000180020730     segment.obj
 0002:0000a730       $unwind$_wrap_segment_t_update$catch$0 0000000180020730     segment.obj
 0002:0000a730       $unwind$_wrap_segment_t_update$catch$2 0000000180020730     segment.obj
 0002:0000a740       $unwind$_wrap_segment_t_start_ea_set 0000000180020740     segment.obj
 0002:0000a75c       $tryMap$_wrap_segment_t_start_ea_set 000000018002075c     segment.obj
 0002:0000a770       $handlerMap$0$_wrap_segment_t_start_ea_set 0000000180020770     segment.obj
 0002:0000a7e8       $ip2state$_wrap_segment_t_start_ea_set 00000001800207e8     segment.obj
 0002:0000a808       $unwind$_wrap_segment_t_start_ea_set$catch$1 0000000180020808     segment.obj
 0002:0000a808       $unwind$_wrap_segment_t_start_ea_set$catch$5 0000000180020808     segment.obj
 0002:0000a808       $unwind$_wrap_segment_t_start_ea_set$catch$2 0000000180020808     segment.obj
 0002:0000a808       $unwind$_wrap_segment_t_start_ea_set$catch$4 0000000180020808     segment.obj
 0002:0000a808       $unwind$_wrap_segment_t_start_ea_set$catch$3 0000000180020808     segment.obj
 0002:0000a808       $unwind$_wrap_segment_t_start_ea_set$catch$0 0000000180020808     segment.obj
 0002:0000a818       $unwind$_wrap_segment_t_start_ea_get 0000000180020818     segment.obj
 0002:0000a834       $tryMap$_wrap_segment_t_start_ea_get 0000000180020834     segment.obj
 0002:0000a848       $handlerMap$0$_wrap_segment_t_start_ea_get 0000000180020848     segment.obj
 0002:0000a8c0       $ip2state$_wrap_segment_t_start_ea_get 00000001800208c0     segment.obj
 0002:0000a8e0       $unwind$_wrap_segment_t_start_ea_get$catch$3 00000001800208e0     segment.obj
 0002:0000a8e0       $unwind$_wrap_segment_t_start_ea_get$catch$2 00000001800208e0     segment.obj
 0002:0000a8e0       $unwind$_wrap_segment_t_start_ea_get$catch$0 00000001800208e0     segment.obj
 0002:0000a8e0       $unwind$_wrap_segment_t_start_ea_get$catch$5 00000001800208e0     segment.obj
 0002:0000a8e0       $unwind$_wrap_segment_t_start_ea_get$catch$1 00000001800208e0     segment.obj
 0002:0000a8e0       $unwind$_wrap_segment_t_start_ea_get$catch$4 00000001800208e0     segment.obj
 0002:0000a8f0       $unwind$_wrap_segment_t_end_ea_set 00000001800208f0     segment.obj
 0002:0000a90c       $tryMap$_wrap_segment_t_end_ea_set 000000018002090c     segment.obj
 0002:0000a920       $handlerMap$0$_wrap_segment_t_end_ea_set 0000000180020920     segment.obj
 0002:0000a998       $ip2state$_wrap_segment_t_end_ea_set 0000000180020998     segment.obj
 0002:0000a9b8       $unwind$_wrap_segment_t_end_ea_set$catch$1 00000001800209b8     segment.obj
 0002:0000a9b8       $unwind$_wrap_segment_t_end_ea_set$catch$2 00000001800209b8     segment.obj
 0002:0000a9b8       $unwind$_wrap_segment_t_end_ea_set$catch$3 00000001800209b8     segment.obj
 0002:0000a9b8       $unwind$_wrap_segment_t_end_ea_set$catch$4 00000001800209b8     segment.obj
 0002:0000a9b8       $unwind$_wrap_segment_t_end_ea_set$catch$5 00000001800209b8     segment.obj
 0002:0000a9b8       $unwind$_wrap_segment_t_end_ea_set$catch$0 00000001800209b8     segment.obj
 0002:0000a9c8       $unwind$_wrap_segment_t_end_ea_get 00000001800209c8     segment.obj
 0002:0000a9e4       $tryMap$_wrap_segment_t_end_ea_get 00000001800209e4     segment.obj
 0002:0000a9f8       $handlerMap$0$_wrap_segment_t_end_ea_get 00000001800209f8     segment.obj
 0002:0000aa70       $ip2state$_wrap_segment_t_end_ea_get 0000000180020a70     segment.obj
 0002:0000aa90       $unwind$_wrap_segment_t_end_ea_get$catch$3 0000000180020a90     segment.obj
 0002:0000aa90       $unwind$_wrap_segment_t_end_ea_get$catch$2 0000000180020a90     segment.obj
 0002:0000aa90       $unwind$_wrap_segment_t_end_ea_get$catch$4 0000000180020a90     segment.obj
 0002:0000aa90       $unwind$_wrap_segment_t_end_ea_get$catch$1 0000000180020a90     segment.obj
 0002:0000aa90       $unwind$_wrap_segment_t_end_ea_get$catch$5 0000000180020a90     segment.obj
 0002:0000aa90       $unwind$_wrap_segment_t_end_ea_get$catch$0 0000000180020a90     segment.obj
 0002:0000aaa0       $unwind$_wrap_delete_segment_t 0000000180020aa0     segment.obj
 0002:0000aabc       $tryMap$_wrap_delete_segment_t 0000000180020abc     segment.obj
 0002:0000aad0       $handlerMap$0$_wrap_delete_segment_t 0000000180020ad0     segment.obj
 0002:0000ab48       $ip2state$_wrap_delete_segment_t 0000000180020b48     segment.obj
 0002:0000ab68       $unwind$_wrap_delete_segment_t$catch$5 0000000180020b68     segment.obj
 0002:0000ab68       $unwind$_wrap_delete_segment_t$catch$0 0000000180020b68     segment.obj
 0002:0000ab68       $unwind$_wrap_delete_segment_t$catch$4 0000000180020b68     segment.obj
 0002:0000ab68       $unwind$_wrap_delete_segment_t$catch$2 0000000180020b68     segment.obj
 0002:0000ab68       $unwind$_wrap_delete_segment_t$catch$1 0000000180020b68     segment.obj
 0002:0000ab68       $unwind$_wrap_delete_segment_t$catch$3 0000000180020b68     segment.obj
 0002:0000ab78       $unwind$segment_t_swigregister 0000000180020b78     segment.obj
 0002:0000ab78       $unwind$lock_segment_swigregister 0000000180020b78     segment.obj
 0002:0000ab80       $unwind$_wrap_is_visible_segm 0000000180020b80     segment.obj
 0002:0000ab9c       $tryMap$_wrap_is_visible_segm 0000000180020b9c     segment.obj
 0002:0000abb0       $handlerMap$0$_wrap_is_visible_segm 0000000180020bb0     segment.obj
 0002:0000ac28       $ip2state$_wrap_is_visible_segm 0000000180020c28     segment.obj
 0002:0000ac48       $unwind$_wrap_is_visible_segm$catch$2 0000000180020c48     segment.obj
 0002:0000ac48       $unwind$_wrap_is_visible_segm$catch$3 0000000180020c48     segment.obj
 0002:0000ac48       $unwind$_wrap_is_visible_segm$catch$0 0000000180020c48     segment.obj
 0002:0000ac48       $unwind$_wrap_is_visible_segm$catch$1 0000000180020c48     segment.obj
 0002:0000ac48       $unwind$_wrap_is_visible_segm$catch$4 0000000180020c48     segment.obj
 0002:0000ac48       $unwind$_wrap_is_visible_segm$catch$5 0000000180020c48     segment.obj
 0002:0000ac58       $unwind$_wrap_is_finally_visible_segm 0000000180020c58     segment.obj
 0002:0000ac78       $tryMap$_wrap_is_finally_visible_segm 0000000180020c78     segment.obj
 0002:0000ac8c       $handlerMap$0$_wrap_is_finally_visible_segm 0000000180020c8c     segment.obj
 0002:0000ad08       $ip2state$_wrap_is_finally_visible_segm 0000000180020d08     segment.obj
 0002:0000ad28       $unwind$_wrap_is_finally_visible_segm$catch$3 0000000180020d28     segment.obj
 0002:0000ad28       $unwind$_wrap_is_finally_visible_segm$catch$2 0000000180020d28     segment.obj
 0002:0000ad28       $unwind$_wrap_is_finally_visible_segm$catch$1 0000000180020d28     segment.obj
 0002:0000ad28       $unwind$_wrap_is_finally_visible_segm$catch$0 0000000180020d28     segment.obj
 0002:0000ad28       $unwind$_wrap_is_finally_visible_segm$catch$4 0000000180020d28     segment.obj
 0002:0000ad28       $unwind$_wrap_is_finally_visible_segm$catch$5 0000000180020d28     segment.obj
 0002:0000ad38       $unwind$_wrap_set_visible_segm 0000000180020d38     segment.obj
 0002:0000ad54       $tryMap$_wrap_set_visible_segm 0000000180020d54     segment.obj
 0002:0000ad68       $handlerMap$0$_wrap_set_visible_segm 0000000180020d68     segment.obj
 0002:0000ade0       $ip2state$_wrap_set_visible_segm 0000000180020de0     segment.obj
 0002:0000ae00       $unwind$_wrap_set_visible_segm$catch$5 0000000180020e00     segment.obj
 0002:0000ae00       $unwind$_wrap_set_visible_segm$catch$4 0000000180020e00     segment.obj
 0002:0000ae00       $unwind$_wrap_set_visible_segm$catch$3 0000000180020e00     segment.obj
 0002:0000ae00       $unwind$_wrap_set_visible_segm$catch$1 0000000180020e00     segment.obj
 0002:0000ae00       $unwind$_wrap_set_visible_segm$catch$0 0000000180020e00     segment.obj
 0002:0000ae00       $unwind$_wrap_set_visible_segm$catch$2 0000000180020e00     segment.obj
 0002:0000ae10       $unwind$_wrap_is_spec_segm 0000000180020e10     segment.obj
 0002:0000ae24       $tryMap$_wrap_is_spec_segm 0000000180020e24     segment.obj
 0002:0000ae38       $handlerMap$0$_wrap_is_spec_segm 0000000180020e38     segment.obj
 0002:0000aeb0       $ip2state$_wrap_is_spec_segm 0000000180020eb0     segment.obj
 0002:0000aec8       $unwind$_wrap_is_spec_segm$catch$5 0000000180020ec8     segment.obj
 0002:0000aec8       $unwind$_wrap_is_spec_segm$catch$0 0000000180020ec8     segment.obj
 0002:0000aec8       $unwind$_wrap_is_spec_segm$catch$1 0000000180020ec8     segment.obj
 0002:0000aec8       $unwind$_wrap_is_spec_segm$catch$2 0000000180020ec8     segment.obj
 0002:0000aec8       $unwind$_wrap_is_spec_segm$catch$3 0000000180020ec8     segment.obj
 0002:0000aec8       $unwind$_wrap_is_spec_segm$catch$4 0000000180020ec8     segment.obj
 0002:0000aed8       $unwind$_wrap_is_spec_ea   0000000180020ed8     segment.obj
 0002:0000aeec       $tryMap$_wrap_is_spec_ea   0000000180020eec     segment.obj
 0002:0000af00       $handlerMap$0$_wrap_is_spec_ea 0000000180020f00     segment.obj
 0002:0000af78       $ip2state$_wrap_is_spec_ea 0000000180020f78     segment.obj
 0002:0000af90       $unwind$_wrap_is_spec_ea$catch$5 0000000180020f90     segment.obj
 0002:0000af90       $unwind$_wrap_is_spec_ea$catch$0 0000000180020f90     segment.obj
 0002:0000af90       $unwind$_wrap_is_spec_ea$catch$4 0000000180020f90     segment.obj
 0002:0000af90       $unwind$_wrap_is_spec_ea$catch$1 0000000180020f90     segment.obj
 0002:0000af90       $unwind$_wrap_is_spec_ea$catch$2 0000000180020f90     segment.obj
 0002:0000af90       $unwind$_wrap_is_spec_ea$catch$3 0000000180020f90     segment.obj
 0002:0000afa0       $unwind$_wrap_lock_segm    0000000180020fa0     segment.obj
 0002:0000afbc       $tryMap$_wrap_lock_segm    0000000180020fbc     segment.obj
 0002:0000afd0       $handlerMap$0$_wrap_lock_segm 0000000180020fd0     segment.obj
 0002:0000b048       $ip2state$_wrap_lock_segm  0000000180021048     segment.obj
 0002:0000b068       $unwind$_wrap_lock_segm$catch$5 0000000180021068     segment.obj
 0002:0000b068       $unwind$_wrap_lock_segm$catch$4 0000000180021068     segment.obj
 0002:0000b068       $unwind$_wrap_lock_segm$catch$1 0000000180021068     segment.obj
 0002:0000b068       $unwind$_wrap_lock_segm$catch$3 0000000180021068     segment.obj
 0002:0000b068       $unwind$_wrap_lock_segm$catch$2 0000000180021068     segment.obj
 0002:0000b068       $unwind$_wrap_lock_segm$catch$0 0000000180021068     segment.obj
 0002:0000b078       $unwind$_wrap_new_lock_segment 0000000180021078     segment.obj
 0002:0000b094       $tryMap$_wrap_new_lock_segment 0000000180021094     segment.obj
 0002:0000b0a8       $handlerMap$0$_wrap_new_lock_segment 00000001800210a8     segment.obj
 0002:0000b120       $ip2state$_wrap_new_lock_segment 0000000180021120     segment.obj
 0002:0000b148       $unwind$_wrap_new_lock_segment$catch$1 0000000180021148     segment.obj
 0002:0000b148       $unwind$_wrap_new_lock_segment$catch$2 0000000180021148     segment.obj
 0002:0000b148       $unwind$_wrap_new_lock_segment$catch$3 0000000180021148     segment.obj
 0002:0000b148       $unwind$_wrap_new_lock_segment$catch$4 0000000180021148     segment.obj
 0002:0000b148       $unwind$_wrap_new_lock_segment$catch$5 0000000180021148     segment.obj
 0002:0000b148       $unwind$_wrap_new_lock_segment$catch$6 0000000180021148     segment.obj
 0002:0000b158       $unwind$_wrap_delete_lock_segment 0000000180021158     segment.obj
 0002:0000b174       $tryMap$_wrap_delete_lock_segment 0000000180021174     segment.obj
 0002:0000b188       $handlerMap$0$_wrap_delete_lock_segment 0000000180021188     segment.obj
 0002:0000b200       $ip2state$_wrap_delete_lock_segment 0000000180021200     segment.obj
 0002:0000b220       $unwind$_wrap_delete_lock_segment$catch$0 0000000180021220     segment.obj
 0002:0000b220       $unwind$_wrap_delete_lock_segment$catch$2 0000000180021220     segment.obj
 0002:0000b220       $unwind$_wrap_delete_lock_segment$catch$5 0000000180021220     segment.obj
 0002:0000b220       $unwind$_wrap_delete_lock_segment$catch$1 0000000180021220     segment.obj
 0002:0000b220       $unwind$_wrap_delete_lock_segment$catch$3 0000000180021220     segment.obj
 0002:0000b220       $unwind$_wrap_delete_lock_segment$catch$4 0000000180021220     segment.obj
 0002:0000b230       $unwind$_wrap_is_segm_locked 0000000180021230     segment.obj
 0002:0000b250       $tryMap$_wrap_is_segm_locked 0000000180021250     segment.obj
 0002:0000b264       $handlerMap$0$_wrap_is_segm_locked 0000000180021264     segment.obj
 0002:0000b2e0       $ip2state$_wrap_is_segm_locked 00000001800212e0     segment.obj
 0002:0000b300       $unwind$_wrap_is_segm_locked$catch$5 0000000180021300     segment.obj
 0002:0000b300       $unwind$_wrap_is_segm_locked$catch$2 0000000180021300     segment.obj
 0002:0000b300       $unwind$_wrap_is_segm_locked$catch$0 0000000180021300     segment.obj
 0002:0000b300       $unwind$_wrap_is_segm_locked$catch$4 0000000180021300     segment.obj
 0002:0000b300       $unwind$_wrap_is_segm_locked$catch$3 0000000180021300     segment.obj
 0002:0000b300       $unwind$_wrap_is_segm_locked$catch$1 0000000180021300     segment.obj
 0002:0000b310       $unwind$_wrap_getn_selector 0000000180021310     segment.obj
 0002:0000b324       $tryMap$_wrap_getn_selector 0000000180021324     segment.obj
 0002:0000b338       $handlerMap$0$_wrap_getn_selector 0000000180021338     segment.obj
 0002:0000b3b0       $ip2state$_wrap_getn_selector 00000001800213b0     segment.obj
 0002:0000b3c8       $unwind$_wrap_getn_selector$catch$5 00000001800213c8     segment.obj
 0002:0000b3c8       $unwind$_wrap_getn_selector$catch$1 00000001800213c8     segment.obj
 0002:0000b3c8       $unwind$_wrap_getn_selector$catch$0 00000001800213c8     segment.obj
 0002:0000b3c8       $unwind$_wrap_getn_selector$catch$2 00000001800213c8     segment.obj
 0002:0000b3c8       $unwind$_wrap_getn_selector$catch$4 00000001800213c8     segment.obj
 0002:0000b3c8       $unwind$_wrap_getn_selector$catch$3 00000001800213c8     segment.obj
 0002:0000b3d8       $unwind$_wrap_get_selector_qty 00000001800213d8     segment.obj
 0002:0000b3e8       $tryMap$_wrap_get_selector_qty 00000001800213e8     segment.obj
 0002:0000b3fc       $handlerMap$0$_wrap_get_selector_qty 00000001800213fc     segment.obj
 0002:0000b478       $ip2state$_wrap_get_selector_qty 0000000180021478     segment.obj
 0002:0000b490       $unwind$_wrap_get_selector_qty$catch$0 0000000180021490     segment.obj
 0002:0000b490       $unwind$_wrap_get_selector_qty$catch$4 0000000180021490     segment.obj
 0002:0000b490       $unwind$_wrap_get_selector_qty$catch$5 0000000180021490     segment.obj
 0002:0000b490       $unwind$_wrap_get_selector_qty$catch$3 0000000180021490     segment.obj
 0002:0000b490       $unwind$_wrap_get_selector_qty$catch$2 0000000180021490     segment.obj
 0002:0000b490       $unwind$_wrap_get_selector_qty$catch$1 0000000180021490     segment.obj
 0002:0000b4a0       $unwind$_wrap_setup_selector 00000001800214a0     segment.obj
 0002:0000b4b4       $tryMap$_wrap_setup_selector 00000001800214b4     segment.obj
 0002:0000b4c8       $handlerMap$0$_wrap_setup_selector 00000001800214c8     segment.obj
 0002:0000b540       $ip2state$_wrap_setup_selector 0000000180021540     segment.obj
 0002:0000b558       $unwind$_wrap_setup_selector$catch$4 0000000180021558     segment.obj
 0002:0000b558       $unwind$_wrap_setup_selector$catch$2 0000000180021558     segment.obj
 0002:0000b558       $unwind$_wrap_setup_selector$catch$1 0000000180021558     segment.obj
 0002:0000b558       $unwind$_wrap_setup_selector$catch$3 0000000180021558     segment.obj
 0002:0000b558       $unwind$_wrap_setup_selector$catch$5 0000000180021558     segment.obj
 0002:0000b558       $unwind$_wrap_setup_selector$catch$0 0000000180021558     segment.obj
 0002:0000b568       $unwind$_wrap_allocate_selector 0000000180021568     segment.obj
 0002:0000b57c       $tryMap$_wrap_allocate_selector 000000018002157c     segment.obj
 0002:0000b590       $handlerMap$0$_wrap_allocate_selector 0000000180021590     segment.obj
 0002:0000b608       $ip2state$_wrap_allocate_selector 0000000180021608     segment.obj
 0002:0000b620       $unwind$_wrap_allocate_selector$catch$2 0000000180021620     segment.obj
 0002:0000b620       $unwind$_wrap_allocate_selector$catch$3 0000000180021620     segment.obj
 0002:0000b620       $unwind$_wrap_allocate_selector$catch$5 0000000180021620     segment.obj
 0002:0000b620       $unwind$_wrap_allocate_selector$catch$1 0000000180021620     segment.obj
 0002:0000b620       $unwind$_wrap_allocate_selector$catch$0 0000000180021620     segment.obj
 0002:0000b620       $unwind$_wrap_allocate_selector$catch$4 0000000180021620     segment.obj
 0002:0000b630       $unwind$_wrap_find_free_selector 0000000180021630     segment.obj
 0002:0000b640       $tryMap$_wrap_find_free_selector 0000000180021640     segment.obj
 0002:0000b654       $handlerMap$0$_wrap_find_free_selector 0000000180021654     segment.obj
 0002:0000b6d0       $ip2state$_wrap_find_free_selector 00000001800216d0     segment.obj
 0002:0000b6e8       $unwind$_wrap_find_free_selector$catch$3 00000001800216e8     segment.obj
 0002:0000b6e8       $unwind$_wrap_find_free_selector$catch$4 00000001800216e8     segment.obj
 0002:0000b6e8       $unwind$_wrap_find_free_selector$catch$2 00000001800216e8     segment.obj
 0002:0000b6e8       $unwind$_wrap_find_free_selector$catch$1 00000001800216e8     segment.obj
 0002:0000b6e8       $unwind$_wrap_find_free_selector$catch$5 00000001800216e8     segment.obj
 0002:0000b6e8       $unwind$_wrap_find_free_selector$catch$0 00000001800216e8     segment.obj
 0002:0000b6f8       $unwind$_wrap_set_selector 00000001800216f8     segment.obj
 0002:0000b70c       $tryMap$_wrap_set_selector 000000018002170c     segment.obj
 0002:0000b720       $handlerMap$0$_wrap_set_selector 0000000180021720     segment.obj
 0002:0000b798       $ip2state$_wrap_set_selector 0000000180021798     segment.obj
 0002:0000b7b0       $unwind$_wrap_set_selector$catch$5 00000001800217b0     segment.obj
 0002:0000b7b0       $unwind$_wrap_set_selector$catch$4 00000001800217b0     segment.obj
 0002:0000b7b0       $unwind$_wrap_set_selector$catch$3 00000001800217b0     segment.obj
 0002:0000b7b0       $unwind$_wrap_set_selector$catch$2 00000001800217b0     segment.obj
 0002:0000b7b0       $unwind$_wrap_set_selector$catch$1 00000001800217b0     segment.obj
 0002:0000b7b0       $unwind$_wrap_set_selector$catch$0 00000001800217b0     segment.obj
 0002:0000b7c0       $unwind$_wrap_del_selector 00000001800217c0     segment.obj
 0002:0000b7d4       $tryMap$_wrap_del_selector 00000001800217d4     segment.obj
 0002:0000b7e8       $handlerMap$0$_wrap_del_selector 00000001800217e8     segment.obj
 0002:0000b860       $ip2state$_wrap_del_selector 0000000180021860     segment.obj
 0002:0000b878       $unwind$_wrap_del_selector$catch$5 0000000180021878     segment.obj
 0002:0000b878       $unwind$_wrap_del_selector$catch$4 0000000180021878     segment.obj
 0002:0000b878       $unwind$_wrap_del_selector$catch$3 0000000180021878     segment.obj
 0002:0000b878       $unwind$_wrap_del_selector$catch$2 0000000180021878     segment.obj
 0002:0000b878       $unwind$_wrap_del_selector$catch$1 0000000180021878     segment.obj
 0002:0000b878       $unwind$_wrap_del_selector$catch$0 0000000180021878     segment.obj
 0002:0000b888       $unwind$_wrap_sel2para     0000000180021888     segment.obj
 0002:0000b89c       $tryMap$_wrap_sel2para     000000018002189c     segment.obj
 0002:0000b8b0       $handlerMap$0$_wrap_sel2para 00000001800218b0     segment.obj
 0002:0000b928       $ip2state$_wrap_sel2para   0000000180021928     segment.obj
 0002:0000b940       $unwind$_wrap_sel2para$catch$5 0000000180021940     segment.obj
 0002:0000b940       $unwind$_wrap_sel2para$catch$4 0000000180021940     segment.obj
 0002:0000b940       $unwind$_wrap_sel2para$catch$3 0000000180021940     segment.obj
 0002:0000b940       $unwind$_wrap_sel2para$catch$0 0000000180021940     segment.obj
 0002:0000b940       $unwind$_wrap_sel2para$catch$2 0000000180021940     segment.obj
 0002:0000b940       $unwind$_wrap_sel2para$catch$1 0000000180021940     segment.obj
 0002:0000b950       $unwind$_wrap_sel2ea       0000000180021950     segment.obj
 0002:0000b964       $tryMap$_wrap_sel2ea       0000000180021964     segment.obj
 0002:0000b978       $handlerMap$0$_wrap_sel2ea 0000000180021978     segment.obj
 0002:0000b9f0       $ip2state$_wrap_sel2ea     00000001800219f0     segment.obj
 0002:0000ba08       $unwind$_wrap_sel2ea$catch$5 0000000180021a08     segment.obj
 0002:0000ba08       $unwind$_wrap_sel2ea$catch$1 0000000180021a08     segment.obj
 0002:0000ba08       $unwind$_wrap_sel2ea$catch$3 0000000180021a08     segment.obj
 0002:0000ba08       $unwind$_wrap_sel2ea$catch$0 0000000180021a08     segment.obj
 0002:0000ba08       $unwind$_wrap_sel2ea$catch$4 0000000180021a08     segment.obj
 0002:0000ba08       $unwind$_wrap_sel2ea$catch$2 0000000180021a08     segment.obj
 0002:0000ba18       $unwind$_wrap_find_selector 0000000180021a18     segment.obj
 0002:0000ba2c       $tryMap$_wrap_find_selector 0000000180021a2c     segment.obj
 0002:0000ba40       $handlerMap$0$_wrap_find_selector 0000000180021a40     segment.obj
 0002:0000bab8       $ip2state$_wrap_find_selector 0000000180021ab8     segment.obj
 0002:0000bad0       $unwind$_wrap_find_selector$catch$3 0000000180021ad0     segment.obj
 0002:0000bad0       $unwind$_wrap_find_selector$catch$0 0000000180021ad0     segment.obj
 0002:0000bad0       $unwind$_wrap_find_selector$catch$4 0000000180021ad0     segment.obj
 0002:0000bad0       $unwind$_wrap_find_selector$catch$5 0000000180021ad0     segment.obj
 0002:0000bad0       $unwind$_wrap_find_selector$catch$2 0000000180021ad0     segment.obj
 0002:0000bad0       $unwind$_wrap_find_selector$catch$1 0000000180021ad0     segment.obj
 0002:0000bae0       $unwind$_wrap_get_segm_by_sel 0000000180021ae0     segment.obj
 0002:0000baf4       $tryMap$_wrap_get_segm_by_sel 0000000180021af4     segment.obj
 0002:0000bb08       $handlerMap$0$_wrap_get_segm_by_sel 0000000180021b08     segment.obj
 0002:0000bb80       $ip2state$_wrap_get_segm_by_sel 0000000180021b80     segment.obj
 0002:0000bb98       $unwind$_wrap_get_segm_by_sel$catch$1 0000000180021b98     segment.obj
 0002:0000bb98       $unwind$_wrap_get_segm_by_sel$catch$2 0000000180021b98     segment.obj
 0002:0000bb98       $unwind$_wrap_get_segm_by_sel$catch$5 0000000180021b98     segment.obj
 0002:0000bb98       $unwind$_wrap_get_segm_by_sel$catch$3 0000000180021b98     segment.obj
 0002:0000bb98       $unwind$_wrap_get_segm_by_sel$catch$4 0000000180021b98     segment.obj
 0002:0000bb98       $unwind$_wrap_get_segm_by_sel$catch$0 0000000180021b98     segment.obj
 0002:0000bba8       $unwind$_wrap_add_segm_ex  0000000180021ba8     segment.obj
 0002:0000bbd0       $tryMap$_wrap_add_segm_ex  0000000180021bd0     segment.obj
 0002:0000bbe4       $handlerMap$0$_wrap_add_segm_ex 0000000180021be4     segment.obj
 0002:0000bc60       $ip2state$_wrap_add_segm_ex 0000000180021c60     segment.obj
 0002:0000bc88       $unwind$_wrap_add_segm_ex$catch$5 0000000180021c88     segment.obj
 0002:0000bc88       $unwind$_wrap_add_segm_ex$catch$4 0000000180021c88     segment.obj
 0002:0000bc88       $unwind$_wrap_add_segm_ex$catch$3 0000000180021c88     segment.obj
 0002:0000bc88       $unwind$_wrap_add_segm_ex$catch$2 0000000180021c88     segment.obj
 0002:0000bc88       $unwind$_wrap_add_segm_ex$catch$1 0000000180021c88     segment.obj
 0002:0000bc88       $unwind$_wrap_add_segm_ex$catch$0 0000000180021c88     segment.obj
 0002:0000bc98       $unwind$_wrap_add_segm     0000000180021c98     segment.obj
 0002:0000bcbc       $tryMap$_wrap_add_segm     0000000180021cbc     segment.obj
 0002:0000bcd0       $handlerMap$0$_wrap_add_segm 0000000180021cd0     segment.obj
 0002:0000bd48       $ip2state$_wrap_add_segm   0000000180021d48     segment.obj
 0002:0000bd70       $unwind$_wrap_add_segm$catch$5 0000000180021d70     segment.obj
 0002:0000bd70       $unwind$_wrap_add_segm$catch$4 0000000180021d70     segment.obj
 0002:0000bd70       $unwind$_wrap_add_segm$catch$3 0000000180021d70     segment.obj
 0002:0000bd70       $unwind$_wrap_add_segm$catch$2 0000000180021d70     segment.obj
 0002:0000bd70       $unwind$_wrap_add_segm$catch$1 0000000180021d70     segment.obj
 0002:0000bd70       $unwind$_wrap_add_segm$catch$0 0000000180021d70     segment.obj
 0002:0000bd80       $unwind$_wrap_del_segm     0000000180021d80     segment.obj
 0002:0000bd94       $tryMap$_wrap_del_segm     0000000180021d94     segment.obj
 0002:0000bda8       $handlerMap$0$_wrap_del_segm 0000000180021da8     segment.obj
 0002:0000be20       $ip2state$_wrap_del_segm   0000000180021e20     segment.obj
 0002:0000be38       $unwind$_wrap_del_segm$catch$5 0000000180021e38     segment.obj
 0002:0000be38       $unwind$_wrap_del_segm$catch$4 0000000180021e38     segment.obj
 0002:0000be38       $unwind$_wrap_del_segm$catch$3 0000000180021e38     segment.obj
 0002:0000be38       $unwind$_wrap_del_segm$catch$2 0000000180021e38     segment.obj
 0002:0000be38       $unwind$_wrap_del_segm$catch$1 0000000180021e38     segment.obj
 0002:0000be38       $unwind$_wrap_del_segm$catch$0 0000000180021e38     segment.obj
 0002:0000be48       $unwind$_wrap_get_segm_qty 0000000180021e48     segment.obj
 0002:0000be58       $tryMap$_wrap_get_segm_qty 0000000180021e58     segment.obj
 0002:0000be6c       $handlerMap$0$_wrap_get_segm_qty 0000000180021e6c     segment.obj
 0002:0000bee8       $ip2state$_wrap_get_segm_qty 0000000180021ee8     segment.obj
 0002:0000bf00       $unwind$_wrap_get_segm_qty$catch$5 0000000180021f00     segment.obj
 0002:0000bf00       $unwind$_wrap_get_segm_qty$catch$4 0000000180021f00     segment.obj
 0002:0000bf00       $unwind$_wrap_get_segm_qty$catch$3 0000000180021f00     segment.obj
 0002:0000bf00       $unwind$_wrap_get_segm_qty$catch$2 0000000180021f00     segment.obj
 0002:0000bf00       $unwind$_wrap_get_segm_qty$catch$1 0000000180021f00     segment.obj
 0002:0000bf00       $unwind$_wrap_get_segm_qty$catch$0 0000000180021f00     segment.obj
 0002:0000bf10       $unwind$_wrap_getseg       0000000180021f10     segment.obj
 0002:0000bf24       $tryMap$_wrap_getseg       0000000180021f24     segment.obj
 0002:0000bf38       $handlerMap$0$_wrap_getseg 0000000180021f38     segment.obj
 0002:0000bfb0       $ip2state$_wrap_getseg     0000000180021fb0     segment.obj
 0002:0000bfc8       $unwind$_wrap_getseg$catch$5 0000000180021fc8     segment.obj
 0002:0000bfc8       $unwind$_wrap_getseg$catch$4 0000000180021fc8     segment.obj
 0002:0000bfc8       $unwind$_wrap_getseg$catch$3 0000000180021fc8     segment.obj
 0002:0000bfc8       $unwind$_wrap_getseg$catch$2 0000000180021fc8     segment.obj
 0002:0000bfc8       $unwind$_wrap_getseg$catch$1 0000000180021fc8     segment.obj
 0002:0000bfc8       $unwind$_wrap_getseg$catch$0 0000000180021fc8     segment.obj
 0002:0000bfd8       $unwind$_wrap_getnseg      0000000180021fd8     segment.obj
 0002:0000bfec       $tryMap$_wrap_getnseg      0000000180021fec     segment.obj
 0002:0000c000       $handlerMap$0$_wrap_getnseg 0000000180022000     segment.obj
 0002:0000c078       $ip2state$_wrap_getnseg    0000000180022078     segment.obj
 0002:0000c090       $unwind$_wrap_getnseg$catch$5 0000000180022090     segment.obj
 0002:0000c090       $unwind$_wrap_getnseg$catch$4 0000000180022090     segment.obj
 0002:0000c090       $unwind$_wrap_getnseg$catch$3 0000000180022090     segment.obj
 0002:0000c090       $unwind$_wrap_getnseg$catch$2 0000000180022090     segment.obj
 0002:0000c090       $unwind$_wrap_getnseg$catch$0 0000000180022090     segment.obj
 0002:0000c090       $unwind$_wrap_getnseg$catch$1 0000000180022090     segment.obj
 0002:0000c0a0       $unwind$_wrap_get_segm_num 00000001800220a0     segment.obj
 0002:0000c0b4       $tryMap$_wrap_get_segm_num 00000001800220b4     segment.obj
 0002:0000c0c8       $handlerMap$0$_wrap_get_segm_num 00000001800220c8     segment.obj
 0002:0000c140       $ip2state$_wrap_get_segm_num 0000000180022140     segment.obj
 0002:0000c158       $unwind$_wrap_get_segm_num$catch$4 0000000180022158     segment.obj
 0002:0000c158       $unwind$_wrap_get_segm_num$catch$5 0000000180022158     segment.obj
 0002:0000c158       $unwind$_wrap_get_segm_num$catch$3 0000000180022158     segment.obj
 0002:0000c158       $unwind$_wrap_get_segm_num$catch$1 0000000180022158     segment.obj
 0002:0000c158       $unwind$_wrap_get_segm_num$catch$2 0000000180022158     segment.obj
 0002:0000c158       $unwind$_wrap_get_segm_num$catch$0 0000000180022158     segment.obj
 0002:0000c168       $unwind$_wrap_get_next_seg 0000000180022168     segment.obj
 0002:0000c17c       $tryMap$_wrap_get_next_seg 000000018002217c     segment.obj
 0002:0000c190       $handlerMap$0$_wrap_get_next_seg 0000000180022190     segment.obj
 0002:0000c208       $ip2state$_wrap_get_next_seg 0000000180022208     segment.obj
 0002:0000c220       $unwind$_wrap_get_next_seg$catch$4 0000000180022220     segment.obj
 0002:0000c220       $unwind$_wrap_get_next_seg$catch$0 0000000180022220     segment.obj
 0002:0000c220       $unwind$_wrap_get_next_seg$catch$2 0000000180022220     segment.obj
 0002:0000c220       $unwind$_wrap_get_next_seg$catch$5 0000000180022220     segment.obj
 0002:0000c220       $unwind$_wrap_get_next_seg$catch$1 0000000180022220     segment.obj
 0002:0000c220       $unwind$_wrap_get_next_seg$catch$3 0000000180022220     segment.obj
 0002:0000c230       $unwind$_wrap_get_prev_seg 0000000180022230     segment.obj
 0002:0000c244       $tryMap$_wrap_get_prev_seg 0000000180022244     segment.obj
 0002:0000c258       $handlerMap$0$_wrap_get_prev_seg 0000000180022258     segment.obj
 0002:0000c2d0       $ip2state$_wrap_get_prev_seg 00000001800222d0     segment.obj
 0002:0000c2e8       $unwind$_wrap_get_prev_seg$catch$5 00000001800222e8     segment.obj
 0002:0000c2e8       $unwind$_wrap_get_prev_seg$catch$0 00000001800222e8     segment.obj
 0002:0000c2e8       $unwind$_wrap_get_prev_seg$catch$1 00000001800222e8     segment.obj
 0002:0000c2e8       $unwind$_wrap_get_prev_seg$catch$3 00000001800222e8     segment.obj
 0002:0000c2e8       $unwind$_wrap_get_prev_seg$catch$2 00000001800222e8     segment.obj
 0002:0000c2e8       $unwind$_wrap_get_prev_seg$catch$4 00000001800222e8     segment.obj
 0002:0000c2f8       $unwind$_wrap_get_first_seg 00000001800222f8     segment.obj
 0002:0000c308       $tryMap$_wrap_get_first_seg 0000000180022308     segment.obj
 0002:0000c31c       $handlerMap$0$_wrap_get_first_seg 000000018002231c     segment.obj
 0002:0000c398       $ip2state$_wrap_get_first_seg 0000000180022398     segment.obj
 0002:0000c3b0       $unwind$_wrap_get_first_seg$catch$1 00000001800223b0     segment.obj
 0002:0000c3b0       $unwind$_wrap_get_first_seg$catch$2 00000001800223b0     segment.obj
 0002:0000c3b0       $unwind$_wrap_get_first_seg$catch$3 00000001800223b0     segment.obj
 0002:0000c3b0       $unwind$_wrap_get_first_seg$catch$5 00000001800223b0     segment.obj
 0002:0000c3b0       $unwind$_wrap_get_first_seg$catch$4 00000001800223b0     segment.obj
 0002:0000c3b0       $unwind$_wrap_get_first_seg$catch$0 00000001800223b0     segment.obj
 0002:0000c3c0       $unwind$_wrap_get_last_seg 00000001800223c0     segment.obj
 0002:0000c3d0       $tryMap$_wrap_get_last_seg 00000001800223d0     segment.obj
 0002:0000c3e4       $handlerMap$0$_wrap_get_last_seg 00000001800223e4     segment.obj
 0002:0000c460       $ip2state$_wrap_get_last_seg 0000000180022460     segment.obj
 0002:0000c478       $unwind$_wrap_get_last_seg$catch$3 0000000180022478     segment.obj
 0002:0000c478       $unwind$_wrap_get_last_seg$catch$1 0000000180022478     segment.obj
 0002:0000c478       $unwind$_wrap_get_last_seg$catch$5 0000000180022478     segment.obj
 0002:0000c478       $unwind$_wrap_get_last_seg$catch$0 0000000180022478     segment.obj
 0002:0000c478       $unwind$_wrap_get_last_seg$catch$2 0000000180022478     segment.obj
 0002:0000c478       $unwind$_wrap_get_last_seg$catch$4 0000000180022478     segment.obj
 0002:0000c488       $unwind$_wrap_get_segm_by_name 0000000180022488     segment.obj
 0002:0000c4a0       $tryMap$_wrap_get_segm_by_name 00000001800224a0     segment.obj
 0002:0000c4b4       $handlerMap$0$_wrap_get_segm_by_name 00000001800224b4     segment.obj
 0002:0000c530       $ip2state$_wrap_get_segm_by_name 0000000180022530     segment.obj
 0002:0000c558       $unwind$_wrap_get_segm_by_name$catch$1 0000000180022558     segment.obj
 0002:0000c558       $unwind$_wrap_get_segm_by_name$catch$4 0000000180022558     segment.obj
 0002:0000c558       $unwind$_wrap_get_segm_by_name$catch$0 0000000180022558     segment.obj
 0002:0000c558       $unwind$_wrap_get_segm_by_name$catch$5 0000000180022558     segment.obj
 0002:0000c558       $unwind$_wrap_get_segm_by_name$catch$3 0000000180022558     segment.obj
 0002:0000c558       $unwind$_wrap_get_segm_by_name$catch$2 0000000180022558     segment.obj
 0002:0000c568       $unwind$_wrap_set_segm_end 0000000180022568     segment.obj
 0002:0000c584       $tryMap$_wrap_set_segm_end 0000000180022584     segment.obj
 0002:0000c598       $handlerMap$0$_wrap_set_segm_end 0000000180022598     segment.obj
 0002:0000c610       $ip2state$_wrap_set_segm_end 0000000180022610     segment.obj
 0002:0000c630       $unwind$_wrap_set_segm_end$catch$4 0000000180022630     segment.obj
 0002:0000c630       $unwind$_wrap_set_segm_end$catch$2 0000000180022630     segment.obj
 0002:0000c630       $unwind$_wrap_set_segm_end$catch$3 0000000180022630     segment.obj
 0002:0000c630       $unwind$_wrap_set_segm_end$catch$1 0000000180022630     segment.obj
 0002:0000c630       $unwind$_wrap_set_segm_end$catch$0 0000000180022630     segment.obj
 0002:0000c630       $unwind$_wrap_set_segm_end$catch$5 0000000180022630     segment.obj
 0002:0000c640       $unwind$_wrap_set_segm_start 0000000180022640     segment.obj
 0002:0000c65c       $tryMap$_wrap_set_segm_start 000000018002265c     segment.obj
 0002:0000c670       $handlerMap$0$_wrap_set_segm_start 0000000180022670     segment.obj
 0002:0000c6e8       $ip2state$_wrap_set_segm_start 00000001800226e8     segment.obj
 0002:0000c708       $unwind$_wrap_set_segm_start$catch$4 0000000180022708     segment.obj
 0002:0000c708       $unwind$_wrap_set_segm_start$catch$2 0000000180022708     segment.obj
 0002:0000c708       $unwind$_wrap_set_segm_start$catch$3 0000000180022708     segment.obj
 0002:0000c708       $unwind$_wrap_set_segm_start$catch$0 0000000180022708     segment.obj
 0002:0000c708       $unwind$_wrap_set_segm_start$catch$1 0000000180022708     segment.obj
 0002:0000c708       $unwind$_wrap_set_segm_start$catch$5 0000000180022708     segment.obj
 0002:0000c718       $unwind$_wrap_move_segm_start 0000000180022718     segment.obj
 0002:0000c734       $tryMap$_wrap_move_segm_start 0000000180022734     segment.obj
 0002:0000c748       $handlerMap$0$_wrap_move_segm_start 0000000180022748     segment.obj
 0002:0000c7c0       $ip2state$_wrap_move_segm_start 00000001800227c0     segment.obj
 0002:0000c7e0       $unwind$_wrap_move_segm_start$catch$5 00000001800227e0     segment.obj
 0002:0000c7e0       $unwind$_wrap_move_segm_start$catch$3 00000001800227e0     segment.obj
 0002:0000c7e0       $unwind$_wrap_move_segm_start$catch$4 00000001800227e0     segment.obj
 0002:0000c7e0       $unwind$_wrap_move_segm_start$catch$2 00000001800227e0     segment.obj
 0002:0000c7e0       $unwind$_wrap_move_segm_start$catch$1 00000001800227e0     segment.obj
 0002:0000c7e0       $unwind$_wrap_move_segm_start$catch$0 00000001800227e0     segment.obj
 0002:0000c7f0       $unwind$_wrap_move_segm    00000001800227f0     segment.obj
 0002:0000c818       $tryMap$_wrap_move_segm    0000000180022818     segment.obj
 0002:0000c82c       $handlerMap$0$_wrap_move_segm 000000018002282c     segment.obj
 0002:0000c8a8       $ip2state$_wrap_move_segm  00000001800228a8     segment.obj
 0002:0000c8c8       $unwind$_wrap_move_segm$catch$1 00000001800228c8     segment.obj
 0002:0000c8c8       $unwind$_wrap_move_segm$catch$0 00000001800228c8     segment.obj
 0002:0000c8c8       $unwind$_wrap_move_segm$catch$2 00000001800228c8     segment.obj
 0002:0000c8c8       $unwind$_wrap_move_segm$catch$3 00000001800228c8     segment.obj
 0002:0000c8c8       $unwind$_wrap_move_segm$catch$4 00000001800228c8     segment.obj
 0002:0000c8c8       $unwind$_wrap_move_segm$catch$5 00000001800228c8     segment.obj
 0002:0000c8d8       $unwind$_wrap_change_segment_status 00000001800228d8     segment.obj
 0002:0000c8f4       $tryMap$_wrap_change_segment_status 00000001800228f4     segment.obj
 0002:0000c908       $handlerMap$0$_wrap_change_segment_status 0000000180022908     segment.obj
 0002:0000c980       $ip2state$_wrap_change_segment_status 0000000180022980     segment.obj
 0002:0000c9a0       $unwind$_wrap_change_segment_status$catch$0 00000001800229a0     segment.obj
 0002:0000c9a0       $unwind$_wrap_change_segment_status$catch$1 00000001800229a0     segment.obj
 0002:0000c9a0       $unwind$_wrap_change_segment_status$catch$2 00000001800229a0     segment.obj
 0002:0000c9a0       $unwind$_wrap_change_segment_status$catch$4 00000001800229a0     segment.obj
 0002:0000c9a0       $unwind$_wrap_change_segment_status$catch$5 00000001800229a0     segment.obj
 0002:0000c9a0       $unwind$_wrap_change_segment_status$catch$3 00000001800229a0     segment.obj
 0002:0000c9b0       $unwind$_wrap_take_memory_snapshot 00000001800229b0     segment.obj
 0002:0000c9c4       $tryMap$_wrap_take_memory_snapshot 00000001800229c4     segment.obj
 0002:0000c9d8       $handlerMap$0$_wrap_take_memory_snapshot 00000001800229d8     segment.obj
 0002:0000ca50       $ip2state$_wrap_take_memory_snapshot 0000000180022a50     segment.obj
 0002:0000ca68       $unwind$_wrap_take_memory_snapshot$catch$5 0000000180022a68     segment.obj
 0002:0000ca68       $unwind$_wrap_take_memory_snapshot$catch$0 0000000180022a68     segment.obj
 0002:0000ca68       $unwind$_wrap_take_memory_snapshot$catch$2 0000000180022a68     segment.obj
 0002:0000ca68       $unwind$_wrap_take_memory_snapshot$catch$4 0000000180022a68     segment.obj
 0002:0000ca68       $unwind$_wrap_take_memory_snapshot$catch$3 0000000180022a68     segment.obj
 0002:0000ca68       $unwind$_wrap_take_memory_snapshot$catch$1 0000000180022a68     segment.obj
 0002:0000ca78       $unwind$_wrap_is_miniidb   0000000180022a78     segment.obj
 0002:0000ca8c       $tryMap$_wrap_is_miniidb   0000000180022a8c     segment.obj
 0002:0000caa0       $handlerMap$0$_wrap_is_miniidb 0000000180022aa0     segment.obj
 0002:0000cb18       $ip2state$_wrap_is_miniidb 0000000180022b18     segment.obj
 0002:0000cb30       $unwind$_wrap_is_miniidb$catch$1 0000000180022b30     segment.obj
 0002:0000cb30       $unwind$_wrap_is_miniidb$catch$3 0000000180022b30     segment.obj
 0002:0000cb30       $unwind$_wrap_is_miniidb$catch$0 0000000180022b30     segment.obj
 0002:0000cb30       $unwind$_wrap_is_miniidb$catch$4 0000000180022b30     segment.obj
 0002:0000cb30       $unwind$_wrap_is_miniidb$catch$2 0000000180022b30     segment.obj
 0002:0000cb30       $unwind$_wrap_is_miniidb$catch$5 0000000180022b30     segment.obj
 0002:0000cb40       $unwind$_wrap_set_segm_base 0000000180022b40     segment.obj
 0002:0000cb60       $tryMap$_wrap_set_segm_base 0000000180022b60     segment.obj
 0002:0000cb74       $handlerMap$0$_wrap_set_segm_base 0000000180022b74     segment.obj
 0002:0000cbf0       $ip2state$_wrap_set_segm_base 0000000180022bf0     segment.obj
 0002:0000cc10       $unwind$_wrap_set_segm_base$catch$5 0000000180022c10     segment.obj
 0002:0000cc10       $unwind$_wrap_set_segm_base$catch$2 0000000180022c10     segment.obj
 0002:0000cc10       $unwind$_wrap_set_segm_base$catch$4 0000000180022c10     segment.obj
 0002:0000cc10       $unwind$_wrap_set_segm_base$catch$3 0000000180022c10     segment.obj
 0002:0000cc10       $unwind$_wrap_set_segm_base$catch$1 0000000180022c10     segment.obj
 0002:0000cc10       $unwind$_wrap_set_segm_base$catch$0 0000000180022c10     segment.obj
 0002:0000cc20       $unwind$_wrap_set_group_selector 0000000180022c20     segment.obj
 0002:0000cc34       $tryMap$_wrap_set_group_selector 0000000180022c34     segment.obj
 0002:0000cc48       $handlerMap$0$_wrap_set_group_selector 0000000180022c48     segment.obj
 0002:0000ccc0       $ip2state$_wrap_set_group_selector 0000000180022cc0     segment.obj
 0002:0000ccd8       $unwind$_wrap_set_group_selector$catch$2 0000000180022cd8     segment.obj
 0002:0000ccd8       $unwind$_wrap_set_group_selector$catch$4 0000000180022cd8     segment.obj
 0002:0000ccd8       $unwind$_wrap_set_group_selector$catch$3 0000000180022cd8     segment.obj
 0002:0000ccd8       $unwind$_wrap_set_group_selector$catch$1 0000000180022cd8     segment.obj
 0002:0000ccd8       $unwind$_wrap_set_group_selector$catch$0 0000000180022cd8     segment.obj
 0002:0000ccd8       $unwind$_wrap_set_group_selector$catch$5 0000000180022cd8     segment.obj
 0002:0000cce8       $unwind$_wrap_get_group_selector 0000000180022ce8     segment.obj
 0002:0000ccfc       $tryMap$_wrap_get_group_selector 0000000180022cfc     segment.obj
 0002:0000cd10       $handlerMap$0$_wrap_get_group_selector 0000000180022d10     segment.obj
 0002:0000cd88       $ip2state$_wrap_get_group_selector 0000000180022d88     segment.obj
 0002:0000cda0       $unwind$_wrap_get_group_selector$catch$2 0000000180022da0     segment.obj
 0002:0000cda0       $unwind$_wrap_get_group_selector$catch$0 0000000180022da0     segment.obj
 0002:0000cda0       $unwind$_wrap_get_group_selector$catch$5 0000000180022da0     segment.obj
 0002:0000cda0       $unwind$_wrap_get_group_selector$catch$4 0000000180022da0     segment.obj
 0002:0000cda0       $unwind$_wrap_get_group_selector$catch$3 0000000180022da0     segment.obj
 0002:0000cda0       $unwind$_wrap_get_group_selector$catch$1 0000000180022da0     segment.obj
 0002:0000cdb0       $unwind$_wrap_add_segment_translation 0000000180022db0     segment.obj
 0002:0000cdc4       $tryMap$_wrap_add_segment_translation 0000000180022dc4     segment.obj
 0002:0000cdd8       $handlerMap$0$_wrap_add_segment_translation 0000000180022dd8     segment.obj
 0002:0000ce50       $ip2state$_wrap_add_segment_translation 0000000180022e50     segment.obj
 0002:0000ce68       $unwind$_wrap_add_segment_translation$catch$0 0000000180022e68     segment.obj
 0002:0000ce68       $unwind$_wrap_add_segment_translation$catch$4 0000000180022e68     segment.obj
 0002:0000ce68       $unwind$_wrap_add_segment_translation$catch$5 0000000180022e68     segment.obj
 0002:0000ce68       $unwind$_wrap_add_segment_translation$catch$2 0000000180022e68     segment.obj
 0002:0000ce68       $unwind$_wrap_add_segment_translation$catch$3 0000000180022e68     segment.obj
 0002:0000ce68       $unwind$_wrap_add_segment_translation$catch$1 0000000180022e68     segment.obj
 0002:0000ce78       $unwind$_wrap_set_segment_translations 0000000180022e78     segment.obj
 0002:0000ce98       $stateUnwindMap$_wrap_get_segment_cmt 0000000180022e98     segment.obj
 0002:0000ce98       $stateUnwindMap$_wrap_get_segment_translations 0000000180022e98     segment.obj
 0002:0000ce98       $stateUnwindMap$_wrap_set_segment_translations 0000000180022e98     segment.obj
 0002:0000ce98       $stateUnwindMap$_wrap_get_segm_name 0000000180022e98     segment.obj
 0002:0000ceb0       $tryMap$_wrap_set_segment_translations 0000000180022eb0     segment.obj
 0002:0000cec4       $handlerMap$0$_wrap_set_segment_translations 0000000180022ec4     segment.obj
 0002:0000cf40       $ip2state$_wrap_set_segment_translations 0000000180022f40     segment.obj
 0002:0000cf60       $unwind$_wrap_set_segment_translations$catch$2 0000000180022f60     segment.obj
 0002:0000cf60       $unwind$_wrap_set_segment_translations$catch$6 0000000180022f60     segment.obj
 0002:0000cf60       $unwind$_wrap_set_segment_translations$catch$1 0000000180022f60     segment.obj
 0002:0000cf60       $unwind$_wrap_set_segment_translations$catch$5 0000000180022f60     segment.obj
 0002:0000cf60       $unwind$_wrap_set_segment_translations$catch$4 0000000180022f60     segment.obj
 0002:0000cf60       $unwind$_wrap_set_segment_translations$catch$3 0000000180022f60     segment.obj
 0002:0000cf70       $unwind$_wrap_del_segment_translations 0000000180022f70     segment.obj
 0002:0000cf84       $tryMap$_wrap_del_segment_translations 0000000180022f84     segment.obj
 0002:0000cf98       $handlerMap$0$_wrap_del_segment_translations 0000000180022f98     segment.obj
 0002:0000d010       $ip2state$_wrap_del_segment_translations 0000000180023010     segment.obj
 0002:0000d028       $unwind$_wrap_del_segment_translations$catch$2 0000000180023028     segment.obj
 0002:0000d028       $unwind$_wrap_del_segment_translations$catch$1 0000000180023028     segment.obj
 0002:0000d028       $unwind$_wrap_del_segment_translations$catch$0 0000000180023028     segment.obj
 0002:0000d028       $unwind$_wrap_del_segment_translations$catch$5 0000000180023028     segment.obj
 0002:0000d028       $unwind$_wrap_del_segment_translations$catch$3 0000000180023028     segment.obj
 0002:0000d028       $unwind$_wrap_del_segment_translations$catch$4 0000000180023028     segment.obj
 0002:0000d038       $unwind$_wrap_get_segment_translations 0000000180023038     segment.obj
 0002:0000d05c       $tryMap$_wrap_get_segment_translations 000000018002305c     segment.obj
 0002:0000d070       $handlerMap$0$_wrap_get_segment_translations 0000000180023070     segment.obj
 0002:0000d0e8       $ip2state$_wrap_get_segment_translations 00000001800230e8     segment.obj
 0002:0000d108       $unwind$_wrap_get_segment_translations$catch$1 0000000180023108     segment.obj
 0002:0000d108       $unwind$_wrap_get_segment_translations$catch$2 0000000180023108     segment.obj
 0002:0000d108       $unwind$_wrap_get_segment_translations$catch$3 0000000180023108     segment.obj
 0002:0000d108       $unwind$_wrap_get_segment_translations$catch$4 0000000180023108     segment.obj
 0002:0000d108       $unwind$_wrap_get_segment_translations$catch$6 0000000180023108     segment.obj
 0002:0000d108       $unwind$_wrap_get_segment_translations$catch$5 0000000180023108     segment.obj
 0002:0000d118       $unwind$_wrap_get_segment_cmt 0000000180023118     segment.obj
 0002:0000d13c       $tryMap$_wrap_get_segment_cmt 000000018002313c     segment.obj
 0002:0000d150       $handlerMap$0$_wrap_get_segment_cmt 0000000180023150     segment.obj
 0002:0000d1c8       $ip2state$_wrap_get_segment_cmt 00000001800231c8     segment.obj
 0002:0000d1e8       $unwind$_wrap_get_segment_cmt$catch$3 00000001800231e8     segment.obj
 0002:0000d1e8       $unwind$_wrap_get_segment_cmt$catch$8 00000001800231e8     segment.obj
 0002:0000d1e8       $unwind$_wrap_get_segment_cmt$catch$5 00000001800231e8     segment.obj
 0002:0000d1e8       $unwind$_wrap_get_segment_cmt$catch$6 00000001800231e8     segment.obj
 0002:0000d1e8       $unwind$_wrap_get_segment_cmt$catch$7 00000001800231e8     segment.obj
 0002:0000d1e8       $unwind$_wrap_get_segment_cmt$catch$4 00000001800231e8     segment.obj
 0002:0000d1f8       $unwind$_wrap_set_segment_cmt 00000001800231f8     segment.obj
 0002:0000d21c       $tryMap$_wrap_set_segment_cmt 000000018002321c     segment.obj
 0002:0000d230       $handlerMap$0$_wrap_set_segment_cmt 0000000180023230     segment.obj
 0002:0000d2a8       $ip2state$_wrap_set_segment_cmt 00000001800232a8     segment.obj
 0002:0000d2d0       $unwind$_wrap_set_segment_cmt$catch$1 00000001800232d0     segment.obj
 0002:0000d2d0       $unwind$_wrap_set_segment_cmt$catch$4 00000001800232d0     segment.obj
 0002:0000d2d0       $unwind$_wrap_set_segment_cmt$catch$2 00000001800232d0     segment.obj
 0002:0000d2d0       $unwind$_wrap_set_segment_cmt$catch$3 00000001800232d0     segment.obj
 0002:0000d2d0       $unwind$_wrap_set_segment_cmt$catch$0 00000001800232d0     segment.obj
 0002:0000d2d0       $unwind$_wrap_set_segment_cmt$catch$5 00000001800232d0     segment.obj
 0002:0000d2e0       $unwind$_wrap_std_out_segm_footer 00000001800232e0     segment.obj
 0002:0000d300       $tryMap$_wrap_std_out_segm_footer 0000000180023300     segment.obj
 0002:0000d314       $handlerMap$0$_wrap_std_out_segm_footer 0000000180023314     segment.obj
 0002:0000d390       $ip2state$_wrap_std_out_segm_footer 0000000180023390     segment.obj
 0002:0000d3b8       $unwind$_wrap_std_out_segm_footer$catch$0 00000001800233b8     segment.obj
 0002:0000d3b8       $unwind$_wrap_std_out_segm_footer$catch$4 00000001800233b8     segment.obj
 0002:0000d3b8       $unwind$_wrap_std_out_segm_footer$catch$3 00000001800233b8     segment.obj
 0002:0000d3b8       $unwind$_wrap_std_out_segm_footer$catch$2 00000001800233b8     segment.obj
 0002:0000d3b8       $unwind$_wrap_std_out_segm_footer$catch$5 00000001800233b8     segment.obj
 0002:0000d3b8       $unwind$_wrap_std_out_segm_footer$catch$1 00000001800233b8     segment.obj
 0002:0000d3c8       $unwind$_wrap_set_segm_name 00000001800233c8     segment.obj
 0002:0000d3f0       $tryMap$_wrap_set_segm_name 00000001800233f0     segment.obj
 0002:0000d404       $handlerMap$0$_wrap_set_segm_name 0000000180023404     segment.obj
 0002:0000d480       $ip2state$_wrap_set_segm_name 0000000180023480     segment.obj
 0002:0000d4a8       $unwind$_wrap_set_segm_name$catch$3 00000001800234a8     segment.obj
 0002:0000d4a8       $unwind$_wrap_set_segm_name$catch$5 00000001800234a8     segment.obj
 0002:0000d4a8       $unwind$_wrap_set_segm_name$catch$4 00000001800234a8     segment.obj
 0002:0000d4a8       $unwind$_wrap_set_segm_name$catch$1 00000001800234a8     segment.obj
 0002:0000d4a8       $unwind$_wrap_set_segm_name$catch$2 00000001800234a8     segment.obj
 0002:0000d4a8       $unwind$_wrap_set_segm_name$catch$0 00000001800234a8     segment.obj
 0002:0000d4b8       $unwind$_wrap_get_segm_name 00000001800234b8     segment.obj
 0002:0000d4dc       $tryMap$_wrap_get_segm_name 00000001800234dc     segment.obj
 0002:0000d4f0       $handlerMap$0$_wrap_get_segm_name 00000001800234f0     segment.obj
 0002:0000d568       $ip2state$_wrap_get_segm_name 0000000180023568     segment.obj
 0002:0000d588       $unwind$_wrap_get_segm_name$catch$7 0000000180023588     segment.obj
 0002:0000d588       $unwind$_wrap_get_segm_name$catch$8 0000000180023588     segment.obj
 0002:0000d588       $unwind$_wrap_get_segm_name$catch$3 0000000180023588     segment.obj
 0002:0000d588       $unwind$_wrap_get_segm_name$catch$6 0000000180023588     segment.obj
 0002:0000d588       $unwind$_wrap_get_segm_name$catch$5 0000000180023588     segment.obj
 0002:0000d588       $unwind$_wrap_get_segm_name$catch$4 0000000180023588     segment.obj
 0002:0000d598       $unwind$_wrap_get_visible_segm_name 0000000180023598     segment.obj
 0002:0000d5b8       $stateUnwindMap$_wrap_get_segm_class 00000001800235b8     segment.obj
 0002:0000d5b8       $stateUnwindMap$_wrap_get_visible_segm_name 00000001800235b8     segment.obj
 0002:0000d5d0       $tryMap$_wrap_get_visible_segm_name 00000001800235d0     segment.obj
 0002:0000d5e4       $handlerMap$0$_wrap_get_visible_segm_name 00000001800235e4     segment.obj
 0002:0000d660       $ip2state$_wrap_get_visible_segm_name 0000000180023660     segment.obj
 0002:0000d680       $unwind$_wrap_get_visible_segm_name$catch$8 0000000180023680     segment.obj
 0002:0000d680       $unwind$_wrap_get_visible_segm_name$catch$7 0000000180023680     segment.obj
 0002:0000d680       $unwind$_wrap_get_visible_segm_name$catch$6 0000000180023680     segment.obj
 0002:0000d680       $unwind$_wrap_get_visible_segm_name$catch$5 0000000180023680     segment.obj
 0002:0000d680       $unwind$_wrap_get_visible_segm_name$catch$4 0000000180023680     segment.obj
 0002:0000d680       $unwind$_wrap_get_visible_segm_name$catch$3 0000000180023680     segment.obj
 0002:0000d690       $unwind$_wrap_get_segm_class 0000000180023690     segment.obj
 0002:0000d6b0       $tryMap$_wrap_get_segm_class 00000001800236b0     segment.obj
 0002:0000d6c4       $handlerMap$0$_wrap_get_segm_class 00000001800236c4     segment.obj
 0002:0000d740       $ip2state$_wrap_get_segm_class 0000000180023740     segment.obj
 0002:0000d760       $unwind$_wrap_get_segm_class$catch$7 0000000180023760     segment.obj
 0002:0000d760       $unwind$_wrap_get_segm_class$catch$8 0000000180023760     segment.obj
 0002:0000d760       $unwind$_wrap_get_segm_class$catch$3 0000000180023760     segment.obj
 0002:0000d760       $unwind$_wrap_get_segm_class$catch$6 0000000180023760     segment.obj
 0002:0000d760       $unwind$_wrap_get_segm_class$catch$5 0000000180023760     segment.obj
 0002:0000d760       $unwind$_wrap_get_segm_class$catch$4 0000000180023760     segment.obj
 0002:0000d770       $unwind$_wrap_set_segm_class 0000000180023770     segment.obj
 0002:0000d798       $tryMap$_wrap_set_segm_class 0000000180023798     segment.obj
 0002:0000d7ac       $handlerMap$0$_wrap_set_segm_class 00000001800237ac     segment.obj
 0002:0000d828       $ip2state$_wrap_set_segm_class 0000000180023828     segment.obj
 0002:0000d850       $unwind$_wrap_set_segm_class$catch$2 0000000180023850     segment.obj
 0002:0000d850       $unwind$_wrap_set_segm_class$catch$5 0000000180023850     segment.obj
 0002:0000d850       $unwind$_wrap_set_segm_class$catch$4 0000000180023850     segment.obj
 0002:0000d850       $unwind$_wrap_set_segm_class$catch$3 0000000180023850     segment.obj
 0002:0000d850       $unwind$_wrap_set_segm_class$catch$0 0000000180023850     segment.obj
 0002:0000d850       $unwind$_wrap_set_segm_class$catch$1 0000000180023850     segment.obj
 0002:0000d860       $unwind$_wrap_segtype      0000000180023860     segment.obj
 0002:0000d874       $tryMap$_wrap_segtype      0000000180023874     segment.obj
 0002:0000d888       $handlerMap$0$_wrap_segtype 0000000180023888     segment.obj
 0002:0000d900       $ip2state$_wrap_segtype    0000000180023900     segment.obj
 0002:0000d918       $unwind$_wrap_segtype$catch$2 0000000180023918     segment.obj
 0002:0000d918       $unwind$_wrap_segtype$catch$5 0000000180023918     segment.obj
 0002:0000d918       $unwind$_wrap_segtype$catch$4 0000000180023918     segment.obj
 0002:0000d918       $unwind$_wrap_segtype$catch$3 0000000180023918     segment.obj
 0002:0000d918       $unwind$_wrap_segtype$catch$1 0000000180023918     segment.obj
 0002:0000d918       $unwind$_wrap_segtype$catch$0 0000000180023918     segment.obj
 0002:0000d928       $unwind$_wrap_get_segment_alignment 0000000180023928     segment.obj
 0002:0000d93c       $tryMap$_wrap_get_segment_alignment 000000018002393c     segment.obj
 0002:0000d950       $handlerMap$0$_wrap_get_segment_alignment 0000000180023950     segment.obj
 0002:0000d9c8       $ip2state$_wrap_get_segment_alignment 00000001800239c8     segment.obj
 0002:0000d9e0       $unwind$_wrap_get_segment_alignment$catch$3 00000001800239e0     segment.obj
 0002:0000d9e0       $unwind$_wrap_get_segment_alignment$catch$0 00000001800239e0     segment.obj
 0002:0000d9e0       $unwind$_wrap_get_segment_alignment$catch$2 00000001800239e0     segment.obj
 0002:0000d9e0       $unwind$_wrap_get_segment_alignment$catch$5 00000001800239e0     segment.obj
 0002:0000d9e0       $unwind$_wrap_get_segment_alignment$catch$4 00000001800239e0     segment.obj
 0002:0000d9e0       $unwind$_wrap_get_segment_alignment$catch$1 00000001800239e0     segment.obj
 0002:0000d9f0       $unwind$_wrap_get_segment_combination 00000001800239f0     segment.obj
 0002:0000da04       $tryMap$_wrap_get_segment_combination 0000000180023a04     segment.obj
 0002:0000da18       $handlerMap$0$_wrap_get_segment_combination 0000000180023a18     segment.obj
 0002:0000da90       $ip2state$_wrap_get_segment_combination 0000000180023a90     segment.obj
 0002:0000daa8       $unwind$_wrap_get_segment_combination$catch$5 0000000180023aa8     segment.obj
 0002:0000daa8       $unwind$_wrap_get_segment_combination$catch$1 0000000180023aa8     segment.obj
 0002:0000daa8       $unwind$_wrap_get_segment_combination$catch$0 0000000180023aa8     segment.obj
 0002:0000daa8       $unwind$_wrap_get_segment_combination$catch$2 0000000180023aa8     segment.obj
 0002:0000daa8       $unwind$_wrap_get_segment_combination$catch$3 0000000180023aa8     segment.obj
 0002:0000daa8       $unwind$_wrap_get_segment_combination$catch$4 0000000180023aa8     segment.obj
 0002:0000dab8       $unwind$_wrap_get_segm_para 0000000180023ab8     segment.obj
 0002:0000dad4       $tryMap$_wrap_get_segm_para 0000000180023ad4     segment.obj
 0002:0000dae8       $handlerMap$0$_wrap_get_segm_para 0000000180023ae8     segment.obj
 0002:0000db60       $ip2state$_wrap_get_segm_para 0000000180023b60     segment.obj
 0002:0000db80       $unwind$_wrap_get_segm_para$catch$2 0000000180023b80     segment.obj
 0002:0000db80       $unwind$_wrap_get_segm_para$catch$3 0000000180023b80     segment.obj
 0002:0000db80       $unwind$_wrap_get_segm_para$catch$5 0000000180023b80     segment.obj
 0002:0000db80       $unwind$_wrap_get_segm_para$catch$1 0000000180023b80     segment.obj
 0002:0000db80       $unwind$_wrap_get_segm_para$catch$0 0000000180023b80     segment.obj
 0002:0000db80       $unwind$_wrap_get_segm_para$catch$4 0000000180023b80     segment.obj
 0002:0000db90       $unwind$_wrap_get_segm_base 0000000180023b90     segment.obj
 0002:0000dbac       $tryMap$_wrap_get_segm_base 0000000180023bac     segment.obj
 0002:0000dbc0       $handlerMap$0$_wrap_get_segm_base 0000000180023bc0     segment.obj
 0002:0000dc38       $ip2state$_wrap_get_segm_base 0000000180023c38     segment.obj
 0002:0000dc58       $unwind$_wrap_get_segm_base$catch$3 0000000180023c58     segment.obj
 0002:0000dc58       $unwind$_wrap_get_segm_base$catch$2 0000000180023c58     segment.obj
 0002:0000dc58       $unwind$_wrap_get_segm_base$catch$1 0000000180023c58     segment.obj
 0002:0000dc58       $unwind$_wrap_get_segm_base$catch$0 0000000180023c58     segment.obj
 0002:0000dc58       $unwind$_wrap_get_segm_base$catch$4 0000000180023c58     segment.obj
 0002:0000dc58       $unwind$_wrap_get_segm_base$catch$5 0000000180023c58     segment.obj
 0002:0000dc68       $unwind$_wrap_set_segm_addressing 0000000180023c68     segment.obj
 0002:0000dc88       $tryMap$_wrap_set_segm_addressing 0000000180023c88     segment.obj
 0002:0000dc9c       $handlerMap$0$_wrap_set_segm_addressing 0000000180023c9c     segment.obj
 0002:0000dd18       $ip2state$_wrap_set_segm_addressing 0000000180023d18     segment.obj
 0002:0000dd38       $unwind$_wrap_set_segm_addressing$catch$2 0000000180023d38     segment.obj
 0002:0000dd38       $unwind$_wrap_set_segm_addressing$catch$1 0000000180023d38     segment.obj
 0002:0000dd38       $unwind$_wrap_set_segm_addressing$catch$0 0000000180023d38     segment.obj
 0002:0000dd38       $unwind$_wrap_set_segm_addressing$catch$3 0000000180023d38     segment.obj
 0002:0000dd38       $unwind$_wrap_set_segm_addressing$catch$5 0000000180023d38     segment.obj
 0002:0000dd38       $unwind$_wrap_set_segm_addressing$catch$4 0000000180023d38     segment.obj
 0002:0000dd48       $unwind$_wrap_update_segm  0000000180023d48     segment.obj
 0002:0000dd68       $tryMap$_wrap_update_segm  0000000180023d68     segment.obj
 0002:0000dd7c       $handlerMap$0$_wrap_update_segm 0000000180023d7c     segment.obj
 0002:0000ddf8       $ip2state$_wrap_update_segm 0000000180023df8     segment.obj
 0002:0000de18       $unwind$_wrap_update_segm$catch$0 0000000180023e18     segment.obj
 0002:0000de18       $unwind$_wrap_update_segm$catch$4 0000000180023e18     segment.obj
 0002:0000de18       $unwind$_wrap_update_segm$catch$5 0000000180023e18     segment.obj
 0002:0000de18       $unwind$_wrap_update_segm$catch$3 0000000180023e18     segment.obj
 0002:0000de18       $unwind$_wrap_update_segm$catch$2 0000000180023e18     segment.obj
 0002:0000de18       $unwind$_wrap_update_segm$catch$1 0000000180023e18     segment.obj
 0002:0000de28       $unwind$_wrap_segm_adjust_diff 0000000180023e28     segment.obj
 0002:0000de44       $tryMap$_wrap_segm_adjust_diff 0000000180023e44     segment.obj
 0002:0000de58       $handlerMap$0$_wrap_segm_adjust_diff 0000000180023e58     segment.obj
 0002:0000ded0       $ip2state$_wrap_segm_adjust_diff 0000000180023ed0     segment.obj
 0002:0000def0       $unwind$_wrap_segm_adjust_diff$catch$4 0000000180023ef0     segment.obj
 0002:0000def0       $unwind$_wrap_segm_adjust_diff$catch$1 0000000180023ef0     segment.obj
 0002:0000def0       $unwind$_wrap_segm_adjust_diff$catch$0 0000000180023ef0     segment.obj
 0002:0000def0       $unwind$_wrap_segm_adjust_diff$catch$5 0000000180023ef0     segment.obj
 0002:0000def0       $unwind$_wrap_segm_adjust_diff$catch$2 0000000180023ef0     segment.obj
 0002:0000def0       $unwind$_wrap_segm_adjust_diff$catch$3 0000000180023ef0     segment.obj
 0002:0000df00       $unwind$_wrap_segm_adjust_ea 0000000180023f00     segment.obj
 0002:0000df1c       $tryMap$_wrap_segm_adjust_ea 0000000180023f1c     segment.obj
 0002:0000df30       $handlerMap$0$_wrap_segm_adjust_ea 0000000180023f30     segment.obj
 0002:0000dfa8       $ip2state$_wrap_segm_adjust_ea 0000000180023fa8     segment.obj
 0002:0000dfc8       $unwind$_wrap_segm_adjust_ea$catch$5 0000000180023fc8     segment.obj
 0002:0000dfc8       $unwind$_wrap_segm_adjust_ea$catch$4 0000000180023fc8     segment.obj
 0002:0000dfc8       $unwind$_wrap_segm_adjust_ea$catch$3 0000000180023fc8     segment.obj
 0002:0000dfc8       $unwind$_wrap_segm_adjust_ea$catch$2 0000000180023fc8     segment.obj
 0002:0000dfc8       $unwind$_wrap_segm_adjust_ea$catch$0 0000000180023fc8     segment.obj
 0002:0000dfc8       $unwind$_wrap_segm_adjust_ea$catch$1 0000000180023fc8     segment.obj
 0002:0000dfd8       $unwind$_wrap_get_defsr    0000000180023fd8     segment.obj
 0002:0000dff4       $tryMap$_wrap_get_defsr    0000000180023ff4     segment.obj
 0002:0000e008       $handlerMap$0$_wrap_get_defsr 0000000180024008     segment.obj
 0002:0000e080       $ip2state$_wrap_get_defsr  0000000180024080     segment.obj
 0002:0000e0a0       $unwind$_wrap_get_defsr$catch$3 00000001800240a0     segment.obj
 0002:0000e0a0       $unwind$_wrap_get_defsr$catch$5 00000001800240a0     segment.obj
 0002:0000e0a0       $unwind$_wrap_get_defsr$catch$0 00000001800240a0     segment.obj
 0002:0000e0a0       $unwind$_wrap_get_defsr$catch$1 00000001800240a0     segment.obj
 0002:0000e0a0       $unwind$_wrap_get_defsr$catch$4 00000001800240a0     segment.obj
 0002:0000e0a0       $unwind$_wrap_get_defsr$catch$2 00000001800240a0     segment.obj
 0002:0000e0b0       $unwind$_wrap_set_defsr    00000001800240b0     segment.obj
 0002:0000e0d4       $tryMap$_wrap_set_defsr    00000001800240d4     segment.obj
 0002:0000e0e8       $handlerMap$0$_wrap_set_defsr 00000001800240e8     segment.obj
 0002:0000e160       $ip2state$_wrap_set_defsr  0000000180024160     segment.obj
 0002:0000e180       $unwind$_wrap_set_defsr$catch$3 0000000180024180     segment.obj
 0002:0000e180       $unwind$_wrap_set_defsr$catch$5 0000000180024180     segment.obj
 0002:0000e180       $unwind$_wrap_set_defsr$catch$4 0000000180024180     segment.obj
 0002:0000e180       $unwind$_wrap_set_defsr$catch$0 0000000180024180     segment.obj
 0002:0000e180       $unwind$_wrap_set_defsr$catch$2 0000000180024180     segment.obj
 0002:0000e180       $unwind$_wrap_set_defsr$catch$1 0000000180024180     segment.obj
 0002:0000e190       $unwind$_wrap_rebase_program 0000000180024190     segment.obj
 0002:0000e1a4       $tryMap$_wrap_rebase_program 00000001800241a4     segment.obj
 0002:0000e1b8       $handlerMap$0$_wrap_rebase_program 00000001800241b8     segment.obj
 0002:0000e230       $ip2state$_wrap_rebase_program 0000000180024230     segment.obj
 0002:0000e248       $unwind$_wrap_rebase_program$catch$1 0000000180024248     segment.obj
 0002:0000e248       $unwind$_wrap_rebase_program$catch$5 0000000180024248     segment.obj
 0002:0000e248       $unwind$_wrap_rebase_program$catch$4 0000000180024248     segment.obj
 0002:0000e248       $unwind$_wrap_rebase_program$catch$3 0000000180024248     segment.obj
 0002:0000e248       $unwind$_wrap_rebase_program$catch$2 0000000180024248     segment.obj
 0002:0000e248       $unwind$_wrap_rebase_program$catch$0 0000000180024248     segment.obj
 0002:0000e258       $unwind$SWIG_InitializeModule 0000000180024258     segment.obj
 0002:0000e268       $chain$1$SWIG_InitializeModule 0000000180024268     segment.obj
 0002:0000e27c       $chain$4$SWIG_InitializeModule 000000018002427c     segment.obj
 0002:0000e298       $chain$5$SWIG_InitializeModule 0000000180024298     segment.obj
 0002:0000e2a8       $chain$6$SWIG_InitializeModule 00000001800242a8     segment.obj
 0002:0000e2b8       $unwind$SWIG_Python_FixMethods 00000001800242b8     segment.obj
 0002:0000e2c4       $chain$4$SWIG_Python_FixMethods 00000001800242c4     segment.obj
 0002:0000e2e8       $chain$5$SWIG_Python_FixMethods 00000001800242e8     segment.obj
 0002:0000e2f8       $unwind$PyInit__ida_segment 00000001800242f8     segment.obj
 0002:0000e308       $chain$1$PyInit__ida_segment 0000000180024308     segment.obj
 0002:0000e320       $chain$2$PyInit__ida_segment 0000000180024320     segment.obj
 0002:0000e334       $chain$3$PyInit__ida_segment 0000000180024334     segment.obj
 0002:0000e344       $chain$4$PyInit__ida_segment 0000000180024344     segment.obj
 0002:0000e354       $unwind$?__scrt_initialize_thread_safe_statics@@YAHXZ 0000000180024354     MSVCRT:thread_safe_statics.obj
 0002:0000e36c       $stateUnwindMap$?__scrt_initialize_thread_safe_statics@@YAHXZ 000000018002436c     MSVCRT:thread_safe_statics.obj
 0002:0000e378       $ip2state$?__scrt_initialize_thread_safe_statics@@YAHXZ 0000000180024378     MSVCRT:thread_safe_statics.obj
 0002:0000e380       $unwind$__GSHandlerCheckCommon 0000000180024380     MSVCRT:gshandler.obj
 0002:0000e388       $unwind$__GSHandlerCheck_EH 0000000180024388     MSVCRT:gshandlereh.obj
 0002:0000e3a0       $xdatasym                  00000001800243a0     MSVCRT:amdsecgs.obj
 0002:0000e3a4       $unwind$?dllmain_crt_process_attach@@YAHQEAUHINSTANCE__@@QEAX@Z 00000001800243a4     MSVCRT:dll_dllmain.obj
 0002:0000e3e0       $unwind$?fin$0@?0??dllmain_crt_process_detach@@YAH_N@Z@4HA 00000001800243e0     MSVCRT:dll_dllmain.obj
 0002:0000e3e0       $unwind$?fin$0@?0??dllmain_crt_process_attach@@YAHQEAUHINSTANCE__@@QEAX@Z@4HA 00000001800243e0     MSVCRT:dll_dllmain.obj
 0002:0000e3e8       $unwind$?dllmain_crt_process_detach@@YAH_N@Z 00000001800243e8     MSVCRT:dll_dllmain.obj
 0002:0000e420       $unwind$?dllmain_dispatch@@YAHQEAUHINSTANCE__@@KQEAX@Z 0000000180024420     MSVCRT:dll_dllmain.obj
 0002:0000e448       $unwind$?filt$0@?0??dllmain_dispatch@@YAHQEAUHINSTANCE__@@KQEAX@Z@4HA 0000000180024448     MSVCRT:dll_dllmain.obj
 0002:0000e450       $unwind$__scrt_is_nonwritable_in_current_image 0000000180024450     MSVCRT:utility.obj
 0002:0000e470       $unwind$__scrt_is_nonwritable_in_current_image$filt$0 0000000180024470     MSVCRT:utility.obj
 0002:0000e478       $unwind$__scrt_initialize_onexit_tables 0000000180024478     MSVCRT:utility.obj
 0002:0000e480       $unwind$__scrt_dllmain_exception_filter 0000000180024480     MSVCRT:utility.obj
 0002:0000e494       $unwind$__scrt_fastfail    0000000180024494     MSVCRT:utility_desktop.obj
 0002:0000e4a4       $unwind$__report_gsfailure 00000001800244a4     MSVCRT:gs_report.obj
 0002:0000e4ac       $unwind$capture_previous_context 00000001800244ac     MSVCRT:gs_report.obj
 0002:0000e4b8       $unwind$__security_init_cookie 00000001800244b8     MSVCRT:gs_support.obj
 0002:0000e4c4       $unwind$__isa_available_init 00000001800244c4     MSVCRT:cpu_disp.obj
 0002:0000e4d8       $xdatasym                  00000001800244d8     MSVCRT:guard_dispatch.obj
 0002:0000e5d0       .edata                     00000001800245d0     _ida_segment.exp
 0002:0000e5f8       rgpv                       00000001800245f8     _ida_segment.exp
 0002:0000e5fc       rgszName                   00000001800245fc     _ida_segment.exp
 0002:0000e600       rgwOrd                     0000000180024600     _ida_segment.exp
 0002:0000e602       szName                     0000000180024602     _ida_segment.exp
 0002:0000e613       $N00001                    0000000180024613     _ida_segment.exp
 0002:0000f1b2       .idata$6                   00000001800251b2     ida:ida.dll
 0002:0000f82a       .idata$6                   000000018002582a     python38:python38.dll
 0002:0000f85c       .idata$6                   000000018002585c     python:python.dll
 0002:0000fab4       .idata$6                   0000000180025ab4     kernel32:KERNEL32.dll
 0002:0000fb88       .idata$6                   0000000180025b88     vcruntime:VCRUNTIME140.dll
 0002:0000fcbe       .idata$6                   0000000180025cbe     ucrt:api-ms-win-crt-stdio-l1-1-0.dll
 0002:0000fcde       .idata$6                   0000000180025cde     ucrt:api-ms-win-crt-string-l1-1-0.dll
 0002:0000fd00       .idata$6                   0000000180025d00     ucrt:api-ms-win-crt-heap-l1-1-0.dll
 0002:0000fd20       .idata$6                   0000000180025d20     ucrt:api-ms-win-crt-runtime-l1-1-0.dll
 0003:00000000       SwigMethods                0000000180026000     segment.obj
 0003:00000f20       _swigt__p__qstringT_char_t 0000000180026f20     segment.obj
 0003:00000f50       _swigt__p__qstringT_unsigned_char_t 0000000180026f50     segment.obj
 0003:00000f80       _swigt__p__qstringT_unsigned_short_t 0000000180026f80     segment.obj
 0003:00000fb0       _swigt__p_action_ctx_base_t 0000000180026fb0     segment.obj
 0003:00000fe0       _swigt__p_biggest_t        0000000180026fe0     segment.obj
 0003:00001010       _swigt__p_char             0000000180027010     segment.obj
 0003:00001040       _swigt__p_const_iterator   0000000180027040     segment.obj
 0003:00001070       _swigt__p_f_p_TWidget_int_int_p_void__bool 0000000180027070     segment.obj
 0003:000010a0       _swigt__p_f_p_TWidget_int_p_view_mouse_event_t_p_void__void 00000001800270a0     segment.obj
 0003:000010d0       _swigt__p_f_p_TWidget_int_p_void__bool 00000001800270d0     segment.obj
 0003:00001100       _swigt__p_f_p_TWidget_p_lochist_entry_t_p_void__void 0000000180027100     segment.obj
 0003:00001130       _swigt__p_f_p_TWidget_p_q_const__lochist_entry_t_p_q_const__lochist_entry_t_r_q_const__locchange_md_t_p_void__void 0000000180027130     segment.obj
 0003:00001160       _swigt__p_f_p_TWidget_p_q_const__lochist_entry_t_r_q_const__locchange_md_t_p_void__int 0000000180027160     segment.obj
 0003:00001190       _swigt__p_f_p_TWidget_p_q_const__place_t_int_int_p_void__void 0000000180027190     segment.obj
 0003:000011c0       _swigt__p_f_p_TWidget_p_q_const__place_t_p_int_p_void__int 00000001800271c0     segment.obj
 0003:000011f0       _swigt__p_f_p_TWidget_p_q_const__place_t_p_q_const__place_t_p_void__int 00000001800271f0     segment.obj
 0003:00001220       _swigt__p_f_p_TWidget_p_q_const__place_t_p_unsigned_int_p_void__bool 0000000180027220     segment.obj
 0003:00001250       _swigt__p_f_p_TWidget_p_void__int 0000000180027250     segment.obj
 0003:00001280       _swigt__p_f_p_TWidget_p_void__void 0000000180027280     segment.obj
 0003:000012b0       _swigt__p_f_p_chooser_multi_t_p_sizevec_t__chooser_base_t__cbres_t 00000001800272b0     segment.obj
 0003:000012e0       _swigt__p_f_p_chooser_t_ssize_t__chooser_t__cbret_t 00000001800272e0     segment.obj
 0003:00001310       _swigt__p_f_p_lochist_entry_t_r_q_const__lochist_entry_t_p_TWidget__bool 0000000180027310     segment.obj
 0003:00001340       _swigt__p_f_p_q_const__char_p_void__void 0000000180027340     segment.obj
 0003:00001370       _swigt__p_f_p_q_const__char_r_q_const__tinfo_t_p_q_const__char_p_q_const__unsigned_long_long_p_void__int 0000000180027370     segment.obj
 0003:000013a0       _swigt__p_f_p_q_const__char_v_______int 00000001800273a0     segment.obj
 0003:000013d0       _swigt__p_f_p_void_int_va_list__ssize_t 00000001800273d0     segment.obj
 0003:00001400       _swigt__p_f_r_q_const__insn_t_p_int_p_int__bool 0000000180027400     segment.obj
 0003:00001430       _swigt__p_f_r_q_const__insn_t_r_q_const__op_t_r_q_const__tinfo_t_p_q_const__char__bool 0000000180027430     segment.obj
 0003:00001460       _swigt__p_f_unsigned_int__bool 0000000180027460     segment.obj
 0003:00001490       _swigt__p_f_unsigned_int_p_q_const__char_unsigned_int_p_void__int 0000000180027490     segment.obj
 0003:000014c0       _swigt__p_f_unsigned_int_p_void__bool 00000001800274c0     segment.obj
 0003:000014f0       _swigt__p_f_unsigned_int_r_q_const__tinfo_t_p_void__int 00000001800274f0     segment.obj
 0003:00001520       _swigt__p_f_unsigned_int_unsigned_int__unsigned_int 0000000180027520     segment.obj
 0003:00001550       _swigt__p_int              0000000180027550     segment.obj
 0003:00001580       _swigt__p_iterator         0000000180027580     segment.obj
 0003:000015b0       _swigt__p_location_t       00000001800275b0     segment.obj
 0003:000015e0       _swigt__p_lock_segment     00000001800275e0     segment.obj
 0003:00001610       _swigt__p_long_long        0000000180027610     segment.obj
 0003:00001640       _swigt__p_outctx_t         0000000180027640     segment.obj
 0003:00001670       _swigt__p_qvectorT__qstringT_unsigned_short_t_t 0000000180027670     segment.obj
 0003:000016a0       _swigt__p_qvectorT_argloc_t_t 00000001800276a0     segment.obj
 0003:000016d0       _swigt__p_qvectorT_bool_t  00000001800276d0     segment.obj
 0003:00001700       _swigt__p_qvectorT_channel_redir_t_t 0000000180027700     segment.obj
 0003:00001730       _swigt__p_qvectorT_compiled_binpat_t_t 0000000180027730     segment.obj
 0003:00001760       _swigt__p_qvectorT_funcarg_t_t 0000000180027760     segment.obj
 0003:00001790       _swigt__p_qvectorT_int_t   0000000180027790     segment.obj
 0003:000017c0       _swigt__p_qvectorT_range_t_t 00000001800277c0     segment.obj
 0003:000017f0       _swigt__p_rangevec_t       00000001800277f0     segment.obj
 0003:00001820       _swigt__p_qvectorT_rangeset_t_const_p_t 0000000180027820     segment.obj
 0003:00001850       _swigt__p_qvectorT_rangeset_t_t 0000000180027850     segment.obj
 0003:00001880       _swigt__p_qvectorT_refinfo_desc_t_t 0000000180027880     segment.obj
 0003:000018b0       _swigt__p_qvectorT_simd_info_t_t 00000001800278b0     segment.obj
 0003:000018e0       _swigt__p_qvectorT_simpleline_t_t 00000001800278e0     segment.obj
 0003:00001910       _swigt__p_qvectorT_size_t_t 0000000180027910     segment.obj
 0003:00001940       _swigt__p_qvectorT_tinfo_t_t 0000000180027940     segment.obj
 0003:00001970       _swigt__p_qvectorT_type_attr_t_t 0000000180027970     segment.obj
 0003:000019a0       _swigt__p_qvectorT_udt_member_t_t 00000001800279a0     segment.obj
 0003:000019d0       _swigt__p_qvectorT_unsigned_char_t 00000001800279d0     segment.obj
 0003:00001a00       _swigt__p_relobj_t         0000000180027a00     segment.obj
 0003:00001a30       _swigt__p_bytevec_t        0000000180027a30     segment.obj
 0003:00001a60       _swigt__p_reloc_info_t     0000000180027a60     segment.obj
 0003:00001a90       _swigt__p_qvectorT_unsigned_int_t 0000000180027a90     segment.obj
 0003:00001ac0       _swigt__p_range_t          0000000180027ac0     segment.obj
 0003:00001af0       _swigt__p_segment_t        0000000180027af0     segment.obj
 0003:00001b20       _swigt__p_short            0000000180027b20     segment.obj
 0003:00001b50       _swigt__p_signed_char      0000000180027b50     segment.obj
 0003:00001b80       _swigt__p_unsigned_char    0000000180027b80     segment.obj
 0003:00001bb0       _swigt__p_unsigned_int     0000000180027bb0     segment.obj
 0003:00001be0       _swigt__p_unsigned_long_long 0000000180027be0     segment.obj
 0003:00001c10       _swigt__p_unsigned_short   0000000180027c10     segment.obj
 0003:00001c40       _swigt__p_value_type       0000000180027c40     segment.obj
 0003:00001c70       swig_type_initial          0000000180027c70     segment.obj
 0003:00001eb0       _swigc__p__qstringT_char_t 0000000180027eb0     segment.obj
 0003:00001ef0       _swigc__p__qstringT_unsigned_char_t 0000000180027ef0     segment.obj
 0003:00001f30       _swigc__p__qstringT_unsigned_short_t 0000000180027f30     segment.obj
 0003:00001f70       _swigc__p_action_ctx_base_t 0000000180027f70     segment.obj
 0003:00001fb0       _swigc__p_biggest_t        0000000180027fb0     segment.obj
 0003:00001ff0       _swigc__p_char             0000000180027ff0     segment.obj
 0003:00002030       _swigc__p_const_iterator   0000000180028030     segment.obj
 0003:00002070       _swigc__p_f_p_TWidget_int_int_p_void__bool 0000000180028070     segment.obj
 0003:000020b0       _swigc__p_f_p_TWidget_int_p_view_mouse_event_t_p_void__void 00000001800280b0     segment.obj
 0003:000020f0       _swigc__p_f_p_TWidget_int_p_void__bool 00000001800280f0     segment.obj
 0003:00002130       _swigc__p_f_p_TWidget_p_lochist_entry_t_p_void__void 0000000180028130     segment.obj
 0003:00002170       _swigc__p_f_p_TWidget_p_q_const__lochist_entry_t_p_q_const__lochist_entry_t_r_q_const__locchange_md_t_p_void__void 0000000180028170     segment.obj
 0003:000021b0       _swigc__p_f_p_TWidget_p_q_const__lochist_entry_t_r_q_const__locchange_md_t_p_void__int 00000001800281b0     segment.obj
 0003:000021f0       _swigc__p_f_p_TWidget_p_q_const__place_t_int_int_p_void__void 00000001800281f0     segment.obj
 0003:00002230       _swigc__p_f_p_TWidget_p_q_const__place_t_p_int_p_void__int 0000000180028230     segment.obj
 0003:00002270       _swigc__p_f_p_TWidget_p_q_const__place_t_p_q_const__place_t_p_void__int 0000000180028270     segment.obj
 0003:000022b0       _swigc__p_f_p_TWidget_p_q_const__place_t_p_unsigned_int_p_void__bool 00000001800282b0     segment.obj
 0003:000022f0       _swigc__p_f_p_TWidget_p_void__int 00000001800282f0     segment.obj
 0003:00002330       _swigc__p_f_p_TWidget_p_void__void 0000000180028330     segment.obj
 0003:00002370       _swigc__p_f_p_chooser_multi_t_p_sizevec_t__chooser_base_t__cbres_t 0000000180028370     segment.obj
 0003:000023b0       _swigc__p_f_p_chooser_t_ssize_t__chooser_t__cbret_t 00000001800283b0     segment.obj
 0003:000023f0       _swigc__p_f_p_lochist_entry_t_r_q_const__lochist_entry_t_p_TWidget__bool 00000001800283f0     segment.obj
 0003:00002430       _swigc__p_f_p_q_const__char_p_void__void 0000000180028430     segment.obj
 0003:00002470       _swigc__p_f_p_q_const__char_r_q_const__tinfo_t_p_q_const__char_p_q_const__unsigned_long_long_p_void__int 0000000180028470     segment.obj
 0003:000024b0       _swigc__p_f_p_q_const__char_v_______int 00000001800284b0     segment.obj
 0003:000024f0       _swigc__p_f_p_void_int_va_list__ssize_t 00000001800284f0     segment.obj
 0003:00002530       _swigc__p_f_r_q_const__insn_t_p_int_p_int__bool 0000000180028530     segment.obj
 0003:00002570       _swigc__p_f_r_q_const__insn_t_r_q_const__op_t_r_q_const__tinfo_t_p_q_const__char__bool 0000000180028570     segment.obj
 0003:000025b0       _swigc__p_f_unsigned_int__bool 00000001800285b0     segment.obj
 0003:000025f0       _swigc__p_f_unsigned_int_p_q_const__char_unsigned_int_p_void__int 00000001800285f0     segment.obj
 0003:00002630       _swigc__p_f_unsigned_int_p_void__bool 0000000180028630     segment.obj
 0003:00002670       _swigc__p_f_unsigned_int_r_q_const__tinfo_t_p_void__int 0000000180028670     segment.obj
 0003:000026b0       _swigc__p_f_unsigned_int_unsigned_int__unsigned_int 00000001800286b0     segment.obj
 0003:000026f0       _swigc__p_int              00000001800286f0     segment.obj
 0003:00002730       _swigc__p_iterator         0000000180028730     segment.obj
 0003:00002770       _swigc__p_location_t       0000000180028770     segment.obj
 0003:000027b0       _swigc__p_lock_segment     00000001800287b0     segment.obj
 0003:000027f0       _swigc__p_long_long        00000001800287f0     segment.obj
 0003:00002830       _swigc__p_outctx_t         0000000180028830     segment.obj
 0003:00002870       _swigc__p_qvectorT__qstringT_unsigned_short_t_t 0000000180028870     segment.obj
 0003:000028b0       _swigc__p_qvectorT_argloc_t_t 00000001800288b0     segment.obj
 0003:000028f0       _swigc__p_qvectorT_bool_t  00000001800288f0     segment.obj
 0003:00002930       _swigc__p_qvectorT_channel_redir_t_t 0000000180028930     segment.obj
 0003:00002970       _swigc__p_qvectorT_compiled_binpat_t_t 0000000180028970     segment.obj
 0003:000029b0       _swigc__p_qvectorT_funcarg_t_t 00000001800289b0     segment.obj
 0003:000029f0       _swigc__p_qvectorT_int_t   00000001800289f0     segment.obj
 0003:00002a30       _swigc__p_rangevec_t       0000000180028a30     segment.obj
 0003:00002a70       _swigc__p_qvectorT_range_t_t 0000000180028a70     segment.obj
 0003:00002ad0       _swigc__p_qvectorT_rangeset_t_const_p_t 0000000180028ad0     segment.obj
 0003:00002b10       _swigc__p_qvectorT_rangeset_t_t 0000000180028b10     segment.obj
 0003:00002b50       _swigc__p_qvectorT_refinfo_desc_t_t 0000000180028b50     segment.obj
 0003:00002b90       _swigc__p_qvectorT_simd_info_t_t 0000000180028b90     segment.obj
 0003:00002bd0       _swigc__p_qvectorT_simpleline_t_t 0000000180028bd0     segment.obj
 0003:00002c10       _swigc__p_qvectorT_size_t_t 0000000180028c10     segment.obj
 0003:00002c50       _swigc__p_qvectorT_tinfo_t_t 0000000180028c50     segment.obj
 0003:00002c90       _swigc__p_qvectorT_type_attr_t_t 0000000180028c90     segment.obj
 0003:00002cd0       _swigc__p_qvectorT_udt_member_t_t 0000000180028cd0     segment.obj
 0003:00002d10       _swigc__p_relobj_t         0000000180028d10     segment.obj
 0003:00002d50       _swigc__p_bytevec_t        0000000180028d50     segment.obj
 0003:00002d90       _swigc__p_reloc_info_t     0000000180028d90     segment.obj
 0003:00002dd0       _swigc__p_qvectorT_unsigned_char_t 0000000180028dd0     segment.obj
 0003:00002e70       _swigc__p_qvectorT_unsigned_int_t 0000000180028e70     segment.obj
 0003:00002eb0       _swigc__p_range_t          0000000180028eb0     segment.obj
 0003:00002f10       _swigc__p_segment_t        0000000180028f10     segment.obj
 0003:00002f50       _swigc__p_short            0000000180028f50     segment.obj
 0003:00002f90       _swigc__p_signed_char      0000000180028f90     segment.obj
 0003:00002fd0       _swigc__p_unsigned_char    0000000180028fd0     segment.obj
 0003:00003010       _swigc__p_unsigned_int     0000000180029010     segment.obj
 0003:00003050       _swigc__p_unsigned_long_long 0000000180029050     segment.obj
 0003:00003090       _swigc__p_unsigned_short   0000000180029090     segment.obj
 0003:000030d0       _swigc__p_value_type       00000001800290d0     segment.obj
 0003:00003110       swig_cast_initial          0000000180029110     segment.obj
 0003:00003348       ?swig_module@@3Uswig_module_info@@A 0000000180029348     segment.obj
 0003:00003380       swigobject_methods         0000000180029380     segment.obj
 0003:00003460       ?swigobject_doc@?1??SwigPyObject_TypeOnce@@9@4PADA 0000000180029460     segment.obj
 0003:00003490       ?swigpacked_doc@?1??SwigPyPacked_TypeOnce@@9@4PADA 0000000180029490     segment.obj
 0003:000034c0       ?SWIG_module@?1??PyInit__ida_segment@@9@4UPyModuleDef@@A 00000001800294c0     segment.obj
 0003:00003690       swig_const_table           0000000180029690     segment.obj
 0003:000036f0       ?swig_types@@3PAPEAUswig_type_info@@A 00000001800296f0     segment.obj
 0003:00003930       Swig_This_global           0000000180029930     segment.obj
 0003:00003940       ?type@?1??SwigPyObject_type@@9@4PEAU_typeobject@@EA 0000000180029940     segment.obj
 0003:00003948       ?$TSS0@?1??SwigPyObject_type@@9@4HA 0000000180029948     segment.obj
 0003:00003950       ?type@?1??SwigPyPacked_type@@9@4PEAU_typeobject@@EA 0000000180029950     segment.obj
 0003:00003958       ?$TSS0@?1??SwigPyPacked_type@@9@4HA 0000000180029958     segment.obj
 0003:00003960       ?type_pointer@?1??SWIG_Python_GetModule@@9@4PEAXEA 0000000180029960     segment.obj
 0003:00003968       ?cache@?1??SWIG_Python_TypeCache@@9@4PEAU_object@@EA 0000000180029968     segment.obj
 0003:00003970       ?$TSS0@?1??SWIG_Python_TypeCache@@9@4HA 0000000180029970     segment.obj
 0003:00003974       ?init@?1??SWIG_pchar_descriptor@@YAPEAUswig_type_info@@XZ@4HA 0000000180029974     segment.obj
 0003:00003978       ?info@?1??SWIG_pchar_descriptor@@YAPEAUswig_type_info@@XZ@4PEAU2@EA 0000000180029978     segment.obj
 0003:00003980       ?_Tss_mutex@@3U_RTL_CRITICAL_SECTION@@A 0000000180029980     MSVCRT:thread_safe_statics.obj
 0003:000039a8       ?_Tss_cv@@3U_RTL_CONDITION_VARIABLE@@A 00000001800299a8     MSVCRT:thread_safe_statics.obj
 0003:000039b0       ?_Tss_event@@3PEAXEA       00000001800299b0     MSVCRT:thread_safe_statics.obj
 0003:000039b8       ?encoded_sleep_condition_variable_cs@@3P6AHPEAU_RTL_CONDITION_VARIABLE@@PEAU_RTL_CRITICAL_SECTION@@K@ZEA 00000001800299b8     MSVCRT:thread_safe_statics.obj
 0003:000039c0       ?encoded_wake_all_condition_variable@@3P6AXPEAU_RTL_CONDITION_VARIABLE@@@ZEA 00000001800299c0     MSVCRT:thread_safe_statics.obj
 0003:000039cc       ?__proc_attached@@3HA      00000001800299cc     MSVCRT:dll_dllmain.obj
 0003:000039e0       ?is_initialized_as_dll@@3_NA 00000001800299e0     MSVCRT:utility.obj
 0003:000039e1       ?module_local_atexit_table_initialized@@3_NA 00000001800299e1     MSVCRT:utility.obj
 0003:000039e8       ?module_local_atexit_table@@3U_onexit_table_t@@A 00000001800299e8     MSVCRT:utility.obj
 0003:00003a00       ?module_local_at_quick_exit_table@@3U_onexit_table_t@@A 0000000180029a00     MSVCRT:utility.obj
 0003:00003a20       GS_ExceptionRecord         0000000180029a20     MSVCRT:gs_report.obj
 0003:00003ac0       GS_ContextRecord           0000000180029ac0     MSVCRT:gs_report.obj
 0004:00000000       $pdata$printf              000000018002a000     segment.obj
 0004:0000000c       $pdata$SWIG_TypeClientData 000000018002a00c     segment.obj
 0004:00000018       $pdata$SWIG_MangledTypeQueryModule 000000018002a018     segment.obj
 0004:00000024       $pdata$?SWIG_Python_AppendOutput@@YAPEAU_object@@PEAU1@0@Z 000000018002a024     segment.obj
 0004:00000030       $pdata$0$?SWIG_Python_AppendOutput@@YAPEAU_object@@PEAU1@0@Z 000000018002a030     segment.obj
 0004:0000003c       $pdata$1$?SWIG_Python_AppendOutput@@YAPEAU_object@@PEAU1@0@Z 000000018002a03c     segment.obj
 0004:00000048       $pdata$?SWIG_Python_UnpackTuple@@YA_JPEAU_object@@PEBD_J2PEAPEAU1@@Z 000000018002a048     segment.obj
 0004:00000054       $pdata$0$?SWIG_Python_UnpackTuple@@YA_JPEAU_object@@PEBD_J2PEAPEAU1@@Z 000000018002a054     segment.obj
 0004:00000060       $pdata$1$?SWIG_Python_UnpackTuple@@YA_JPEAU_object@@PEBD_J2PEAPEAU1@@Z 000000018002a060     segment.obj
 0004:0000006c       $pdata$SwigPyClientData_New 000000018002a06c     segment.obj
 0004:00000078       $pdata$2$SwigPyClientData_New 000000018002a078     segment.obj
 0004:00000084       $pdata$3$SwigPyClientData_New 000000018002a084     segment.obj
 0004:00000090       $pdata$SwigPyObject_repr   000000018002a090     segment.obj
 0004:0000009c       $pdata$0$SwigPyObject_repr 000000018002a09c     segment.obj
 0004:000000a8       $pdata$1$SwigPyObject_repr 000000018002a0a8     segment.obj
 0004:000000b4       $pdata$SwigPyObject_type   000000018002a0b4     segment.obj
 0004:000000c0       $pdata$SwigPyObject_Check  000000018002a0c0     segment.obj
 0004:000000cc       $pdata$SwigPyObject_New    000000018002a0cc     segment.obj
 0004:000000d8       $pdata$SwigPyObject_dealloc 000000018002a0d8     segment.obj
 0004:000000e4       $pdata$2$SwigPyObject_dealloc 000000018002a0e4     segment.obj
 0004:000000f0       $pdata$3$SwigPyObject_dealloc 000000018002a0f0     segment.obj
 0004:000000fc       $pdata$SwigPyObject_append 000000018002a0fc     segment.obj
 0004:00000108       $pdata$SwigPyObject_own    000000018002a108     segment.obj
 0004:00000114       $pdata$0$SwigPyObject_own  000000018002a114     segment.obj
 0004:00000120       $pdata$2$SwigPyObject_own  000000018002a120     segment.obj
 0004:0000012c       $pdata$SwigPyPacked_repr   000000018002a12c     segment.obj
 0004:00000138       $pdata$0$SwigPyPacked_repr 000000018002a138     segment.obj
 0004:00000144       $pdata$1$SwigPyPacked_repr 000000018002a144     segment.obj
 0004:00000150       $pdata$SwigPyPacked_str    000000018002a150     segment.obj
 0004:0000015c       $pdata$0$SwigPyPacked_str  000000018002a15c     segment.obj
 0004:00000168       $pdata$1$SwigPyPacked_str  000000018002a168     segment.obj
 0004:00000174       $pdata$SwigPyPacked_type   000000018002a174     segment.obj
 0004:00000180       $pdata$SwigPyPacked_Check  000000018002a180     segment.obj
 0004:0000018c       $pdata$SwigPyPacked_dealloc 000000018002a18c     segment.obj
 0004:00000198       $pdata$SWIG_This           000000018002a198     segment.obj
 0004:000001a4       $pdata$SWIG_Python_GetSwigThis 000000018002a1a4     segment.obj
 0004:000001b0       $pdata$SWIG_Python_InitShadowInstance 000000018002a1b0     segment.obj
 0004:000001bc       $pdata$SWIG_Python_NewPointerObj 000000018002a1bc     segment.obj
 0004:000001c8       $pdata$SWIG_Python_DestroyModule 000000018002a1c8     segment.obj
 0004:000001d4       $pdata$2$SWIG_Python_DestroyModule 000000018002a1d4     segment.obj
 0004:000001e0       $pdata$3$SWIG_Python_DestroyModule 000000018002a1e0     segment.obj
 0004:000001ec       $pdata$4$SWIG_Python_DestroyModule 000000018002a1ec     segment.obj
 0004:000001f8       $pdata$5$SWIG_Python_DestroyModule 000000018002a1f8     segment.obj
 0004:00000204       $pdata$SWIG_Python_TypeCache 000000018002a204     segment.obj
 0004:00000210       $pdata$SWIG_Python_TypeQuery 000000018002a210     segment.obj
 0004:0000021c       $pdata$1$SWIG_Python_TypeQuery 000000018002a21c     segment.obj
 0004:00000228       $pdata$5$SWIG_Python_TypeQuery 000000018002a228     segment.obj
 0004:00000234       $pdata$6$SWIG_Python_TypeQuery 000000018002a234     segment.obj
 0004:00000240       $pdata$7$SWIG_Python_TypeQuery 000000018002a240     segment.obj
 0004:0000024c       $pdata$?sprnt@?$_qstring@D@@QEAAAEAV1@PEBDZZ 000000018002a24c     segment.obj
 0004:00000258       $pdata$?__raise_e@@YAXAEBVexception@std@@@Z 000000018002a258     segment.obj
 0004:00000264       $pdata$?__raise_ie@@YAXAEBUinterr_exc_t@@@Z 000000018002a264     segment.obj
 0004:00000270       $pdata$?SWIG_FromCharPtr@@YAPEAU_object@@PEBD@Z 000000018002a270     segment.obj
 0004:0000027c       $pdata$_wrap_new_segment_t 000000018002a27c     segment.obj
 0004:00000288       $pdata$_wrap_new_segment_t$catch$1 000000018002a288     segment.obj
 0004:00000294       $pdata$_wrap_new_segment_t$catch$2 000000018002a294     segment.obj
 0004:000002a0       $pdata$_wrap_new_segment_t$catch$3 000000018002a2a0     segment.obj
 0004:000002ac       $pdata$_wrap_new_segment_t$catch$4 000000018002a2ac     segment.obj
 0004:000002b8       $pdata$_wrap_new_segment_t$catch$5 000000018002a2b8     segment.obj
 0004:000002c4       $pdata$_wrap_new_segment_t$catch$6 000000018002a2c4     segment.obj
 0004:000002d0       $pdata$_wrap_segment_t_name_set 000000018002a2d0     segment.obj
 0004:000002dc       $pdata$0$_wrap_segment_t_name_set 000000018002a2dc     segment.obj
 0004:000002e8       $pdata$1$_wrap_segment_t_name_set 000000018002a2e8     segment.obj
 0004:000002f4       $pdata$_wrap_segment_t_name_get 000000018002a2f4     segment.obj
 0004:00000300       $pdata$0$_wrap_segment_t_name_get 000000018002a300     segment.obj
 0004:0000030c       $pdata$1$_wrap_segment_t_name_get 000000018002a30c     segment.obj
 0004:00000318       $pdata$_wrap_segment_t_sclass_set 000000018002a318     segment.obj
 0004:00000324       $pdata$0$_wrap_segment_t_sclass_set 000000018002a324     segment.obj
 0004:00000330       $pdata$1$_wrap_segment_t_sclass_set 000000018002a330     segment.obj
 0004:0000033c       $pdata$_wrap_segment_t_sclass_get 000000018002a33c     segment.obj
 0004:00000348       $pdata$0$_wrap_segment_t_sclass_get 000000018002a348     segment.obj
 0004:00000354       $pdata$1$_wrap_segment_t_sclass_get 000000018002a354     segment.obj
 0004:00000360       $pdata$_wrap_segment_t_orgbase_set 000000018002a360     segment.obj
 0004:0000036c       $pdata$0$_wrap_segment_t_orgbase_set 000000018002a36c     segment.obj
 0004:00000378       $pdata$1$_wrap_segment_t_orgbase_set 000000018002a378     segment.obj
 0004:00000384       $pdata$_wrap_segment_t_orgbase_get 000000018002a384     segment.obj
 0004:00000390       $pdata$0$_wrap_segment_t_orgbase_get 000000018002a390     segment.obj
 0004:0000039c       $pdata$1$_wrap_segment_t_orgbase_get 000000018002a39c     segment.obj
 0004:000003a8       $pdata$_wrap_segment_t_align_set 000000018002a3a8     segment.obj
 0004:000003b4       $pdata$0$_wrap_segment_t_align_set 000000018002a3b4     segment.obj
 0004:000003c0       $pdata$1$_wrap_segment_t_align_set 000000018002a3c0     segment.obj
 0004:000003cc       $pdata$_wrap_segment_t_align_get 000000018002a3cc     segment.obj
 0004:000003d8       $pdata$0$_wrap_segment_t_align_get 000000018002a3d8     segment.obj
 0004:000003e4       $pdata$1$_wrap_segment_t_align_get 000000018002a3e4     segment.obj
 0004:000003f0       $pdata$_wrap_segment_t_comb_set 000000018002a3f0     segment.obj
 0004:000003fc       $pdata$0$_wrap_segment_t_comb_set 000000018002a3fc     segment.obj
 0004:00000408       $pdata$1$_wrap_segment_t_comb_set 000000018002a408     segment.obj
 0004:00000414       $pdata$_wrap_segment_t_comb_get 000000018002a414     segment.obj
 0004:00000420       $pdata$0$_wrap_segment_t_comb_get 000000018002a420     segment.obj
 0004:0000042c       $pdata$1$_wrap_segment_t_comb_get 000000018002a42c     segment.obj
 0004:00000438       $pdata$_wrap_segment_t_perm_set 000000018002a438     segment.obj
 0004:00000444       $pdata$0$_wrap_segment_t_perm_set 000000018002a444     segment.obj
 0004:00000450       $pdata$1$_wrap_segment_t_perm_set 000000018002a450     segment.obj
 0004:0000045c       $pdata$_wrap_segment_t_perm_get 000000018002a45c     segment.obj
 0004:00000468       $pdata$0$_wrap_segment_t_perm_get 000000018002a468     segment.obj
 0004:00000474       $pdata$1$_wrap_segment_t_perm_get 000000018002a474     segment.obj
 0004:00000480       $pdata$_wrap_segment_t_bitness_set 000000018002a480     segment.obj
 0004:0000048c       $pdata$0$_wrap_segment_t_bitness_set 000000018002a48c     segment.obj
 0004:00000498       $pdata$1$_wrap_segment_t_bitness_set 000000018002a498     segment.obj
 0004:000004a4       $pdata$_wrap_segment_t_bitness_get 000000018002a4a4     segment.obj
 0004:000004b0       $pdata$0$_wrap_segment_t_bitness_get 000000018002a4b0     segment.obj
 0004:000004bc       $pdata$1$_wrap_segment_t_bitness_get 000000018002a4bc     segment.obj
 0004:000004c8       $pdata$_wrap_segment_t_use32 000000018002a4c8     segment.obj
 0004:000004d4       $pdata$_wrap_segment_t_use32$catch$5 000000018002a4d4     segment.obj
 0004:000004e0       $pdata$_wrap_segment_t_use32$catch$4 000000018002a4e0     segment.obj
 0004:000004ec       $pdata$_wrap_segment_t_use32$catch$3 000000018002a4ec     segment.obj
 0004:000004f8       $pdata$_wrap_segment_t_use32$catch$2 000000018002a4f8     segment.obj
 0004:00000504       $pdata$_wrap_segment_t_use32$catch$1 000000018002a504     segment.obj
 0004:00000510       $pdata$_wrap_segment_t_use32$catch$0 000000018002a510     segment.obj
 0004:0000051c       $pdata$_wrap_segment_t_use64 000000018002a51c     segment.obj
 0004:00000528       $pdata$_wrap_segment_t_use64$catch$5 000000018002a528     segment.obj
 0004:00000534       $pdata$_wrap_segment_t_use64$catch$4 000000018002a534     segment.obj
 0004:00000540       $pdata$_wrap_segment_t_use64$catch$3 000000018002a540     segment.obj
 0004:0000054c       $pdata$_wrap_segment_t_use64$catch$2 000000018002a54c     segment.obj
 0004:00000558       $pdata$_wrap_segment_t_use64$catch$1 000000018002a558     segment.obj
 0004:00000564       $pdata$_wrap_segment_t_use64$catch$0 000000018002a564     segment.obj
 0004:00000570       $pdata$_wrap_segment_t_abits 000000018002a570     segment.obj
 0004:0000057c       $pdata$_wrap_segment_t_abits$catch$5 000000018002a57c     segment.obj
 0004:00000588       $pdata$_wrap_segment_t_abits$catch$4 000000018002a588     segment.obj
 0004:00000594       $pdata$_wrap_segment_t_abits$catch$3 000000018002a594     segment.obj
 0004:000005a0       $pdata$_wrap_segment_t_abits$catch$2 000000018002a5a0     segment.obj
 0004:000005ac       $pdata$_wrap_segment_t_abits$catch$1 000000018002a5ac     segment.obj
 0004:000005b8       $pdata$_wrap_segment_t_abits$catch$0 000000018002a5b8     segment.obj
 0004:000005c4       $pdata$_wrap_segment_t_abytes 000000018002a5c4     segment.obj
 0004:000005d0       $pdata$_wrap_segment_t_abytes$catch$5 000000018002a5d0     segment.obj
 0004:000005dc       $pdata$_wrap_segment_t_abytes$catch$4 000000018002a5dc     segment.obj
 0004:000005e8       $pdata$_wrap_segment_t_abytes$catch$3 000000018002a5e8     segment.obj
 0004:000005f4       $pdata$_wrap_segment_t_abytes$catch$2 000000018002a5f4     segment.obj
 0004:00000600       $pdata$_wrap_segment_t_abytes$catch$1 000000018002a600     segment.obj
 0004:0000060c       $pdata$_wrap_segment_t_abytes$catch$0 000000018002a60c     segment.obj
 0004:00000618       $pdata$_wrap_segment_t_flags_set 000000018002a618     segment.obj
 0004:00000624       $pdata$0$_wrap_segment_t_flags_set 000000018002a624     segment.obj
 0004:00000630       $pdata$1$_wrap_segment_t_flags_set 000000018002a630     segment.obj
 0004:0000063c       $pdata$_wrap_segment_t_flags_get 000000018002a63c     segment.obj
 0004:00000648       $pdata$0$_wrap_segment_t_flags_get 000000018002a648     segment.obj
 0004:00000654       $pdata$1$_wrap_segment_t_flags_get 000000018002a654     segment.obj
 0004:00000660       $pdata$_wrap_segment_t_comorg 000000018002a660     segment.obj
 0004:0000066c       $pdata$_wrap_segment_t_comorg$catch$5 000000018002a66c     segment.obj
 0004:00000678       $pdata$_wrap_segment_t_comorg$catch$4 000000018002a678     segment.obj
 0004:00000684       $pdata$_wrap_segment_t_comorg$catch$3 000000018002a684     segment.obj
 0004:00000690       $pdata$_wrap_segment_t_comorg$catch$2 000000018002a690     segment.obj
 0004:0000069c       $pdata$_wrap_segment_t_comorg$catch$1 000000018002a69c     segment.obj
 0004:000006a8       $pdata$_wrap_segment_t_comorg$catch$0 000000018002a6a8     segment.obj
 0004:000006b4       $pdata$_wrap_segment_t_set_comorg 000000018002a6b4     segment.obj
 0004:000006c0       $pdata$_wrap_segment_t_set_comorg$catch$5 000000018002a6c0     segment.obj
 0004:000006cc       $pdata$_wrap_segment_t_set_comorg$catch$4 000000018002a6cc     segment.obj
 0004:000006d8       $pdata$_wrap_segment_t_set_comorg$catch$3 000000018002a6d8     segment.obj
 0004:000006e4       $pdata$_wrap_segment_t_set_comorg$catch$2 000000018002a6e4     segment.obj
 0004:000006f0       $pdata$_wrap_segment_t_set_comorg$catch$1 000000018002a6f0     segment.obj
 0004:000006fc       $pdata$_wrap_segment_t_set_comorg$catch$0 000000018002a6fc     segment.obj
 0004:00000708       $pdata$_wrap_segment_t_clr_comorg 000000018002a708     segment.obj
 0004:00000714       $pdata$_wrap_segment_t_clr_comorg$catch$5 000000018002a714     segment.obj
 0004:00000720       $pdata$_wrap_segment_t_clr_comorg$catch$4 000000018002a720     segment.obj
 0004:0000072c       $pdata$_wrap_segment_t_clr_comorg$catch$3 000000018002a72c     segment.obj
 0004:00000738       $pdata$_wrap_segment_t_clr_comorg$catch$2 000000018002a738     segment.obj
 0004:00000744       $pdata$_wrap_segment_t_clr_comorg$catch$1 000000018002a744     segment.obj
 0004:00000750       $pdata$_wrap_segment_t_clr_comorg$catch$0 000000018002a750     segment.obj
 0004:0000075c       $pdata$_wrap_segment_t_ob_ok 000000018002a75c     segment.obj
 0004:00000768       $pdata$_wrap_segment_t_ob_ok$catch$5 000000018002a768     segment.obj
 0004:00000774       $pdata$_wrap_segment_t_ob_ok$catch$4 000000018002a774     segment.obj
 0004:00000780       $pdata$_wrap_segment_t_ob_ok$catch$3 000000018002a780     segment.obj
 0004:0000078c       $pdata$_wrap_segment_t_ob_ok$catch$2 000000018002a78c     segment.obj
 0004:00000798       $pdata$_wrap_segment_t_ob_ok$catch$1 000000018002a798     segment.obj
 0004:000007a4       $pdata$_wrap_segment_t_ob_ok$catch$0 000000018002a7a4     segment.obj
 0004:000007b0       $pdata$_wrap_segment_t_set_ob_ok 000000018002a7b0     segment.obj
 0004:000007bc       $pdata$_wrap_segment_t_set_ob_ok$catch$5 000000018002a7bc     segment.obj
 0004:000007c8       $pdata$_wrap_segment_t_set_ob_ok$catch$4 000000018002a7c8     segment.obj
 0004:000007d4       $pdata$_wrap_segment_t_set_ob_ok$catch$3 000000018002a7d4     segment.obj
 0004:000007e0       $pdata$_wrap_segment_t_set_ob_ok$catch$2 000000018002a7e0     segment.obj
 0004:000007ec       $pdata$_wrap_segment_t_set_ob_ok$catch$1 000000018002a7ec     segment.obj
 0004:000007f8       $pdata$_wrap_segment_t_set_ob_ok$catch$0 000000018002a7f8     segment.obj
 0004:00000804       $pdata$_wrap_segment_t_clr_ob_ok 000000018002a804     segment.obj
 0004:00000810       $pdata$_wrap_segment_t_clr_ob_ok$catch$5 000000018002a810     segment.obj
 0004:0000081c       $pdata$_wrap_segment_t_clr_ob_ok$catch$4 000000018002a81c     segment.obj
 0004:00000828       $pdata$_wrap_segment_t_clr_ob_ok$catch$3 000000018002a828     segment.obj
 0004:00000834       $pdata$_wrap_segment_t_clr_ob_ok$catch$2 000000018002a834     segment.obj
 0004:00000840       $pdata$_wrap_segment_t_clr_ob_ok$catch$1 000000018002a840     segment.obj
 0004:0000084c       $pdata$_wrap_segment_t_clr_ob_ok$catch$0 000000018002a84c     segment.obj
 0004:00000858       $pdata$_wrap_segment_t_is_visible_segm 000000018002a858     segment.obj
 0004:00000864       $pdata$_wrap_segment_t_is_visible_segm$catch$5 000000018002a864     segment.obj
 0004:00000870       $pdata$_wrap_segment_t_is_visible_segm$catch$4 000000018002a870     segment.obj
 0004:0000087c       $pdata$_wrap_segment_t_is_visible_segm$catch$3 000000018002a87c     segment.obj
 0004:00000888       $pdata$_wrap_segment_t_is_visible_segm$catch$2 000000018002a888     segment.obj
 0004:00000894       $pdata$_wrap_segment_t_is_visible_segm$catch$1 000000018002a894     segment.obj
 0004:000008a0       $pdata$_wrap_segment_t_is_visible_segm$catch$0 000000018002a8a0     segment.obj
 0004:000008ac       $pdata$_wrap_segment_t_set_visible_segm 000000018002a8ac     segment.obj
 0004:000008b8       $pdata$_wrap_segment_t_set_visible_segm$catch$5 000000018002a8b8     segment.obj
 0004:000008c4       $pdata$_wrap_segment_t_set_visible_segm$catch$4 000000018002a8c4     segment.obj
 0004:000008d0       $pdata$_wrap_segment_t_set_visible_segm$catch$3 000000018002a8d0     segment.obj
 0004:000008dc       $pdata$_wrap_segment_t_set_visible_segm$catch$2 000000018002a8dc     segment.obj
 0004:000008e8       $pdata$_wrap_segment_t_set_visible_segm$catch$1 000000018002a8e8     segment.obj
 0004:000008f4       $pdata$_wrap_segment_t_set_visible_segm$catch$0 000000018002a8f4     segment.obj
 0004:00000900       $pdata$_wrap_segment_t_set_debugger_segm 000000018002a900     segment.obj
 0004:0000090c       $pdata$_wrap_segment_t_set_debugger_segm$catch$5 000000018002a90c     segment.obj
 0004:00000918       $pdata$_wrap_segment_t_set_debugger_segm$catch$4 000000018002a918     segment.obj
 0004:00000924       $pdata$_wrap_segment_t_set_debugger_segm$catch$3 000000018002a924     segment.obj
 0004:00000930       $pdata$_wrap_segment_t_set_debugger_segm$catch$2 000000018002a930     segment.obj
 0004:0000093c       $pdata$_wrap_segment_t_set_debugger_segm$catch$1 000000018002a93c     segment.obj
 0004:00000948       $pdata$_wrap_segment_t_set_debugger_segm$catch$0 000000018002a948     segment.obj
 0004:00000954       $pdata$_wrap_segment_t_is_loader_segm 000000018002a954     segment.obj
 0004:00000960       $pdata$_wrap_segment_t_is_loader_segm$catch$5 000000018002a960     segment.obj
 0004:0000096c       $pdata$_wrap_segment_t_is_loader_segm$catch$4 000000018002a96c     segment.obj
 0004:00000978       $pdata$_wrap_segment_t_is_loader_segm$catch$3 000000018002a978     segment.obj
 0004:00000984       $pdata$_wrap_segment_t_is_loader_segm$catch$2 000000018002a984     segment.obj
 0004:00000990       $pdata$_wrap_segment_t_is_loader_segm$catch$1 000000018002a990     segment.obj
 0004:0000099c       $pdata$_wrap_segment_t_is_loader_segm$catch$0 000000018002a99c     segment.obj
 0004:000009a8       $pdata$_wrap_segment_t_set_loader_segm 000000018002a9a8     segment.obj
 0004:000009b4       $pdata$_wrap_segment_t_set_loader_segm$catch$5 000000018002a9b4     segment.obj
 0004:000009c0       $pdata$_wrap_segment_t_set_loader_segm$catch$4 000000018002a9c0     segment.obj
 0004:000009cc       $pdata$_wrap_segment_t_set_loader_segm$catch$3 000000018002a9cc     segment.obj
 0004:000009d8       $pdata$_wrap_segment_t_set_loader_segm$catch$2 000000018002a9d8     segment.obj
 0004:000009e4       $pdata$_wrap_segment_t_set_loader_segm$catch$1 000000018002a9e4     segment.obj
 0004:000009f0       $pdata$_wrap_segment_t_set_loader_segm$catch$0 000000018002a9f0     segment.obj
 0004:000009fc       $pdata$_wrap_segment_t_is_hidden_segtype 000000018002a9fc     segment.obj
 0004:00000a08       $pdata$_wrap_segment_t_is_hidden_segtype$catch$5 000000018002aa08     segment.obj
 0004:00000a14       $pdata$_wrap_segment_t_is_hidden_segtype$catch$4 000000018002aa14     segment.obj
 0004:00000a20       $pdata$_wrap_segment_t_is_hidden_segtype$catch$3 000000018002aa20     segment.obj
 0004:00000a2c       $pdata$_wrap_segment_t_is_hidden_segtype$catch$2 000000018002aa2c     segment.obj
 0004:00000a38       $pdata$_wrap_segment_t_is_hidden_segtype$catch$1 000000018002aa38     segment.obj
 0004:00000a44       $pdata$_wrap_segment_t_is_hidden_segtype$catch$0 000000018002aa44     segment.obj
 0004:00000a50       $pdata$_wrap_segment_t_set_hidden_segtype 000000018002aa50     segment.obj
 0004:00000a5c       $pdata$_wrap_segment_t_set_hidden_segtype$catch$5 000000018002aa5c     segment.obj
 0004:00000a68       $pdata$_wrap_segment_t_set_hidden_segtype$catch$4 000000018002aa68     segment.obj
 0004:00000a74       $pdata$_wrap_segment_t_set_hidden_segtype$catch$3 000000018002aa74     segment.obj
 0004:00000a80       $pdata$_wrap_segment_t_set_hidden_segtype$catch$2 000000018002aa80     segment.obj
 0004:00000a8c       $pdata$_wrap_segment_t_set_hidden_segtype$catch$1 000000018002aa8c     segment.obj
 0004:00000a98       $pdata$_wrap_segment_t_set_hidden_segtype$catch$0 000000018002aa98     segment.obj
 0004:00000aa4       $pdata$_wrap_segment_t_is_header_segm 000000018002aaa4     segment.obj
 0004:00000ab0       $pdata$_wrap_segment_t_is_header_segm$catch$5 000000018002aab0     segment.obj
 0004:00000abc       $pdata$_wrap_segment_t_is_header_segm$catch$4 000000018002aabc     segment.obj
 0004:00000ac8       $pdata$_wrap_segment_t_is_header_segm$catch$3 000000018002aac8     segment.obj
 0004:00000ad4       $pdata$_wrap_segment_t_is_header_segm$catch$2 000000018002aad4     segment.obj
 0004:00000ae0       $pdata$_wrap_segment_t_is_header_segm$catch$1 000000018002aae0     segment.obj
 0004:00000aec       $pdata$_wrap_segment_t_is_header_segm$catch$0 000000018002aaec     segment.obj
 0004:00000af8       $pdata$_wrap_segment_t_set_header_segm 000000018002aaf8     segment.obj
 0004:00000b04       $pdata$_wrap_segment_t_set_header_segm$catch$5 000000018002ab04     segment.obj
 0004:00000b10       $pdata$_wrap_segment_t_set_header_segm$catch$4 000000018002ab10     segment.obj
 0004:00000b1c       $pdata$_wrap_segment_t_set_header_segm$catch$3 000000018002ab1c     segment.obj
 0004:00000b28       $pdata$_wrap_segment_t_set_header_segm$catch$2 000000018002ab28     segment.obj
 0004:00000b34       $pdata$_wrap_segment_t_set_header_segm$catch$1 000000018002ab34     segment.obj
 0004:00000b40       $pdata$_wrap_segment_t_set_header_segm$catch$0 000000018002ab40     segment.obj
 0004:00000b4c       $pdata$_wrap_segment_t_sel_set 000000018002ab4c     segment.obj
 0004:00000b58       $pdata$0$_wrap_segment_t_sel_set 000000018002ab58     segment.obj
 0004:00000b64       $pdata$1$_wrap_segment_t_sel_set 000000018002ab64     segment.obj
 0004:00000b70       $pdata$_wrap_segment_t_sel_get 000000018002ab70     segment.obj
 0004:00000b7c       $pdata$0$_wrap_segment_t_sel_get 000000018002ab7c     segment.obj
 0004:00000b88       $pdata$1$_wrap_segment_t_sel_get 000000018002ab88     segment.obj
 0004:00000b94       $pdata$_wrap_segment_t_defsr_set 000000018002ab94     segment.obj
 0004:00000ba0       $pdata$_wrap_segment_t_defsr_get 000000018002aba0     segment.obj
 0004:00000bac       $pdata$0$_wrap_segment_t_defsr_get 000000018002abac     segment.obj
 0004:00000bb8       $pdata$1$_wrap_segment_t_defsr_get 000000018002abb8     segment.obj
 0004:00000bc4       $pdata$_wrap_segment_t_type_set 000000018002abc4     segment.obj
 0004:00000bd0       $pdata$0$_wrap_segment_t_type_set 000000018002abd0     segment.obj
 0004:00000bdc       $pdata$1$_wrap_segment_t_type_set 000000018002abdc     segment.obj
 0004:00000be8       $pdata$_wrap_segment_t_type_get 000000018002abe8     segment.obj
 0004:00000bf4       $pdata$0$_wrap_segment_t_type_get 000000018002abf4     segment.obj
 0004:00000c00       $pdata$1$_wrap_segment_t_type_get 000000018002ac00     segment.obj
 0004:00000c0c       $pdata$_wrap_segment_t_color_set 000000018002ac0c     segment.obj
 0004:00000c18       $pdata$0$_wrap_segment_t_color_set 000000018002ac18     segment.obj
 0004:00000c24       $pdata$1$_wrap_segment_t_color_set 000000018002ac24     segment.obj
 0004:00000c30       $pdata$_wrap_segment_t_color_get 000000018002ac30     segment.obj
 0004:00000c3c       $pdata$0$_wrap_segment_t_color_get 000000018002ac3c     segment.obj
 0004:00000c48       $pdata$1$_wrap_segment_t_color_get 000000018002ac48     segment.obj
 0004:00000c54       $pdata$_wrap_segment_t_update 000000018002ac54     segment.obj
 0004:00000c60       $pdata$_wrap_segment_t_update$catch$5 000000018002ac60     segment.obj
 0004:00000c6c       $pdata$_wrap_segment_t_update$catch$4 000000018002ac6c     segment.obj
 0004:00000c78       $pdata$_wrap_segment_t_update$catch$3 000000018002ac78     segment.obj
 0004:00000c84       $pdata$_wrap_segment_t_update$catch$2 000000018002ac84     segment.obj
 0004:00000c90       $pdata$_wrap_segment_t_update$catch$1 000000018002ac90     segment.obj
 0004:00000c9c       $pdata$_wrap_segment_t_update$catch$0 000000018002ac9c     segment.obj
 0004:00000ca8       $pdata$_wrap_segment_t_start_ea_set 000000018002aca8     segment.obj
 0004:00000cb4       $pdata$_wrap_segment_t_start_ea_set$catch$5 000000018002acb4     segment.obj
 0004:00000cc0       $pdata$_wrap_segment_t_start_ea_set$catch$4 000000018002acc0     segment.obj
 0004:00000ccc       $pdata$_wrap_segment_t_start_ea_set$catch$3 000000018002accc     segment.obj
 0004:00000cd8       $pdata$_wrap_segment_t_start_ea_set$catch$2 000000018002acd8     segment.obj
 0004:00000ce4       $pdata$_wrap_segment_t_start_ea_set$catch$1 000000018002ace4     segment.obj
 0004:00000cf0       $pdata$_wrap_segment_t_start_ea_set$catch$0 000000018002acf0     segment.obj
 0004:00000cfc       $pdata$_wrap_segment_t_start_ea_get 000000018002acfc     segment.obj
 0004:00000d08       $pdata$_wrap_segment_t_start_ea_get$catch$5 000000018002ad08     segment.obj
 0004:00000d14       $pdata$_wrap_segment_t_start_ea_get$catch$4 000000018002ad14     segment.obj
 0004:00000d20       $pdata$_wrap_segment_t_start_ea_get$catch$3 000000018002ad20     segment.obj
 0004:00000d2c       $pdata$_wrap_segment_t_start_ea_get$catch$2 000000018002ad2c     segment.obj
 0004:00000d38       $pdata$_wrap_segment_t_start_ea_get$catch$1 000000018002ad38     segment.obj
 0004:00000d44       $pdata$_wrap_segment_t_start_ea_get$catch$0 000000018002ad44     segment.obj
 0004:00000d50       $pdata$_wrap_segment_t_end_ea_set 000000018002ad50     segment.obj
 0004:00000d5c       $pdata$_wrap_segment_t_end_ea_set$catch$5 000000018002ad5c     segment.obj
 0004:00000d68       $pdata$_wrap_segment_t_end_ea_set$catch$4 000000018002ad68     segment.obj
 0004:00000d74       $pdata$_wrap_segment_t_end_ea_set$catch$3 000000018002ad74     segment.obj
 0004:00000d80       $pdata$_wrap_segment_t_end_ea_set$catch$2 000000018002ad80     segment.obj
 0004:00000d8c       $pdata$_wrap_segment_t_end_ea_set$catch$1 000000018002ad8c     segment.obj
 0004:00000d98       $pdata$_wrap_segment_t_end_ea_set$catch$0 000000018002ad98     segment.obj
 0004:00000da4       $pdata$_wrap_segment_t_end_ea_get 000000018002ada4     segment.obj
 0004:00000db0       $pdata$_wrap_segment_t_end_ea_get$catch$5 000000018002adb0     segment.obj
 0004:00000dbc       $pdata$_wrap_segment_t_end_ea_get$catch$4 000000018002adbc     segment.obj
 0004:00000dc8       $pdata$_wrap_segment_t_end_ea_get$catch$3 000000018002adc8     segment.obj
 0004:00000dd4       $pdata$_wrap_segment_t_end_ea_get$catch$2 000000018002add4     segment.obj
 0004:00000de0       $pdata$_wrap_segment_t_end_ea_get$catch$1 000000018002ade0     segment.obj
 0004:00000dec       $pdata$_wrap_segment_t_end_ea_get$catch$0 000000018002adec     segment.obj
 0004:00000df8       $pdata$_wrap_delete_segment_t 000000018002adf8     segment.obj
 0004:00000e04       $pdata$_wrap_delete_segment_t$catch$5 000000018002ae04     segment.obj
 0004:00000e10       $pdata$_wrap_delete_segment_t$catch$4 000000018002ae10     segment.obj
 0004:00000e1c       $pdata$_wrap_delete_segment_t$catch$3 000000018002ae1c     segment.obj
 0004:00000e28       $pdata$_wrap_delete_segment_t$catch$2 000000018002ae28     segment.obj
 0004:00000e34       $pdata$_wrap_delete_segment_t$catch$1 000000018002ae34     segment.obj
 0004:00000e40       $pdata$_wrap_delete_segment_t$catch$0 000000018002ae40     segment.obj
 0004:00000e4c       $pdata$segment_t_swigregister 000000018002ae4c     segment.obj
 0004:00000e58       $pdata$_wrap_is_visible_segm 000000018002ae58     segment.obj
 0004:00000e64       $pdata$_wrap_is_visible_segm$catch$5 000000018002ae64     segment.obj
 0004:00000e70       $pdata$_wrap_is_visible_segm$catch$4 000000018002ae70     segment.obj
 0004:00000e7c       $pdata$_wrap_is_visible_segm$catch$3 000000018002ae7c     segment.obj
 0004:00000e88       $pdata$_wrap_is_visible_segm$catch$2 000000018002ae88     segment.obj
 0004:00000e94       $pdata$_wrap_is_visible_segm$catch$1 000000018002ae94     segment.obj
 0004:00000ea0       $pdata$_wrap_is_visible_segm$catch$0 000000018002aea0     segment.obj
 0004:00000eac       $pdata$_wrap_is_finally_visible_segm 000000018002aeac     segment.obj
 0004:00000eb8       $pdata$_wrap_is_finally_visible_segm$catch$5 000000018002aeb8     segment.obj
 0004:00000ec4       $pdata$_wrap_is_finally_visible_segm$catch$4 000000018002aec4     segment.obj
 0004:00000ed0       $pdata$_wrap_is_finally_visible_segm$catch$3 000000018002aed0     segment.obj
 0004:00000edc       $pdata$_wrap_is_finally_visible_segm$catch$2 000000018002aedc     segment.obj
 0004:00000ee8       $pdata$_wrap_is_finally_visible_segm$catch$1 000000018002aee8     segment.obj
 0004:00000ef4       $pdata$_wrap_is_finally_visible_segm$catch$0 000000018002aef4     segment.obj
 0004:00000f00       $pdata$_wrap_set_visible_segm 000000018002af00     segment.obj
 0004:00000f0c       $pdata$_wrap_set_visible_segm$catch$5 000000018002af0c     segment.obj
 0004:00000f18       $pdata$_wrap_set_visible_segm$catch$4 000000018002af18     segment.obj
 0004:00000f24       $pdata$_wrap_set_visible_segm$catch$3 000000018002af24     segment.obj
 0004:00000f30       $pdata$_wrap_set_visible_segm$catch$2 000000018002af30     segment.obj
 0004:00000f3c       $pdata$_wrap_set_visible_segm$catch$1 000000018002af3c     segment.obj
 0004:00000f48       $pdata$_wrap_set_visible_segm$catch$0 000000018002af48     segment.obj
 0004:00000f54       $pdata$_wrap_is_spec_segm  000000018002af54     segment.obj
 0004:00000f60       $pdata$_wrap_is_spec_segm$catch$5 000000018002af60     segment.obj
 0004:00000f6c       $pdata$_wrap_is_spec_segm$catch$4 000000018002af6c     segment.obj
 0004:00000f78       $pdata$_wrap_is_spec_segm$catch$3 000000018002af78     segment.obj
 0004:00000f84       $pdata$_wrap_is_spec_segm$catch$2 000000018002af84     segment.obj
 0004:00000f90       $pdata$_wrap_is_spec_segm$catch$1 000000018002af90     segment.obj
 0004:00000f9c       $pdata$_wrap_is_spec_segm$catch$0 000000018002af9c     segment.obj
 0004:00000fa8       $pdata$_wrap_is_spec_ea    000000018002afa8     segment.obj
 0004:00000fb4       $pdata$_wrap_is_spec_ea$catch$5 000000018002afb4     segment.obj
 0004:00000fc0       $pdata$_wrap_is_spec_ea$catch$4 000000018002afc0     segment.obj
 0004:00000fcc       $pdata$_wrap_is_spec_ea$catch$3 000000018002afcc     segment.obj
 0004:00000fd8       $pdata$_wrap_is_spec_ea$catch$2 000000018002afd8     segment.obj
 0004:00000fe4       $pdata$_wrap_is_spec_ea$catch$1 000000018002afe4     segment.obj
 0004:00000ff0       $pdata$_wrap_is_spec_ea$catch$0 000000018002aff0     segment.obj
 0004:00000ffc       $pdata$_wrap_lock_segm     000000018002affc     segment.obj
 0004:00001008       $pdata$_wrap_lock_segm$catch$5 000000018002b008     segment.obj
 0004:00001014       $pdata$_wrap_lock_segm$catch$4 000000018002b014     segment.obj
 0004:00001020       $pdata$_wrap_lock_segm$catch$3 000000018002b020     segment.obj
 0004:0000102c       $pdata$_wrap_lock_segm$catch$2 000000018002b02c     segment.obj
 0004:00001038       $pdata$_wrap_lock_segm$catch$1 000000018002b038     segment.obj
 0004:00001044       $pdata$_wrap_lock_segm$catch$0 000000018002b044     segment.obj
 0004:00001050       $pdata$_wrap_new_lock_segment 000000018002b050     segment.obj
 0004:0000105c       $pdata$_wrap_new_lock_segment$catch$1 000000018002b05c     segment.obj
 0004:00001068       $pdata$_wrap_new_lock_segment$catch$2 000000018002b068     segment.obj
 0004:00001074       $pdata$_wrap_new_lock_segment$catch$3 000000018002b074     segment.obj
 0004:00001080       $pdata$_wrap_new_lock_segment$catch$4 000000018002b080     segment.obj
 0004:0000108c       $pdata$_wrap_new_lock_segment$catch$5 000000018002b08c     segment.obj
 0004:00001098       $pdata$_wrap_new_lock_segment$catch$6 000000018002b098     segment.obj
 0004:000010a4       $pdata$_wrap_delete_lock_segment 000000018002b0a4     segment.obj
 0004:000010b0       $pdata$_wrap_delete_lock_segment$catch$5 000000018002b0b0     segment.obj
 0004:000010bc       $pdata$_wrap_delete_lock_segment$catch$4 000000018002b0bc     segment.obj
 0004:000010c8       $pdata$_wrap_delete_lock_segment$catch$3 000000018002b0c8     segment.obj
 0004:000010d4       $pdata$_wrap_delete_lock_segment$catch$2 000000018002b0d4     segment.obj
 0004:000010e0       $pdata$_wrap_delete_lock_segment$catch$1 000000018002b0e0     segment.obj
 0004:000010ec       $pdata$_wrap_delete_lock_segment$catch$0 000000018002b0ec     segment.obj
 0004:000010f8       $pdata$lock_segment_swigregister 000000018002b0f8     segment.obj
 0004:00001104       $pdata$_wrap_is_segm_locked 000000018002b104     segment.obj
 0004:00001110       $pdata$_wrap_is_segm_locked$catch$5 000000018002b110     segment.obj
 0004:0000111c       $pdata$_wrap_is_segm_locked$catch$4 000000018002b11c     segment.obj
 0004:00001128       $pdata$_wrap_is_segm_locked$catch$3 000000018002b128     segment.obj
 0004:00001134       $pdata$_wrap_is_segm_locked$catch$2 000000018002b134     segment.obj
 0004:00001140       $pdata$_wrap_is_segm_locked$catch$1 000000018002b140     segment.obj
 0004:0000114c       $pdata$_wrap_is_segm_locked$catch$0 000000018002b14c     segment.obj
 0004:00001158       $pdata$_wrap_getn_selector 000000018002b158     segment.obj
 0004:00001164       $pdata$_wrap_getn_selector$catch$5 000000018002b164     segment.obj
 0004:00001170       $pdata$_wrap_getn_selector$catch$4 000000018002b170     segment.obj
 0004:0000117c       $pdata$_wrap_getn_selector$catch$3 000000018002b17c     segment.obj
 0004:00001188       $pdata$_wrap_getn_selector$catch$2 000000018002b188     segment.obj
 0004:00001194       $pdata$_wrap_getn_selector$catch$1 000000018002b194     segment.obj
 0004:000011a0       $pdata$_wrap_getn_selector$catch$0 000000018002b1a0     segment.obj
 0004:000011ac       $pdata$_wrap_get_selector_qty 000000018002b1ac     segment.obj
 0004:000011b8       $pdata$_wrap_get_selector_qty$catch$5 000000018002b1b8     segment.obj
 0004:000011c4       $pdata$_wrap_get_selector_qty$catch$4 000000018002b1c4     segment.obj
 0004:000011d0       $pdata$_wrap_get_selector_qty$catch$3 000000018002b1d0     segment.obj
 0004:000011dc       $pdata$_wrap_get_selector_qty$catch$2 000000018002b1dc     segment.obj
 0004:000011e8       $pdata$_wrap_get_selector_qty$catch$1 000000018002b1e8     segment.obj
 0004:000011f4       $pdata$_wrap_get_selector_qty$catch$0 000000018002b1f4     segment.obj
 0004:00001200       $pdata$_wrap_setup_selector 000000018002b200     segment.obj
 0004:0000120c       $pdata$_wrap_setup_selector$catch$5 000000018002b20c     segment.obj
 0004:00001218       $pdata$_wrap_setup_selector$catch$4 000000018002b218     segment.obj
 0004:00001224       $pdata$_wrap_setup_selector$catch$3 000000018002b224     segment.obj
 0004:00001230       $pdata$_wrap_setup_selector$catch$2 000000018002b230     segment.obj
 0004:0000123c       $pdata$_wrap_setup_selector$catch$1 000000018002b23c     segment.obj
 0004:00001248       $pdata$_wrap_setup_selector$catch$0 000000018002b248     segment.obj
 0004:00001254       $pdata$_wrap_allocate_selector 000000018002b254     segment.obj
 0004:00001260       $pdata$_wrap_allocate_selector$catch$5 000000018002b260     segment.obj
 0004:0000126c       $pdata$_wrap_allocate_selector$catch$4 000000018002b26c     segment.obj
 0004:00001278       $pdata$_wrap_allocate_selector$catch$3 000000018002b278     segment.obj
 0004:00001284       $pdata$_wrap_allocate_selector$catch$2 000000018002b284     segment.obj
 0004:00001290       $pdata$_wrap_allocate_selector$catch$1 000000018002b290     segment.obj
 0004:0000129c       $pdata$_wrap_allocate_selector$catch$0 000000018002b29c     segment.obj
 0004:000012a8       $pdata$_wrap_find_free_selector 000000018002b2a8     segment.obj
 0004:000012b4       $pdata$_wrap_find_free_selector$catch$5 000000018002b2b4     segment.obj
 0004:000012c0       $pdata$_wrap_find_free_selector$catch$4 000000018002b2c0     segment.obj
 0004:000012cc       $pdata$_wrap_find_free_selector$catch$3 000000018002b2cc     segment.obj
 0004:000012d8       $pdata$_wrap_find_free_selector$catch$2 000000018002b2d8     segment.obj
 0004:000012e4       $pdata$_wrap_find_free_selector$catch$1 000000018002b2e4     segment.obj
 0004:000012f0       $pdata$_wrap_find_free_selector$catch$0 000000018002b2f0     segment.obj
 0004:000012fc       $pdata$_wrap_set_selector  000000018002b2fc     segment.obj
 0004:00001308       $pdata$_wrap_set_selector$catch$5 000000018002b308     segment.obj
 0004:00001314       $pdata$_wrap_set_selector$catch$4 000000018002b314     segment.obj
 0004:00001320       $pdata$_wrap_set_selector$catch$3 000000018002b320     segment.obj
 0004:0000132c       $pdata$_wrap_set_selector$catch$2 000000018002b32c     segment.obj
 0004:00001338       $pdata$_wrap_set_selector$catch$1 000000018002b338     segment.obj
 0004:00001344       $pdata$_wrap_set_selector$catch$0 000000018002b344     segment.obj
 0004:00001350       $pdata$_wrap_del_selector  000000018002b350     segment.obj
 0004:0000135c       $pdata$_wrap_del_selector$catch$5 000000018002b35c     segment.obj
 0004:00001368       $pdata$_wrap_del_selector$catch$4 000000018002b368     segment.obj
 0004:00001374       $pdata$_wrap_del_selector$catch$3 000000018002b374     segment.obj
 0004:00001380       $pdata$_wrap_del_selector$catch$2 000000018002b380     segment.obj
 0004:0000138c       $pdata$_wrap_del_selector$catch$1 000000018002b38c     segment.obj
 0004:00001398       $pdata$_wrap_del_selector$catch$0 000000018002b398     segment.obj
 0004:000013a4       $pdata$_wrap_sel2para      000000018002b3a4     segment.obj
 0004:000013b0       $pdata$_wrap_sel2para$catch$5 000000018002b3b0     segment.obj
 0004:000013bc       $pdata$_wrap_sel2para$catch$4 000000018002b3bc     segment.obj
 0004:000013c8       $pdata$_wrap_sel2para$catch$3 000000018002b3c8     segment.obj
 0004:000013d4       $pdata$_wrap_sel2para$catch$2 000000018002b3d4     segment.obj
 0004:000013e0       $pdata$_wrap_sel2para$catch$1 000000018002b3e0     segment.obj
 0004:000013ec       $pdata$_wrap_sel2para$catch$0 000000018002b3ec     segment.obj
 0004:000013f8       $pdata$_wrap_sel2ea        000000018002b3f8     segment.obj
 0004:00001404       $pdata$_wrap_sel2ea$catch$5 000000018002b404     segment.obj
 0004:00001410       $pdata$_wrap_sel2ea$catch$4 000000018002b410     segment.obj
 0004:0000141c       $pdata$_wrap_sel2ea$catch$3 000000018002b41c     segment.obj
 0004:00001428       $pdata$_wrap_sel2ea$catch$2 000000018002b428     segment.obj
 0004:00001434       $pdata$_wrap_sel2ea$catch$1 000000018002b434     segment.obj
 0004:00001440       $pdata$_wrap_sel2ea$catch$0 000000018002b440     segment.obj
 0004:0000144c       $pdata$_wrap_find_selector 000000018002b44c     segment.obj
 0004:00001458       $pdata$_wrap_find_selector$catch$5 000000018002b458     segment.obj
 0004:00001464       $pdata$_wrap_find_selector$catch$4 000000018002b464     segment.obj
 0004:00001470       $pdata$_wrap_find_selector$catch$3 000000018002b470     segment.obj
 0004:0000147c       $pdata$_wrap_find_selector$catch$2 000000018002b47c     segment.obj
 0004:00001488       $pdata$_wrap_find_selector$catch$1 000000018002b488     segment.obj
 0004:00001494       $pdata$_wrap_find_selector$catch$0 000000018002b494     segment.obj
 0004:000014a0       $pdata$_wrap_get_segm_by_sel 000000018002b4a0     segment.obj
 0004:000014ac       $pdata$_wrap_get_segm_by_sel$catch$5 000000018002b4ac     segment.obj
 0004:000014b8       $pdata$_wrap_get_segm_by_sel$catch$4 000000018002b4b8     segment.obj
 0004:000014c4       $pdata$_wrap_get_segm_by_sel$catch$3 000000018002b4c4     segment.obj
 0004:000014d0       $pdata$_wrap_get_segm_by_sel$catch$2 000000018002b4d0     segment.obj
 0004:000014dc       $pdata$_wrap_get_segm_by_sel$catch$1 000000018002b4dc     segment.obj
 0004:000014e8       $pdata$_wrap_get_segm_by_sel$catch$0 000000018002b4e8     segment.obj
 0004:000014f4       $pdata$_wrap_add_segm_ex   000000018002b4f4     segment.obj
 0004:00001500       $pdata$_wrap_add_segm_ex$catch$5 000000018002b500     segment.obj
 0004:0000150c       $pdata$_wrap_add_segm_ex$catch$4 000000018002b50c     segment.obj
 0004:00001518       $pdata$_wrap_add_segm_ex$catch$3 000000018002b518     segment.obj
 0004:00001524       $pdata$_wrap_add_segm_ex$catch$2 000000018002b524     segment.obj
 0004:00001530       $pdata$_wrap_add_segm_ex$catch$1 000000018002b530     segment.obj
 0004:0000153c       $pdata$_wrap_add_segm_ex$catch$0 000000018002b53c     segment.obj
 0004:00001548       $pdata$_wrap_add_segm      000000018002b548     segment.obj
 0004:00001554       $pdata$_wrap_add_segm$catch$5 000000018002b554     segment.obj
 0004:00001560       $pdata$_wrap_add_segm$catch$4 000000018002b560     segment.obj
 0004:0000156c       $pdata$_wrap_add_segm$catch$3 000000018002b56c     segment.obj
 0004:00001578       $pdata$_wrap_add_segm$catch$2 000000018002b578     segment.obj
 0004:00001584       $pdata$_wrap_add_segm$catch$1 000000018002b584     segment.obj
 0004:00001590       $pdata$_wrap_add_segm$catch$0 000000018002b590     segment.obj
 0004:0000159c       $pdata$_wrap_del_segm      000000018002b59c     segment.obj
 0004:000015a8       $pdata$_wrap_del_segm$catch$5 000000018002b5a8     segment.obj
 0004:000015b4       $pdata$_wrap_del_segm$catch$4 000000018002b5b4     segment.obj
 0004:000015c0       $pdata$_wrap_del_segm$catch$3 000000018002b5c0     segment.obj
 0004:000015cc       $pdata$_wrap_del_segm$catch$2 000000018002b5cc     segment.obj
 0004:000015d8       $pdata$_wrap_del_segm$catch$1 000000018002b5d8     segment.obj
 0004:000015e4       $pdata$_wrap_del_segm$catch$0 000000018002b5e4     segment.obj
 0004:000015f0       $pdata$_wrap_get_segm_qty  000000018002b5f0     segment.obj
 0004:000015fc       $pdata$_wrap_get_segm_qty$catch$5 000000018002b5fc     segment.obj
 0004:00001608       $pdata$_wrap_get_segm_qty$catch$4 000000018002b608     segment.obj
 0004:00001614       $pdata$_wrap_get_segm_qty$catch$3 000000018002b614     segment.obj
 0004:00001620       $pdata$_wrap_get_segm_qty$catch$2 000000018002b620     segment.obj
 0004:0000162c       $pdata$_wrap_get_segm_qty$catch$1 000000018002b62c     segment.obj
 0004:00001638       $pdata$_wrap_get_segm_qty$catch$0 000000018002b638     segment.obj
 0004:00001644       $pdata$_wrap_getseg        000000018002b644     segment.obj
 0004:00001650       $pdata$_wrap_getseg$catch$5 000000018002b650     segment.obj
 0004:0000165c       $pdata$_wrap_getseg$catch$4 000000018002b65c     segment.obj
 0004:00001668       $pdata$_wrap_getseg$catch$3 000000018002b668     segment.obj
 0004:00001674       $pdata$_wrap_getseg$catch$2 000000018002b674     segment.obj
 0004:00001680       $pdata$_wrap_getseg$catch$1 000000018002b680     segment.obj
 0004:0000168c       $pdata$_wrap_getseg$catch$0 000000018002b68c     segment.obj
 0004:00001698       $pdata$_wrap_getnseg       000000018002b698     segment.obj
 0004:000016a4       $pdata$_wrap_getnseg$catch$5 000000018002b6a4     segment.obj
 0004:000016b0       $pdata$_wrap_getnseg$catch$4 000000018002b6b0     segment.obj
 0004:000016bc       $pdata$_wrap_getnseg$catch$3 000000018002b6bc     segment.obj
 0004:000016c8       $pdata$_wrap_getnseg$catch$2 000000018002b6c8     segment.obj
 0004:000016d4       $pdata$_wrap_getnseg$catch$1 000000018002b6d4     segment.obj
 0004:000016e0       $pdata$_wrap_getnseg$catch$0 000000018002b6e0     segment.obj
 0004:000016ec       $pdata$_wrap_get_segm_num  000000018002b6ec     segment.obj
 0004:000016f8       $pdata$_wrap_get_segm_num$catch$5 000000018002b6f8     segment.obj
 0004:00001704       $pdata$_wrap_get_segm_num$catch$4 000000018002b704     segment.obj
 0004:00001710       $pdata$_wrap_get_segm_num$catch$3 000000018002b710     segment.obj
 0004:0000171c       $pdata$_wrap_get_segm_num$catch$2 000000018002b71c     segment.obj
 0004:00001728       $pdata$_wrap_get_segm_num$catch$1 000000018002b728     segment.obj
 0004:00001734       $pdata$_wrap_get_segm_num$catch$0 000000018002b734     segment.obj
 0004:00001740       $pdata$_wrap_get_next_seg  000000018002b740     segment.obj
 0004:0000174c       $pdata$_wrap_get_next_seg$catch$5 000000018002b74c     segment.obj
 0004:00001758       $pdata$_wrap_get_next_seg$catch$4 000000018002b758     segment.obj
 0004:00001764       $pdata$_wrap_get_next_seg$catch$3 000000018002b764     segment.obj
 0004:00001770       $pdata$_wrap_get_next_seg$catch$2 000000018002b770     segment.obj
 0004:0000177c       $pdata$_wrap_get_next_seg$catch$1 000000018002b77c     segment.obj
 0004:00001788       $pdata$_wrap_get_next_seg$catch$0 000000018002b788     segment.obj
 0004:00001794       $pdata$_wrap_get_prev_seg  000000018002b794     segment.obj
 0004:000017a0       $pdata$_wrap_get_prev_seg$catch$5 000000018002b7a0     segment.obj
 0004:000017ac       $pdata$_wrap_get_prev_seg$catch$4 000000018002b7ac     segment.obj
 0004:000017b8       $pdata$_wrap_get_prev_seg$catch$3 000000018002b7b8     segment.obj
 0004:000017c4       $pdata$_wrap_get_prev_seg$catch$2 000000018002b7c4     segment.obj
 0004:000017d0       $pdata$_wrap_get_prev_seg$catch$1 000000018002b7d0     segment.obj
 0004:000017dc       $pdata$_wrap_get_prev_seg$catch$0 000000018002b7dc     segment.obj
 0004:000017e8       $pdata$_wrap_get_first_seg 000000018002b7e8     segment.obj
 0004:000017f4       $pdata$_wrap_get_first_seg$catch$5 000000018002b7f4     segment.obj
 0004:00001800       $pdata$_wrap_get_first_seg$catch$4 000000018002b800     segment.obj
 0004:0000180c       $pdata$_wrap_get_first_seg$catch$3 000000018002b80c     segment.obj
 0004:00001818       $pdata$_wrap_get_first_seg$catch$2 000000018002b818     segment.obj
 0004:00001824       $pdata$_wrap_get_first_seg$catch$1 000000018002b824     segment.obj
 0004:00001830       $pdata$_wrap_get_first_seg$catch$0 000000018002b830     segment.obj
 0004:0000183c       $pdata$_wrap_get_last_seg  000000018002b83c     segment.obj
 0004:00001848       $pdata$_wrap_get_last_seg$catch$5 000000018002b848     segment.obj
 0004:00001854       $pdata$_wrap_get_last_seg$catch$4 000000018002b854     segment.obj
 0004:00001860       $pdata$_wrap_get_last_seg$catch$3 000000018002b860     segment.obj
 0004:0000186c       $pdata$_wrap_get_last_seg$catch$2 000000018002b86c     segment.obj
 0004:00001878       $pdata$_wrap_get_last_seg$catch$1 000000018002b878     segment.obj
 0004:00001884       $pdata$_wrap_get_last_seg$catch$0 000000018002b884     segment.obj
 0004:00001890       $pdata$_wrap_get_segm_by_name 000000018002b890     segment.obj
 0004:0000189c       $pdata$_wrap_get_segm_by_name$catch$5 000000018002b89c     segment.obj
 0004:000018a8       $pdata$_wrap_get_segm_by_name$catch$4 000000018002b8a8     segment.obj
 0004:000018b4       $pdata$_wrap_get_segm_by_name$catch$3 000000018002b8b4     segment.obj
 0004:000018c0       $pdata$_wrap_get_segm_by_name$catch$2 000000018002b8c0     segment.obj
 0004:000018cc       $pdata$_wrap_get_segm_by_name$catch$1 000000018002b8cc     segment.obj
 0004:000018d8       $pdata$_wrap_get_segm_by_name$catch$0 000000018002b8d8     segment.obj
 0004:000018e4       $pdata$_wrap_set_segm_end  000000018002b8e4     segment.obj
 0004:000018f0       $pdata$_wrap_set_segm_end$catch$5 000000018002b8f0     segment.obj
 0004:000018fc       $pdata$_wrap_set_segm_end$catch$4 000000018002b8fc     segment.obj
 0004:00001908       $pdata$_wrap_set_segm_end$catch$3 000000018002b908     segment.obj
 0004:00001914       $pdata$_wrap_set_segm_end$catch$2 000000018002b914     segment.obj
 0004:00001920       $pdata$_wrap_set_segm_end$catch$1 000000018002b920     segment.obj
 0004:0000192c       $pdata$_wrap_set_segm_end$catch$0 000000018002b92c     segment.obj
 0004:00001938       $pdata$_wrap_set_segm_start 000000018002b938     segment.obj
 0004:00001944       $pdata$_wrap_set_segm_start$catch$5 000000018002b944     segment.obj
 0004:00001950       $pdata$_wrap_set_segm_start$catch$4 000000018002b950     segment.obj
 0004:0000195c       $pdata$_wrap_set_segm_start$catch$3 000000018002b95c     segment.obj
 0004:00001968       $pdata$_wrap_set_segm_start$catch$2 000000018002b968     segment.obj
 0004:00001974       $pdata$_wrap_set_segm_start$catch$1 000000018002b974     segment.obj
 0004:00001980       $pdata$_wrap_set_segm_start$catch$0 000000018002b980     segment.obj
 0004:0000198c       $pdata$_wrap_move_segm_start 000000018002b98c     segment.obj
 0004:00001998       $pdata$_wrap_move_segm_start$catch$5 000000018002b998     segment.obj
 0004:000019a4       $pdata$_wrap_move_segm_start$catch$4 000000018002b9a4     segment.obj
 0004:000019b0       $pdata$_wrap_move_segm_start$catch$3 000000018002b9b0     segment.obj
 0004:000019bc       $pdata$_wrap_move_segm_start$catch$2 000000018002b9bc     segment.obj
 0004:000019c8       $pdata$_wrap_move_segm_start$catch$1 000000018002b9c8     segment.obj
 0004:000019d4       $pdata$_wrap_move_segm_start$catch$0 000000018002b9d4     segment.obj
 0004:000019e0       $pdata$_wrap_move_segm     000000018002b9e0     segment.obj
 0004:000019ec       $pdata$_wrap_move_segm$catch$5 000000018002b9ec     segment.obj
 0004:000019f8       $pdata$_wrap_move_segm$catch$4 000000018002b9f8     segment.obj
 0004:00001a04       $pdata$_wrap_move_segm$catch$3 000000018002ba04     segment.obj
 0004:00001a10       $pdata$_wrap_move_segm$catch$2 000000018002ba10     segment.obj
 0004:00001a1c       $pdata$_wrap_move_segm$catch$1 000000018002ba1c     segment.obj
 0004:00001a28       $pdata$_wrap_move_segm$catch$0 000000018002ba28     segment.obj
 0004:00001a34       $pdata$_wrap_change_segment_status 000000018002ba34     segment.obj
 0004:00001a40       $pdata$_wrap_change_segment_status$catch$5 000000018002ba40     segment.obj
 0004:00001a4c       $pdata$_wrap_change_segment_status$catch$4 000000018002ba4c     segment.obj
 0004:00001a58       $pdata$_wrap_change_segment_status$catch$3 000000018002ba58     segment.obj
 0004:00001a64       $pdata$_wrap_change_segment_status$catch$2 000000018002ba64     segment.obj
 0004:00001a70       $pdata$_wrap_change_segment_status$catch$1 000000018002ba70     segment.obj
 0004:00001a7c       $pdata$_wrap_change_segment_status$catch$0 000000018002ba7c     segment.obj
 0004:00001a88       $pdata$_wrap_take_memory_snapshot 000000018002ba88     segment.obj
 0004:00001a94       $pdata$_wrap_take_memory_snapshot$catch$5 000000018002ba94     segment.obj
 0004:00001aa0       $pdata$_wrap_take_memory_snapshot$catch$4 000000018002baa0     segment.obj
 0004:00001aac       $pdata$_wrap_take_memory_snapshot$catch$3 000000018002baac     segment.obj
 0004:00001ab8       $pdata$_wrap_take_memory_snapshot$catch$2 000000018002bab8     segment.obj
 0004:00001ac4       $pdata$_wrap_take_memory_snapshot$catch$1 000000018002bac4     segment.obj
 0004:00001ad0       $pdata$_wrap_take_memory_snapshot$catch$0 000000018002bad0     segment.obj
 0004:00001adc       $pdata$_wrap_is_miniidb    000000018002badc     segment.obj
 0004:00001ae8       $pdata$_wrap_is_miniidb$catch$5 000000018002bae8     segment.obj
 0004:00001af4       $pdata$_wrap_is_miniidb$catch$4 000000018002baf4     segment.obj
 0004:00001b00       $pdata$_wrap_is_miniidb$catch$3 000000018002bb00     segment.obj
 0004:00001b0c       $pdata$_wrap_is_miniidb$catch$2 000000018002bb0c     segment.obj
 0004:00001b18       $pdata$_wrap_is_miniidb$catch$1 000000018002bb18     segment.obj
 0004:00001b24       $pdata$_wrap_is_miniidb$catch$0 000000018002bb24     segment.obj
 0004:00001b30       $pdata$_wrap_set_segm_base 000000018002bb30     segment.obj
 0004:00001b3c       $pdata$_wrap_set_segm_base$catch$5 000000018002bb3c     segment.obj
 0004:00001b48       $pdata$_wrap_set_segm_base$catch$4 000000018002bb48     segment.obj
 0004:00001b54       $pdata$_wrap_set_segm_base$catch$3 000000018002bb54     segment.obj
 0004:00001b60       $pdata$_wrap_set_segm_base$catch$2 000000018002bb60     segment.obj
 0004:00001b6c       $pdata$_wrap_set_segm_base$catch$1 000000018002bb6c     segment.obj
 0004:00001b78       $pdata$_wrap_set_segm_base$catch$0 000000018002bb78     segment.obj
 0004:00001b84       $pdata$_wrap_set_group_selector 000000018002bb84     segment.obj
 0004:00001b90       $pdata$_wrap_set_group_selector$catch$5 000000018002bb90     segment.obj
 0004:00001b9c       $pdata$_wrap_set_group_selector$catch$4 000000018002bb9c     segment.obj
 0004:00001ba8       $pdata$_wrap_set_group_selector$catch$3 000000018002bba8     segment.obj
 0004:00001bb4       $pdata$_wrap_set_group_selector$catch$2 000000018002bbb4     segment.obj
 0004:00001bc0       $pdata$_wrap_set_group_selector$catch$1 000000018002bbc0     segment.obj
 0004:00001bcc       $pdata$_wrap_set_group_selector$catch$0 000000018002bbcc     segment.obj
 0004:00001bd8       $pdata$_wrap_get_group_selector 000000018002bbd8     segment.obj
 0004:00001be4       $pdata$_wrap_get_group_selector$catch$5 000000018002bbe4     segment.obj
 0004:00001bf0       $pdata$_wrap_get_group_selector$catch$4 000000018002bbf0     segment.obj
 0004:00001bfc       $pdata$_wrap_get_group_selector$catch$3 000000018002bbfc     segment.obj
 0004:00001c08       $pdata$_wrap_get_group_selector$catch$2 000000018002bc08     segment.obj
 0004:00001c14       $pdata$_wrap_get_group_selector$catch$1 000000018002bc14     segment.obj
 0004:00001c20       $pdata$_wrap_get_group_selector$catch$0 000000018002bc20     segment.obj
 0004:00001c2c       $pdata$_wrap_add_segment_translation 000000018002bc2c     segment.obj
 0004:00001c38       $pdata$_wrap_add_segment_translation$catch$5 000000018002bc38     segment.obj
 0004:00001c44       $pdata$_wrap_add_segment_translation$catch$4 000000018002bc44     segment.obj
 0004:00001c50       $pdata$_wrap_add_segment_translation$catch$3 000000018002bc50     segment.obj
 0004:00001c5c       $pdata$_wrap_add_segment_translation$catch$2 000000018002bc5c     segment.obj
 0004:00001c68       $pdata$_wrap_add_segment_translation$catch$1 000000018002bc68     segment.obj
 0004:00001c74       $pdata$_wrap_add_segment_translation$catch$0 000000018002bc74     segment.obj
 0004:00001c80       $pdata$_wrap_set_segment_translations 000000018002bc80     segment.obj
 0004:00001c8c       $pdata$_wrap_set_segment_translations$catch$6 000000018002bc8c     segment.obj
 0004:00001c98       $pdata$_wrap_set_segment_translations$catch$5 000000018002bc98     segment.obj
 0004:00001ca4       $pdata$_wrap_set_segment_translations$catch$4 000000018002bca4     segment.obj
 0004:00001cb0       $pdata$_wrap_set_segment_translations$catch$3 000000018002bcb0     segment.obj
 0004:00001cbc       $pdata$_wrap_set_segment_translations$catch$2 000000018002bcbc     segment.obj
 0004:00001cc8       $pdata$_wrap_set_segment_translations$catch$1 000000018002bcc8     segment.obj
 0004:00001cd4       $pdata$_wrap_del_segment_translations 000000018002bcd4     segment.obj
 0004:00001ce0       $pdata$_wrap_del_segment_translations$catch$5 000000018002bce0     segment.obj
 0004:00001cec       $pdata$_wrap_del_segment_translations$catch$4 000000018002bcec     segment.obj
 0004:00001cf8       $pdata$_wrap_del_segment_translations$catch$3 000000018002bcf8     segment.obj
 0004:00001d04       $pdata$_wrap_del_segment_translations$catch$2 000000018002bd04     segment.obj
 0004:00001d10       $pdata$_wrap_del_segment_translations$catch$1 000000018002bd10     segment.obj
 0004:00001d1c       $pdata$_wrap_del_segment_translations$catch$0 000000018002bd1c     segment.obj
 0004:00001d28       $pdata$_wrap_get_segment_translations 000000018002bd28     segment.obj
 0004:00001d34       $pdata$_wrap_get_segment_translations$catch$6 000000018002bd34     segment.obj
 0004:00001d40       $pdata$_wrap_get_segment_translations$catch$5 000000018002bd40     segment.obj
 0004:00001d4c       $pdata$_wrap_get_segment_translations$catch$4 000000018002bd4c     segment.obj
 0004:00001d58       $pdata$_wrap_get_segment_translations$catch$3 000000018002bd58     segment.obj
 0004:00001d64       $pdata$_wrap_get_segment_translations$catch$2 000000018002bd64     segment.obj
 0004:00001d70       $pdata$_wrap_get_segment_translations$catch$1 000000018002bd70     segment.obj
 0004:00001d7c       $pdata$_wrap_get_segment_cmt 000000018002bd7c     segment.obj
 0004:00001d88       $pdata$_wrap_get_segment_cmt$catch$8 000000018002bd88     segment.obj
 0004:00001d94       $pdata$_wrap_get_segment_cmt$catch$7 000000018002bd94     segment.obj
 0004:00001da0       $pdata$_wrap_get_segment_cmt$catch$6 000000018002bda0     segment.obj
 0004:00001dac       $pdata$_wrap_get_segment_cmt$catch$5 000000018002bdac     segment.obj
 0004:00001db8       $pdata$_wrap_get_segment_cmt$catch$4 000000018002bdb8     segment.obj
 0004:00001dc4       $pdata$_wrap_get_segment_cmt$catch$3 000000018002bdc4     segment.obj
 0004:00001dd0       $pdata$_wrap_set_segment_cmt 000000018002bdd0     segment.obj
 0004:00001ddc       $pdata$_wrap_set_segment_cmt$catch$5 000000018002bddc     segment.obj
 0004:00001de8       $pdata$_wrap_set_segment_cmt$catch$4 000000018002bde8     segment.obj
 0004:00001df4       $pdata$_wrap_set_segment_cmt$catch$3 000000018002bdf4     segment.obj
 0004:00001e00       $pdata$_wrap_set_segment_cmt$catch$2 000000018002be00     segment.obj
 0004:00001e0c       $pdata$_wrap_set_segment_cmt$catch$1 000000018002be0c     segment.obj
 0004:00001e18       $pdata$_wrap_set_segment_cmt$catch$0 000000018002be18     segment.obj
 0004:00001e24       $pdata$_wrap_std_out_segm_footer 000000018002be24     segment.obj
 0004:00001e30       $pdata$_wrap_std_out_segm_footer$catch$5 000000018002be30     segment.obj
 0004:00001e3c       $pdata$_wrap_std_out_segm_footer$catch$4 000000018002be3c     segment.obj
 0004:00001e48       $pdata$_wrap_std_out_segm_footer$catch$3 000000018002be48     segment.obj
 0004:00001e54       $pdata$_wrap_std_out_segm_footer$catch$2 000000018002be54     segment.obj
 0004:00001e60       $pdata$_wrap_std_out_segm_footer$catch$1 000000018002be60     segment.obj
 0004:00001e6c       $pdata$_wrap_std_out_segm_footer$catch$0 000000018002be6c     segment.obj
 0004:00001e78       $pdata$_wrap_set_segm_name 000000018002be78     segment.obj
 0004:00001e84       $pdata$_wrap_set_segm_name$catch$5 000000018002be84     segment.obj
 0004:00001e90       $pdata$_wrap_set_segm_name$catch$4 000000018002be90     segment.obj
 0004:00001e9c       $pdata$_wrap_set_segm_name$catch$3 000000018002be9c     segment.obj
 0004:00001ea8       $pdata$_wrap_set_segm_name$catch$2 000000018002bea8     segment.obj
 0004:00001eb4       $pdata$_wrap_set_segm_name$catch$1 000000018002beb4     segment.obj
 0004:00001ec0       $pdata$_wrap_set_segm_name$catch$0 000000018002bec0     segment.obj
 0004:00001ecc       $pdata$_wrap_get_segm_name 000000018002becc     segment.obj
 0004:00001ed8       $pdata$_wrap_get_segm_name$catch$8 000000018002bed8     segment.obj
 0004:00001ee4       $pdata$_wrap_get_segm_name$catch$7 000000018002bee4     segment.obj
 0004:00001ef0       $pdata$_wrap_get_segm_name$catch$6 000000018002bef0     segment.obj
 0004:00001efc       $pdata$_wrap_get_segm_name$catch$5 000000018002befc     segment.obj
 0004:00001f08       $pdata$_wrap_get_segm_name$catch$4 000000018002bf08     segment.obj
 0004:00001f14       $pdata$_wrap_get_segm_name$catch$3 000000018002bf14     segment.obj
 0004:00001f20       $pdata$_wrap_get_visible_segm_name 000000018002bf20     segment.obj
 0004:00001f2c       $pdata$_wrap_get_visible_segm_name$catch$8 000000018002bf2c     segment.obj
 0004:00001f38       $pdata$_wrap_get_visible_segm_name$catch$7 000000018002bf38     segment.obj
 0004:00001f44       $pdata$_wrap_get_visible_segm_name$catch$6 000000018002bf44     segment.obj
 0004:00001f50       $pdata$_wrap_get_visible_segm_name$catch$5 000000018002bf50     segment.obj
 0004:00001f5c       $pdata$_wrap_get_visible_segm_name$catch$4 000000018002bf5c     segment.obj
 0004:00001f68       $pdata$_wrap_get_visible_segm_name$catch$3 000000018002bf68     segment.obj
 0004:00001f74       $pdata$_wrap_get_segm_class 000000018002bf74     segment.obj
 0004:00001f80       $pdata$_wrap_get_segm_class$catch$8 000000018002bf80     segment.obj
 0004:00001f8c       $pdata$_wrap_get_segm_class$catch$7 000000018002bf8c     segment.obj
 0004:00001f98       $pdata$_wrap_get_segm_class$catch$6 000000018002bf98     segment.obj
 0004:00001fa4       $pdata$_wrap_get_segm_class$catch$5 000000018002bfa4     segment.obj
 0004:00001fb0       $pdata$_wrap_get_segm_class$catch$4 000000018002bfb0     segment.obj
 0004:00001fbc       $pdata$_wrap_get_segm_class$catch$3 000000018002bfbc     segment.obj
 0004:00001fc8       $pdata$_wrap_set_segm_class 000000018002bfc8     segment.obj
 0004:00001fd4       $pdata$_wrap_set_segm_class$catch$5 000000018002bfd4     segment.obj
 0004:00001fe0       $pdata$_wrap_set_segm_class$catch$4 000000018002bfe0     segment.obj
 0004:00001fec       $pdata$_wrap_set_segm_class$catch$3 000000018002bfec     segment.obj
 0004:00001ff8       $pdata$_wrap_set_segm_class$catch$2 000000018002bff8     segment.obj
 0004:00002004       $pdata$_wrap_set_segm_class$catch$1 000000018002c004     segment.obj
 0004:00002010       $pdata$_wrap_set_segm_class$catch$0 000000018002c010     segment.obj
 0004:0000201c       $pdata$_wrap_segtype       000000018002c01c     segment.obj
 0004:00002028       $pdata$_wrap_segtype$catch$5 000000018002c028     segment.obj
 0004:00002034       $pdata$_wrap_segtype$catch$4 000000018002c034     segment.obj
 0004:00002040       $pdata$_wrap_segtype$catch$3 000000018002c040     segment.obj
 0004:0000204c       $pdata$_wrap_segtype$catch$2 000000018002c04c     segment.obj
 0004:00002058       $pdata$_wrap_segtype$catch$1 000000018002c058     segment.obj
 0004:00002064       $pdata$_wrap_segtype$catch$0 000000018002c064     segment.obj
 0004:00002070       $pdata$_wrap_get_segment_alignment 000000018002c070     segment.obj
 0004:0000207c       $pdata$_wrap_get_segment_alignment$catch$5 000000018002c07c     segment.obj
 0004:00002088       $pdata$_wrap_get_segment_alignment$catch$4 000000018002c088     segment.obj
 0004:00002094       $pdata$_wrap_get_segment_alignment$catch$3 000000018002c094     segment.obj
 0004:000020a0       $pdata$_wrap_get_segment_alignment$catch$2 000000018002c0a0     segment.obj
 0004:000020ac       $pdata$_wrap_get_segment_alignment$catch$1 000000018002c0ac     segment.obj
 0004:000020b8       $pdata$_wrap_get_segment_alignment$catch$0 000000018002c0b8     segment.obj
 0004:000020c4       $pdata$_wrap_get_segment_combination 000000018002c0c4     segment.obj
 0004:000020d0       $pdata$_wrap_get_segment_combination$catch$5 000000018002c0d0     segment.obj
 0004:000020dc       $pdata$_wrap_get_segment_combination$catch$4 000000018002c0dc     segment.obj
 0004:000020e8       $pdata$_wrap_get_segment_combination$catch$3 000000018002c0e8     segment.obj
 0004:000020f4       $pdata$_wrap_get_segment_combination$catch$2 000000018002c0f4     segment.obj
 0004:00002100       $pdata$_wrap_get_segment_combination$catch$1 000000018002c100     segment.obj
 0004:0000210c       $pdata$_wrap_get_segment_combination$catch$0 000000018002c10c     segment.obj
 0004:00002118       $pdata$_wrap_get_segm_para 000000018002c118     segment.obj
 0004:00002124       $pdata$_wrap_get_segm_para$catch$5 000000018002c124     segment.obj
 0004:00002130       $pdata$_wrap_get_segm_para$catch$4 000000018002c130     segment.obj
 0004:0000213c       $pdata$_wrap_get_segm_para$catch$3 000000018002c13c     segment.obj
 0004:00002148       $pdata$_wrap_get_segm_para$catch$2 000000018002c148     segment.obj
 0004:00002154       $pdata$_wrap_get_segm_para$catch$1 000000018002c154     segment.obj
 0004:00002160       $pdata$_wrap_get_segm_para$catch$0 000000018002c160     segment.obj
 0004:0000216c       $pdata$_wrap_get_segm_base 000000018002c16c     segment.obj
 0004:00002178       $pdata$_wrap_get_segm_base$catch$5 000000018002c178     segment.obj
 0004:00002184       $pdata$_wrap_get_segm_base$catch$4 000000018002c184     segment.obj
 0004:00002190       $pdata$_wrap_get_segm_base$catch$3 000000018002c190     segment.obj
 0004:0000219c       $pdata$_wrap_get_segm_base$catch$2 000000018002c19c     segment.obj
 0004:000021a8       $pdata$_wrap_get_segm_base$catch$1 000000018002c1a8     segment.obj
 0004:000021b4       $pdata$_wrap_get_segm_base$catch$0 000000018002c1b4     segment.obj
 0004:000021c0       $pdata$_wrap_set_segm_addressing 000000018002c1c0     segment.obj
 0004:000021cc       $pdata$_wrap_set_segm_addressing$catch$5 000000018002c1cc     segment.obj
 0004:000021d8       $pdata$_wrap_set_segm_addressing$catch$4 000000018002c1d8     segment.obj
 0004:000021e4       $pdata$_wrap_set_segm_addressing$catch$3 000000018002c1e4     segment.obj
 0004:000021f0       $pdata$_wrap_set_segm_addressing$catch$2 000000018002c1f0     segment.obj
 0004:000021fc       $pdata$_wrap_set_segm_addressing$catch$1 000000018002c1fc     segment.obj
 0004:00002208       $pdata$_wrap_set_segm_addressing$catch$0 000000018002c208     segment.obj
 0004:00002214       $pdata$_wrap_update_segm   000000018002c214     segment.obj
 0004:00002220       $pdata$_wrap_update_segm$catch$5 000000018002c220     segment.obj
 0004:0000222c       $pdata$_wrap_update_segm$catch$4 000000018002c22c     segment.obj
 0004:00002238       $pdata$_wrap_update_segm$catch$3 000000018002c238     segment.obj
 0004:00002244       $pdata$_wrap_update_segm$catch$2 000000018002c244     segment.obj
 0004:00002250       $pdata$_wrap_update_segm$catch$1 000000018002c250     segment.obj
 0004:0000225c       $pdata$_wrap_update_segm$catch$0 000000018002c25c     segment.obj
 0004:00002268       $pdata$_wrap_segm_adjust_diff 000000018002c268     segment.obj
 0004:00002274       $pdata$_wrap_segm_adjust_diff$catch$5 000000018002c274     segment.obj
 0004:00002280       $pdata$_wrap_segm_adjust_diff$catch$4 000000018002c280     segment.obj
 0004:0000228c       $pdata$_wrap_segm_adjust_diff$catch$3 000000018002c28c     segment.obj
 0004:00002298       $pdata$_wrap_segm_adjust_diff$catch$2 000000018002c298     segment.obj
 0004:000022a4       $pdata$_wrap_segm_adjust_diff$catch$1 000000018002c2a4     segment.obj
 0004:000022b0       $pdata$_wrap_segm_adjust_diff$catch$0 000000018002c2b0     segment.obj
 0004:000022bc       $pdata$_wrap_segm_adjust_ea 000000018002c2bc     segment.obj
 0004:000022c8       $pdata$_wrap_segm_adjust_ea$catch$5 000000018002c2c8     segment.obj
 0004:000022d4       $pdata$_wrap_segm_adjust_ea$catch$4 000000018002c2d4     segment.obj
 0004:000022e0       $pdata$_wrap_segm_adjust_ea$catch$3 000000018002c2e0     segment.obj
 0004:000022ec       $pdata$_wrap_segm_adjust_ea$catch$2 000000018002c2ec     segment.obj
 0004:000022f8       $pdata$_wrap_segm_adjust_ea$catch$1 000000018002c2f8     segment.obj
 0004:00002304       $pdata$_wrap_segm_adjust_ea$catch$0 000000018002c304     segment.obj
 0004:00002310       $pdata$_wrap_get_defsr     000000018002c310     segment.obj
 0004:0000231c       $pdata$_wrap_get_defsr$catch$5 000000018002c31c     segment.obj
 0004:00002328       $pdata$_wrap_get_defsr$catch$4 000000018002c328     segment.obj
 0004:00002334       $pdata$_wrap_get_defsr$catch$3 000000018002c334     segment.obj
 0004:00002340       $pdata$_wrap_get_defsr$catch$2 000000018002c340     segment.obj
 0004:0000234c       $pdata$_wrap_get_defsr$catch$1 000000018002c34c     segment.obj
 0004:00002358       $pdata$_wrap_get_defsr$catch$0 000000018002c358     segment.obj
 0004:00002364       $pdata$_wrap_set_defsr     000000018002c364     segment.obj
 0004:00002370       $pdata$_wrap_set_defsr$catch$5 000000018002c370     segment.obj
 0004:0000237c       $pdata$_wrap_set_defsr$catch$4 000000018002c37c     segment.obj
 0004:00002388       $pdata$_wrap_set_defsr$catch$3 000000018002c388     segment.obj
 0004:00002394       $pdata$_wrap_set_defsr$catch$2 000000018002c394     segment.obj
 0004:000023a0       $pdata$_wrap_set_defsr$catch$1 000000018002c3a0     segment.obj
 0004:000023ac       $pdata$_wrap_set_defsr$catch$0 000000018002c3ac     segment.obj
 0004:000023b8       $pdata$_wrap_rebase_program 000000018002c3b8     segment.obj
 0004:000023c4       $pdata$_wrap_rebase_program$catch$5 000000018002c3c4     segment.obj
 0004:000023d0       $pdata$_wrap_rebase_program$catch$4 000000018002c3d0     segment.obj
 0004:000023dc       $pdata$_wrap_rebase_program$catch$3 000000018002c3dc     segment.obj
 0004:000023e8       $pdata$_wrap_rebase_program$catch$2 000000018002c3e8     segment.obj
 0004:000023f4       $pdata$_wrap_rebase_program$catch$1 000000018002c3f4     segment.obj
 0004:00002400       $pdata$_wrap_rebase_program$catch$0 000000018002c400     segment.obj
 0004:0000240c       $pdata$SWIG_InitializeModule 000000018002c40c     segment.obj
 0004:00002418       $pdata$1$SWIG_InitializeModule 000000018002c418     segment.obj
 0004:00002424       $pdata$4$SWIG_InitializeModule 000000018002c424     segment.obj
 0004:00002430       $pdata$5$SWIG_InitializeModule 000000018002c430     segment.obj
 0004:0000243c       $pdata$6$SWIG_InitializeModule 000000018002c43c     segment.obj
 0004:00002448       $pdata$SWIG_Python_FixMethods 000000018002c448     segment.obj
 0004:00002454       $pdata$4$SWIG_Python_FixMethods 000000018002c454     segment.obj
 0004:00002460       $pdata$5$SWIG_Python_FixMethods 000000018002c460     segment.obj
 0004:0000246c       $pdata$PyInit__ida_segment 000000018002c46c     segment.obj
 0004:00002478       $pdata$1$PyInit__ida_segment 000000018002c478     segment.obj
 0004:00002484       $pdata$2$PyInit__ida_segment 000000018002c484     segment.obj
 0004:00002490       $pdata$3$PyInit__ida_segment 000000018002c490     segment.obj
 0004:0000249c       $pdata$4$PyInit__ida_segment 000000018002c49c     segment.obj
 0004:000024a8       $pdata$??2@YAPEAX_K@Z      000000018002c4a8     MSVCRT:new_scalar.obj
 0004:000024b4       $pdata$_Init_thread_header 000000018002c4b4     MSVCRT:thread_safe_statics.obj
 0004:000024c0       $pdata$_Init_thread_footer 000000018002c4c0     MSVCRT:thread_safe_statics.obj
 0004:000024cc       $pdata$_Init_thread_wait   000000018002c4cc     MSVCRT:thread_safe_statics.obj
 0004:000024d8       $pdata$_Init_thread_notify 000000018002c4d8     MSVCRT:thread_safe_statics.obj
 0004:000024e4       $pdata$?__scrt_uninitialize_thread_safe_statics@@YAXXZ 000000018002c4e4     MSVCRT:thread_safe_statics.obj
 0004:000024f0       $pdata$?__scrt_initialize_thread_safe_statics@@YAHXZ 000000018002c4f0     MSVCRT:thread_safe_statics.obj
 0004:000024fc       $pdata$__GSHandlerCheckCommon 000000018002c4fc     MSVCRT:gshandler.obj
 0004:00002508       $pdata$__GSHandlerCheck    000000018002c508     MSVCRT:gshandler.obj
 0004:00002514       $pdata$__GSHandlerCheck_EH 000000018002c514     MSVCRT:gshandlereh.obj
 0004:0000252c       $pdata$??_Gtype_info@@UEAAPEAXI@Z 000000018002c52c     MSVCRT:std_type_info_static.obj
 0004:00002538       $pdata$?dllmain_crt_process_attach@@YAHQEAUHINSTANCE__@@QEAX@Z 000000018002c538     MSVCRT:dll_dllmain.obj
 0004:00002544       $pdata$?fin$0@?0??dllmain_crt_process_attach@@YAHQEAUHINSTANCE__@@QEAX@Z@4HA 000000018002c544     MSVCRT:dll_dllmain.obj
 0004:00002550       $pdata$?dllmain_crt_process_detach@@YAH_N@Z 000000018002c550     MSVCRT:dll_dllmain.obj
 0004:0000255c       $pdata$?fin$0@?0??dllmain_crt_process_detach@@YAH_N@Z@4HA 000000018002c55c     MSVCRT:dll_dllmain.obj
 0004:00002568       $pdata$?dllmain_crt_dispatch@@YAHQEAUHINSTANCE__@@KQEAX@Z 000000018002c568     MSVCRT:dll_dllmain.obj
 0004:00002574       $pdata$?dllmain_dispatch@@YAHQEAUHINSTANCE__@@KQEAX@Z 000000018002c574     MSVCRT:dll_dllmain.obj
 0004:00002580       $pdata$?filt$0@?0??dllmain_dispatch@@YAHQEAUHINSTANCE__@@KQEAX@Z@4HA 000000018002c580     MSVCRT:dll_dllmain.obj
 0004:0000258c       $pdata$_DllMainCRTStartup  000000018002c58c     MSVCRT:dll_dllmain.obj
 0004:00002598       $pdata$??0exception@std@@QEAA@AEBV01@@Z 000000018002c598     MSVCRT:throw_bad_alloc.obj
 0004:000025a4       $pdata$??_Gexception@std@@UEAAPEAXI@Z 000000018002c5a4     MSVCRT:throw_bad_alloc.obj
 0004:000025a4       $pdata$??_Gbad_alloc@std@@UEAAPEAXI@Z 000000018002c5a4     MSVCRT:throw_bad_alloc.obj
 0004:000025a4       $pdata$??_Gbad_array_new_length@std@@UEAAPEAXI@Z 000000018002c5a4     MSVCRT:throw_bad_alloc.obj
 0004:000025b0       $pdata$??0bad_alloc@std@@QEAA@AEBV01@@Z 000000018002c5b0     MSVCRT:throw_bad_alloc.obj
 0004:000025bc       $pdata$??0bad_array_new_length@std@@QEAA@AEBV01@@Z 000000018002c5bc     MSVCRT:throw_bad_alloc.obj
 0004:000025c8       $pdata$?__scrt_throw_std_bad_alloc@@YAXXZ 000000018002c5c8     MSVCRT:throw_bad_alloc.obj
 0004:000025d4       $pdata$?__scrt_throw_std_bad_array_new_length@@YAXXZ 000000018002c5d4     MSVCRT:throw_bad_alloc.obj
 0004:000025e0       $pdata$atexit              000000018002c5e0     MSVCRT:utility.obj
 0004:000025ec       $pdata$_onexit             000000018002c5ec     MSVCRT:utility.obj
 0004:000025f8       $pdata$__scrt_is_nonwritable_in_current_image 000000018002c5f8     MSVCRT:utility.obj
 0004:00002604       $pdata$__scrt_is_nonwritable_in_current_image$filt$0 000000018002c604     MSVCRT:utility.obj
 0004:00002610       $pdata$__scrt_acquire_startup_lock 000000018002c610     MSVCRT:utility.obj
 0004:0000261c       $pdata$__scrt_release_startup_lock 000000018002c61c     MSVCRT:utility.obj
 0004:00002628       $pdata$__scrt_initialize_crt 000000018002c628     MSVCRT:utility.obj
 0004:00002634       $pdata$__scrt_uninitialize_crt 000000018002c634     MSVCRT:utility.obj
 0004:00002640       $pdata$__scrt_initialize_onexit_tables 000000018002c640     MSVCRT:utility.obj
 0004:0000264c       $pdata$__scrt_dllmain_exception_filter 000000018002c64c     MSVCRT:utility.obj
 0004:00002658       $pdata$__scrt_dllmain_before_initialize_c 000000018002c658     MSVCRT:utility.obj
 0004:00002664       $pdata$__scrt_dllmain_after_initialize_c 000000018002c664     MSVCRT:utility.obj
 0004:00002670       $pdata$__scrt_dllmain_uninitialize_c 000000018002c670     MSVCRT:utility.obj
 0004:0000267c       $pdata$__scrt_dllmain_uninitialize_critical 000000018002c67c     MSVCRT:utility.obj
 0004:00002688       $pdata$__scrt_dllmain_crt_thread_attach 000000018002c688     MSVCRT:utility.obj
 0004:00002694       $pdata$__scrt_dllmain_crt_thread_detach 000000018002c694     MSVCRT:utility.obj
 0004:000026a0       $pdata$__scrt_fastfail     000000018002c6a0     MSVCRT:utility_desktop.obj
 0004:000026ac       $pdata$__report_gsfailure  000000018002c6ac     MSVCRT:gs_report.obj
 0004:000026b8       $pdata$capture_previous_context 000000018002c6b8     MSVCRT:gs_report.obj
 0004:000026c4       $pdata$__raise_securityfailure 000000018002c6c4     MSVCRT:gs_report.obj
 0004:000026d0       $pdata$__security_init_cookie 000000018002c6d0     MSVCRT:gs_support.obj
 0004:000026dc       $pdata$DllMain             000000018002c6dc     MSVCRT:dll_dllmain_stub.obj
 0004:000026e8       $pdata$__scrt_initialize_default_local_stdio_options 000000018002c6e8     MSVCRT:default_local_stdio_options.obj
 0004:000026f4       $pdata$_RTC_Initialize     000000018002c6f4     MSVCRT:initsect.obj
 0004:00002700       $pdata$_RTC_Terminate      000000018002c700     MSVCRT:initsect.obj
 0004:0000270c       $pdata$__isa_available_init 000000018002c70c     MSVCRT:cpu_disp.obj
