 _ida_frame

 Timestamp is 5e3da083 (Fri Feb  7 17:38:11 2020)

 Preferred load address is 0000000180000000

 Start         Length     Name                   Class
 0001:00000000 00012710H .text$mn                CODE
 0001:00012710 00000020H .text$mn$00             CODE
 0001:00012730 00006903H .text$x                 CODE
 0002:00000000 000005a0H .idata$5                DATA
 0002:000005a0 00000010H .00cfg                  DATA
 0002:000005b0 00000008H .CRT$XCA                DATA
 0002:000005b8 00000008H .CRT$XCZ                DATA
 0002:000005c0 00000008H .CRT$XIA                DATA
 0002:000005c8 00000008H .CRT$XIC                DATA
 0002:000005d0 00000008H .CRT$XIZ                DATA
 0002:000005d8 00000008H .CRT$XLA                DATA
 0002:000005e0 00000008H .CRT$XLZ                DATA
 0002:000005e8 00000008H .CRT$XPA                DATA
 0002:000005f0 00000008H .CRT$XPZ                DATA
 0002:000005f8 00000008H .CRT$XTA                DATA
 0002:00000600 00000010H .CRT$XTZ                DATA
 0002:00000608 00000000H .gfids$y                DATA
 0002:00000610 00008f90H .rdata                  DATA
 0002:000095a0 00000028H .rdata$T                DATA
 0002:000095c8 000002fcH .rdata$r                DATA
 0002:000098c4 00000314H .rdata$zzzdbg           DATA
 0002:00009bd8 00000008H .rtc$IAA                DATA
 0002:00009be0 00000008H .rtc$IZZ                DATA
 0002:00009be8 00000008H .rtc$TAA                DATA
 0002:00009bf0 00000008H .rtc$TZZ                DATA
 0002:00009bf8 00000004H .tls                    DATA
 0002:00009bfc 00000004H .tls$                   DATA
 0002:00009c00 00000008H .tls$ZZZ                DATA
 0002:00009c08 00005608H .xdata                  DATA
 0002:0000f210 00000180H .xdata$x                DATA
 0002:0000f390 00000054H .edata                  DATA
 0002:0000f3e4 000000b4H .idata$2                DATA
 0002:0000f498 00000018H .idata$3                DATA
 0002:0000f4b0 000005a0H .idata$4                DATA
 0002:0000fa50 00000de0H .idata$6                DATA
 0003:00000000 000038b8H .data                   DATA
 0003:000038b8 00000148H .data$r                 DATA
 0003:00003a00 00000978H .bss                    DATA
 0004:00000000 00002604H .pdata                  DATA

  Address         Publics by Value              Rva+Base               Lib:Object

 0000:00000000       __volatile_metadata        0000000000000000     <absolute>
 0000:00000000       __enclave_config           0000000000000000     <absolute>
 0000:00000000       ___safe_se_handler_count   0000000000000000     <absolute>
 0000:00000000       __guard_iat_count          0000000000000000     <absolute>
 0000:00000000       __hybrid_code_map          0000000000000000     <absolute>
 0000:00000000       __dynamic_value_reloc_table 0000000000000000     <absolute>
 0000:00000000       __guard_longjmp_table      0000000000000000     <absolute>
 0000:00000000       __guard_longjmp_count      0000000000000000     <absolute>
 0000:00000000       __guard_iat_table          0000000000000000     <absolute>
 0000:00000000       ___safe_se_handler_table   0000000000000000     <absolute>
 0000:00000000       __guard_fids_table         0000000000000000     <absolute>
 0000:00000000       __hybrid_code_map_count    0000000000000000     <absolute>
 0000:00000000       __hybrid_auxiliary_iat     0000000000000000     <absolute>
 0000:00000000       __guard_fids_count         0000000000000000     <absolute>
 0000:00000100       __guard_flags              0000000000000100     <absolute>
 0000:00000000       __ImageBase                0000000180000000     <linker-defined>
 0001:0000cb20       ??0exception@std@@QEAA@AEBV01@@Z 000000018000db20 f i frame.obj
 0001:0000cb60       ??0logic_error@std@@QEAA@AEBV01@@Z 000000018000db60 f i frame.obj
 0001:0000cba0       ??0out_of_range@std@@QEAA@AEBV01@@Z 000000018000dba0 f i frame.obj
 0001:0000cbe0       ??0out_of_range@std@@QEAA@PEBD@Z 000000018000dbe0 f i frame.obj
 0001:0000cc30       ??1?$_qstring@D@@QEAA@XZ   000000018000dc30 f i frame.obj
 0001:0000cc40       ??1bad_array_new_length@std@@UEAA@XZ 000000018000dc40 f i MSVCRT:throw_bad_alloc.obj
 0001:0000cc40       ??1bad_alloc@std@@UEAA@XZ  000000018000dc40 f i MSVCRT:throw_bad_alloc.obj
 0001:0000cc40       ??1out_of_range@std@@UEAA@XZ 000000018000dc40 f i frame.obj
 0001:0000cc60       ??8?$qvector@Uxreflist_entry_t@@@@QEBA_NAEBV0@@Z 000000018000dc60 f i frame.obj
 0001:0000ccb0       ??_Glogic_error@std@@UEAAPEAXI@Z 000000018000dcb0 f i frame.obj
 0001:0000ccb0       ??_Gout_of_range@std@@UEAAPEAXI@Z 000000018000dcb0 f i frame.obj
 0001:0000ccb0       ??_Ebad_alloc@std@@UEAAPEAXI@Z 000000018000dcb0 f i MSVCRT:throw_bad_alloc.obj
 0001:0000ccb0       ??_Gbad_array_new_length@std@@UEAAPEAXI@Z 000000018000dcb0 f i MSVCRT:throw_bad_alloc.obj
 0001:0000ccb0       ??_Gbad_alloc@std@@UEAAPEAXI@Z 000000018000dcb0 f i MSVCRT:throw_bad_alloc.obj
 0001:0000ccb0       ??_Eexception@std@@UEAAPEAXI@Z 000000018000dcb0 f i frame.obj
 0001:0000ccb0       ??_Ebad_array_new_length@std@@UEAAPEAXI@Z 000000018000dcb0 f i MSVCRT:throw_bad_alloc.obj
 0001:0000ccb0       ??_Elogic_error@std@@UEAAPEAXI@Z 000000018000dcb0 f i frame.obj
 0001:0000ccb0       ??_Eout_of_range@std@@UEAAPEAXI@Z 000000018000dcb0 f i frame.obj
 0001:0000ccb0       ??_Gexception@std@@UEAAPEAXI@Z 000000018000dcb0 f i frame.obj
 0001:0000d200       ?find@?$qvector@Uxreflist_entry_t@@@@QEAAPEAUxreflist_entry_t@@AEBU2@@Z 000000018000e200 f i frame.obj
 0001:0000d200       ?find@?$qvector@Uxreflist_entry_t@@@@QEBAPEBUxreflist_entry_t@@AEBU2@@Z 000000018000e200 f i frame.obj
 0001:0000d240       ?has@?$qvector@Uxreflist_entry_t@@@@QEBA_NAEBUxreflist_entry_t@@@Z 000000018000e240 f i frame.obj
 0001:0000d280       ?push_back@?$qvector@Uxreflist_entry_t@@@@QEAAXAEBUxreflist_entry_t@@@Z 000000018000e280 f i frame.obj
 0001:0000d2e0       ?resize@?$qvector@Uxreflist_entry_t@@@@QEAAX_KAEBUxreflist_entry_t@@@Z 000000018000e2e0 f i frame.obj
 0001:0000d370       ?sprnt@?$_qstring@D@@QEAAAEAV1@PEBDZZ 000000018000e370 f i frame.obj
 0001:0000d430       ?what@exception@std@@UEBAPEBDXZ 000000018000e430 f i frame.obj
 0001:0000d450       PyInit__ida_frame          000000018000e450 f   frame.obj
 0001:0000eed0       __local_stdio_printf_options 000000018000fed0 f i frame.obj
 0001:00011220       printf                     0000000180012220 f i frame.obj
 0001:00011275       qrealloc                   0000000180012275 f   ida:ida.dll
 0001:0001127b       qfree                      000000018001227b f   ida:ida.dll
 0001:00011281       qvsnprintf                 0000000180012281 f   ida:ida.dll
 0001:00011287       qalloc_or_throw            0000000180012287 f   ida:ida.dll
 0001:0001128d       qvector_reserve            000000018001228d f   ida:ida.dll
 0001:00011293       is_main_thread             0000000180012293 f   ida:ida.dll
 0001:00011299       get_func                   0000000180012299 f   ida:ida.dll
 0001:0001129f       add_frame                  000000018001229f f   ida:ida.dll
 0001:000112a5       del_frame                  00000001800122a5 f   ida:ida.dll
 0001:000112ab       set_frame_size             00000001800122ab f   ida:ida.dll
 0001:000112b1       get_frame_size             00000001800122b1 f   ida:ida.dll
 0001:000112b7       get_frame_retsize          00000001800122b7 f   ida:ida.dll
 0001:000112bd       get_frame_part             00000001800122bd f   ida:ida.dll
 0001:000112c3       get_frame                  00000001800122c3 f   ida:ida.dll
 0001:000112c9       update_fpd                 00000001800122c9 f   ida:ida.dll
 0001:000112cf       set_purged                 00000001800122cf f   ida:ida.dll
 0001:000112d5       get_func_by_frame          00000001800122d5 f   ida:ida.dll
 0001:000112db       get_stkvar                 00000001800122db f   ida:ida.dll
 0001:000112e1       define_stkvar              00000001800122e1 f   ida:ida.dll
 0001:000112e7       build_stkvar_name          00000001800122e7 f   ida:ida.dll
 0001:000112ed       calc_stkvar_struc_offset   00000001800122ed f   ida:ida.dll
 0001:000112f3       add_regvar                 00000001800122f3 f   ida:ida.dll
 0001:000112f9       find_regvar                00000001800122f9 f   ida:ida.dll
 0001:000112ff       rename_regvar              00000001800122ff f   ida:ida.dll
 0001:00011305       set_regvar_cmt             0000000180012305 f   ida:ida.dll
 0001:0001130b       del_regvar                 000000018001230b f   ida:ida.dll
 0001:00011311       add_auto_stkpnt            0000000180012311 f   ida:ida.dll
 0001:00011317       add_user_stkpnt            0000000180012317 f   ida:ida.dll
 0001:0001131d       del_stkpnt                 000000018001231d f   ida:ida.dll
 0001:00011323       get_spd                    0000000180012323 f   ida:ida.dll
 0001:00011329       get_effective_spd          0000000180012329 f   ida:ida.dll
 0001:0001132f       get_sp_delta               000000018001232f f   ida:ida.dll
 0001:00011335       recalc_spd                 0000000180012335 f   ida:ida.dll
 0001:0001133b       build_stkvar_xrefs         000000018001233b f   ida:ida.dll
 0001:00011341       get_min_spd_ea             0000000180012341 f   ida:ida.dll
 0001:00011347       delete_unreferenced_stkvars 0000000180012347 f   ida:ida.dll
 0001:0001134d       delete_wrong_stkvar_ops    000000018001234d f   ida:ida.dll
 0001:00011353       PyW_GetNumber              0000000180012353 f   python:python.dll
 0001:0001135c       ??2@YAPEAX_K@Z             000000018001235c f   MSVCRT:new_scalar.obj
 0001:00011398       ??_V@YAXPEAX@Z             0000000180012398 f   MSVCRT:delete_array.obj
 0001:00011398       ??3@YAXPEAX_K@Z            0000000180012398 f   MSVCRT:delete_scalar_size.obj
 0001:000113a0       ??_U@YAPEAX_K@Z            00000001800123a0 f   MSVCRT:new_array.obj
 0001:00011530       _Init_thread_footer        0000000180012530 f   MSVCRT:thread_safe_statics.obj
 0001:00011590       _Init_thread_header        0000000180012590 f   MSVCRT:thread_safe_statics.obj
 0001:000115f8       _Init_thread_notify        00000001800125f8 f   MSVCRT:thread_safe_statics.obj
 0001:00011648       _Init_thread_wait          0000000180012648 f   MSVCRT:thread_safe_statics.obj
 0001:000116c0       __GSHandlerCheck           00000001800126c0 f   MSVCRT:gshandler.obj
 0001:000116e0       __GSHandlerCheckCommon     00000001800126e0 f   MSVCRT:gshandler.obj
 0001:0001173c       __GSHandlerCheck_EH        000000018001273c f   MSVCRT:gshandlereh.obj
 0001:000117d0       __security_check_cookie    00000001800127d0 f   MSVCRT:amdsecgs.obj
 0001:000117f4       ??_Gtype_info@@UEAAPEAXI@Z 00000001800127f4 f i MSVCRT:std_type_info_static.obj
 0001:000117f4       ??_Etype_info@@UEAAPEAXI@Z 00000001800127f4 f i MSVCRT:std_type_info_static.obj
 0001:00011b50       _DllMainCRTStartup         0000000180012b50 f   MSVCRT:dll_dllmain.obj
 0001:00011b90       ??0bad_alloc@std@@QEAA@AEBV01@@Z 0000000180012b90 f i MSVCRT:throw_bad_alloc.obj
 0001:00011bd0       ??0bad_alloc@std@@QEAA@XZ  0000000180012bd0 f i MSVCRT:throw_bad_alloc.obj
 0001:00011bf0       ??0bad_array_new_length@std@@QEAA@AEBV01@@Z 0000000180012bf0 f i MSVCRT:throw_bad_alloc.obj
 0001:00011c30       ??0bad_array_new_length@std@@QEAA@XZ 0000000180012c30 f i MSVCRT:throw_bad_alloc.obj
 0001:00011c50       ?__scrt_throw_std_bad_alloc@@YAXXZ 0000000180012c50 f   MSVCRT:throw_bad_alloc.obj
 0001:00011c70       ?__scrt_throw_std_bad_array_new_length@@YAXXZ 0000000180012c70 f   MSVCRT:throw_bad_alloc.obj
 0001:00011c90       ??3@YAXPEAX@Z              0000000180012c90 f   MSVCRT:delete_scalar.obj
 0001:00011c98       __scrt_acquire_startup_lock 0000000180012c98 f   MSVCRT:utility.obj
 0001:00011cd4       __scrt_dllmain_after_initialize_c 0000000180012cd4 f   MSVCRT:utility.obj
 0001:00011d08       __scrt_dllmain_before_initialize_c 0000000180012d08 f   MSVCRT:utility.obj
 0001:00011d20       __scrt_dllmain_crt_thread_attach 0000000180012d20 f   MSVCRT:utility.obj
 0001:00011d48       __scrt_dllmain_crt_thread_detach 0000000180012d48 f   MSVCRT:utility.obj
 0001:00011d60       __scrt_dllmain_exception_filter 0000000180012d60 f   MSVCRT:utility.obj
 0001:00011dc0       __scrt_dllmain_uninitialize_c 0000000180012dc0 f   MSVCRT:utility.obj
 0001:00011df0       __scrt_dllmain_uninitialize_critical 0000000180012df0 f   MSVCRT:utility.obj
 0001:00011e04       __scrt_initialize_crt      0000000180012e04 f   MSVCRT:utility.obj
 0001:00011e50       __scrt_initialize_onexit_tables 0000000180012e50 f   MSVCRT:utility.obj
 0001:00011f28       __scrt_is_nonwritable_in_current_image 0000000180012f28 f   MSVCRT:utility.obj
 0001:00011fc4       __scrt_release_startup_lock 0000000180012fc4 f   MSVCRT:utility.obj
 0001:00011fe8       __scrt_uninitialize_crt    0000000180012fe8 f   MSVCRT:utility.obj
 0001:00012014       _onexit                    0000000180013014 f   MSVCRT:utility.obj
 0001:00012064       atexit                     0000000180013064 f   MSVCRT:utility.obj
 0001:0001207c       __crt_debugger_hook        000000018001307c f   MSVCRT:utility_desktop.obj
 0001:00012084       __scrt_fastfail            0000000180013084 f   MSVCRT:utility_desktop.obj
 0001:000121d0       _guard_check_icall_nop     00000001800131d0 f i MSVCRT:guard_support.obj
 0001:000121d4       __raise_securityfailure    00000001800131d4 f   MSVCRT:gs_report.obj
 0001:00012208       __report_gsfailure         0000000180013208 f   MSVCRT:gs_report.obj
 0001:00012350       __security_init_cookie     0000000180013350 f   MSVCRT:gs_support.obj
 0001:000123fc       DllMain                    00000001800133fc f   MSVCRT:dll_dllmain_stub.obj
 0001:00012420       ?__scrt_initialize_type_info@@YAXXZ 0000000180013420 f   MSVCRT:tncleanup.obj
 0001:00012430       ?__scrt_uninitialize_type_info@@YAXXZ 0000000180013430 f   MSVCRT:tncleanup.obj
 0001:0001243c       __local_stdio_scanf_options 000000018001343c f i MSVCRT:default_local_stdio_options.obj
 0001:00012444       __scrt_initialize_default_local_stdio_options 0000000180013444 f   MSVCRT:default_local_stdio_options.obj
 0001:00012460       __scrt_get_dyn_tls_init_callback 0000000180013460 f   MSVCRT:dyn_tls_init.obj
 0001:00012468       _RTC_Initialize            0000000180013468 f   MSVCRT:initsect.obj
 0001:000124a4       _RTC_Terminate             00000001800134a4 f   MSVCRT:initsect.obj
 0001:000124e0       __isa_available_init       00000001800134e0 f   MSVCRT:cpu_disp.obj
 0001:0001265c       _get_startup_argv_mode     000000018001365c f   MSVCRT:argv_mode.obj
 0001:00012664       __scrt_is_ucrt_dll_in_use  0000000180013664 f   MSVCRT:ucrt_detection.obj
 0001:00012670       IsProcessorFeaturePresent  0000000180013670 f   kernel32:KERNEL32.dll
 0001:00012676       strstr                     0000000180013676 f   vcruntime:VCRUNTIME140.dll
 0001:0001267c       __std_exception_copy       000000018001367c f   vcruntime:VCRUNTIME140.dll
 0001:00012682       __std_exception_destroy    0000000180013682 f   vcruntime:VCRUNTIME140.dll
 0001:00012688       _CxxThrowException         0000000180013688 f   vcruntime:VCRUNTIME140.dll
 0001:0001268e       __CxxFrameHandler3         000000018001368e f   vcruntime:VCRUNTIME140.dll
 0001:00012694       memcpy                     0000000180013694 f   vcruntime:VCRUNTIME140.dll
 0001:0001269a       memmove                    000000018001369a f   vcruntime:VCRUNTIME140.dll
 0001:000126a0       memset                     00000001800136a0 f   vcruntime:VCRUNTIME140.dll
 0001:000126a6       __std_terminate            00000001800136a6 f   vcruntime:VCRUNTIME140.dll
 0001:000126ac       __C_specific_handler       00000001800136ac f   vcruntime:VCRUNTIME140.dll
 0001:000126b2       __std_type_info_destroy_list 00000001800136b2 f   vcruntime:VCRUNTIME140.dll
 0001:000126b8       free                       00000001800136b8 f   ucrt:api-ms-win-crt-heap-l1-1-0.dll
 0001:000126be       malloc                     00000001800136be f   ucrt:api-ms-win-crt-heap-l1-1-0.dll
 0001:000126c4       _callnewh                  00000001800136c4 f   ucrt:api-ms-win-crt-heap-l1-1-0.dll
 0001:000126ca       _initterm                  00000001800136ca f   ucrt:api-ms-win-crt-runtime-l1-1-0.dll
 0001:000126d0       _initterm_e                00000001800136d0 f   ucrt:api-ms-win-crt-runtime-l1-1-0.dll
 0001:000126d6       _seh_filter_dll            00000001800136d6 f   ucrt:api-ms-win-crt-runtime-l1-1-0.dll
 0001:000126dc       _configure_narrow_argv     00000001800136dc f   ucrt:api-ms-win-crt-runtime-l1-1-0.dll
 0001:000126e2       _initialize_narrow_environment 00000001800136e2 f   ucrt:api-ms-win-crt-runtime-l1-1-0.dll
 0001:000126e8       _initialize_onexit_table   00000001800136e8 f   ucrt:api-ms-win-crt-runtime-l1-1-0.dll
 0001:000126ee       _register_onexit_function  00000001800136ee f   ucrt:api-ms-win-crt-runtime-l1-1-0.dll
 0001:000126f4       _execute_onexit_table      00000001800136f4 f   ucrt:api-ms-win-crt-runtime-l1-1-0.dll
 0001:000126fa       _crt_atexit                00000001800136fa f   ucrt:api-ms-win-crt-runtime-l1-1-0.dll
 0001:00012700       _cexit                     0000000180013700 f   ucrt:api-ms-win-crt-runtime-l1-1-0.dll
 0001:00012708       __acrt_thread_detach       0000000180013708 f   MSVCRT:ucrt_stubs.obj
 0001:00012708       __vcrt_thread_detach       0000000180013708 f   MSVCRT:ucrt_stubs.obj
 0001:00012708       __vcrt_initialize          0000000180013708 f   MSVCRT:ucrt_stubs.obj
 0001:00012708       __vcrt_thread_attach       0000000180013708 f   MSVCRT:ucrt_stubs.obj
 0001:00012708       __scrt_stub_for_acrt_initialize 0000000180013708 f   MSVCRT:ucrt_stubs.obj
 0001:00012708       __acrt_uninitialize_critical 0000000180013708 f   MSVCRT:ucrt_stubs.obj
 0001:00012708       __acrt_uninitialize        0000000180013708 f   MSVCRT:ucrt_stubs.obj
 0001:00012708       __scrt_stub_for_acrt_thread_attach 0000000180013708 f   MSVCRT:ucrt_stubs.obj
 0001:00012708       __scrt_stub_for_acrt_uninitialize_critical 0000000180013708 f   MSVCRT:ucrt_stubs.obj
 0001:00012708       __vcrt_uninitialize        0000000180013708 f   MSVCRT:ucrt_stubs.obj
 0001:00012708       __vcrt_uninitialize_critical 0000000180013708 f   MSVCRT:ucrt_stubs.obj
 0001:00012708       __acrt_initialize          0000000180013708 f   MSVCRT:ucrt_stubs.obj
 0001:00012708       __scrt_stub_for_acrt_thread_detach 0000000180013708 f   MSVCRT:ucrt_stubs.obj
 0001:00012708       __acrt_thread_attach       0000000180013708 f   MSVCRT:ucrt_stubs.obj
 0001:00012708       __scrt_stub_for_acrt_uninitialize 0000000180013708 f   MSVCRT:ucrt_stubs.obj
 0001:0001270c       _is_c_termination_complete 000000018001370c f   MSVCRT:ucrt_stubs.obj
 0001:0001270c       __scrt_stub_for_is_c_termination_complete 000000018001370c f   MSVCRT:ucrt_stubs.obj
 0001:00012720       _guard_dispatch_icall_nop  0000000180013720 f   MSVCRT:guard_dispatch.obj
 0002:00000000       __imp_CloseHandle          000000018001b000     kernel32:KERNEL32.dll
 0002:00000008       __imp_EnterCriticalSection 000000018001b008     kernel32:KERNEL32.dll
 0002:00000010       __imp_LeaveCriticalSection 000000018001b010     kernel32:KERNEL32.dll
 0002:00000018       __imp_InitializeCriticalSectionAndSpinCount 000000018001b018     kernel32:KERNEL32.dll
 0002:00000020       __imp_DeleteCriticalSection 000000018001b020     kernel32:KERNEL32.dll
 0002:00000028       __imp_SetEvent             000000018001b028     kernel32:KERNEL32.dll
 0002:00000030       __imp_ResetEvent           000000018001b030     kernel32:KERNEL32.dll
 0002:00000038       __imp_WaitForSingleObjectEx 000000018001b038     kernel32:KERNEL32.dll
 0002:00000040       __imp_CreateEventW         000000018001b040     kernel32:KERNEL32.dll
 0002:00000048       __imp_GetModuleHandleW     000000018001b048     kernel32:KERNEL32.dll
 0002:00000050       __imp_GetProcAddress       000000018001b050     kernel32:KERNEL32.dll
 0002:00000058       __imp_RtlCaptureContext    000000018001b058     kernel32:KERNEL32.dll
 0002:00000060       __imp_RtlLookupFunctionEntry 000000018001b060     kernel32:KERNEL32.dll
 0002:00000068       __imp_RtlVirtualUnwind     000000018001b068     kernel32:KERNEL32.dll
 0002:00000070       __imp_IsDebuggerPresent    000000018001b070     kernel32:KERNEL32.dll
 0002:00000078       __imp_UnhandledExceptionFilter 000000018001b078     kernel32:KERNEL32.dll
 0002:00000080       __imp_SetUnhandledExceptionFilter 000000018001b080     kernel32:KERNEL32.dll
 0002:00000088       __imp_IsProcessorFeaturePresent 000000018001b088     kernel32:KERNEL32.dll
 0002:00000090       __imp_GetCurrentProcess    000000018001b090     kernel32:KERNEL32.dll
 0002:00000098       __imp_TerminateProcess     000000018001b098     kernel32:KERNEL32.dll
 0002:000000a0       __imp_QueryPerformanceCounter 000000018001b0a0     kernel32:KERNEL32.dll
 0002:000000a8       __imp_GetCurrentProcessId  000000018001b0a8     kernel32:KERNEL32.dll
 0002:000000b0       __imp_GetCurrentThreadId   000000018001b0b0     kernel32:KERNEL32.dll
 0002:000000b8       __imp_GetSystemTimeAsFileTime 000000018001b0b8     kernel32:KERNEL32.dll
 0002:000000c0       __imp_DisableThreadLibraryCalls 000000018001b0c0     kernel32:KERNEL32.dll
 0002:000000c8       __imp_InitializeSListHead  000000018001b0c8     kernel32:KERNEL32.dll
 0002:000000d0       \177KERNEL32_NULL_THUNK_DATA 000000018001b0d0     kernel32:KERNEL32.dll
 0002:000000d8       __imp_strstr               000000018001b0d8     vcruntime:VCRUNTIME140.dll
 0002:000000e0       __imp___std_exception_copy 000000018001b0e0     vcruntime:VCRUNTIME140.dll
 0002:000000e8       __imp___std_exception_destroy 000000018001b0e8     vcruntime:VCRUNTIME140.dll
 0002:000000f0       __imp__CxxThrowException   000000018001b0f0     vcruntime:VCRUNTIME140.dll
 0002:000000f8       __imp___CxxFrameHandler3   000000018001b0f8     vcruntime:VCRUNTIME140.dll
 0002:00000100       __imp_memcpy               000000018001b100     vcruntime:VCRUNTIME140.dll
 0002:00000108       __imp_memmove              000000018001b108     vcruntime:VCRUNTIME140.dll
 0002:00000110       __imp_memset               000000018001b110     vcruntime:VCRUNTIME140.dll
 0002:00000118       __imp___std_terminate      000000018001b118     vcruntime:VCRUNTIME140.dll
 0002:00000120       __imp___C_specific_handler 000000018001b120     vcruntime:VCRUNTIME140.dll
 0002:00000128       __imp___std_type_info_destroy_list 000000018001b128     vcruntime:VCRUNTIME140.dll
 0002:00000130       \177VCRUNTIME140_NULL_THUNK_DATA 000000018001b130     vcruntime:VCRUNTIME140.dll
 0002:00000138       __imp_free                 000000018001b138     ucrt:api-ms-win-crt-heap-l1-1-0.dll
 0002:00000140       __imp__callnewh            000000018001b140     ucrt:api-ms-win-crt-heap-l1-1-0.dll
 0002:00000148       __imp_malloc               000000018001b148     ucrt:api-ms-win-crt-heap-l1-1-0.dll
 0002:00000150       \177api-ms-win-crt-heap-l1-1-0_NULL_THUNK_DATA 000000018001b150     ucrt:api-ms-win-crt-heap-l1-1-0.dll
 0002:00000158       __imp__crt_atexit          000000018001b158     ucrt:api-ms-win-crt-runtime-l1-1-0.dll
 0002:00000160       __imp__execute_onexit_table 000000018001b160     ucrt:api-ms-win-crt-runtime-l1-1-0.dll
 0002:00000168       __imp__cexit               000000018001b168     ucrt:api-ms-win-crt-runtime-l1-1-0.dll
 0002:00000170       __imp__initialize_onexit_table 000000018001b170     ucrt:api-ms-win-crt-runtime-l1-1-0.dll
 0002:00000178       __imp__initialize_narrow_environment 000000018001b178     ucrt:api-ms-win-crt-runtime-l1-1-0.dll
 0002:00000180       __imp__configure_narrow_argv 000000018001b180     ucrt:api-ms-win-crt-runtime-l1-1-0.dll
 0002:00000188       __imp__seh_filter_dll      000000018001b188     ucrt:api-ms-win-crt-runtime-l1-1-0.dll
 0002:00000190       __imp__initterm_e          000000018001b190     ucrt:api-ms-win-crt-runtime-l1-1-0.dll
 0002:00000198       __imp__initterm            000000018001b198     ucrt:api-ms-win-crt-runtime-l1-1-0.dll
 0002:000001a0       __imp__register_onexit_function 000000018001b1a0     ucrt:api-ms-win-crt-runtime-l1-1-0.dll
 0002:000001a8       \177api-ms-win-crt-runtime-l1-1-0_NULL_THUNK_DATA 000000018001b1a8     ucrt:api-ms-win-crt-runtime-l1-1-0.dll
 0002:000001b0       __imp___acrt_iob_func      000000018001b1b0     ucrt:api-ms-win-crt-stdio-l1-1-0.dll
 0002:000001b8       __imp___stdio_common_vfprintf 000000018001b1b8     ucrt:api-ms-win-crt-stdio-l1-1-0.dll
 0002:000001c0       \177api-ms-win-crt-stdio-l1-1-0_NULL_THUNK_DATA 000000018001b1c0     ucrt:api-ms-win-crt-stdio-l1-1-0.dll
 0002:000001c8       __imp_strncmp              000000018001b1c8     ucrt:api-ms-win-crt-string-l1-1-0.dll
 0002:000001d0       \177api-ms-win-crt-string-l1-1-0_NULL_THUNK_DATA 000000018001b1d0     ucrt:api-ms-win-crt-string-l1-1-0.dll
 0002:000001d8       __imp_delete_wrong_stkvar_ops 000000018001b1d8     ida:ida.dll
 0002:000001e0       __imp_delete_unreferenced_stkvars 000000018001b1e0     ida:ida.dll
 0002:000001e8       __imp_get_min_spd_ea       000000018001b1e8     ida:ida.dll
 0002:000001f0       __imp_build_stkvar_xrefs   000000018001b1f0     ida:ida.dll
 0002:000001f8       __imp_recalc_spd           000000018001b1f8     ida:ida.dll
 0002:00000200       __imp_get_sp_delta         000000018001b200     ida:ida.dll
 0002:00000208       __imp_ph                   000000018001b208     ida:ida.dll
 0002:00000210       __imp_get_spd              000000018001b210     ida:ida.dll
 0002:00000218       __imp_del_stkpnt           000000018001b218     ida:ida.dll
 0002:00000220       __imp_add_user_stkpnt      000000018001b220     ida:ida.dll
 0002:00000228       __imp_add_auto_stkpnt      000000018001b228     ida:ida.dll
 0002:00000230       __imp_del_regvar           000000018001b230     ida:ida.dll
 0002:00000238       __imp_set_regvar_cmt       000000018001b238     ida:ida.dll
 0002:00000240       __imp_rename_regvar        000000018001b240     ida:ida.dll
 0002:00000248       __imp_find_regvar          000000018001b248     ida:ida.dll
 0002:00000250       __imp_get_effective_spd    000000018001b250     ida:ida.dll
 0002:00000258       __imp_calc_stkvar_struc_offset 000000018001b258     ida:ida.dll
 0002:00000260       __imp_build_stkvar_name    000000018001b260     ida:ida.dll
 0002:00000268       __imp_define_stkvar        000000018001b268     ida:ida.dll
 0002:00000270       __imp_get_stkvar           000000018001b270     ida:ida.dll
 0002:00000278       __imp_get_func_by_frame    000000018001b278     ida:ida.dll
 0002:00000280       __imp_set_purged           000000018001b280     ida:ida.dll
 0002:00000288       __imp_update_fpd           000000018001b288     ida:ida.dll
 0002:00000290       __imp_get_frame            000000018001b290     ida:ida.dll
 0002:00000298       __imp_get_frame_part       000000018001b298     ida:ida.dll
 0002:000002a0       __imp_get_frame_retsize    000000018001b2a0     ida:ida.dll
 0002:000002a8       __imp_get_frame_size       000000018001b2a8     ida:ida.dll
 0002:000002b0       __imp_set_frame_size       000000018001b2b0     ida:ida.dll
 0002:000002b8       __imp_del_frame            000000018001b2b8     ida:ida.dll
 0002:000002c0       __imp_qrealloc             000000018001b2c0     ida:ida.dll
 0002:000002c8       __imp_add_frame            000000018001b2c8     ida:ida.dll
 0002:000002d0       __imp_get_func             000000018001b2d0     ida:ida.dll
 0002:000002d8       __imp_is_main_thread       000000018001b2d8     ida:ida.dll
 0002:000002e0       __imp_qvector_reserve      000000018001b2e0     ida:ida.dll
 0002:000002e8       __imp_qalloc_or_throw      000000018001b2e8     ida:ida.dll
 0002:000002f0       __imp_qvsnprintf           000000018001b2f0     ida:ida.dll
 0002:000002f8       __imp_qfree                000000018001b2f8     ida:ida.dll
 0002:00000300       __imp_add_regvar           000000018001b300     ida:ida.dll
 0002:00000308       \177ida_NULL_THUNK_DATA    000000018001b308     ida:ida.dll
 0002:00000310       __imp_PyW_GetNumber        000000018001b310     python:python.dll
 0002:00000318       \177python_NULL_THUNK_DATA 000000018001b318     python:python.dll
 0002:00000320       __imp_PyType_Type          000000018001b320     python38:python38.dll
 0002:00000328       __imp__Py_NoneStruct       000000018001b328     python38:python38.dll
 0002:00000330       __imp__Py_NotImplementedStruct 000000018001b330     python38:python38.dll
 0002:00000338       __imp_PyBool_Type          000000018001b338     python38:python38.dll
 0002:00000340       __imp_PyExc_AttributeError 000000018001b340     python38:python38.dll
 0002:00000348       __imp_PyExc_IndexError     000000018001b348     python38:python38.dll
 0002:00000350       __imp_PyExc_MemoryError    000000018001b350     python38:python38.dll
 0002:00000358       __imp_PyObject_IsInstance  000000018001b358     python38:python38.dll
 0002:00000360       __imp_PyExc_RuntimeError   000000018001b360     python38:python38.dll
 0002:00000368       __imp_PyExc_SyntaxError    000000018001b368     python38:python38.dll
 0002:00000370       __imp_PyExc_SystemError    000000018001b370     python38:python38.dll
 0002:00000378       __imp_PyExc_TypeError      000000018001b378     python38:python38.dll
 0002:00000380       __imp_PyExc_ValueError     000000018001b380     python38:python38.dll
 0002:00000388       __imp_PyExc_ZeroDivisionError 000000018001b388     python38:python38.dll
 0002:00000390       __imp_PyExc_IOError        000000018001b390     python38:python38.dll
 0002:00000398       __imp_PyObject_CallFunctionObjArgs 000000018001b398     python38:python38.dll
 0002:000003a0       __imp_PyExc_OverflowError  000000018001b3a0     python38:python38.dll
 0002:000003a8       __imp_PyObject_Call        000000018001b3a8     python38:python38.dll
 0002:000003b0       __imp_PyImport_AddModule   000000018001b3b0     python38:python38.dll
 0002:000003b8       __imp_PyEval_InitThreads   000000018001b3b8     python38:python38.dll
 0002:000003c0       __imp_PyModule_Create2     000000018001b3c0     python38:python38.dll
 0002:000003c8       __imp_PyModule_AddObject   000000018001b3c8     python38:python38.dll
 0002:000003d0       __imp_Py_BuildValue        000000018001b3d0     python38:python38.dll
 0002:000003d8       __imp_PyArg_UnpackTuple    000000018001b3d8     python38:python38.dll
 0002:000003e0       __imp_PyGILState_Release   000000018001b3e0     python38:python38.dll
 0002:000003e8       __imp_PyGILState_Ensure    000000018001b3e8     python38:python38.dll
 0002:000003f0       __imp_PyErr_Format         000000018001b3f0     python38:python38.dll
 0002:000003f8       __imp_PyErr_GivenExceptionMatches 000000018001b3f8     python38:python38.dll
 0002:00000400       __imp_PyErr_Restore        000000018001b400     python38:python38.dll
 0002:00000408       __imp_PyErr_Fetch          000000018001b408     python38:python38.dll
 0002:00000410       __imp_PyErr_Clear          000000018001b410     python38:python38.dll
 0002:00000418       __imp_PyErr_Occurred       000000018001b418     python38:python38.dll
 0002:00000420       __imp_PyErr_SetString      000000018001b420     python38:python38.dll
 0002:00000428       __imp_PyCapsule_Import     000000018001b428     python38:python38.dll
 0002:00000430       __imp_PyCapsule_GetPointer 000000018001b430     python38:python38.dll
 0002:00000438       __imp_PyCapsule_New        000000018001b438     python38:python38.dll
 0002:00000440       __imp_PyModule_GetDict     000000018001b440     python38:python38.dll
 0002:00000448       __imp_PyCFunction_GetFlags 000000018001b448     python38:python38.dll
 0002:00000450       __imp_PyCFunction_GetSelf  000000018001b450     python38:python38.dll
 0002:00000458       __imp_PyCFunction_GetFunction 000000018001b458     python38:python38.dll
 0002:00000460       __imp_PyDict_SetItemString 000000018001b460     python38:python38.dll
 0002:00000468       __imp_PyDict_SetItem       000000018001b468     python38:python38.dll
 0002:00000470       __imp_PyDict_GetItem       000000018001b470     python38:python38.dll
 0002:00000478       __imp_PyDict_New           000000018001b478     python38:python38.dll
 0002:00000480       __imp_PyTuple_SetItem      000000018001b480     python38:python38.dll
 0002:00000488       __imp_PyTuple_GetItem      000000018001b488     python38:python38.dll
 0002:00000490       __imp_PyTuple_Size         000000018001b490     python38:python38.dll
 0002:00000498       __imp_PyTuple_New          000000018001b498     python38:python38.dll
 0002:000004a0       __imp_PyBool_FromLong      000000018001b4a0     python38:python38.dll
 0002:000004a8       __imp_PyLong_AsUnsignedLongLong 000000018001b4a8     python38:python38.dll
 0002:000004b0       __imp_PyLong_FromUnsignedLongLong 000000018001b4b0     python38:python38.dll
 0002:000004b8       __imp_PyLong_FromLongLong  000000018001b4b8     python38:python38.dll
 0002:000004c0       __imp_PyLong_FromVoidPtr   000000018001b4c0     python38:python38.dll
 0002:000004c8       __imp_PyLong_AsUnsignedLong 000000018001b4c8     python38:python38.dll
 0002:000004d0       __imp_PyLong_AsLong        000000018001b4d0     python38:python38.dll
 0002:000004d8       __imp_PyLong_FromSize_t    000000018001b4d8     python38:python38.dll
 0002:000004e0       __imp_PyLong_FromLong      000000018001b4e0     python38:python38.dll
 0002:000004e8       __imp_PyUnicode_CompareWithASCIIString 000000018001b4e8     python38:python38.dll
 0002:000004f0       __imp_PyUnicode_Concat     000000018001b4f0     python38:python38.dll
 0002:000004f8       __imp_PyUnicode_AsUTF8String 000000018001b4f8     python38:python38.dll
 0002:00000500       __imp_PyUnicode_DecodeUTF8 000000018001b500     python38:python38.dll
 0002:00000508       __imp_PyUnicode_FromFormat 000000018001b508     python38:python38.dll
 0002:00000510       __imp_PyUnicode_FromString 000000018001b510     python38:python38.dll
 0002:00000518       __imp_PyUnicode_FromStringAndSize 000000018001b518     python38:python38.dll
 0002:00000520       __imp_PyBytes_AsStringAndSize 000000018001b520     python38:python38.dll
 0002:00000528       __imp__PyObject_New        000000018001b528     python38:python38.dll
 0002:00000530       __imp_PyObject_Free        000000018001b530     python38:python38.dll
 0002:00000538       __imp_Py_DecRef            000000018001b538     python38:python38.dll
 0002:00000540       __imp__Py_Dealloc          000000018001b540     python38:python38.dll
 0002:00000548       __imp_PyObject_IsTrue      000000018001b548     python38:python38.dll
 0002:00000550       __imp_PyObject_GenericGetAttr 000000018001b550     python38:python38.dll
 0002:00000558       __imp_PyObject_SetAttr     000000018001b558     python38:python38.dll
 0002:00000560       __imp_PyObject_GetAttr     000000018001b560     python38:python38.dll
 0002:00000568       __imp_PyObject_GetAttrString 000000018001b568     python38:python38.dll
 0002:00000570       __imp_PyType_Modified      000000018001b570     python38:python38.dll
 0002:00000578       __imp_PyType_GetFlags      000000018001b578     python38:python38.dll
 0002:00000580       __imp_PyType_GetSlot       000000018001b580     python38:python38.dll
 0002:00000588       __imp_PyType_FromSpec      000000018001b588     python38:python38.dll
 0002:00000590       __imp_PyErr_WriteUnraisable 000000018001b590     python38:python38.dll
 0002:00000598       \177python38_NULL_THUNK_DATA 000000018001b598     python38:python38.dll
 0002:000005a0       __guard_check_icall_fptr   000000018001b5a0     MSVCRT:guard_support.obj
 0002:000005a8       __guard_dispatch_icall_fptr 000000018001b5a8     MSVCRT:guard_support.obj
 0002:000005b0       __xc_a                     000000018001b5b0     MSVCRT:initializers.obj
 0002:000005b8       __xc_z                     000000018001b5b8     MSVCRT:initializers.obj
 0002:000005c0       __xi_a                     000000018001b5c0     MSVCRT:initializers.obj
 0002:000005d0       __xi_z                     000000018001b5d0     MSVCRT:initializers.obj
 0002:000005d8       __xl_a                     000000018001b5d8     MSVCRT:tlssup.obj
 0002:000005e0       __xl_z                     000000018001b5e0     MSVCRT:tlssup.obj
 0002:000005e8       __xp_a                     000000018001b5e8     MSVCRT:initializers.obj
 0002:000005f0       __xp_z                     000000018001b5f0     MSVCRT:initializers.obj
 0002:000005f8       __xt_a                     000000018001b5f8     MSVCRT:initializers.obj
 0002:00000600       __xt_z                     000000018001b600     MSVCRT:initializers.obj
 0002:00000610       ??_C@_0BA@CKLFKJDD@stkpnt_t_ea_set@ 000000018001b610     frame.obj
 0002:00000620       ??_C@_0BB@INMODDPE@stkpnt_t_spd_set@ 000000018001b620     frame.obj
 0002:00000638       ??_C@_0BA@DMAMFCDC@stkpnt_t___lt__@ 000000018001b638     frame.obj
 0002:00000648       ??_C@_0N@KGCCLAAC@new_stkpnt_t@ 000000018001b648     frame.obj
 0002:00000658       ??_C@_0O@HLAHEGOJ@new_stkpnts_t@ 000000018001b658     frame.obj
 0002:00000668       ??_C@_09CEEDBHGP@add_frame@ 000000018001b668     frame.obj
 0002:00000678       ??_C@_0P@NEBMNOCH@set_frame_size@ 000000018001b678     frame.obj
 0002:00000688       ??_C@_0P@MFNMAEJM@get_frame_part@ 000000018001b688     frame.obj
 0002:00000698       ??_C@_0P@JCPCPOIM@is_funcarg_off@ 000000018001b698     frame.obj
 0002:000006a8       ??_C@_08EEOCOJB@lvar_off@  000000018001b6a8     frame.obj
 0002:000006b8       ??_C@_09ECJNECEA@get_frame@ 000000018001b6b8     frame.obj
 0002:000006c8       ??_C@_0L@EBPKBJFA@update_fpd@ 000000018001b6c8     frame.obj
 0002:000006d8       ??_C@_0L@DINGFBEC@set_purged@ 000000018001b6d8     frame.obj
 0002:000006e8       ??_C@_0O@KIFKBJEO@define_stkvar@ 000000018001b6e8     frame.obj
 0002:000006f8       ??_C@_0BC@GCHJEOMF@build_stkvar_name@ 000000018001b6f8     frame.obj
 0002:00000710       ??_C@_0BJ@CIOPADGO@calc_stkvar_struc_offset@ 000000018001b710     frame.obj
 0002:00000730       ??_C@_0BD@NKCHHJPM@regvar_t_canon_set@ 000000018001b730     frame.obj
 0002:00000748       ??_C@_0BC@HBHFKMDO@regvar_t_user_set@ 000000018001b748     frame.obj
 0002:00000760       ??_C@_0BB@EODJALIB@regvar_t_cmt_set@ 000000018001b760     frame.obj
 0002:00000778       ??_C@_0N@LHIKNEJA@new_regvar_t@ 000000018001b778     frame.obj
 0002:00000788       ??_C@_0L@ECDDCDLG@add_regvar@ 000000018001b788     frame.obj
 0002:00000798       ??_C@_0M@DIOPOMFB@find_regvar@ 000000018001b798     frame.obj
 0002:000007a8       ??_C@_0O@MKNPHFKH@rename_regvar@ 000000018001b7a8     frame.obj
 0002:000007b8       ??_C@_0P@DDMLCBHH@set_regvar_cmt@ 000000018001b7b8     frame.obj
 0002:000007c8       ??_C@_0L@GHHOEGNC@del_regvar@ 000000018001b7c8     frame.obj
 0002:000007d8       ??_C@_0BA@KKFIOLNF@llabel_t_ea_set@ 000000018001b7d8     frame.obj
 0002:000007e8       ??_C@_0BC@NALIEGHF@llabel_t_name_set@ 000000018001b7e8     frame.obj
 0002:00000800       ??_C@_0N@HCBGKFID@new_llabel_t@ 000000018001b800     frame.obj
 0002:00000810       ??_C@_0BA@PKKMAHBI@add_auto_stkpnt@ 000000018001b810     frame.obj
 0002:00000820       ??_C@_0BA@IIOEFECI@add_user_stkpnt@ 000000018001b820     frame.obj
 0002:00000830       ??_C@_0L@LEBOMODO@del_stkpnt@ 000000018001b830     frame.obj
 0002:00000840       ??_C@_07JPGHDEDK@get_spd@  000000018001b840     frame.obj
 0002:00000848       ??_C@_0BC@JBJLPKDJ@get_effective_spd@ 000000018001b848     frame.obj
 0002:00000860       ??_C@_0N@BJKEBCKJ@get_sp_delta@ 000000018001b860     frame.obj
 0002:00000870       ??_C@_0BI@NBJDGLDO@xreflist_entry_t_ea_set@ 000000018001b870     frame.obj
 0002:00000888       ??_C@_0BL@GBFDDOMI@xreflist_entry_t_opnum_set@ 000000018001b888     frame.obj
 0002:000008a8       ??_C@_0BK@BADDILMG@xreflist_entry_t_type_set@ 000000018001b8a8     frame.obj
 0002:000008c8       ??_C@_0BI@PNOEACHM@xreflist_entry_t___eq__@ 000000018001b8c8     frame.obj
 0002:000008e0       ??_C@_0BI@FFEPPDKF@xreflist_entry_t___ne__@ 000000018001b8e0     frame.obj
 0002:000008f8       ??_C@_0BF@PLGKABBP@new_xreflist_entry_t@ 000000018001b8f8     frame.obj
 0002:00000910       ??_C@_0BD@NKEDPPCG@build_stkvar_xrefs@ 000000018001b910     frame.obj
 0002:00000928       ??_C@_0CP@PAIINLPH@?6xreflist_t?$CI?$CJ?6new_xreflist_t?$CIx?$CJ@ 000000018001b928     frame.obj
 0002:00000958       ??_C@_0BC@BBLKCKED@delete_xreflist_t@ 000000018001b958     frame.obj
 0002:00000970       ??_C@_0BI@DEEMLILF@delete_xreflist_t?$CIself?$CJ@ 000000018001b970     frame.obj
 0002:00000990       ??_C@_0EP@EADNCDMI@?6xreflist_t_push_back?$CIself?0?5x?$CJ?6@ 000000018001b990     frame.obj
 0002:000009e0       ??_C@_0BE@DDOGNKJN@xreflist_t_pop_back@ 000000018001b9e0     frame.obj
 0002:000009f8       ??_C@_0BK@OOFOLHCD@xreflist_t_pop_back?$CIself?$CJ@ 000000018001b9f8     frame.obj
 0002:00000a18       ??_C@_0BA@NBDKMNPC@xreflist_t_size@ 000000018001ba18     frame.obj
 0002:00000a28       ??_C@_0CA@PBDEGMCE@xreflist_t_size?$CIself?$CJ?5?9?$DO?5size_t@ 000000018001ba28     frame.obj
 0002:00000a48       ??_C@_0BB@PPMJAFCH@xreflist_t_empty@ 000000018001ba48     frame.obj
 0002:00000a60       ??_C@_0BP@JDFJANNB@xreflist_t_empty?$CIself?$CJ?5?9?$DO?5bool@ 000000018001ba60     frame.obj
 0002:00000a80       ??_C@_0CO@JDKEDKFL@xreflist_t_at?$CIself?0?5_idx?$CJ?5?9?$DO?5xr@ 000000018001ba80     frame.obj
 0002:00000ab0       ??_C@_0BC@EOOHAGAG@xreflist_t_qclear@ 000000018001bab0     frame.obj
 0002:00000ac8       ??_C@_0BI@DBGPFPJN@xreflist_t_qclear?$CIself?$CJ@ 000000018001bac8     frame.obj
 0002:00000ae0       ??_C@_0BB@IKCONAHH@xreflist_t_clear@ 000000018001bae0     frame.obj
 0002:00000af8       ??_C@_0BH@GKEHJEBA@xreflist_t_clear?$CIself?$CJ@ 000000018001baf8     frame.obj
 0002:00000b10       ??_C@_0EJ@PNHNKGGB@?6xreflist_t_resize?$CIself?0?5_newsi@ 000000018001bb10     frame.obj
 0002:00000b60       ??_C@_0CM@KMFGAJHF@xreflist_t_grow?$CIself?0?5x?$DNxreflis@ 000000018001bb60     frame.obj
 0002:00000b90       ??_C@_0BE@BEBIBELP@xreflist_t_capacity@ 000000018001bb90     frame.obj
 0002:00000ba8       ??_C@_0CE@EMKOGALL@xreflist_t_capacity?$CIself?$CJ?5?9?$DO?5si@ 000000018001bba8     frame.obj
 0002:00000bd0       ??_C@_0BO@BIPECLIC@xreflist_t_reserve?$CIself?0?5cnt?$CJ@ 000000018001bbd0     frame.obj
 0002:00000bf0       ??_C@_0BE@KOCAOFAP@xreflist_t_truncate@ 000000018001bbf0     frame.obj
 0002:00000c08       ??_C@_0BK@DLGMLFEF@xreflist_t_truncate?$CIself?$CJ@ 000000018001bc08     frame.obj
 0002:00000c28       ??_C@_0BJ@EIDMJBKO@xreflist_t_swap?$CIself?0?5r?$CJ@ 000000018001bc28     frame.obj
 0002:00000c48       ??_C@_0BD@BPPHALAH@xreflist_t_extract@ 000000018001bc48     frame.obj
 0002:00000c60       ??_C@_0CN@JMBDAIKP@xreflist_t_extract?$CIself?$CJ?5?9?$DO?5xre@ 000000018001bc60     frame.obj
 0002:00000c90       ??_C@_0CA@NJEOJGDG@xreflist_t_inject?$CIself?0?5s?0?5len?$CJ@ 000000018001bc90     frame.obj
 0002:00000cb0       ??_C@_0CD@PLAGIBA@xreflist_t___eq__?$CIself?0?5r?$CJ?5?9?$DO?5b@ 000000018001bcb0     frame.obj
 0002:00000cd8       ??_C@_0CD@NGJGPFAH@xreflist_t___ne__?$CIself?0?5r?$CJ?5?9?$DO?5b@ 000000018001bcd8     frame.obj
 0002:00000d00       ??_C@_0FI@CAEDFOBF@?6xreflist_t_begin?$CIself?$CJ?5?9?$DO?5xref@ 000000018001bd00     frame.obj
 0002:00000d60       ??_C@_0FE@FMOGEOHD@?6xreflist_t_end?$CIself?$CJ?5?9?$DO?5xrefli@ 000000018001bd60     frame.obj
 0002:00000db8       ??_C@_0DD@MGAEBOIO@xreflist_t_insert?$CIself?0?5it?0?5x?$CJ?5@ 000000018001bdb8     frame.obj
 0002:00000df0       ??_C@_0GJ@CHEIOEG@?6xreflist_t_erase?$CIself?0?5it?$CJ?5?9?$DO?5@ 000000018001bdf0     frame.obj
 0002:00000e60       ??_C@_0FM@JOPCKECP@?6xreflist_t_find?$CIself?0?5x?$CJ?5?9?$DO?5xr@ 000000018001be60     frame.obj
 0002:00000ec0       ??_C@_0CA@LKNAKAGC@xreflist_t_has?$CIself?0?5x?$CJ?5?9?$DO?5bool@ 000000018001bec0     frame.obj
 0002:00000ee0       ??_C@_0CH@MBFMEKIB@xreflist_t_add_unique?$CIself?0?5x?$CJ?5@ 000000018001bee0     frame.obj
 0002:00000f08       ??_C@_0CB@PKALDGMH@xreflist_t__del?$CIself?0?5x?$CJ?5?9?$DO?5boo@ 000000018001bf08     frame.obj
 0002:00000f30       ??_C@_0BD@DPMHHJAP@xreflist_t___len__@ 000000018001bf30     frame.obj
 0002:00000f48       ??_C@_0CD@PJCAJLJM@xreflist_t___len__?$CIself?$CJ?5?9?$DO?5siz@ 000000018001bf48     frame.obj
 0002:00000f70       ??_C@_0DE@JMBOHOLO@xreflist_t___getitem__?$CIself?0?5i?$CJ@ 000000018001bf70     frame.obj
 0002:00000fa8       ??_C@_0CD@COBPMDPC@xreflist_t___setitem__?$CIself?0?5i?0@ 000000018001bfa8     frame.obj
 0002:00000fd0       ??_C@_0BI@PJLGAFFF@xreflist_t_swigregister@ 000000018001bfd0     frame.obj
 0002:00000fe8       ??_C@_0BE@FACEDKBE@xreflist_t_swiginit@ 000000018001bfe8     frame.obj
 0002:00001000       ??_C@_0CG@FMCCJENF@get_stkvar?$CIinsn?0?5op?0?5v?$CJ?5?9?$DO?5PyOb@ 000000018001c000     frame.obj
 0002:00001028       ??_C@_0BK@NGOLDINA@stkpnt_t_ea_set?$CIself?0?5ea?$CJ@ 000000018001c028     frame.obj
 0002:00001048       ??_C@_0BA@PFMOGJPL@stkpnt_t_ea_get@ 000000018001c048     frame.obj
 0002:00001058       ??_C@_0BO@OLCFLMMH@stkpnt_t_ea_get?$CIself?$CJ?5?9?$DO?5ea_t@ 000000018001c058     frame.obj
 0002:00001078       ??_C@_0BM@DBGBHIAC@stkpnt_t_spd_set?$CIself?0?5spd?$CJ@ 000000018001c078     frame.obj
 0002:00001098       ??_C@_0BB@FCLFPDDM@stkpnt_t_spd_get@ 000000018001c098     frame.obj
 0002:000010b0       ??_C@_0CB@NCBOHDLP@stkpnt_t_spd_get?$CIself?$CJ?5?9?$DO?5sval_@ 000000018001c0b0     frame.obj
 0002:000010d8       ??_C@_0CB@BKOBPOPF@stkpnt_t___lt__?$CIself?0?5r?$CJ?5?9?$DO?5boo@ 000000018001c0d8     frame.obj
 0002:00001100       ??_C@_0BL@CCLOAGN@new_stkpnt_t?$CI?$CJ?5?9?$DO?5stkpnt_t@ 000000018001c100     frame.obj
 0002:00001120       ??_C@_0BA@PJOCPKID@delete_stkpnt_t@ 000000018001c120     frame.obj
 0002:00001130       ??_C@_0BG@FBJHPAN@delete_stkpnt_t?$CIself?$CJ@ 000000018001c130     frame.obj
 0002:00001148       ??_C@_0BG@OJJCOJDD@stkpnt_t_swigregister@ 000000018001c148     frame.obj
 0002:00001160       ??_C@_0BC@JLJKJBNM@stkpnt_t_swiginit@ 000000018001c160     frame.obj
 0002:00001178       ??_C@_0BN@IJHPPLCD@new_stkpnts_t?$CI?$CJ?5?9?$DO?5stkpnts_t@ 000000018001c178     frame.obj
 0002:00001198       ??_C@_0BB@OBOHDFBF@delete_stkpnts_t@ 000000018001c198     frame.obj
 0002:000011b0       ??_C@_0BH@IAIIPHKD@delete_stkpnts_t?$CIself?$CJ@ 000000018001c1b0     frame.obj
 0002:000011c8       ??_C@_0BH@GILEINNB@stkpnts_t_swigregister@ 000000018001c1c8     frame.obj
 0002:000011e0       ??_C@_0BD@BBPHGCBL@stkpnts_t_swiginit@ 000000018001c1e0     frame.obj
 0002:000011f8       ??_C@_0DA@JLBJOJFJ@add_frame?$CIpfn?0?5frsize?0?5frregs?0?5@ 000000018001c1f8     frame.obj
 0002:00001228       ??_C@_09GPENDNN@del_frame@ 000000018001c228     frame.obj
 0002:00001238       ??_C@_0BH@NGKAPCNI@del_frame?$CIpfn?$CJ?5?9?$DO?5bool@ 000000018001c238     frame.obj
 0002:00001250       ??_C@_0DF@OHJHHFME@set_frame_size?$CIpfn?0?5frsize?0?5frr@ 000000018001c250     frame.obj
 0002:00001288       ??_C@_0P@BKACCEAL@get_frame_size@ 000000018001c288     frame.obj
 0002:00001298       ??_C@_0BP@OPAJIHOI@get_frame_size?$CIpfn?$CJ?5?9?$DO?5asize_t@ 000000018001c298     frame.obj
 0002:000012b8       ??_C@_0BC@MKNBMMCE@get_frame_retsize@ 000000018001c2b8     frame.obj
 0002:000012d0       ??_C@_0BO@FOANOHDP@get_frame_retsize?$CIpfn?$CJ?5?9?$DO?5int@ 000000018001c2d0     frame.obj
 0002:000012f0       ??_C@_0CB@CLAPIAAC@get_frame_part?$CIrange?0?5pfn?0?5part@ 000000018001c2f0     frame.obj
 0002:00001318       ??_C@_0P@ODODHGKN@frame_off_args@ 000000018001c318     frame.obj
 0002:00001328       ??_C@_0BM@COIIIMMD@frame_off_args?$CIpfn?$CJ?5?9?$DO?5ea_t@ 000000018001c328     frame.obj
 0002:00001348       ??_C@_0BC@LIHKJLOB@frame_off_retaddr@ 000000018001c348     frame.obj
 0002:00001360       ??_C@_0BP@DMCLBEPL@frame_off_retaddr?$CIpfn?$CJ?5?9?$DO?5ea_t@ 000000018001c360     frame.obj
 0002:00001380       ??_C@_0BC@EJPGBLEI@frame_off_savregs@ 000000018001c380     frame.obj
 0002:00001398       ??_C@_0BP@EKBIFPOO@frame_off_savregs?$CIpfn?$CJ?5?9?$DO?5ea_t@ 000000018001c398     frame.obj
 0002:000013b8       ??_C@_0BA@MBCBJGOD@frame_off_lvars@ 000000018001c3b8     frame.obj
 0002:000013c8       ??_C@_0BN@JDBLFEGM@frame_off_lvars?$CIpfn?$CJ?5?9?$DO?5ea_t@ 000000018001c3c8     frame.obj
 0002:000013e8       ??_C@_0CG@BGNOLPGF@is_funcarg_off?$CIpfn?0?5frameoff?$CJ?5?9@ 000000018001c3e8     frame.obj
 0002:00001410       ??_C@_0CC@JHIOJNNH@lvar_off?$CIpfn?0?5frameoff?$CJ?5?9?$DO?5sval@ 000000018001c410     frame.obj
 0002:00001438       ??_C@_0DH@CKHHLID@?6get_frame?$CIpfn?$CJ?5?9?$DO?5struc_t?6get_@ 000000018001c438     frame.obj
 0002:00001470       ??_C@_0BN@BPFPCNJ@update_fpd?$CIpfn?0?5fpd?$CJ?5?9?$DO?5bool@ 000000018001c470     frame.obj
 0002:00001490       ??_C@_0DD@HBIHIGME@set_purged?$CIea?0?5nbytes?0?5override@ 000000018001c490     frame.obj
 0002:000014c8       ??_C@_0BC@MJDFLKAP@get_func_by_frame@ 000000018001c4c8     frame.obj
 0002:000014e0       ??_C@_0CE@EANCHOAL@get_func_by_frame?$CIframe_id?$CJ?5?9?$DO?5@ 000000018001c4e0     frame.obj
 0002:00001508       ??_C@_0DJ@IJLACOGN@define_stkvar?$CIpfn?0?5name?0?5off?0?5f@ 000000018001c508     frame.obj
 0002:00001548       ??_C@_0CF@CJKOOLBB@build_stkvar_name?$CIpfn?0?5v?$CJ?5?9?$DO?5ss@ 000000018001c548     frame.obj
 0002:00001570       ??_C@_0CP@OMKLFKD@calc_stkvar_struc_offset?$CIpfn?0?5i@ 000000018001c570     frame.obj
 0002:000015a0       ??_C@_0CA@LGJLANHD@regvar_t_canon_set?$CIself?0?5canon?$CJ@ 000000018001c5a0     frame.obj
 0002:000015c0       ??_C@_0BD@FFMLJDE@regvar_t_canon_get@ 000000018001c5c0     frame.obj
 0002:000015d8       ??_C@_0CD@EMKJMEAH@regvar_t_canon_get?$CIself?$CJ?5?9?$DO?5cha@ 000000018001c5d8     frame.obj
 0002:00001600       ??_C@_0BO@BFHNNFOF@regvar_t_user_set?$CIself?0?5user?$CJ@ 000000018001c600     frame.obj
 0002:00001620       ??_C@_0BC@KOAOGMPG@regvar_t_user_get@ 000000018001c620     frame.obj
 0002:00001638       ??_C@_0CC@HIKLIOBJ@regvar_t_user_get?$CIself?$CJ?5?9?$DO?5char@ 000000018001c638     frame.obj
 0002:00001660       ??_C@_0BM@BNDLBBEI@regvar_t_cmt_set?$CIself?0?5cmt?$CJ@ 000000018001c660     frame.obj
 0002:00001680       ??_C@_0BB@JBECMLEJ@regvar_t_cmt_get@ 000000018001c680     frame.obj
 0002:00001698       ??_C@_0CB@ENKCNOMN@regvar_t_cmt_get?$CIself?$CJ?5?9?$DO?5char?5@ 000000018001c698     frame.obj
 0002:000016c0       ??_C@_0BL@MIOEPKPJ@new_regvar_t?$CI?$CJ?5?9?$DO?5regvar_t@ 000000018001c6c0     frame.obj
 0002:000016e0       ??_C@_0BA@OIEKJOBB@delete_regvar_t@ 000000018001c6e0     frame.obj
 0002:000016f0       ??_C@_0BG@KMDOOBGF@delete_regvar_t?$CIself?$CJ@ 000000018001c6f0     frame.obj
 0002:00001708       ??_C@_0BG@DFCFDJBJ@regvar_t_swigregister@ 000000018001c708     frame.obj
 0002:00001720       ??_C@_0BC@JHJGBJBC@regvar_t_swiginit@ 000000018001c720     frame.obj
 0002:00001738       ??_C@_0DD@DDEJICHE@add_regvar?$CIpfn?0?5ea1?0?5ea2?0?5canon@ 000000018001c738     frame.obj
 0002:00001770       ??_C@_0FO@FFDLFKO@?6find_regvar?$CIpfn?0?5ea1?0?5ea2?0?5can@ 000000018001c770     frame.obj
 0002:000017d0       ??_C@_0CD@OJPAMABL@rename_regvar?$CIpfn?0?5v?0?5user?$CJ?5?9?$DO?5@ 000000018001c7d0     frame.obj
 0002:000017f8       ??_C@_0CD@HNPEKNM@set_regvar_cmt?$CIpfn?0?5v?0?5cmt?$CJ?5?9?$DO?5@ 000000018001c7f8     frame.obj
 0002:00001820       ??_C@_0CI@BAJCLBFF@del_regvar?$CIpfn?0?5ea1?0?5ea2?0?5canon@ 000000018001c820     frame.obj
 0002:00001848       ??_C@_0BK@IMLALECF@llabel_t_ea_set?$CIself?0?5ea?$CJ@ 000000018001c848     frame.obj
 0002:00001868       ??_C@_0BA@HFCDCLBN@llabel_t_ea_get@ 000000018001c868     frame.obj
 0002:00001878       ??_C@_0BO@GAEDIEMD@llabel_t_ea_get?$CIself?$CJ?5?9?$DO?5ea_t@ 000000018001c878     frame.obj
 0002:00001898       ??_C@_0BO@EAGEIFCG@llabel_t_name_set?$CIself?0?5name?$CJ@ 000000018001c898     frame.obj
 0002:000018b8       ??_C@_0BC@PMDIGLN@llabel_t_name_get@ 000000018001c8b8     frame.obj
 0002:000018d0       ??_C@_0CC@NMAKEEDP@llabel_t_name_get?$CIself?$CJ?5?9?$DO?5char@ 000000018001c8d0     frame.obj
 0002:000018f8       ??_C@_0BL@MJOCHIPD@new_llabel_t?$CI?$CJ?5?9?$DO?5llabel_t@ 000000018001c8f8     frame.obj
 0002:00001918       ??_C@_0BA@CNNGOPAC@delete_llabel_t@ 000000018001c918     frame.obj
 0002:00001928       ??_C@_0BG@INDMFCJI@delete_llabel_t?$CIself?$CJ@ 000000018001c928     frame.obj
 0002:00001940       ??_C@_0BG@MOJMJIOA@llabel_t_swigregister@ 000000018001c940     frame.obj
 0002:00001958       ??_C@_0BC@LGMGFOH@llabel_t_swiginit@ 000000018001c958     frame.obj
 0002:00001970       ??_C@_0CI@HFMMFCKH@add_auto_stkpnt?$CIpfn?0?5ea?0?5delta?$CJ@ 000000018001c970     frame.obj
 0002:00001998       ??_C@_0CD@BHDNKLPO@add_user_stkpnt?$CIea?0?5delta?$CJ?5?9?$DO?5b@ 000000018001c998     frame.obj
 0002:000019c0       ??_C@_0BM@IKPLOBFA@del_stkpnt?$CIpfn?0?5ea?$CJ?5?9?$DO?5bool@ 000000018001c9c0     frame.obj
 0002:000019e0       ??_C@_0BL@MPENAKLM@get_spd?$CIpfn?0?5ea?$CJ?5?9?$DO?5sval_t@ 000000018001c9e0     frame.obj
 0002:00001a00       ??_C@_0CF@KHCJDBM@get_effective_spd?$CIpfn?0?5ea?$CJ?5?9?$DO?5s@ 000000018001ca00     frame.obj
 0002:00001a28       ??_C@_0CA@NEOBKHC@get_sp_delta?$CIpfn?0?5ea?$CJ?5?9?$DO?5sval_t@ 000000018001ca28     frame.obj
 0002:00001a48       ??_C@_0L@CIIILNKP@recalc_spd@ 000000018001ca48     frame.obj
 0002:00001a58       ??_C@_0BL@KNKODBCK@recalc_spd?$CIcur_ea?$CJ?5?9?$DO?5bool@ 000000018001ca58     frame.obj
 0002:00001a78       ??_C@_0CC@OMEEJNFM@xreflist_entry_t_ea_set?$CIself?0?5e@ 000000018001ca78     frame.obj
 0002:00001aa0       ??_C@_0BI@OOIKLPG@xreflist_entry_t_ea_get@ 000000018001caa0     frame.obj
 0002:00001ab8       ??_C@_0CG@HMIKFDFL@xreflist_entry_t_ea_get?$CIself?$CJ?5?9@ 000000018001cab8     frame.obj
 0002:00001ae0       ??_C@_0CI@DPIFDHOC@xreflist_entry_t_opnum_set?$CIself@ 000000018001cae0     frame.obj
 0002:00001b08       ??_C@_0BL@LOCIPOAA@xreflist_entry_t_opnum_get@ 000000018001cb08     frame.obj
 0002:00001b28       ??_C@_0CK@EPELFPGO@xreflist_entry_t_opnum_get?$CIself@ 000000018001cb28     frame.obj
 0002:00001b58       ??_C@_0CG@NPKFOMAH@xreflist_entry_t_type_set?$CIself?0@ 000000018001cb58     frame.obj
 0002:00001b80       ??_C@_0BK@MPEIELAO@xreflist_entry_t_type_get@ 000000018001cb80     frame.obj
 0002:00001ba0       ??_C@_0CJ@LPCCJFOF@xreflist_entry_t_type_get?$CIself?$CJ@ 000000018001cba0     frame.obj
 0002:00001bd0       ??_C@_0CJ@FCCPCLEJ@xreflist_entry_t___eq__?$CIself?0?5r@ 000000018001cbd0     frame.obj
 0002:00001c00       ??_C@_0CJ@ILAJLGFO@xreflist_entry_t___ne__?$CIself?0?5r@ 000000018001cc00     frame.obj
 0002:00001c30       ??_C@_0CL@JIOGLBBA@new_xreflist_entry_t?$CI?$CJ?5?9?$DO?5xrefl@ 000000018001cc30     frame.obj
 0002:00001c60       ??_C@_0BI@CPCLOIMC@delete_xreflist_entry_t@ 000000018001cc60     frame.obj
 0002:00001c78       ??_C@_0BO@FJHMIKCI@delete_xreflist_entry_t?$CIself?$CJ@ 000000018001cc78     frame.obj
 0002:00001c98       ??_C@_0BO@PKBBCNIF@xreflist_entry_t_swigregister@ 000000018001cc98     frame.obj
 0002:00001cb8       ??_C@_0BK@FLFOLHCL@xreflist_entry_t_swiginit@ 000000018001ccb8     frame.obj
 0002:00001cd8       ??_C@_0CD@BDKHGBAN@build_stkvar_xrefs?$CIout?0?5pfn?0?5mp@ 000000018001ccd8     frame.obj
 0002:00001d00       ??_C@_0P@HIFOJBDA@get_min_spd_ea@ 000000018001cd00     frame.obj
 0002:00001d10       ??_C@_0BM@OMJAMFIN@get_min_spd_ea?$CIpfn?$CJ?5?9?$DO?5ea_t@ 000000018001cd10     frame.obj
 0002:00001d30       ??_C@_0BM@BDPBDIII@delete_unreferenced_stkvars@ 000000018001cd30     frame.obj
 0002:00001d50       ??_C@_0CI@ONBCPOPK@delete_unreferenced_stkvars?$CIpfn@ 000000018001cd50     frame.obj
 0002:00001d78       ??_C@_0BI@DAKJNEHO@delete_wrong_stkvar_ops@ 000000018001cd78     frame.obj
 0002:00001d90       ??_C@_0CE@HKDCPMLE@delete_wrong_stkvar_ops?$CIpfn?$CJ?5?9?$DO@ 000000018001cd90     frame.obj
 0002:00001db8       ??_C@_0BE@LADBKDLC@_p__qstringT_char_t@ 000000018001cdb8     frame.obj
 0002:00001dd0       ??_C@_0BN@OHJFNODI@_qstring?$DM?5char?5?$DO?5?$CK?$HMqstring?5?$CK@ 000000018001cdd0     frame.obj
 0002:00001df0       ??_C@_0BN@OGMFMNEO@_p__qstringT_unsigned_char_t@ 000000018001cdf0     frame.obj
 0002:00001e10       ??_C@_0CE@FCOOCMMP@qtype?5?$CK?$HM_qstring?$DM?5unsigned?5char@ 000000018001ce10     frame.obj
 0002:00001e38       ??_C@_0BO@NPELMEMN@_p__qstringT_unsigned_short_t@ 000000018001ce38     frame.obj
 0002:00001e58       ??_C@_0CI@MOGIECDE@_qstring?$DM?5unsigned?5short?5?$DO?5?$CK?$HMqw@ 000000018001ce58     frame.obj
 0002:00001e80       ??_C@_0BF@FIODJLOI@_p_action_ctx_base_t@ 000000018001ce80     frame.obj
 0002:00001ea0       ??_C@_0EE@ODNBPOJC@action_ctx_base_t?5?$CK?$HMaction_upda@ 000000018001cea0     frame.obj
 0002:00001ee8       ??_C@_0N@IODFCNBG@_p_biggest_t@ 000000018001cee8     frame.obj
 0002:00001ef8       ??_C@_0M@LMODFOHJ@biggest_t?5?$CK@ 000000018001cef8     frame.obj
 0002:00001f08       ??_C@_0O@HOPHBKAL@char?5?$CK?$HMint8?5?$CK@ 000000018001cf08     frame.obj
 0002:00001f18       ??_C@_0BC@KJKOCNNG@_p_const_iterator@ 000000018001cf18     frame.obj
 0002:00001f30       ??_C@_0BB@LAJPCFIO@const_iterator?5?$CK@ 000000018001cf30     frame.obj
 0002:00001f48       ??_C@_0CE@DHGPAIMI@_p_f_p_TWidget_int_int_p_void__@ 000000018001cf48     frame.obj
 0002:00001f70       ??_C@_0DN@DFPOHMBA@custom_viewer_keydown_t?5?$CK?$HMbool?5@ 000000018001cf70     frame.obj
 0002:00001fb0       ??_C@_0DF@PENMGFJK@_p_f_p_TWidget_int_p_view_mouse@ 000000018001cfb0     frame.obj
 0002:00001ff0       ??_C@_0FC@NPHKCCPL@void?5?$CI?$CK?$CJ?$CITWidget?5?$CK?0int?0view_mou@ 000000018001cff0     frame.obj
 0002:00002048       ??_C@_0CA@IGCEDJID@_p_f_p_TWidget_int_p_void__bool@ 000000018001d048     frame.obj
 0002:00002070       ??_C@_0FC@PJNOFHGN@custom_viewer_click_t?5?$CK?$HMcustom_@ 000000018001d070     frame.obj
 0002:000020c8       ??_C@_0CO@MIHLPJDD@_p_f_p_TWidget_p_lochist_entry_@ 000000018001d0c8     frame.obj
 0002:00002100       ??_C@_0EM@HBPJNBB@custom_viewer_adjust_place_t?5?$CK?$HM@ 000000018001d100     frame.obj
 0002:00002150       ??_C@_0GM@LBGPKCPI@_p_f_p_TWidget_p_q_const__lochi@ 000000018001d150     frame.obj
 0002:000021c0       ??_C@_0IF@FKBGALIG@void?5?$CI?$CK?$CJ?$CITWidget?5?$CK?0lochist_entr@ 000000018001d1c0     frame.obj
 0002:00002250       ??_C@_0FA@DFBJAGBE@_p_f_p_TWidget_p_q_const__lochi@ 000000018001d250     frame.obj
 0002:000022a0       ??_C@_0GI@FMPBFLEM@custom_viewer_can_navigate_t?5?$CK?$HM@ 000000018001d2a0     frame.obj
 0002:00002308       ??_C@_0DH@JJEDBLDE@_p_f_p_TWidget_p_q_const__place@ 000000018001d308     frame.obj
 0002:00002340       ??_C@_0EP@PJDAMEBK@code_viewer_lines_click_t?5?$CK?$HMvoi@ 000000018001d340     frame.obj
 0002:00002390       ??_C@_0DE@PBNPHPNC@_p_f_p_TWidget_p_q_const__place@ 000000018001d390     frame.obj
 0002:000023d0       ??_C@_0EL@JKPIBDKO@code_viewer_lines_icon_t?5?$CK?$HMint?5@ 000000018001d3d0     frame.obj
 0002:00002420       ??_C@_0EB@FDCGDBJI@_p_f_p_TWidget_p_q_const__place@ 000000018001d420     frame.obj
 0002:00002470       ??_C@_0FN@GGLCMJJK@custom_viewer_get_place_xcoord_@ 000000018001d470     frame.obj
 0002:000024d0       ??_C@_0DO@KLDLOPHE@_p_f_p_TWidget_p_q_const__place@ 000000018001d4d0     frame.obj
 0002:00002510       ??_C@_0FI@GOMHMLF@code_viewer_lines_linenum_t?5?$CK?$HMb@ 000000018001d510     frame.obj
 0002:00002568       ??_C@_0BL@BMEJNHDD@_p_f_p_TWidget_p_void__int@ 000000018001d568     frame.obj
 0002:00002588       ??_C@_0DB@GMPMLKDG@custom_viewer_help_t?5?$CK?$HMint?5?$CI?$CK?$CJ?$CI@ 000000018001d588     frame.obj
 0002:000025c0       ??_C@_0BM@PAKPNBHH@_p_f_p_TWidget_p_void__void@ 000000018001d5c0     frame.obj
 0002:000025e0       ??_C@_0GE@BLLNJKNN@custom_viewer_popup_t?5?$CK?$HMcustom_@ 000000018001d5e0     frame.obj
 0002:00002648       ??_C@_0DM@PKHFKJJF@_p_f_p_chooser_multi_t_p_sizeve@ 000000018001d648     frame.obj
 0002:00002690       ??_C@_0FA@INGPHNGB@chooser_base_t?3?3cbres_t?5?$CI?$CK?$CJ?$CIcho@ 000000018001d690     frame.obj
 0002:000026e0       ??_C@_0CN@LJCPBILN@_p_f_p_chooser_t_ssize_t__choos@ 000000018001d6e0     frame.obj
 0002:00002710       ??_C@_0DL@IKAMODJA@chooser_t?3?3cbret_t?5?$CI?$CK?$CJ?$CIchooser_@ 000000018001d710     frame.obj
 0002:00002750       ??_C@_0EC@GIKOMIMG@_p_f_p_lochist_entry_t_r_q_cons@ 000000018001d750     frame.obj
 0002:000027a0       ??_C@_0FE@OJIOMBOE@bool?5?$CI?$CK?$CJ?$CIlochist_entry_t?5?$CK?0loch@ 000000018001d7a0     frame.obj
 0002:000027f8       ??_C@_0CC@HPECDOJE@_p_f_p_q_const__char_p_void__vo@ 000000018001d7f8     frame.obj
 0002:00002820       ??_C@_0DA@LKJNDOAC@void?5?$CI?$CK?$CJ?$CIchar?5const?5?$CK?0void?5?$CK?$CJ?$HMs@ 000000018001d820     frame.obj
 0002:00002850       ??_C@_0GC@HKCHLFJ@_p_f_p_q_const__char_r_q_const_@ 000000018001d850     frame.obj
 0002:000028c0       ??_C@_0GE@CDAMLIPA@h2ti_type_cb?5?$CK?$HMint?5?$CI?$CK?$CJ?$CIchar?5con@ 000000018001d8c0     frame.obj
 0002:00002928       ??_C@_0CB@PLKCNJF@_p_f_p_q_const__char_v_______in@ 000000018001d928     frame.obj
 0002:00002950       ??_C@_0CG@EHKOJEHN@int?5?$CI?$CK?$CJ?$CIchar?5const?5?$CK?0?4?4?4?$CJ?$HMprint@ 000000018001d950     frame.obj
 0002:00002978       ??_C@_0CB@PPFKEDBB@_p_f_p_void_int_va_list__ssize_@ 000000018001d978     frame.obj
 0002:000029a0       ??_C@_0CM@ODIKDJIA@ssize_t?5?$CI?$CK?$CJ?$CIvoid?5?$CK?0int?0va_list?$CJ@ 000000018001d9a0     frame.obj
 0002:000029d0       ??_C@_0CJ@KNMLBMOG@_p_f_r_q_const__insn_t_p_int_p_@ 000000018001d9d0     frame.obj
 0002:00002a00       ??_C@_0DI@CGFAFNOI@bool?5?$CI?$CK?$CJ?$CIinsn_t?5const?5?$CG?0int?5?$CK?0i@ 000000018001da00     frame.obj
 0002:00002a40       ??_C@_0FA@JJBGCIIH@_p_f_r_q_const__insn_t_r_q_cons@ 000000018001da40     frame.obj
 0002:00002a90       ??_C@_0FE@IBKJNBMI@bool?5?$CI?$CK?$CJ?$CIinsn_t?5const?5?$CG?0op_t?5co@ 000000018001da90     frame.obj
 0002:00002ae8       ??_C@_0BI@PGCOIKGG@_p_f_unsigned_int__bool@ 000000018001dae8     frame.obj
 0002:00002b00       ??_C@_0DN@OGOBIPP@bool?5?$CI?$CK?$CJ?$CIunsigned?5int?$CJ?$HMhas_dela@ 000000018001db00     frame.obj
 0002:00002b40       ??_C@_0DL@FFEHDPON@_p_f_unsigned_int_p_q_const__ch@ 000000018001db40     frame.obj
 0002:00002b80       ??_C@_0EK@MACPDLHN@int?5?$CI?$CK?$CJ?$CIunsigned?5int?0char?5const@ 000000018001db80     frame.obj
 0002:00002bd0       ??_C@_0BP@HNIFGGKH@_p_f_unsigned_int_p_void__bool@ 000000018001dbd0     frame.obj
 0002:00002bf0       ??_C@_0CI@PMEGIBIK@testf_t?5?$CK?$HMbool?5?$CI?$CK?$CJ?$CIunsigned?5int@ 000000018001dbf0     frame.obj
 0002:00002c18       ??_C@_0DB@CEAPILAH@_p_f_unsigned_int_r_q_const__ti@ 000000018001dc18     frame.obj
 0002:00002c50       ??_C@_0EH@MLDNCCKC@local_tinfo_predicate_t?5?$CK?$HMint?5?$CI@ 000000018001dc50     frame.obj
 0002:00002c98       ??_C@_0CN@BPIIPJKN@_p_f_unsigned_int_unsigned_int_@ 000000018001dc98     frame.obj
 0002:00002cc8       ??_C@_0DO@CKIBBIPB@unsigned?5int?5?$CI?$CK?$CJ?$CIunsigned?5int?0u@ 000000018001dcc8     frame.obj
 0002:00002d08       ??_C@_09LIGEMJOA@_p_func_t@ 000000018001dd08     frame.obj
 0002:00002d18       ??_C@_08IOOOCDNO@func_t?5?$CK@ 000000018001dd18     frame.obj
 0002:00002d28       ??_C@_09ENCHMALP@_p_insn_t@ 000000018001dd28     frame.obj
 0002:00002d38       ??_C@_08MKBBCPKC@insn_t?5?$CK@ 000000018001dd38     frame.obj
 0002:00002d44       ??_C@_06EJFLAOFF@_p_int@   000000018001dd44     frame.obj
 0002:00002d50       ??_C@_0IG@FDKJDHEK@adiff_t?5?$CK?$HMint?5?$CK?$HMint32?5?$CK?$HMsval_t?5@ 000000018001dd50     frame.obj
 0002:00002dd8       ??_C@_0M@CFMLOKJJ@_p_iterator@ 000000018001ddd8     frame.obj
 0002:00002de8       ??_C@_0L@IIMCJLIP@iterator?5?$CK@ 000000018001dde8     frame.obj
 0002:00002df8       ??_C@_0M@CFIHDIGG@_p_llabel_t@ 000000018001ddf8     frame.obj
 0002:00002e08       ??_C@_0L@HDDLNFEJ@llabel_t?5?$CK@ 000000018001de08     frame.obj
 0002:00002e18       ??_C@_0O@HDLJBJJF@_p_location_t@ 000000018001de18     frame.obj
 0002:00002e28       ??_C@_0N@ONMECIKA@location_t?5?$CK@ 000000018001de28     frame.obj
 0002:00002e38       ??_C@_0N@HIKGEFDH@_p_long_long@ 000000018001de38     frame.obj
 0002:00002e48       ??_C@_0BP@FECEFBLL@int64?5?$CK?$HMlonglong?5?$CK?$HMlong?5long?5?$CK@ 000000018001de48     frame.obj
 0002:00002e68       ??_C@_0M@FKNFHNNG@_p_member_t@ 000000018001de68     frame.obj
 0002:00002e78       ??_C@_0L@JBEILBLM@member_t?5?$CK@ 000000018001de78     frame.obj
 0002:00002e88       ??_C@_07FLIFDOIK@_p_op_t@  000000018001de88     frame.obj
 0002:00002e90       ??_C@_06BNHHPEFF@op_t?5?$CK@ 000000018001de90     frame.obj
 0002:00002e98       ??_C@_0M@CGCGHLOF@_p_opinfo_t@ 000000018001de98     frame.obj
 0002:00002ea8       ??_C@_0L@IMEAANEK@opinfo_t?5?$CK@ 000000018001dea8     frame.obj
 0002:00002eb8       ??_C@_0CJ@KBPLCHCN@_p_qvectorT__qstringT_unsigned_@ 000000018001deb8     frame.obj
 0002:00002ee8       ??_C@_0DF@GOALPBDM@qvector?$DM?5_qstring?$DM?5unsigned?5sho@ 000000018001dee8     frame.obj
 0002:00002f20       ??_C@_0BH@EHIHPDFP@_p_qvectorT_argloc_t_t@ 000000018001df20     frame.obj
 0002:00002f38       ??_C@_0CC@PMMGEEHP@qvector?$DM?5argloc_t?5?$DO?5?$CK?$HMarglocs_t@ 000000018001df38     frame.obj
 0002:00002f60       ??_C@_0BD@IFPOLGLB@_p_qvectorT_bool_t@ 000000018001df60     frame.obj
 0002:00002f78       ??_C@_0BO@JEOEHDBE@boolvec_t?5?$CK?$HMqvector?$DM?5bool?5?$DO?5?$CK@ 000000018001df78     frame.obj
 0002:00002f98       ??_C@_0BO@BMBALGLA@_p_qvectorT_channel_redir_t_t@ 000000018001df98     frame.obj
 0002:00002fb8       ??_C@_0DA@DFOFPPPA@qvector?$DM?5channel_redir_t?5?$DO?5?$CK?$HMch@ 000000018001dfb8     frame.obj
 0002:00002fe8       ??_C@_0CA@KLOIFAIM@_p_qvectorT_compiled_binpat_t_t@ 000000018001dfe8     frame.obj
 0002:00003008       ??_C@_0DH@JJMOBCIB@compiled_binpat_vec_t?5?$CK?$HMqvector@ 000000018001e008     frame.obj
 0002:00003040       ??_C@_0BI@HPPPANA@_p_qvectorT_funcarg_t_t@ 000000018001e040     frame.obj
 0002:00003058       ??_C@_0CG@BKJABKPP@funcargvec_t?5?$CK?$HMqvector?$DM?5funcarg@ 000000018001e058     frame.obj
 0002:00003080       ??_C@_0BC@EMAMHDDK@_p_qvectorT_int_t@ 000000018001e080     frame.obj
 0002:00003098       ??_C@_0CI@OEOLBAGE@svalvec_t?5?$CK?$HMintvec_t?5?$CK?$HMqvector?$DM@ 000000018001e098     frame.obj
 0002:000030c0       ??_C@_0BG@NGNJJEPD@_p_qvectorT_range_t_t@ 000000018001e0c0     frame.obj
 0002:000030d8       ??_C@_0CH@CMPFLCHN@rangevec_base_t?5?$CK?$HMqvector?$DM?5rang@ 000000018001e0d8     frame.obj
 0002:00003100       ??_C@_0O@CNCDMPHD@_p_rangevec_t@ 000000018001e100     frame.obj
 0002:00003110       ??_C@_0CB@DLEFICAI@_p_qvectorT_rangeset_t_const_p_@ 000000018001e110     frame.obj
 0002:00003138       ??_C@_0DF@CPGECBJE@rangeset_crefvec_t?5?$CK?$HMqvector?$DM?5r@ 000000018001e138     frame.obj
 0002:00003170       ??_C@_0BJ@CBEEABAG@_p_qvectorT_rangeset_t_t@ 000000018001e170     frame.obj
 0002:00003190       ??_C@_0CN@NEPIOIFG@qvector?$DM?5rangeset_t?5?$DO?5?$CK?$HMarray_o@ 000000018001e190     frame.obj
 0002:000031c0       ??_C@_0BN@HCIAELAH@_p_qvectorT_refinfo_desc_t_t@ 000000018001e1c0     frame.obj
 0002:000031e0       ??_C@_0DB@OEPGJFJL@refinfo_desc_vec_t?5?$CK?$HMqvector?$DM?5r@ 000000018001e1e0     frame.obj
 0002:00003218       ??_C@_0BK@JBDFAIAF@_p_qvectorT_simd_info_t_t@ 000000018001e218     frame.obj
 0002:00003238       ??_C@_0CL@IAEHADMA@simd_info_vec_t?5?$CK?$HMqvector?$DM?5simd@ 000000018001e238     frame.obj
 0002:00003268       ??_C@_0BL@JOHIOMBL@_p_qvectorT_simpleline_t_t@ 000000018001e268     frame.obj
 0002:00003288       ??_C@_0CF@LMLHENLN@strvec_t?5?$CK?$HMqvector?$DM?5simpleline_@ 000000018001e288     frame.obj
 0002:000032b0       ??_C@_0BF@JMFCGENF@_p_qvectorT_size_t_t@ 000000018001e2b0     frame.obj
 0002:000032c8       ??_C@_0CA@PKGFIBKP@sizevec_t?5?$CK?$HMqvector?$DM?5size_t?5?$DO?5?$CK@ 000000018001e2c8     frame.obj
 0002:000032e8       ??_C@_0BG@GHPDGOHO@_p_qvectorT_tinfo_t_t@ 000000018001e2e8     frame.obj
 0002:00003300       ??_C@_0CC@CEHAEEKI@tinfovec_t?5?$CK?$HMqvector?$DM?5tinfo_t?5?$DO@ 000000018001e300     frame.obj
 0002:00003328       ??_C@_0BK@KGMCEJE@_p_qvectorT_type_attr_t_t@ 000000018001e328     frame.obj
 0002:00003348       ??_C@_0CI@PENEDOEG@type_attrs_t?5?$CK?$HMqvector?$DM?5type_at@ 000000018001e348     frame.obj
 0002:00003370       ??_C@_0BL@MFAEBBAF@_p_qvectorT_udt_member_t_t@ 000000018001e370     frame.obj
 0002:00003390       ??_C@_0CL@HFANAPIM@udtmembervec_t?5?$CK?$HMqvector?$DM?5udt_m@ 000000018001e390     frame.obj
 0002:000033c0       ??_C@_0BM@DFOCNGNJ@_p_qvectorT_unsigned_char_t@ 000000018001e3c0     frame.obj
 0002:000033e0       ??_C@_0CH@MCODNJGI@qvector?$DM?5unsigned?5char?5?$DO?5?$CK?$HMcomp@ 000000018001e3e0     frame.obj
 0002:00003408       ??_C@_0M@BEMIELHM@_p_relobj_t@ 000000018001e408     frame.obj
 0002:00003418       ??_C@_0N@OAHCDFLH@_p_bytevec_t@ 000000018001e418     frame.obj
 0002:00003428       ??_C@_0BA@KOPDLMDG@_p_reloc_info_t@ 000000018001e428     frame.obj
 0002:00003438       ??_C@_0BL@POPMPLM@_p_qvectorT_unsigned_int_t@ 000000018001e438     frame.obj
 0002:00003458       ??_C@_0DL@HDEADPMO@eavec_t?5?$CK?$HMordvec_t?5?$CK?$HMuvalvec_t?5@ 000000018001e458     frame.obj
 0002:00003498       ??_C@_0BP@GGFGKHOI@_p_qvectorT_xreflist_entry_t_t@ 000000018001e498     frame.obj
 0002:000034b8       ??_C@_0CL@LHAAGJOK@qvector?$DM?5xreflist_entry_t?5?$DO?5?$CK?$HMx@ 000000018001e4b8     frame.obj
 0002:000034e8       ??_C@_0L@NOIPKKEL@_p_range_t@ 000000018001e4e8     frame.obj
 0002:000034f8       ??_C@_09HPKAOMNJ@range_t?5?$CK@ 000000018001e4f8     frame.obj
 0002:00003508       ??_C@_0M@OABLEJHF@_p_regvar_t@ 000000018001e508     frame.obj
 0002:00003518       ??_C@_0L@DFNGBAON@regvar_t?5?$CK@ 000000018001e518     frame.obj
 0002:00003528       ??_C@_08JGEHMJEC@_p_short@ 000000018001e528     frame.obj
 0002:00003538       ??_C@_0BA@BBDCPKKI@int16?5?$CK?$HMshort?5?$CK@ 000000018001e538     frame.obj
 0002:00003548       ??_C@_0P@IHEJCACJ@_p_signed_char@ 000000018001e548     frame.obj
 0002:00003558       ??_C@_0BG@CGJIOBCI@signed?5char?5?$CK?$HMsint8?5?$CK@ 000000018001e558     frame.obj
 0002:00003570       ??_C@_0M@PBLDCNOH@_p_stkpnt_t@ 000000018001e570     frame.obj
 0002:00003580       ??_C@_0L@DMHOEMJM@stkpnt_t?5?$CK@ 000000018001e580     frame.obj
 0002:00003590       ??_C@_0N@KLDAMBID@_p_stkpnts_t@ 000000018001e590     frame.obj
 0002:000035a0       ??_C@_0M@BJGJKLHA@stkpnts_t?5?$CK@ 000000018001e5a0     frame.obj
 0002:000035b0       ??_C@_0L@GMJMEAGC@_p_struc_t@ 000000018001e5b0     frame.obj
 0002:000035c0       ??_C@_09HLDJMKEH@struc_t?5?$CK@ 000000018001e5c0     frame.obj
 0002:000035d0       ??_C@_0BB@JEMKPEPB@_p_unsigned_char@ 000000018001e5d0     frame.obj
 0002:000035f0       ??_C@_0HI@NBHOBBOJ@uchar?5?$CK?$HMunsigned?5char?5?$CK?$HMcm_t?5?$CK?$HM@ 000000018001e5f0     frame.obj
 0002:00003668       ??_C@_0BA@EMEBBPFL@_p_unsigned_int@ 000000018001e668     frame.obj
 0002:00003680       ??_C@_0JE@GCFOGLMK@bgcolor_t?5?$CK?$HMenum_t?5?$CK?$HMtid_t?5?$CK?$HMbm@ 000000018001e680     frame.obj
 0002:00003718       ??_C@_0BG@CGEDOPGF@_p_unsigned_long_long@ 000000018001e718     frame.obj
 0002:00003730       ??_C@_0CK@FCLCDGJM@uint64?5?$CK?$HMulonglong?5?$CK?$HMunsigned?5l@ 000000018001e730     frame.obj
 0002:00003760       ??_C@_0BC@GCHEMBCE@_p_unsigned_short@ 000000018001e760     frame.obj
 0002:00003778       ??_C@_0CP@HNCAPCKA@uint16?5?$CK?$HMunsigned?5short?5?$CK?$HMushor@ 000000018001e778     frame.obj
 0002:000037a8       ??_C@_0O@KPNNNNNL@_p_value_type@ 000000018001e7a8     frame.obj
 0002:000037b8       ??_C@_0N@BPDHJAOG@value_type?5?$CK@ 000000018001e7b8     frame.obj
 0002:000037c8       ??_C@_0BE@OCEMOLNL@_p_xreflist_entry_t@ 000000018001e7c8     frame.obj
 0002:000037e0       ??_C@_0GF@MMHCLLEK@xreflist_entry_t?5?$CK?$HMqvector?$DM?5xre@ 000000018001e7e0     frame.obj
 0002:00003848       ??_C@_03BHDOPPEK@own@      000000018001e848     frame.obj
 0002:0000384c       ??_C@_06EFGGFDFD@disown@   000000018001e84c     frame.obj
 0002:00003858       ??_C@_0CC@CFIMIIPD@releases?5ownership?5of?5the?5point@ 000000018001e858     frame.obj
 0002:00003880       ??_C@_07MEFPPMEF@acquire@  000000018001e880     frame.obj
 0002:00003888       ??_C@_0CC@BAIBAPCI@acquires?5ownership?5of?5the?5point@ 000000018001e888     frame.obj
 0002:000038b0       ??_C@_0CG@GKPKGEFE@returns?1sets?5ownership?5of?5the?5p@ 000000018001e8b0     frame.obj
 0002:000038d8       ??_C@_06PCICMFGG@append@   000000018001e8d8     frame.obj
 0002:000038e0       ??_C@_0BO@NCOOMDHM@appends?5another?5?8this?8?5object@ 000000018001e8e0     frame.obj
 0002:00003900       ??_C@_04CJGEDOF@next@      000000018001e900     frame.obj
 0002:00003908       ??_C@_0BP@IMIAEPNG@returns?5the?5next?5?8this?8?5object@ 000000018001e908     frame.obj
 0002:00003928       ??_C@_08HJPCHLLJ@__repr__@ 000000018001e928     frame.obj
 0002:00003938       ??_C@_0BO@PNCCHPAD@returns?5object?5representation@ 000000018001e938     frame.obj
 0002:00003958       ??_C@_07HDHHMDOH@_p_char@  000000018001e958     frame.obj
 0002:00003960       ??_C@_0P@KFCLHEAH@new_xreflist_t@ 000000018001e960     frame.obj
 0002:00003970       ??_C@_0BF@IJHPBIAP@xreflist_t_push_back@ 000000018001e970     frame.obj
 0002:00003988       ??_C@_0O@EEALOKJB@xreflist_t_at@ 000000018001e988     frame.obj
 0002:00003998       ??_C@_0BC@BEMAIIGK@xreflist_t_resize@ 000000018001e998     frame.obj
 0002:000039b0       ??_C@_0BA@KBFLDNGG@xreflist_t_grow@ 000000018001e9b0     frame.obj
 0002:000039c0       ??_C@_0BD@KLNNAPOL@xreflist_t_reserve@ 000000018001e9c0     frame.obj
 0002:000039d8       ??_C@_0BA@EGDKEHNL@xreflist_t_swap@ 000000018001e9d8     frame.obj
 0002:000039e8       ??_C@_0BC@HMNGEBDJ@xreflist_t_inject@ 000000018001e9e8     frame.obj
 0002:00003a00       ??_C@_0BC@HOGJLDNN@xreflist_t___eq__@ 000000018001ea00     frame.obj
 0002:00003a18       ??_C@_0BC@NGMCECAE@xreflist_t___ne__@ 000000018001ea18     frame.obj
 0002:00003a30       ??_C@_0BB@OAPKFMN@xreflist_t_begin@ 000000018001ea30     frame.obj
 0002:00003a48       ??_C@_0P@BIAOLHGK@xreflist_t_end@ 000000018001ea48     frame.obj
 0002:00003a58       ??_C@_0BC@MMCHNIN@xreflist_t_insert@ 000000018001ea58     frame.obj
 0002:00003a70       ??_C@_0BB@BGOEHOFG@xreflist_t_erase@ 000000018001ea70     frame.obj
 0002:00003a88       ??_C@_0BA@HLAOOPON@xreflist_t_find@ 000000018001ea88     frame.obj
 0002:00003a98       ??_C@_0P@OELLKMBM@xreflist_t_has@ 000000018001ea98     frame.obj
 0002:00003aa8       ??_C@_0BG@KINGIFGM@xreflist_t_add_unique@ 000000018001eaa8     frame.obj
 0002:00003ac0       ??_C@_0BA@OBNJIICO@xreflist_t__del@ 000000018001eac0     frame.obj
 0002:00003ad0       ??_C@_0BH@EAIAGDEB@xreflist_t___getitem__@ 000000018001ead0     frame.obj
 0002:00003ae8       ??_C@_0BH@GOMFECND@xreflist_t___setitem__@ 000000018001eae8     frame.obj
 0002:00003b00       ??_C@_0L@ECIJPHDB@get_stkvar@ 000000018001eb00     frame.obj
 0002:000048e8       ??_C@_0BO@CMHFAAKD@?$CFS?6Additional?5information?3?6?$CFs@ 000000018001f8e8     frame.obj
 0002:00004906       ??_C@_00CNPNBAHC@@         000000018001f906     frame.obj
 0002:00004908       ??_C@_09HJOCAFJB@at?5least?5@ 000000018001f908     frame.obj
 0002:00004918       ??_C@_0CF@KFFOGCID@?$CFs?5expected?5?$CFs?$CFd?5arguments?0?5got@ 000000018001f918     frame.obj
 0002:00004940       ??_C@_0CL@NPJGKHAI@UnpackTuple?$CI?$CJ?5argument?5list?5is?5@ 000000018001f940     frame.obj
 0002:00004970       ??_C@_0CD@DMIOPJCG@?$CFs?5expected?5?$CFs?$CFd?5arguments?0?5got@ 000000018001f970     frame.obj
 0002:00004998       ??_C@_08KFLHMPAE@at?5most?5@ 000000018001f998     frame.obj
 0002:000049a8       ??_C@_07MEBHOIG@__new__@   000000018001f9a8     frame.obj
 0002:000049b0       ??_C@_0BB@LPCDDCDP@__swig_destroy__@ 000000018001f9b0     frame.obj
 0002:000049c8       ??_C@_07CIFAGBMG@unknown@  000000018001f9c8     frame.obj
 0002:000049d0       ??_C@_0CB@HIOLGNHE@?$DMSwig?5Object?5of?5type?5?8?$CFs?8?5at?5?$CFp@ 000000018001f9d0     frame.obj
 0002:000049f8       ??_C@_08BHKDPDAA@__name__@ 000000018001f9f8     frame.obj
 0002:00004a08       ??_C@_0N@OEDBPMFH@SwigPyObject@ 000000018001fa08     frame.obj
 0002:00004a20       ??_C@_0EH@KGGHIIII@swig?1python?5detected?5a?5memory?5l@ 000000018001fa20     frame.obj
 0002:00004a68       ??_C@_0CF@NBDOMJMA@Attempt?5to?5append?5a?5non?5SwigPyO@ 000000018001fa68     frame.obj
 0002:00004a90       ??_C@_0BG@BEMBDPAG@?$DMSwig?5Packed?5at?5?$CFs?$CFs?$DO@ 000000018001fa90     frame.obj
 0002:00004aa8       ??_C@_0BB@KEMDDLH@?$DMSwig?5Packed?5?$CFs?$DO@ 000000018001faa8     frame.obj
 0002:00004abc       ??_C@_04HDOCAJNK@?$CFs?$CFs@ 000000018001fabc     frame.obj
 0002:00004ac8       ??_C@_0N@FALDBJHP@SwigPyPacked@ 000000018001fac8     frame.obj
 0002:00004ad8       ??_C@_04IIAJELJL@this@     000000018001fad8     frame.obj
 0002:00004ae0       ??_C@_0L@GCGAIEDO@swig_ptr?3?5@ 000000018001fae0     frame.obj
 0002:00004af0       ??_C@_08IBFKALI@__dict__@  000000018001faf0     frame.obj
 0002:00004b00       ??_C@_08DOBMGDEN@swiginit@ 000000018001fb00     frame.obj
 0002:00004b10       ??_C@_0CO@FOLKHJOC@swig_runtime_data4?4type_pointer@ 000000018001fb10     frame.obj
 0002:00004b40       ??_C@_0BD@BFIMCAOH@swig_runtime_data4@ 000000018001fb40     frame.obj
 0002:00004b58       ??_C@_0BL@LFDLKGPB@type_pointer_capsuleidaapi@ 000000018001fb58     frame.obj
 0002:00004b80       ??_7exception@std@@6B@     000000018001fb80     frame.obj
 0002:00004b90       ??_C@_0BC@EOODALEL@Unknown?5exception@ 000000018001fb90     frame.obj
 0002:00004bb0       ??_7logic_error@std@@6B@   000000018001fbb0     frame.obj
 0002:00004bc8       ??_7out_of_range@std@@6B@  000000018001fbc8     frame.obj
 0002:00004bd8       ??_C@_0BK@NPFFDHAP@Out?5of?5memory?5?$CIbad_alloc?$CJ@ 000000018001fbd8     frame.obj
 0002:00004c00       ??_C@_0BCP@OKJACFO@Internal?5error?5?$CFd?5occurred?5when@ 000000018001fc00     frame.obj
 0002:00004d30       ??_C@_0DB@OCJMLGAO@Function?5can?5be?5called?5from?5the@ 000000018001fd30     frame.obj
 0002:00004d68       ??_C@_0BF@NPFMAGNK@out?5of?5bounds?5access@ 000000018001fd68     frame.obj
 0002:00004d80       ??_C@_04DGNNMPAD@?$CIOL?$CJ@ 000000018001fd80     frame.obj
 0002:00004d88       ??_C@_0BA@GMJLDMKP@surrogateescape@ 000000018001fd88     frame.obj
 0002:00004da0       ??_C@_0FF@OIGFAPOG@in?5method?5?8new_xreflist_t?8?0?5arg@ 000000018001fda0     frame.obj
 0002:00004e00       ??_C@_0GM@MDNDMNKB@invalid?5null?5reference?5in?5metho@ 000000018001fe00     frame.obj
 0002:00004e70       ??_C@_0OH@ILJJOLEA@Wrong?5number?5or?5type?5of?5argumen@ 000000018001fe70     frame.obj
 0002:00004f60       ??_C@_0FC@FHBKBMMP@in?5method?5?8delete_xreflist_t?8?0?5@ 000000018001ff60     frame.obj
 0002:00004fc0       ??_C@_0FF@NFDEJGHO@in?5method?5?8xreflist_t_push_back@ 000000018001ffc0     frame.obj
 0002:00005020       ??_C@_0FA@JJPBNFJL@in?5method?5?8xreflist_t_push_back@ 0000000180020020     frame.obj
 0002:00005070       ??_C@_0GH@PNPLFHIL@invalid?5null?5reference?5in?5metho@ 0000000180020070     frame.obj
 0002:000050e0       ??_C@_0OG@DGNIAHJM@Wrong?5number?5or?5type?5of?5argumen@ 00000001800200e0     frame.obj
 0002:000051d0       ??_C@_0FE@EKBPFGHF@in?5method?5?8xreflist_t_pop_back?8@ 00000001800201d0     frame.obj
 0002:00005230       ??_C@_0FG@BKENEGLN@in?5method?5?8xreflist_t_size?8?0?5ar@ 0000000180020230     frame.obj
 0002:00005290       ??_C@_0FH@CNFDBOAD@in?5method?5?8xreflist_t_empty?8?0?5a@ 0000000180020290     frame.obj
 0002:000052f0       ??_C@_0FE@IOAFIDME@in?5method?5?8xreflist_t_at?8?0?5argu@ 00000001800202f0     frame.obj
 0002:00005348       ??_C@_0DH@KIDENMJF@in?5method?5?8xreflist_t_at?8?0?5argu@ 0000000180020348     frame.obj
 0002:00005380       ??_C@_0FC@CEIOEAI@in?5method?5?8xreflist_t_qclear?8?0?5@ 0000000180020380     frame.obj
 0002:000053e0       ??_C@_0FB@LNEFIANI@in?5method?5?8xreflist_t_clear?8?0?5a@ 00000001800203e0     frame.obj
 0002:00005440       ??_C@_0FC@IFCFLABJ@in?5method?5?8xreflist_t_resize?8?0?5@ 0000000180020440     frame.obj
 0002:00005498       ??_C@_0DL@MMEDHEOE@in?5method?5?8xreflist_t_resize?8?0?5@ 0000000180020498     frame.obj
 0002:000054e0       ??_C@_0EN@JHJAHKBE@in?5method?5?8xreflist_t_resize?8?0?5@ 00000001800204e0     frame.obj
 0002:00005530       ??_C@_0GE@LMCAMELP@invalid?5null?5reference?5in?5metho@ 0000000180020530     frame.obj
 0002:000055a0       ??_C@_0OK@GDMMBCCG@Wrong?5number?5or?5type?5of?5argumen@ 00000001800205a0     frame.obj
 0002:00005690       ??_C@_0FA@GFBMPNJF@in?5method?5?8xreflist_t_grow?8?0?5ar@ 0000000180020690     frame.obj
 0002:000056e0       ??_C@_0EL@DNJDNBOI@in?5method?5?8xreflist_t_grow?8?0?5ar@ 00000001800206e0     frame.obj
 0002:00005730       ??_C@_0GC@CIMHOGO@invalid?5null?5reference?5in?5metho@ 0000000180020730     frame.obj
 0002:000057a0       ??_C@_0FK@IJJDMNFG@in?5method?5?8xreflist_t_capacity?8@ 00000001800207a0     frame.obj
 0002:00005800       ??_C@_0FD@DMAEEOHL@in?5method?5?8xreflist_t_reserve?8?0@ 0000000180020800     frame.obj
 0002:00005858       ??_C@_0DM@GPADEGIF@in?5method?5?8xreflist_t_reserve?8?0@ 0000000180020858     frame.obj
 0002:000058a0       ??_C@_0FE@DHALGD@in?5method?5?8xreflist_t_truncate?8@ 00000001800208a0     frame.obj
 0002:00005900       ??_C@_0FA@NHPKFNOA@in?5method?5?8xreflist_t_swap?8?0?5ar@ 0000000180020900     frame.obj
 0002:00005950       ??_C@_0FA@OGNLCPPH@in?5method?5?8xreflist_t_swap?8?0?5ar@ 0000000180020950     frame.obj
 0002:000059a0       ??_C@_0GH@ICNBKNOH@invalid?5null?5reference?5in?5metho@ 00000001800209a0     frame.obj
 0002:00005a10       ??_C@_0FD@GIPMAABI@in?5method?5?8xreflist_t_extract?8?0@ 0000000180020a10     frame.obj
 0002:00005a70       ??_C@_0FC@IAANMCJF@in?5method?5?8xreflist_t_inject?8?0?5@ 0000000180020a70     frame.obj
 0002:00005ad0       ??_C@_0EH@JHAIELAG@in?5method?5?8xreflist_t_inject?8?0?5@ 0000000180020ad0     frame.obj
 0002:00005b18       ??_C@_0DL@KDAOLALL@in?5method?5?8xreflist_t_inject?8?0?5@ 0000000180020b18     frame.obj
 0002:00005b60       ??_C@_0FI@IJLJMBBI@in?5method?5?8xreflist_t___eq__?8?0?5@ 0000000180020b60     frame.obj
 0002:00005bc0       ??_C@_0FI@MGHBANBI@in?5method?5?8xreflist_t___eq__?8?0?5@ 0000000180020bc0     frame.obj
 0002:00005c20       ??_C@_0GP@GIGKDFAD@invalid?5null?5reference?5in?5metho@ 0000000180020c20     frame.obj
 0002:00005c90       ??_C@_0FI@PDMFNLPO@in?5method?5?8xreflist_t___ne__?8?0?5@ 0000000180020c90     frame.obj
 0002:00005cf0       ??_C@_0FI@LMANBHPO@in?5method?5?8xreflist_t___ne__?8?0?5@ 0000000180020cf0     frame.obj
 0002:00005d50       ??_C@_0GP@BCBGCPOF@invalid?5null?5reference?5in?5metho@ 0000000180020d50     frame.obj
 0002:00005dc0       ??_C@_0FB@HGFCKPND@in?5method?5?8xreflist_t_begin?8?0?5a@ 0000000180020dc0     frame.obj
 0002:00005e20       ??_C@_0EP@FDKCCOHO@in?5method?5?8xreflist_t_end?8?0?5arg@ 0000000180020e20     frame.obj
 0002:00005e70       ??_C@_0FH@MKKMAJLM@in?5method?5?8xreflist_t_begin?8?0?5a@ 0000000180020e70     frame.obj
 0002:00005ed0       ??_C@_0MI@GBNCNFPL@Wrong?5number?5or?5type?5of?5argumen@ 0000000180020ed0     frame.obj
 0002:00005fa0       ??_C@_0FF@FLEIAAAC@in?5method?5?8xreflist_t_end?8?0?5arg@ 0000000180020fa0     frame.obj
 0002:00006000       ??_C@_0MC@HKMBHHFN@Wrong?5number?5or?5type?5of?5argumen@ 0000000180021000     frame.obj
 0002:000060d0       ??_C@_0FC@JJICHPAN@in?5method?5?8xreflist_t_insert?8?0?5@ 00000001800210d0     frame.obj
 0002:00006130       ??_C@_0FK@POHPBBEM@in?5method?5?8xreflist_t_insert?8?0?5@ 0000000180021130     frame.obj
 0002:00006190       ??_C@_0EN@LBALIPKC@in?5method?5?8xreflist_t_insert?8?0?5@ 0000000180021190     frame.obj
 0002:000061e0       ??_C@_0GE@JKLLDBAJ@invalid?5null?5reference?5in?5metho@ 00000001800211e0     frame.obj
 0002:00006250       ??_C@_0FB@MAIBFAMF@in?5method?5?8xreflist_t_erase?8?0?5a@ 0000000180021250     frame.obj
 0002:000062b0       ??_C@_0FJ@NNFONLKP@in?5method?5?8xreflist_t_erase?8?0?5a@ 00000001800212b0     frame.obj
 0002:00006310       ??_C@_0FJ@FJGPMCFO@in?5method?5?8xreflist_t_erase?8?0?5a@ 0000000180021310     frame.obj
 0002:00006370       ??_C@_0BDC@BIGHPINM@Wrong?5number?5or?5type?5of?5argumen@ 0000000180021370     frame.obj
 0002:000064b0       ??_C@_0FA@KEJHMKKP@in?5method?5?8xreflist_t_find?8?0?5ar@ 00000001800214b0     frame.obj
 0002:00006500       ??_C@_0EL@JINBDLFN@in?5method?5?8xreflist_t_find?8?0?5ar@ 0000000180021500     frame.obj
 0002:00006550       ??_C@_0GC@KHMOJENL@invalid?5null?5reference?5in?5metho@ 0000000180021550     frame.obj
 0002:000065c0       ??_C@_0FG@CIAAMDFB@in?5method?5?8xreflist_t_find?8?0?5ar@ 00000001800215c0     frame.obj
 0002:00006620       ??_C@_0PF@HHOLOMKL@Wrong?5number?5or?5type?5of?5argumen@ 0000000180021620     frame.obj
 0002:00006720       ??_C@_0FF@GFGFAJFB@in?5method?5?8xreflist_t_has?8?0?5arg@ 0000000180021720     frame.obj
 0002:00006780       ??_C@_0EK@LBPFKECF@in?5method?5?8xreflist_t_has?8?0?5arg@ 0000000180021780     frame.obj
 0002:000067d0       ??_C@_0GB@BLFMPPID@invalid?5null?5reference?5in?5metho@ 00000001800217d0     frame.obj
 0002:00006840       ??_C@_0FG@MBDJJOAF@in?5method?5?8xreflist_t_add_uniqu@ 0000000180021840     frame.obj
 0002:000068a0       ??_C@_0FB@EMMMCNMF@in?5method?5?8xreflist_t_add_uniqu@ 00000001800218a0     frame.obj
 0002:00006900       ??_C@_0GI@FBBPDHCD@invalid?5null?5reference?5in?5metho@ 0000000180021900     frame.obj
 0002:00006970       ??_C@_0FA@PCCMLKGJ@in?5method?5?8xreflist_t__del?8?0?5ar@ 0000000180021970     frame.obj
 0002:000069c0       ??_C@_0EL@IIFLIJFO@in?5method?5?8xreflist_t__del?8?0?5ar@ 00000001800219c0     frame.obj
 0002:00006a10       ??_C@_0GC@LHEECGNI@invalid?5null?5reference?5in?5metho@ 0000000180021a10     frame.obj
 0002:00006a80       ??_C@_0FJ@PIABKEMO@in?5method?5?8xreflist_t___len__?8?0@ 0000000180021a80     frame.obj
 0002:00006ae0       ??_C@_0FN@CNBPKCCA@in?5method?5?8xreflist_t___getitem@ 0000000180021ae0     frame.obj
 0002:00006b40       ??_C@_0EA@DCNFPIAN@in?5method?5?8xreflist_t___getitem@ 0000000180021b40     frame.obj
 0002:00006b80       ??_C@_0FH@BICHADCA@in?5method?5?8xreflist_t___setitem@ 0000000180021b80     frame.obj
 0002:00006be0       ??_C@_0EA@BGLDLICM@in?5method?5?8xreflist_t___setitem@ 0000000180021be0     frame.obj
 0002:00006c20       ??_C@_0FC@MCHPLDMG@in?5method?5?8xreflist_t___setitem@ 0000000180021c20     frame.obj
 0002:00006c80       ??_C@_0GJ@ILALCHJB@invalid?5null?5reference?5in?5metho@ 0000000180021c80     frame.obj
 0002:00006cf0       ??_C@_0N@JBELKAOG@swigregister@ 0000000180021cf0     frame.obj
 0002:00006d00       ??_C@_0DM@NMEOMGAC@in?5method?5?8get_stkvar?8?0?5argumen@ 0000000180021d00     frame.obj
 0002:00006d40       ??_C@_0FD@JCMPBILL@invalid?5null?5reference?5in?5metho@ 0000000180021d40     frame.obj
 0002:00006d98       ??_C@_0DK@OAEAILJL@in?5method?5?8get_stkvar?8?0?5argumen@ 0000000180021d98     frame.obj
 0002:00006de0       ??_C@_0FB@NIJNLBMJ@invalid?5null?5reference?5in?5metho@ 0000000180021de0     frame.obj
 0002:00006e38       ??_C@_0DE@MAHKCEIG@in?5method?5?8get_stkvar?8?0?5argumen@ 0000000180021e38     frame.obj
 0002:00006e70       ??_C@_0DN@HNGDJPBJ@in?5method?5?8stkpnt_t_ea_set?8?0?5ar@ 0000000180021e70     frame.obj
 0002:00006eb0       ??_C@_0DH@OGILLNPP@in?5method?5?8stkpnt_t_ea_set?8?0?5ar@ 0000000180021eb0     frame.obj
 0002:00006ee8       ??_C@_0DN@JDGBJBDP@in?5method?5?8stkpnt_t_ea_get?8?0?5ar@ 0000000180021ee8     frame.obj
 0002:00006f28       ??_C@_0DO@PGHDLLBD@in?5method?5?8stkpnt_t_spd_set?8?0?5a@ 0000000180021f28     frame.obj
 0002:00006f68       ??_C@_0DK@NOHNKKIC@in?5method?5?8stkpnt_t_spd_set?8?0?5a@ 0000000180021f68     frame.obj
 0002:00006fa8       ??_C@_0DO@BIHBLFDF@in?5method?5?8stkpnt_t_spd_get?8?0?5a@ 0000000180021fa8     frame.obj
 0002:00006ff0       ??_C@_0ED@GCIMKIDJ@in?5method?5?8stkpnt_t___lt__?8?0?5ar@ 0000000180021ff0     frame.obj
 0002:00007040       ??_C@_0ED@MOJODKDB@in?5method?5?8stkpnt_t___lt__?8?0?5ar@ 0000000180022040     frame.obj
 0002:00007090       ??_C@_0FK@KEAKPLDB@invalid?5null?5reference?5in?5metho@ 0000000180022090     frame.obj
 0002:000070f0       ??_C@_0DN@IKLNPELF@in?5method?5?8delete_stkpnt_t?8?0?5ar@ 00000001800220f0     frame.obj
 0002:00007130       ??_C@_0DP@DAKCCDK@in?5method?5?8delete_stkpnts_t?8?0?5a@ 0000000180022130     frame.obj
 0002:00007170       ??_C@_0DF@FKHLAGBJ@in?5method?5?8add_frame?8?0?5argument@ 0000000180022170     frame.obj
 0002:000071a8       ??_C@_0DD@CJGHJKEE@in?5method?5?8add_frame?8?0?5argument@ 00000001800221a8     frame.obj
 0002:000071e0       ??_C@_0DD@FICFGAMH@in?5method?5?8add_frame?8?0?5argument@ 00000001800221e0     frame.obj
 0002:00007218       ??_C@_0DE@PBJABOCA@in?5method?5?8add_frame?8?0?5argument@ 0000000180022218     frame.obj
 0002:00007250       ??_C@_0DF@IAFDIKNC@in?5method?5?8del_frame?8?0?5argument@ 0000000180022250     frame.obj
 0002:00007288       ??_C@_0DK@OLDOPMOP@in?5method?5?8set_frame_size?8?0?5arg@ 0000000180022288     frame.obj
 0002:000072c8       ??_C@_0DJ@DLKAFBMO@in?5method?5?8set_frame_size?8?0?5arg@ 00000001800222c8     frame.obj
 0002:00007308       ??_C@_0DI@EPHEAPCF@in?5method?5?8set_frame_size?8?0?5arg@ 0000000180022308     frame.obj
 0002:00007340       ??_C@_0DJ@LPIDMMBL@in?5method?5?8set_frame_size?8?0?5arg@ 0000000180022340     frame.obj
 0002:00007380       ??_C@_0EA@OCMAMCDI@in?5method?5?8get_frame_size?8?0?5arg@ 0000000180022380     frame.obj
 0002:000073c0       ??_C@_0ED@LBBBPLGM@in?5method?5?8get_frame_retsize?8?0?5@ 00000001800223c0     frame.obj
 0002:00007408       ??_C@_0DL@GPIEMDAC@in?5method?5?8get_frame_part?8?0?5arg@ 0000000180022408     frame.obj
 0002:00007450       ??_C@_0EA@OHCAMNPE@in?5method?5?8get_frame_part?8?0?5arg@ 0000000180022450     frame.obj
 0002:00007490       ??_C@_0DO@JMADKNNF@in?5method?5?8get_frame_part?8?0?5arg@ 0000000180022490     frame.obj
 0002:000074d0       ??_C@_0EA@HEEOHHCJ@in?5method?5?8frame_off_args?8?0?5arg@ 00000001800224d0     frame.obj
 0002:00007510       ??_C@_0ED@GOJIAEGG@in?5method?5?8frame_off_retaddr?8?0?5@ 0000000180022510     frame.obj
 0002:00007560       ??_C@_0ED@CINDIEPC@in?5method?5?8frame_off_savregs?8?0?5@ 0000000180022560     frame.obj
 0002:000075b0       ??_C@_0EB@LMLIBCMK@in?5method?5?8frame_off_lvars?8?0?5ar@ 00000001800225b0     frame.obj
 0002:00007600       ??_C@_0EA@LNENFEPF@in?5method?5?8is_funcarg_off?8?0?5arg@ 0000000180022600     frame.obj
 0002:00007640       ??_C@_0DI@BFOCDFPB@in?5method?5?8is_funcarg_off?8?0?5arg@ 0000000180022640     frame.obj
 0002:00007678       ??_C@_0DK@KJFPGOGH@in?5method?5?8lvar_off?8?0?5argument?5@ 0000000180022678     frame.obj
 0002:000076b8       ??_C@_0DC@EFPADPPH@in?5method?5?8lvar_off?8?0?5argument?5@ 00000001800226b8     frame.obj
 0002:000076f0       ??_C@_0DL@JOAFFHCA@in?5method?5?8get_frame?8?0?5argument@ 00000001800226f0     frame.obj
 0002:00007730       ??_C@_0DB@EEDHNGMJ@in?5method?5?8get_frame?8?0?5argument@ 0000000180022730     frame.obj
 0002:00007770       ??_C@_0JL@OMEIFNBC@Wrong?5number?5or?5type?5of?5argumen@ 0000000180022770     frame.obj
 0002:00007810       ??_C@_0DG@IBCOLJHD@in?5method?5?8update_fpd?8?0?5argumen@ 0000000180022810     frame.obj
 0002:00007848       ??_C@_0DF@JLMFDPNP@in?5method?5?8update_fpd?8?0?5argumen@ 0000000180022848     frame.obj
 0002:00007880       ??_C@_0DC@EDKHJHHL@in?5method?5?8set_purged?8?0?5argumen@ 0000000180022880     frame.obj
 0002:000078b8       ??_C@_0DB@HKKBEKDA@in?5method?5?8set_purged?8?0?5argumen@ 00000001800228b8     frame.obj
 0002:000078f0       ??_C@_0DC@NHLAIDAM@in?5method?5?8set_purged?8?0?5argumen@ 00000001800228f0     frame.obj
 0002:00007928       ??_C@_0DJ@HBHLFBOB@in?5method?5?8get_func_by_frame?8?0?5@ 0000000180022928     frame.obj
 0002:00007968       ??_C@_0DJ@EIJPMGDN@in?5method?5?8define_stkvar?8?0?5argu@ 0000000180022968     frame.obj
 0002:000079a8       ??_C@_0DN@BNEOKNBM@in?5method?5?8define_stkvar?8?0?5argu@ 00000001800229a8     frame.obj
 0002:000079e8       ??_C@_0DH@GEGCHDOO@in?5method?5?8define_stkvar?8?0?5argu@ 00000001800229e8     frame.obj
 0002:00007a20       ??_C@_0DI@EEBJDH@in?5method?5?8define_stkvar?8?0?5argu@ 0000000180022a20     frame.obj
 0002:00007a60       ??_C@_0EB@NOGDMJFK@in?5method?5?8define_stkvar?8?0?5argu@ 0000000180022a60     frame.obj
 0002:00007aa8       ??_C@_0DI@GIHHBMPF@in?5method?5?8define_stkvar?8?0?5argu@ 0000000180022aa8     frame.obj
 0002:00007ae0       ??_C@_0ED@BNHMDMCA@in?5method?5?8build_stkvar_name?8?0?5@ 0000000180022ae0     frame.obj
 0002:00007b28       ??_C@_0DL@LOOINKNF@in?5method?5?8build_stkvar_name?8?0?5@ 0000000180022b28     frame.obj
 0002:00007b70       ??_C@_0EE@LGCMNFCF@in?5method?5?8calc_stkvar_struc_of@ 0000000180022b70     frame.obj
 0002:00007bc0       ??_C@_0EK@JINMOMFM@in?5method?5?8calc_stkvar_struc_of@ 0000000180022bc0     frame.obj
 0002:00007c10       ??_C@_0GB@DCHFLHPK@invalid?5null?5reference?5in?5metho@ 0000000180022c10     frame.obj
 0002:00007c78       ??_C@_0DP@KBMFLLNJ@in?5method?5?8calc_stkvar_struc_of@ 0000000180022c78     frame.obj
 0002:00007cc0       ??_C@_0EA@CIADKDJB@in?5method?5?8regvar_t_canon_set?8?0@ 0000000180022cc0     frame.obj
 0002:00007d00       ??_C@_0DM@JDEBHIFD@in?5method?5?8regvar_t_canon_set?8?0@ 0000000180022d00     frame.obj
 0002:00007d40       ??_C@_0EA@MGABKNLH@in?5method?5?8regvar_t_canon_get?8?0@ 0000000180022d40     frame.obj
 0002:00007d80       ??_C@_0DP@FGGLLJKH@in?5method?5?8regvar_t_user_set?8?0?5@ 0000000180022d80     frame.obj
 0002:00007dc0       ??_C@_0DL@BPLAEBC@in?5method?5?8regvar_t_user_set?8?0?5@ 0000000180022dc0     frame.obj
 0002:00007e00       ??_C@_0DP@LIGJLHIB@in?5method?5?8regvar_t_user_get?8?0?5@ 0000000180022e00     frame.obj
 0002:00007e40       ??_C@_0DO@EAOIJFFL@in?5method?5?8regvar_t_cmt_set?8?0?5a@ 0000000180022e40     frame.obj
 0002:00007e80       ??_C@_0DK@LEACPBHM@in?5method?5?8regvar_t_cmt_set?8?0?5a@ 0000000180022e80     frame.obj
 0002:00007ec0       ??_C@_0DO@KOOKJLHN@in?5method?5?8regvar_t_cmt_get?8?0?5a@ 0000000180022ec0     frame.obj
 0002:00007f00       ??_C@_0DN@IGNCNGHJ@in?5method?5?8delete_regvar_t?8?0?5ar@ 0000000180022f00     frame.obj
 0002:00007f40       ??_C@_0DG@GGCDDFJH@in?5method?5?8add_regvar?8?0?5argumen@ 0000000180022f40     frame.obj
 0002:00007f78       ??_C@_0DC@CKJHILCO@in?5method?5?8add_regvar?8?0?5argumen@ 0000000180022f78     frame.obj
 0002:00007fb0       ??_C@_0DC@KNDBEAGN@in?5method?5?8add_regvar?8?0?5argumen@ 0000000180022fb0     frame.obj
 0002:00007fe8       ??_C@_0DK@HHGHBJCJ@in?5method?5?8add_regvar?8?0?5argumen@ 0000000180022fe8     frame.obj
 0002:00008028       ??_C@_0DK@NCOMIJCH@in?5method?5?8add_regvar?8?0?5argumen@ 0000000180023028     frame.obj
 0002:00008068       ??_C@_0DK@OHABDPHE@in?5method?5?8add_regvar?8?0?5argumen@ 0000000180023068     frame.obj
 0002:000080a8       ??_C@_0DH@LAIOPIC@in?5method?5?8find_regvar?8?0?5argume@ 00000001800230a8     frame.obj
 0002:000080e0       ??_C@_0DD@KHIGONML@in?5method?5?8find_regvar?8?0?5argume@ 00000001800230e0     frame.obj
 0002:00008118       ??_C@_0DD@CACACGII@in?5method?5?8find_regvar?8?0?5argume@ 0000000180023118     frame.obj
 0002:00008150       ??_C@_0DL@NFMNOOOO@in?5method?5?8find_regvar?8?0?5argume@ 0000000180023150     frame.obj
 0002:00008190       ??_C@_0DL@HAEGHOOA@in?5method?5?8find_regvar?8?0?5argume@ 0000000180023190     frame.obj
 0002:000081d0       ??_C@_0DL@BLJNBCEG@in?5method?5?8find_regvar?8?0?5argume@ 00000001800231d0     frame.obj
 0002:00008210       ??_C@_0NF@IFJLEMDH@Wrong?5number?5or?5type?5of?5argumen@ 0000000180023210     frame.obj
 0002:000082e8       ??_C@_0DJ@CBEHDEPM@in?5method?5?8rename_regvar?8?0?5argu@ 00000001800232e8     frame.obj
 0002:00008328       ??_C@_0DL@KIPKIPOD@in?5method?5?8rename_regvar?8?0?5argu@ 0000000180023328     frame.obj
 0002:00008368       ??_C@_0DN@LNPLIFCE@in?5method?5?8rename_regvar?8?0?5argu@ 0000000180023368     frame.obj
 0002:000083a8       ??_C@_0DK@HHIJPEEE@in?5method?5?8set_regvar_cmt?8?0?5arg@ 00000001800233a8     frame.obj
 0002:000083e8       ??_C@_0DM@BPICDPCN@in?5method?5?8set_regvar_cmt?8?0?5arg@ 00000001800233e8     frame.obj
 0002:00008428       ??_C@_0DO@CDODHLBA@in?5method?5?8set_regvar_cmt?8?0?5arg@ 0000000180023428     frame.obj
 0002:00008468       ??_C@_0DG@GKEPAGCD@in?5method?5?8del_regvar?8?0?5argumen@ 0000000180023468     frame.obj
 0002:000084a0       ??_C@_0DC@NEGFPIPO@in?5method?5?8del_regvar?8?0?5argumen@ 00000001800234a0     frame.obj
 0002:000084d8       ??_C@_0DC@FDMDDDLN@in?5method?5?8del_regvar?8?0?5argumen@ 00000001800234d8     frame.obj
 0002:00008510       ??_C@_0DK@DKEPDKN@in?5method?5?8del_regvar?8?0?5argumen@ 0000000180023510     frame.obj
 0002:00008550       ??_C@_0DN@BPKOOMDO@in?5method?5?8llabel_t_ea_set?8?0?5ar@ 0000000180023550     frame.obj
 0002:00008590       ??_C@_0DH@DBPCHHJF@in?5method?5?8llabel_t_ea_set?8?0?5ar@ 0000000180023590     frame.obj
 0002:000085c8       ??_C@_0DN@PBKMOCBI@in?5method?5?8llabel_t_ea_get?8?0?5ar@ 00000001800235c8     frame.obj
 0002:00008608       ??_C@_0DP@KINOOKDN@in?5method?5?8llabel_t_name_set?8?0?5@ 0000000180023608     frame.obj
 0002:00008648       ??_C@_0DL@LBBCNEFL@in?5method?5?8llabel_t_name_set?8?0?5@ 0000000180023648     frame.obj
 0002:00008688       ??_C@_0DP@EGNMOEBL@in?5method?5?8llabel_t_name_get?8?0?5@ 0000000180023688     frame.obj
 0002:000086c8       ??_C@_0DN@IFDBDJG@in?5method?5?8delete_llabel_t?8?0?5ar@ 00000001800236c8     frame.obj
 0002:00008708       ??_C@_0DL@JNADBGEK@in?5method?5?8add_auto_stkpnt?8?0?5ar@ 0000000180023708     frame.obj
 0002:00008748       ??_C@_0DH@NFDHCBGL@in?5method?5?8add_auto_stkpnt?8?0?5ar@ 0000000180023748     frame.obj
 0002:00008780       ??_C@_0DJ@EMHJCNLF@in?5method?5?8add_auto_stkpnt?8?0?5ar@ 0000000180023780     frame.obj
 0002:000087c0       ??_C@_0DH@LGIPLLJF@in?5method?5?8add_user_stkpnt?8?0?5ar@ 00000001800237c0     frame.obj
 0002:000087f8       ??_C@_0DJ@KCCIPOJF@in?5method?5?8add_user_stkpnt?8?0?5ar@ 00000001800237f8     frame.obj
 0002:00008838       ??_C@_0DG@HFMICFDC@in?5method?5?8del_stkpnt?8?0?5argumen@ 0000000180023838     frame.obj
 0002:00008870       ??_C@_0DC@DCGFOEAG@in?5method?5?8del_stkpnt?8?0?5argumen@ 0000000180023870     frame.obj
 0002:000088a8       ??_C@_0DD@HEPOGDEO@in?5method?5?8get_spd?8?0?5argument?51@ 00000001800238a8     frame.obj
 0002:000088e0       ??_C@_0CP@MEBMJBMC@in?5method?5?8get_spd?8?0?5argument?52@ 00000001800238e0     frame.obj
 0002:00008910       ??_C@_0DN@ODAJOHEP@in?5method?5?8get_effective_spd?8?0?5@ 0000000180023910     frame.obj
 0002:00008950       ??_C@_0DJ@NAMIHKNF@in?5method?5?8get_effective_spd?8?0?5@ 0000000180023950     frame.obj
 0002:00008990       ??_C@_0DI@LKCPNNNM@in?5method?5?8get_sp_delta?8?0?5argum@ 0000000180023990     frame.obj
 0002:000089c8       ??_C@_0DE@FHBJMOFC@in?5method?5?8get_sp_delta?8?0?5argum@ 00000001800239c8     frame.obj
 0002:00008a00       ??_C@_0DC@LHIDOHLJ@in?5method?5?8recalc_spd?8?0?5argumen@ 0000000180023a00     frame.obj
 0002:00008a40       ??_C@_0EN@CHHFKHBL@in?5method?5?8xreflist_entry_t_ea_@ 0000000180023a40     frame.obj
 0002:00008a90       ??_C@_0DP@OKNHHMCG@in?5method?5?8xreflist_entry_t_ea_@ 0000000180023a90     frame.obj
 0002:00008ad0       ??_C@_0EN@JCHPGPCC@in?5method?5?8xreflist_entry_t_ea_@ 0000000180023ad0     frame.obj
 0002:00008b20       ??_C@_0FA@LKDJGEKP@in?5method?5?8xreflist_entry_t_opn@ 0000000180023b20     frame.obj
 0002:00008b70       ??_C@_0ED@JKICAMAB@in?5method?5?8xreflist_entry_t_opn@ 0000000180023b70     frame.obj
 0002:00008bc0       ??_C@_0FA@PDDKMJG@in?5method?5?8xreflist_entry_t_opn@ 0000000180023bc0     frame.obj
 0002:00008c10       ??_C@_0EP@KOPCJMLI@in?5method?5?8xreflist_entry_t_typ@ 0000000180023c10     frame.obj
 0002:00008c60       ??_C@_0EC@GINEJKCH@in?5method?5?8xreflist_entry_t_typ@ 0000000180023c60     frame.obj
 0002:00008cb0       ??_C@_0EP@BLPIFEIB@in?5method?5?8xreflist_entry_t_typ@ 0000000180023cb0     frame.obj
 0002:00008d00       ??_C@_0FD@HKFIGJJK@in?5method?5?8xreflist_entry_t___e@ 0000000180023d00     frame.obj
 0002:00008d60       ??_C@_0FD@CJCDKPJO@in?5method?5?8xreflist_entry_t___e@ 0000000180023d60     frame.obj
 0002:00008dc0       ??_C@_0GK@NMGFBPFN@invalid?5null?5reference?5in?5metho@ 0000000180023dc0     frame.obj
 0002:00008e30       ??_C@_0FD@OPCOBODD@in?5method?5?8xreflist_entry_t___n@ 0000000180023e30     frame.obj
 0002:00008e90       ??_C@_0FD@LMFFNIDH@in?5method?5?8xreflist_entry_t___n@ 0000000180023e90     frame.obj
 0002:00008ef0       ??_C@_0GK@EJBDGIPE@invalid?5null?5reference?5in?5metho@ 0000000180023ef0     frame.obj
 0002:00008f60       ??_C@_0EN@LBHGHMOL@in?5method?5?8delete_xreflist_entr@ 0000000180023f60     frame.obj
 0002:00008fb0       ??_C@_0EC@KBFEFHOD@in?5method?5?8build_stkvar_xrefs?8?0@ 0000000180023fb0     frame.obj
 0002:00008ff8       ??_C@_0DO@KCEJCHD@in?5method?5?8build_stkvar_xrefs?8?0@ 0000000180023ff8     frame.obj
 0002:00009040       ??_C@_0EG@KLBMJPCF@in?5method?5?8build_stkvar_xrefs?8?0@ 0000000180024040     frame.obj
 0002:00009088       ??_C@_0DK@LMFCJCCB@in?5method?5?8get_min_spd_ea?8?0?5arg@ 0000000180024088     frame.obj
 0002:000090d0       ??_C@_0EH@OONHLHNN@in?5method?5?8delete_unreferenced_@ 00000001800240d0     frame.obj
 0002:00009120       ??_C@_0ED@FKJJGIHH@in?5method?5?8delete_wrong_stkvar_@ 0000000180024120     frame.obj
 0002:00009168       ??_C@_0L@BMDPKJIH@_ida_frame@ 0000000180024168     frame.obj
 0002:00009210       ??_C@_08IJLHJENO@FPC_ARGS@ 0000000180024210     frame.obj
 0002:00009220       ??_C@_0M@ODHIIEHN@FPC_RETADDR@ 0000000180024220     frame.obj
 0002:00009230       ??_C@_0M@BCPEAENE@FPC_SAVREGS@ 0000000180024230     frame.obj
 0002:00009240       ??_C@_09JNMDMGCF@FPC_LVARS@ 0000000180024240     frame.obj
 0002:00009250       ??_C@_0BC@CLALKNEH@STKVAR_VALID_SIZE@ 0000000180024250     frame.obj
 0002:00009268       ??_C@_0BA@JLGFEGMB@REGVAR_ERROR_OK@ 0000000180024268     frame.obj
 0002:00009278       ??_C@_0BB@KAOIKBGO@REGVAR_ERROR_ARG@ 0000000180024278     frame.obj
 0002:00009290       ??_C@_0BD@HNHOIHFH@REGVAR_ERROR_RANGE@ 0000000180024290     frame.obj
 0002:000092a8       ??_C@_0BC@OKMPPFMI@REGVAR_ERROR_NAME@ 00000001800242a8     frame.obj
 0002:000092ba       ?nullstr@?1??c_str@?$_qstring@D@@QEBAPEBDXZ@4QBDB 00000001800242ba     frame.obj
 0002:000092f0       ??_C@_1EC@JIJBPKFM@?$AAa?$AAp?$AAi?$AA?9?$AAm?$AAs?$AA?9?$AAw?$AAi?$AAn?$AA?9?$AAc?$AAo?$AAr?$AAe@ 00000001800242f0     MSVCRT:thread_safe_statics.obj
 0002:00009338       ??_C@_1BK@MGMFAEKH@?$AAk?$AAe?$AAr?$AAn?$AAe?$AAl?$AA3?$AA2?$AA?4?$AAd?$AAl?$AAl@ 0000000180024338     MSVCRT:thread_safe_statics.obj
 0002:00009358       ??_C@_0BM@HLJJNPAH@InitializeConditionVariable@ 0000000180024358     MSVCRT:thread_safe_statics.obj
 0002:00009378       ??_C@_0BJ@JEBJOJFJ@SleepConditionVariableCS@ 0000000180024378     MSVCRT:thread_safe_statics.obj
 0002:00009398       ??_C@_0BJ@PGPPEPCC@WakeAllConditionVariable@ 0000000180024398     MSVCRT:thread_safe_statics.obj
 0002:000093c0       ??_7type_info@@6B@         00000001800243c0     MSVCRT:std_type_info_static.obj
 0002:000093c8       _pDefaultRawDllMain        00000001800243c8     MSVCRT:dll_dllmain.obj
 0002:000093c8       _pRawDllMain               00000001800243c8     MSVCRT:dll_dllmain.obj
 0002:000093d8       ??_7bad_alloc@std@@6B@     00000001800243d8     MSVCRT:throw_bad_alloc.obj
 0002:000093e8       ??_C@_0P@GHFPNOJB@bad?5allocation@ 00000001800243e8     MSVCRT:throw_bad_alloc.obj
 0002:00009400       ??_7bad_array_new_length@std@@6B@ 0000000180024400     MSVCRT:throw_bad_alloc.obj
 0002:00009410       ??_C@_0BF@KINCDENJ@bad?5array?5new?5length@ 0000000180024410     MSVCRT:throw_bad_alloc.obj
 0002:000094a0       _load_config_used          00000001800244a0     MSVCRT:loadcfg.obj
 0002:000095a0       _tls_used                  00000001800245a0     MSVCRT:tlssup.obj
 0002:000095c8       ??_R4exception@std@@6B@    00000001800245c8     frame.obj
 0002:000095f0       ??_R3exception@std@@8      00000001800245f0     frame.obj
 0002:00009608       ??_R2exception@std@@8      0000000180024608     frame.obj
 0002:00009618       ??_R1A@?0A@EA@exception@std@@8 0000000180024618     frame.obj
 0002:00009640       ??_R4logic_error@std@@6B@  0000000180024640     frame.obj
 0002:00009668       ??_R3logic_error@std@@8    0000000180024668     frame.obj
 0002:00009680       ??_R2logic_error@std@@8    0000000180024680     frame.obj
 0002:00009698       ??_R1A@?0A@EA@logic_error@std@@8 0000000180024698     frame.obj
 0002:000096c0       ??_R4out_of_range@std@@6B@ 00000001800246c0     frame.obj
 0002:000096e8       ??_R3out_of_range@std@@8   00000001800246e8     frame.obj
 0002:00009700       ??_R2out_of_range@std@@8   0000000180024700     frame.obj
 0002:00009720       ??_R1A@?0A@EA@out_of_range@std@@8 0000000180024720     frame.obj
 0002:00009748       ??_R4type_info@@6B@        0000000180024748     MSVCRT:std_type_info_static.obj
 0002:00009770       ??_R3type_info@@8          0000000180024770     MSVCRT:std_type_info_static.obj
 0002:00009788       ??_R2type_info@@8          0000000180024788     MSVCRT:std_type_info_static.obj
 0002:00009798       ??_R1A@?0A@EA@type_info@@8 0000000180024798     MSVCRT:std_type_info_static.obj
 0002:000097c0       ??_R4bad_alloc@std@@6B@    00000001800247c0     MSVCRT:throw_bad_alloc.obj
 0002:000097e8       ??_R3bad_alloc@std@@8      00000001800247e8     MSVCRT:throw_bad_alloc.obj
 0002:00009800       ??_R2bad_alloc@std@@8      0000000180024800     MSVCRT:throw_bad_alloc.obj
 0002:00009818       ??_R1A@?0A@EA@bad_alloc@std@@8 0000000180024818     MSVCRT:throw_bad_alloc.obj
 0002:00009840       ??_R4bad_array_new_length@std@@6B@ 0000000180024840     MSVCRT:throw_bad_alloc.obj
 0002:00009868       ??_R3bad_array_new_length@std@@8 0000000180024868     MSVCRT:throw_bad_alloc.obj
 0002:00009880       ??_R2bad_array_new_length@std@@8 0000000180024880     MSVCRT:throw_bad_alloc.obj
 0002:000098a0       ??_R1A@?0A@EA@bad_array_new_length@std@@8 00000001800248a0     MSVCRT:throw_bad_alloc.obj
 0002:00009bd8       __rtc_iaa                  0000000180024bd8     MSVCRT:initsect.obj
 0002:00009be0       __rtc_izz                  0000000180024be0     MSVCRT:initsect.obj
 0002:00009be8       __rtc_taa                  0000000180024be8     MSVCRT:initsect.obj
 0002:00009bf0       __rtc_tzz                  0000000180024bf0     MSVCRT:initsect.obj
 0002:00009bf8       _tls_start                 0000000180024bf8     MSVCRT:tlssup.obj
 0002:00009bfc       _Init_thread_epoch         0000000180024bfc     MSVCRT:thread_safe_statics.obj
 0002:00009c00       _tls_end                   0000000180024c00     MSVCRT:tlssup.obj
 0002:0000f210       _CT??_R0?AVexception@std@@@8??0exception@std@@QEAA@AEBV01@@Z24 000000018002a210     frame.obj
 0002:0000f238       _TI3?AVout_of_range@std@@  000000018002a238     frame.obj
 0002:0000f258       _CTA3?AVout_of_range@std@@ 000000018002a258     frame.obj
 0002:0000f278       _CT??_R0?AVout_of_range@std@@@8??0out_of_range@std@@QEAA@AEBV01@@Z24 000000018002a278     frame.obj
 0002:0000f2a0       _CT??_R0?AVlogic_error@std@@@8??0logic_error@std@@QEAA@AEBV01@@Z24 000000018002a2a0     frame.obj
 0002:0000f2c8       _TI2?AVbad_alloc@std@@     000000018002a2c8     MSVCRT:throw_bad_alloc.obj
 0002:0000f2e8       _CTA2?AVbad_alloc@std@@    000000018002a2e8     MSVCRT:throw_bad_alloc.obj
 0002:0000f300       _CT??_R0?AVbad_alloc@std@@@8??0bad_alloc@std@@QEAA@AEBV01@@Z24 000000018002a300     MSVCRT:throw_bad_alloc.obj
 0002:0000f328       _TI3?AVbad_array_new_length@std@@ 000000018002a328     MSVCRT:throw_bad_alloc.obj
 0002:0000f348       _CTA3?AVbad_array_new_length@std@@ 000000018002a348     MSVCRT:throw_bad_alloc.obj
 0002:0000f368       _CT??_R0?AVbad_array_new_length@std@@@8??0bad_array_new_length@std@@QEAA@AEBV01@@Z24 000000018002a368     MSVCRT:throw_bad_alloc.obj
 0002:0000f3e4       __IMPORT_DESCRIPTOR_ida    000000018002a3e4     ida:ida.dll
 0002:0000f3f8       __IMPORT_DESCRIPTOR_python38 000000018002a3f8     python38:python38.dll
 0002:0000f40c       __IMPORT_DESCRIPTOR_python 000000018002a40c     python:python.dll
 0002:0000f420       __IMPORT_DESCRIPTOR_KERNEL32 000000018002a420     kernel32:KERNEL32.dll
 0002:0000f434       __IMPORT_DESCRIPTOR_VCRUNTIME140 000000018002a434     vcruntime:VCRUNTIME140.dll
 0002:0000f448       __IMPORT_DESCRIPTOR_api-ms-win-crt-stdio-l1-1-0 000000018002a448     ucrt:api-ms-win-crt-stdio-l1-1-0.dll
 0002:0000f45c       __IMPORT_DESCRIPTOR_api-ms-win-crt-string-l1-1-0 000000018002a45c     ucrt:api-ms-win-crt-string-l1-1-0.dll
 0002:0000f470       __IMPORT_DESCRIPTOR_api-ms-win-crt-heap-l1-1-0 000000018002a470     ucrt:api-ms-win-crt-heap-l1-1-0.dll
 0002:0000f484       __IMPORT_DESCRIPTOR_api-ms-win-crt-runtime-l1-1-0 000000018002a484     ucrt:api-ms-win-crt-runtime-l1-1-0.dll
 0002:0000f498       __NULL_IMPORT_DESCRIPTOR   000000018002a498     ida:ida.dll
 0003:00003878       _Init_global_epoch         000000018002f878     MSVCRT:thread_safe_statics.obj
 0003:00003880       __security_cookie_complement 000000018002f880     MSVCRT:gs_cookie.obj
 0003:00003888       __security_cookie          000000018002f888     MSVCRT:gs_cookie.obj
 0003:00003890       __scrt_native_dllmain_reason 000000018002f890     MSVCRT:utility.obj
 0003:00003898       __isa_available            000000018002f898     MSVCRT:cpu_disp.obj
 0003:0000389c       __isa_enabled              000000018002f89c     MSVCRT:cpu_disp.obj
 0003:000038a0       __memcpy_nt_iters          000000018002f8a0     MSVCRT:cpu_disp.obj
 0003:000038b0       __scrt_ucrt_dll_is_in_use  000000018002f8b0     MSVCRT:ucrt_stubs.obj
 0003:000038b8       ??_R0?AVexception@std@@@8  000000018002f8b8     frame.obj
 0003:000038e0       ??_R0?AVDirectorException@Swig@@@8 000000018002f8e0     frame.obj
 0003:00003910       ??_R0?AVout_of_range@std@@@8 000000018002f910     frame.obj
 0003:00003938       ??_R0?AVlogic_error@std@@@8 000000018002f938     frame.obj
 0003:00003960       ??_R0?AVbad_alloc@std@@@8  000000018002f960     frame.obj
 0003:00003988       ??_R0?AUinterr_exc_t@@@8   000000018002f988     frame.obj
 0003:000039b0       ??_R0?AVtype_info@@@8      000000018002f9b0     MSVCRT:std_type_info_static.obj
 0003:000039d0       ??_R0?AVbad_array_new_length@std@@@8 000000018002f9d0     MSVCRT:throw_bad_alloc.obj
 0003:00003a00       ?swig_mutex_own@Director@Swig@@0U_RTL_CRITICAL_SECTION@2@A 000000018002fa00     frame.obj
 0003:00003cf0       ?_OptionsStorage@?1??__local_stdio_printf_options@@9@4_KA 000000018002fcf0     frame.obj
 0003:00003d80       _tls_index                 000000018002fd80     MSVCRT:tlssup.obj
 0003:00003d88       __scrt_current_native_startup_state 000000018002fd88     MSVCRT:utility.obj
 0003:00003d90       __scrt_native_startup_lock 000000018002fd90     MSVCRT:utility.obj
 0003:00003dd0       __scrt_debugger_hook_flag  000000018002fdd0     MSVCRT:utility_desktop.obj
 0003:00004350       ?__type_info_root_node@@3U__type_info_node@@A 0000000180030350     MSVCRT:tncleanup.obj
 0003:00004360       ?_OptionsStorage@?1??__local_stdio_scanf_options@@9@4_KA 0000000180030360     MSVCRT:default_local_stdio_options.obj
 0003:00004368       __favor                    0000000180030368     MSVCRT:cpu_disp.obj
 0003:00004370       __dyn_tls_init_callback    0000000180030370     <common>

 entry point at        0001:00011b50

 Static symbols

 0000:fffcb000       .debug$S                   0000000180000000     ida:ida.dll
 0000:fffcb000       .debug$S                   0000000180000000     ida:ida.dll
 0000:fffcb000       .debug$S                   0000000180000000     ida:ida.dll
 0000:fffcb000       .debug$S                   0000000180000000     ida:ida.dll
 0000:fffcb000       .debug$S                   0000000180000000     ida:ida.dll
 0000:fffcb000       .debug$S                   0000000180000000     _ida_frame.exp
 0000:fffcb000       .debug$S                   0000000180000000     ida:ida.dll
 0000:fffcb000       .debug$S                   0000000180000000     ida:ida.dll
 0000:fffcb000       .debug$S                   0000000180000000     ida:ida.dll
 0000:fffcb000       .debug$S                   0000000180000000     ida:ida.dll
 0000:fffcb000       .debug$S                   0000000180000000     ida:ida.dll
 0000:fffcb000       .debug$S                   0000000180000000     ucrt:api-ms-win-crt-runtime-l1-1-0.dll
 0000:fffcb000       .debug$S                   0000000180000000     ucrt:api-ms-win-crt-runtime-l1-1-0.dll
 0000:fffcb000       .debug$S                   0000000180000000     ucrt:api-ms-win-crt-runtime-l1-1-0.dll
 0000:fffcb000       .debug$S                   0000000180000000     ucrt:api-ms-win-crt-runtime-l1-1-0.dll
 0000:fffcb000       .debug$S                   0000000180000000     ucrt:api-ms-win-crt-runtime-l1-1-0.dll
 0000:fffcb000       .debug$S                   0000000180000000     ucrt:api-ms-win-crt-runtime-l1-1-0.dll
 0000:fffcb000       .debug$S                   0000000180000000     ucrt:api-ms-win-crt-runtime-l1-1-0.dll
 0000:fffcb000       .debug$S                   0000000180000000     ucrt:api-ms-win-crt-runtime-l1-1-0.dll
 0000:fffcb000       .debug$S                   0000000180000000     ucrt:api-ms-win-crt-runtime-l1-1-0.dll
 0000:fffcb000       .debug$S                   0000000180000000     ucrt:api-ms-win-crt-runtime-l1-1-0.dll
 0000:fffcb000       .debug$S                   0000000180000000     ucrt:api-ms-win-crt-runtime-l1-1-0.dll
 0000:fffcb000       .debug$S                   0000000180000000     ucrt:api-ms-win-crt-runtime-l1-1-0.dll
 0000:fffcb000       .debug$S                   0000000180000000     ucrt:api-ms-win-crt-heap-l1-1-0.dll
 0000:fffcb000       .debug$S                   0000000180000000     ucrt:api-ms-win-crt-heap-l1-1-0.dll
 0000:fffcb000       .debug$S                   0000000180000000     ucrt:api-ms-win-crt-heap-l1-1-0.dll
 0000:fffcb000       .debug$S                   0000000180000000     ucrt:api-ms-win-crt-string-l1-1-0.dll
 0000:fffcb000       .debug$S                   0000000180000000     ucrt:api-ms-win-crt-string-l1-1-0.dll
 0000:fffcb000       .debug$S                   0000000180000000     ucrt:api-ms-win-crt-stdio-l1-1-0.dll
 0000:fffcb000       .debug$S                   0000000180000000     ucrt:api-ms-win-crt-stdio-l1-1-0.dll
 0000:fffcb000       .debug$S                   0000000180000000     ida:ida.dll
 0000:fffcb000       .debug$S                   0000000180000000     vcruntime:VCRUNTIME140.dll
 0000:fffcb000       .debug$S                   0000000180000000     vcruntime:VCRUNTIME140.dll
 0000:fffcb000       .debug$S                   0000000180000000     vcruntime:VCRUNTIME140.dll
 0000:fffcb000       .debug$S                   0000000180000000     vcruntime:VCRUNTIME140.dll
 0000:fffcb000       .debug$S                   0000000180000000     vcruntime:VCRUNTIME140.dll
 0000:fffcb000       .debug$S                   0000000180000000     vcruntime:VCRUNTIME140.dll
 0000:fffcb000       .debug$S                   0000000180000000     vcruntime:VCRUNTIME140.dll
 0000:fffcb000       .debug$S                   0000000180000000     vcruntime:VCRUNTIME140.dll
 0000:fffcb000       .debug$S                   0000000180000000     vcruntime:VCRUNTIME140.dll
 0000:fffcb000       .debug$S                   0000000180000000     vcruntime:VCRUNTIME140.dll
 0000:fffcb000       .debug$S                   0000000180000000     vcruntime:VCRUNTIME140.dll
 0000:fffcb000       .debug$S                   0000000180000000     ida:ida.dll
 0000:fffcb000       .debug$S                   0000000180000000     kernel32:KERNEL32.dll
 0000:fffcb000       .debug$S                   0000000180000000     kernel32:KERNEL32.dll
 0000:fffcb000       .debug$S                   0000000180000000     kernel32:KERNEL32.dll
 0000:fffcb000       .debug$S                   0000000180000000     kernel32:KERNEL32.dll
 0000:fffcb000       .debug$S                   0000000180000000     kernel32:KERNEL32.dll
 0000:fffcb000       .debug$S                   0000000180000000     kernel32:KERNEL32.dll
 0000:fffcb000       .debug$S                   0000000180000000     kernel32:KERNEL32.dll
 0000:fffcb000       .debug$S                   0000000180000000     kernel32:KERNEL32.dll
 0000:fffcb000       .debug$S                   0000000180000000     kernel32:KERNEL32.dll
 0000:fffcb000       .debug$S                   0000000180000000     kernel32:KERNEL32.dll
 0000:fffcb000       .debug$S                   0000000180000000     kernel32:KERNEL32.dll
 0000:fffcb000       .debug$S                   0000000180000000     kernel32:KERNEL32.dll
 0000:fffcb000       .debug$S                   0000000180000000     kernel32:KERNEL32.dll
 0000:fffcb000       .debug$S                   0000000180000000     kernel32:KERNEL32.dll
 0000:fffcb000       .debug$S                   0000000180000000     kernel32:KERNEL32.dll
 0000:fffcb000       .debug$S                   0000000180000000     kernel32:KERNEL32.dll
 0000:fffcb000       .debug$S                   0000000180000000     kernel32:KERNEL32.dll
 0000:fffcb000       .debug$S                   0000000180000000     kernel32:KERNEL32.dll
 0000:fffcb000       .debug$S                   0000000180000000     kernel32:KERNEL32.dll
 0000:fffcb000       .debug$S                   0000000180000000     kernel32:KERNEL32.dll
 0000:fffcb000       .debug$S                   0000000180000000     kernel32:KERNEL32.dll
 0000:fffcb000       .debug$S                   0000000180000000     kernel32:KERNEL32.dll
 0000:fffcb000       .debug$S                   0000000180000000     kernel32:KERNEL32.dll
 0000:fffcb000       .debug$S                   0000000180000000     kernel32:KERNEL32.dll
 0000:fffcb000       .debug$S                   0000000180000000     kernel32:KERNEL32.dll
 0000:fffcb000       .debug$S                   0000000180000000     kernel32:KERNEL32.dll
 0000:fffcb000       .debug$S                   0000000180000000     kernel32:KERNEL32.dll
 0000:fffcb000       .debug$S                   0000000180000000     ida:ida.dll
 0000:fffcb000       .debug$S                   0000000180000000     ida:ida.dll
 0000:fffcb000       .debug$S                   0000000180000000     ida:ida.dll
 0000:fffcb000       .debug$S                   0000000180000000     ida:ida.dll
 0000:fffcb000       .debug$S                   0000000180000000     ida:ida.dll
 0000:fffcb000       .debug$S                   0000000180000000     ida:ida.dll
 0000:fffcb000       .debug$S                   0000000180000000     ida:ida.dll
 0000:fffcb000       .debug$S                   0000000180000000     ida:ida.dll
 0000:fffcb000       .debug$S                   0000000180000000     ida:ida.dll
 0000:fffcb000       .debug$S                   0000000180000000     python38:python38.dll
 0000:fffcb000       .debug$S                   0000000180000000     python38:python38.dll
 0000:fffcb000       .debug$S                   0000000180000000     python38:python38.dll
 0000:fffcb000       .debug$S                   0000000180000000     python38:python38.dll
 0000:fffcb000       .debug$S                   0000000180000000     python38:python38.dll
 0000:fffcb000       .debug$S                   0000000180000000     python38:python38.dll
 0000:fffcb000       .debug$S                   0000000180000000     python38:python38.dll
 0000:fffcb000       .debug$S                   0000000180000000     python38:python38.dll
 0000:fffcb000       .debug$S                   0000000180000000     python38:python38.dll
 0000:fffcb000       .debug$S                   0000000180000000     python38:python38.dll
 0000:fffcb000       .debug$S                   0000000180000000     python38:python38.dll
 0000:fffcb000       .debug$S                   0000000180000000     ida:ida.dll
 0000:fffcb000       .debug$S                   0000000180000000     python38:python38.dll
 0000:fffcb000       .debug$S                   0000000180000000     python38:python38.dll
 0000:fffcb000       .debug$S                   0000000180000000     python38:python38.dll
 0000:fffcb000       .debug$S                   0000000180000000     python38:python38.dll
 0000:fffcb000       .debug$S                   0000000180000000     python38:python38.dll
 0000:fffcb000       .debug$S                   0000000180000000     python38:python38.dll
 0000:fffcb000       .debug$S                   0000000180000000     python38:python38.dll
 0000:fffcb000       .debug$S                   0000000180000000     python38:python38.dll
 0000:fffcb000       .debug$S                   0000000180000000     python38:python38.dll
 0000:fffcb000       .debug$S                   0000000180000000     python38:python38.dll
 0000:fffcb000       .debug$S                   0000000180000000     python38:python38.dll
 0000:fffcb000       .debug$S                   0000000180000000     python38:python38.dll
 0000:fffcb000       .debug$S                   0000000180000000     python38:python38.dll
 0000:fffcb000       .debug$S                   0000000180000000     python38:python38.dll
 0000:fffcb000       .debug$S                   0000000180000000     python38:python38.dll
 0000:fffcb000       .debug$S                   0000000180000000     python38:python38.dll
 0000:fffcb000       .debug$S                   0000000180000000     python38:python38.dll
 0000:fffcb000       .debug$S                   0000000180000000     python38:python38.dll
 0000:fffcb000       .debug$S                   0000000180000000     python38:python38.dll
 0000:fffcb000       .debug$S                   0000000180000000     python38:python38.dll
 0000:fffcb000       .debug$S                   0000000180000000     python38:python38.dll
 0000:fffcb000       .debug$S                   0000000180000000     python38:python38.dll
 0000:fffcb000       .debug$S                   0000000180000000     python38:python38.dll
 0000:fffcb000       .debug$S                   0000000180000000     python38:python38.dll
 0000:fffcb000       .debug$S                   0000000180000000     python38:python38.dll
 0000:fffcb000       .debug$S                   0000000180000000     python38:python38.dll
 0000:fffcb000       .debug$S                   0000000180000000     python38:python38.dll
 0000:fffcb000       .debug$S                   0000000180000000     python38:python38.dll
 0000:fffcb000       .debug$S                   0000000180000000     python38:python38.dll
 0000:fffcb000       .debug$S                   0000000180000000     python38:python38.dll
 0000:fffcb000       .debug$S                   0000000180000000     python38:python38.dll
 0000:fffcb000       .debug$S                   0000000180000000     python38:python38.dll
 0000:fffcb000       .debug$S                   0000000180000000     python38:python38.dll
 0000:fffcb000       .debug$S                   0000000180000000     python38:python38.dll
 0000:fffcb000       .debug$S                   0000000180000000     python38:python38.dll
 0000:fffcb000       .debug$S                   0000000180000000     python38:python38.dll
 0000:fffcb000       .debug$S                   0000000180000000     python38:python38.dll
 0000:fffcb000       .debug$S                   0000000180000000     python38:python38.dll
 0000:fffcb000       .debug$S                   0000000180000000     python38:python38.dll
 0000:fffcb000       .debug$S                   0000000180000000     python38:python38.dll
 0000:fffcb000       .debug$S                   0000000180000000     python38:python38.dll
 0000:fffcb000       .debug$S                   0000000180000000     ida:ida.dll
 0000:fffcb000       .debug$S                   0000000180000000     python38:python38.dll
 0000:fffcb000       .debug$S                   0000000180000000     python38:python38.dll
 0000:fffcb000       .debug$S                   0000000180000000     python38:python38.dll
 0000:fffcb000       .debug$S                   0000000180000000     python38:python38.dll
 0000:fffcb000       .debug$S                   0000000180000000     python38:python38.dll
 0000:fffcb000       .debug$S                   0000000180000000     python38:python38.dll
 0000:fffcb000       .debug$S                   0000000180000000     python38:python38.dll
 0000:fffcb000       .debug$S                   0000000180000000     python38:python38.dll
 0000:fffcb000       .debug$S                   0000000180000000     python38:python38.dll
 0000:fffcb000       .debug$S                   0000000180000000     python38:python38.dll
 0000:fffcb000       .debug$S                   0000000180000000     python38:python38.dll
 0000:fffcb000       .debug$S                   0000000180000000     python38:python38.dll
 0000:fffcb000       .debug$S                   0000000180000000     python38:python38.dll
 0000:fffcb000       .debug$S                   0000000180000000     python38:python38.dll
 0000:fffcb000       .debug$S                   0000000180000000     python38:python38.dll
 0000:fffcb000       .debug$S                   0000000180000000     python38:python38.dll
 0000:fffcb000       .debug$S                   0000000180000000     python38:python38.dll
 0000:fffcb000       .debug$S                   0000000180000000     python38:python38.dll
 0000:fffcb000       .debug$S                   0000000180000000     python38:python38.dll
 0000:fffcb000       .debug$S                   0000000180000000     python38:python38.dll
 0000:fffcb000       .debug$S                   0000000180000000     python38:python38.dll
 0000:fffcb000       .debug$S                   0000000180000000     ida:ida.dll
 0000:fffcb000       .debug$S                   0000000180000000     python38:python38.dll
 0000:fffcb000       .debug$S                   0000000180000000     python38:python38.dll
 0000:fffcb000       .debug$S                   0000000180000000     python38:python38.dll
 0000:fffcb000       .debug$S                   0000000180000000     python38:python38.dll
 0000:fffcb000       .debug$S                   0000000180000000     python38:python38.dll
 0000:fffcb000       .debug$S                   0000000180000000     python38:python38.dll
 0000:fffcb000       .debug$S                   0000000180000000     python38:python38.dll
 0000:fffcb000       .debug$S                   0000000180000000     ida:ida.dll
 0000:fffcb000       .debug$S                   0000000180000000     ida:ida.dll
 0000:fffcb000       .debug$S                   0000000180000000     ida:ida.dll
 0000:fffcb000       .debug$S                   0000000180000000     ida:ida.dll
 0000:fffcb000       .debug$S                   0000000180000000     ida:ida.dll
 0000:fffcb000       .debug$S                   0000000180000000     python:python.dll
 0000:fffcb000       .debug$S                   0000000180000000     ida:ida.dll
 0000:fffcb000       .debug$S                   0000000180000000     ida:ida.dll
 0000:fffcb000       .debug$S                   0000000180000000     ida:ida.dll
 0000:fffcb000       .debug$S                   0000000180000000     ida:ida.dll
 0000:fffcb000       .debug$S                   0000000180000000     ida:ida.dll
 0000:fffcb000       .debug$S                   0000000180000000     ida:ida.dll
 0000:fffcb000       .debug$S                   0000000180000000     ida:ida.dll
 0000:fffcb000       .debug$S                   0000000180000000     ida:ida.dll
 0000:fffcb000       .debug$S                   0000000180000000     ida:ida.dll
 0000:fffcb000       .debug$S                   0000000180000000     ida:ida.dll
 0001:00000000       _wrap_stkpnt_t_ea_get      0000000180001000 f   frame.obj
 0001:00000100       _wrap_stkpnt_t_spd_set     0000000180001100 f   frame.obj
 0001:00000280       _wrap_stkpnt_t_spd_get     0000000180001280 f   frame.obj
 0001:00000380       _wrap_stkpnt_t___lt__      0000000180001380 f   frame.obj
 0001:000005e0       _wrap_new_stkpnt_t         00000001800015e0 f   frame.obj
 0001:00000650       _wrap_delete_stkpnt_t      0000000180001650 f   frame.obj
 0001:00000780       stkpnt_t_swigregister      0000000180001780 f   frame.obj
 0001:00000810       regvar_t_swiginit          0000000180001810 f   frame.obj
 0001:00000810       stkpnt_t_swiginit          0000000180001810 f   frame.obj
 0001:00000810       llabel_t_swiginit          0000000180001810 f   frame.obj
 0001:00000810       xreflist_t_swiginit        0000000180001810 f   frame.obj
 0001:00000810       stkpnts_t_swiginit         0000000180001810 f   frame.obj
 0001:00000810       xreflist_entry_t_swiginit  0000000180001810 f   frame.obj
 0001:00000820       _wrap_new_stkpnts_t        0000000180001820 f   frame.obj
 0001:000008b0       _wrap_delete_stkpnts_t     00000001800018b0 f   frame.obj
 0001:00000a10       stkpnts_t_swigregister     0000000180001a10 f   frame.obj
 0001:00000aa0       _wrap_add_frame            0000000180001aa0 f   frame.obj
 0001:00000d40       _wrap_del_frame            0000000180001d40 f   frame.obj
 0001:00000ea0       _wrap_set_frame_size       0000000180001ea0 f   frame.obj
 0001:00001170       _wrap_get_frame_size       0000000180002170 f   frame.obj
 0001:000012c0       _wrap_get_frame_retsize    00000001800022c0 f   frame.obj
 0001:00001410       _wrap_get_frame_part       0000000180002410 f   frame.obj
 0001:000016c0       _wrap_frame_off_args       00000001800026c0 f   frame.obj
 0001:00001820       _wrap_frame_off_retaddr    0000000180002820 f   frame.obj
 0001:00001990       _wrap_frame_off_savregs    0000000180002990 f   frame.obj
 0001:00001b00       _wrap_frame_off_lvars      0000000180002b00 f   frame.obj
 0001:00001c70       _wrap_is_funcarg_off       0000000180002c70 f   frame.obj
 0001:00001e80       _wrap_lvar_off             0000000180002e80 f   frame.obj
 0001:00002080       _wrap_get_frame            0000000180003080 f   frame.obj
 0001:000022e0       _wrap_update_fpd           00000001800032e0 f   frame.obj
 0001:000024c0       _wrap_set_purged           00000001800034c0 f   frame.obj
 0001:00002660       _wrap_get_func_by_frame    0000000180003660 f   frame.obj
 0001:00002730       _wrap_define_stkvar        0000000180003730 f   frame.obj
 0001:00002c40       _wrap_build_stkvar_name    0000000180003c40 f   frame.obj
 0001:00002ea0       _wrap_calc_stkvar_struc_offset 0000000180003ea0 f   frame.obj
 0001:00003170       _wrap_regvar_t_canon_set   0000000180004170 f   frame.obj
 0001:00003470       _wrap_regvar_t_canon_get   0000000180004470 f   frame.obj
 0001:00003570       _wrap_regvar_t_user_set    0000000180004570 f   frame.obj
 0001:00003870       _wrap_regvar_t_user_get    0000000180004870 f   frame.obj
 0001:00003970       _wrap_regvar_t_cmt_set     0000000180004970 f   frame.obj
 0001:00003c70       _wrap_regvar_t_cmt_get     0000000180004c70 f   frame.obj
 0001:00003d70       _wrap_new_regvar_t         0000000180004d70 f   frame.obj
 0001:00003df0       _wrap_delete_regvar_t      0000000180004df0 f   frame.obj
 0001:00003f20       regvar_t_swigregister      0000000180004f20 f   frame.obj
 0001:00003fb0       _wrap_add_regvar           0000000180004fb0 f   frame.obj
 0001:00004670       _wrap_find_regvar          0000000180005670 f   frame.obj
 0001:00004cd0       _wrap_rename_regvar        0000000180005cd0 f   frame.obj
 0001:000050e0       _wrap_set_regvar_cmt       00000001800060e0 f   frame.obj
 0001:000054f0       _wrap_del_regvar           00000001800064f0 f   frame.obj
 0001:000058a0       _wrap_llabel_t_ea_set      00000001800068a0 f   frame.obj
 0001:00005a10       _wrap_llabel_t_ea_get      0000000180006a10 f   frame.obj
 0001:00005b10       _wrap_llabel_t_name_set    0000000180006b10 f   frame.obj
 0001:00005e10       _wrap_llabel_t_name_get    0000000180006e10 f   frame.obj
 0001:00005f10       _wrap_new_llabel_t         0000000180006f10 f   frame.obj
 0001:00005f90       _wrap_delete_llabel_t      0000000180006f90 f   frame.obj
 0001:000060c0       llabel_t_swigregister      00000001800070c0 f   frame.obj
 0001:00006150       _wrap_add_auto_stkpnt      0000000180007150 f   frame.obj
 0001:00006360       _wrap_add_user_stkpnt      0000000180007360 f   frame.obj
 0001:000064b0       _wrap_del_stkpnt           00000001800074b0 f   frame.obj
 0001:00006670       _wrap_get_spd              0000000180007670 f   frame.obj
 0001:00006820       _wrap_get_effective_spd    0000000180007820 f   frame.obj
 0001:000069d0       _wrap_get_sp_delta         00000001800079d0 f   frame.obj
 0001:00006b80       _wrap_recalc_spd           0000000180007b80 f   frame.obj
 0001:00006c50       _wrap_xreflist_entry_t_ea_set 0000000180007c50 f   frame.obj
 0001:00006dc0       _wrap_xreflist_entry_t_ea_get 0000000180007dc0 f   frame.obj
 0001:00006ec0       _wrap_xreflist_entry_t_opnum_set 0000000180007ec0 f   frame.obj
 0001:00007080       _wrap_xreflist_entry_t_opnum_get 0000000180008080 f   frame.obj
 0001:00007180       _wrap_xreflist_entry_t_type_set 0000000180008180 f   frame.obj
 0001:00007340       _wrap_xreflist_entry_t_type_get 0000000180008340 f   frame.obj
 0001:00007440       _wrap_xreflist_entry_t___eq__ 0000000180008440 f   frame.obj
 0001:000076b0       _wrap_xreflist_entry_t___ne__ 00000001800086b0 f   frame.obj
 0001:00007920       _wrap_new_xreflist_entry_t 0000000180008920 f   frame.obj
 0001:00007990       _wrap_delete_xreflist_entry_t 0000000180008990 f   frame.obj
 0001:00007ac0       xreflist_entry_t_swigregister 0000000180008ac0 f   frame.obj
 0001:00007b50       _wrap_build_stkvar_xrefs   0000000180008b50 f   frame.obj
 0001:00007e80       _wrap_get_min_spd_ea       0000000180008e80 f   frame.obj
 0001:00007fa0       _wrap_delete_unreferenced_stkvars 0000000180008fa0 f   frame.obj
 0001:000080c0       _wrap_delete_wrong_stkvar_ops 00000001800090c0 f   frame.obj
 0001:000081e0       _p_relobj_tTo_p_qvectorT_unsigned_char_t 00000001800091e0 f   frame.obj
 0001:000081e0       _p_rangevec_tTo_p_qvectorT_range_t_t 00000001800091e0 f   frame.obj
 0001:000081e0       _p_reloc_info_tTo_p_qvectorT_unsigned_char_t 00000001800091e0 f   frame.obj
 0001:000081e0       _p_bytevec_tTo_p_qvectorT_unsigned_char_t 00000001800091e0 f   frame.obj
 0001:000081e0       _p_regvar_tTo_p_range_t    00000001800091e0 f   frame.obj
 0001:000081f0       SwigPyObject_repr2         00000001800091f0 f   frame.obj
 0001:00008200       SwigPyObject_append        0000000180009200 f   frame.obj
 0001:00008260       SwigPyObject_next          0000000180009260 f   frame.obj
 0001:00008280       SwigPyObject_disown        0000000180009280 f   frame.obj
 0001:000082a0       SwigPyObject_acquire       00000001800092a0 f   frame.obj
 0001:000082c0       SwigPyObject_own           00000001800092c0 f   frame.obj
 0001:00008370       _wrap_new_xreflist_t       0000000180009370 f   frame.obj
 0001:00008570       _wrap_delete_xreflist_t    0000000180009570 f   frame.obj
 0001:000086d0       _wrap_xreflist_t_push_back 00000001800096d0 f   frame.obj
 0001:00008a00       _wrap_xreflist_t_pop_back  0000000180009a00 f   frame.obj
 0001:00008b20       _wrap_xreflist_t_size      0000000180009b20 f   frame.obj
 0001:00008c50       _wrap_xreflist_t_empty     0000000180009c50 f   frame.obj
 0001:00008d80       _wrap_xreflist_t_at        0000000180009d80 f   frame.obj
 0001:00008f50       _wrap_xreflist_t_qclear    0000000180009f50 f   frame.obj
 0001:00009080       _wrap_xreflist_t_clear     000000018000a080 f   frame.obj
 0001:000091c0       _wrap_xreflist_t_resize    000000018000a1c0 f   frame.obj
 0001:000095b0       _wrap_xreflist_t_grow      000000018000a5b0 f   frame.obj
 0001:00009830       _wrap_xreflist_t_capacity  000000018000a830 f   frame.obj
 0001:00009960       _wrap_xreflist_t_reserve   000000018000a960 f   frame.obj
 0001:00009b40       _wrap_xreflist_t_truncate  000000018000ab40 f   frame.obj
 0001:00009c80       _wrap_xreflist_t_swap      000000018000ac80 f   frame.obj
 0001:00009ed0       _wrap_xreflist_t_extract   000000018000aed0 f   frame.obj
 0001:0000a030       _wrap_xreflist_t_inject    000000018000b030 f   frame.obj
 0001:0000a2e0       _wrap_xreflist_t___eq__    000000018000b2e0 f   frame.obj
 0001:0000a520       _wrap_xreflist_t___ne__    000000018000b520 f   frame.obj
 0001:0000a7c0       _wrap_xreflist_t_begin     000000018000b7c0 f   frame.obj
 0001:0000aa40       _wrap_xreflist_t_end       000000018000ba40 f   frame.obj
 0001:0000acc0       _wrap_xreflist_t_insert    000000018000bcc0 f   frame.obj
 0001:0000b050       _wrap_xreflist_t_erase     000000018000c050 f   frame.obj
 0001:0000b480       _wrap_xreflist_t_find      000000018000c480 f   frame.obj
 0001:0000b810       _wrap_xreflist_t_has       000000018000c810 f   frame.obj
 0001:0000ba40       _wrap_xreflist_t_add_unique 000000018000ca40 f   frame.obj
 0001:0000bcf0       _wrap_xreflist_t__del      000000018000ccf0 f   frame.obj
 0001:0000bfa0       _wrap_xreflist_t___len__   000000018000cfa0 f   frame.obj
 0001:0000c0d0       _wrap_xreflist_t___getitem__ 000000018000d0d0 f   frame.obj
 0001:0000c2d0       _wrap_xreflist_t___setitem__ 000000018000d2d0 f   frame.obj
 0001:0000c5d0       xreflist_t_swigregister    000000018000d5d0 f   frame.obj
 0001:0000c660       _wrap_get_stkvar           000000018000d660 f   frame.obj
 0001:0000c9b0       _wrap_stkpnt_t_ea_set      000000018000d9b0 f   frame.obj
 0001:0000cd00       ?SWIG_AsVal_unsigned_SS_int@@YAHPEAU_object@@PEAI@Z 000000018000dd00 f   frame.obj
 0001:0000cd70       ?SWIG_FromCharPtr@@YAPEAU_object@@PEBD@Z 000000018000dd70 f   frame.obj
 0001:0000ce10       ?SWIG_Python_ErrorType@@YAPEAU_object@@H@Z 000000018000de10 f   frame.obj
 0001:0000ceac       $LN17                      000000018000deac     frame.obj
 0001:0000cee0       ?SWIG_Python_RaiseOrModifyTypeError@@YAXPEBD@Z 000000018000dee0 f   frame.obj
 0001:0000cfa0       ?SWIG_Python_UnpackTuple@@YA_JPEAU_object@@PEBD_J2PEAPEAU1@@Z 000000018000dfa0 f   frame.obj
 0001:0000d170       ?__raise_e@@YAXAEBVexception@std@@@Z 000000018000e170 f   frame.obj
 0001:0000d1b0       ?__raise_ie@@YAXAEBUinterr_exc_t@@@Z 000000018000e1b0 f   frame.obj
 0001:0000d670       SWIG_InitializeModule      000000018000e670 f   frame.obj
 0001:0000d990       SWIG_MangledTypeQueryModule 000000018000e990 f   frame.obj
 0001:0000da60       SWIG_Python_DestroyModule  000000018000ea60 f   frame.obj
 0001:0000db50       SWIG_Python_FixMethods     000000018000eb50 f   frame.obj
 0001:0000dd90       SWIG_Python_GetSwigThis    000000018000ed90 f   frame.obj
 0001:0000de20       SWIG_Python_InitShadowInstance 000000018000ee20 f   frame.obj
 0001:0000df20       SWIG_Python_NewPointerObj  000000018000ef20 f   frame.obj
 0001:0000e140       SWIG_Python_TypeCache      000000018000f140 f   frame.obj
 0001:0000e1b0       SWIG_Python_TypeQuery      000000018000f1b0 f   frame.obj
 0001:0000e3f0       SWIG_This                  000000018000f3f0 f   frame.obj
 0001:0000e420       SWIG_TypeCheck             000000018000f420 f   frame.obj
 0001:0000e4c0       SWIG_TypeClientData        000000018000f4c0 f   frame.obj
 0001:0000e510       SwigPyClientData_New       000000018000f510 f   frame.obj
 0001:0000e620       SwigPyObject_Check         000000018000f620 f   frame.obj
 0001:0000e6a0       SwigPyObject_New           000000018000f6a0 f   frame.obj
 0001:0000e6f0       SwigPyObject_dealloc       000000018000f6f0 f   frame.obj
 0001:0000e880       SwigPyObject_long          000000018000f880 f   frame.obj
 0001:0000e890       SwigPyObject_repr          000000018000f890 f   frame.obj
 0001:0000e950       SwigPyObject_richcompare   000000018000f950 f   frame.obj
 0001:0000e9a0       SwigPyObject_type          000000018000f9a0 f   frame.obj
 0001:0000eae0       SwigPyPacked_Check         000000018000fae0 f   frame.obj
 0001:0000eb60       SwigPyPacked_dealloc       000000018000fb60 f   frame.obj
 0001:0000eb90       SwigPyPacked_repr          000000018000fb90 f   frame.obj
 0001:0000ec90       SwigPyPacked_str           000000018000fc90 f   frame.obj
 0001:0000ed90       SwigPyPacked_type          000000018000fd90 f   frame.obj
 0001:0000eee0       _wrap_find_regvar__SWIG_0  000000018000fee0 f   frame.obj
 0001:0000f3e0       _wrap_find_regvar__SWIG_1  00000001800103e0 f   frame.obj
 0001:0000f720       _wrap_get_frame__SWIG_0    0000000180010720 f   frame.obj
 0001:0000f860       _wrap_get_frame__SWIG_1    0000000180010860 f   frame.obj
 0001:0000f910       _wrap_new_xreflist_t__SWIG_0 0000000180010910 f   frame.obj
 0001:0000f970       _wrap_new_xreflist_t__SWIG_1 0000000180010970 f   frame.obj
 0001:0000fb40       _wrap_xreflist_t_begin__SWIG_0 0000000180010b40 f   frame.obj
 0001:0000fc70       _wrap_xreflist_t_begin__SWIG_1 0000000180010c70 f   frame.obj
 0001:0000fda0       _wrap_xreflist_t_end__SWIG_0 0000000180010da0 f   frame.obj
 0001:0000fee0       _wrap_xreflist_t_end__SWIG_1 0000000180010ee0 f   frame.obj
 0001:00010020       _wrap_xreflist_t_erase__SWIG_0 0000000180011020 f   frame.obj
 0001:00010260       _wrap_xreflist_t_erase__SWIG_1 0000000180011260 f   frame.obj
 0001:00010580       _wrap_xreflist_t_find__SWIG_0 0000000180011580 f   frame.obj
 0001:000107b0       _wrap_xreflist_t_find__SWIG_1 00000001800117b0 f   frame.obj
 0001:000109e0       _wrap_xreflist_t_push_back__SWIG_0 00000001800119e0 f   frame.obj
 0001:00010c10       _wrap_xreflist_t_push_back__SWIG_1 0000000180011c10 f   frame.obj
 0001:00010d80       _wrap_xreflist_t_resize__SWIG_0 0000000180011d80 f   frame.obj
 0001:00011020       _wrap_xreflist_t_resize__SWIG_1 0000000180012020 f   frame.obj
 0001:000113a8       ?__scrt_initialize_thread_safe_statics@@YAHXZ 00000001800123a8 f   MSVCRT:thread_safe_statics.obj
 0001:00011508       ?__scrt_uninitialize_thread_safe_statics@@YAXXZ 0000000180012508 f   MSVCRT:thread_safe_statics.obj
 0001:000117c0       $$000000                   00000001800127c0     MSVCRT:amdsecgs.obj
 0001:00011820       ?dllmain_crt_dispatch@@YAHQEAUHINSTANCE__@@KQEAX@Z 0000000180012820 f   MSVCRT:dll_dllmain.obj
 0001:00011870       ?dllmain_crt_process_attach@@YAHQEAUHINSTANCE__@@QEAX@Z 0000000180012870 f   MSVCRT:dll_dllmain.obj
 0001:0001198c       ?dllmain_crt_process_detach@@YAH_N@Z 000000018001298c f   MSVCRT:dll_dllmain.obj
 0001:00011a1c       ?dllmain_dispatch@@YAHQEAUHINSTANCE__@@KQEAX@Z 0000000180012a1c f   MSVCRT:dll_dllmain.obj
 0001:000122dc       capture_previous_context   00000001800132dc f   MSVCRT:gs_report.obj
 0001:00012710       $$000000                   0000000180013710     MSVCRT:guard_dispatch.obj
 0001:00012730       _wrap_add_auto_stkpnt$catch$5 0000000180013730 f   frame.obj
 0001:0001273d       __catch$_wrap_add_auto_stkpnt$4 000000018001373d f   frame.obj
 0001:00012763       _wrap_add_auto_stkpnt$catch$4 0000000180013763 f   frame.obj
 0001:00012770       __catch$_wrap_add_auto_stkpnt$6 0000000180013770 f   frame.obj
 0001:0001279c       _wrap_add_auto_stkpnt$catch$3 000000018001379c f   frame.obj
 0001:000127a9       __catch$_wrap_add_auto_stkpnt$8 00000001800137a9 f   frame.obj
 0001:000127c1       _wrap_add_auto_stkpnt$catch$2 00000001800137c1 f   frame.obj
 0001:000127ce       __catch$_wrap_add_auto_stkpnt$10 00000001800137ce f   frame.obj
 0001:000127e6       _wrap_add_auto_stkpnt$catch$1 00000001800137e6 f   frame.obj
 0001:000127f3       __catch$_wrap_add_auto_stkpnt$12 00000001800137f3 f   frame.obj
 0001:0001281f       _wrap_add_auto_stkpnt$catch$0 000000018001381f f   frame.obj
 0001:0001282c       __catch$_wrap_add_auto_stkpnt$14 000000018001382c f   frame.obj
 0001:00012860       _wrap_add_frame$catch$5    0000000180013860 f   frame.obj
 0001:0001286d       __catch$_wrap_add_frame$5  000000018001386d f   frame.obj
 0001:00012893       _wrap_add_frame$catch$4    0000000180013893 f   frame.obj
 0001:000128a0       __catch$_wrap_add_frame$7  00000001800138a0 f   frame.obj
 0001:000128cc       _wrap_add_frame$catch$3    00000001800138cc f   frame.obj
 0001:000128d9       __catch$_wrap_add_frame$9  00000001800138d9 f   frame.obj
 0001:000128f1       _wrap_add_frame$catch$2    00000001800138f1 f   frame.obj
 0001:000128fe       __catch$_wrap_add_frame$11 00000001800138fe f   frame.obj
 0001:00012916       _wrap_add_frame$catch$1    0000000180013916 f   frame.obj
 0001:00012923       __catch$_wrap_add_frame$13 0000000180013923 f   frame.obj
 0001:0001294f       _wrap_add_frame$catch$0    000000018001394f f   frame.obj
 0001:0001295c       __catch$_wrap_add_frame$15 000000018001395c f   frame.obj
 0001:00012990       _wrap_add_regvar$catch$5   0000000180013990 f   frame.obj
 0001:0001299d       __catch$_wrap_add_regvar$7 000000018001399d f   frame.obj
 0001:000129c3       _wrap_add_regvar$catch$4   00000001800139c3 f   frame.obj
 0001:000129d0       __catch$_wrap_add_regvar$9 00000001800139d0 f   frame.obj
 0001:000129ff       _wrap_add_regvar$catch$3   00000001800139ff f   frame.obj
 0001:00012a0c       __catch$_wrap_add_regvar$11 0000000180013a0c f   frame.obj
 0001:00012a27       _wrap_add_regvar$catch$2   0000000180013a27 f   frame.obj
 0001:00012a34       __catch$_wrap_add_regvar$13 0000000180013a34 f   frame.obj
 0001:00012a4f       _wrap_add_regvar$catch$1   0000000180013a4f f   frame.obj
 0001:00012a5c       __catch$_wrap_add_regvar$15 0000000180013a5c f   frame.obj
 0001:00012a8b       _wrap_add_regvar$catch$0   0000000180013a8b f   frame.obj
 0001:00012a98       __catch$_wrap_add_regvar$17 0000000180013a98 f   frame.obj
 0001:00012ac0       _wrap_add_user_stkpnt$catch$5 0000000180013ac0 f   frame.obj
 0001:00012acd       __catch$_wrap_add_user_stkpnt$3 0000000180013acd f   frame.obj
 0001:00012af3       _wrap_add_user_stkpnt$catch$4 0000000180013af3 f   frame.obj
 0001:00012b00       __catch$_wrap_add_user_stkpnt$5 0000000180013b00 f   frame.obj
 0001:00012b2c       _wrap_add_user_stkpnt$catch$3 0000000180013b2c f   frame.obj
 0001:00012b39       __catch$_wrap_add_user_stkpnt$7 0000000180013b39 f   frame.obj
 0001:00012b51       _wrap_add_user_stkpnt$catch$2 0000000180013b51 f   frame.obj
 0001:00012b5e       __catch$_wrap_add_user_stkpnt$9 0000000180013b5e f   frame.obj
 0001:00012b76       _wrap_add_user_stkpnt$catch$1 0000000180013b76 f   frame.obj
 0001:00012b83       __catch$_wrap_add_user_stkpnt$11 0000000180013b83 f   frame.obj
 0001:00012baf       _wrap_add_user_stkpnt$catch$0 0000000180013baf f   frame.obj
 0001:00012bbc       __catch$_wrap_add_user_stkpnt$13 0000000180013bbc f   frame.obj
 0001:00012bf0       _wrap_build_stkvar_name$catch$8 0000000180013bf0 f   frame.obj
 0001:00012bfd       __catch$_wrap_build_stkvar_name$3 0000000180013bfd f   frame.obj
 0001:00012c23       _wrap_build_stkvar_name$catch$7 0000000180013c23 f   frame.obj
 0001:00012c30       __catch$_wrap_build_stkvar_name$5 0000000180013c30 f   frame.obj
 0001:00012c5c       _wrap_build_stkvar_name$catch$6 0000000180013c5c f   frame.obj
 0001:00012c69       __catch$_wrap_build_stkvar_name$7 0000000180013c69 f   frame.obj
 0001:00012c81       _wrap_build_stkvar_name$catch$5 0000000180013c81 f   frame.obj
 0001:00012c8e       __catch$_wrap_build_stkvar_name$9 0000000180013c8e f   frame.obj
 0001:00012ca6       _wrap_build_stkvar_name$catch$4 0000000180013ca6 f   frame.obj
 0001:00012cb3       __catch$_wrap_build_stkvar_name$11 0000000180013cb3 f   frame.obj
 0001:00012cdf       _wrap_build_stkvar_name$catch$3 0000000180013cdf f   frame.obj
 0001:00012cec       __catch$_wrap_build_stkvar_name$13 0000000180013cec f   frame.obj
 0001:00012d20       _wrap_build_stkvar_name$dtor$0 0000000180013d20 f   frame.obj
 0001:00012d30       _wrap_build_stkvar_xrefs$catch$5 0000000180013d30 f   frame.obj
 0001:00012d3d       __catch$_wrap_build_stkvar_xrefs$4 0000000180013d3d f   frame.obj
 0001:00012d63       _wrap_build_stkvar_xrefs$catch$4 0000000180013d63 f   frame.obj
 0001:00012d70       __catch$_wrap_build_stkvar_xrefs$6 0000000180013d70 f   frame.obj
 0001:00012d9c       _wrap_build_stkvar_xrefs$catch$3 0000000180013d9c f   frame.obj
 0001:00012da9       __catch$_wrap_build_stkvar_xrefs$8 0000000180013da9 f   frame.obj
 0001:00012dc1       _wrap_build_stkvar_xrefs$catch$2 0000000180013dc1 f   frame.obj
 0001:00012dce       __catch$_wrap_build_stkvar_xrefs$10 0000000180013dce f   frame.obj
 0001:00012de6       _wrap_build_stkvar_xrefs$catch$1 0000000180013de6 f   frame.obj
 0001:00012df3       __catch$_wrap_build_stkvar_xrefs$12 0000000180013df3 f   frame.obj
 0001:00012e1f       _wrap_build_stkvar_xrefs$catch$0 0000000180013e1f f   frame.obj
 0001:00012e2c       __catch$_wrap_build_stkvar_xrefs$14 0000000180013e2c f   frame.obj
 0001:00012e60       _wrap_calc_stkvar_struc_offset$catch$5 0000000180013e60 f   frame.obj
 0001:00012e6d       __catch$_wrap_calc_stkvar_struc_offset$5 0000000180013e6d f   frame.obj
 0001:00012e93       _wrap_calc_stkvar_struc_offset$catch$4 0000000180013e93 f   frame.obj
 0001:00012ea0       __catch$_wrap_calc_stkvar_struc_offset$7 0000000180013ea0 f   frame.obj
 0001:00012ecc       _wrap_calc_stkvar_struc_offset$catch$3 0000000180013ecc f   frame.obj
 0001:00012ed9       __catch$_wrap_calc_stkvar_struc_offset$9 0000000180013ed9 f   frame.obj
 0001:00012ef1       _wrap_calc_stkvar_struc_offset$catch$2 0000000180013ef1 f   frame.obj
 0001:00012efe       __catch$_wrap_calc_stkvar_struc_offset$11 0000000180013efe f   frame.obj
 0001:00012f16       _wrap_calc_stkvar_struc_offset$catch$1 0000000180013f16 f   frame.obj
 0001:00012f23       __catch$_wrap_calc_stkvar_struc_offset$13 0000000180013f23 f   frame.obj
 0001:00012f4f       _wrap_calc_stkvar_struc_offset$catch$0 0000000180013f4f f   frame.obj
 0001:00012f5c       __catch$_wrap_calc_stkvar_struc_offset$15 0000000180013f5c f   frame.obj
 0001:00012f90       _wrap_define_stkvar$catch$5 0000000180013f90 f   frame.obj
 0001:00012f9d       __catch$_wrap_define_stkvar$7 0000000180013f9d f   frame.obj
 0001:00012fc3       _wrap_define_stkvar$catch$4 0000000180013fc3 f   frame.obj
 0001:00012fd0       __catch$_wrap_define_stkvar$9 0000000180013fd0 f   frame.obj
 0001:00012ffc       _wrap_define_stkvar$catch$3 0000000180013ffc f   frame.obj
 0001:00013009       __catch$_wrap_define_stkvar$11 0000000180014009 f   frame.obj
 0001:00013021       _wrap_define_stkvar$catch$2 0000000180014021 f   frame.obj
 0001:0001302e       __catch$_wrap_define_stkvar$13 000000018001402e f   frame.obj
 0001:00013046       _wrap_define_stkvar$catch$1 0000000180014046 f   frame.obj
 0001:00013053       __catch$_wrap_define_stkvar$15 0000000180014053 f   frame.obj
 0001:0001307f       _wrap_define_stkvar$catch$0 000000018001407f f   frame.obj
 0001:0001308c       __catch$_wrap_define_stkvar$17 000000018001408c f   frame.obj
 0001:000130c0       _wrap_del_frame$catch$5    00000001800140c0 f   frame.obj
 0001:000130cd       __catch$_wrap_del_frame$2  00000001800140cd f   frame.obj
 0001:000130f3       _wrap_del_frame$catch$4    00000001800140f3 f   frame.obj
 0001:00013100       __catch$_wrap_del_frame$4  0000000180014100 f   frame.obj
 0001:0001312c       _wrap_del_frame$catch$3    000000018001412c f   frame.obj
 0001:00013139       __catch$_wrap_del_frame$6  0000000180014139 f   frame.obj
 0001:00013151       _wrap_del_frame$catch$2    0000000180014151 f   frame.obj
 0001:0001315e       __catch$_wrap_del_frame$8  000000018001415e f   frame.obj
 0001:00013176       _wrap_del_frame$catch$1    0000000180014176 f   frame.obj
 0001:00013183       __catch$_wrap_del_frame$10 0000000180014183 f   frame.obj
 0001:000131af       _wrap_del_frame$catch$0    00000001800141af f   frame.obj
 0001:000131bc       __catch$_wrap_del_frame$12 00000001800141bc f   frame.obj
 0001:000131f0       _wrap_del_regvar$catch$5   00000001800141f0 f   frame.obj
 0001:000131fd       __catch$_wrap_del_regvar$5 00000001800141fd f   frame.obj
 0001:00013223       _wrap_del_regvar$catch$4   0000000180014223 f   frame.obj
 0001:00013230       __catch$_wrap_del_regvar$7 0000000180014230 f   frame.obj
 0001:0001325f       _wrap_del_regvar$catch$3   000000018001425f f   frame.obj
 0001:0001326c       __catch$_wrap_del_regvar$9 000000018001426c f   frame.obj
 0001:00013284       _wrap_del_regvar$catch$2   0000000180014284 f   frame.obj
 0001:00013291       __catch$_wrap_del_regvar$11 0000000180014291 f   frame.obj
 0001:000132a9       _wrap_del_regvar$catch$1   00000001800142a9 f   frame.obj
 0001:000132b6       __catch$_wrap_del_regvar$13 00000001800142b6 f   frame.obj
 0001:000132e2       _wrap_del_regvar$catch$0   00000001800142e2 f   frame.obj
 0001:000132ef       __catch$_wrap_del_regvar$15 00000001800142ef f   frame.obj
 0001:00013320       _wrap_del_stkpnt$catch$5   0000000180014320 f   frame.obj
 0001:0001332d       __catch$_wrap_del_stkpnt$3 000000018001432d f   frame.obj
 0001:00013353       _wrap_del_stkpnt$catch$4   0000000180014353 f   frame.obj
 0001:00013360       __catch$_wrap_del_stkpnt$5 0000000180014360 f   frame.obj
 0001:0001338c       _wrap_del_stkpnt$catch$3   000000018001438c f   frame.obj
 0001:00013399       __catch$_wrap_del_stkpnt$7 0000000180014399 f   frame.obj
 0001:000133b1       _wrap_del_stkpnt$catch$2   00000001800143b1 f   frame.obj
 0001:000133be       __catch$_wrap_del_stkpnt$9 00000001800143be f   frame.obj
 0001:000133d6       _wrap_del_stkpnt$catch$1   00000001800143d6 f   frame.obj
 0001:000133e3       __catch$_wrap_del_stkpnt$11 00000001800143e3 f   frame.obj
 0001:0001340f       _wrap_del_stkpnt$catch$0   000000018001440f f   frame.obj
 0001:0001341c       __catch$_wrap_del_stkpnt$13 000000018001441c f   frame.obj
 0001:00013450       _wrap_delete_llabel_t$catch$5 0000000180014450 f   frame.obj
 0001:0001345d       __catch$_wrap_delete_llabel_t$2 000000018001445d f   frame.obj
 0001:00013483       _wrap_delete_llabel_t$catch$4 0000000180014483 f   frame.obj
 0001:00013490       __catch$_wrap_delete_llabel_t$4 0000000180014490 f   frame.obj
 0001:000134bc       _wrap_delete_llabel_t$catch$3 00000001800144bc f   frame.obj
 0001:000134c9       __catch$_wrap_delete_llabel_t$6 00000001800144c9 f   frame.obj
 0001:000134e1       _wrap_delete_llabel_t$catch$2 00000001800144e1 f   frame.obj
 0001:000134ee       __catch$_wrap_delete_llabel_t$8 00000001800144ee f   frame.obj
 0001:00013506       _wrap_delete_llabel_t$catch$1 0000000180014506 f   frame.obj
 0001:00013513       __catch$_wrap_delete_llabel_t$10 0000000180014513 f   frame.obj
 0001:0001353f       _wrap_delete_llabel_t$catch$0 000000018001453f f   frame.obj
 0001:0001354c       __catch$_wrap_delete_llabel_t$12 000000018001454c f   frame.obj
 0001:00013580       _wrap_delete_regvar_t$catch$5 0000000180014580 f   frame.obj
 0001:0001358d       __catch$_wrap_delete_regvar_t$2 000000018001458d f   frame.obj
 0001:000135b3       _wrap_delete_regvar_t$catch$4 00000001800145b3 f   frame.obj
 0001:000135c0       __catch$_wrap_delete_regvar_t$4 00000001800145c0 f   frame.obj
 0001:000135ec       _wrap_delete_regvar_t$catch$3 00000001800145ec f   frame.obj
 0001:000135f9       __catch$_wrap_delete_regvar_t$6 00000001800145f9 f   frame.obj
 0001:00013611       _wrap_delete_regvar_t$catch$2 0000000180014611 f   frame.obj
 0001:0001361e       __catch$_wrap_delete_regvar_t$8 000000018001461e f   frame.obj
 0001:00013636       _wrap_delete_regvar_t$catch$1 0000000180014636 f   frame.obj
 0001:00013643       __catch$_wrap_delete_regvar_t$10 0000000180014643 f   frame.obj
 0001:0001366f       _wrap_delete_regvar_t$catch$0 000000018001466f f   frame.obj
 0001:0001367c       __catch$_wrap_delete_regvar_t$12 000000018001467c f   frame.obj
 0001:000136b0       _wrap_delete_stkpnt_t$catch$5 00000001800146b0 f   frame.obj
 0001:000136bd       __catch$_wrap_delete_stkpnt_t$2 00000001800146bd f   frame.obj
 0001:000136e3       _wrap_delete_stkpnt_t$catch$4 00000001800146e3 f   frame.obj
 0001:000136f0       __catch$_wrap_delete_stkpnt_t$4 00000001800146f0 f   frame.obj
 0001:0001371c       _wrap_delete_stkpnt_t$catch$3 000000018001471c f   frame.obj
 0001:00013729       __catch$_wrap_delete_stkpnt_t$6 0000000180014729 f   frame.obj
 0001:00013741       _wrap_delete_stkpnt_t$catch$2 0000000180014741 f   frame.obj
 0001:0001374e       __catch$_wrap_delete_stkpnt_t$8 000000018001474e f   frame.obj
 0001:00013766       _wrap_delete_stkpnt_t$catch$1 0000000180014766 f   frame.obj
 0001:00013773       __catch$_wrap_delete_stkpnt_t$10 0000000180014773 f   frame.obj
 0001:0001379f       _wrap_delete_stkpnt_t$catch$0 000000018001479f f   frame.obj
 0001:000137ac       __catch$_wrap_delete_stkpnt_t$12 00000001800147ac f   frame.obj
 0001:000137e0       _wrap_delete_stkpnts_t$catch$6 00000001800147e0 f   frame.obj
 0001:000137ed       __catch$_wrap_delete_stkpnts_t$2 00000001800147ed f   frame.obj
 0001:00013813       _wrap_delete_stkpnts_t$catch$5 0000000180014813 f   frame.obj
 0001:00013820       __catch$_wrap_delete_stkpnts_t$4 0000000180014820 f   frame.obj
 0001:0001384c       _wrap_delete_stkpnts_t$catch$4 000000018001484c f   frame.obj
 0001:00013859       __catch$_wrap_delete_stkpnts_t$6 0000000180014859 f   frame.obj
 0001:00013871       _wrap_delete_stkpnts_t$catch$3 0000000180014871 f   frame.obj
 0001:0001387e       __catch$_wrap_delete_stkpnts_t$8 000000018001487e f   frame.obj
 0001:00013896       _wrap_delete_stkpnts_t$catch$2 0000000180014896 f   frame.obj
 0001:000138a3       __catch$_wrap_delete_stkpnts_t$10 00000001800148a3 f   frame.obj
 0001:000138cf       _wrap_delete_stkpnts_t$catch$1 00000001800148cf f   frame.obj
 0001:000138dc       __catch$_wrap_delete_stkpnts_t$12 00000001800148dc f   frame.obj
 0001:00013910       _wrap_delete_unreferenced_stkvars$catch$5 0000000180014910 f   frame.obj
 0001:0001391d       __catch$_wrap_delete_unreferenced_stkvars$2 000000018001491d f   frame.obj
 0001:00013943       _wrap_delete_unreferenced_stkvars$catch$4 0000000180014943 f   frame.obj
 0001:00013950       __catch$_wrap_delete_unreferenced_stkvars$4 0000000180014950 f   frame.obj
 0001:0001397c       _wrap_delete_unreferenced_stkvars$catch$3 000000018001497c f   frame.obj
 0001:00013989       __catch$_wrap_delete_unreferenced_stkvars$6 0000000180014989 f   frame.obj
 0001:000139a1       _wrap_delete_unreferenced_stkvars$catch$2 00000001800149a1 f   frame.obj
 0001:000139ae       __catch$_wrap_delete_unreferenced_stkvars$8 00000001800149ae f   frame.obj
 0001:000139c6       _wrap_delete_unreferenced_stkvars$catch$1 00000001800149c6 f   frame.obj
 0001:000139d3       __catch$_wrap_delete_unreferenced_stkvars$10 00000001800149d3 f   frame.obj
 0001:000139ff       _wrap_delete_unreferenced_stkvars$catch$0 00000001800149ff f   frame.obj
 0001:00013a0c       __catch$_wrap_delete_unreferenced_stkvars$12 0000000180014a0c f   frame.obj
 0001:00013a40       _wrap_delete_wrong_stkvar_ops$catch$5 0000000180014a40 f   frame.obj
 0001:00013a4d       __catch$_wrap_delete_wrong_stkvar_ops$2 0000000180014a4d f   frame.obj
 0001:00013a73       _wrap_delete_wrong_stkvar_ops$catch$4 0000000180014a73 f   frame.obj
 0001:00013a80       __catch$_wrap_delete_wrong_stkvar_ops$4 0000000180014a80 f   frame.obj
 0001:00013aac       _wrap_delete_wrong_stkvar_ops$catch$3 0000000180014aac f   frame.obj
 0001:00013ab9       __catch$_wrap_delete_wrong_stkvar_ops$6 0000000180014ab9 f   frame.obj
 0001:00013ad1       _wrap_delete_wrong_stkvar_ops$catch$2 0000000180014ad1 f   frame.obj
 0001:00013ade       __catch$_wrap_delete_wrong_stkvar_ops$8 0000000180014ade f   frame.obj
 0001:00013af6       _wrap_delete_wrong_stkvar_ops$catch$1 0000000180014af6 f   frame.obj
 0001:00013b03       __catch$_wrap_delete_wrong_stkvar_ops$10 0000000180014b03 f   frame.obj
 0001:00013b2f       _wrap_delete_wrong_stkvar_ops$catch$0 0000000180014b2f f   frame.obj
 0001:00013b3c       __catch$_wrap_delete_wrong_stkvar_ops$12 0000000180014b3c f   frame.obj
 0001:00013b70       _wrap_delete_xreflist_entry_t$catch$5 0000000180014b70 f   frame.obj
 0001:00013b7d       __catch$_wrap_delete_xreflist_entry_t$2 0000000180014b7d f   frame.obj
 0001:00013ba3       _wrap_delete_xreflist_entry_t$catch$4 0000000180014ba3 f   frame.obj
 0001:00013bb0       __catch$_wrap_delete_xreflist_entry_t$4 0000000180014bb0 f   frame.obj
 0001:00013bdc       _wrap_delete_xreflist_entry_t$catch$3 0000000180014bdc f   frame.obj
 0001:00013be9       __catch$_wrap_delete_xreflist_entry_t$6 0000000180014be9 f   frame.obj
 0001:00013c01       _wrap_delete_xreflist_entry_t$catch$2 0000000180014c01 f   frame.obj
 0001:00013c0e       __catch$_wrap_delete_xreflist_entry_t$8 0000000180014c0e f   frame.obj
 0001:00013c26       _wrap_delete_xreflist_entry_t$catch$1 0000000180014c26 f   frame.obj
 0001:00013c33       __catch$_wrap_delete_xreflist_entry_t$10 0000000180014c33 f   frame.obj
 0001:00013c5f       _wrap_delete_xreflist_entry_t$catch$0 0000000180014c5f f   frame.obj
 0001:00013c6c       __catch$_wrap_delete_xreflist_entry_t$12 0000000180014c6c f   frame.obj
 0001:00013ca0       _wrap_delete_xreflist_t$catch$5 0000000180014ca0 f   frame.obj
 0001:00013cad       __catch$_wrap_delete_xreflist_t$2 0000000180014cad f   frame.obj
 0001:00013cd3       _wrap_delete_xreflist_t$catch$4 0000000180014cd3 f   frame.obj
 0001:00013ce0       __catch$_wrap_delete_xreflist_t$4 0000000180014ce0 f   frame.obj
 0001:00013d0c       _wrap_delete_xreflist_t$catch$3 0000000180014d0c f   frame.obj
 0001:00013d19       __catch$_wrap_delete_xreflist_t$6 0000000180014d19 f   frame.obj
 0001:00013d31       _wrap_delete_xreflist_t$catch$2 0000000180014d31 f   frame.obj
 0001:00013d3e       __catch$_wrap_delete_xreflist_t$8 0000000180014d3e f   frame.obj
 0001:00013d56       _wrap_delete_xreflist_t$catch$1 0000000180014d56 f   frame.obj
 0001:00013d63       __catch$_wrap_delete_xreflist_t$10 0000000180014d63 f   frame.obj
 0001:00013d8f       _wrap_delete_xreflist_t$catch$0 0000000180014d8f f   frame.obj
 0001:00013d9c       __catch$_wrap_delete_xreflist_t$12 0000000180014d9c f   frame.obj
 0001:00013dd0       _wrap_find_regvar__SWIG_0$catch$5 0000000180014dd0 f   frame.obj
 0001:00013ddd       __catch$_wrap_find_regvar__SWIG_0$6 0000000180014ddd f   frame.obj
 0001:00013e03       _wrap_find_regvar__SWIG_0$catch$4 0000000180014e03 f   frame.obj
 0001:00013e10       __catch$_wrap_find_regvar__SWIG_0$8 0000000180014e10 f   frame.obj
 0001:00013e3f       _wrap_find_regvar__SWIG_0$catch$3 0000000180014e3f f   frame.obj
 0001:00013e4c       __catch$_wrap_find_regvar__SWIG_0$10 0000000180014e4c f   frame.obj
 0001:00013e64       _wrap_find_regvar__SWIG_0$catch$2 0000000180014e64 f   frame.obj
 0001:00013e71       __catch$_wrap_find_regvar__SWIG_0$12 0000000180014e71 f   frame.obj
 0001:00013e89       _wrap_find_regvar__SWIG_0$catch$1 0000000180014e89 f   frame.obj
 0001:00013e96       __catch$_wrap_find_regvar__SWIG_0$14 0000000180014e96 f   frame.obj
 0001:00013ec2       _wrap_find_regvar__SWIG_0$catch$0 0000000180014ec2 f   frame.obj
 0001:00013ecf       __catch$_wrap_find_regvar__SWIG_0$16 0000000180014ecf f   frame.obj
 0001:00013f00       _wrap_find_regvar__SWIG_1$catch$5 0000000180014f00 f   frame.obj
 0001:00013f0d       __catch$_wrap_find_regvar__SWIG_1$4 0000000180014f0d f   frame.obj
 0001:00013f33       _wrap_find_regvar__SWIG_1$catch$4 0000000180014f33 f   frame.obj
 0001:00013f40       __catch$_wrap_find_regvar__SWIG_1$6 0000000180014f40 f   frame.obj
 0001:00013f6c       _wrap_find_regvar__SWIG_1$catch$3 0000000180014f6c f   frame.obj
 0001:00013f79       __catch$_wrap_find_regvar__SWIG_1$8 0000000180014f79 f   frame.obj
 0001:00013f91       _wrap_find_regvar__SWIG_1$catch$2 0000000180014f91 f   frame.obj
 0001:00013f9e       __catch$_wrap_find_regvar__SWIG_1$10 0000000180014f9e f   frame.obj
 0001:00013fb6       _wrap_find_regvar__SWIG_1$catch$1 0000000180014fb6 f   frame.obj
 0001:00013fc3       __catch$_wrap_find_regvar__SWIG_1$12 0000000180014fc3 f   frame.obj
 0001:00013fef       _wrap_find_regvar__SWIG_1$catch$0 0000000180014fef f   frame.obj
 0001:00013ffc       __catch$_wrap_find_regvar__SWIG_1$14 0000000180014ffc f   frame.obj
 0001:00014030       _wrap_frame_off_args$catch$5 0000000180015030 f   frame.obj
 0001:0001403d       __catch$_wrap_frame_off_args$2 000000018001503d f   frame.obj
 0001:00014063       _wrap_frame_off_args$catch$4 0000000180015063 f   frame.obj
 0001:00014070       __catch$_wrap_frame_off_args$4 0000000180015070 f   frame.obj
 0001:0001409c       _wrap_frame_off_args$catch$3 000000018001509c f   frame.obj
 0001:000140a9       __catch$_wrap_frame_off_args$6 00000001800150a9 f   frame.obj
 0001:000140c1       _wrap_frame_off_args$catch$2 00000001800150c1 f   frame.obj
 0001:000140ce       __catch$_wrap_frame_off_args$8 00000001800150ce f   frame.obj
 0001:000140e6       _wrap_frame_off_args$catch$1 00000001800150e6 f   frame.obj
 0001:000140f3       __catch$_wrap_frame_off_args$10 00000001800150f3 f   frame.obj
 0001:0001411f       _wrap_frame_off_args$catch$0 000000018001511f f   frame.obj
 0001:0001412c       __catch$_wrap_frame_off_args$12 000000018001512c f   frame.obj
 0001:00014160       _wrap_frame_off_lvars$catch$5 0000000180015160 f   frame.obj
 0001:0001416d       __catch$_wrap_frame_off_lvars$2 000000018001516d f   frame.obj
 0001:00014193       _wrap_frame_off_lvars$catch$4 0000000180015193 f   frame.obj
 0001:000141a0       __catch$_wrap_frame_off_lvars$4 00000001800151a0 f   frame.obj
 0001:000141cc       _wrap_frame_off_lvars$catch$3 00000001800151cc f   frame.obj
 0001:000141d9       __catch$_wrap_frame_off_lvars$6 00000001800151d9 f   frame.obj
 0001:000141f1       _wrap_frame_off_lvars$catch$2 00000001800151f1 f   frame.obj
 0001:000141fe       __catch$_wrap_frame_off_lvars$8 00000001800151fe f   frame.obj
 0001:00014216       _wrap_frame_off_lvars$catch$1 0000000180015216 f   frame.obj
 0001:00014223       __catch$_wrap_frame_off_lvars$10 0000000180015223 f   frame.obj
 0001:0001424f       _wrap_frame_off_lvars$catch$0 000000018001524f f   frame.obj
 0001:0001425c       __catch$_wrap_frame_off_lvars$12 000000018001525c f   frame.obj
 0001:00014290       _wrap_frame_off_retaddr$catch$5 0000000180015290 f   frame.obj
 0001:0001429d       __catch$_wrap_frame_off_retaddr$2 000000018001529d f   frame.obj
 0001:000142c3       _wrap_frame_off_retaddr$catch$4 00000001800152c3 f   frame.obj
 0001:000142d0       __catch$_wrap_frame_off_retaddr$4 00000001800152d0 f   frame.obj
 0001:000142fc       _wrap_frame_off_retaddr$catch$3 00000001800152fc f   frame.obj
 0001:00014309       __catch$_wrap_frame_off_retaddr$6 0000000180015309 f   frame.obj
 0001:00014321       _wrap_frame_off_retaddr$catch$2 0000000180015321 f   frame.obj
 0001:0001432e       __catch$_wrap_frame_off_retaddr$8 000000018001532e f   frame.obj
 0001:00014346       _wrap_frame_off_retaddr$catch$1 0000000180015346 f   frame.obj
 0001:00014353       __catch$_wrap_frame_off_retaddr$10 0000000180015353 f   frame.obj
 0001:0001437f       _wrap_frame_off_retaddr$catch$0 000000018001537f f   frame.obj
 0001:0001438c       __catch$_wrap_frame_off_retaddr$12 000000018001538c f   frame.obj
 0001:000143c0       _wrap_frame_off_savregs$catch$5 00000001800153c0 f   frame.obj
 0001:000143cd       __catch$_wrap_frame_off_savregs$2 00000001800153cd f   frame.obj
 0001:000143f3       _wrap_frame_off_savregs$catch$4 00000001800153f3 f   frame.obj
 0001:00014400       __catch$_wrap_frame_off_savregs$4 0000000180015400 f   frame.obj
 0001:0001442c       _wrap_frame_off_savregs$catch$3 000000018001542c f   frame.obj
 0001:00014439       __catch$_wrap_frame_off_savregs$6 0000000180015439 f   frame.obj
 0001:00014451       _wrap_frame_off_savregs$catch$2 0000000180015451 f   frame.obj
 0001:0001445e       __catch$_wrap_frame_off_savregs$8 000000018001545e f   frame.obj
 0001:00014476       _wrap_frame_off_savregs$catch$1 0000000180015476 f   frame.obj
 0001:00014483       __catch$_wrap_frame_off_savregs$10 0000000180015483 f   frame.obj
 0001:000144af       _wrap_frame_off_savregs$catch$0 00000001800154af f   frame.obj
 0001:000144bc       __catch$_wrap_frame_off_savregs$12 00000001800154bc f   frame.obj
 0001:000144f0       _wrap_get_effective_spd$catch$5 00000001800154f0 f   frame.obj
 0001:000144fd       __catch$_wrap_get_effective_spd$3 00000001800154fd f   frame.obj
 0001:00014523       _wrap_get_effective_spd$catch$4 0000000180015523 f   frame.obj
 0001:00014530       __catch$_wrap_get_effective_spd$5 0000000180015530 f   frame.obj
 0001:0001455c       _wrap_get_effective_spd$catch$3 000000018001555c f   frame.obj
 0001:00014569       __catch$_wrap_get_effective_spd$7 0000000180015569 f   frame.obj
 0001:00014581       _wrap_get_effective_spd$catch$2 0000000180015581 f   frame.obj
 0001:0001458e       __catch$_wrap_get_effective_spd$9 000000018001558e f   frame.obj
 0001:000145a6       _wrap_get_effective_spd$catch$1 00000001800155a6 f   frame.obj
 0001:000145b3       __catch$_wrap_get_effective_spd$11 00000001800155b3 f   frame.obj
 0001:000145df       _wrap_get_effective_spd$catch$0 00000001800155df f   frame.obj
 0001:000145ec       __catch$_wrap_get_effective_spd$13 00000001800155ec f   frame.obj
 0001:00014620       _wrap_get_frame__SWIG_0$catch$5 0000000180015620 f   frame.obj
 0001:0001462d       __catch$_wrap_get_frame__SWIG_0$2 000000018001562d f   frame.obj
 0001:00014653       _wrap_get_frame__SWIG_0$catch$4 0000000180015653 f   frame.obj
 0001:00014660       __catch$_wrap_get_frame__SWIG_0$4 0000000180015660 f   frame.obj
 0001:0001468c       _wrap_get_frame__SWIG_0$catch$3 000000018001568c f   frame.obj
 0001:00014699       __catch$_wrap_get_frame__SWIG_0$6 0000000180015699 f   frame.obj
 0001:000146b1       _wrap_get_frame__SWIG_0$catch$2 00000001800156b1 f   frame.obj
 0001:000146be       __catch$_wrap_get_frame__SWIG_0$8 00000001800156be f   frame.obj
 0001:000146d6       _wrap_get_frame__SWIG_0$catch$1 00000001800156d6 f   frame.obj
 0001:000146e3       __catch$_wrap_get_frame__SWIG_0$10 00000001800156e3 f   frame.obj
 0001:0001470f       _wrap_get_frame__SWIG_0$catch$0 000000018001570f f   frame.obj
 0001:0001471c       __catch$_wrap_get_frame__SWIG_0$12 000000018001571c f   frame.obj
 0001:00014750       _wrap_get_frame__SWIG_1$catch$5 0000000180015750 f   frame.obj
 0001:0001475d       __catch$_wrap_get_frame__SWIG_1$2 000000018001575d f   frame.obj
 0001:00014783       _wrap_get_frame__SWIG_1$catch$4 0000000180015783 f   frame.obj
 0001:00014790       __catch$_wrap_get_frame__SWIG_1$4 0000000180015790 f   frame.obj
 0001:000147bc       _wrap_get_frame__SWIG_1$catch$3 00000001800157bc f   frame.obj
 0001:000147c9       __catch$_wrap_get_frame__SWIG_1$6 00000001800157c9 f   frame.obj
 0001:000147e1       _wrap_get_frame__SWIG_1$catch$2 00000001800157e1 f   frame.obj
 0001:000147ee       __catch$_wrap_get_frame__SWIG_1$8 00000001800157ee f   frame.obj
 0001:00014806       _wrap_get_frame__SWIG_1$catch$1 0000000180015806 f   frame.obj
 0001:00014813       __catch$_wrap_get_frame__SWIG_1$10 0000000180015813 f   frame.obj
 0001:0001483f       _wrap_get_frame__SWIG_1$catch$0 000000018001583f f   frame.obj
 0001:0001484c       __catch$_wrap_get_frame__SWIG_1$12 000000018001584c f   frame.obj
 0001:00014880       _wrap_get_frame_part$catch$5 0000000180015880 f   frame.obj
 0001:0001488d       __catch$_wrap_get_frame_part$4 000000018001588d f   frame.obj
 0001:000148b3       _wrap_get_frame_part$catch$4 00000001800158b3 f   frame.obj
 0001:000148c0       __catch$_wrap_get_frame_part$6 00000001800158c0 f   frame.obj
 0001:000148ec       _wrap_get_frame_part$catch$3 00000001800158ec f   frame.obj
 0001:000148f9       __catch$_wrap_get_frame_part$8 00000001800158f9 f   frame.obj
 0001:00014911       _wrap_get_frame_part$catch$2 0000000180015911 f   frame.obj
 0001:0001491e       __catch$_wrap_get_frame_part$10 000000018001591e f   frame.obj
 0001:00014936       _wrap_get_frame_part$catch$1 0000000180015936 f   frame.obj
 0001:00014943       __catch$_wrap_get_frame_part$12 0000000180015943 f   frame.obj
 0001:0001496f       _wrap_get_frame_part$catch$0 000000018001596f f   frame.obj
 0001:0001497c       __catch$_wrap_get_frame_part$14 000000018001597c f   frame.obj
 0001:000149b0       _wrap_get_frame_retsize$catch$5 00000001800159b0 f   frame.obj
 0001:000149bd       __catch$_wrap_get_frame_retsize$2 00000001800159bd f   frame.obj
 0001:000149e3       _wrap_get_frame_retsize$catch$4 00000001800159e3 f   frame.obj
 0001:000149f0       __catch$_wrap_get_frame_retsize$4 00000001800159f0 f   frame.obj
 0001:00014a1c       _wrap_get_frame_retsize$catch$3 0000000180015a1c f   frame.obj
 0001:00014a29       __catch$_wrap_get_frame_retsize$6 0000000180015a29 f   frame.obj
 0001:00014a41       _wrap_get_frame_retsize$catch$2 0000000180015a41 f   frame.obj
 0001:00014a4e       __catch$_wrap_get_frame_retsize$8 0000000180015a4e f   frame.obj
 0001:00014a66       _wrap_get_frame_retsize$catch$1 0000000180015a66 f   frame.obj
 0001:00014a73       __catch$_wrap_get_frame_retsize$10 0000000180015a73 f   frame.obj
 0001:00014a9f       _wrap_get_frame_retsize$catch$0 0000000180015a9f f   frame.obj
 0001:00014aac       __catch$_wrap_get_frame_retsize$12 0000000180015aac f   frame.obj
 0001:00014ae0       _wrap_get_frame_size$catch$5 0000000180015ae0 f   frame.obj
 0001:00014aed       __catch$_wrap_get_frame_size$2 0000000180015aed f   frame.obj
 0001:00014b13       _wrap_get_frame_size$catch$4 0000000180015b13 f   frame.obj
 0001:00014b20       __catch$_wrap_get_frame_size$4 0000000180015b20 f   frame.obj
 0001:00014b4c       _wrap_get_frame_size$catch$3 0000000180015b4c f   frame.obj
 0001:00014b59       __catch$_wrap_get_frame_size$6 0000000180015b59 f   frame.obj
 0001:00014b71       _wrap_get_frame_size$catch$2 0000000180015b71 f   frame.obj
 0001:00014b7e       __catch$_wrap_get_frame_size$8 0000000180015b7e f   frame.obj
 0001:00014b96       _wrap_get_frame_size$catch$1 0000000180015b96 f   frame.obj
 0001:00014ba3       __catch$_wrap_get_frame_size$10 0000000180015ba3 f   frame.obj
 0001:00014bcf       _wrap_get_frame_size$catch$0 0000000180015bcf f   frame.obj
 0001:00014bdc       __catch$_wrap_get_frame_size$12 0000000180015bdc f   frame.obj
 0001:00014c10       _wrap_get_func_by_frame$catch$5 0000000180015c10 f   frame.obj
 0001:00014c1d       __catch$_wrap_get_func_by_frame$2 0000000180015c1d f   frame.obj
 0001:00014c43       _wrap_get_func_by_frame$catch$4 0000000180015c43 f   frame.obj
 0001:00014c50       __catch$_wrap_get_func_by_frame$4 0000000180015c50 f   frame.obj
 0001:00014c7c       _wrap_get_func_by_frame$catch$3 0000000180015c7c f   frame.obj
 0001:00014c89       __catch$_wrap_get_func_by_frame$6 0000000180015c89 f   frame.obj
 0001:00014ca1       _wrap_get_func_by_frame$catch$2 0000000180015ca1 f   frame.obj
 0001:00014cae       __catch$_wrap_get_func_by_frame$8 0000000180015cae f   frame.obj
 0001:00014cc6       _wrap_get_func_by_frame$catch$1 0000000180015cc6 f   frame.obj
 0001:00014cd3       __catch$_wrap_get_func_by_frame$10 0000000180015cd3 f   frame.obj
 0001:00014cff       _wrap_get_func_by_frame$catch$0 0000000180015cff f   frame.obj
 0001:00014d0c       __catch$_wrap_get_func_by_frame$12 0000000180015d0c f   frame.obj
 0001:00014d40       _wrap_get_min_spd_ea$catch$5 0000000180015d40 f   frame.obj
 0001:00014d4d       __catch$_wrap_get_min_spd_ea$2 0000000180015d4d f   frame.obj
 0001:00014d73       _wrap_get_min_spd_ea$catch$4 0000000180015d73 f   frame.obj
 0001:00014d80       __catch$_wrap_get_min_spd_ea$4 0000000180015d80 f   frame.obj
 0001:00014dac       _wrap_get_min_spd_ea$catch$3 0000000180015dac f   frame.obj
 0001:00014db9       __catch$_wrap_get_min_spd_ea$6 0000000180015db9 f   frame.obj
 0001:00014dd1       _wrap_get_min_spd_ea$catch$2 0000000180015dd1 f   frame.obj
 0001:00014dde       __catch$_wrap_get_min_spd_ea$8 0000000180015dde f   frame.obj
 0001:00014df6       _wrap_get_min_spd_ea$catch$1 0000000180015df6 f   frame.obj
 0001:00014e03       __catch$_wrap_get_min_spd_ea$10 0000000180015e03 f   frame.obj
 0001:00014e2f       _wrap_get_min_spd_ea$catch$0 0000000180015e2f f   frame.obj
 0001:00014e3c       __catch$_wrap_get_min_spd_ea$12 0000000180015e3c f   frame.obj
 0001:00014e70       _wrap_get_sp_delta$catch$5 0000000180015e70 f   frame.obj
 0001:00014e7d       __catch$_wrap_get_sp_delta$3 0000000180015e7d f   frame.obj
 0001:00014ea3       _wrap_get_sp_delta$catch$4 0000000180015ea3 f   frame.obj
 0001:00014eb0       __catch$_wrap_get_sp_delta$5 0000000180015eb0 f   frame.obj
 0001:00014edc       _wrap_get_sp_delta$catch$3 0000000180015edc f   frame.obj
 0001:00014ee9       __catch$_wrap_get_sp_delta$7 0000000180015ee9 f   frame.obj
 0001:00014f01       _wrap_get_sp_delta$catch$2 0000000180015f01 f   frame.obj
 0001:00014f0e       __catch$_wrap_get_sp_delta$9 0000000180015f0e f   frame.obj
 0001:00014f26       _wrap_get_sp_delta$catch$1 0000000180015f26 f   frame.obj
 0001:00014f33       __catch$_wrap_get_sp_delta$11 0000000180015f33 f   frame.obj
 0001:00014f5f       _wrap_get_sp_delta$catch$0 0000000180015f5f f   frame.obj
 0001:00014f6c       __catch$_wrap_get_sp_delta$13 0000000180015f6c f   frame.obj
 0001:00014fa0       _wrap_get_spd$catch$5      0000000180015fa0 f   frame.obj
 0001:00014fad       __catch$_wrap_get_spd$3    0000000180015fad f   frame.obj
 0001:00014fd3       _wrap_get_spd$catch$4      0000000180015fd3 f   frame.obj
 0001:00014fe0       __catch$_wrap_get_spd$5    0000000180015fe0 f   frame.obj
 0001:0001500c       _wrap_get_spd$catch$3      000000018001600c f   frame.obj
 0001:00015019       __catch$_wrap_get_spd$7    0000000180016019 f   frame.obj
 0001:00015031       _wrap_get_spd$catch$2      0000000180016031 f   frame.obj
 0001:0001503e       __catch$_wrap_get_spd$9    000000018001603e f   frame.obj
 0001:00015056       _wrap_get_spd$catch$1      0000000180016056 f   frame.obj
 0001:00015063       __catch$_wrap_get_spd$11   0000000180016063 f   frame.obj
 0001:0001508f       _wrap_get_spd$catch$0      000000018001608f f   frame.obj
 0001:0001509c       __catch$_wrap_get_spd$13   000000018001609c f   frame.obj
 0001:000150d0       _wrap_get_stkvar$catch$5   00000001800160d0 f   frame.obj
 0001:000150dd       __catch$_wrap_get_stkvar$6 00000001800160dd f   frame.obj
 0001:00015103       _wrap_get_stkvar$catch$4   0000000180016103 f   frame.obj
 0001:00015110       __catch$_wrap_get_stkvar$8 0000000180016110 f   frame.obj
 0001:0001513c       _wrap_get_stkvar$catch$3   000000018001613c f   frame.obj
 0001:00015149       __catch$_wrap_get_stkvar$10 0000000180016149 f   frame.obj
 0001:00015161       _wrap_get_stkvar$catch$2   0000000180016161 f   frame.obj
 0001:0001516e       __catch$_wrap_get_stkvar$12 000000018001616e f   frame.obj
 0001:00015186       _wrap_get_stkvar$catch$1   0000000180016186 f   frame.obj
 0001:00015193       __catch$_wrap_get_stkvar$14 0000000180016193 f   frame.obj
 0001:000151bf       _wrap_get_stkvar$catch$0   00000001800161bf f   frame.obj
 0001:000151cc       __catch$_wrap_get_stkvar$16 00000001800161cc f   frame.obj
 0001:00015200       _wrap_is_funcarg_off$catch$5 0000000180016200 f   frame.obj
 0001:0001520d       __catch$_wrap_is_funcarg_off$3 000000018001620d f   frame.obj
 0001:00015233       _wrap_is_funcarg_off$catch$4 0000000180016233 f   frame.obj
 0001:00015240       __catch$_wrap_is_funcarg_off$5 0000000180016240 f   frame.obj
 0001:0001526c       _wrap_is_funcarg_off$catch$3 000000018001626c f   frame.obj
 0001:00015279       __catch$_wrap_is_funcarg_off$7 0000000180016279 f   frame.obj
 0001:00015291       _wrap_is_funcarg_off$catch$2 0000000180016291 f   frame.obj
 0001:0001529e       __catch$_wrap_is_funcarg_off$9 000000018001629e f   frame.obj
 0001:000152b6       _wrap_is_funcarg_off$catch$1 00000001800162b6 f   frame.obj
 0001:000152c3       __catch$_wrap_is_funcarg_off$11 00000001800162c3 f   frame.obj
 0001:000152ef       _wrap_is_funcarg_off$catch$0 00000001800162ef f   frame.obj
 0001:000152fc       __catch$_wrap_is_funcarg_off$13 00000001800162fc f   frame.obj
 0001:00015330       _wrap_lvar_off$catch$5     0000000180016330 f   frame.obj
 0001:0001533d       __catch$_wrap_lvar_off$3   000000018001633d f   frame.obj
 0001:00015363       _wrap_lvar_off$catch$4     0000000180016363 f   frame.obj
 0001:00015370       __catch$_wrap_lvar_off$5   0000000180016370 f   frame.obj
 0001:0001539c       _wrap_lvar_off$catch$3     000000018001639c f   frame.obj
 0001:000153a9       __catch$_wrap_lvar_off$7   00000001800163a9 f   frame.obj
 0001:000153c1       _wrap_lvar_off$catch$2     00000001800163c1 f   frame.obj
 0001:000153ce       __catch$_wrap_lvar_off$9   00000001800163ce f   frame.obj
 0001:000153e6       _wrap_lvar_off$catch$1     00000001800163e6 f   frame.obj
 0001:000153f3       __catch$_wrap_lvar_off$11  00000001800163f3 f   frame.obj
 0001:0001541f       _wrap_lvar_off$catch$0     000000018001641f f   frame.obj
 0001:0001542c       __catch$_wrap_lvar_off$13  000000018001642c f   frame.obj
 0001:00015460       _wrap_new_llabel_t$catch$0 0000000180016460 f   frame.obj
 0001:0001546d       __catch$_wrap_new_llabel_t$1 000000018001646d f   frame.obj
 0001:00015493       _wrap_new_llabel_t$catch$1 0000000180016493 f   frame.obj
 0001:000154a0       __catch$_wrap_new_llabel_t$3 00000001800164a0 f   frame.obj
 0001:000154cc       _wrap_new_llabel_t$catch$2 00000001800164cc f   frame.obj
 0001:000154d9       __catch$_wrap_new_llabel_t$5 00000001800164d9 f   frame.obj
 0001:000154f1       _wrap_new_llabel_t$catch$3 00000001800164f1 f   frame.obj
 0001:000154fe       __catch$_wrap_new_llabel_t$7 00000001800164fe f   frame.obj
 0001:00015516       _wrap_new_llabel_t$catch$4 0000000180016516 f   frame.obj
 0001:00015523       __catch$_wrap_new_llabel_t$9 0000000180016523 f   frame.obj
 0001:0001554f       _wrap_new_llabel_t$catch$5 000000018001654f f   frame.obj
 0001:0001555c       __catch$_wrap_new_llabel_t$11 000000018001655c f   frame.obj
 0001:00015590       _wrap_new_regvar_t$catch$1 0000000180016590 f   frame.obj
 0001:0001559d       __catch$_wrap_new_regvar_t$1 000000018001659d f   frame.obj
 0001:000155c3       _wrap_new_regvar_t$catch$2 00000001800165c3 f   frame.obj
 0001:000155d0       __catch$_wrap_new_regvar_t$3 00000001800165d0 f   frame.obj
 0001:000155fc       _wrap_new_regvar_t$catch$3 00000001800165fc f   frame.obj
 0001:00015609       __catch$_wrap_new_regvar_t$5 0000000180016609 f   frame.obj
 0001:00015621       _wrap_new_regvar_t$catch$4 0000000180016621 f   frame.obj
 0001:0001562e       __catch$_wrap_new_regvar_t$7 000000018001662e f   frame.obj
 0001:00015646       _wrap_new_regvar_t$catch$5 0000000180016646 f   frame.obj
 0001:00015653       __catch$_wrap_new_regvar_t$9 0000000180016653 f   frame.obj
 0001:0001567f       _wrap_new_regvar_t$catch$6 000000018001667f f   frame.obj
 0001:0001568c       __catch$_wrap_new_regvar_t$11 000000018001668c f   frame.obj
 0001:000156c0       _wrap_new_stkpnt_t$catch$0 00000001800166c0 f   frame.obj
 0001:000156cd       __catch$_wrap_new_stkpnt_t$1 00000001800166cd f   frame.obj
 0001:000156f3       _wrap_new_stkpnt_t$catch$1 00000001800166f3 f   frame.obj
 0001:00015700       __catch$_wrap_new_stkpnt_t$3 0000000180016700 f   frame.obj
 0001:0001572c       _wrap_new_stkpnt_t$catch$2 000000018001672c f   frame.obj
 0001:00015739       __catch$_wrap_new_stkpnt_t$5 0000000180016739 f   frame.obj
 0001:00015751       _wrap_new_stkpnt_t$catch$3 0000000180016751 f   frame.obj
 0001:0001575e       __catch$_wrap_new_stkpnt_t$7 000000018001675e f   frame.obj
 0001:00015776       _wrap_new_stkpnt_t$catch$4 0000000180016776 f   frame.obj
 0001:00015783       __catch$_wrap_new_stkpnt_t$9 0000000180016783 f   frame.obj
 0001:000157af       _wrap_new_stkpnt_t$catch$5 00000001800167af f   frame.obj
 0001:000157bc       __catch$_wrap_new_stkpnt_t$11 00000001800167bc f   frame.obj
 0001:000157f0       _wrap_new_stkpnts_t$catch$6 00000001800167f0 f   frame.obj
 0001:000157fd       __catch$_wrap_new_stkpnts_t$1 00000001800167fd f   frame.obj
 0001:00015823       _wrap_new_stkpnts_t$catch$5 0000000180016823 f   frame.obj
 0001:00015830       __catch$_wrap_new_stkpnts_t$3 0000000180016830 f   frame.obj
 0001:0001585c       _wrap_new_stkpnts_t$catch$4 000000018001685c f   frame.obj
 0001:00015869       __catch$_wrap_new_stkpnts_t$5 0000000180016869 f   frame.obj
 0001:00015881       _wrap_new_stkpnts_t$catch$3 0000000180016881 f   frame.obj
 0001:0001588e       __catch$_wrap_new_stkpnts_t$7 000000018001688e f   frame.obj
 0001:000158a6       _wrap_new_stkpnts_t$catch$2 00000001800168a6 f   frame.obj
 0001:000158b3       __catch$_wrap_new_stkpnts_t$9 00000001800168b3 f   frame.obj
 0001:000158df       _wrap_new_stkpnts_t$catch$1 00000001800168df f   frame.obj
 0001:000158ec       __catch$_wrap_new_stkpnts_t$11 00000001800168ec f   frame.obj
 0001:00015920       _wrap_new_xreflist_entry_t$catch$0 0000000180016920 f   frame.obj
 0001:0001592d       __catch$_wrap_new_xreflist_entry_t$1 000000018001692d f   frame.obj
 0001:00015953       _wrap_new_xreflist_entry_t$catch$1 0000000180016953 f   frame.obj
 0001:00015960       __catch$_wrap_new_xreflist_entry_t$3 0000000180016960 f   frame.obj
 0001:0001598c       _wrap_new_xreflist_entry_t$catch$2 000000018001698c f   frame.obj
 0001:00015999       __catch$_wrap_new_xreflist_entry_t$5 0000000180016999 f   frame.obj
 0001:000159b1       _wrap_new_xreflist_entry_t$catch$3 00000001800169b1 f   frame.obj
 0001:000159be       __catch$_wrap_new_xreflist_entry_t$7 00000001800169be f   frame.obj
 0001:000159d6       _wrap_new_xreflist_entry_t$catch$4 00000001800169d6 f   frame.obj
 0001:000159e3       __catch$_wrap_new_xreflist_entry_t$9 00000001800169e3 f   frame.obj
 0001:00015a0f       _wrap_new_xreflist_entry_t$catch$5 0000000180016a0f f   frame.obj
 0001:00015a1c       __catch$_wrap_new_xreflist_entry_t$11 0000000180016a1c f   frame.obj
 0001:00015a50       _wrap_new_xreflist_t__SWIG_0$catch$6 0000000180016a50 f   frame.obj
 0001:00015a5d       __catch$_wrap_new_xreflist_t__SWIG_0$1 0000000180016a5d f   frame.obj
 0001:00015a83       _wrap_new_xreflist_t__SWIG_0$catch$5 0000000180016a83 f   frame.obj
 0001:00015a90       __catch$_wrap_new_xreflist_t__SWIG_0$3 0000000180016a90 f   frame.obj
 0001:00015abc       _wrap_new_xreflist_t__SWIG_0$catch$4 0000000180016abc f   frame.obj
 0001:00015ac9       __catch$_wrap_new_xreflist_t__SWIG_0$5 0000000180016ac9 f   frame.obj
 0001:00015ae1       _wrap_new_xreflist_t__SWIG_0$catch$3 0000000180016ae1 f   frame.obj
 0001:00015aee       __catch$_wrap_new_xreflist_t__SWIG_0$7 0000000180016aee f   frame.obj
 0001:00015b06       _wrap_new_xreflist_t__SWIG_0$catch$2 0000000180016b06 f   frame.obj
 0001:00015b13       __catch$_wrap_new_xreflist_t__SWIG_0$9 0000000180016b13 f   frame.obj
 0001:00015b3f       _wrap_new_xreflist_t__SWIG_0$catch$1 0000000180016b3f f   frame.obj
 0001:00015b4c       __catch$_wrap_new_xreflist_t__SWIG_0$11 0000000180016b4c f   frame.obj
 0001:00015b80       _wrap_new_xreflist_t__SWIG_1$catch$6 0000000180016b80 f   frame.obj
 0001:00015b8d       __catch$_wrap_new_xreflist_t__SWIG_1$3 0000000180016b8d f   frame.obj
 0001:00015bb3       _wrap_new_xreflist_t__SWIG_1$catch$5 0000000180016bb3 f   frame.obj
 0001:00015bc0       __catch$_wrap_new_xreflist_t__SWIG_1$5 0000000180016bc0 f   frame.obj
 0001:00015bec       _wrap_new_xreflist_t__SWIG_1$catch$4 0000000180016bec f   frame.obj
 0001:00015bf9       __catch$_wrap_new_xreflist_t__SWIG_1$7 0000000180016bf9 f   frame.obj
 0001:00015c11       _wrap_new_xreflist_t__SWIG_1$catch$3 0000000180016c11 f   frame.obj
 0001:00015c1e       __catch$_wrap_new_xreflist_t__SWIG_1$9 0000000180016c1e f   frame.obj
 0001:00015c36       _wrap_new_xreflist_t__SWIG_1$catch$2 0000000180016c36 f   frame.obj
 0001:00015c43       __catch$_wrap_new_xreflist_t__SWIG_1$11 0000000180016c43 f   frame.obj
 0001:00015c6f       _wrap_new_xreflist_t__SWIG_1$catch$1 0000000180016c6f f   frame.obj
 0001:00015c7c       __catch$_wrap_new_xreflist_t__SWIG_1$13 0000000180016c7c f   frame.obj
 0001:00015cb0       _wrap_recalc_spd$catch$5   0000000180016cb0 f   frame.obj
 0001:00015cbd       __catch$_wrap_recalc_spd$2 0000000180016cbd f   frame.obj
 0001:00015ce3       _wrap_recalc_spd$catch$4   0000000180016ce3 f   frame.obj
 0001:00015cf0       __catch$_wrap_recalc_spd$4 0000000180016cf0 f   frame.obj
 0001:00015d1c       _wrap_recalc_spd$catch$3   0000000180016d1c f   frame.obj
 0001:00015d29       __catch$_wrap_recalc_spd$6 0000000180016d29 f   frame.obj
 0001:00015d41       _wrap_recalc_spd$catch$2   0000000180016d41 f   frame.obj
 0001:00015d4e       __catch$_wrap_recalc_spd$8 0000000180016d4e f   frame.obj
 0001:00015d66       _wrap_recalc_spd$catch$1   0000000180016d66 f   frame.obj
 0001:00015d73       __catch$_wrap_recalc_spd$10 0000000180016d73 f   frame.obj
 0001:00015d9f       _wrap_recalc_spd$catch$0   0000000180016d9f f   frame.obj
 0001:00015dac       __catch$_wrap_recalc_spd$12 0000000180016dac f   frame.obj
 0001:00015de0       _wrap_rename_regvar$catch$5 0000000180016de0 f   frame.obj
 0001:00015ded       __catch$_wrap_rename_regvar$4 0000000180016ded f   frame.obj
 0001:00015e13       _wrap_rename_regvar$catch$4 0000000180016e13 f   frame.obj
 0001:00015e20       __catch$_wrap_rename_regvar$6 0000000180016e20 f   frame.obj
 0001:00015e4c       _wrap_rename_regvar$catch$3 0000000180016e4c f   frame.obj
 0001:00015e59       __catch$_wrap_rename_regvar$8 0000000180016e59 f   frame.obj
 0001:00015e71       _wrap_rename_regvar$catch$2 0000000180016e71 f   frame.obj
 0001:00015e7e       __catch$_wrap_rename_regvar$10 0000000180016e7e f   frame.obj
 0001:00015e96       _wrap_rename_regvar$catch$1 0000000180016e96 f   frame.obj
 0001:00015ea3       __catch$_wrap_rename_regvar$12 0000000180016ea3 f   frame.obj
 0001:00015ecf       _wrap_rename_regvar$catch$0 0000000180016ecf f   frame.obj
 0001:00015edc       __catch$_wrap_rename_regvar$14 0000000180016edc f   frame.obj
 0001:00015f10       _wrap_set_frame_size$catch$5 0000000180016f10 f   frame.obj
 0001:00015f1d       __catch$_wrap_set_frame_size$5 0000000180016f1d f   frame.obj
 0001:00015f43       _wrap_set_frame_size$catch$4 0000000180016f43 f   frame.obj
 0001:00015f50       __catch$_wrap_set_frame_size$7 0000000180016f50 f   frame.obj
 0001:00015f7c       _wrap_set_frame_size$catch$3 0000000180016f7c f   frame.obj
 0001:00015f89       __catch$_wrap_set_frame_size$9 0000000180016f89 f   frame.obj
 0001:00015fa1       _wrap_set_frame_size$catch$2 0000000180016fa1 f   frame.obj
 0001:00015fae       __catch$_wrap_set_frame_size$11 0000000180016fae f   frame.obj
 0001:00015fc6       _wrap_set_frame_size$catch$1 0000000180016fc6 f   frame.obj
 0001:00015fd3       __catch$_wrap_set_frame_size$13 0000000180016fd3 f   frame.obj
 0001:00015fff       _wrap_set_frame_size$catch$0 0000000180016fff f   frame.obj
 0001:0001600c       __catch$_wrap_set_frame_size$15 000000018001700c f   frame.obj
 0001:00016040       _wrap_set_purged$catch$5   0000000180017040 f   frame.obj
 0001:0001604d       __catch$_wrap_set_purged$4 000000018001704d f   frame.obj
 0001:00016073       _wrap_set_purged$catch$4   0000000180017073 f   frame.obj
 0001:00016080       __catch$_wrap_set_purged$6 0000000180017080 f   frame.obj
 0001:000160ac       _wrap_set_purged$catch$3   00000001800170ac f   frame.obj
 0001:000160b9       __catch$_wrap_set_purged$8 00000001800170b9 f   frame.obj
 0001:000160d1       _wrap_set_purged$catch$2   00000001800170d1 f   frame.obj
 0001:000160de       __catch$_wrap_set_purged$10 00000001800170de f   frame.obj
 0001:000160f6       _wrap_set_purged$catch$1   00000001800170f6 f   frame.obj
 0001:00016103       __catch$_wrap_set_purged$12 0000000180017103 f   frame.obj
 0001:0001612f       _wrap_set_purged$catch$0   000000018001712f f   frame.obj
 0001:0001613c       __catch$_wrap_set_purged$14 000000018001713c f   frame.obj
 0001:00016170       _wrap_set_regvar_cmt$catch$5 0000000180017170 f   frame.obj
 0001:0001617d       __catch$_wrap_set_regvar_cmt$4 000000018001717d f   frame.obj
 0001:000161a3       _wrap_set_regvar_cmt$catch$4 00000001800171a3 f   frame.obj
 0001:000161b0       __catch$_wrap_set_regvar_cmt$6 00000001800171b0 f   frame.obj
 0001:000161dc       _wrap_set_regvar_cmt$catch$3 00000001800171dc f   frame.obj
 0001:000161e9       __catch$_wrap_set_regvar_cmt$8 00000001800171e9 f   frame.obj
 0001:00016201       _wrap_set_regvar_cmt$catch$2 0000000180017201 f   frame.obj
 0001:0001620e       __catch$_wrap_set_regvar_cmt$10 000000018001720e f   frame.obj
 0001:00016226       _wrap_set_regvar_cmt$catch$1 0000000180017226 f   frame.obj
 0001:00016233       __catch$_wrap_set_regvar_cmt$12 0000000180017233 f   frame.obj
 0001:0001625f       _wrap_set_regvar_cmt$catch$0 000000018001725f f   frame.obj
 0001:0001626c       __catch$_wrap_set_regvar_cmt$14 000000018001726c f   frame.obj
 0001:000162a0       _wrap_stkpnt_t___lt__$catch$5 00000001800172a0 f   frame.obj
 0001:000162ad       __catch$_wrap_stkpnt_t___lt__$4 00000001800172ad f   frame.obj
 0001:000162d3       _wrap_stkpnt_t___lt__$catch$4 00000001800172d3 f   frame.obj
 0001:000162e0       __catch$_wrap_stkpnt_t___lt__$6 00000001800172e0 f   frame.obj
 0001:0001630c       _wrap_stkpnt_t___lt__$catch$3 000000018001730c f   frame.obj
 0001:00016319       __catch$_wrap_stkpnt_t___lt__$8 0000000180017319 f   frame.obj
 0001:00016331       _wrap_stkpnt_t___lt__$catch$2 0000000180017331 f   frame.obj
 0001:0001633e       __catch$_wrap_stkpnt_t___lt__$10 000000018001733e f   frame.obj
 0001:00016356       _wrap_stkpnt_t___lt__$catch$1 0000000180017356 f   frame.obj
 0001:00016363       __catch$_wrap_stkpnt_t___lt__$12 0000000180017363 f   frame.obj
 0001:0001638f       _wrap_stkpnt_t___lt__$catch$0 000000018001738f f   frame.obj
 0001:0001639c       __catch$_wrap_stkpnt_t___lt__$14 000000018001739c f   frame.obj
 0001:000163d0       _wrap_update_fpd$catch$5   00000001800173d0 f   frame.obj
 0001:000163dd       __catch$_wrap_update_fpd$3 00000001800173dd f   frame.obj
 0001:00016403       _wrap_update_fpd$catch$4   0000000180017403 f   frame.obj
 0001:00016410       __catch$_wrap_update_fpd$5 0000000180017410 f   frame.obj
 0001:0001643c       _wrap_update_fpd$catch$3   000000018001743c f   frame.obj
 0001:00016449       __catch$_wrap_update_fpd$7 0000000180017449 f   frame.obj
 0001:00016461       _wrap_update_fpd$catch$2   0000000180017461 f   frame.obj
 0001:0001646e       __catch$_wrap_update_fpd$9 000000018001746e f   frame.obj
 0001:00016486       _wrap_update_fpd$catch$1   0000000180017486 f   frame.obj
 0001:00016493       __catch$_wrap_update_fpd$11 0000000180017493 f   frame.obj
 0001:000164bf       _wrap_update_fpd$catch$0   00000001800174bf f   frame.obj
 0001:000164cc       __catch$_wrap_update_fpd$13 00000001800174cc f   frame.obj
 0001:00016500       _wrap_xreflist_entry_t___eq__$catch$5 0000000180017500 f   frame.obj
 0001:0001650d       __catch$_wrap_xreflist_entry_t___eq__$4 000000018001750d f   frame.obj
 0001:00016533       _wrap_xreflist_entry_t___eq__$catch$4 0000000180017533 f   frame.obj
 0001:00016540       __catch$_wrap_xreflist_entry_t___eq__$6 0000000180017540 f   frame.obj
 0001:0001656c       _wrap_xreflist_entry_t___eq__$catch$3 000000018001756c f   frame.obj
 0001:00016579       __catch$_wrap_xreflist_entry_t___eq__$8 0000000180017579 f   frame.obj
 0001:00016591       _wrap_xreflist_entry_t___eq__$catch$2 0000000180017591 f   frame.obj
 0001:0001659e       __catch$_wrap_xreflist_entry_t___eq__$10 000000018001759e f   frame.obj
 0001:000165b6       _wrap_xreflist_entry_t___eq__$catch$1 00000001800175b6 f   frame.obj
 0001:000165c3       __catch$_wrap_xreflist_entry_t___eq__$12 00000001800175c3 f   frame.obj
 0001:000165ef       _wrap_xreflist_entry_t___eq__$catch$0 00000001800175ef f   frame.obj
 0001:000165fc       __catch$_wrap_xreflist_entry_t___eq__$14 00000001800175fc f   frame.obj
 0001:00016630       _wrap_xreflist_entry_t___ne__$catch$5 0000000180017630 f   frame.obj
 0001:0001663d       __catch$_wrap_xreflist_entry_t___ne__$4 000000018001763d f   frame.obj
 0001:00016663       _wrap_xreflist_entry_t___ne__$catch$4 0000000180017663 f   frame.obj
 0001:00016670       __catch$_wrap_xreflist_entry_t___ne__$6 0000000180017670 f   frame.obj
 0001:0001669c       _wrap_xreflist_entry_t___ne__$catch$3 000000018001769c f   frame.obj
 0001:000166a9       __catch$_wrap_xreflist_entry_t___ne__$8 00000001800176a9 f   frame.obj
 0001:000166c1       _wrap_xreflist_entry_t___ne__$catch$2 00000001800176c1 f   frame.obj
 0001:000166ce       __catch$_wrap_xreflist_entry_t___ne__$10 00000001800176ce f   frame.obj
 0001:000166e6       _wrap_xreflist_entry_t___ne__$catch$1 00000001800176e6 f   frame.obj
 0001:000166f3       __catch$_wrap_xreflist_entry_t___ne__$12 00000001800176f3 f   frame.obj
 0001:0001671f       _wrap_xreflist_entry_t___ne__$catch$0 000000018001771f f   frame.obj
 0001:0001672c       __catch$_wrap_xreflist_entry_t___ne__$14 000000018001772c f   frame.obj
 0001:00016760       _wrap_xreflist_t___eq__$catch$5 0000000180017760 f   frame.obj
 0001:0001676d       __catch$_wrap_xreflist_t___eq__$4 000000018001776d f   frame.obj
 0001:00016793       _wrap_xreflist_t___eq__$catch$4 0000000180017793 f   frame.obj
 0001:000167a0       __catch$_wrap_xreflist_t___eq__$6 00000001800177a0 f   frame.obj
 0001:000167cc       _wrap_xreflist_t___eq__$catch$3 00000001800177cc f   frame.obj
 0001:000167d9       __catch$_wrap_xreflist_t___eq__$8 00000001800177d9 f   frame.obj
 0001:000167f1       _wrap_xreflist_t___eq__$catch$2 00000001800177f1 f   frame.obj
 0001:000167fe       __catch$_wrap_xreflist_t___eq__$10 00000001800177fe f   frame.obj
 0001:00016816       _wrap_xreflist_t___eq__$catch$1 0000000180017816 f   frame.obj
 0001:00016823       __catch$_wrap_xreflist_t___eq__$12 0000000180017823 f   frame.obj
 0001:0001684f       _wrap_xreflist_t___eq__$catch$0 000000018001784f f   frame.obj
 0001:0001685c       __catch$_wrap_xreflist_t___eq__$14 000000018001785c f   frame.obj
 0001:00016890       _wrap_xreflist_t___getitem__$catch$0 0000000180017890 f   frame.obj
 0001:0001689d       __catch$_wrap_xreflist_t___getitem__$3 000000018001789d f   frame.obj
 0001:000168c3       _wrap_xreflist_t___getitem__$catch$1 00000001800178c3 f   frame.obj
 0001:000168d0       __catch$_wrap_xreflist_t___getitem__$5 00000001800178d0 f   frame.obj
 0001:000168fc       _wrap_xreflist_t___getitem__$catch$2 00000001800178fc f   frame.obj
 0001:00016909       __catch$_wrap_xreflist_t___getitem__$7 0000000180017909 f   frame.obj
 0001:00016921       _wrap_xreflist_t___getitem__$catch$3 0000000180017921 f   frame.obj
 0001:0001692e       __catch$_wrap_xreflist_t___getitem__$9 000000018001792e f   frame.obj
 0001:00016946       _wrap_xreflist_t___getitem__$catch$4 0000000180017946 f   frame.obj
 0001:00016953       __catch$_wrap_xreflist_t___getitem__$11 0000000180017953 f   frame.obj
 0001:0001697f       _wrap_xreflist_t___getitem__$catch$5 000000018001797f f   frame.obj
 0001:0001698c       __catch$_wrap_xreflist_t___getitem__$13 000000018001798c f   frame.obj
 0001:000169c0       _wrap_xreflist_t___len__$catch$5 00000001800179c0 f   frame.obj
 0001:000169cd       __catch$_wrap_xreflist_t___len__$2 00000001800179cd f   frame.obj
 0001:000169f3       _wrap_xreflist_t___len__$catch$4 00000001800179f3 f   frame.obj
 0001:00016a00       __catch$_wrap_xreflist_t___len__$4 0000000180017a00 f   frame.obj
 0001:00016a2c       _wrap_xreflist_t___len__$catch$3 0000000180017a2c f   frame.obj
 0001:00016a39       __catch$_wrap_xreflist_t___len__$6 0000000180017a39 f   frame.obj
 0001:00016a51       _wrap_xreflist_t___len__$catch$2 0000000180017a51 f   frame.obj
 0001:00016a5e       __catch$_wrap_xreflist_t___len__$8 0000000180017a5e f   frame.obj
 0001:00016a76       _wrap_xreflist_t___len__$catch$1 0000000180017a76 f   frame.obj
 0001:00016a83       __catch$_wrap_xreflist_t___len__$10 0000000180017a83 f   frame.obj
 0001:00016aaf       _wrap_xreflist_t___len__$catch$0 0000000180017aaf f   frame.obj
 0001:00016abc       __catch$_wrap_xreflist_t___len__$12 0000000180017abc f   frame.obj
 0001:00016af0       _wrap_xreflist_t___ne__$catch$5 0000000180017af0 f   frame.obj
 0001:00016afd       __catch$_wrap_xreflist_t___ne__$4 0000000180017afd f   frame.obj
 0001:00016b23       _wrap_xreflist_t___ne__$catch$4 0000000180017b23 f   frame.obj
 0001:00016b30       __catch$_wrap_xreflist_t___ne__$6 0000000180017b30 f   frame.obj
 0001:00016b5c       _wrap_xreflist_t___ne__$catch$3 0000000180017b5c f   frame.obj
 0001:00016b69       __catch$_wrap_xreflist_t___ne__$8 0000000180017b69 f   frame.obj
 0001:00016b81       _wrap_xreflist_t___ne__$catch$2 0000000180017b81 f   frame.obj
 0001:00016b8e       __catch$_wrap_xreflist_t___ne__$10 0000000180017b8e f   frame.obj
 0001:00016ba6       _wrap_xreflist_t___ne__$catch$1 0000000180017ba6 f   frame.obj
 0001:00016bb3       __catch$_wrap_xreflist_t___ne__$12 0000000180017bb3 f   frame.obj
 0001:00016bdf       _wrap_xreflist_t___ne__$catch$0 0000000180017bdf f   frame.obj
 0001:00016bec       __catch$_wrap_xreflist_t___ne__$14 0000000180017bec f   frame.obj
 0001:00016c20       _wrap_xreflist_t___setitem__$catch$0 0000000180017c20 f   frame.obj
 0001:00016c2d       __catch$_wrap_xreflist_t___setitem__$5 0000000180017c2d f   frame.obj
 0001:00016c53       _wrap_xreflist_t___setitem__$catch$1 0000000180017c53 f   frame.obj
 0001:00016c60       __catch$_wrap_xreflist_t___setitem__$7 0000000180017c60 f   frame.obj
 0001:00016c8c       _wrap_xreflist_t___setitem__$catch$2 0000000180017c8c f   frame.obj
 0001:00016c99       __catch$_wrap_xreflist_t___setitem__$9 0000000180017c99 f   frame.obj
 0001:00016cb1       _wrap_xreflist_t___setitem__$catch$3 0000000180017cb1 f   frame.obj
 0001:00016cbe       __catch$_wrap_xreflist_t___setitem__$11 0000000180017cbe f   frame.obj
 0001:00016cd6       _wrap_xreflist_t___setitem__$catch$4 0000000180017cd6 f   frame.obj
 0001:00016ce3       __catch$_wrap_xreflist_t___setitem__$13 0000000180017ce3 f   frame.obj
 0001:00016d0f       _wrap_xreflist_t___setitem__$catch$5 0000000180017d0f f   frame.obj
 0001:00016d1c       __catch$_wrap_xreflist_t___setitem__$15 0000000180017d1c f   frame.obj
 0001:00016d50       _wrap_xreflist_t__del$catch$5 0000000180017d50 f   frame.obj
 0001:00016d5d       __catch$_wrap_xreflist_t__del$4 0000000180017d5d f   frame.obj
 0001:00016d83       _wrap_xreflist_t__del$catch$4 0000000180017d83 f   frame.obj
 0001:00016d90       __catch$_wrap_xreflist_t__del$6 0000000180017d90 f   frame.obj
 0001:00016dbc       _wrap_xreflist_t__del$catch$3 0000000180017dbc f   frame.obj
 0001:00016dc9       __catch$_wrap_xreflist_t__del$8 0000000180017dc9 f   frame.obj
 0001:00016de1       _wrap_xreflist_t__del$catch$2 0000000180017de1 f   frame.obj
 0001:00016dee       __catch$_wrap_xreflist_t__del$10 0000000180017dee f   frame.obj
 0001:00016e06       _wrap_xreflist_t__del$catch$1 0000000180017e06 f   frame.obj
 0001:00016e13       __catch$_wrap_xreflist_t__del$12 0000000180017e13 f   frame.obj
 0001:00016e3f       _wrap_xreflist_t__del$catch$0 0000000180017e3f f   frame.obj
 0001:00016e4c       __catch$_wrap_xreflist_t__del$14 0000000180017e4c f   frame.obj
 0001:00016e80       _wrap_xreflist_t_add_unique$catch$5 0000000180017e80 f   frame.obj
 0001:00016e8d       __catch$_wrap_xreflist_t_add_unique$4 0000000180017e8d f   frame.obj
 0001:00016eb3       _wrap_xreflist_t_add_unique$catch$4 0000000180017eb3 f   frame.obj
 0001:00016ec0       __catch$_wrap_xreflist_t_add_unique$6 0000000180017ec0 f   frame.obj
 0001:00016eec       _wrap_xreflist_t_add_unique$catch$3 0000000180017eec f   frame.obj
 0001:00016ef9       __catch$_wrap_xreflist_t_add_unique$8 0000000180017ef9 f   frame.obj
 0001:00016f11       _wrap_xreflist_t_add_unique$catch$2 0000000180017f11 f   frame.obj
 0001:00016f1e       __catch$_wrap_xreflist_t_add_unique$10 0000000180017f1e f   frame.obj
 0001:00016f36       _wrap_xreflist_t_add_unique$catch$1 0000000180017f36 f   frame.obj
 0001:00016f43       __catch$_wrap_xreflist_t_add_unique$12 0000000180017f43 f   frame.obj
 0001:00016f6f       _wrap_xreflist_t_add_unique$catch$0 0000000180017f6f f   frame.obj
 0001:00016f7c       __catch$_wrap_xreflist_t_add_unique$14 0000000180017f7c f   frame.obj
 0001:00016fb0       _wrap_xreflist_t_at$catch$5 0000000180017fb0 f   frame.obj
 0001:00016fbd       __catch$_wrap_xreflist_t_at$3 0000000180017fbd f   frame.obj
 0001:00016fe3       _wrap_xreflist_t_at$catch$4 0000000180017fe3 f   frame.obj
 0001:00016ff0       __catch$_wrap_xreflist_t_at$5 0000000180017ff0 f   frame.obj
 0001:0001701c       _wrap_xreflist_t_at$catch$3 000000018001801c f   frame.obj
 0001:00017029       __catch$_wrap_xreflist_t_at$7 0000000180018029 f   frame.obj
 0001:00017041       _wrap_xreflist_t_at$catch$2 0000000180018041 f   frame.obj
 0001:0001704e       __catch$_wrap_xreflist_t_at$9 000000018001804e f   frame.obj
 0001:00017066       _wrap_xreflist_t_at$catch$1 0000000180018066 f   frame.obj
 0001:00017073       __catch$_wrap_xreflist_t_at$11 0000000180018073 f   frame.obj
 0001:0001709f       _wrap_xreflist_t_at$catch$0 000000018001809f f   frame.obj
 0001:000170ac       __catch$_wrap_xreflist_t_at$13 00000001800180ac f   frame.obj
 0001:000170e0       _wrap_xreflist_t_begin__SWIG_0$catch$5 00000001800180e0 f   frame.obj
 0001:000170ed       __catch$_wrap_xreflist_t_begin__SWIG_0$2 00000001800180ed f   frame.obj
 0001:00017113       _wrap_xreflist_t_begin__SWIG_0$catch$4 0000000180018113 f   frame.obj
 0001:00017120       __catch$_wrap_xreflist_t_begin__SWIG_0$4 0000000180018120 f   frame.obj
 0001:0001714c       _wrap_xreflist_t_begin__SWIG_0$catch$3 000000018001814c f   frame.obj
 0001:00017159       __catch$_wrap_xreflist_t_begin__SWIG_0$6 0000000180018159 f   frame.obj
 0001:00017171       _wrap_xreflist_t_begin__SWIG_0$catch$2 0000000180018171 f   frame.obj
 0001:0001717e       __catch$_wrap_xreflist_t_begin__SWIG_0$8 000000018001817e f   frame.obj
 0001:00017196       _wrap_xreflist_t_begin__SWIG_0$catch$1 0000000180018196 f   frame.obj
 0001:000171a3       __catch$_wrap_xreflist_t_begin__SWIG_0$10 00000001800181a3 f   frame.obj
 0001:000171cf       _wrap_xreflist_t_begin__SWIG_0$catch$0 00000001800181cf f   frame.obj
 0001:000171dc       __catch$_wrap_xreflist_t_begin__SWIG_0$12 00000001800181dc f   frame.obj
 0001:00017210       _wrap_xreflist_t_begin__SWIG_1$catch$5 0000000180018210 f   frame.obj
 0001:0001721d       __catch$_wrap_xreflist_t_begin__SWIG_1$2 000000018001821d f   frame.obj
 0001:00017243       _wrap_xreflist_t_begin__SWIG_1$catch$4 0000000180018243 f   frame.obj
 0001:00017250       __catch$_wrap_xreflist_t_begin__SWIG_1$4 0000000180018250 f   frame.obj
 0001:0001727c       _wrap_xreflist_t_begin__SWIG_1$catch$3 000000018001827c f   frame.obj
 0001:00017289       __catch$_wrap_xreflist_t_begin__SWIG_1$6 0000000180018289 f   frame.obj
 0001:000172a1       _wrap_xreflist_t_begin__SWIG_1$catch$2 00000001800182a1 f   frame.obj
 0001:000172ae       __catch$_wrap_xreflist_t_begin__SWIG_1$8 00000001800182ae f   frame.obj
 0001:000172c6       _wrap_xreflist_t_begin__SWIG_1$catch$1 00000001800182c6 f   frame.obj
 0001:000172d3       __catch$_wrap_xreflist_t_begin__SWIG_1$10 00000001800182d3 f   frame.obj
 0001:000172ff       _wrap_xreflist_t_begin__SWIG_1$catch$0 00000001800182ff f   frame.obj
 0001:0001730c       __catch$_wrap_xreflist_t_begin__SWIG_1$12 000000018001830c f   frame.obj
 0001:00017340       _wrap_xreflist_t_capacity$catch$5 0000000180018340 f   frame.obj
 0001:0001734d       __catch$_wrap_xreflist_t_capacity$2 000000018001834d f   frame.obj
 0001:00017373       _wrap_xreflist_t_capacity$catch$4 0000000180018373 f   frame.obj
 0001:00017380       __catch$_wrap_xreflist_t_capacity$4 0000000180018380 f   frame.obj
 0001:000173ac       _wrap_xreflist_t_capacity$catch$3 00000001800183ac f   frame.obj
 0001:000173b9       __catch$_wrap_xreflist_t_capacity$6 00000001800183b9 f   frame.obj
 0001:000173d1       _wrap_xreflist_t_capacity$catch$2 00000001800183d1 f   frame.obj
 0001:000173de       __catch$_wrap_xreflist_t_capacity$8 00000001800183de f   frame.obj
 0001:000173f6       _wrap_xreflist_t_capacity$catch$1 00000001800183f6 f   frame.obj
 0001:00017403       __catch$_wrap_xreflist_t_capacity$10 0000000180018403 f   frame.obj
 0001:0001742f       _wrap_xreflist_t_capacity$catch$0 000000018001842f f   frame.obj
 0001:0001743c       __catch$_wrap_xreflist_t_capacity$12 000000018001843c f   frame.obj
 0001:00017470       _wrap_xreflist_t_clear$catch$5 0000000180018470 f   frame.obj
 0001:0001747d       __catch$_wrap_xreflist_t_clear$2 000000018001847d f   frame.obj
 0001:000174a3       _wrap_xreflist_t_clear$catch$4 00000001800184a3 f   frame.obj
 0001:000174b0       __catch$_wrap_xreflist_t_clear$4 00000001800184b0 f   frame.obj
 0001:000174dc       _wrap_xreflist_t_clear$catch$3 00000001800184dc f   frame.obj
 0001:000174e9       __catch$_wrap_xreflist_t_clear$6 00000001800184e9 f   frame.obj
 0001:00017501       _wrap_xreflist_t_clear$catch$2 0000000180018501 f   frame.obj
 0001:0001750e       __catch$_wrap_xreflist_t_clear$8 000000018001850e f   frame.obj
 0001:00017526       _wrap_xreflist_t_clear$catch$1 0000000180018526 f   frame.obj
 0001:00017533       __catch$_wrap_xreflist_t_clear$10 0000000180018533 f   frame.obj
 0001:0001755f       _wrap_xreflist_t_clear$catch$0 000000018001855f f   frame.obj
 0001:0001756c       __catch$_wrap_xreflist_t_clear$12 000000018001856c f   frame.obj
 0001:000175a0       _wrap_xreflist_t_empty$catch$5 00000001800185a0 f   frame.obj
 0001:000175ad       __catch$_wrap_xreflist_t_empty$2 00000001800185ad f   frame.obj
 0001:000175d3       _wrap_xreflist_t_empty$catch$4 00000001800185d3 f   frame.obj
 0001:000175e0       __catch$_wrap_xreflist_t_empty$4 00000001800185e0 f   frame.obj
 0001:0001760c       _wrap_xreflist_t_empty$catch$3 000000018001860c f   frame.obj
 0001:00017619       __catch$_wrap_xreflist_t_empty$6 0000000180018619 f   frame.obj
 0001:00017631       _wrap_xreflist_t_empty$catch$2 0000000180018631 f   frame.obj
 0001:0001763e       __catch$_wrap_xreflist_t_empty$8 000000018001863e f   frame.obj
 0001:00017656       _wrap_xreflist_t_empty$catch$1 0000000180018656 f   frame.obj
 0001:00017663       __catch$_wrap_xreflist_t_empty$10 0000000180018663 f   frame.obj
 0001:0001768f       _wrap_xreflist_t_empty$catch$0 000000018001868f f   frame.obj
 0001:0001769c       __catch$_wrap_xreflist_t_empty$12 000000018001869c f   frame.obj
 0001:000176d0       _wrap_xreflist_t_end__SWIG_0$catch$5 00000001800186d0 f   frame.obj
 0001:000176dd       __catch$_wrap_xreflist_t_end__SWIG_0$2 00000001800186dd f   frame.obj
 0001:00017703       _wrap_xreflist_t_end__SWIG_0$catch$4 0000000180018703 f   frame.obj
 0001:00017710       __catch$_wrap_xreflist_t_end__SWIG_0$4 0000000180018710 f   frame.obj
 0001:0001773c       _wrap_xreflist_t_end__SWIG_0$catch$3 000000018001873c f   frame.obj
 0001:00017749       __catch$_wrap_xreflist_t_end__SWIG_0$6 0000000180018749 f   frame.obj
 0001:00017761       _wrap_xreflist_t_end__SWIG_0$catch$2 0000000180018761 f   frame.obj
 0001:0001776e       __catch$_wrap_xreflist_t_end__SWIG_0$8 000000018001876e f   frame.obj
 0001:00017786       _wrap_xreflist_t_end__SWIG_0$catch$1 0000000180018786 f   frame.obj
 0001:00017793       __catch$_wrap_xreflist_t_end__SWIG_0$10 0000000180018793 f   frame.obj
 0001:000177bf       _wrap_xreflist_t_end__SWIG_0$catch$0 00000001800187bf f   frame.obj
 0001:000177cc       __catch$_wrap_xreflist_t_end__SWIG_0$12 00000001800187cc f   frame.obj
 0001:00017800       _wrap_xreflist_t_end__SWIG_1$catch$5 0000000180018800 f   frame.obj
 0001:0001780d       __catch$_wrap_xreflist_t_end__SWIG_1$2 000000018001880d f   frame.obj
 0001:00017833       _wrap_xreflist_t_end__SWIG_1$catch$4 0000000180018833 f   frame.obj
 0001:00017840       __catch$_wrap_xreflist_t_end__SWIG_1$4 0000000180018840 f   frame.obj
 0001:0001786c       _wrap_xreflist_t_end__SWIG_1$catch$3 000000018001886c f   frame.obj
 0001:00017879       __catch$_wrap_xreflist_t_end__SWIG_1$6 0000000180018879 f   frame.obj
 0001:00017891       _wrap_xreflist_t_end__SWIG_1$catch$2 0000000180018891 f   frame.obj
 0001:0001789e       __catch$_wrap_xreflist_t_end__SWIG_1$8 000000018001889e f   frame.obj
 0001:000178b6       _wrap_xreflist_t_end__SWIG_1$catch$1 00000001800188b6 f   frame.obj
 0001:000178c3       __catch$_wrap_xreflist_t_end__SWIG_1$10 00000001800188c3 f   frame.obj
 0001:000178ef       _wrap_xreflist_t_end__SWIG_1$catch$0 00000001800188ef f   frame.obj
 0001:000178fc       __catch$_wrap_xreflist_t_end__SWIG_1$12 00000001800188fc f   frame.obj
 0001:00017930       _wrap_xreflist_t_erase__SWIG_0$catch$5 0000000180018930 f   frame.obj
 0001:0001793d       __catch$_wrap_xreflist_t_erase__SWIG_0$3 000000018001893d f   frame.obj
 0001:00017963       _wrap_xreflist_t_erase__SWIG_0$catch$4 0000000180018963 f   frame.obj
 0001:00017970       __catch$_wrap_xreflist_t_erase__SWIG_0$5 0000000180018970 f   frame.obj
 0001:0001799c       _wrap_xreflist_t_erase__SWIG_0$catch$3 000000018001899c f   frame.obj
 0001:000179a9       __catch$_wrap_xreflist_t_erase__SWIG_0$7 00000001800189a9 f   frame.obj
 0001:000179c1       _wrap_xreflist_t_erase__SWIG_0$catch$2 00000001800189c1 f   frame.obj
 0001:000179ce       __catch$_wrap_xreflist_t_erase__SWIG_0$9 00000001800189ce f   frame.obj
 0001:000179e6       _wrap_xreflist_t_erase__SWIG_0$catch$1 00000001800189e6 f   frame.obj
 0001:000179f3       __catch$_wrap_xreflist_t_erase__SWIG_0$11 00000001800189f3 f   frame.obj
 0001:00017a1f       _wrap_xreflist_t_erase__SWIG_0$catch$0 0000000180018a1f f   frame.obj
 0001:00017a2c       __catch$_wrap_xreflist_t_erase__SWIG_0$13 0000000180018a2c f   frame.obj
 0001:00017a60       _wrap_xreflist_t_erase__SWIG_1$catch$5 0000000180018a60 f   frame.obj
 0001:00017a6d       __catch$_wrap_xreflist_t_erase__SWIG_1$4 0000000180018a6d f   frame.obj
 0001:00017a93       _wrap_xreflist_t_erase__SWIG_1$catch$4 0000000180018a93 f   frame.obj
 0001:00017aa0       __catch$_wrap_xreflist_t_erase__SWIG_1$6 0000000180018aa0 f   frame.obj
 0001:00017acc       _wrap_xreflist_t_erase__SWIG_1$catch$3 0000000180018acc f   frame.obj
 0001:00017ad9       __catch$_wrap_xreflist_t_erase__SWIG_1$8 0000000180018ad9 f   frame.obj
 0001:00017af1       _wrap_xreflist_t_erase__SWIG_1$catch$2 0000000180018af1 f   frame.obj
 0001:00017afe       __catch$_wrap_xreflist_t_erase__SWIG_1$10 0000000180018afe f   frame.obj
 0001:00017b16       _wrap_xreflist_t_erase__SWIG_1$catch$1 0000000180018b16 f   frame.obj
 0001:00017b23       __catch$_wrap_xreflist_t_erase__SWIG_1$12 0000000180018b23 f   frame.obj
 0001:00017b4f       _wrap_xreflist_t_erase__SWIG_1$catch$0 0000000180018b4f f   frame.obj
 0001:00017b5c       __catch$_wrap_xreflist_t_erase__SWIG_1$14 0000000180018b5c f   frame.obj
 0001:00017b90       _wrap_xreflist_t_extract$catch$5 0000000180018b90 f   frame.obj
 0001:00017b9d       __catch$_wrap_xreflist_t_extract$2 0000000180018b9d f   frame.obj
 0001:00017bc3       _wrap_xreflist_t_extract$catch$4 0000000180018bc3 f   frame.obj
 0001:00017bd0       __catch$_wrap_xreflist_t_extract$4 0000000180018bd0 f   frame.obj
 0001:00017bfc       _wrap_xreflist_t_extract$catch$3 0000000180018bfc f   frame.obj
 0001:00017c09       __catch$_wrap_xreflist_t_extract$6 0000000180018c09 f   frame.obj
 0001:00017c21       _wrap_xreflist_t_extract$catch$2 0000000180018c21 f   frame.obj
 0001:00017c2e       __catch$_wrap_xreflist_t_extract$8 0000000180018c2e f   frame.obj
 0001:00017c46       _wrap_xreflist_t_extract$catch$1 0000000180018c46 f   frame.obj
 0001:00017c53       __catch$_wrap_xreflist_t_extract$10 0000000180018c53 f   frame.obj
 0001:00017c7f       _wrap_xreflist_t_extract$catch$0 0000000180018c7f f   frame.obj
 0001:00017c8c       __catch$_wrap_xreflist_t_extract$12 0000000180018c8c f   frame.obj
 0001:00017cc0       _wrap_xreflist_t_find__SWIG_0$catch$5 0000000180018cc0 f   frame.obj
 0001:00017ccd       __catch$_wrap_xreflist_t_find__SWIG_0$4 0000000180018ccd f   frame.obj
 0001:00017cf3       _wrap_xreflist_t_find__SWIG_0$catch$4 0000000180018cf3 f   frame.obj
 0001:00017d00       __catch$_wrap_xreflist_t_find__SWIG_0$6 0000000180018d00 f   frame.obj
 0001:00017d2c       _wrap_xreflist_t_find__SWIG_0$catch$3 0000000180018d2c f   frame.obj
 0001:00017d39       __catch$_wrap_xreflist_t_find__SWIG_0$8 0000000180018d39 f   frame.obj
 0001:00017d51       _wrap_xreflist_t_find__SWIG_0$catch$2 0000000180018d51 f   frame.obj
 0001:00017d5e       __catch$_wrap_xreflist_t_find__SWIG_0$10 0000000180018d5e f   frame.obj
 0001:00017d76       _wrap_xreflist_t_find__SWIG_0$catch$1 0000000180018d76 f   frame.obj
 0001:00017d83       __catch$_wrap_xreflist_t_find__SWIG_0$12 0000000180018d83 f   frame.obj
 0001:00017daf       _wrap_xreflist_t_find__SWIG_0$catch$0 0000000180018daf f   frame.obj
 0001:00017dbc       __catch$_wrap_xreflist_t_find__SWIG_0$14 0000000180018dbc f   frame.obj
 0001:00017df0       _wrap_xreflist_t_find__SWIG_1$catch$5 0000000180018df0 f   frame.obj
 0001:00017dfd       __catch$_wrap_xreflist_t_find__SWIG_1$4 0000000180018dfd f   frame.obj
 0001:00017e23       _wrap_xreflist_t_find__SWIG_1$catch$4 0000000180018e23 f   frame.obj
 0001:00017e30       __catch$_wrap_xreflist_t_find__SWIG_1$6 0000000180018e30 f   frame.obj
 0001:00017e5c       _wrap_xreflist_t_find__SWIG_1$catch$3 0000000180018e5c f   frame.obj
 0001:00017e69       __catch$_wrap_xreflist_t_find__SWIG_1$8 0000000180018e69 f   frame.obj
 0001:00017e81       _wrap_xreflist_t_find__SWIG_1$catch$2 0000000180018e81 f   frame.obj
 0001:00017e8e       __catch$_wrap_xreflist_t_find__SWIG_1$10 0000000180018e8e f   frame.obj
 0001:00017ea6       _wrap_xreflist_t_find__SWIG_1$catch$1 0000000180018ea6 f   frame.obj
 0001:00017eb3       __catch$_wrap_xreflist_t_find__SWIG_1$12 0000000180018eb3 f   frame.obj
 0001:00017edf       _wrap_xreflist_t_find__SWIG_1$catch$0 0000000180018edf f   frame.obj
 0001:00017eec       __catch$_wrap_xreflist_t_find__SWIG_1$14 0000000180018eec f   frame.obj
 0001:00017f20       _wrap_xreflist_t_grow$catch$5 0000000180018f20 f   frame.obj
 0001:00017f2d       __catch$_wrap_xreflist_t_grow$4 0000000180018f2d f   frame.obj
 0001:00017f53       _wrap_xreflist_t_grow$catch$4 0000000180018f53 f   frame.obj
 0001:00017f60       __catch$_wrap_xreflist_t_grow$6 0000000180018f60 f   frame.obj
 0001:00017f8c       _wrap_xreflist_t_grow$catch$3 0000000180018f8c f   frame.obj
 0001:00017f99       __catch$_wrap_xreflist_t_grow$8 0000000180018f99 f   frame.obj
 0001:00017fb1       _wrap_xreflist_t_grow$catch$2 0000000180018fb1 f   frame.obj
 0001:00017fbe       __catch$_wrap_xreflist_t_grow$10 0000000180018fbe f   frame.obj
 0001:00017fd6       _wrap_xreflist_t_grow$catch$1 0000000180018fd6 f   frame.obj
 0001:00017fe3       __catch$_wrap_xreflist_t_grow$12 0000000180018fe3 f   frame.obj
 0001:0001800f       _wrap_xreflist_t_grow$catch$0 000000018001900f f   frame.obj
 0001:0001801c       __catch$_wrap_xreflist_t_grow$14 000000018001901c f   frame.obj
 0001:00018050       _wrap_xreflist_t_has$catch$5 0000000180019050 f   frame.obj
 0001:0001805d       __catch$_wrap_xreflist_t_has$4 000000018001905d f   frame.obj
 0001:00018083       _wrap_xreflist_t_has$catch$4 0000000180019083 f   frame.obj
 0001:00018090       __catch$_wrap_xreflist_t_has$6 0000000180019090 f   frame.obj
 0001:000180bc       _wrap_xreflist_t_has$catch$3 00000001800190bc f   frame.obj
 0001:000180c9       __catch$_wrap_xreflist_t_has$8 00000001800190c9 f   frame.obj
 0001:000180e1       _wrap_xreflist_t_has$catch$2 00000001800190e1 f   frame.obj
 0001:000180ee       __catch$_wrap_xreflist_t_has$10 00000001800190ee f   frame.obj
 0001:00018106       _wrap_xreflist_t_has$catch$1 0000000180019106 f   frame.obj
 0001:00018113       __catch$_wrap_xreflist_t_has$12 0000000180019113 f   frame.obj
 0001:0001813f       _wrap_xreflist_t_has$catch$0 000000018001913f f   frame.obj
 0001:0001814c       __catch$_wrap_xreflist_t_has$14 000000018001914c f   frame.obj
 0001:00018180       _wrap_xreflist_t_inject$catch$5 0000000180019180 f   frame.obj
 0001:0001818d       __catch$_wrap_xreflist_t_inject$4 000000018001918d f   frame.obj
 0001:000181b3       _wrap_xreflist_t_inject$catch$4 00000001800191b3 f   frame.obj
 0001:000181c0       __catch$_wrap_xreflist_t_inject$6 00000001800191c0 f   frame.obj
 0001:000181ec       _wrap_xreflist_t_inject$catch$3 00000001800191ec f   frame.obj
 0001:000181f9       __catch$_wrap_xreflist_t_inject$8 00000001800191f9 f   frame.obj
 0001:00018211       _wrap_xreflist_t_inject$catch$2 0000000180019211 f   frame.obj
 0001:0001821e       __catch$_wrap_xreflist_t_inject$10 000000018001921e f   frame.obj
 0001:00018236       _wrap_xreflist_t_inject$catch$1 0000000180019236 f   frame.obj
 0001:00018243       __catch$_wrap_xreflist_t_inject$12 0000000180019243 f   frame.obj
 0001:0001826f       _wrap_xreflist_t_inject$catch$0 000000018001926f f   frame.obj
 0001:0001827c       __catch$_wrap_xreflist_t_inject$14 000000018001927c f   frame.obj
 0001:000182b0       _wrap_xreflist_t_insert$catch$5 00000001800192b0 f   frame.obj
 0001:000182bd       __catch$_wrap_xreflist_t_insert$5 00000001800192bd f   frame.obj
 0001:000182e3       _wrap_xreflist_t_insert$catch$4 00000001800192e3 f   frame.obj
 0001:000182f0       __catch$_wrap_xreflist_t_insert$7 00000001800192f0 f   frame.obj
 0001:0001831c       _wrap_xreflist_t_insert$catch$3 000000018001931c f   frame.obj
 0001:00018329       __catch$_wrap_xreflist_t_insert$9 0000000180019329 f   frame.obj
 0001:00018341       _wrap_xreflist_t_insert$catch$2 0000000180019341 f   frame.obj
 0001:0001834e       __catch$_wrap_xreflist_t_insert$11 000000018001934e f   frame.obj
 0001:00018366       _wrap_xreflist_t_insert$catch$1 0000000180019366 f   frame.obj
 0001:00018373       __catch$_wrap_xreflist_t_insert$13 0000000180019373 f   frame.obj
 0001:0001839f       _wrap_xreflist_t_insert$catch$0 000000018001939f f   frame.obj
 0001:000183ac       __catch$_wrap_xreflist_t_insert$15 00000001800193ac f   frame.obj
 0001:000183e0       _wrap_xreflist_t_pop_back$catch$5 00000001800193e0 f   frame.obj
 0001:000183ed       __catch$_wrap_xreflist_t_pop_back$2 00000001800193ed f   frame.obj
 0001:00018413       _wrap_xreflist_t_pop_back$catch$4 0000000180019413 f   frame.obj
 0001:00018420       __catch$_wrap_xreflist_t_pop_back$4 0000000180019420 f   frame.obj
 0001:0001844c       _wrap_xreflist_t_pop_back$catch$3 000000018001944c f   frame.obj
 0001:00018459       __catch$_wrap_xreflist_t_pop_back$6 0000000180019459 f   frame.obj
 0001:00018471       _wrap_xreflist_t_pop_back$catch$2 0000000180019471 f   frame.obj
 0001:0001847e       __catch$_wrap_xreflist_t_pop_back$8 000000018001947e f   frame.obj
 0001:00018496       _wrap_xreflist_t_pop_back$catch$1 0000000180019496 f   frame.obj
 0001:000184a3       __catch$_wrap_xreflist_t_pop_back$10 00000001800194a3 f   frame.obj
 0001:000184cf       _wrap_xreflist_t_pop_back$catch$0 00000001800194cf f   frame.obj
 0001:000184dc       __catch$_wrap_xreflist_t_pop_back$12 00000001800194dc f   frame.obj
 0001:00018510       _wrap_xreflist_t_push_back__SWIG_0$catch$5 0000000180019510 f   frame.obj
 0001:0001851d       __catch$_wrap_xreflist_t_push_back__SWIG_0$4 000000018001951d f   frame.obj
 0001:00018543       _wrap_xreflist_t_push_back__SWIG_0$catch$4 0000000180019543 f   frame.obj
 0001:00018550       __catch$_wrap_xreflist_t_push_back__SWIG_0$6 0000000180019550 f   frame.obj
 0001:0001857c       _wrap_xreflist_t_push_back__SWIG_0$catch$3 000000018001957c f   frame.obj
 0001:00018589       __catch$_wrap_xreflist_t_push_back__SWIG_0$8 0000000180019589 f   frame.obj
 0001:000185a1       _wrap_xreflist_t_push_back__SWIG_0$catch$2 00000001800195a1 f   frame.obj
 0001:000185ae       __catch$_wrap_xreflist_t_push_back__SWIG_0$10 00000001800195ae f   frame.obj
 0001:000185c6       _wrap_xreflist_t_push_back__SWIG_0$catch$1 00000001800195c6 f   frame.obj
 0001:000185d3       __catch$_wrap_xreflist_t_push_back__SWIG_0$12 00000001800195d3 f   frame.obj
 0001:000185ff       _wrap_xreflist_t_push_back__SWIG_0$catch$0 00000001800195ff f   frame.obj
 0001:0001860c       __catch$_wrap_xreflist_t_push_back__SWIG_0$14 000000018001960c f   frame.obj
 0001:00018640       _wrap_xreflist_t_push_back__SWIG_1$catch$5 0000000180019640 f   frame.obj
 0001:0001864d       __catch$_wrap_xreflist_t_push_back__SWIG_1$2 000000018001964d f   frame.obj
 0001:00018673       _wrap_xreflist_t_push_back__SWIG_1$catch$4 0000000180019673 f   frame.obj
 0001:00018680       __catch$_wrap_xreflist_t_push_back__SWIG_1$4 0000000180019680 f   frame.obj
 0001:000186ac       _wrap_xreflist_t_push_back__SWIG_1$catch$3 00000001800196ac f   frame.obj
 0001:000186b9       __catch$_wrap_xreflist_t_push_back__SWIG_1$6 00000001800196b9 f   frame.obj
 0001:000186d1       _wrap_xreflist_t_push_back__SWIG_1$catch$2 00000001800196d1 f   frame.obj
 0001:000186de       __catch$_wrap_xreflist_t_push_back__SWIG_1$8 00000001800196de f   frame.obj
 0001:000186f6       _wrap_xreflist_t_push_back__SWIG_1$catch$1 00000001800196f6 f   frame.obj
 0001:00018703       __catch$_wrap_xreflist_t_push_back__SWIG_1$10 0000000180019703 f   frame.obj
 0001:0001872f       _wrap_xreflist_t_push_back__SWIG_1$catch$0 000000018001972f f   frame.obj
 0001:0001873c       __catch$_wrap_xreflist_t_push_back__SWIG_1$12 000000018001973c f   frame.obj
 0001:00018770       _wrap_xreflist_t_qclear$catch$5 0000000180019770 f   frame.obj
 0001:0001877d       __catch$_wrap_xreflist_t_qclear$2 000000018001977d f   frame.obj
 0001:000187a3       _wrap_xreflist_t_qclear$catch$4 00000001800197a3 f   frame.obj
 0001:000187b0       __catch$_wrap_xreflist_t_qclear$4 00000001800197b0 f   frame.obj
 0001:000187dc       _wrap_xreflist_t_qclear$catch$3 00000001800197dc f   frame.obj
 0001:000187e9       __catch$_wrap_xreflist_t_qclear$6 00000001800197e9 f   frame.obj
 0001:00018801       _wrap_xreflist_t_qclear$catch$2 0000000180019801 f   frame.obj
 0001:0001880e       __catch$_wrap_xreflist_t_qclear$8 000000018001980e f   frame.obj
 0001:00018826       _wrap_xreflist_t_qclear$catch$1 0000000180019826 f   frame.obj
 0001:00018833       __catch$_wrap_xreflist_t_qclear$10 0000000180019833 f   frame.obj
 0001:0001885f       _wrap_xreflist_t_qclear$catch$0 000000018001985f f   frame.obj
 0001:0001886c       __catch$_wrap_xreflist_t_qclear$12 000000018001986c f   frame.obj
 0001:000188a0       _wrap_xreflist_t_reserve$catch$5 00000001800198a0 f   frame.obj
 0001:000188ad       __catch$_wrap_xreflist_t_reserve$3 00000001800198ad f   frame.obj
 0001:000188d3       _wrap_xreflist_t_reserve$catch$4 00000001800198d3 f   frame.obj
 0001:000188e0       __catch$_wrap_xreflist_t_reserve$5 00000001800198e0 f   frame.obj
 0001:0001890c       _wrap_xreflist_t_reserve$catch$3 000000018001990c f   frame.obj
 0001:00018919       __catch$_wrap_xreflist_t_reserve$7 0000000180019919 f   frame.obj
 0001:00018931       _wrap_xreflist_t_reserve$catch$2 0000000180019931 f   frame.obj
 0001:0001893e       __catch$_wrap_xreflist_t_reserve$9 000000018001993e f   frame.obj
 0001:00018956       _wrap_xreflist_t_reserve$catch$1 0000000180019956 f   frame.obj
 0001:00018963       __catch$_wrap_xreflist_t_reserve$11 0000000180019963 f   frame.obj
 0001:0001898f       _wrap_xreflist_t_reserve$catch$0 000000018001998f f   frame.obj
 0001:0001899c       __catch$_wrap_xreflist_t_reserve$13 000000018001999c f   frame.obj
 0001:000189d0       _wrap_xreflist_t_resize__SWIG_0$catch$5 00000001800199d0 f   frame.obj
 0001:000189dd       __catch$_wrap_xreflist_t_resize__SWIG_0$5 00000001800199dd f   frame.obj
 0001:00018a03       _wrap_xreflist_t_resize__SWIG_0$catch$4 0000000180019a03 f   frame.obj
 0001:00018a10       __catch$_wrap_xreflist_t_resize__SWIG_0$7 0000000180019a10 f   frame.obj
 0001:00018a3c       _wrap_xreflist_t_resize__SWIG_0$catch$3 0000000180019a3c f   frame.obj
 0001:00018a49       __catch$_wrap_xreflist_t_resize__SWIG_0$9 0000000180019a49 f   frame.obj
 0001:00018a61       _wrap_xreflist_t_resize__SWIG_0$catch$2 0000000180019a61 f   frame.obj
 0001:00018a6e       __catch$_wrap_xreflist_t_resize__SWIG_0$11 0000000180019a6e f   frame.obj
 0001:00018a86       _wrap_xreflist_t_resize__SWIG_0$catch$1 0000000180019a86 f   frame.obj
 0001:00018a93       __catch$_wrap_xreflist_t_resize__SWIG_0$13 0000000180019a93 f   frame.obj
 0001:00018abf       _wrap_xreflist_t_resize__SWIG_0$catch$0 0000000180019abf f   frame.obj
 0001:00018acc       __catch$_wrap_xreflist_t_resize__SWIG_0$15 0000000180019acc f   frame.obj
 0001:00018b00       _wrap_xreflist_t_resize__SWIG_1$catch$5 0000000180019b00 f   frame.obj
 0001:00018b0d       __catch$_wrap_xreflist_t_resize__SWIG_1$3 0000000180019b0d f   frame.obj
 0001:00018b33       _wrap_xreflist_t_resize__SWIG_1$catch$4 0000000180019b33 f   frame.obj
 0001:00018b40       __catch$_wrap_xreflist_t_resize__SWIG_1$5 0000000180019b40 f   frame.obj
 0001:00018b6c       _wrap_xreflist_t_resize__SWIG_1$catch$3 0000000180019b6c f   frame.obj
 0001:00018b79       __catch$_wrap_xreflist_t_resize__SWIG_1$7 0000000180019b79 f   frame.obj
 0001:00018b91       _wrap_xreflist_t_resize__SWIG_1$catch$2 0000000180019b91 f   frame.obj
 0001:00018b9e       __catch$_wrap_xreflist_t_resize__SWIG_1$9 0000000180019b9e f   frame.obj
 0001:00018bb6       _wrap_xreflist_t_resize__SWIG_1$catch$1 0000000180019bb6 f   frame.obj
 0001:00018bc3       __catch$_wrap_xreflist_t_resize__SWIG_1$11 0000000180019bc3 f   frame.obj
 0001:00018bef       _wrap_xreflist_t_resize__SWIG_1$catch$0 0000000180019bef f   frame.obj
 0001:00018bfc       __catch$_wrap_xreflist_t_resize__SWIG_1$13 0000000180019bfc f   frame.obj
 0001:00018c30       _wrap_xreflist_t_size$catch$5 0000000180019c30 f   frame.obj
 0001:00018c3d       __catch$_wrap_xreflist_t_size$2 0000000180019c3d f   frame.obj
 0001:00018c63       _wrap_xreflist_t_size$catch$4 0000000180019c63 f   frame.obj
 0001:00018c70       __catch$_wrap_xreflist_t_size$4 0000000180019c70 f   frame.obj
 0001:00018c9c       _wrap_xreflist_t_size$catch$3 0000000180019c9c f   frame.obj
 0001:00018ca9       __catch$_wrap_xreflist_t_size$6 0000000180019ca9 f   frame.obj
 0001:00018cc1       _wrap_xreflist_t_size$catch$2 0000000180019cc1 f   frame.obj
 0001:00018cce       __catch$_wrap_xreflist_t_size$8 0000000180019cce f   frame.obj
 0001:00018ce6       _wrap_xreflist_t_size$catch$1 0000000180019ce6 f   frame.obj
 0001:00018cf3       __catch$_wrap_xreflist_t_size$10 0000000180019cf3 f   frame.obj
 0001:00018d1f       _wrap_xreflist_t_size$catch$0 0000000180019d1f f   frame.obj
 0001:00018d2c       __catch$_wrap_xreflist_t_size$12 0000000180019d2c f   frame.obj
 0001:00018d60       _wrap_xreflist_t_swap$catch$5 0000000180019d60 f   frame.obj
 0001:00018d6d       __catch$_wrap_xreflist_t_swap$4 0000000180019d6d f   frame.obj
 0001:00018d93       _wrap_xreflist_t_swap$catch$4 0000000180019d93 f   frame.obj
 0001:00018da0       __catch$_wrap_xreflist_t_swap$6 0000000180019da0 f   frame.obj
 0001:00018dcc       _wrap_xreflist_t_swap$catch$3 0000000180019dcc f   frame.obj
 0001:00018dd9       __catch$_wrap_xreflist_t_swap$8 0000000180019dd9 f   frame.obj
 0001:00018df1       _wrap_xreflist_t_swap$catch$2 0000000180019df1 f   frame.obj
 0001:00018dfe       __catch$_wrap_xreflist_t_swap$10 0000000180019dfe f   frame.obj
 0001:00018e16       _wrap_xreflist_t_swap$catch$1 0000000180019e16 f   frame.obj
 0001:00018e23       __catch$_wrap_xreflist_t_swap$12 0000000180019e23 f   frame.obj
 0001:00018e4f       _wrap_xreflist_t_swap$catch$0 0000000180019e4f f   frame.obj
 0001:00018e5c       __catch$_wrap_xreflist_t_swap$14 0000000180019e5c f   frame.obj
 0001:00018e90       _wrap_xreflist_t_truncate$catch$5 0000000180019e90 f   frame.obj
 0001:00018e9d       __catch$_wrap_xreflist_t_truncate$2 0000000180019e9d f   frame.obj
 0001:00018ec3       _wrap_xreflist_t_truncate$catch$4 0000000180019ec3 f   frame.obj
 0001:00018ed0       __catch$_wrap_xreflist_t_truncate$4 0000000180019ed0 f   frame.obj
 0001:00018efc       _wrap_xreflist_t_truncate$catch$3 0000000180019efc f   frame.obj
 0001:00018f09       __catch$_wrap_xreflist_t_truncate$6 0000000180019f09 f   frame.obj
 0001:00018f21       _wrap_xreflist_t_truncate$catch$2 0000000180019f21 f   frame.obj
 0001:00018f2e       __catch$_wrap_xreflist_t_truncate$8 0000000180019f2e f   frame.obj
 0001:00018f46       _wrap_xreflist_t_truncate$catch$1 0000000180019f46 f   frame.obj
 0001:00018f53       __catch$_wrap_xreflist_t_truncate$10 0000000180019f53 f   frame.obj
 0001:00018f7f       _wrap_xreflist_t_truncate$catch$0 0000000180019f7f f   frame.obj
 0001:00018f8c       __catch$_wrap_xreflist_t_truncate$12 0000000180019f8c f   frame.obj
 0001:00018fb2       ?fin$0@?0??dllmain_crt_process_attach@@YAHQEAUHINSTANCE__@@QEAX@Z@4HA 0000000180019fb2 f   MSVCRT:dll_dllmain.obj
 0001:00018fc9       ?fin$0@?0??dllmain_crt_process_detach@@YAH_N@Z@4HA 0000000180019fc9 f   MSVCRT:dll_dllmain.obj
 0001:00018fe5       ?filt$0@?0??dllmain_dispatch@@YAHQEAUHINSTANCE__@@KQEAX@Z@4HA 0000000180019fe5 f   MSVCRT:dll_dllmain.obj
 0001:0001901b       __scrt_is_nonwritable_in_current_image$filt$0 000000018001a01b f   MSVCRT:utility.obj
 0002:000005c8       ?__scrt_initialize_tss_var@@3P6AHXZEA 000000018001b5c8     MSVCRT:thread_safe_statics.obj
 0002:00003b10       $cppxdata$_wrap_new_xreflist_t__SWIG_0 000000018001eb10     frame.obj
 0002:00003b38       $cppxdata$_wrap_new_xreflist_t__SWIG_1 000000018001eb38     frame.obj
 0002:00003b60       $cppxdata$_wrap_delete_xreflist_t 000000018001eb60     frame.obj
 0002:00003b88       $cppxdata$_wrap_xreflist_t_push_back__SWIG_0 000000018001eb88     frame.obj
 0002:00003bb0       $cppxdata$_wrap_xreflist_t_push_back__SWIG_1 000000018001ebb0     frame.obj
 0002:00003bd8       $cppxdata$_wrap_xreflist_t_pop_back 000000018001ebd8     frame.obj
 0002:00003c00       $cppxdata$_wrap_xreflist_t_size 000000018001ec00     frame.obj
 0002:00003c28       $cppxdata$_wrap_xreflist_t_empty 000000018001ec28     frame.obj
 0002:00003c50       $cppxdata$_wrap_xreflist_t_at 000000018001ec50     frame.obj
 0002:00003c78       $cppxdata$_wrap_xreflist_t_qclear 000000018001ec78     frame.obj
 0002:00003ca0       $cppxdata$_wrap_xreflist_t_clear 000000018001eca0     frame.obj
 0002:00003cc8       $cppxdata$_wrap_xreflist_t_resize__SWIG_0 000000018001ecc8     frame.obj
 0002:00003cf0       $cppxdata$_wrap_xreflist_t_resize__SWIG_1 000000018001ecf0     frame.obj
 0002:00003d18       $cppxdata$_wrap_xreflist_t_grow 000000018001ed18     frame.obj
 0002:00003d40       $cppxdata$_wrap_xreflist_t_capacity 000000018001ed40     frame.obj
 0002:00003d68       $cppxdata$_wrap_xreflist_t_reserve 000000018001ed68     frame.obj
 0002:00003d90       $cppxdata$_wrap_xreflist_t_truncate 000000018001ed90     frame.obj
 0002:00003db8       $cppxdata$_wrap_xreflist_t_swap 000000018001edb8     frame.obj
 0002:00003de0       $cppxdata$_wrap_xreflist_t_extract 000000018001ede0     frame.obj
 0002:00003e08       $cppxdata$_wrap_xreflist_t_inject 000000018001ee08     frame.obj
 0002:00003e30       $cppxdata$_wrap_xreflist_t___eq__ 000000018001ee30     frame.obj
 0002:00003e58       $cppxdata$_wrap_xreflist_t___ne__ 000000018001ee58     frame.obj
 0002:00003e80       $cppxdata$_wrap_xreflist_t_begin__SWIG_0 000000018001ee80     frame.obj
 0002:00003ea8       $cppxdata$_wrap_xreflist_t_end__SWIG_0 000000018001eea8     frame.obj
 0002:00003ed0       $cppxdata$_wrap_xreflist_t_begin__SWIG_1 000000018001eed0     frame.obj
 0002:00003ef8       $cppxdata$_wrap_xreflist_t_end__SWIG_1 000000018001eef8     frame.obj
 0002:00003f20       $cppxdata$_wrap_xreflist_t_insert 000000018001ef20     frame.obj
 0002:00003f48       $cppxdata$_wrap_xreflist_t_erase__SWIG_0 000000018001ef48     frame.obj
 0002:00003f70       $cppxdata$_wrap_xreflist_t_erase__SWIG_1 000000018001ef70     frame.obj
 0002:00003f98       $cppxdata$_wrap_xreflist_t_find__SWIG_0 000000018001ef98     frame.obj
 0002:00003fc0       $cppxdata$_wrap_xreflist_t_find__SWIG_1 000000018001efc0     frame.obj
 0002:00003fe8       $cppxdata$_wrap_xreflist_t_has 000000018001efe8     frame.obj
 0002:00004010       $cppxdata$_wrap_xreflist_t_add_unique 000000018001f010     frame.obj
 0002:00004038       $cppxdata$_wrap_xreflist_t__del 000000018001f038     frame.obj
 0002:00004060       $cppxdata$_wrap_xreflist_t___len__ 000000018001f060     frame.obj
 0002:00004088       $cppxdata$_wrap_xreflist_t___getitem__ 000000018001f088     frame.obj
 0002:000040b0       $cppxdata$_wrap_xreflist_t___setitem__ 000000018001f0b0     frame.obj
 0002:000040d8       $cppxdata$_wrap_get_stkvar 000000018001f0d8     frame.obj
 0002:00004100       $cppxdata$_wrap_stkpnt_t___lt__ 000000018001f100     frame.obj
 0002:00004128       $cppxdata$_wrap_new_stkpnt_t 000000018001f128     frame.obj
 0002:00004150       $cppxdata$_wrap_delete_stkpnt_t 000000018001f150     frame.obj
 0002:00004178       $cppxdata$_wrap_new_stkpnts_t 000000018001f178     frame.obj
 0002:000041a0       $cppxdata$_wrap_delete_stkpnts_t 000000018001f1a0     frame.obj
 0002:000041c8       $cppxdata$_wrap_add_frame  000000018001f1c8     frame.obj
 0002:000041f0       $cppxdata$_wrap_del_frame  000000018001f1f0     frame.obj
 0002:00004218       $cppxdata$_wrap_set_frame_size 000000018001f218     frame.obj
 0002:00004240       $cppxdata$_wrap_get_frame_size 000000018001f240     frame.obj
 0002:00004268       $cppxdata$_wrap_get_frame_retsize 000000018001f268     frame.obj
 0002:00004290       $cppxdata$_wrap_get_frame_part 000000018001f290     frame.obj
 0002:000042b8       $cppxdata$_wrap_frame_off_args 000000018001f2b8     frame.obj
 0002:000042e0       $cppxdata$_wrap_frame_off_retaddr 000000018001f2e0     frame.obj
 0002:00004308       $cppxdata$_wrap_frame_off_savregs 000000018001f308     frame.obj
 0002:00004330       $cppxdata$_wrap_frame_off_lvars 000000018001f330     frame.obj
 0002:00004358       $cppxdata$_wrap_is_funcarg_off 000000018001f358     frame.obj
 0002:00004380       $cppxdata$_wrap_lvar_off   000000018001f380     frame.obj
 0002:000043a8       $cppxdata$_wrap_get_frame__SWIG_0 000000018001f3a8     frame.obj
 0002:000043d0       $cppxdata$_wrap_get_frame__SWIG_1 000000018001f3d0     frame.obj
 0002:000043f8       $cppxdata$_wrap_update_fpd 000000018001f3f8     frame.obj
 0002:00004420       $cppxdata$_wrap_set_purged 000000018001f420     frame.obj
 0002:00004448       $cppxdata$_wrap_get_func_by_frame 000000018001f448     frame.obj
 0002:00004470       $cppxdata$_wrap_define_stkvar 000000018001f470     frame.obj
 0002:00004498       $cppxdata$_wrap_build_stkvar_name 000000018001f498     frame.obj
 0002:000044c0       $cppxdata$_wrap_calc_stkvar_struc_offset 000000018001f4c0     frame.obj
 0002:000044e8       $cppxdata$_wrap_new_regvar_t 000000018001f4e8     frame.obj
 0002:00004510       $cppxdata$_wrap_delete_regvar_t 000000018001f510     frame.obj
 0002:00004538       $cppxdata$_wrap_add_regvar 000000018001f538     frame.obj
 0002:00004560       $cppxdata$_wrap_find_regvar__SWIG_0 000000018001f560     frame.obj
 0002:00004588       $cppxdata$_wrap_find_regvar__SWIG_1 000000018001f588     frame.obj
 0002:000045b0       $cppxdata$_wrap_rename_regvar 000000018001f5b0     frame.obj
 0002:000045d8       $cppxdata$_wrap_set_regvar_cmt 000000018001f5d8     frame.obj
 0002:00004600       $cppxdata$_wrap_del_regvar 000000018001f600     frame.obj
 0002:00004628       $cppxdata$_wrap_new_llabel_t 000000018001f628     frame.obj
 0002:00004650       $cppxdata$_wrap_delete_llabel_t 000000018001f650     frame.obj
 0002:00004678       $cppxdata$_wrap_add_auto_stkpnt 000000018001f678     frame.obj
 0002:000046a0       $cppxdata$_wrap_add_user_stkpnt 000000018001f6a0     frame.obj
 0002:000046c8       $cppxdata$_wrap_del_stkpnt 000000018001f6c8     frame.obj
 0002:000046f0       $cppxdata$_wrap_get_spd    000000018001f6f0     frame.obj
 0002:00004718       $cppxdata$_wrap_get_effective_spd 000000018001f718     frame.obj
 0002:00004740       $cppxdata$_wrap_get_sp_delta 000000018001f740     frame.obj
 0002:00004768       $cppxdata$_wrap_recalc_spd 000000018001f768     frame.obj
 0002:00004790       $cppxdata$_wrap_xreflist_entry_t___eq__ 000000018001f790     frame.obj
 0002:000047b8       $cppxdata$_wrap_xreflist_entry_t___ne__ 000000018001f7b8     frame.obj
 0002:000047e0       $cppxdata$_wrap_new_xreflist_entry_t 000000018001f7e0     frame.obj
 0002:00004808       $cppxdata$_wrap_delete_xreflist_entry_t 000000018001f808     frame.obj
 0002:00004830       $cppxdata$_wrap_build_stkvar_xrefs 000000018001f830     frame.obj
 0002:00004858       $cppxdata$_wrap_get_min_spd_ea 000000018001f858     frame.obj
 0002:00004880       $cppxdata$_wrap_delete_unreferenced_stkvars 000000018001f880     frame.obj
 0002:000048a8       $cppxdata$_wrap_delete_wrong_stkvar_ops 000000018001f8a8     frame.obj
 0002:000048d0       ?hex@?1??SWIG_PackData@@9@4QBDB 000000018001f8d0     frame.obj
 0002:00009180       ?cis@?1??PyInit__ida_frame@@9@4QBUci_t@?1??1@YAPEAU_object@@XZ@B 0000000180024180     frame.obj
 0002:000092c0       $cppxdata$?__scrt_initialize_thread_safe_statics@@YAHXZ 00000001800242c0     MSVCRT:thread_safe_statics.obj
 0002:00009428       GS_ExceptionPointers       0000000180024428     MSVCRT:gs_report.obj
 0002:00009c08       $unwind$printf             0000000180024c08     frame.obj
 0002:00009c14       $unwind$??_Glogic_error@std@@UEAAPEAXI@Z 0000000180024c14     frame.obj
 0002:00009c14       $unwind$_RTC_Initialize    0000000180024c14     MSVCRT:initsect.obj
 0002:00009c14       $unwind$?SWIG_AsVal_unsigned_SS_int@@YAHPEAU_object@@PEAI@Z 0000000180024c14     frame.obj
 0002:00009c14       $unwind$SwigPyObject_append 0000000180024c14     frame.obj
 0002:00009c14       $unwind$_RTC_Terminate     0000000180024c14     MSVCRT:initsect.obj
 0002:00009c14       $unwind$??_Gexception@std@@UEAAPEAXI@Z 0000000180024c14     frame.obj
 0002:00009c14       $unwind$SWIG_TypeClientData 0000000180024c14     frame.obj
 0002:00009c14       $unwind$??_Gbad_alloc@std@@UEAAPEAXI@Z 0000000180024c14     MSVCRT:throw_bad_alloc.obj
 0002:00009c14       $unwind$?push_back@?$qvector@Uxreflist_entry_t@@@@QEAAXAEBUxreflist_entry_t@@@Z 0000000180024c14     frame.obj
 0002:00009c14       $unwind$??_Gbad_array_new_length@std@@UEAAPEAXI@Z 0000000180024c14     MSVCRT:throw_bad_alloc.obj
 0002:00009c14       $unwind$??_Gout_of_range@std@@UEAAPEAXI@Z 0000000180024c14     frame.obj
 0002:00009c20       $unwind$SWIG_MangledTypeQueryModule 0000000180024c20     frame.obj
 0002:00009c30       $unwind$_Init_thread_footer 0000000180024c30     MSVCRT:thread_safe_statics.obj
 0002:00009c30       $unwind$__scrt_uninitialize_crt 0000000180024c30     MSVCRT:utility.obj
 0002:00009c30       $unwind$??2@YAPEAX_K@Z     0000000180024c30     MSVCRT:new_scalar.obj
 0002:00009c30       $unwind$??0out_of_range@std@@QEAA@AEBV01@@Z 0000000180024c30     frame.obj
 0002:00009c30       $unwind$__scrt_initialize_crt 0000000180024c30     MSVCRT:utility.obj
 0002:00009c30       $unwind$_Init_thread_wait  0000000180024c30     MSVCRT:thread_safe_statics.obj
 0002:00009c30       $unwind$??0bad_array_new_length@std@@QEAA@AEBV01@@Z 0000000180024c30     MSVCRT:throw_bad_alloc.obj
 0002:00009c30       $unwind$?SWIG_FromCharPtr@@YAPEAU_object@@PEBD@Z 0000000180024c30     frame.obj
 0002:00009c30       $unwind$??0logic_error@std@@QEAA@AEBV01@@Z 0000000180024c30     frame.obj
 0002:00009c30       $unwind$__scrt_release_startup_lock 0000000180024c30     MSVCRT:utility.obj
 0002:00009c30       $unwind$??0exception@std@@QEAA@AEBV01@@Z 0000000180024c30     frame.obj
 0002:00009c30       $unwind$?SWIG_Python_RaiseOrModifyTypeError@@YAXPEBD@Z 0000000180024c30     frame.obj
 0002:00009c30       $unwind$_onexit            0000000180024c30     MSVCRT:utility.obj
 0002:00009c30       $unwind$SwigPyPacked_dealloc 0000000180024c30     frame.obj
 0002:00009c30       $unwind$SWIG_Python_GetSwigThis 0000000180024c30     frame.obj
 0002:00009c30       $unwind$??0bad_alloc@std@@QEAA@AEBV01@@Z 0000000180024c30     MSVCRT:throw_bad_alloc.obj
 0002:00009c30       $unwind$??_Gtype_info@@UEAAPEAXI@Z 0000000180024c30     MSVCRT:std_type_info_static.obj
 0002:00009c30       $unwind$_Init_thread_header 0000000180024c30     MSVCRT:thread_safe_statics.obj
 0002:00009c30       $unwind$__raise_securityfailure 0000000180024c30     MSVCRT:gs_report.obj
 0002:00009c38       $unwind$?SWIG_Python_UnpackTuple@@YA_JPEAU_object@@PEBD_J2PEAPEAU1@@Z 0000000180024c38     frame.obj
 0002:00009c4c       $chain$0$?SWIG_Python_UnpackTuple@@YA_JPEAU_object@@PEBD_J2PEAPEAU1@@Z 0000000180024c4c     frame.obj
 0002:00009c60       $chain$1$?SWIG_Python_UnpackTuple@@YA_JPEAU_object@@PEBD_J2PEAPEAU1@@Z 0000000180024c60     frame.obj
 0002:00009c70       $unwind$SwigPyClientData_New 0000000180024c70     frame.obj
 0002:00009c80       $chain$2$SwigPyClientData_New 0000000180024c80     frame.obj
 0002:00009c94       $chain$3$SwigPyClientData_New 0000000180024c94     frame.obj
 0002:00009ca4       $unwind$SwigPyObject_repr  0000000180024ca4     frame.obj
 0002:00009cb0       $chain$0$SwigPyObject_repr 0000000180024cb0     frame.obj
 0002:00009cc4       $chain$1$SwigPyObject_repr 0000000180024cc4     frame.obj
 0002:00009cd4       $unwind$SwigPyObject_type  0000000180024cd4     frame.obj
 0002:00009ce8       $unwind$SwigPyPacked_Check 0000000180024ce8     frame.obj
 0002:00009ce8       $unwind$SwigPyObject_Check 0000000180024ce8     frame.obj
 0002:00009cf4       $unwind$SwigPyObject_New   0000000180024cf4     frame.obj
 0002:00009cf4       $unwind$_DllMainCRTStartup 0000000180024cf4     MSVCRT:dll_dllmain.obj
 0002:00009cf4       $unwind$?resize@?$qvector@Uxreflist_entry_t@@@@QEAAX_KAEBUxreflist_entry_t@@@Z 0000000180024cf4     frame.obj
 0002:00009d04       $unwind$SwigPyObject_dealloc 0000000180024d04     frame.obj
 0002:00009d10       $chain$2$SwigPyObject_dealloc 0000000180024d10     frame.obj
 0002:00009d2c       $chain$3$SwigPyObject_dealloc 0000000180024d2c     frame.obj
 0002:00009d3c       $unwind$SwigPyObject_own   0000000180024d3c     frame.obj
 0002:00009d3c       $unwind$??0out_of_range@std@@QEAA@PEBD@Z 0000000180024d3c     frame.obj
 0002:00009d44       $chain$0$SwigPyObject_own  0000000180024d44     frame.obj
 0002:00009d58       $chain$2$SwigPyObject_own  0000000180024d58     frame.obj
 0002:00009d6c       $unwind$SwigPyPacked_str   0000000180024d6c     frame.obj
 0002:00009d6c       $unwind$SwigPyPacked_repr  0000000180024d6c     frame.obj
 0002:00009d7c       $chain$0$SwigPyPacked_repr 0000000180024d7c     frame.obj
 0002:00009d90       $chain$1$SwigPyPacked_repr 0000000180024d90     frame.obj
 0002:00009da0       $chain$0$SwigPyPacked_str  0000000180024da0     frame.obj
 0002:00009db4       $chain$1$SwigPyPacked_str  0000000180024db4     frame.obj
 0002:00009dc4       $unwind$SwigPyPacked_type  0000000180024dc4     frame.obj
 0002:00009dd4       $unwind$SWIG_Python_TypeCache 0000000180024dd4     frame.obj
 0002:00009dd4       $unwind$SWIG_This          0000000180024dd4     frame.obj
 0002:00009dd4       $unwind$__scrt_acquire_startup_lock 0000000180024dd4     MSVCRT:utility.obj
 0002:00009dd4       $unwind$__scrt_dllmain_crt_thread_detach 0000000180024dd4     MSVCRT:utility.obj
 0002:00009dd4       $unwind$atexit             0000000180024dd4     MSVCRT:utility.obj
 0002:00009dd4       $unwind$__scrt_dllmain_crt_thread_attach 0000000180024dd4     MSVCRT:utility.obj
 0002:00009dd4       $unwind$__scrt_dllmain_uninitialize_critical 0000000180024dd4     MSVCRT:utility.obj
 0002:00009dd4       $unwind$?__raise_e@@YAXAEBVexception@std@@@Z 0000000180024dd4     frame.obj
 0002:00009dd4       $unwind$__scrt_dllmain_uninitialize_c 0000000180024dd4     MSVCRT:utility.obj
 0002:00009dd4       $unwind$DllMain            0000000180024dd4     MSVCRT:dll_dllmain_stub.obj
 0002:00009dd4       $unwind$__scrt_dllmain_after_initialize_c 0000000180024dd4     MSVCRT:utility.obj
 0002:00009dd4       $unwind$?dllmain_crt_dispatch@@YAHQEAUHINSTANCE__@@KQEAX@Z 0000000180024dd4     MSVCRT:dll_dllmain.obj
 0002:00009dd4       $unwind$__scrt_dllmain_before_initialize_c 0000000180024dd4     MSVCRT:utility.obj
 0002:00009dd4       $unwind$?__scrt_uninitialize_thread_safe_statics@@YAXXZ 0000000180024dd4     MSVCRT:thread_safe_statics.obj
 0002:00009dd4       $unwind$__GSHandlerCheck   0000000180024dd4     MSVCRT:gshandler.obj
 0002:00009dd4       $unwind$_Init_thread_notify 0000000180024dd4     MSVCRT:thread_safe_statics.obj
 0002:00009dd4       $unwind$SWIG_Python_DestroyModule 0000000180024dd4     frame.obj
 0002:00009dd4       $unwind$__scrt_initialize_default_local_stdio_options 0000000180024dd4     MSVCRT:default_local_stdio_options.obj
 0002:00009ddc       $unwind$SWIG_Python_InitShadowInstance 0000000180024ddc     frame.obj
 0002:00009dec       $unwind$SWIG_Python_NewPointerObj 0000000180024dec     frame.obj
 0002:00009e08       $chain$2$SWIG_Python_DestroyModule 0000000180024e08     frame.obj
 0002:00009e24       $chain$3$SWIG_Python_DestroyModule 0000000180024e24     frame.obj
 0002:00009e38       $chain$4$SWIG_Python_DestroyModule 0000000180024e38     frame.obj
 0002:00009e48       $chain$5$SWIG_Python_DestroyModule 0000000180024e48     frame.obj
 0002:00009e58       $unwind$SWIG_Python_TypeQuery 0000000180024e58     frame.obj
 0002:00009e64       $chain$1$SWIG_Python_TypeQuery 0000000180024e64     frame.obj
 0002:00009e7c       $chain$5$SWIG_Python_TypeQuery 0000000180024e7c     frame.obj
 0002:00009e9c       $chain$6$SWIG_Python_TypeQuery 0000000180024e9c     frame.obj
 0002:00009eac       $chain$7$SWIG_Python_TypeQuery 0000000180024eac     frame.obj
 0002:00009ebc       $unwind$?sprnt@?$_qstring@D@@QEAAAEAV1@PEBDZZ 0000000180024ebc     frame.obj
 0002:00009ecc       $unwind$?__raise_ie@@YAXAEBUinterr_exc_t@@@Z 0000000180024ecc     frame.obj
 0002:00009ecc       $unwind$?__scrt_throw_std_bad_array_new_length@@YAXXZ 0000000180024ecc     MSVCRT:throw_bad_alloc.obj
 0002:00009ecc       $unwind$?__scrt_throw_std_bad_alloc@@YAXXZ 0000000180024ecc     MSVCRT:throw_bad_alloc.obj
 0002:00009ed4       $unwind$_wrap_new_xreflist_t__SWIG_0 0000000180024ed4     frame.obj
 0002:00009ee4       $stateUnwindMap$_wrap_xreflist_t_grow 0000000180024ee4     frame.obj
 0002:00009ee4       $stateUnwindMap$_wrap_xreflist_t_empty 0000000180024ee4     frame.obj
 0002:00009ee4       $stateUnwindMap$_wrap_xreflist_t_capacity 0000000180024ee4     frame.obj
 0002:00009ee4       $stateUnwindMap$_wrap_delete_llabel_t 0000000180024ee4     frame.obj
 0002:00009ee4       $stateUnwindMap$_wrap_get_frame_part 0000000180024ee4     frame.obj
 0002:00009ee4       $stateUnwindMap$_wrap_xreflist_t___getitem__ 0000000180024ee4     frame.obj
 0002:00009ee4       $stateUnwindMap$_wrap_xreflist_t_qclear 0000000180024ee4     frame.obj
 0002:00009ee4       $stateUnwindMap$_wrap_xreflist_t_find__SWIG_0 0000000180024ee4     frame.obj
 0002:00009ee4       $stateUnwindMap$_wrap_get_sp_delta 0000000180024ee4     frame.obj
 0002:00009ee4       $stateUnwindMap$_wrap_get_effective_spd 0000000180024ee4     frame.obj
 0002:00009ee4       $stateUnwindMap$_wrap_new_xreflist_t__SWIG_0 0000000180024ee4     frame.obj
 0002:00009ee4       $stateUnwindMap$_wrap_add_user_stkpnt 0000000180024ee4     frame.obj
 0002:00009ee4       $stateUnwindMap$_wrap_xreflist_entry_t___eq__ 0000000180024ee4     frame.obj
 0002:00009ee4       $stateUnwindMap$_wrap_xreflist_t_clear 0000000180024ee4     frame.obj
 0002:00009ee4       $stateUnwindMap$_wrap_xreflist_t_push_back__SWIG_0 0000000180024ee4     frame.obj
 0002:00009ee4       $stateUnwindMap$_wrap_new_regvar_t 0000000180024ee4     frame.obj
 0002:00009ee4       $stateUnwindMap$_wrap_new_llabel_t 0000000180024ee4     frame.obj
 0002:00009ee4       $stateUnwindMap$_wrap_get_frame_size 0000000180024ee4     frame.obj
 0002:00009ee4       $stateUnwindMap$_wrap_frame_off_args 0000000180024ee4     frame.obj
 0002:00009ee4       $stateUnwindMap$_wrap_xreflist_t___len__ 0000000180024ee4     frame.obj
 0002:00009ee4       $stateUnwindMap$_wrap_xreflist_t_reserve 0000000180024ee4     frame.obj
 0002:00009ee4       $stateUnwindMap$_wrap_set_frame_size 0000000180024ee4     frame.obj
 0002:00009ee4       $stateUnwindMap$_wrap_xreflist_t_begin__SWIG_0 0000000180024ee4     frame.obj
 0002:00009ee4       $stateUnwindMap$_wrap_calc_stkvar_struc_offset 0000000180024ee4     frame.obj
 0002:00009ee4       $stateUnwindMap$_wrap_xreflist_t_find__SWIG_1 0000000180024ee4     frame.obj
 0002:00009ee4       $stateUnwindMap$_wrap_get_frame_retsize 0000000180024ee4     frame.obj
 0002:00009ee4       $stateUnwindMap$_wrap_xreflist_t_extract 0000000180024ee4     frame.obj
 0002:00009ee4       $stateUnwindMap$_wrap_xreflist_t_begin__SWIG_1 0000000180024ee4     frame.obj
 0002:00009ee4       $stateUnwindMap$_wrap_xreflist_t_erase__SWIG_1 0000000180024ee4     frame.obj
 0002:00009ee4       $stateUnwindMap$_wrap_update_fpd 0000000180024ee4     frame.obj
 0002:00009ee4       $stateUnwindMap$_wrap_xreflist_t_end__SWIG_0 0000000180024ee4     frame.obj
 0002:00009ee4       $stateUnwindMap$_wrap_xreflist_t_has 0000000180024ee4     frame.obj
 0002:00009ee4       $stateUnwindMap$_wrap_delete_regvar_t 0000000180024ee4     frame.obj
 0002:00009ee4       $stateUnwindMap$_wrap_xreflist_t_resize__SWIG_1 0000000180024ee4     frame.obj
 0002:00009ee4       $stateUnwindMap$_wrap_del_frame 0000000180024ee4     frame.obj
 0002:00009ee4       $stateUnwindMap$_wrap_get_frame__SWIG_1 0000000180024ee4     frame.obj
 0002:00009ee4       $stateUnwindMap$_wrap_del_stkpnt 0000000180024ee4     frame.obj
 0002:00009ee4       $stateUnwindMap$_wrap_xreflist_t_truncate 0000000180024ee4     frame.obj
 0002:00009ee4       $stateUnwindMap$_wrap_lvar_off 0000000180024ee4     frame.obj
 0002:00009ee4       $stateUnwindMap$_wrap_xreflist_entry_t___ne__ 0000000180024ee4     frame.obj
 0002:00009ee4       $stateUnwindMap$_wrap_xreflist_t___setitem__ 0000000180024ee4     frame.obj
 0002:00009ee4       $stateUnwindMap$_wrap_stkpnt_t___lt__ 0000000180024ee4     frame.obj
 0002:00009ee4       $stateUnwindMap$_wrap_add_frame 0000000180024ee4     frame.obj
 0002:00009ee4       $stateUnwindMap$_wrap_xreflist_t___eq__ 0000000180024ee4     frame.obj
 0002:00009ee4       $stateUnwindMap$_wrap_xreflist_t___ne__ 0000000180024ee4     frame.obj
 0002:00009ee4       $stateUnwindMap$_wrap_frame_off_retaddr 0000000180024ee4     frame.obj
 0002:00009ee4       $stateUnwindMap$_wrap_xreflist_t_pop_back 0000000180024ee4     frame.obj
 0002:00009ee4       $stateUnwindMap$_wrap_xreflist_t_erase__SWIG_0 0000000180024ee4     frame.obj
 0002:00009ee4       $stateUnwindMap$_wrap_get_stkvar 0000000180024ee4     frame.obj
 0002:00009ee4       $stateUnwindMap$_wrap_is_funcarg_off 0000000180024ee4     frame.obj
 0002:00009ee4       $stateUnwindMap$_wrap_xreflist_t_swap 0000000180024ee4     frame.obj
 0002:00009ee4       $stateUnwindMap$_wrap_add_regvar 0000000180024ee4     frame.obj
 0002:00009ee4       $stateUnwindMap$_wrap_xreflist_t_at 0000000180024ee4     frame.obj
 0002:00009ee4       $stateUnwindMap$_wrap_frame_off_lvars 0000000180024ee4     frame.obj
 0002:00009ee4       $stateUnwindMap$_wrap_delete_unreferenced_stkvars 0000000180024ee4     frame.obj
 0002:00009ee4       $stateUnwindMap$_wrap_delete_stkpnts_t 0000000180024ee4     frame.obj
 0002:00009ee4       $stateUnwindMap$_wrap_define_stkvar 0000000180024ee4     frame.obj
 0002:00009ee4       $stateUnwindMap$_wrap_xreflist_t_size 0000000180024ee4     frame.obj
 0002:00009ee4       $stateUnwindMap$_wrap_set_purged 0000000180024ee4     frame.obj
 0002:00009ee4       $stateUnwindMap$_wrap_delete_wrong_stkvar_ops 0000000180024ee4     frame.obj
 0002:00009ee4       $stateUnwindMap$_wrap_new_xreflist_entry_t 0000000180024ee4     frame.obj
 0002:00009ee4       $stateUnwindMap$_wrap_get_spd 0000000180024ee4     frame.obj
 0002:00009ee4       $stateUnwindMap$_wrap_xreflist_t_resize__SWIG_0 0000000180024ee4     frame.obj
 0002:00009ee4       $stateUnwindMap$_wrap_get_frame__SWIG_0 0000000180024ee4     frame.obj
 0002:00009ee4       $stateUnwindMap$_wrap_new_stkpnt_t 0000000180024ee4     frame.obj
 0002:00009ee4       $stateUnwindMap$_wrap_frame_off_savregs 0000000180024ee4     frame.obj
 0002:00009ee4       $stateUnwindMap$_wrap_xreflist_t_insert 0000000180024ee4     frame.obj
 0002:00009ee4       $stateUnwindMap$_wrap_get_min_spd_ea 0000000180024ee4     frame.obj
 0002:00009ee4       $stateUnwindMap$_wrap_new_xreflist_t__SWIG_1 0000000180024ee4     frame.obj
 0002:00009ee4       $stateUnwindMap$_wrap_find_regvar__SWIG_1 0000000180024ee4     frame.obj
 0002:00009ee4       $stateUnwindMap$_wrap_find_regvar__SWIG_0 0000000180024ee4     frame.obj
 0002:00009ee4       $stateUnwindMap$_wrap_add_auto_stkpnt 0000000180024ee4     frame.obj
 0002:00009ee4       $stateUnwindMap$_wrap_new_stkpnts_t 0000000180024ee4     frame.obj
 0002:00009ee4       $stateUnwindMap$_wrap_xreflist_t_add_unique 0000000180024ee4     frame.obj
 0002:00009ee4       $stateUnwindMap$_wrap_build_stkvar_xrefs 0000000180024ee4     frame.obj
 0002:00009ee4       $stateUnwindMap$_wrap_del_regvar 0000000180024ee4     frame.obj
 0002:00009ee4       $stateUnwindMap$_wrap_xreflist_t_push_back__SWIG_1 0000000180024ee4     frame.obj
 0002:00009ee4       $stateUnwindMap$_wrap_get_func_by_frame 0000000180024ee4     frame.obj
 0002:00009ee4       $stateUnwindMap$_wrap_delete_stkpnt_t 0000000180024ee4     frame.obj
 0002:00009ee4       $stateUnwindMap$_wrap_xreflist_t__del 0000000180024ee4     frame.obj
 0002:00009ee4       $stateUnwindMap$_wrap_recalc_spd 0000000180024ee4     frame.obj
 0002:00009ee4       $stateUnwindMap$_wrap_xreflist_t_inject 0000000180024ee4     frame.obj
 0002:00009ee4       $stateUnwindMap$_wrap_delete_xreflist_t 0000000180024ee4     frame.obj
 0002:00009ee4       $stateUnwindMap$_wrap_set_regvar_cmt 0000000180024ee4     frame.obj
 0002:00009ee4       $stateUnwindMap$_wrap_xreflist_t_end__SWIG_1 0000000180024ee4     frame.obj
 0002:00009ee4       $stateUnwindMap$_wrap_rename_regvar 0000000180024ee4     frame.obj
 0002:00009ee4       $stateUnwindMap$_wrap_delete_xreflist_entry_t 0000000180024ee4     frame.obj
 0002:00009ef4       $tryMap$_wrap_new_xreflist_t__SWIG_0 0000000180024ef4     frame.obj
 0002:00009f08       $handlerMap$0$_wrap_new_xreflist_t__SWIG_0 0000000180024f08     frame.obj
 0002:00009f80       $ip2state$_wrap_new_xreflist_t__SWIG_0 0000000180024f80     frame.obj
 0002:00009f98       $unwind$_wrap_new_xreflist_t__SWIG_0$catch$2 0000000180024f98     frame.obj
 0002:00009f98       $unwind$_wrap_new_xreflist_t__SWIG_0$catch$3 0000000180024f98     frame.obj
 0002:00009f98       $unwind$_wrap_new_xreflist_t__SWIG_0$catch$6 0000000180024f98     frame.obj
 0002:00009f98       $unwind$_wrap_new_xreflist_t__SWIG_0$catch$4 0000000180024f98     frame.obj
 0002:00009f98       $unwind$_wrap_new_xreflist_t__SWIG_0$catch$1 0000000180024f98     frame.obj
 0002:00009f98       $unwind$_wrap_new_xreflist_t__SWIG_0$catch$5 0000000180024f98     frame.obj
 0002:00009fa8       $unwind$_wrap_new_xreflist_t__SWIG_1 0000000180024fa8     frame.obj
 0002:00009fc8       $tryMap$_wrap_new_xreflist_t__SWIG_1 0000000180024fc8     frame.obj
 0002:00009fdc       $handlerMap$0$_wrap_new_xreflist_t__SWIG_1 0000000180024fdc     frame.obj
 0002:0000a058       $ip2state$_wrap_new_xreflist_t__SWIG_1 0000000180025058     frame.obj
 0002:0000a078       $unwind$_wrap_new_xreflist_t__SWIG_1$catch$2 0000000180025078     frame.obj
 0002:0000a078       $unwind$_wrap_new_xreflist_t__SWIG_1$catch$5 0000000180025078     frame.obj
 0002:0000a078       $unwind$_wrap_new_xreflist_t__SWIG_1$catch$4 0000000180025078     frame.obj
 0002:0000a078       $unwind$_wrap_new_xreflist_t__SWIG_1$catch$6 0000000180025078     frame.obj
 0002:0000a078       $unwind$_wrap_new_xreflist_t__SWIG_1$catch$3 0000000180025078     frame.obj
 0002:0000a078       $unwind$_wrap_new_xreflist_t__SWIG_1$catch$1 0000000180025078     frame.obj
 0002:0000a088       $unwind$_wrap_new_xreflist_t 0000000180025088     frame.obj
 0002:0000a0a0       $unwind$_wrap_delete_xreflist_t 00000001800250a0     frame.obj
 0002:0000a0c0       $tryMap$_wrap_delete_xreflist_t 00000001800250c0     frame.obj
 0002:0000a0d4       $handlerMap$0$_wrap_delete_xreflist_t 00000001800250d4     frame.obj
 0002:0000a150       $ip2state$_wrap_delete_xreflist_t 0000000180025150     frame.obj
 0002:0000a170       $unwind$_wrap_delete_xreflist_t$catch$5 0000000180025170     frame.obj
 0002:0000a170       $unwind$_wrap_delete_xreflist_t$catch$0 0000000180025170     frame.obj
 0002:0000a170       $unwind$_wrap_delete_xreflist_t$catch$2 0000000180025170     frame.obj
 0002:0000a170       $unwind$_wrap_delete_xreflist_t$catch$1 0000000180025170     frame.obj
 0002:0000a170       $unwind$_wrap_delete_xreflist_t$catch$3 0000000180025170     frame.obj
 0002:0000a170       $unwind$_wrap_delete_xreflist_t$catch$4 0000000180025170     frame.obj
 0002:0000a180       $unwind$_wrap_xreflist_t_push_back__SWIG_0 0000000180025180     frame.obj
 0002:0000a1a0       $tryMap$_wrap_xreflist_t_push_back__SWIG_0 00000001800251a0     frame.obj
 0002:0000a1b4       $handlerMap$0$_wrap_xreflist_t_push_back__SWIG_0 00000001800251b4     frame.obj
 0002:0000a230       $ip2state$_wrap_xreflist_t_push_back__SWIG_0 0000000180025230     frame.obj
 0002:0000a258       $unwind$_wrap_xreflist_t_push_back__SWIG_0$catch$0 0000000180025258     frame.obj
 0002:0000a258       $unwind$_wrap_xreflist_t_push_back__SWIG_0$catch$3 0000000180025258     frame.obj
 0002:0000a258       $unwind$_wrap_xreflist_t_push_back__SWIG_0$catch$4 0000000180025258     frame.obj
 0002:0000a258       $unwind$_wrap_xreflist_t_push_back__SWIG_0$catch$5 0000000180025258     frame.obj
 0002:0000a258       $unwind$_wrap_xreflist_t_push_back__SWIG_0$catch$2 0000000180025258     frame.obj
 0002:0000a258       $unwind$_wrap_xreflist_t_push_back__SWIG_0$catch$1 0000000180025258     frame.obj
 0002:0000a268       $unwind$_wrap_xreflist_t_push_back__SWIG_1 0000000180025268     frame.obj
 0002:0000a284       $tryMap$_wrap_xreflist_t_push_back__SWIG_1 0000000180025284     frame.obj
 0002:0000a298       $handlerMap$0$_wrap_xreflist_t_push_back__SWIG_1 0000000180025298     frame.obj
 0002:0000a310       $ip2state$_wrap_xreflist_t_push_back__SWIG_1 0000000180025310     frame.obj
 0002:0000a330       $unwind$_wrap_xreflist_t_push_back__SWIG_1$catch$3 0000000180025330     frame.obj
 0002:0000a330       $unwind$_wrap_xreflist_t_push_back__SWIG_1$catch$4 0000000180025330     frame.obj
 0002:0000a330       $unwind$_wrap_xreflist_t_push_back__SWIG_1$catch$0 0000000180025330     frame.obj
 0002:0000a330       $unwind$_wrap_xreflist_t_push_back__SWIG_1$catch$1 0000000180025330     frame.obj
 0002:0000a330       $unwind$_wrap_xreflist_t_push_back__SWIG_1$catch$2 0000000180025330     frame.obj
 0002:0000a330       $unwind$_wrap_xreflist_t_push_back__SWIG_1$catch$5 0000000180025330     frame.obj
 0002:0000a340       $unwind$_wrap_xreflist_t_push_back 0000000180025340     frame.obj
 0002:0000a340       $unwind$_wrap_xreflist_t_find 0000000180025340     frame.obj
 0002:0000a360       $unwind$_wrap_xreflist_t_pop_back 0000000180025360     frame.obj
 0002:0000a37c       $tryMap$_wrap_xreflist_t_pop_back 000000018002537c     frame.obj
 0002:0000a390       $handlerMap$0$_wrap_xreflist_t_pop_back 0000000180025390     frame.obj
 0002:0000a408       $ip2state$_wrap_xreflist_t_pop_back 0000000180025408     frame.obj
 0002:0000a428       $unwind$_wrap_xreflist_t_pop_back$catch$5 0000000180025428     frame.obj
 0002:0000a428       $unwind$_wrap_xreflist_t_pop_back$catch$4 0000000180025428     frame.obj
 0002:0000a428       $unwind$_wrap_xreflist_t_pop_back$catch$3 0000000180025428     frame.obj
 0002:0000a428       $unwind$_wrap_xreflist_t_pop_back$catch$2 0000000180025428     frame.obj
 0002:0000a428       $unwind$_wrap_xreflist_t_pop_back$catch$1 0000000180025428     frame.obj
 0002:0000a428       $unwind$_wrap_xreflist_t_pop_back$catch$0 0000000180025428     frame.obj
 0002:0000a438       $unwind$_wrap_xreflist_t_size 0000000180025438     frame.obj
 0002:0000a454       $tryMap$_wrap_xreflist_t_size 0000000180025454     frame.obj
 0002:0000a468       $handlerMap$0$_wrap_xreflist_t_size 0000000180025468     frame.obj
 0002:0000a4e0       $ip2state$_wrap_xreflist_t_size 00000001800254e0     frame.obj
 0002:0000a500       $unwind$_wrap_xreflist_t_size$catch$3 0000000180025500     frame.obj
 0002:0000a500       $unwind$_wrap_xreflist_t_size$catch$4 0000000180025500     frame.obj
 0002:0000a500       $unwind$_wrap_xreflist_t_size$catch$1 0000000180025500     frame.obj
 0002:0000a500       $unwind$_wrap_xreflist_t_size$catch$0 0000000180025500     frame.obj
 0002:0000a500       $unwind$_wrap_xreflist_t_size$catch$2 0000000180025500     frame.obj
 0002:0000a500       $unwind$_wrap_xreflist_t_size$catch$5 0000000180025500     frame.obj
 0002:0000a510       $unwind$_wrap_xreflist_t_empty 0000000180025510     frame.obj
 0002:0000a530       $tryMap$_wrap_xreflist_t_empty 0000000180025530     frame.obj
 0002:0000a544       $handlerMap$0$_wrap_xreflist_t_empty 0000000180025544     frame.obj
 0002:0000a5c0       $ip2state$_wrap_xreflist_t_empty 00000001800255c0     frame.obj
 0002:0000a5e0       $unwind$_wrap_xreflist_t_empty$catch$3 00000001800255e0     frame.obj
 0002:0000a5e0       $unwind$_wrap_xreflist_t_empty$catch$2 00000001800255e0     frame.obj
 0002:0000a5e0       $unwind$_wrap_xreflist_t_empty$catch$4 00000001800255e0     frame.obj
 0002:0000a5e0       $unwind$_wrap_xreflist_t_empty$catch$5 00000001800255e0     frame.obj
 0002:0000a5e0       $unwind$_wrap_xreflist_t_empty$catch$0 00000001800255e0     frame.obj
 0002:0000a5e0       $unwind$_wrap_xreflist_t_empty$catch$1 00000001800255e0     frame.obj
 0002:0000a5f0       $unwind$_wrap_xreflist_t_at 00000001800255f0     frame.obj
 0002:0000a60c       $tryMap$_wrap_xreflist_t_at 000000018002560c     frame.obj
 0002:0000a620       $handlerMap$0$_wrap_xreflist_t_at 0000000180025620     frame.obj
 0002:0000a698       $ip2state$_wrap_xreflist_t_at 0000000180025698     frame.obj
 0002:0000a6b8       $unwind$_wrap_xreflist_t_at$catch$4 00000001800256b8     frame.obj
 0002:0000a6b8       $unwind$_wrap_xreflist_t_at$catch$3 00000001800256b8     frame.obj
 0002:0000a6b8       $unwind$_wrap_xreflist_t_at$catch$5 00000001800256b8     frame.obj
 0002:0000a6b8       $unwind$_wrap_xreflist_t_at$catch$1 00000001800256b8     frame.obj
 0002:0000a6b8       $unwind$_wrap_xreflist_t_at$catch$0 00000001800256b8     frame.obj
 0002:0000a6b8       $unwind$_wrap_xreflist_t_at$catch$2 00000001800256b8     frame.obj
 0002:0000a6c8       $unwind$_wrap_xreflist_t_qclear 00000001800256c8     frame.obj
 0002:0000a6e4       $tryMap$_wrap_xreflist_t_qclear 00000001800256e4     frame.obj
 0002:0000a6f8       $handlerMap$0$_wrap_xreflist_t_qclear 00000001800256f8     frame.obj
 0002:0000a770       $ip2state$_wrap_xreflist_t_qclear 0000000180025770     frame.obj
 0002:0000a790       $unwind$_wrap_xreflist_t_qclear$catch$4 0000000180025790     frame.obj
 0002:0000a790       $unwind$_wrap_xreflist_t_qclear$catch$3 0000000180025790     frame.obj
 0002:0000a790       $unwind$_wrap_xreflist_t_qclear$catch$2 0000000180025790     frame.obj
 0002:0000a790       $unwind$_wrap_xreflist_t_qclear$catch$1 0000000180025790     frame.obj
 0002:0000a790       $unwind$_wrap_xreflist_t_qclear$catch$0 0000000180025790     frame.obj
 0002:0000a790       $unwind$_wrap_xreflist_t_qclear$catch$5 0000000180025790     frame.obj
 0002:0000a7a0       $unwind$_wrap_xreflist_t_clear 00000001800257a0     frame.obj
 0002:0000a7bc       $tryMap$_wrap_xreflist_t_clear 00000001800257bc     frame.obj
 0002:0000a7d0       $handlerMap$0$_wrap_xreflist_t_clear 00000001800257d0     frame.obj
 0002:0000a848       $ip2state$_wrap_xreflist_t_clear 0000000180025848     frame.obj
 0002:0000a868       $unwind$_wrap_xreflist_t_clear$catch$3 0000000180025868     frame.obj
 0002:0000a868       $unwind$_wrap_xreflist_t_clear$catch$4 0000000180025868     frame.obj
 0002:0000a868       $unwind$_wrap_xreflist_t_clear$catch$5 0000000180025868     frame.obj
 0002:0000a868       $unwind$_wrap_xreflist_t_clear$catch$1 0000000180025868     frame.obj
 0002:0000a868       $unwind$_wrap_xreflist_t_clear$catch$0 0000000180025868     frame.obj
 0002:0000a868       $unwind$_wrap_xreflist_t_clear$catch$2 0000000180025868     frame.obj
 0002:0000a878       $unwind$_wrap_xreflist_t_resize__SWIG_0 0000000180025878     frame.obj
 0002:0000a898       $tryMap$_wrap_xreflist_t_resize__SWIG_0 0000000180025898     frame.obj
 0002:0000a8ac       $handlerMap$0$_wrap_xreflist_t_resize__SWIG_0 00000001800258ac     frame.obj
 0002:0000a928       $ip2state$_wrap_xreflist_t_resize__SWIG_0 0000000180025928     frame.obj
 0002:0000a950       $unwind$_wrap_xreflist_t_resize__SWIG_0$catch$4 0000000180025950     frame.obj
 0002:0000a950       $unwind$_wrap_xreflist_t_resize__SWIG_0$catch$2 0000000180025950     frame.obj
 0002:0000a950       $unwind$_wrap_xreflist_t_resize__SWIG_0$catch$1 0000000180025950     frame.obj
 0002:0000a950       $unwind$_wrap_xreflist_t_resize__SWIG_0$catch$0 0000000180025950     frame.obj
 0002:0000a950       $unwind$_wrap_xreflist_t_resize__SWIG_0$catch$3 0000000180025950     frame.obj
 0002:0000a950       $unwind$_wrap_xreflist_t_resize__SWIG_0$catch$5 0000000180025950     frame.obj
 0002:0000a960       $unwind$_wrap_xreflist_t_resize__SWIG_1 0000000180025960     frame.obj
 0002:0000a980       $tryMap$_wrap_xreflist_t_resize__SWIG_1 0000000180025980     frame.obj
 0002:0000a994       $handlerMap$0$_wrap_xreflist_t_resize__SWIG_1 0000000180025994     frame.obj
 0002:0000aa10       $ip2state$_wrap_xreflist_t_resize__SWIG_1 0000000180025a10     frame.obj
 0002:0000aa30       $unwind$_wrap_xreflist_t_resize__SWIG_1$catch$3 0000000180025a30     frame.obj
 0002:0000aa30       $unwind$_wrap_xreflist_t_resize__SWIG_1$catch$4 0000000180025a30     frame.obj
 0002:0000aa30       $unwind$_wrap_xreflist_t_resize__SWIG_1$catch$5 0000000180025a30     frame.obj
 0002:0000aa30       $unwind$_wrap_xreflist_t_resize__SWIG_1$catch$2 0000000180025a30     frame.obj
 0002:0000aa30       $unwind$_wrap_xreflist_t_resize__SWIG_1$catch$1 0000000180025a30     frame.obj
 0002:0000aa30       $unwind$_wrap_xreflist_t_resize__SWIG_1$catch$0 0000000180025a30     frame.obj
 0002:0000aa40       $unwind$_wrap_xreflist_t_resize 0000000180025a40     frame.obj
 0002:0000aa60       $unwind$_wrap_xreflist_t_grow 0000000180025a60     frame.obj
 0002:0000aa80       $tryMap$_wrap_xreflist_t_grow 0000000180025a80     frame.obj
 0002:0000aa94       $handlerMap$0$_wrap_xreflist_t_grow 0000000180025a94     frame.obj
 0002:0000ab10       $ip2state$_wrap_xreflist_t_grow 0000000180025b10     frame.obj
 0002:0000ab38       $unwind$_wrap_xreflist_t_grow$catch$5 0000000180025b38     frame.obj
 0002:0000ab38       $unwind$_wrap_xreflist_t_grow$catch$4 0000000180025b38     frame.obj
 0002:0000ab38       $unwind$_wrap_xreflist_t_grow$catch$3 0000000180025b38     frame.obj
 0002:0000ab38       $unwind$_wrap_xreflist_t_grow$catch$2 0000000180025b38     frame.obj
 0002:0000ab38       $unwind$_wrap_xreflist_t_grow$catch$1 0000000180025b38     frame.obj
 0002:0000ab38       $unwind$_wrap_xreflist_t_grow$catch$0 0000000180025b38     frame.obj
 0002:0000ab48       $unwind$_wrap_xreflist_t_capacity 0000000180025b48     frame.obj
 0002:0000ab64       $tryMap$_wrap_xreflist_t_capacity 0000000180025b64     frame.obj
 0002:0000ab78       $handlerMap$0$_wrap_xreflist_t_capacity 0000000180025b78     frame.obj
 0002:0000abf0       $ip2state$_wrap_xreflist_t_capacity 0000000180025bf0     frame.obj
 0002:0000ac10       $unwind$_wrap_xreflist_t_capacity$catch$0 0000000180025c10     frame.obj
 0002:0000ac10       $unwind$_wrap_xreflist_t_capacity$catch$4 0000000180025c10     frame.obj
 0002:0000ac10       $unwind$_wrap_xreflist_t_capacity$catch$2 0000000180025c10     frame.obj
 0002:0000ac10       $unwind$_wrap_xreflist_t_capacity$catch$5 0000000180025c10     frame.obj
 0002:0000ac10       $unwind$_wrap_xreflist_t_capacity$catch$1 0000000180025c10     frame.obj
 0002:0000ac10       $unwind$_wrap_xreflist_t_capacity$catch$3 0000000180025c10     frame.obj
 0002:0000ac20       $unwind$_wrap_xreflist_t_reserve 0000000180025c20     frame.obj
 0002:0000ac3c       $tryMap$_wrap_xreflist_t_reserve 0000000180025c3c     frame.obj
 0002:0000ac50       $handlerMap$0$_wrap_xreflist_t_reserve 0000000180025c50     frame.obj
 0002:0000acc8       $ip2state$_wrap_xreflist_t_reserve 0000000180025cc8     frame.obj
 0002:0000ace8       $unwind$_wrap_xreflist_t_reserve$catch$1 0000000180025ce8     frame.obj
 0002:0000ace8       $unwind$_wrap_xreflist_t_reserve$catch$0 0000000180025ce8     frame.obj
 0002:0000ace8       $unwind$_wrap_xreflist_t_reserve$catch$2 0000000180025ce8     frame.obj
 0002:0000ace8       $unwind$_wrap_xreflist_t_reserve$catch$5 0000000180025ce8     frame.obj
 0002:0000ace8       $unwind$_wrap_xreflist_t_reserve$catch$3 0000000180025ce8     frame.obj
 0002:0000ace8       $unwind$_wrap_xreflist_t_reserve$catch$4 0000000180025ce8     frame.obj
 0002:0000acf8       $unwind$_wrap_xreflist_t_truncate 0000000180025cf8     frame.obj
 0002:0000ad14       $tryMap$_wrap_xreflist_t_truncate 0000000180025d14     frame.obj
 0002:0000ad28       $handlerMap$0$_wrap_xreflist_t_truncate 0000000180025d28     frame.obj
 0002:0000ada0       $ip2state$_wrap_xreflist_t_truncate 0000000180025da0     frame.obj
 0002:0000adc0       $unwind$_wrap_xreflist_t_truncate$catch$1 0000000180025dc0     frame.obj
 0002:0000adc0       $unwind$_wrap_xreflist_t_truncate$catch$5 0000000180025dc0     frame.obj
 0002:0000adc0       $unwind$_wrap_xreflist_t_truncate$catch$3 0000000180025dc0     frame.obj
 0002:0000adc0       $unwind$_wrap_xreflist_t_truncate$catch$4 0000000180025dc0     frame.obj
 0002:0000adc0       $unwind$_wrap_xreflist_t_truncate$catch$0 0000000180025dc0     frame.obj
 0002:0000adc0       $unwind$_wrap_xreflist_t_truncate$catch$2 0000000180025dc0     frame.obj
 0002:0000add0       $unwind$_wrap_xreflist_t_swap 0000000180025dd0     frame.obj
 0002:0000adf0       $tryMap$_wrap_xreflist_t_swap 0000000180025df0     frame.obj
 0002:0000ae04       $handlerMap$0$_wrap_xreflist_t_swap 0000000180025e04     frame.obj
 0002:0000ae80       $ip2state$_wrap_xreflist_t_swap 0000000180025e80     frame.obj
 0002:0000aea8       $unwind$_wrap_xreflist_t_swap$catch$3 0000000180025ea8     frame.obj
 0002:0000aea8       $unwind$_wrap_xreflist_t_swap$catch$4 0000000180025ea8     frame.obj
 0002:0000aea8       $unwind$_wrap_xreflist_t_swap$catch$1 0000000180025ea8     frame.obj
 0002:0000aea8       $unwind$_wrap_xreflist_t_swap$catch$2 0000000180025ea8     frame.obj
 0002:0000aea8       $unwind$_wrap_xreflist_t_swap$catch$0 0000000180025ea8     frame.obj
 0002:0000aea8       $unwind$_wrap_xreflist_t_swap$catch$5 0000000180025ea8     frame.obj
 0002:0000aeb8       $unwind$_wrap_xreflist_t_extract 0000000180025eb8     frame.obj
 0002:0000aed8       $tryMap$_wrap_xreflist_t_extract 0000000180025ed8     frame.obj
 0002:0000aeec       $handlerMap$0$_wrap_xreflist_t_extract 0000000180025eec     frame.obj
 0002:0000af68       $ip2state$_wrap_xreflist_t_extract 0000000180025f68     frame.obj
 0002:0000af88       $unwind$_wrap_xreflist_t_extract$catch$0 0000000180025f88     frame.obj
 0002:0000af88       $unwind$_wrap_xreflist_t_extract$catch$3 0000000180025f88     frame.obj
 0002:0000af88       $unwind$_wrap_xreflist_t_extract$catch$4 0000000180025f88     frame.obj
 0002:0000af88       $unwind$_wrap_xreflist_t_extract$catch$1 0000000180025f88     frame.obj
 0002:0000af88       $unwind$_wrap_xreflist_t_extract$catch$2 0000000180025f88     frame.obj
 0002:0000af88       $unwind$_wrap_xreflist_t_extract$catch$5 0000000180025f88     frame.obj
 0002:0000af98       $unwind$_wrap_xreflist_t_inject 0000000180025f98     frame.obj
 0002:0000afc0       $tryMap$_wrap_xreflist_t_inject 0000000180025fc0     frame.obj
 0002:0000afd4       $handlerMap$0$_wrap_xreflist_t_inject 0000000180025fd4     frame.obj
 0002:0000b050       $ip2state$_wrap_xreflist_t_inject 0000000180026050     frame.obj
 0002:0000b080       $unwind$_wrap_xreflist_t_inject$catch$5 0000000180026080     frame.obj
 0002:0000b080       $unwind$_wrap_xreflist_t_inject$catch$2 0000000180026080     frame.obj
 0002:0000b080       $unwind$_wrap_xreflist_t_inject$catch$4 0000000180026080     frame.obj
 0002:0000b080       $unwind$_wrap_xreflist_t_inject$catch$3 0000000180026080     frame.obj
 0002:0000b080       $unwind$_wrap_xreflist_t_inject$catch$0 0000000180026080     frame.obj
 0002:0000b080       $unwind$_wrap_xreflist_t_inject$catch$1 0000000180026080     frame.obj
 0002:0000b090       $unwind$_wrap_xreflist_t___eq__ 0000000180026090     frame.obj
 0002:0000b0b0       $tryMap$_wrap_xreflist_t___eq__ 00000001800260b0     frame.obj
 0002:0000b0c4       $handlerMap$0$_wrap_xreflist_t___eq__ 00000001800260c4     frame.obj
 0002:0000b140       $ip2state$_wrap_xreflist_t___eq__ 0000000180026140     frame.obj
 0002:0000b168       $unwind$_wrap_xreflist_t___eq__$catch$3 0000000180026168     frame.obj
 0002:0000b168       $unwind$_wrap_xreflist_t___eq__$catch$2 0000000180026168     frame.obj
 0002:0000b168       $unwind$_wrap_xreflist_t___eq__$catch$1 0000000180026168     frame.obj
 0002:0000b168       $unwind$_wrap_xreflist_t___eq__$catch$4 0000000180026168     frame.obj
 0002:0000b168       $unwind$_wrap_xreflist_t___eq__$catch$5 0000000180026168     frame.obj
 0002:0000b168       $unwind$_wrap_xreflist_t___eq__$catch$0 0000000180026168     frame.obj
 0002:0000b178       $unwind$_wrap_xreflist_t___ne__ 0000000180026178     frame.obj
 0002:0000b198       $tryMap$_wrap_xreflist_t___ne__ 0000000180026198     frame.obj
 0002:0000b1ac       $handlerMap$0$_wrap_xreflist_t___ne__ 00000001800261ac     frame.obj
 0002:0000b228       $ip2state$_wrap_xreflist_t___ne__ 0000000180026228     frame.obj
 0002:0000b250       $unwind$_wrap_xreflist_t___ne__$catch$3 0000000180026250     frame.obj
 0002:0000b250       $unwind$_wrap_xreflist_t___ne__$catch$0 0000000180026250     frame.obj
 0002:0000b250       $unwind$_wrap_xreflist_t___ne__$catch$2 0000000180026250     frame.obj
 0002:0000b250       $unwind$_wrap_xreflist_t___ne__$catch$1 0000000180026250     frame.obj
 0002:0000b250       $unwind$_wrap_xreflist_t___ne__$catch$5 0000000180026250     frame.obj
 0002:0000b250       $unwind$_wrap_xreflist_t___ne__$catch$4 0000000180026250     frame.obj
 0002:0000b260       $unwind$_wrap_xreflist_t_begin__SWIG_0 0000000180026260     frame.obj
 0002:0000b27c       $tryMap$_wrap_xreflist_t_begin__SWIG_0 000000018002627c     frame.obj
 0002:0000b290       $handlerMap$0$_wrap_xreflist_t_begin__SWIG_0 0000000180026290     frame.obj
 0002:0000b308       $ip2state$_wrap_xreflist_t_begin__SWIG_0 0000000180026308     frame.obj
 0002:0000b328       $unwind$_wrap_xreflist_t_begin__SWIG_0$catch$3 0000000180026328     frame.obj
 0002:0000b328       $unwind$_wrap_xreflist_t_begin__SWIG_0$catch$0 0000000180026328     frame.obj
 0002:0000b328       $unwind$_wrap_xreflist_t_begin__SWIG_0$catch$5 0000000180026328     frame.obj
 0002:0000b328       $unwind$_wrap_xreflist_t_begin__SWIG_0$catch$4 0000000180026328     frame.obj
 0002:0000b328       $unwind$_wrap_xreflist_t_begin__SWIG_0$catch$2 0000000180026328     frame.obj
 0002:0000b328       $unwind$_wrap_xreflist_t_begin__SWIG_0$catch$1 0000000180026328     frame.obj
 0002:0000b338       $unwind$_wrap_xreflist_t_end__SWIG_0 0000000180026338     frame.obj
 0002:0000b354       $tryMap$_wrap_xreflist_t_end__SWIG_0 0000000180026354     frame.obj
 0002:0000b368       $handlerMap$0$_wrap_xreflist_t_end__SWIG_0 0000000180026368     frame.obj
 0002:0000b3e0       $ip2state$_wrap_xreflist_t_end__SWIG_0 00000001800263e0     frame.obj
 0002:0000b400       $unwind$_wrap_xreflist_t_end__SWIG_0$catch$3 0000000180026400     frame.obj
 0002:0000b400       $unwind$_wrap_xreflist_t_end__SWIG_0$catch$0 0000000180026400     frame.obj
 0002:0000b400       $unwind$_wrap_xreflist_t_end__SWIG_0$catch$1 0000000180026400     frame.obj
 0002:0000b400       $unwind$_wrap_xreflist_t_end__SWIG_0$catch$4 0000000180026400     frame.obj
 0002:0000b400       $unwind$_wrap_xreflist_t_end__SWIG_0$catch$5 0000000180026400     frame.obj
 0002:0000b400       $unwind$_wrap_xreflist_t_end__SWIG_0$catch$2 0000000180026400     frame.obj
 0002:0000b410       $unwind$_wrap_xreflist_t_begin__SWIG_1 0000000180026410     frame.obj
 0002:0000b42c       $tryMap$_wrap_xreflist_t_begin__SWIG_1 000000018002642c     frame.obj
 0002:0000b440       $handlerMap$0$_wrap_xreflist_t_begin__SWIG_1 0000000180026440     frame.obj
 0002:0000b4b8       $ip2state$_wrap_xreflist_t_begin__SWIG_1 00000001800264b8     frame.obj
 0002:0000b4d8       $unwind$_wrap_xreflist_t_begin__SWIG_1$catch$2 00000001800264d8     frame.obj
 0002:0000b4d8       $unwind$_wrap_xreflist_t_begin__SWIG_1$catch$3 00000001800264d8     frame.obj
 0002:0000b4d8       $unwind$_wrap_xreflist_t_begin__SWIG_1$catch$5 00000001800264d8     frame.obj
 0002:0000b4d8       $unwind$_wrap_xreflist_t_begin__SWIG_1$catch$4 00000001800264d8     frame.obj
 0002:0000b4d8       $unwind$_wrap_xreflist_t_begin__SWIG_1$catch$1 00000001800264d8     frame.obj
 0002:0000b4d8       $unwind$_wrap_xreflist_t_begin__SWIG_1$catch$0 00000001800264d8     frame.obj
 0002:0000b4e8       $unwind$_wrap_xreflist_t_begin 00000001800264e8     frame.obj
 0002:0000b4e8       $unwind$_wrap_xreflist_t_end 00000001800264e8     frame.obj
 0002:0000b4fc       $unwind$_wrap_xreflist_t_end__SWIG_1 00000001800264fc     frame.obj
 0002:0000b518       $tryMap$_wrap_xreflist_t_end__SWIG_1 0000000180026518     frame.obj
 0002:0000b52c       $handlerMap$0$_wrap_xreflist_t_end__SWIG_1 000000018002652c     frame.obj
 0002:0000b5a8       $ip2state$_wrap_xreflist_t_end__SWIG_1 00000001800265a8     frame.obj
 0002:0000b5c8       $unwind$_wrap_xreflist_t_end__SWIG_1$catch$2 00000001800265c8     frame.obj
 0002:0000b5c8       $unwind$_wrap_xreflist_t_end__SWIG_1$catch$0 00000001800265c8     frame.obj
 0002:0000b5c8       $unwind$_wrap_xreflist_t_end__SWIG_1$catch$3 00000001800265c8     frame.obj
 0002:0000b5c8       $unwind$_wrap_xreflist_t_end__SWIG_1$catch$1 00000001800265c8     frame.obj
 0002:0000b5c8       $unwind$_wrap_xreflist_t_end__SWIG_1$catch$5 00000001800265c8     frame.obj
 0002:0000b5c8       $unwind$_wrap_xreflist_t_end__SWIG_1$catch$4 00000001800265c8     frame.obj
 0002:0000b5d8       $unwind$_wrap_xreflist_t_insert 00000001800265d8     frame.obj
 0002:0000b600       $tryMap$_wrap_xreflist_t_insert 0000000180026600     frame.obj
 0002:0000b614       $handlerMap$0$_wrap_xreflist_t_insert 0000000180026614     frame.obj
 0002:0000b690       $ip2state$_wrap_xreflist_t_insert 0000000180026690     frame.obj
 0002:0000b6c0       $unwind$_wrap_xreflist_t_insert$catch$2 00000001800266c0     frame.obj
 0002:0000b6c0       $unwind$_wrap_xreflist_t_insert$catch$1 00000001800266c0     frame.obj
 0002:0000b6c0       $unwind$_wrap_xreflist_t_insert$catch$5 00000001800266c0     frame.obj
 0002:0000b6c0       $unwind$_wrap_xreflist_t_insert$catch$0 00000001800266c0     frame.obj
 0002:0000b6c0       $unwind$_wrap_xreflist_t_insert$catch$3 00000001800266c0     frame.obj
 0002:0000b6c0       $unwind$_wrap_xreflist_t_insert$catch$4 00000001800266c0     frame.obj
 0002:0000b6d0       $unwind$_wrap_xreflist_t_erase__SWIG_0 00000001800266d0     frame.obj
 0002:0000b6f0       $tryMap$_wrap_xreflist_t_erase__SWIG_0 00000001800266f0     frame.obj
 0002:0000b704       $handlerMap$0$_wrap_xreflist_t_erase__SWIG_0 0000000180026704     frame.obj
 0002:0000b780       $ip2state$_wrap_xreflist_t_erase__SWIG_0 0000000180026780     frame.obj
 0002:0000b7a8       $unwind$_wrap_xreflist_t_erase__SWIG_0$catch$2 00000001800267a8     frame.obj
 0002:0000b7a8       $unwind$_wrap_xreflist_t_erase__SWIG_0$catch$5 00000001800267a8     frame.obj
 0002:0000b7a8       $unwind$_wrap_xreflist_t_erase__SWIG_0$catch$4 00000001800267a8     frame.obj
 0002:0000b7a8       $unwind$_wrap_xreflist_t_erase__SWIG_0$catch$3 00000001800267a8     frame.obj
 0002:0000b7a8       $unwind$_wrap_xreflist_t_erase__SWIG_0$catch$0 00000001800267a8     frame.obj
 0002:0000b7a8       $unwind$_wrap_xreflist_t_erase__SWIG_0$catch$1 00000001800267a8     frame.obj
 0002:0000b7b8       $unwind$_wrap_xreflist_t_erase__SWIG_1 00000001800267b8     frame.obj
 0002:0000b7d4       $tryMap$_wrap_xreflist_t_erase__SWIG_1 00000001800267d4     frame.obj
 0002:0000b7e8       $handlerMap$0$_wrap_xreflist_t_erase__SWIG_1 00000001800267e8     frame.obj
 0002:0000b860       $ip2state$_wrap_xreflist_t_erase__SWIG_1 0000000180026860     frame.obj
 0002:0000b888       $unwind$_wrap_xreflist_t_erase__SWIG_1$catch$2 0000000180026888     frame.obj
 0002:0000b888       $unwind$_wrap_xreflist_t_erase__SWIG_1$catch$5 0000000180026888     frame.obj
 0002:0000b888       $unwind$_wrap_xreflist_t_erase__SWIG_1$catch$0 0000000180026888     frame.obj
 0002:0000b888       $unwind$_wrap_xreflist_t_erase__SWIG_1$catch$3 0000000180026888     frame.obj
 0002:0000b888       $unwind$_wrap_xreflist_t_erase__SWIG_1$catch$4 0000000180026888     frame.obj
 0002:0000b888       $unwind$_wrap_xreflist_t_erase__SWIG_1$catch$1 0000000180026888     frame.obj
 0002:0000b898       $unwind$_wrap_xreflist_t_erase 0000000180026898     frame.obj
 0002:0000b8bc       $unwind$_wrap_xreflist_t_find__SWIG_0 00000001800268bc     frame.obj
 0002:0000b8dc       $tryMap$_wrap_xreflist_t_find__SWIG_0 00000001800268dc     frame.obj
 0002:0000b8f0       $handlerMap$0$_wrap_xreflist_t_find__SWIG_0 00000001800268f0     frame.obj
 0002:0000b968       $ip2state$_wrap_xreflist_t_find__SWIG_0 0000000180026968     frame.obj
 0002:0000b990       $unwind$_wrap_xreflist_t_find__SWIG_0$catch$1 0000000180026990     frame.obj
 0002:0000b990       $unwind$_wrap_xreflist_t_find__SWIG_0$catch$0 0000000180026990     frame.obj
 0002:0000b990       $unwind$_wrap_xreflist_t_find__SWIG_0$catch$3 0000000180026990     frame.obj
 0002:0000b990       $unwind$_wrap_xreflist_t_find__SWIG_0$catch$5 0000000180026990     frame.obj
 0002:0000b990       $unwind$_wrap_xreflist_t_find__SWIG_0$catch$4 0000000180026990     frame.obj
 0002:0000b990       $unwind$_wrap_xreflist_t_find__SWIG_0$catch$2 0000000180026990     frame.obj
 0002:0000b9a0       $unwind$_wrap_xreflist_t_find__SWIG_1 00000001800269a0     frame.obj
 0002:0000b9c0       $tryMap$_wrap_xreflist_t_find__SWIG_1 00000001800269c0     frame.obj
 0002:0000b9d4       $handlerMap$0$_wrap_xreflist_t_find__SWIG_1 00000001800269d4     frame.obj
 0002:0000ba50       $ip2state$_wrap_xreflist_t_find__SWIG_1 0000000180026a50     frame.obj
 0002:0000ba78       $unwind$_wrap_xreflist_t_find__SWIG_1$catch$4 0000000180026a78     frame.obj
 0002:0000ba78       $unwind$_wrap_xreflist_t_find__SWIG_1$catch$0 0000000180026a78     frame.obj
 0002:0000ba78       $unwind$_wrap_xreflist_t_find__SWIG_1$catch$5 0000000180026a78     frame.obj
 0002:0000ba78       $unwind$_wrap_xreflist_t_find__SWIG_1$catch$1 0000000180026a78     frame.obj
 0002:0000ba78       $unwind$_wrap_xreflist_t_find__SWIG_1$catch$2 0000000180026a78     frame.obj
 0002:0000ba78       $unwind$_wrap_xreflist_t_find__SWIG_1$catch$3 0000000180026a78     frame.obj
 0002:0000ba88       $unwind$_wrap_xreflist_t_has 0000000180026a88     frame.obj
 0002:0000baa8       $tryMap$_wrap_xreflist_t_has 0000000180026aa8     frame.obj
 0002:0000babc       $handlerMap$0$_wrap_xreflist_t_has 0000000180026abc     frame.obj
 0002:0000bb38       $ip2state$_wrap_xreflist_t_has 0000000180026b38     frame.obj
 0002:0000bb60       $unwind$_wrap_xreflist_t_has$catch$5 0000000180026b60     frame.obj
 0002:0000bb60       $unwind$_wrap_xreflist_t_has$catch$2 0000000180026b60     frame.obj
 0002:0000bb60       $unwind$_wrap_xreflist_t_has$catch$1 0000000180026b60     frame.obj
 0002:0000bb60       $unwind$_wrap_xreflist_t_has$catch$4 0000000180026b60     frame.obj
 0002:0000bb60       $unwind$_wrap_xreflist_t_has$catch$3 0000000180026b60     frame.obj
 0002:0000bb60       $unwind$_wrap_xreflist_t_has$catch$0 0000000180026b60     frame.obj
 0002:0000bb70       $unwind$_wrap_xreflist_t_add_unique 0000000180026b70     frame.obj
 0002:0000bb90       $tryMap$_wrap_xreflist_t_add_unique 0000000180026b90     frame.obj
 0002:0000bba4       $handlerMap$0$_wrap_xreflist_t_add_unique 0000000180026ba4     frame.obj
 0002:0000bc20       $ip2state$_wrap_xreflist_t_add_unique 0000000180026c20     frame.obj
 0002:0000bc48       $unwind$_wrap_xreflist_t_add_unique$catch$1 0000000180026c48     frame.obj
 0002:0000bc48       $unwind$_wrap_xreflist_t_add_unique$catch$3 0000000180026c48     frame.obj
 0002:0000bc48       $unwind$_wrap_xreflist_t_add_unique$catch$0 0000000180026c48     frame.obj
 0002:0000bc48       $unwind$_wrap_xreflist_t_add_unique$catch$5 0000000180026c48     frame.obj
 0002:0000bc48       $unwind$_wrap_xreflist_t_add_unique$catch$4 0000000180026c48     frame.obj
 0002:0000bc48       $unwind$_wrap_xreflist_t_add_unique$catch$2 0000000180026c48     frame.obj
 0002:0000bc58       $unwind$_wrap_xreflist_t__del 0000000180026c58     frame.obj
 0002:0000bc78       $tryMap$_wrap_xreflist_t__del 0000000180026c78     frame.obj
 0002:0000bc8c       $handlerMap$0$_wrap_xreflist_t__del 0000000180026c8c     frame.obj
 0002:0000bd08       $ip2state$_wrap_xreflist_t__del 0000000180026d08     frame.obj
 0002:0000bd30       $unwind$_wrap_xreflist_t__del$catch$0 0000000180026d30     frame.obj
 0002:0000bd30       $unwind$_wrap_xreflist_t__del$catch$4 0000000180026d30     frame.obj
 0002:0000bd30       $unwind$_wrap_xreflist_t__del$catch$1 0000000180026d30     frame.obj
 0002:0000bd30       $unwind$_wrap_xreflist_t__del$catch$2 0000000180026d30     frame.obj
 0002:0000bd30       $unwind$_wrap_xreflist_t__del$catch$3 0000000180026d30     frame.obj
 0002:0000bd30       $unwind$_wrap_xreflist_t__del$catch$5 0000000180026d30     frame.obj
 0002:0000bd40       $unwind$_wrap_xreflist_t___len__ 0000000180026d40     frame.obj
 0002:0000bd5c       $tryMap$_wrap_xreflist_t___len__ 0000000180026d5c     frame.obj
 0002:0000bd70       $handlerMap$0$_wrap_xreflist_t___len__ 0000000180026d70     frame.obj
 0002:0000bde8       $ip2state$_wrap_xreflist_t___len__ 0000000180026de8     frame.obj
 0002:0000be08       $unwind$_wrap_xreflist_t___len__$catch$4 0000000180026e08     frame.obj
 0002:0000be08       $unwind$_wrap_xreflist_t___len__$catch$1 0000000180026e08     frame.obj
 0002:0000be08       $unwind$_wrap_xreflist_t___len__$catch$0 0000000180026e08     frame.obj
 0002:0000be08       $unwind$_wrap_xreflist_t___len__$catch$5 0000000180026e08     frame.obj
 0002:0000be08       $unwind$_wrap_xreflist_t___len__$catch$2 0000000180026e08     frame.obj
 0002:0000be08       $unwind$_wrap_xreflist_t___len__$catch$3 0000000180026e08     frame.obj
 0002:0000be18       $unwind$_wrap_xreflist_t___getitem__ 0000000180026e18     frame.obj
 0002:0000be38       $tryMap$_wrap_xreflist_t___getitem__ 0000000180026e38     frame.obj
 0002:0000be4c       $handlerMap$0$_wrap_xreflist_t___getitem__ 0000000180026e4c     frame.obj
 0002:0000bec8       $ip2state$_wrap_xreflist_t___getitem__ 0000000180026ec8     frame.obj
 0002:0000bef0       $unwind$_wrap_xreflist_t___getitem__$catch$5 0000000180026ef0     frame.obj
 0002:0000bef0       $unwind$_wrap_xreflist_t___getitem__$catch$3 0000000180026ef0     frame.obj
 0002:0000bef0       $unwind$_wrap_xreflist_t___getitem__$catch$2 0000000180026ef0     frame.obj
 0002:0000bef0       $unwind$_wrap_xreflist_t___getitem__$catch$0 0000000180026ef0     frame.obj
 0002:0000bef0       $unwind$_wrap_xreflist_t___getitem__$catch$1 0000000180026ef0     frame.obj
 0002:0000bef0       $unwind$_wrap_xreflist_t___getitem__$catch$4 0000000180026ef0     frame.obj
 0002:0000bf00       $unwind$_wrap_xreflist_t___setitem__ 0000000180026f00     frame.obj
 0002:0000bf28       $tryMap$_wrap_xreflist_t___setitem__ 0000000180026f28     frame.obj
 0002:0000bf3c       $handlerMap$0$_wrap_xreflist_t___setitem__ 0000000180026f3c     frame.obj
 0002:0000bfb8       $ip2state$_wrap_xreflist_t___setitem__ 0000000180026fb8     frame.obj
 0002:0000bff0       $unwind$_wrap_xreflist_t___setitem__$catch$3 0000000180026ff0     frame.obj
 0002:0000bff0       $unwind$_wrap_xreflist_t___setitem__$catch$0 0000000180026ff0     frame.obj
 0002:0000bff0       $unwind$_wrap_xreflist_t___setitem__$catch$1 0000000180026ff0     frame.obj
 0002:0000bff0       $unwind$_wrap_xreflist_t___setitem__$catch$4 0000000180026ff0     frame.obj
 0002:0000bff0       $unwind$_wrap_xreflist_t___setitem__$catch$2 0000000180026ff0     frame.obj
 0002:0000bff0       $unwind$_wrap_xreflist_t___setitem__$catch$5 0000000180026ff0     frame.obj
 0002:0000c000       $unwind$xreflist_t_swigregister 0000000180027000     frame.obj
 0002:0000c000       $unwind$stkpnts_t_swigregister 0000000180027000     frame.obj
 0002:0000c000       $unwind$regvar_t_swigregister 0000000180027000     frame.obj
 0002:0000c000       $unwind$xreflist_entry_t_swigregister 0000000180027000     frame.obj
 0002:0000c000       $unwind$stkpnt_t_swigregister 0000000180027000     frame.obj
 0002:0000c000       $unwind$llabel_t_swigregister 0000000180027000     frame.obj
 0002:0000c008       $unwind$_wrap_get_stkvar   0000000180027008     frame.obj
 0002:0000c030       $tryMap$_wrap_get_stkvar   0000000180027030     frame.obj
 0002:0000c044       $handlerMap$0$_wrap_get_stkvar 0000000180027044     frame.obj
 0002:0000c0c0       $ip2state$_wrap_get_stkvar 00000001800270c0     frame.obj
 0002:0000c0f0       $unwind$_wrap_get_stkvar$catch$4 00000001800270f0     frame.obj
 0002:0000c0f0       $unwind$_wrap_get_stkvar$catch$1 00000001800270f0     frame.obj
 0002:0000c0f0       $unwind$_wrap_get_stkvar$catch$5 00000001800270f0     frame.obj
 0002:0000c0f0       $unwind$_wrap_get_stkvar$catch$2 00000001800270f0     frame.obj
 0002:0000c0f0       $unwind$_wrap_get_stkvar$catch$3 00000001800270f0     frame.obj
 0002:0000c0f0       $unwind$_wrap_get_stkvar$catch$0 00000001800270f0     frame.obj
 0002:0000c100       $unwind$_wrap_stkpnt_t_ea_set 0000000180027100     frame.obj
 0002:0000c100       $unwind$_wrap_xreflist_entry_t_ea_set 0000000180027100     frame.obj
 0002:0000c100       $unwind$_wrap_llabel_t_ea_set 0000000180027100     frame.obj
 0002:0000c100       $unwind$_wrap_stkpnt_t_spd_set 0000000180027100     frame.obj
 0002:0000c110       $chain$0$_wrap_stkpnt_t_ea_set 0000000180027110     frame.obj
 0002:0000c124       $chain$1$_wrap_stkpnt_t_ea_set 0000000180027124     frame.obj
 0002:0000c134       $unwind$_wrap_regvar_t_canon_get 0000000180027134     frame.obj
 0002:0000c134       $unwind$_wrap_llabel_t_ea_get 0000000180027134     frame.obj
 0002:0000c134       $unwind$_wrap_stkpnt_t_ea_get 0000000180027134     frame.obj
 0002:0000c134       $unwind$_wrap_xreflist_entry_t_ea_get 0000000180027134     frame.obj
 0002:0000c134       $unwind$_wrap_llabel_t_name_get 0000000180027134     frame.obj
 0002:0000c134       $unwind$_wrap_xreflist_entry_t_opnum_get 0000000180027134     frame.obj
 0002:0000c134       $unwind$_wrap_regvar_t_cmt_get 0000000180027134     frame.obj
 0002:0000c134       $unwind$_wrap_xreflist_entry_t_type_get 0000000180027134     frame.obj
 0002:0000c134       $unwind$_wrap_stkpnt_t_spd_get 0000000180027134     frame.obj
 0002:0000c134       $unwind$_wrap_regvar_t_user_get 0000000180027134     frame.obj
 0002:0000c144       $chain$0$_wrap_stkpnt_t_ea_get 0000000180027144     frame.obj
 0002:0000c158       $chain$1$_wrap_stkpnt_t_ea_get 0000000180027158     frame.obj
 0002:0000c168       $chain$0$_wrap_stkpnt_t_spd_set 0000000180027168     frame.obj
 0002:0000c17c       $chain$1$_wrap_stkpnt_t_spd_set 000000018002717c     frame.obj
 0002:0000c18c       $chain$0$_wrap_stkpnt_t_spd_get 000000018002718c     frame.obj
 0002:0000c1a0       $chain$1$_wrap_stkpnt_t_spd_get 00000001800271a0     frame.obj
 0002:0000c1b0       $unwind$_wrap_stkpnt_t___lt__ 00000001800271b0     frame.obj
 0002:0000c1d0       $tryMap$_wrap_stkpnt_t___lt__ 00000001800271d0     frame.obj
 0002:0000c1e4       $handlerMap$0$_wrap_stkpnt_t___lt__ 00000001800271e4     frame.obj
 0002:0000c260       $ip2state$_wrap_stkpnt_t___lt__ 0000000180027260     frame.obj
 0002:0000c288       $unwind$_wrap_stkpnt_t___lt__$catch$5 0000000180027288     frame.obj
 0002:0000c288       $unwind$_wrap_stkpnt_t___lt__$catch$3 0000000180027288     frame.obj
 0002:0000c288       $unwind$_wrap_stkpnt_t___lt__$catch$2 0000000180027288     frame.obj
 0002:0000c288       $unwind$_wrap_stkpnt_t___lt__$catch$1 0000000180027288     frame.obj
 0002:0000c288       $unwind$_wrap_stkpnt_t___lt__$catch$0 0000000180027288     frame.obj
 0002:0000c288       $unwind$_wrap_stkpnt_t___lt__$catch$4 0000000180027288     frame.obj
 0002:0000c298       $unwind$_wrap_new_stkpnt_t 0000000180027298     frame.obj
 0002:0000c2a8       $tryMap$_wrap_new_stkpnt_t 00000001800272a8     frame.obj
 0002:0000c2bc       $handlerMap$0$_wrap_new_stkpnt_t 00000001800272bc     frame.obj
 0002:0000c338       $ip2state$_wrap_new_stkpnt_t 0000000180027338     frame.obj
 0002:0000c358       $unwind$_wrap_new_stkpnt_t$catch$5 0000000180027358     frame.obj
 0002:0000c358       $unwind$_wrap_new_stkpnt_t$catch$1 0000000180027358     frame.obj
 0002:0000c358       $unwind$_wrap_new_stkpnt_t$catch$2 0000000180027358     frame.obj
 0002:0000c358       $unwind$_wrap_new_stkpnt_t$catch$3 0000000180027358     frame.obj
 0002:0000c358       $unwind$_wrap_new_stkpnt_t$catch$4 0000000180027358     frame.obj
 0002:0000c358       $unwind$_wrap_new_stkpnt_t$catch$0 0000000180027358     frame.obj
 0002:0000c368       $unwind$_wrap_delete_stkpnt_t 0000000180027368     frame.obj
 0002:0000c384       $tryMap$_wrap_delete_stkpnt_t 0000000180027384     frame.obj
 0002:0000c398       $handlerMap$0$_wrap_delete_stkpnt_t 0000000180027398     frame.obj
 0002:0000c410       $ip2state$_wrap_delete_stkpnt_t 0000000180027410     frame.obj
 0002:0000c430       $unwind$_wrap_delete_stkpnt_t$catch$5 0000000180027430     frame.obj
 0002:0000c430       $unwind$_wrap_delete_stkpnt_t$catch$1 0000000180027430     frame.obj
 0002:0000c430       $unwind$_wrap_delete_stkpnt_t$catch$0 0000000180027430     frame.obj
 0002:0000c430       $unwind$_wrap_delete_stkpnt_t$catch$3 0000000180027430     frame.obj
 0002:0000c430       $unwind$_wrap_delete_stkpnt_t$catch$4 0000000180027430     frame.obj
 0002:0000c430       $unwind$_wrap_delete_stkpnt_t$catch$2 0000000180027430     frame.obj
 0002:0000c440       $unwind$_wrap_new_stkpnts_t 0000000180027440     frame.obj
 0002:0000c450       $tryMap$_wrap_new_stkpnts_t 0000000180027450     frame.obj
 0002:0000c464       $handlerMap$0$_wrap_new_stkpnts_t 0000000180027464     frame.obj
 0002:0000c4e0       $ip2state$_wrap_new_stkpnts_t 00000001800274e0     frame.obj
 0002:0000c4f8       $unwind$_wrap_new_stkpnts_t$catch$2 00000001800274f8     frame.obj
 0002:0000c4f8       $unwind$_wrap_new_stkpnts_t$catch$6 00000001800274f8     frame.obj
 0002:0000c4f8       $unwind$_wrap_new_stkpnts_t$catch$5 00000001800274f8     frame.obj
 0002:0000c4f8       $unwind$_wrap_new_stkpnts_t$catch$4 00000001800274f8     frame.obj
 0002:0000c4f8       $unwind$_wrap_new_stkpnts_t$catch$3 00000001800274f8     frame.obj
 0002:0000c4f8       $unwind$_wrap_new_stkpnts_t$catch$1 00000001800274f8     frame.obj
 0002:0000c508       $unwind$_wrap_delete_stkpnts_t 0000000180027508     frame.obj
 0002:0000c528       $tryMap$_wrap_delete_stkpnts_t 0000000180027528     frame.obj
 0002:0000c53c       $handlerMap$0$_wrap_delete_stkpnts_t 000000018002753c     frame.obj
 0002:0000c5b8       $ip2state$_wrap_delete_stkpnts_t 00000001800275b8     frame.obj
 0002:0000c5d8       $unwind$_wrap_delete_stkpnts_t$catch$6 00000001800275d8     frame.obj
 0002:0000c5d8       $unwind$_wrap_delete_stkpnts_t$catch$1 00000001800275d8     frame.obj
 0002:0000c5d8       $unwind$_wrap_delete_stkpnts_t$catch$2 00000001800275d8     frame.obj
 0002:0000c5d8       $unwind$_wrap_delete_stkpnts_t$catch$3 00000001800275d8     frame.obj
 0002:0000c5d8       $unwind$_wrap_delete_stkpnts_t$catch$4 00000001800275d8     frame.obj
 0002:0000c5d8       $unwind$_wrap_delete_stkpnts_t$catch$5 00000001800275d8     frame.obj
 0002:0000c5e8       $unwind$_wrap_add_frame    00000001800275e8     frame.obj
 0002:0000c610       $tryMap$_wrap_add_frame    0000000180027610     frame.obj
 0002:0000c624       $handlerMap$0$_wrap_add_frame 0000000180027624     frame.obj
 0002:0000c6a0       $ip2state$_wrap_add_frame  00000001800276a0     frame.obj
 0002:0000c6c0       $unwind$_wrap_add_frame$catch$5 00000001800276c0     frame.obj
 0002:0000c6c0       $unwind$_wrap_add_frame$catch$0 00000001800276c0     frame.obj
 0002:0000c6c0       $unwind$_wrap_add_frame$catch$4 00000001800276c0     frame.obj
 0002:0000c6c0       $unwind$_wrap_add_frame$catch$3 00000001800276c0     frame.obj
 0002:0000c6c0       $unwind$_wrap_add_frame$catch$2 00000001800276c0     frame.obj
 0002:0000c6c0       $unwind$_wrap_add_frame$catch$1 00000001800276c0     frame.obj
 0002:0000c6d0       $unwind$_wrap_del_frame    00000001800276d0     frame.obj
 0002:0000c6f0       $tryMap$_wrap_del_frame    00000001800276f0     frame.obj
 0002:0000c704       $handlerMap$0$_wrap_del_frame 0000000180027704     frame.obj
 0002:0000c780       $ip2state$_wrap_del_frame  0000000180027780     frame.obj
 0002:0000c7a0       $unwind$_wrap_del_frame$catch$3 00000001800277a0     frame.obj
 0002:0000c7a0       $unwind$_wrap_del_frame$catch$5 00000001800277a0     frame.obj
 0002:0000c7a0       $unwind$_wrap_del_frame$catch$4 00000001800277a0     frame.obj
 0002:0000c7a0       $unwind$_wrap_del_frame$catch$1 00000001800277a0     frame.obj
 0002:0000c7a0       $unwind$_wrap_del_frame$catch$2 00000001800277a0     frame.obj
 0002:0000c7a0       $unwind$_wrap_del_frame$catch$0 00000001800277a0     frame.obj
 0002:0000c7b0       $unwind$_wrap_set_frame_size 00000001800277b0     frame.obj
 0002:0000c7d8       $tryMap$_wrap_set_frame_size 00000001800277d8     frame.obj
 0002:0000c7ec       $handlerMap$0$_wrap_set_frame_size 00000001800277ec     frame.obj
 0002:0000c868       $ip2state$_wrap_set_frame_size 0000000180027868     frame.obj
 0002:0000c888       $unwind$_wrap_set_frame_size$catch$3 0000000180027888     frame.obj
 0002:0000c888       $unwind$_wrap_set_frame_size$catch$5 0000000180027888     frame.obj
 0002:0000c888       $unwind$_wrap_set_frame_size$catch$4 0000000180027888     frame.obj
 0002:0000c888       $unwind$_wrap_set_frame_size$catch$0 0000000180027888     frame.obj
 0002:0000c888       $unwind$_wrap_set_frame_size$catch$2 0000000180027888     frame.obj
 0002:0000c888       $unwind$_wrap_set_frame_size$catch$1 0000000180027888     frame.obj
 0002:0000c898       $unwind$_wrap_get_frame_size 0000000180027898     frame.obj
 0002:0000c8b4       $tryMap$_wrap_get_frame_size 00000001800278b4     frame.obj
 0002:0000c8c8       $handlerMap$0$_wrap_get_frame_size 00000001800278c8     frame.obj
 0002:0000c940       $ip2state$_wrap_get_frame_size 0000000180027940     frame.obj
 0002:0000c960       $unwind$_wrap_get_frame_size$catch$4 0000000180027960     frame.obj
 0002:0000c960       $unwind$_wrap_get_frame_size$catch$0 0000000180027960     frame.obj
 0002:0000c960       $unwind$_wrap_get_frame_size$catch$2 0000000180027960     frame.obj
 0002:0000c960       $unwind$_wrap_get_frame_size$catch$3 0000000180027960     frame.obj
 0002:0000c960       $unwind$_wrap_get_frame_size$catch$5 0000000180027960     frame.obj
 0002:0000c960       $unwind$_wrap_get_frame_size$catch$1 0000000180027960     frame.obj
 0002:0000c970       $unwind$_wrap_get_frame_retsize 0000000180027970     frame.obj
 0002:0000c98c       $tryMap$_wrap_get_frame_retsize 000000018002798c     frame.obj
 0002:0000c9a0       $handlerMap$0$_wrap_get_frame_retsize 00000001800279a0     frame.obj
 0002:0000ca18       $ip2state$_wrap_get_frame_retsize 0000000180027a18     frame.obj
 0002:0000ca38       $unwind$_wrap_get_frame_retsize$catch$2 0000000180027a38     frame.obj
 0002:0000ca38       $unwind$_wrap_get_frame_retsize$catch$1 0000000180027a38     frame.obj
 0002:0000ca38       $unwind$_wrap_get_frame_retsize$catch$0 0000000180027a38     frame.obj
 0002:0000ca38       $unwind$_wrap_get_frame_retsize$catch$5 0000000180027a38     frame.obj
 0002:0000ca38       $unwind$_wrap_get_frame_retsize$catch$4 0000000180027a38     frame.obj
 0002:0000ca38       $unwind$_wrap_get_frame_retsize$catch$3 0000000180027a38     frame.obj
 0002:0000ca48       $unwind$_wrap_get_frame_part 0000000180027a48     frame.obj
 0002:0000ca70       $tryMap$_wrap_get_frame_part 0000000180027a70     frame.obj
 0002:0000ca84       $handlerMap$0$_wrap_get_frame_part 0000000180027a84     frame.obj
 0002:0000cb00       $ip2state$_wrap_get_frame_part 0000000180027b00     frame.obj
 0002:0000cb30       $unwind$_wrap_get_frame_part$catch$3 0000000180027b30     frame.obj
 0002:0000cb30       $unwind$_wrap_get_frame_part$catch$2 0000000180027b30     frame.obj
 0002:0000cb30       $unwind$_wrap_get_frame_part$catch$1 0000000180027b30     frame.obj
 0002:0000cb30       $unwind$_wrap_get_frame_part$catch$0 0000000180027b30     frame.obj
 0002:0000cb30       $unwind$_wrap_get_frame_part$catch$5 0000000180027b30     frame.obj
 0002:0000cb30       $unwind$_wrap_get_frame_part$catch$4 0000000180027b30     frame.obj
 0002:0000cb40       $unwind$_wrap_frame_off_args 0000000180027b40     frame.obj
 0002:0000cb5c       $tryMap$_wrap_frame_off_args 0000000180027b5c     frame.obj
 0002:0000cb70       $handlerMap$0$_wrap_frame_off_args 0000000180027b70     frame.obj
 0002:0000cbe8       $ip2state$_wrap_frame_off_args 0000000180027be8     frame.obj
 0002:0000cc08       $unwind$_wrap_frame_off_args$catch$0 0000000180027c08     frame.obj
 0002:0000cc08       $unwind$_wrap_frame_off_args$catch$4 0000000180027c08     frame.obj
 0002:0000cc08       $unwind$_wrap_frame_off_args$catch$5 0000000180027c08     frame.obj
 0002:0000cc08       $unwind$_wrap_frame_off_args$catch$2 0000000180027c08     frame.obj
 0002:0000cc08       $unwind$_wrap_frame_off_args$catch$1 0000000180027c08     frame.obj
 0002:0000cc08       $unwind$_wrap_frame_off_args$catch$3 0000000180027c08     frame.obj
 0002:0000cc18       $unwind$_wrap_frame_off_retaddr 0000000180027c18     frame.obj
 0002:0000cc34       $tryMap$_wrap_frame_off_retaddr 0000000180027c34     frame.obj
 0002:0000cc48       $handlerMap$0$_wrap_frame_off_retaddr 0000000180027c48     frame.obj
 0002:0000ccc0       $ip2state$_wrap_frame_off_retaddr 0000000180027cc0     frame.obj
 0002:0000cce0       $unwind$_wrap_frame_off_retaddr$catch$5 0000000180027ce0     frame.obj
 0002:0000cce0       $unwind$_wrap_frame_off_retaddr$catch$3 0000000180027ce0     frame.obj
 0002:0000cce0       $unwind$_wrap_frame_off_retaddr$catch$1 0000000180027ce0     frame.obj
 0002:0000cce0       $unwind$_wrap_frame_off_retaddr$catch$4 0000000180027ce0     frame.obj
 0002:0000cce0       $unwind$_wrap_frame_off_retaddr$catch$2 0000000180027ce0     frame.obj
 0002:0000cce0       $unwind$_wrap_frame_off_retaddr$catch$0 0000000180027ce0     frame.obj
 0002:0000ccf0       $unwind$_wrap_frame_off_savregs 0000000180027cf0     frame.obj
 0002:0000cd0c       $tryMap$_wrap_frame_off_savregs 0000000180027d0c     frame.obj
 0002:0000cd20       $handlerMap$0$_wrap_frame_off_savregs 0000000180027d20     frame.obj
 0002:0000cd98       $ip2state$_wrap_frame_off_savregs 0000000180027d98     frame.obj
 0002:0000cdb8       $unwind$_wrap_frame_off_savregs$catch$5 0000000180027db8     frame.obj
 0002:0000cdb8       $unwind$_wrap_frame_off_savregs$catch$4 0000000180027db8     frame.obj
 0002:0000cdb8       $unwind$_wrap_frame_off_savregs$catch$3 0000000180027db8     frame.obj
 0002:0000cdb8       $unwind$_wrap_frame_off_savregs$catch$0 0000000180027db8     frame.obj
 0002:0000cdb8       $unwind$_wrap_frame_off_savregs$catch$1 0000000180027db8     frame.obj
 0002:0000cdb8       $unwind$_wrap_frame_off_savregs$catch$2 0000000180027db8     frame.obj
 0002:0000cdc8       $unwind$_wrap_frame_off_lvars 0000000180027dc8     frame.obj
 0002:0000cde4       $tryMap$_wrap_frame_off_lvars 0000000180027de4     frame.obj
 0002:0000cdf8       $handlerMap$0$_wrap_frame_off_lvars 0000000180027df8     frame.obj
 0002:0000ce70       $ip2state$_wrap_frame_off_lvars 0000000180027e70     frame.obj
 0002:0000ce90       $unwind$_wrap_frame_off_lvars$catch$3 0000000180027e90     frame.obj
 0002:0000ce90       $unwind$_wrap_frame_off_lvars$catch$4 0000000180027e90     frame.obj
 0002:0000ce90       $unwind$_wrap_frame_off_lvars$catch$5 0000000180027e90     frame.obj
 0002:0000ce90       $unwind$_wrap_frame_off_lvars$catch$2 0000000180027e90     frame.obj
 0002:0000ce90       $unwind$_wrap_frame_off_lvars$catch$1 0000000180027e90     frame.obj
 0002:0000ce90       $unwind$_wrap_frame_off_lvars$catch$0 0000000180027e90     frame.obj
 0002:0000cea0       $unwind$_wrap_is_funcarg_off 0000000180027ea0     frame.obj
 0002:0000cec0       $tryMap$_wrap_is_funcarg_off 0000000180027ec0     frame.obj
 0002:0000ced4       $handlerMap$0$_wrap_is_funcarg_off 0000000180027ed4     frame.obj
 0002:0000cf50       $ip2state$_wrap_is_funcarg_off 0000000180027f50     frame.obj
 0002:0000cf70       $unwind$_wrap_is_funcarg_off$catch$3 0000000180027f70     frame.obj
 0002:0000cf70       $unwind$_wrap_is_funcarg_off$catch$4 0000000180027f70     frame.obj
 0002:0000cf70       $unwind$_wrap_is_funcarg_off$catch$5 0000000180027f70     frame.obj
 0002:0000cf70       $unwind$_wrap_is_funcarg_off$catch$1 0000000180027f70     frame.obj
 0002:0000cf70       $unwind$_wrap_is_funcarg_off$catch$2 0000000180027f70     frame.obj
 0002:0000cf70       $unwind$_wrap_is_funcarg_off$catch$0 0000000180027f70     frame.obj
 0002:0000cf80       $unwind$_wrap_lvar_off     0000000180027f80     frame.obj
 0002:0000cf9c       $tryMap$_wrap_lvar_off     0000000180027f9c     frame.obj
 0002:0000cfb0       $handlerMap$0$_wrap_lvar_off 0000000180027fb0     frame.obj
 0002:0000d028       $ip2state$_wrap_lvar_off   0000000180028028     frame.obj
 0002:0000d048       $unwind$_wrap_lvar_off$catch$5 0000000180028048     frame.obj
 0002:0000d048       $unwind$_wrap_lvar_off$catch$4 0000000180028048     frame.obj
 0002:0000d048       $unwind$_wrap_lvar_off$catch$3 0000000180028048     frame.obj
 0002:0000d048       $unwind$_wrap_lvar_off$catch$2 0000000180028048     frame.obj
 0002:0000d048       $unwind$_wrap_lvar_off$catch$1 0000000180028048     frame.obj
 0002:0000d048       $unwind$_wrap_lvar_off$catch$0 0000000180028048     frame.obj
 0002:0000d058       $unwind$_wrap_get_frame__SWIG_0 0000000180028058     frame.obj
 0002:0000d074       $tryMap$_wrap_get_frame__SWIG_0 0000000180028074     frame.obj
 0002:0000d088       $handlerMap$0$_wrap_get_frame__SWIG_0 0000000180028088     frame.obj
 0002:0000d100       $ip2state$_wrap_get_frame__SWIG_0 0000000180028100     frame.obj
 0002:0000d120       $unwind$_wrap_get_frame__SWIG_0$catch$5 0000000180028120     frame.obj
 0002:0000d120       $unwind$_wrap_get_frame__SWIG_0$catch$4 0000000180028120     frame.obj
 0002:0000d120       $unwind$_wrap_get_frame__SWIG_0$catch$3 0000000180028120     frame.obj
 0002:0000d120       $unwind$_wrap_get_frame__SWIG_0$catch$2 0000000180028120     frame.obj
 0002:0000d120       $unwind$_wrap_get_frame__SWIG_0$catch$1 0000000180028120     frame.obj
 0002:0000d120       $unwind$_wrap_get_frame__SWIG_0$catch$0 0000000180028120     frame.obj
 0002:0000d130       $unwind$_wrap_get_frame__SWIG_1 0000000180028130     frame.obj
 0002:0000d144       $tryMap$_wrap_get_frame__SWIG_1 0000000180028144     frame.obj
 0002:0000d158       $handlerMap$0$_wrap_get_frame__SWIG_1 0000000180028158     frame.obj
 0002:0000d1d0       $ip2state$_wrap_get_frame__SWIG_1 00000001800281d0     frame.obj
 0002:0000d1e8       $unwind$_wrap_get_frame__SWIG_1$catch$5 00000001800281e8     frame.obj
 0002:0000d1e8       $unwind$_wrap_get_frame__SWIG_1$catch$4 00000001800281e8     frame.obj
 0002:0000d1e8       $unwind$_wrap_get_frame__SWIG_1$catch$3 00000001800281e8     frame.obj
 0002:0000d1e8       $unwind$_wrap_get_frame__SWIG_1$catch$2 00000001800281e8     frame.obj
 0002:0000d1e8       $unwind$_wrap_get_frame__SWIG_1$catch$1 00000001800281e8     frame.obj
 0002:0000d1e8       $unwind$_wrap_get_frame__SWIG_1$catch$0 00000001800281e8     frame.obj
 0002:0000d1f8       $unwind$_wrap_get_frame    00000001800281f8     frame.obj
 0002:0000d204       $chain$2$_wrap_get_frame   0000000180028204     frame.obj
 0002:0000d220       $chain$4$_wrap_get_frame   0000000180028220     frame.obj
 0002:0000d23c       $unwind$_wrap_update_fpd   000000018002823c     frame.obj
 0002:0000d25c       $tryMap$_wrap_update_fpd   000000018002825c     frame.obj
 0002:0000d270       $handlerMap$0$_wrap_update_fpd 0000000180028270     frame.obj
 0002:0000d2e8       $ip2state$_wrap_update_fpd 00000001800282e8     frame.obj
 0002:0000d308       $unwind$_wrap_update_fpd$catch$5 0000000180028308     frame.obj
 0002:0000d308       $unwind$_wrap_update_fpd$catch$1 0000000180028308     frame.obj
 0002:0000d308       $unwind$_wrap_update_fpd$catch$4 0000000180028308     frame.obj
 0002:0000d308       $unwind$_wrap_update_fpd$catch$2 0000000180028308     frame.obj
 0002:0000d308       $unwind$_wrap_update_fpd$catch$3 0000000180028308     frame.obj
 0002:0000d308       $unwind$_wrap_update_fpd$catch$0 0000000180028308     frame.obj
 0002:0000d318       $unwind$_wrap_set_purged   0000000180028318     frame.obj
 0002:0000d334       $tryMap$_wrap_set_purged   0000000180028334     frame.obj
 0002:0000d348       $handlerMap$0$_wrap_set_purged 0000000180028348     frame.obj
 0002:0000d3c0       $ip2state$_wrap_set_purged 00000001800283c0     frame.obj
 0002:0000d3e0       $unwind$_wrap_set_purged$catch$3 00000001800283e0     frame.obj
 0002:0000d3e0       $unwind$_wrap_set_purged$catch$1 00000001800283e0     frame.obj
 0002:0000d3e0       $unwind$_wrap_set_purged$catch$5 00000001800283e0     frame.obj
 0002:0000d3e0       $unwind$_wrap_set_purged$catch$4 00000001800283e0     frame.obj
 0002:0000d3e0       $unwind$_wrap_set_purged$catch$2 00000001800283e0     frame.obj
 0002:0000d3e0       $unwind$_wrap_set_purged$catch$0 00000001800283e0     frame.obj
 0002:0000d3f0       $unwind$_wrap_get_func_by_frame 00000001800283f0     frame.obj
 0002:0000d404       $tryMap$_wrap_get_func_by_frame 0000000180028404     frame.obj
 0002:0000d418       $handlerMap$0$_wrap_get_func_by_frame 0000000180028418     frame.obj
 0002:0000d490       $ip2state$_wrap_get_func_by_frame 0000000180028490     frame.obj
 0002:0000d4a8       $unwind$_wrap_get_func_by_frame$catch$2 00000001800284a8     frame.obj
 0002:0000d4a8       $unwind$_wrap_get_func_by_frame$catch$3 00000001800284a8     frame.obj
 0002:0000d4a8       $unwind$_wrap_get_func_by_frame$catch$1 00000001800284a8     frame.obj
 0002:0000d4a8       $unwind$_wrap_get_func_by_frame$catch$4 00000001800284a8     frame.obj
 0002:0000d4a8       $unwind$_wrap_get_func_by_frame$catch$0 00000001800284a8     frame.obj
 0002:0000d4a8       $unwind$_wrap_get_func_by_frame$catch$5 00000001800284a8     frame.obj
 0002:0000d4b8       $unwind$_wrap_define_stkvar 00000001800284b8     frame.obj
 0002:0000d4e0       $tryMap$_wrap_define_stkvar 00000001800284e0     frame.obj
 0002:0000d4f4       $handlerMap$0$_wrap_define_stkvar 00000001800284f4     frame.obj
 0002:0000d570       $ip2state$_wrap_define_stkvar 0000000180028570     frame.obj
 0002:0000d598       $unwind$_wrap_define_stkvar$catch$5 0000000180028598     frame.obj
 0002:0000d598       $unwind$_wrap_define_stkvar$catch$0 0000000180028598     frame.obj
 0002:0000d598       $unwind$_wrap_define_stkvar$catch$4 0000000180028598     frame.obj
 0002:0000d598       $unwind$_wrap_define_stkvar$catch$1 0000000180028598     frame.obj
 0002:0000d598       $unwind$_wrap_define_stkvar$catch$2 0000000180028598     frame.obj
 0002:0000d598       $unwind$_wrap_define_stkvar$catch$3 0000000180028598     frame.obj
 0002:0000d5a8       $unwind$_wrap_build_stkvar_name 00000001800285a8     frame.obj
 0002:0000d5cc       $stateUnwindMap$_wrap_build_stkvar_name 00000001800285cc     frame.obj
 0002:0000d5e4       $tryMap$_wrap_build_stkvar_name 00000001800285e4     frame.obj
 0002:0000d5f8       $handlerMap$0$_wrap_build_stkvar_name 00000001800285f8     frame.obj
 0002:0000d670       $ip2state$_wrap_build_stkvar_name 0000000180028670     frame.obj
 0002:0000d690       $unwind$_wrap_build_stkvar_name$catch$7 0000000180028690     frame.obj
 0002:0000d690       $unwind$_wrap_build_stkvar_name$catch$6 0000000180028690     frame.obj
 0002:0000d690       $unwind$_wrap_build_stkvar_name$catch$8 0000000180028690     frame.obj
 0002:0000d690       $unwind$_wrap_build_stkvar_name$catch$3 0000000180028690     frame.obj
 0002:0000d690       $unwind$_wrap_build_stkvar_name$catch$4 0000000180028690     frame.obj
 0002:0000d690       $unwind$_wrap_build_stkvar_name$catch$5 0000000180028690     frame.obj
 0002:0000d6a0       $unwind$_wrap_calc_stkvar_struc_offset 00000001800286a0     frame.obj
 0002:0000d6c8       $tryMap$_wrap_calc_stkvar_struc_offset 00000001800286c8     frame.obj
 0002:0000d6dc       $handlerMap$0$_wrap_calc_stkvar_struc_offset 00000001800286dc     frame.obj
 0002:0000d758       $ip2state$_wrap_calc_stkvar_struc_offset 0000000180028758     frame.obj
 0002:0000d788       $unwind$_wrap_calc_stkvar_struc_offset$catch$4 0000000180028788     frame.obj
 0002:0000d788       $unwind$_wrap_calc_stkvar_struc_offset$catch$1 0000000180028788     frame.obj
 0002:0000d788       $unwind$_wrap_calc_stkvar_struc_offset$catch$0 0000000180028788     frame.obj
 0002:0000d788       $unwind$_wrap_calc_stkvar_struc_offset$catch$3 0000000180028788     frame.obj
 0002:0000d788       $unwind$_wrap_calc_stkvar_struc_offset$catch$2 0000000180028788     frame.obj
 0002:0000d788       $unwind$_wrap_calc_stkvar_struc_offset$catch$5 0000000180028788     frame.obj
 0002:0000d798       $unwind$_wrap_regvar_t_user_set 0000000180028798     frame.obj
 0002:0000d798       $unwind$_wrap_regvar_t_cmt_set 0000000180028798     frame.obj
 0002:0000d798       $unwind$_wrap_regvar_t_canon_set 0000000180028798     frame.obj
 0002:0000d798       $unwind$_wrap_llabel_t_name_set 0000000180028798     frame.obj
 0002:0000d7ac       $chain$0$_wrap_regvar_t_canon_get 00000001800287ac     frame.obj
 0002:0000d7c0       $chain$1$_wrap_regvar_t_canon_get 00000001800287c0     frame.obj
 0002:0000d7d0       $chain$0$_wrap_regvar_t_user_get 00000001800287d0     frame.obj
 0002:0000d7e4       $chain$1$_wrap_regvar_t_user_get 00000001800287e4     frame.obj
 0002:0000d7f4       $chain$0$_wrap_regvar_t_cmt_get 00000001800287f4     frame.obj
 0002:0000d808       $chain$1$_wrap_regvar_t_cmt_get 0000000180028808     frame.obj
 0002:0000d818       $unwind$_wrap_new_regvar_t 0000000180028818     frame.obj
 0002:0000d828       $tryMap$_wrap_new_regvar_t 0000000180028828     frame.obj
 0002:0000d83c       $handlerMap$0$_wrap_new_regvar_t 000000018002883c     frame.obj
 0002:0000d8b8       $ip2state$_wrap_new_regvar_t 00000001800288b8     frame.obj
 0002:0000d8d8       $unwind$_wrap_new_regvar_t$catch$6 00000001800288d8     frame.obj
 0002:0000d8d8       $unwind$_wrap_new_regvar_t$catch$5 00000001800288d8     frame.obj
 0002:0000d8d8       $unwind$_wrap_new_regvar_t$catch$2 00000001800288d8     frame.obj
 0002:0000d8d8       $unwind$_wrap_new_regvar_t$catch$3 00000001800288d8     frame.obj
 0002:0000d8d8       $unwind$_wrap_new_regvar_t$catch$4 00000001800288d8     frame.obj
 0002:0000d8d8       $unwind$_wrap_new_regvar_t$catch$1 00000001800288d8     frame.obj
 0002:0000d8e8       $unwind$_wrap_delete_regvar_t 00000001800288e8     frame.obj
 0002:0000d904       $tryMap$_wrap_delete_regvar_t 0000000180028904     frame.obj
 0002:0000d918       $handlerMap$0$_wrap_delete_regvar_t 0000000180028918     frame.obj
 0002:0000d990       $ip2state$_wrap_delete_regvar_t 0000000180028990     frame.obj
 0002:0000d9b0       $unwind$_wrap_delete_regvar_t$catch$1 00000001800289b0     frame.obj
 0002:0000d9b0       $unwind$_wrap_delete_regvar_t$catch$5 00000001800289b0     frame.obj
 0002:0000d9b0       $unwind$_wrap_delete_regvar_t$catch$4 00000001800289b0     frame.obj
 0002:0000d9b0       $unwind$_wrap_delete_regvar_t$catch$0 00000001800289b0     frame.obj
 0002:0000d9b0       $unwind$_wrap_delete_regvar_t$catch$3 00000001800289b0     frame.obj
 0002:0000d9b0       $unwind$_wrap_delete_regvar_t$catch$2 00000001800289b0     frame.obj
 0002:0000d9c0       $unwind$_wrap_add_regvar   00000001800289c0     frame.obj
 0002:0000d9e8       $tryMap$_wrap_add_regvar   00000001800289e8     frame.obj
 0002:0000d9fc       $handlerMap$0$_wrap_add_regvar 00000001800289fc     frame.obj
 0002:0000da78       $ip2state$_wrap_add_regvar 0000000180028a78     frame.obj
 0002:0000daa0       $unwind$_wrap_add_regvar$catch$2 0000000180028aa0     frame.obj
 0002:0000daa0       $unwind$_wrap_add_regvar$catch$5 0000000180028aa0     frame.obj
 0002:0000daa0       $unwind$_wrap_add_regvar$catch$3 0000000180028aa0     frame.obj
 0002:0000daa0       $unwind$_wrap_add_regvar$catch$0 0000000180028aa0     frame.obj
 0002:0000daa0       $unwind$_wrap_add_regvar$catch$4 0000000180028aa0     frame.obj
 0002:0000daa0       $unwind$_wrap_add_regvar$catch$1 0000000180028aa0     frame.obj
 0002:0000dab0       $unwind$_wrap_find_regvar__SWIG_0 0000000180028ab0     frame.obj
 0002:0000dad4       $tryMap$_wrap_find_regvar__SWIG_0 0000000180028ad4     frame.obj
 0002:0000dae8       $handlerMap$0$_wrap_find_regvar__SWIG_0 0000000180028ae8     frame.obj
 0002:0000db60       $ip2state$_wrap_find_regvar__SWIG_0 0000000180028b60     frame.obj
 0002:0000db88       $unwind$_wrap_find_regvar__SWIG_0$catch$1 0000000180028b88     frame.obj
 0002:0000db88       $unwind$_wrap_find_regvar__SWIG_0$catch$0 0000000180028b88     frame.obj
 0002:0000db88       $unwind$_wrap_find_regvar__SWIG_0$catch$5 0000000180028b88     frame.obj
 0002:0000db88       $unwind$_wrap_find_regvar__SWIG_0$catch$3 0000000180028b88     frame.obj
 0002:0000db88       $unwind$_wrap_find_regvar__SWIG_0$catch$4 0000000180028b88     frame.obj
 0002:0000db88       $unwind$_wrap_find_regvar__SWIG_0$catch$2 0000000180028b88     frame.obj
 0002:0000db98       $unwind$_wrap_find_regvar__SWIG_1 0000000180028b98     frame.obj
 0002:0000dbb4       $tryMap$_wrap_find_regvar__SWIG_1 0000000180028bb4     frame.obj
 0002:0000dbc8       $handlerMap$0$_wrap_find_regvar__SWIG_1 0000000180028bc8     frame.obj
 0002:0000dc40       $ip2state$_wrap_find_regvar__SWIG_1 0000000180028c40     frame.obj
 0002:0000dc68       $unwind$_wrap_find_regvar__SWIG_1$catch$4 0000000180028c68     frame.obj
 0002:0000dc68       $unwind$_wrap_find_regvar__SWIG_1$catch$3 0000000180028c68     frame.obj
 0002:0000dc68       $unwind$_wrap_find_regvar__SWIG_1$catch$1 0000000180028c68     frame.obj
 0002:0000dc68       $unwind$_wrap_find_regvar__SWIG_1$catch$0 0000000180028c68     frame.obj
 0002:0000dc68       $unwind$_wrap_find_regvar__SWIG_1$catch$5 0000000180028c68     frame.obj
 0002:0000dc68       $unwind$_wrap_find_regvar__SWIG_1$catch$2 0000000180028c68     frame.obj
 0002:0000dc78       $unwind$_wrap_find_regvar  0000000180028c78     frame.obj
 0002:0000dc8c       $chain$5$_wrap_find_regvar 0000000180028c8c     frame.obj
 0002:0000dcb4       $chain$6$_wrap_find_regvar 0000000180028cb4     frame.obj
 0002:0000dcc4       $chain$7$_wrap_find_regvar 0000000180028cc4     frame.obj
 0002:0000dcec       $unwind$_wrap_rename_regvar 0000000180028cec     frame.obj
 0002:0000dd14       $tryMap$_wrap_rename_regvar 0000000180028d14     frame.obj
 0002:0000dd28       $handlerMap$0$_wrap_rename_regvar 0000000180028d28     frame.obj
 0002:0000dda0       $ip2state$_wrap_rename_regvar 0000000180028da0     frame.obj
 0002:0000ddc8       $unwind$_wrap_rename_regvar$catch$2 0000000180028dc8     frame.obj
 0002:0000ddc8       $unwind$_wrap_rename_regvar$catch$4 0000000180028dc8     frame.obj
 0002:0000ddc8       $unwind$_wrap_rename_regvar$catch$0 0000000180028dc8     frame.obj
 0002:0000ddc8       $unwind$_wrap_rename_regvar$catch$3 0000000180028dc8     frame.obj
 0002:0000ddc8       $unwind$_wrap_rename_regvar$catch$5 0000000180028dc8     frame.obj
 0002:0000ddc8       $unwind$_wrap_rename_regvar$catch$1 0000000180028dc8     frame.obj
 0002:0000ddd8       $unwind$_wrap_set_regvar_cmt 0000000180028dd8     frame.obj
 0002:0000de00       $tryMap$_wrap_set_regvar_cmt 0000000180028e00     frame.obj
 0002:0000de14       $handlerMap$0$_wrap_set_regvar_cmt 0000000180028e14     frame.obj
 0002:0000de90       $ip2state$_wrap_set_regvar_cmt 0000000180028e90     frame.obj
 0002:0000deb8       $unwind$_wrap_set_regvar_cmt$catch$4 0000000180028eb8     frame.obj
 0002:0000deb8       $unwind$_wrap_set_regvar_cmt$catch$0 0000000180028eb8     frame.obj
 0002:0000deb8       $unwind$_wrap_set_regvar_cmt$catch$5 0000000180028eb8     frame.obj
 0002:0000deb8       $unwind$_wrap_set_regvar_cmt$catch$3 0000000180028eb8     frame.obj
 0002:0000deb8       $unwind$_wrap_set_regvar_cmt$catch$1 0000000180028eb8     frame.obj
 0002:0000deb8       $unwind$_wrap_set_regvar_cmt$catch$2 0000000180028eb8     frame.obj
 0002:0000dec8       $unwind$_wrap_del_regvar   0000000180028ec8     frame.obj
 0002:0000def0       $tryMap$_wrap_del_regvar   0000000180028ef0     frame.obj
 0002:0000df04       $handlerMap$0$_wrap_del_regvar 0000000180028f04     frame.obj
 0002:0000df80       $ip2state$_wrap_del_regvar 0000000180028f80     frame.obj
 0002:0000dfa8       $unwind$_wrap_del_regvar$catch$3 0000000180028fa8     frame.obj
 0002:0000dfa8       $unwind$_wrap_del_regvar$catch$4 0000000180028fa8     frame.obj
 0002:0000dfa8       $unwind$_wrap_del_regvar$catch$2 0000000180028fa8     frame.obj
 0002:0000dfa8       $unwind$_wrap_del_regvar$catch$0 0000000180028fa8     frame.obj
 0002:0000dfa8       $unwind$_wrap_del_regvar$catch$5 0000000180028fa8     frame.obj
 0002:0000dfa8       $unwind$_wrap_del_regvar$catch$1 0000000180028fa8     frame.obj
 0002:0000dfb8       $chain$0$_wrap_llabel_t_ea_set 0000000180028fb8     frame.obj
 0002:0000dfcc       $chain$1$_wrap_llabel_t_ea_set 0000000180028fcc     frame.obj
 0002:0000dfdc       $chain$0$_wrap_llabel_t_ea_get 0000000180028fdc     frame.obj
 0002:0000dff0       $chain$1$_wrap_llabel_t_ea_get 0000000180028ff0     frame.obj
 0002:0000e000       $chain$0$_wrap_llabel_t_name_get 0000000180029000     frame.obj
 0002:0000e014       $chain$1$_wrap_llabel_t_name_get 0000000180029014     frame.obj
 0002:0000e024       $unwind$_wrap_new_llabel_t 0000000180029024     frame.obj
 0002:0000e034       $tryMap$_wrap_new_llabel_t 0000000180029034     frame.obj
 0002:0000e048       $handlerMap$0$_wrap_new_llabel_t 0000000180029048     frame.obj
 0002:0000e0c0       $ip2state$_wrap_new_llabel_t 00000001800290c0     frame.obj
 0002:0000e0e0       $unwind$_wrap_new_llabel_t$catch$5 00000001800290e0     frame.obj
 0002:0000e0e0       $unwind$_wrap_new_llabel_t$catch$3 00000001800290e0     frame.obj
 0002:0000e0e0       $unwind$_wrap_new_llabel_t$catch$4 00000001800290e0     frame.obj
 0002:0000e0e0       $unwind$_wrap_new_llabel_t$catch$0 00000001800290e0     frame.obj
 0002:0000e0e0       $unwind$_wrap_new_llabel_t$catch$1 00000001800290e0     frame.obj
 0002:0000e0e0       $unwind$_wrap_new_llabel_t$catch$2 00000001800290e0     frame.obj
 0002:0000e0f0       $unwind$_wrap_delete_llabel_t 00000001800290f0     frame.obj
 0002:0000e10c       $tryMap$_wrap_delete_llabel_t 000000018002910c     frame.obj
 0002:0000e120       $handlerMap$0$_wrap_delete_llabel_t 0000000180029120     frame.obj
 0002:0000e198       $ip2state$_wrap_delete_llabel_t 0000000180029198     frame.obj
 0002:0000e1b8       $unwind$_wrap_delete_llabel_t$catch$3 00000001800291b8     frame.obj
 0002:0000e1b8       $unwind$_wrap_delete_llabel_t$catch$2 00000001800291b8     frame.obj
 0002:0000e1b8       $unwind$_wrap_delete_llabel_t$catch$5 00000001800291b8     frame.obj
 0002:0000e1b8       $unwind$_wrap_delete_llabel_t$catch$0 00000001800291b8     frame.obj
 0002:0000e1b8       $unwind$_wrap_delete_llabel_t$catch$4 00000001800291b8     frame.obj
 0002:0000e1b8       $unwind$_wrap_delete_llabel_t$catch$1 00000001800291b8     frame.obj
 0002:0000e1c8       $unwind$_wrap_add_auto_stkpnt 00000001800291c8     frame.obj
 0002:0000e1f0       $tryMap$_wrap_add_auto_stkpnt 00000001800291f0     frame.obj
 0002:0000e204       $handlerMap$0$_wrap_add_auto_stkpnt 0000000180029204     frame.obj
 0002:0000e280       $ip2state$_wrap_add_auto_stkpnt 0000000180029280     frame.obj
 0002:0000e2a0       $unwind$_wrap_add_auto_stkpnt$catch$2 00000001800292a0     frame.obj
 0002:0000e2a0       $unwind$_wrap_add_auto_stkpnt$catch$1 00000001800292a0     frame.obj
 0002:0000e2a0       $unwind$_wrap_add_auto_stkpnt$catch$0 00000001800292a0     frame.obj
 0002:0000e2a0       $unwind$_wrap_add_auto_stkpnt$catch$3 00000001800292a0     frame.obj
 0002:0000e2a0       $unwind$_wrap_add_auto_stkpnt$catch$5 00000001800292a0     frame.obj
 0002:0000e2a0       $unwind$_wrap_add_auto_stkpnt$catch$4 00000001800292a0     frame.obj
 0002:0000e2b0       $unwind$_wrap_add_user_stkpnt 00000001800292b0     frame.obj
 0002:0000e2c4       $tryMap$_wrap_add_user_stkpnt 00000001800292c4     frame.obj
 0002:0000e2d8       $handlerMap$0$_wrap_add_user_stkpnt 00000001800292d8     frame.obj
 0002:0000e350       $ip2state$_wrap_add_user_stkpnt 0000000180029350     frame.obj
 0002:0000e368       $unwind$_wrap_add_user_stkpnt$catch$1 0000000180029368     frame.obj
 0002:0000e368       $unwind$_wrap_add_user_stkpnt$catch$2 0000000180029368     frame.obj
 0002:0000e368       $unwind$_wrap_add_user_stkpnt$catch$5 0000000180029368     frame.obj
 0002:0000e368       $unwind$_wrap_add_user_stkpnt$catch$3 0000000180029368     frame.obj
 0002:0000e368       $unwind$_wrap_add_user_stkpnt$catch$0 0000000180029368     frame.obj
 0002:0000e368       $unwind$_wrap_add_user_stkpnt$catch$4 0000000180029368     frame.obj
 0002:0000e378       $unwind$_wrap_del_stkpnt   0000000180029378     frame.obj
 0002:0000e398       $tryMap$_wrap_del_stkpnt   0000000180029398     frame.obj
 0002:0000e3ac       $handlerMap$0$_wrap_del_stkpnt 00000001800293ac     frame.obj
 0002:0000e428       $ip2state$_wrap_del_stkpnt 0000000180029428     frame.obj
 0002:0000e448       $unwind$_wrap_del_stkpnt$catch$3 0000000180029448     frame.obj
 0002:0000e448       $unwind$_wrap_del_stkpnt$catch$0 0000000180029448     frame.obj
 0002:0000e448       $unwind$_wrap_del_stkpnt$catch$5 0000000180029448     frame.obj
 0002:0000e448       $unwind$_wrap_del_stkpnt$catch$4 0000000180029448     frame.obj
 0002:0000e448       $unwind$_wrap_del_stkpnt$catch$1 0000000180029448     frame.obj
 0002:0000e448       $unwind$_wrap_del_stkpnt$catch$2 0000000180029448     frame.obj
 0002:0000e458       $unwind$_wrap_get_spd      0000000180029458     frame.obj
 0002:0000e474       $tryMap$_wrap_get_spd      0000000180029474     frame.obj
 0002:0000e488       $handlerMap$0$_wrap_get_spd 0000000180029488     frame.obj
 0002:0000e500       $ip2state$_wrap_get_spd    0000000180029500     frame.obj
 0002:0000e520       $unwind$_wrap_get_spd$catch$0 0000000180029520     frame.obj
 0002:0000e520       $unwind$_wrap_get_spd$catch$3 0000000180029520     frame.obj
 0002:0000e520       $unwind$_wrap_get_spd$catch$4 0000000180029520     frame.obj
 0002:0000e520       $unwind$_wrap_get_spd$catch$5 0000000180029520     frame.obj
 0002:0000e520       $unwind$_wrap_get_spd$catch$1 0000000180029520     frame.obj
 0002:0000e520       $unwind$_wrap_get_spd$catch$2 0000000180029520     frame.obj
 0002:0000e530       $unwind$_wrap_get_effective_spd 0000000180029530     frame.obj
 0002:0000e54c       $tryMap$_wrap_get_effective_spd 000000018002954c     frame.obj
 0002:0000e560       $handlerMap$0$_wrap_get_effective_spd 0000000180029560     frame.obj
 0002:0000e5d8       $ip2state$_wrap_get_effective_spd 00000001800295d8     frame.obj
 0002:0000e5f8       $unwind$_wrap_get_effective_spd$catch$1 00000001800295f8     frame.obj
 0002:0000e5f8       $unwind$_wrap_get_effective_spd$catch$2 00000001800295f8     frame.obj
 0002:0000e5f8       $unwind$_wrap_get_effective_spd$catch$0 00000001800295f8     frame.obj
 0002:0000e5f8       $unwind$_wrap_get_effective_spd$catch$4 00000001800295f8     frame.obj
 0002:0000e5f8       $unwind$_wrap_get_effective_spd$catch$5 00000001800295f8     frame.obj
 0002:0000e5f8       $unwind$_wrap_get_effective_spd$catch$3 00000001800295f8     frame.obj
 0002:0000e608       $unwind$_wrap_get_sp_delta 0000000180029608     frame.obj
 0002:0000e624       $tryMap$_wrap_get_sp_delta 0000000180029624     frame.obj
 0002:0000e638       $handlerMap$0$_wrap_get_sp_delta 0000000180029638     frame.obj
 0002:0000e6b0       $ip2state$_wrap_get_sp_delta 00000001800296b0     frame.obj
 0002:0000e6d0       $unwind$_wrap_get_sp_delta$catch$0 00000001800296d0     frame.obj
 0002:0000e6d0       $unwind$_wrap_get_sp_delta$catch$5 00000001800296d0     frame.obj
 0002:0000e6d0       $unwind$_wrap_get_sp_delta$catch$3 00000001800296d0     frame.obj
 0002:0000e6d0       $unwind$_wrap_get_sp_delta$catch$1 00000001800296d0     frame.obj
 0002:0000e6d0       $unwind$_wrap_get_sp_delta$catch$2 00000001800296d0     frame.obj
 0002:0000e6d0       $unwind$_wrap_get_sp_delta$catch$4 00000001800296d0     frame.obj
 0002:0000e6e0       $unwind$_wrap_recalc_spd   00000001800296e0     frame.obj
 0002:0000e6f4       $tryMap$_wrap_recalc_spd   00000001800296f4     frame.obj
 0002:0000e708       $handlerMap$0$_wrap_recalc_spd 0000000180029708     frame.obj
 0002:0000e780       $ip2state$_wrap_recalc_spd 0000000180029780     frame.obj
 0002:0000e798       $unwind$_wrap_recalc_spd$catch$3 0000000180029798     frame.obj
 0002:0000e798       $unwind$_wrap_recalc_spd$catch$2 0000000180029798     frame.obj
 0002:0000e798       $unwind$_wrap_recalc_spd$catch$0 0000000180029798     frame.obj
 0002:0000e798       $unwind$_wrap_recalc_spd$catch$4 0000000180029798     frame.obj
 0002:0000e798       $unwind$_wrap_recalc_spd$catch$5 0000000180029798     frame.obj
 0002:0000e798       $unwind$_wrap_recalc_spd$catch$1 0000000180029798     frame.obj
 0002:0000e7a8       $chain$0$_wrap_xreflist_entry_t_ea_set 00000001800297a8     frame.obj
 0002:0000e7bc       $chain$1$_wrap_xreflist_entry_t_ea_set 00000001800297bc     frame.obj
 0002:0000e7cc       $chain$0$_wrap_xreflist_entry_t_ea_get 00000001800297cc     frame.obj
 0002:0000e7e0       $chain$1$_wrap_xreflist_entry_t_ea_get 00000001800297e0     frame.obj
 0002:0000e7f0       $unwind$_wrap_xreflist_entry_t_opnum_set 00000001800297f0     frame.obj
 0002:0000e7f0       $unwind$_wrap_xreflist_entry_t_type_set 00000001800297f0     frame.obj
 0002:0000e804       $chain$0$_wrap_xreflist_entry_t_opnum_set 0000000180029804     frame.obj
 0002:0000e818       $chain$1$_wrap_xreflist_entry_t_opnum_set 0000000180029818     frame.obj
 0002:0000e828       $chain$0$_wrap_xreflist_entry_t_opnum_get 0000000180029828     frame.obj
 0002:0000e83c       $chain$1$_wrap_xreflist_entry_t_opnum_get 000000018002983c     frame.obj
 0002:0000e84c       $chain$0$_wrap_xreflist_entry_t_type_set 000000018002984c     frame.obj
 0002:0000e860       $chain$1$_wrap_xreflist_entry_t_type_set 0000000180029860     frame.obj
 0002:0000e870       $chain$0$_wrap_xreflist_entry_t_type_get 0000000180029870     frame.obj
 0002:0000e884       $chain$1$_wrap_xreflist_entry_t_type_get 0000000180029884     frame.obj
 0002:0000e894       $unwind$_wrap_xreflist_entry_t___eq__ 0000000180029894     frame.obj
 0002:0000e8b4       $tryMap$_wrap_xreflist_entry_t___eq__ 00000001800298b4     frame.obj
 0002:0000e8c8       $handlerMap$0$_wrap_xreflist_entry_t___eq__ 00000001800298c8     frame.obj
 0002:0000e940       $ip2state$_wrap_xreflist_entry_t___eq__ 0000000180029940     frame.obj
 0002:0000e968       $unwind$_wrap_xreflist_entry_t___eq__$catch$1 0000000180029968     frame.obj
 0002:0000e968       $unwind$_wrap_xreflist_entry_t___eq__$catch$0 0000000180029968     frame.obj
 0002:0000e968       $unwind$_wrap_xreflist_entry_t___eq__$catch$4 0000000180029968     frame.obj
 0002:0000e968       $unwind$_wrap_xreflist_entry_t___eq__$catch$5 0000000180029968     frame.obj
 0002:0000e968       $unwind$_wrap_xreflist_entry_t___eq__$catch$3 0000000180029968     frame.obj
 0002:0000e968       $unwind$_wrap_xreflist_entry_t___eq__$catch$2 0000000180029968     frame.obj
 0002:0000e978       $unwind$_wrap_xreflist_entry_t___ne__ 0000000180029978     frame.obj
 0002:0000e998       $tryMap$_wrap_xreflist_entry_t___ne__ 0000000180029998     frame.obj
 0002:0000e9ac       $handlerMap$0$_wrap_xreflist_entry_t___ne__ 00000001800299ac     frame.obj
 0002:0000ea28       $ip2state$_wrap_xreflist_entry_t___ne__ 0000000180029a28     frame.obj
 0002:0000ea50       $unwind$_wrap_xreflist_entry_t___ne__$catch$3 0000000180029a50     frame.obj
 0002:0000ea50       $unwind$_wrap_xreflist_entry_t___ne__$catch$1 0000000180029a50     frame.obj
 0002:0000ea50       $unwind$_wrap_xreflist_entry_t___ne__$catch$0 0000000180029a50     frame.obj
 0002:0000ea50       $unwind$_wrap_xreflist_entry_t___ne__$catch$4 0000000180029a50     frame.obj
 0002:0000ea50       $unwind$_wrap_xreflist_entry_t___ne__$catch$5 0000000180029a50     frame.obj
 0002:0000ea50       $unwind$_wrap_xreflist_entry_t___ne__$catch$2 0000000180029a50     frame.obj
 0002:0000ea60       $unwind$_wrap_new_xreflist_entry_t 0000000180029a60     frame.obj
 0002:0000ea70       $tryMap$_wrap_new_xreflist_entry_t 0000000180029a70     frame.obj
 0002:0000ea84       $handlerMap$0$_wrap_new_xreflist_entry_t 0000000180029a84     frame.obj
 0002:0000eb00       $ip2state$_wrap_new_xreflist_entry_t 0000000180029b00     frame.obj
 0002:0000eb20       $unwind$_wrap_new_xreflist_entry_t$catch$3 0000000180029b20     frame.obj
 0002:0000eb20       $unwind$_wrap_new_xreflist_entry_t$catch$1 0000000180029b20     frame.obj
 0002:0000eb20       $unwind$_wrap_new_xreflist_entry_t$catch$5 0000000180029b20     frame.obj
 0002:0000eb20       $unwind$_wrap_new_xreflist_entry_t$catch$2 0000000180029b20     frame.obj
 0002:0000eb20       $unwind$_wrap_new_xreflist_entry_t$catch$4 0000000180029b20     frame.obj
 0002:0000eb20       $unwind$_wrap_new_xreflist_entry_t$catch$0 0000000180029b20     frame.obj
 0002:0000eb30       $unwind$_wrap_delete_xreflist_entry_t 0000000180029b30     frame.obj
 0002:0000eb4c       $tryMap$_wrap_delete_xreflist_entry_t 0000000180029b4c     frame.obj
 0002:0000eb60       $handlerMap$0$_wrap_delete_xreflist_entry_t 0000000180029b60     frame.obj
 0002:0000ebd8       $ip2state$_wrap_delete_xreflist_entry_t 0000000180029bd8     frame.obj
 0002:0000ebf8       $unwind$_wrap_delete_xreflist_entry_t$catch$5 0000000180029bf8     frame.obj
 0002:0000ebf8       $unwind$_wrap_delete_xreflist_entry_t$catch$2 0000000180029bf8     frame.obj
 0002:0000ebf8       $unwind$_wrap_delete_xreflist_entry_t$catch$1 0000000180029bf8     frame.obj
 0002:0000ebf8       $unwind$_wrap_delete_xreflist_entry_t$catch$4 0000000180029bf8     frame.obj
 0002:0000ebf8       $unwind$_wrap_delete_xreflist_entry_t$catch$0 0000000180029bf8     frame.obj
 0002:0000ebf8       $unwind$_wrap_delete_xreflist_entry_t$catch$3 0000000180029bf8     frame.obj
 0002:0000ec08       $unwind$_wrap_build_stkvar_xrefs 0000000180029c08     frame.obj
 0002:0000ec30       $tryMap$_wrap_build_stkvar_xrefs 0000000180029c30     frame.obj
 0002:0000ec44       $handlerMap$0$_wrap_build_stkvar_xrefs 0000000180029c44     frame.obj
 0002:0000ecc0       $ip2state$_wrap_build_stkvar_xrefs 0000000180029cc0     frame.obj
 0002:0000ecf0       $unwind$_wrap_build_stkvar_xrefs$catch$2 0000000180029cf0     frame.obj
 0002:0000ecf0       $unwind$_wrap_build_stkvar_xrefs$catch$3 0000000180029cf0     frame.obj
 0002:0000ecf0       $unwind$_wrap_build_stkvar_xrefs$catch$0 0000000180029cf0     frame.obj
 0002:0000ecf0       $unwind$_wrap_build_stkvar_xrefs$catch$1 0000000180029cf0     frame.obj
 0002:0000ecf0       $unwind$_wrap_build_stkvar_xrefs$catch$4 0000000180029cf0     frame.obj
 0002:0000ecf0       $unwind$_wrap_build_stkvar_xrefs$catch$5 0000000180029cf0     frame.obj
 0002:0000ed00       $unwind$_wrap_get_min_spd_ea 0000000180029d00     frame.obj
 0002:0000ed1c       $tryMap$_wrap_get_min_spd_ea 0000000180029d1c     frame.obj
 0002:0000ed30       $handlerMap$0$_wrap_get_min_spd_ea 0000000180029d30     frame.obj
 0002:0000eda8       $ip2state$_wrap_get_min_spd_ea 0000000180029da8     frame.obj
 0002:0000edc8       $unwind$_wrap_get_min_spd_ea$catch$0 0000000180029dc8     frame.obj
 0002:0000edc8       $unwind$_wrap_get_min_spd_ea$catch$3 0000000180029dc8     frame.obj
 0002:0000edc8       $unwind$_wrap_get_min_spd_ea$catch$4 0000000180029dc8     frame.obj
 0002:0000edc8       $unwind$_wrap_get_min_spd_ea$catch$5 0000000180029dc8     frame.obj
 0002:0000edc8       $unwind$_wrap_get_min_spd_ea$catch$2 0000000180029dc8     frame.obj
 0002:0000edc8       $unwind$_wrap_get_min_spd_ea$catch$1 0000000180029dc8     frame.obj
 0002:0000edd8       $unwind$_wrap_delete_unreferenced_stkvars 0000000180029dd8     frame.obj
 0002:0000edf4       $tryMap$_wrap_delete_unreferenced_stkvars 0000000180029df4     frame.obj
 0002:0000ee08       $handlerMap$0$_wrap_delete_unreferenced_stkvars 0000000180029e08     frame.obj
 0002:0000ee80       $ip2state$_wrap_delete_unreferenced_stkvars 0000000180029e80     frame.obj
 0002:0000eea0       $unwind$_wrap_delete_unreferenced_stkvars$catch$0 0000000180029ea0     frame.obj
 0002:0000eea0       $unwind$_wrap_delete_unreferenced_stkvars$catch$1 0000000180029ea0     frame.obj
 0002:0000eea0       $unwind$_wrap_delete_unreferenced_stkvars$catch$2 0000000180029ea0     frame.obj
 0002:0000eea0       $unwind$_wrap_delete_unreferenced_stkvars$catch$5 0000000180029ea0     frame.obj
 0002:0000eea0       $unwind$_wrap_delete_unreferenced_stkvars$catch$4 0000000180029ea0     frame.obj
 0002:0000eea0       $unwind$_wrap_delete_unreferenced_stkvars$catch$3 0000000180029ea0     frame.obj
 0002:0000eeb0       $unwind$_wrap_delete_wrong_stkvar_ops 0000000180029eb0     frame.obj
 0002:0000eecc       $tryMap$_wrap_delete_wrong_stkvar_ops 0000000180029ecc     frame.obj
 0002:0000eee0       $handlerMap$0$_wrap_delete_wrong_stkvar_ops 0000000180029ee0     frame.obj
 0002:0000ef58       $ip2state$_wrap_delete_wrong_stkvar_ops 0000000180029f58     frame.obj
 0002:0000ef78       $unwind$_wrap_delete_wrong_stkvar_ops$catch$5 0000000180029f78     frame.obj
 0002:0000ef78       $unwind$_wrap_delete_wrong_stkvar_ops$catch$1 0000000180029f78     frame.obj
 0002:0000ef78       $unwind$_wrap_delete_wrong_stkvar_ops$catch$4 0000000180029f78     frame.obj
 0002:0000ef78       $unwind$_wrap_delete_wrong_stkvar_ops$catch$2 0000000180029f78     frame.obj
 0002:0000ef78       $unwind$_wrap_delete_wrong_stkvar_ops$catch$3 0000000180029f78     frame.obj
 0002:0000ef78       $unwind$_wrap_delete_wrong_stkvar_ops$catch$0 0000000180029f78     frame.obj
 0002:0000ef88       $unwind$SWIG_InitializeModule 0000000180029f88     frame.obj
 0002:0000ef98       $chain$1$SWIG_InitializeModule 0000000180029f98     frame.obj
 0002:0000efac       $chain$4$SWIG_InitializeModule 0000000180029fac     frame.obj
 0002:0000efc8       $chain$5$SWIG_InitializeModule 0000000180029fc8     frame.obj
 0002:0000efd8       $chain$6$SWIG_InitializeModule 0000000180029fd8     frame.obj
 0002:0000efe8       $unwind$SWIG_Python_FixMethods 0000000180029fe8     frame.obj
 0002:0000eff4       $chain$4$SWIG_Python_FixMethods 0000000180029ff4     frame.obj
 0002:0000f018       $chain$5$SWIG_Python_FixMethods 000000018002a018     frame.obj
 0002:0000f028       $unwind$PyInit__ida_frame  000000018002a028     frame.obj
 0002:0000f038       $chain$1$PyInit__ida_frame 000000018002a038     frame.obj
 0002:0000f050       $chain$2$PyInit__ida_frame 000000018002a050     frame.obj
 0002:0000f064       $chain$3$PyInit__ida_frame 000000018002a064     frame.obj
 0002:0000f074       $chain$4$PyInit__ida_frame 000000018002a074     frame.obj
 0002:0000f084       $unwind$?__scrt_initialize_thread_safe_statics@@YAHXZ 000000018002a084     MSVCRT:thread_safe_statics.obj
 0002:0000f09c       $stateUnwindMap$?__scrt_initialize_thread_safe_statics@@YAHXZ 000000018002a09c     MSVCRT:thread_safe_statics.obj
 0002:0000f0a8       $ip2state$?__scrt_initialize_thread_safe_statics@@YAHXZ 000000018002a0a8     MSVCRT:thread_safe_statics.obj
 0002:0000f0b0       $unwind$__GSHandlerCheckCommon 000000018002a0b0     MSVCRT:gshandler.obj
 0002:0000f0b8       $unwind$__GSHandlerCheck_EH 000000018002a0b8     MSVCRT:gshandlereh.obj
 0002:0000f0d0       $xdatasym                  000000018002a0d0     MSVCRT:amdsecgs.obj
 0002:0000f0d4       $unwind$?dllmain_crt_process_attach@@YAHQEAUHINSTANCE__@@QEAX@Z 000000018002a0d4     MSVCRT:dll_dllmain.obj
 0002:0000f110       $unwind$?fin$0@?0??dllmain_crt_process_detach@@YAH_N@Z@4HA 000000018002a110     MSVCRT:dll_dllmain.obj
 0002:0000f110       $unwind$?fin$0@?0??dllmain_crt_process_attach@@YAHQEAUHINSTANCE__@@QEAX@Z@4HA 000000018002a110     MSVCRT:dll_dllmain.obj
 0002:0000f118       $unwind$?dllmain_crt_process_detach@@YAH_N@Z 000000018002a118     MSVCRT:dll_dllmain.obj
 0002:0000f150       $unwind$?dllmain_dispatch@@YAHQEAUHINSTANCE__@@KQEAX@Z 000000018002a150     MSVCRT:dll_dllmain.obj
 0002:0000f178       $unwind$?filt$0@?0??dllmain_dispatch@@YAHQEAUHINSTANCE__@@KQEAX@Z@4HA 000000018002a178     MSVCRT:dll_dllmain.obj
 0002:0000f180       $unwind$__scrt_is_nonwritable_in_current_image 000000018002a180     MSVCRT:utility.obj
 0002:0000f1a0       $unwind$__scrt_is_nonwritable_in_current_image$filt$0 000000018002a1a0     MSVCRT:utility.obj
 0002:0000f1a8       $unwind$__scrt_initialize_onexit_tables 000000018002a1a8     MSVCRT:utility.obj
 0002:0000f1b0       $unwind$__scrt_dllmain_exception_filter 000000018002a1b0     MSVCRT:utility.obj
 0002:0000f1c4       $unwind$__scrt_fastfail    000000018002a1c4     MSVCRT:utility_desktop.obj
 0002:0000f1d4       $unwind$__report_gsfailure 000000018002a1d4     MSVCRT:gs_report.obj
 0002:0000f1dc       $unwind$capture_previous_context 000000018002a1dc     MSVCRT:gs_report.obj
 0002:0000f1e8       $unwind$__security_init_cookie 000000018002a1e8     MSVCRT:gs_support.obj
 0002:0000f1f4       $unwind$__isa_available_init 000000018002a1f4     MSVCRT:cpu_disp.obj
 0002:0000f208       $xdatasym                  000000018002a208     MSVCRT:guard_dispatch.obj
 0002:0000f390       .edata                     000000018002a390     _ida_frame.exp
 0002:0000f3b8       rgpv                       000000018002a3b8     _ida_frame.exp
 0002:0000f3bc       rgszName                   000000018002a3bc     _ida_frame.exp
 0002:0000f3c0       rgwOrd                     000000018002a3c0     _ida_frame.exp
 0002:0000f3c2       szName                     000000018002a3c2     _ida_frame.exp
 0002:0000f3d1       $N00001                    000000018002a3d1     _ida_frame.exp
 0002:0000fcc0       .idata$6                   000000018002acc0     ida:ida.dll
 0002:00010322       .idata$6                   000000018002b322     python38:python38.dll
 0002:00010340       .idata$6                   000000018002b340     python:python.dll
 0002:00010598       .idata$6                   000000018002b598     kernel32:KERNEL32.dll
 0002:00010676       .idata$6                   000000018002b676     vcruntime:VCRUNTIME140.dll
 0002:000107ac       .idata$6                   000000018002b7ac     ucrt:api-ms-win-crt-stdio-l1-1-0.dll
 0002:000107cc       .idata$6                   000000018002b7cc     ucrt:api-ms-win-crt-string-l1-1-0.dll
 0002:000107ee       .idata$6                   000000018002b7ee     ucrt:api-ms-win-crt-heap-l1-1-0.dll
 0002:0001080e       .idata$6                   000000018002b80e     ucrt:api-ms-win-crt-runtime-l1-1-0.dll
 0003:00000000       SwigMethods                000000018002c000     frame.obj
 0003:00000e00       _swigt__p__qstringT_char_t 000000018002ce00     frame.obj
 0003:00000e30       _swigt__p__qstringT_unsigned_char_t 000000018002ce30     frame.obj
 0003:00000e60       _swigt__p__qstringT_unsigned_short_t 000000018002ce60     frame.obj
 0003:00000e90       _swigt__p_action_ctx_base_t 000000018002ce90     frame.obj
 0003:00000ec0       _swigt__p_biggest_t        000000018002cec0     frame.obj
 0003:00000ef0       _swigt__p_char             000000018002cef0     frame.obj
 0003:00000f20       _swigt__p_const_iterator   000000018002cf20     frame.obj
 0003:00000f50       _swigt__p_f_p_TWidget_int_int_p_void__bool 000000018002cf50     frame.obj
 0003:00000f80       _swigt__p_f_p_TWidget_int_p_view_mouse_event_t_p_void__void 000000018002cf80     frame.obj
 0003:00000fb0       _swigt__p_f_p_TWidget_int_p_void__bool 000000018002cfb0     frame.obj
 0003:00000fe0       _swigt__p_f_p_TWidget_p_lochist_entry_t_p_void__void 000000018002cfe0     frame.obj
 0003:00001010       _swigt__p_f_p_TWidget_p_q_const__lochist_entry_t_p_q_const__lochist_entry_t_r_q_const__locchange_md_t_p_void__void 000000018002d010     frame.obj
 0003:00001040       _swigt__p_f_p_TWidget_p_q_const__lochist_entry_t_r_q_const__locchange_md_t_p_void__int 000000018002d040     frame.obj
 0003:00001070       _swigt__p_f_p_TWidget_p_q_const__place_t_int_int_p_void__void 000000018002d070     frame.obj
 0003:000010a0       _swigt__p_f_p_TWidget_p_q_const__place_t_p_int_p_void__int 000000018002d0a0     frame.obj
 0003:000010d0       _swigt__p_f_p_TWidget_p_q_const__place_t_p_q_const__place_t_p_void__int 000000018002d0d0     frame.obj
 0003:00001100       _swigt__p_f_p_TWidget_p_q_const__place_t_p_unsigned_int_p_void__bool 000000018002d100     frame.obj
 0003:00001130       _swigt__p_f_p_TWidget_p_void__int 000000018002d130     frame.obj
 0003:00001160       _swigt__p_f_p_TWidget_p_void__void 000000018002d160     frame.obj
 0003:00001190       _swigt__p_f_p_chooser_multi_t_p_sizevec_t__chooser_base_t__cbres_t 000000018002d190     frame.obj
 0003:000011c0       _swigt__p_f_p_chooser_t_ssize_t__chooser_t__cbret_t 000000018002d1c0     frame.obj
 0003:000011f0       _swigt__p_f_p_lochist_entry_t_r_q_const__lochist_entry_t_p_TWidget__bool 000000018002d1f0     frame.obj
 0003:00001220       _swigt__p_f_p_q_const__char_p_void__void 000000018002d220     frame.obj
 0003:00001250       _swigt__p_f_p_q_const__char_r_q_const__tinfo_t_p_q_const__char_p_q_const__unsigned_long_long_p_void__int 000000018002d250     frame.obj
 0003:00001280       _swigt__p_f_p_q_const__char_v_______int 000000018002d280     frame.obj
 0003:000012b0       _swigt__p_f_p_void_int_va_list__ssize_t 000000018002d2b0     frame.obj
 0003:000012e0       _swigt__p_f_r_q_const__insn_t_p_int_p_int__bool 000000018002d2e0     frame.obj
 0003:00001310       _swigt__p_f_r_q_const__insn_t_r_q_const__op_t_r_q_const__tinfo_t_p_q_const__char__bool 000000018002d310     frame.obj
 0003:00001340       _swigt__p_f_unsigned_int__bool 000000018002d340     frame.obj
 0003:00001370       _swigt__p_f_unsigned_int_p_q_const__char_unsigned_int_p_void__int 000000018002d370     frame.obj
 0003:000013a0       _swigt__p_f_unsigned_int_p_void__bool 000000018002d3a0     frame.obj
 0003:000013d0       _swigt__p_f_unsigned_int_r_q_const__tinfo_t_p_void__int 000000018002d3d0     frame.obj
 0003:00001400       _swigt__p_f_unsigned_int_unsigned_int__unsigned_int 000000018002d400     frame.obj
 0003:00001430       _swigt__p_func_t           000000018002d430     frame.obj
 0003:00001460       _swigt__p_insn_t           000000018002d460     frame.obj
 0003:00001490       _swigt__p_int              000000018002d490     frame.obj
 0003:000014c0       _swigt__p_iterator         000000018002d4c0     frame.obj
 0003:000014f0       _swigt__p_llabel_t         000000018002d4f0     frame.obj
 0003:00001520       _swigt__p_location_t       000000018002d520     frame.obj
 0003:00001550       _swigt__p_long_long        000000018002d550     frame.obj
 0003:00001580       _swigt__p_member_t         000000018002d580     frame.obj
 0003:000015b0       _swigt__p_op_t             000000018002d5b0     frame.obj
 0003:000015e0       _swigt__p_opinfo_t         000000018002d5e0     frame.obj
 0003:00001610       _swigt__p_qvectorT__qstringT_unsigned_short_t_t 000000018002d610     frame.obj
 0003:00001640       _swigt__p_qvectorT_argloc_t_t 000000018002d640     frame.obj
 0003:00001670       _swigt__p_qvectorT_bool_t  000000018002d670     frame.obj
 0003:000016a0       _swigt__p_qvectorT_channel_redir_t_t 000000018002d6a0     frame.obj
 0003:000016d0       _swigt__p_qvectorT_compiled_binpat_t_t 000000018002d6d0     frame.obj
 0003:00001700       _swigt__p_qvectorT_funcarg_t_t 000000018002d700     frame.obj
 0003:00001730       _swigt__p_qvectorT_int_t   000000018002d730     frame.obj
 0003:00001760       _swigt__p_qvectorT_range_t_t 000000018002d760     frame.obj
 0003:00001790       _swigt__p_rangevec_t       000000018002d790     frame.obj
 0003:000017c0       _swigt__p_qvectorT_rangeset_t_const_p_t 000000018002d7c0     frame.obj
 0003:000017f0       _swigt__p_qvectorT_rangeset_t_t 000000018002d7f0     frame.obj
 0003:00001820       _swigt__p_qvectorT_refinfo_desc_t_t 000000018002d820     frame.obj
 0003:00001850       _swigt__p_qvectorT_simd_info_t_t 000000018002d850     frame.obj
 0003:00001880       _swigt__p_qvectorT_simpleline_t_t 000000018002d880     frame.obj
 0003:000018b0       _swigt__p_qvectorT_size_t_t 000000018002d8b0     frame.obj
 0003:000018e0       _swigt__p_qvectorT_tinfo_t_t 000000018002d8e0     frame.obj
 0003:00001910       _swigt__p_qvectorT_type_attr_t_t 000000018002d910     frame.obj
 0003:00001940       _swigt__p_qvectorT_udt_member_t_t 000000018002d940     frame.obj
 0003:00001970       _swigt__p_qvectorT_unsigned_char_t 000000018002d970     frame.obj
 0003:000019a0       _swigt__p_relobj_t         000000018002d9a0     frame.obj
 0003:000019d0       _swigt__p_bytevec_t        000000018002d9d0     frame.obj
 0003:00001a00       _swigt__p_reloc_info_t     000000018002da00     frame.obj
 0003:00001a30       _swigt__p_qvectorT_unsigned_int_t 000000018002da30     frame.obj
 0003:00001a60       _swigt__p_qvectorT_xreflist_entry_t_t 000000018002da60     frame.obj
 0003:00001a90       _swigt__p_range_t          000000018002da90     frame.obj
 0003:00001ac0       _swigt__p_regvar_t         000000018002dac0     frame.obj
 0003:00001af0       _swigt__p_short            000000018002daf0     frame.obj
 0003:00001b20       _swigt__p_signed_char      000000018002db20     frame.obj
 0003:00001b50       _swigt__p_stkpnt_t         000000018002db50     frame.obj
 0003:00001b80       _swigt__p_stkpnts_t        000000018002db80     frame.obj
 0003:00001bb0       _swigt__p_struc_t          000000018002dbb0     frame.obj
 0003:00001be0       _swigt__p_unsigned_char    000000018002dbe0     frame.obj
 0003:00001c10       _swigt__p_unsigned_int     000000018002dc10     frame.obj
 0003:00001c40       _swigt__p_unsigned_long_long 000000018002dc40     frame.obj
 0003:00001c70       _swigt__p_unsigned_short   000000018002dc70     frame.obj
 0003:00001ca0       _swigt__p_value_type       000000018002dca0     frame.obj
 0003:00001cd0       _swigt__p_xreflist_entry_t 000000018002dcd0     frame.obj
 0003:00001d00       swig_type_initial          000000018002dd00     frame.obj
 0003:00001f80       _swigc__p__qstringT_char_t 000000018002df80     frame.obj
 0003:00001fc0       _swigc__p__qstringT_unsigned_char_t 000000018002dfc0     frame.obj
 0003:00002000       _swigc__p__qstringT_unsigned_short_t 000000018002e000     frame.obj
 0003:00002040       _swigc__p_action_ctx_base_t 000000018002e040     frame.obj
 0003:00002080       _swigc__p_biggest_t        000000018002e080     frame.obj
 0003:000020c0       _swigc__p_char             000000018002e0c0     frame.obj
 0003:00002100       _swigc__p_const_iterator   000000018002e100     frame.obj
 0003:00002140       _swigc__p_f_p_TWidget_int_int_p_void__bool 000000018002e140     frame.obj
 0003:00002180       _swigc__p_f_p_TWidget_int_p_view_mouse_event_t_p_void__void 000000018002e180     frame.obj
 0003:000021c0       _swigc__p_f_p_TWidget_int_p_void__bool 000000018002e1c0     frame.obj
 0003:00002200       _swigc__p_f_p_TWidget_p_lochist_entry_t_p_void__void 000000018002e200     frame.obj
 0003:00002240       _swigc__p_f_p_TWidget_p_q_const__lochist_entry_t_p_q_const__lochist_entry_t_r_q_const__locchange_md_t_p_void__void 000000018002e240     frame.obj
 0003:00002280       _swigc__p_f_p_TWidget_p_q_const__lochist_entry_t_r_q_const__locchange_md_t_p_void__int 000000018002e280     frame.obj
 0003:000022c0       _swigc__p_f_p_TWidget_p_q_const__place_t_int_int_p_void__void 000000018002e2c0     frame.obj
 0003:00002300       _swigc__p_f_p_TWidget_p_q_const__place_t_p_int_p_void__int 000000018002e300     frame.obj
 0003:00002340       _swigc__p_f_p_TWidget_p_q_const__place_t_p_q_const__place_t_p_void__int 000000018002e340     frame.obj
 0003:00002380       _swigc__p_f_p_TWidget_p_q_const__place_t_p_unsigned_int_p_void__bool 000000018002e380     frame.obj
 0003:000023c0       _swigc__p_f_p_TWidget_p_void__int 000000018002e3c0     frame.obj
 0003:00002400       _swigc__p_f_p_TWidget_p_void__void 000000018002e400     frame.obj
 0003:00002440       _swigc__p_f_p_chooser_multi_t_p_sizevec_t__chooser_base_t__cbres_t 000000018002e440     frame.obj
 0003:00002480       _swigc__p_f_p_chooser_t_ssize_t__chooser_t__cbret_t 000000018002e480     frame.obj
 0003:000024c0       _swigc__p_f_p_lochist_entry_t_r_q_const__lochist_entry_t_p_TWidget__bool 000000018002e4c0     frame.obj
 0003:00002500       _swigc__p_f_p_q_const__char_p_void__void 000000018002e500     frame.obj
 0003:00002540       _swigc__p_f_p_q_const__char_r_q_const__tinfo_t_p_q_const__char_p_q_const__unsigned_long_long_p_void__int 000000018002e540     frame.obj
 0003:00002580       _swigc__p_f_p_q_const__char_v_______int 000000018002e580     frame.obj
 0003:000025c0       _swigc__p_f_p_void_int_va_list__ssize_t 000000018002e5c0     frame.obj
 0003:00002600       _swigc__p_f_r_q_const__insn_t_p_int_p_int__bool 000000018002e600     frame.obj
 0003:00002640       _swigc__p_f_r_q_const__insn_t_r_q_const__op_t_r_q_const__tinfo_t_p_q_const__char__bool 000000018002e640     frame.obj
 0003:00002680       _swigc__p_f_unsigned_int__bool 000000018002e680     frame.obj
 0003:000026c0       _swigc__p_f_unsigned_int_p_q_const__char_unsigned_int_p_void__int 000000018002e6c0     frame.obj
 0003:00002700       _swigc__p_f_unsigned_int_p_void__bool 000000018002e700     frame.obj
 0003:00002740       _swigc__p_f_unsigned_int_r_q_const__tinfo_t_p_void__int 000000018002e740     frame.obj
 0003:00002780       _swigc__p_f_unsigned_int_unsigned_int__unsigned_int 000000018002e780     frame.obj
 0003:000027c0       _swigc__p_func_t           000000018002e7c0     frame.obj
 0003:00002800       _swigc__p_insn_t           000000018002e800     frame.obj
 0003:00002840       _swigc__p_int              000000018002e840     frame.obj
 0003:00002880       _swigc__p_iterator         000000018002e880     frame.obj
 0003:000028c0       _swigc__p_llabel_t         000000018002e8c0     frame.obj
 0003:00002900       _swigc__p_location_t       000000018002e900     frame.obj
 0003:00002940       _swigc__p_long_long        000000018002e940     frame.obj
 0003:00002980       _swigc__p_member_t         000000018002e980     frame.obj
 0003:000029c0       _swigc__p_op_t             000000018002e9c0     frame.obj
 0003:00002a00       _swigc__p_opinfo_t         000000018002ea00     frame.obj
 0003:00002a40       _swigc__p_qvectorT__qstringT_unsigned_short_t_t 000000018002ea40     frame.obj
 0003:00002a80       _swigc__p_qvectorT_argloc_t_t 000000018002ea80     frame.obj
 0003:00002ac0       _swigc__p_qvectorT_bool_t  000000018002eac0     frame.obj
 0003:00002b00       _swigc__p_qvectorT_channel_redir_t_t 000000018002eb00     frame.obj
 0003:00002b40       _swigc__p_qvectorT_compiled_binpat_t_t 000000018002eb40     frame.obj
 0003:00002b80       _swigc__p_qvectorT_funcarg_t_t 000000018002eb80     frame.obj
 0003:00002bc0       _swigc__p_qvectorT_int_t   000000018002ebc0     frame.obj
 0003:00002c00       _swigc__p_rangevec_t       000000018002ec00     frame.obj
 0003:00002c40       _swigc__p_qvectorT_range_t_t 000000018002ec40     frame.obj
 0003:00002ca0       _swigc__p_qvectorT_rangeset_t_const_p_t 000000018002eca0     frame.obj
 0003:00002ce0       _swigc__p_qvectorT_rangeset_t_t 000000018002ece0     frame.obj
 0003:00002d20       _swigc__p_qvectorT_refinfo_desc_t_t 000000018002ed20     frame.obj
 0003:00002d60       _swigc__p_qvectorT_simd_info_t_t 000000018002ed60     frame.obj
 0003:00002da0       _swigc__p_qvectorT_simpleline_t_t 000000018002eda0     frame.obj
 0003:00002de0       _swigc__p_qvectorT_size_t_t 000000018002ede0     frame.obj
 0003:00002e20       _swigc__p_qvectorT_tinfo_t_t 000000018002ee20     frame.obj
 0003:00002e60       _swigc__p_qvectorT_type_attr_t_t 000000018002ee60     frame.obj
 0003:00002ea0       _swigc__p_qvectorT_udt_member_t_t 000000018002eea0     frame.obj
 0003:00002ee0       _swigc__p_relobj_t         000000018002eee0     frame.obj
 0003:00002f20       _swigc__p_bytevec_t        000000018002ef20     frame.obj
 0003:00002f60       _swigc__p_reloc_info_t     000000018002ef60     frame.obj
 0003:00002fa0       _swigc__p_qvectorT_unsigned_char_t 000000018002efa0     frame.obj
 0003:00003040       _swigc__p_qvectorT_unsigned_int_t 000000018002f040     frame.obj
 0003:00003080       _swigc__p_qvectorT_xreflist_entry_t_t 000000018002f080     frame.obj
 0003:000030c0       _swigc__p_range_t          000000018002f0c0     frame.obj
 0003:00003120       _swigc__p_regvar_t         000000018002f120     frame.obj
 0003:00003160       _swigc__p_short            000000018002f160     frame.obj
 0003:000031a0       _swigc__p_signed_char      000000018002f1a0     frame.obj
 0003:000031e0       _swigc__p_stkpnt_t         000000018002f1e0     frame.obj
 0003:00003220       _swigc__p_stkpnts_t        000000018002f220     frame.obj
 0003:00003260       _swigc__p_struc_t          000000018002f260     frame.obj
 0003:000032a0       _swigc__p_unsigned_char    000000018002f2a0     frame.obj
 0003:000032e0       _swigc__p_unsigned_int     000000018002f2e0     frame.obj
 0003:00003320       _swigc__p_unsigned_long_long 000000018002f320     frame.obj
 0003:00003360       _swigc__p_unsigned_short   000000018002f360     frame.obj
 0003:000033a0       _swigc__p_value_type       000000018002f3a0     frame.obj
 0003:000033e0       _swigc__p_xreflist_entry_t 000000018002f3e0     frame.obj
 0003:00003420       swig_cast_initial          000000018002f420     frame.obj
 0003:000036a0       ?swig_module@@3Uswig_module_info@@A 000000018002f6a0     frame.obj
 0003:000036d0       swigobject_methods         000000018002f6d0     frame.obj
 0003:000037b0       ?swigobject_doc@?1??SwigPyObject_TypeOnce@@9@4PADA 000000018002f7b0     frame.obj
 0003:000037e0       ?swigpacked_doc@?1??SwigPyPacked_TypeOnce@@9@4PADA 000000018002f7e0     frame.obj
 0003:00003810       ?SWIG_module@?1??PyInit__ida_frame@@9@4UPyModuleDef@@A 000000018002f810     frame.obj
 0003:00003a30       ?swig_types@@3PAPEAUswig_type_info@@A 000000018002fa30     frame.obj
 0003:00003cb8       swig_const_table           000000018002fcb8     frame.obj
 0003:00003ce8       Swig_This_global           000000018002fce8     frame.obj
 0003:00003cf8       ?type@?1??SwigPyObject_type@@9@4PEAU_typeobject@@EA 000000018002fcf8     frame.obj
 0003:00003d00       ?$TSS0@?1??SwigPyObject_type@@9@4HA 000000018002fd00     frame.obj
 0003:00003d08       ?type@?1??SwigPyPacked_type@@9@4PEAU_typeobject@@EA 000000018002fd08     frame.obj
 0003:00003d10       ?$TSS0@?1??SwigPyPacked_type@@9@4HA 000000018002fd10     frame.obj
 0003:00003d18       ?type_pointer@?1??SWIG_Python_GetModule@@9@4PEAXEA 000000018002fd18     frame.obj
 0003:00003d20       ?cache@?1??SWIG_Python_TypeCache@@9@4PEAU_object@@EA 000000018002fd20     frame.obj
 0003:00003d28       ?$TSS0@?1??SWIG_Python_TypeCache@@9@4HA 000000018002fd28     frame.obj
 0003:00003d2c       ?init@?1??SWIG_pchar_descriptor@@YAPEAUswig_type_info@@XZ@4HA 000000018002fd2c     frame.obj
 0003:00003d30       ?info@?1??SWIG_pchar_descriptor@@YAPEAUswig_type_info@@XZ@4PEAU2@EA 000000018002fd30     frame.obj
 0003:00003d38       ?_Tss_mutex@@3U_RTL_CRITICAL_SECTION@@A 000000018002fd38     MSVCRT:thread_safe_statics.obj
 0003:00003d60       ?_Tss_cv@@3U_RTL_CONDITION_VARIABLE@@A 000000018002fd60     MSVCRT:thread_safe_statics.obj
 0003:00003d68       ?_Tss_event@@3PEAXEA       000000018002fd68     MSVCRT:thread_safe_statics.obj
 0003:00003d70       ?encoded_sleep_condition_variable_cs@@3P6AHPEAU_RTL_CONDITION_VARIABLE@@PEAU_RTL_CRITICAL_SECTION@@K@ZEA 000000018002fd70     MSVCRT:thread_safe_statics.obj
 0003:00003d78       ?encoded_wake_all_condition_variable@@3P6AXPEAU_RTL_CONDITION_VARIABLE@@@ZEA 000000018002fd78     MSVCRT:thread_safe_statics.obj
 0003:00003d84       ?__proc_attached@@3HA      000000018002fd84     MSVCRT:dll_dllmain.obj
 0003:00003d98       ?is_initialized_as_dll@@3_NA 000000018002fd98     MSVCRT:utility.obj
 0003:00003d99       ?module_local_atexit_table_initialized@@3_NA 000000018002fd99     MSVCRT:utility.obj
 0003:00003da0       ?module_local_atexit_table@@3U_onexit_table_t@@A 000000018002fda0     MSVCRT:utility.obj
 0003:00003db8       ?module_local_at_quick_exit_table@@3U_onexit_table_t@@A 000000018002fdb8     MSVCRT:utility.obj
 0003:00003de0       GS_ExceptionRecord         000000018002fde0     MSVCRT:gs_report.obj
 0003:00003e80       GS_ContextRecord           000000018002fe80     MSVCRT:gs_report.obj
 0004:00000000       $pdata$printf              0000000180031000     frame.obj
 0004:0000000c       $pdata$SWIG_TypeClientData 000000018003100c     frame.obj
 0004:00000018       $pdata$SWIG_MangledTypeQueryModule 0000000180031018     frame.obj
 0004:00000024       $pdata$?SWIG_Python_RaiseOrModifyTypeError@@YAXPEBD@Z 0000000180031024     frame.obj
 0004:00000030       $pdata$?SWIG_Python_UnpackTuple@@YA_JPEAU_object@@PEBD_J2PEAPEAU1@@Z 0000000180031030     frame.obj
 0004:0000003c       $pdata$0$?SWIG_Python_UnpackTuple@@YA_JPEAU_object@@PEBD_J2PEAPEAU1@@Z 000000018003103c     frame.obj
 0004:00000048       $pdata$1$?SWIG_Python_UnpackTuple@@YA_JPEAU_object@@PEBD_J2PEAPEAU1@@Z 0000000180031048     frame.obj
 0004:00000054       $pdata$SwigPyClientData_New 0000000180031054     frame.obj
 0004:00000060       $pdata$2$SwigPyClientData_New 0000000180031060     frame.obj
 0004:0000006c       $pdata$3$SwigPyClientData_New 000000018003106c     frame.obj
 0004:00000078       $pdata$SwigPyObject_repr   0000000180031078     frame.obj
 0004:00000084       $pdata$0$SwigPyObject_repr 0000000180031084     frame.obj
 0004:00000090       $pdata$1$SwigPyObject_repr 0000000180031090     frame.obj
 0004:0000009c       $pdata$SwigPyObject_type   000000018003109c     frame.obj
 0004:000000a8       $pdata$SwigPyObject_Check  00000001800310a8     frame.obj
 0004:000000b4       $pdata$SwigPyObject_New    00000001800310b4     frame.obj
 0004:000000c0       $pdata$SwigPyObject_dealloc 00000001800310c0     frame.obj
 0004:000000cc       $pdata$2$SwigPyObject_dealloc 00000001800310cc     frame.obj
 0004:000000d8       $pdata$3$SwigPyObject_dealloc 00000001800310d8     frame.obj
 0004:000000e4       $pdata$SwigPyObject_append 00000001800310e4     frame.obj
 0004:000000f0       $pdata$SwigPyObject_own    00000001800310f0     frame.obj
 0004:000000fc       $pdata$0$SwigPyObject_own  00000001800310fc     frame.obj
 0004:00000108       $pdata$2$SwigPyObject_own  0000000180031108     frame.obj
 0004:00000114       $pdata$SwigPyPacked_repr   0000000180031114     frame.obj
 0004:00000120       $pdata$0$SwigPyPacked_repr 0000000180031120     frame.obj
 0004:0000012c       $pdata$1$SwigPyPacked_repr 000000018003112c     frame.obj
 0004:00000138       $pdata$SwigPyPacked_str    0000000180031138     frame.obj
 0004:00000144       $pdata$0$SwigPyPacked_str  0000000180031144     frame.obj
 0004:00000150       $pdata$1$SwigPyPacked_str  0000000180031150     frame.obj
 0004:0000015c       $pdata$SwigPyPacked_type   000000018003115c     frame.obj
 0004:00000168       $pdata$SwigPyPacked_Check  0000000180031168     frame.obj
 0004:00000174       $pdata$SwigPyPacked_dealloc 0000000180031174     frame.obj
 0004:00000180       $pdata$SWIG_This           0000000180031180     frame.obj
 0004:0000018c       $pdata$SWIG_Python_GetSwigThis 000000018003118c     frame.obj
 0004:00000198       $pdata$SWIG_Python_InitShadowInstance 0000000180031198     frame.obj
 0004:000001a4       $pdata$SWIG_Python_NewPointerObj 00000001800311a4     frame.obj
 0004:000001b0       $pdata$SWIG_Python_DestroyModule 00000001800311b0     frame.obj
 0004:000001bc       $pdata$2$SWIG_Python_DestroyModule 00000001800311bc     frame.obj
 0004:000001c8       $pdata$3$SWIG_Python_DestroyModule 00000001800311c8     frame.obj
 0004:000001d4       $pdata$4$SWIG_Python_DestroyModule 00000001800311d4     frame.obj
 0004:000001e0       $pdata$5$SWIG_Python_DestroyModule 00000001800311e0     frame.obj
 0004:000001ec       $pdata$SWIG_Python_TypeCache 00000001800311ec     frame.obj
 0004:000001f8       $pdata$SWIG_Python_TypeQuery 00000001800311f8     frame.obj
 0004:00000204       $pdata$1$SWIG_Python_TypeQuery 0000000180031204     frame.obj
 0004:00000210       $pdata$5$SWIG_Python_TypeQuery 0000000180031210     frame.obj
 0004:0000021c       $pdata$6$SWIG_Python_TypeQuery 000000018003121c     frame.obj
 0004:00000228       $pdata$7$SWIG_Python_TypeQuery 0000000180031228     frame.obj
 0004:00000234       $pdata$??0exception@std@@QEAA@AEBV01@@Z 0000000180031234     frame.obj
 0004:00000240       $pdata$??_Gexception@std@@UEAAPEAXI@Z 0000000180031240     frame.obj
 0004:00000240       $pdata$??_Gout_of_range@std@@UEAAPEAXI@Z 0000000180031240     frame.obj
 0004:00000240       $pdata$??_Gbad_alloc@std@@UEAAPEAXI@Z 0000000180031240     MSVCRT:throw_bad_alloc.obj
 0004:00000240       $pdata$??_Glogic_error@std@@UEAAPEAXI@Z 0000000180031240     frame.obj
 0004:00000240       $pdata$??_Gbad_array_new_length@std@@UEAAPEAXI@Z 0000000180031240     MSVCRT:throw_bad_alloc.obj
 0004:0000024c       $pdata$??0logic_error@std@@QEAA@AEBV01@@Z 000000018003124c     frame.obj
 0004:00000258       $pdata$??0out_of_range@std@@QEAA@PEBD@Z 0000000180031258     frame.obj
 0004:00000264       $pdata$??0out_of_range@std@@QEAA@AEBV01@@Z 0000000180031264     frame.obj
 0004:00000270       $pdata$?sprnt@?$_qstring@D@@QEAAAEAV1@PEBDZZ 0000000180031270     frame.obj
 0004:0000027c       $pdata$?__raise_e@@YAXAEBVexception@std@@@Z 000000018003127c     frame.obj
 0004:00000288       $pdata$?__raise_ie@@YAXAEBUinterr_exc_t@@@Z 0000000180031288     frame.obj
 0004:00000294       $pdata$?push_back@?$qvector@Uxreflist_entry_t@@@@QEAAXAEBUxreflist_entry_t@@@Z 0000000180031294     frame.obj
 0004:000002a0       $pdata$?resize@?$qvector@Uxreflist_entry_t@@@@QEAAX_KAEBUxreflist_entry_t@@@Z 00000001800312a0     frame.obj
 0004:000002ac       $pdata$?SWIG_AsVal_unsigned_SS_int@@YAHPEAU_object@@PEAI@Z 00000001800312ac     frame.obj
 0004:000002b8       $pdata$?SWIG_FromCharPtr@@YAPEAU_object@@PEBD@Z 00000001800312b8     frame.obj
 0004:000002c4       $pdata$_wrap_new_xreflist_t__SWIG_0 00000001800312c4     frame.obj
 0004:000002d0       $pdata$_wrap_new_xreflist_t__SWIG_0$catch$6 00000001800312d0     frame.obj
 0004:000002dc       $pdata$_wrap_new_xreflist_t__SWIG_0$catch$5 00000001800312dc     frame.obj
 0004:000002e8       $pdata$_wrap_new_xreflist_t__SWIG_0$catch$4 00000001800312e8     frame.obj
 0004:000002f4       $pdata$_wrap_new_xreflist_t__SWIG_0$catch$3 00000001800312f4     frame.obj
 0004:00000300       $pdata$_wrap_new_xreflist_t__SWIG_0$catch$2 0000000180031300     frame.obj
 0004:0000030c       $pdata$_wrap_new_xreflist_t__SWIG_0$catch$1 000000018003130c     frame.obj
 0004:00000318       $pdata$_wrap_new_xreflist_t__SWIG_1 0000000180031318     frame.obj
 0004:00000324       $pdata$_wrap_new_xreflist_t__SWIG_1$catch$6 0000000180031324     frame.obj
 0004:00000330       $pdata$_wrap_new_xreflist_t__SWIG_1$catch$5 0000000180031330     frame.obj
 0004:0000033c       $pdata$_wrap_new_xreflist_t__SWIG_1$catch$4 000000018003133c     frame.obj
 0004:00000348       $pdata$_wrap_new_xreflist_t__SWIG_1$catch$3 0000000180031348     frame.obj
 0004:00000354       $pdata$_wrap_new_xreflist_t__SWIG_1$catch$2 0000000180031354     frame.obj
 0004:00000360       $pdata$_wrap_new_xreflist_t__SWIG_1$catch$1 0000000180031360     frame.obj
 0004:0000036c       $pdata$_wrap_new_xreflist_t 000000018003136c     frame.obj
 0004:00000378       $pdata$_wrap_delete_xreflist_t 0000000180031378     frame.obj
 0004:00000384       $pdata$_wrap_delete_xreflist_t$catch$5 0000000180031384     frame.obj
 0004:00000390       $pdata$_wrap_delete_xreflist_t$catch$4 0000000180031390     frame.obj
 0004:0000039c       $pdata$_wrap_delete_xreflist_t$catch$3 000000018003139c     frame.obj
 0004:000003a8       $pdata$_wrap_delete_xreflist_t$catch$2 00000001800313a8     frame.obj
 0004:000003b4       $pdata$_wrap_delete_xreflist_t$catch$1 00000001800313b4     frame.obj
 0004:000003c0       $pdata$_wrap_delete_xreflist_t$catch$0 00000001800313c0     frame.obj
 0004:000003cc       $pdata$_wrap_xreflist_t_push_back__SWIG_0 00000001800313cc     frame.obj
 0004:000003d8       $pdata$_wrap_xreflist_t_push_back__SWIG_0$catch$5 00000001800313d8     frame.obj
 0004:000003e4       $pdata$_wrap_xreflist_t_push_back__SWIG_0$catch$4 00000001800313e4     frame.obj
 0004:000003f0       $pdata$_wrap_xreflist_t_push_back__SWIG_0$catch$3 00000001800313f0     frame.obj
 0004:000003fc       $pdata$_wrap_xreflist_t_push_back__SWIG_0$catch$2 00000001800313fc     frame.obj
 0004:00000408       $pdata$_wrap_xreflist_t_push_back__SWIG_0$catch$1 0000000180031408     frame.obj
 0004:00000414       $pdata$_wrap_xreflist_t_push_back__SWIG_0$catch$0 0000000180031414     frame.obj
 0004:00000420       $pdata$_wrap_xreflist_t_push_back__SWIG_1 0000000180031420     frame.obj
 0004:0000042c       $pdata$_wrap_xreflist_t_push_back__SWIG_1$catch$5 000000018003142c     frame.obj
 0004:00000438       $pdata$_wrap_xreflist_t_push_back__SWIG_1$catch$4 0000000180031438     frame.obj
 0004:00000444       $pdata$_wrap_xreflist_t_push_back__SWIG_1$catch$3 0000000180031444     frame.obj
 0004:00000450       $pdata$_wrap_xreflist_t_push_back__SWIG_1$catch$2 0000000180031450     frame.obj
 0004:0000045c       $pdata$_wrap_xreflist_t_push_back__SWIG_1$catch$1 000000018003145c     frame.obj
 0004:00000468       $pdata$_wrap_xreflist_t_push_back__SWIG_1$catch$0 0000000180031468     frame.obj
 0004:00000474       $pdata$_wrap_xreflist_t_push_back 0000000180031474     frame.obj
 0004:00000480       $pdata$_wrap_xreflist_t_pop_back 0000000180031480     frame.obj
 0004:0000048c       $pdata$_wrap_xreflist_t_pop_back$catch$5 000000018003148c     frame.obj
 0004:00000498       $pdata$_wrap_xreflist_t_pop_back$catch$4 0000000180031498     frame.obj
 0004:000004a4       $pdata$_wrap_xreflist_t_pop_back$catch$3 00000001800314a4     frame.obj
 0004:000004b0       $pdata$_wrap_xreflist_t_pop_back$catch$2 00000001800314b0     frame.obj
 0004:000004bc       $pdata$_wrap_xreflist_t_pop_back$catch$1 00000001800314bc     frame.obj
 0004:000004c8       $pdata$_wrap_xreflist_t_pop_back$catch$0 00000001800314c8     frame.obj
 0004:000004d4       $pdata$_wrap_xreflist_t_size 00000001800314d4     frame.obj
 0004:000004e0       $pdata$_wrap_xreflist_t_size$catch$5 00000001800314e0     frame.obj
 0004:000004ec       $pdata$_wrap_xreflist_t_size$catch$4 00000001800314ec     frame.obj
 0004:000004f8       $pdata$_wrap_xreflist_t_size$catch$3 00000001800314f8     frame.obj
 0004:00000504       $pdata$_wrap_xreflist_t_size$catch$2 0000000180031504     frame.obj
 0004:00000510       $pdata$_wrap_xreflist_t_size$catch$1 0000000180031510     frame.obj
 0004:0000051c       $pdata$_wrap_xreflist_t_size$catch$0 000000018003151c     frame.obj
 0004:00000528       $pdata$_wrap_xreflist_t_empty 0000000180031528     frame.obj
 0004:00000534       $pdata$_wrap_xreflist_t_empty$catch$5 0000000180031534     frame.obj
 0004:00000540       $pdata$_wrap_xreflist_t_empty$catch$4 0000000180031540     frame.obj
 0004:0000054c       $pdata$_wrap_xreflist_t_empty$catch$3 000000018003154c     frame.obj
 0004:00000558       $pdata$_wrap_xreflist_t_empty$catch$2 0000000180031558     frame.obj
 0004:00000564       $pdata$_wrap_xreflist_t_empty$catch$1 0000000180031564     frame.obj
 0004:00000570       $pdata$_wrap_xreflist_t_empty$catch$0 0000000180031570     frame.obj
 0004:0000057c       $pdata$_wrap_xreflist_t_at 000000018003157c     frame.obj
 0004:00000588       $pdata$_wrap_xreflist_t_at$catch$5 0000000180031588     frame.obj
 0004:00000594       $pdata$_wrap_xreflist_t_at$catch$4 0000000180031594     frame.obj
 0004:000005a0       $pdata$_wrap_xreflist_t_at$catch$3 00000001800315a0     frame.obj
 0004:000005ac       $pdata$_wrap_xreflist_t_at$catch$2 00000001800315ac     frame.obj
 0004:000005b8       $pdata$_wrap_xreflist_t_at$catch$1 00000001800315b8     frame.obj
 0004:000005c4       $pdata$_wrap_xreflist_t_at$catch$0 00000001800315c4     frame.obj
 0004:000005d0       $pdata$_wrap_xreflist_t_qclear 00000001800315d0     frame.obj
 0004:000005dc       $pdata$_wrap_xreflist_t_qclear$catch$5 00000001800315dc     frame.obj
 0004:000005e8       $pdata$_wrap_xreflist_t_qclear$catch$4 00000001800315e8     frame.obj
 0004:000005f4       $pdata$_wrap_xreflist_t_qclear$catch$3 00000001800315f4     frame.obj
 0004:00000600       $pdata$_wrap_xreflist_t_qclear$catch$2 0000000180031600     frame.obj
 0004:0000060c       $pdata$_wrap_xreflist_t_qclear$catch$1 000000018003160c     frame.obj
 0004:00000618       $pdata$_wrap_xreflist_t_qclear$catch$0 0000000180031618     frame.obj
 0004:00000624       $pdata$_wrap_xreflist_t_clear 0000000180031624     frame.obj
 0004:00000630       $pdata$_wrap_xreflist_t_clear$catch$5 0000000180031630     frame.obj
 0004:0000063c       $pdata$_wrap_xreflist_t_clear$catch$4 000000018003163c     frame.obj
 0004:00000648       $pdata$_wrap_xreflist_t_clear$catch$3 0000000180031648     frame.obj
 0004:00000654       $pdata$_wrap_xreflist_t_clear$catch$2 0000000180031654     frame.obj
 0004:00000660       $pdata$_wrap_xreflist_t_clear$catch$1 0000000180031660     frame.obj
 0004:0000066c       $pdata$_wrap_xreflist_t_clear$catch$0 000000018003166c     frame.obj
 0004:00000678       $pdata$_wrap_xreflist_t_resize__SWIG_0 0000000180031678     frame.obj
 0004:00000684       $pdata$_wrap_xreflist_t_resize__SWIG_0$catch$5 0000000180031684     frame.obj
 0004:00000690       $pdata$_wrap_xreflist_t_resize__SWIG_0$catch$4 0000000180031690     frame.obj
 0004:0000069c       $pdata$_wrap_xreflist_t_resize__SWIG_0$catch$3 000000018003169c     frame.obj
 0004:000006a8       $pdata$_wrap_xreflist_t_resize__SWIG_0$catch$2 00000001800316a8     frame.obj
 0004:000006b4       $pdata$_wrap_xreflist_t_resize__SWIG_0$catch$1 00000001800316b4     frame.obj
 0004:000006c0       $pdata$_wrap_xreflist_t_resize__SWIG_0$catch$0 00000001800316c0     frame.obj
 0004:000006cc       $pdata$_wrap_xreflist_t_resize__SWIG_1 00000001800316cc     frame.obj
 0004:000006d8       $pdata$_wrap_xreflist_t_resize__SWIG_1$catch$5 00000001800316d8     frame.obj
 0004:000006e4       $pdata$_wrap_xreflist_t_resize__SWIG_1$catch$4 00000001800316e4     frame.obj
 0004:000006f0       $pdata$_wrap_xreflist_t_resize__SWIG_1$catch$3 00000001800316f0     frame.obj
 0004:000006fc       $pdata$_wrap_xreflist_t_resize__SWIG_1$catch$2 00000001800316fc     frame.obj
 0004:00000708       $pdata$_wrap_xreflist_t_resize__SWIG_1$catch$1 0000000180031708     frame.obj
 0004:00000714       $pdata$_wrap_xreflist_t_resize__SWIG_1$catch$0 0000000180031714     frame.obj
 0004:00000720       $pdata$_wrap_xreflist_t_resize 0000000180031720     frame.obj
 0004:0000072c       $pdata$_wrap_xreflist_t_grow 000000018003172c     frame.obj
 0004:00000738       $pdata$_wrap_xreflist_t_grow$catch$5 0000000180031738     frame.obj
 0004:00000744       $pdata$_wrap_xreflist_t_grow$catch$4 0000000180031744     frame.obj
 0004:00000750       $pdata$_wrap_xreflist_t_grow$catch$3 0000000180031750     frame.obj
 0004:0000075c       $pdata$_wrap_xreflist_t_grow$catch$2 000000018003175c     frame.obj
 0004:00000768       $pdata$_wrap_xreflist_t_grow$catch$1 0000000180031768     frame.obj
 0004:00000774       $pdata$_wrap_xreflist_t_grow$catch$0 0000000180031774     frame.obj
 0004:00000780       $pdata$_wrap_xreflist_t_capacity 0000000180031780     frame.obj
 0004:0000078c       $pdata$_wrap_xreflist_t_capacity$catch$5 000000018003178c     frame.obj
 0004:00000798       $pdata$_wrap_xreflist_t_capacity$catch$4 0000000180031798     frame.obj
 0004:000007a4       $pdata$_wrap_xreflist_t_capacity$catch$3 00000001800317a4     frame.obj
 0004:000007b0       $pdata$_wrap_xreflist_t_capacity$catch$2 00000001800317b0     frame.obj
 0004:000007bc       $pdata$_wrap_xreflist_t_capacity$catch$1 00000001800317bc     frame.obj
 0004:000007c8       $pdata$_wrap_xreflist_t_capacity$catch$0 00000001800317c8     frame.obj
 0004:000007d4       $pdata$_wrap_xreflist_t_reserve 00000001800317d4     frame.obj
 0004:000007e0       $pdata$_wrap_xreflist_t_reserve$catch$5 00000001800317e0     frame.obj
 0004:000007ec       $pdata$_wrap_xreflist_t_reserve$catch$4 00000001800317ec     frame.obj
 0004:000007f8       $pdata$_wrap_xreflist_t_reserve$catch$3 00000001800317f8     frame.obj
 0004:00000804       $pdata$_wrap_xreflist_t_reserve$catch$2 0000000180031804     frame.obj
 0004:00000810       $pdata$_wrap_xreflist_t_reserve$catch$1 0000000180031810     frame.obj
 0004:0000081c       $pdata$_wrap_xreflist_t_reserve$catch$0 000000018003181c     frame.obj
 0004:00000828       $pdata$_wrap_xreflist_t_truncate 0000000180031828     frame.obj
 0004:00000834       $pdata$_wrap_xreflist_t_truncate$catch$5 0000000180031834     frame.obj
 0004:00000840       $pdata$_wrap_xreflist_t_truncate$catch$4 0000000180031840     frame.obj
 0004:0000084c       $pdata$_wrap_xreflist_t_truncate$catch$3 000000018003184c     frame.obj
 0004:00000858       $pdata$_wrap_xreflist_t_truncate$catch$2 0000000180031858     frame.obj
 0004:00000864       $pdata$_wrap_xreflist_t_truncate$catch$1 0000000180031864     frame.obj
 0004:00000870       $pdata$_wrap_xreflist_t_truncate$catch$0 0000000180031870     frame.obj
 0004:0000087c       $pdata$_wrap_xreflist_t_swap 000000018003187c     frame.obj
 0004:00000888       $pdata$_wrap_xreflist_t_swap$catch$5 0000000180031888     frame.obj
 0004:00000894       $pdata$_wrap_xreflist_t_swap$catch$4 0000000180031894     frame.obj
 0004:000008a0       $pdata$_wrap_xreflist_t_swap$catch$3 00000001800318a0     frame.obj
 0004:000008ac       $pdata$_wrap_xreflist_t_swap$catch$2 00000001800318ac     frame.obj
 0004:000008b8       $pdata$_wrap_xreflist_t_swap$catch$1 00000001800318b8     frame.obj
 0004:000008c4       $pdata$_wrap_xreflist_t_swap$catch$0 00000001800318c4     frame.obj
 0004:000008d0       $pdata$_wrap_xreflist_t_extract 00000001800318d0     frame.obj
 0004:000008dc       $pdata$_wrap_xreflist_t_extract$catch$5 00000001800318dc     frame.obj
 0004:000008e8       $pdata$_wrap_xreflist_t_extract$catch$4 00000001800318e8     frame.obj
 0004:000008f4       $pdata$_wrap_xreflist_t_extract$catch$3 00000001800318f4     frame.obj
 0004:00000900       $pdata$_wrap_xreflist_t_extract$catch$2 0000000180031900     frame.obj
 0004:0000090c       $pdata$_wrap_xreflist_t_extract$catch$1 000000018003190c     frame.obj
 0004:00000918       $pdata$_wrap_xreflist_t_extract$catch$0 0000000180031918     frame.obj
 0004:00000924       $pdata$_wrap_xreflist_t_inject 0000000180031924     frame.obj
 0004:00000930       $pdata$_wrap_xreflist_t_inject$catch$5 0000000180031930     frame.obj
 0004:0000093c       $pdata$_wrap_xreflist_t_inject$catch$4 000000018003193c     frame.obj
 0004:00000948       $pdata$_wrap_xreflist_t_inject$catch$3 0000000180031948     frame.obj
 0004:00000954       $pdata$_wrap_xreflist_t_inject$catch$2 0000000180031954     frame.obj
 0004:00000960       $pdata$_wrap_xreflist_t_inject$catch$1 0000000180031960     frame.obj
 0004:0000096c       $pdata$_wrap_xreflist_t_inject$catch$0 000000018003196c     frame.obj
 0004:00000978       $pdata$_wrap_xreflist_t___eq__ 0000000180031978     frame.obj
 0004:00000984       $pdata$_wrap_xreflist_t___eq__$catch$5 0000000180031984     frame.obj
 0004:00000990       $pdata$_wrap_xreflist_t___eq__$catch$4 0000000180031990     frame.obj
 0004:0000099c       $pdata$_wrap_xreflist_t___eq__$catch$3 000000018003199c     frame.obj
 0004:000009a8       $pdata$_wrap_xreflist_t___eq__$catch$2 00000001800319a8     frame.obj
 0004:000009b4       $pdata$_wrap_xreflist_t___eq__$catch$1 00000001800319b4     frame.obj
 0004:000009c0       $pdata$_wrap_xreflist_t___eq__$catch$0 00000001800319c0     frame.obj
 0004:000009cc       $pdata$_wrap_xreflist_t___ne__ 00000001800319cc     frame.obj
 0004:000009d8       $pdata$_wrap_xreflist_t___ne__$catch$5 00000001800319d8     frame.obj
 0004:000009e4       $pdata$_wrap_xreflist_t___ne__$catch$4 00000001800319e4     frame.obj
 0004:000009f0       $pdata$_wrap_xreflist_t___ne__$catch$3 00000001800319f0     frame.obj
 0004:000009fc       $pdata$_wrap_xreflist_t___ne__$catch$2 00000001800319fc     frame.obj
 0004:00000a08       $pdata$_wrap_xreflist_t___ne__$catch$1 0000000180031a08     frame.obj
 0004:00000a14       $pdata$_wrap_xreflist_t___ne__$catch$0 0000000180031a14     frame.obj
 0004:00000a20       $pdata$_wrap_xreflist_t_begin__SWIG_0 0000000180031a20     frame.obj
 0004:00000a2c       $pdata$_wrap_xreflist_t_begin__SWIG_0$catch$5 0000000180031a2c     frame.obj
 0004:00000a38       $pdata$_wrap_xreflist_t_begin__SWIG_0$catch$4 0000000180031a38     frame.obj
 0004:00000a44       $pdata$_wrap_xreflist_t_begin__SWIG_0$catch$3 0000000180031a44     frame.obj
 0004:00000a50       $pdata$_wrap_xreflist_t_begin__SWIG_0$catch$2 0000000180031a50     frame.obj
 0004:00000a5c       $pdata$_wrap_xreflist_t_begin__SWIG_0$catch$1 0000000180031a5c     frame.obj
 0004:00000a68       $pdata$_wrap_xreflist_t_begin__SWIG_0$catch$0 0000000180031a68     frame.obj
 0004:00000a74       $pdata$_wrap_xreflist_t_end__SWIG_0 0000000180031a74     frame.obj
 0004:00000a80       $pdata$_wrap_xreflist_t_end__SWIG_0$catch$5 0000000180031a80     frame.obj
 0004:00000a8c       $pdata$_wrap_xreflist_t_end__SWIG_0$catch$4 0000000180031a8c     frame.obj
 0004:00000a98       $pdata$_wrap_xreflist_t_end__SWIG_0$catch$3 0000000180031a98     frame.obj
 0004:00000aa4       $pdata$_wrap_xreflist_t_end__SWIG_0$catch$2 0000000180031aa4     frame.obj
 0004:00000ab0       $pdata$_wrap_xreflist_t_end__SWIG_0$catch$1 0000000180031ab0     frame.obj
 0004:00000abc       $pdata$_wrap_xreflist_t_end__SWIG_0$catch$0 0000000180031abc     frame.obj
 0004:00000ac8       $pdata$_wrap_xreflist_t_begin__SWIG_1 0000000180031ac8     frame.obj
 0004:00000ad4       $pdata$_wrap_xreflist_t_begin__SWIG_1$catch$5 0000000180031ad4     frame.obj
 0004:00000ae0       $pdata$_wrap_xreflist_t_begin__SWIG_1$catch$4 0000000180031ae0     frame.obj
 0004:00000aec       $pdata$_wrap_xreflist_t_begin__SWIG_1$catch$3 0000000180031aec     frame.obj
 0004:00000af8       $pdata$_wrap_xreflist_t_begin__SWIG_1$catch$2 0000000180031af8     frame.obj
 0004:00000b04       $pdata$_wrap_xreflist_t_begin__SWIG_1$catch$1 0000000180031b04     frame.obj
 0004:00000b10       $pdata$_wrap_xreflist_t_begin__SWIG_1$catch$0 0000000180031b10     frame.obj
 0004:00000b1c       $pdata$_wrap_xreflist_t_begin 0000000180031b1c     frame.obj
 0004:00000b28       $pdata$_wrap_xreflist_t_end__SWIG_1 0000000180031b28     frame.obj
 0004:00000b34       $pdata$_wrap_xreflist_t_end__SWIG_1$catch$5 0000000180031b34     frame.obj
 0004:00000b40       $pdata$_wrap_xreflist_t_end__SWIG_1$catch$4 0000000180031b40     frame.obj
 0004:00000b4c       $pdata$_wrap_xreflist_t_end__SWIG_1$catch$3 0000000180031b4c     frame.obj
 0004:00000b58       $pdata$_wrap_xreflist_t_end__SWIG_1$catch$2 0000000180031b58     frame.obj
 0004:00000b64       $pdata$_wrap_xreflist_t_end__SWIG_1$catch$1 0000000180031b64     frame.obj
 0004:00000b70       $pdata$_wrap_xreflist_t_end__SWIG_1$catch$0 0000000180031b70     frame.obj
 0004:00000b7c       $pdata$_wrap_xreflist_t_end 0000000180031b7c     frame.obj
 0004:00000b88       $pdata$_wrap_xreflist_t_insert 0000000180031b88     frame.obj
 0004:00000b94       $pdata$_wrap_xreflist_t_insert$catch$5 0000000180031b94     frame.obj
 0004:00000ba0       $pdata$_wrap_xreflist_t_insert$catch$4 0000000180031ba0     frame.obj
 0004:00000bac       $pdata$_wrap_xreflist_t_insert$catch$3 0000000180031bac     frame.obj
 0004:00000bb8       $pdata$_wrap_xreflist_t_insert$catch$2 0000000180031bb8     frame.obj
 0004:00000bc4       $pdata$_wrap_xreflist_t_insert$catch$1 0000000180031bc4     frame.obj
 0004:00000bd0       $pdata$_wrap_xreflist_t_insert$catch$0 0000000180031bd0     frame.obj
 0004:00000bdc       $pdata$_wrap_xreflist_t_erase__SWIG_0 0000000180031bdc     frame.obj
 0004:00000be8       $pdata$_wrap_xreflist_t_erase__SWIG_0$catch$5 0000000180031be8     frame.obj
 0004:00000bf4       $pdata$_wrap_xreflist_t_erase__SWIG_0$catch$4 0000000180031bf4     frame.obj
 0004:00000c00       $pdata$_wrap_xreflist_t_erase__SWIG_0$catch$3 0000000180031c00     frame.obj
 0004:00000c0c       $pdata$_wrap_xreflist_t_erase__SWIG_0$catch$2 0000000180031c0c     frame.obj
 0004:00000c18       $pdata$_wrap_xreflist_t_erase__SWIG_0$catch$1 0000000180031c18     frame.obj
 0004:00000c24       $pdata$_wrap_xreflist_t_erase__SWIG_0$catch$0 0000000180031c24     frame.obj
 0004:00000c30       $pdata$_wrap_xreflist_t_erase__SWIG_1 0000000180031c30     frame.obj
 0004:00000c3c       $pdata$_wrap_xreflist_t_erase__SWIG_1$catch$5 0000000180031c3c     frame.obj
 0004:00000c48       $pdata$_wrap_xreflist_t_erase__SWIG_1$catch$4 0000000180031c48     frame.obj
 0004:00000c54       $pdata$_wrap_xreflist_t_erase__SWIG_1$catch$3 0000000180031c54     frame.obj
 0004:00000c60       $pdata$_wrap_xreflist_t_erase__SWIG_1$catch$2 0000000180031c60     frame.obj
 0004:00000c6c       $pdata$_wrap_xreflist_t_erase__SWIG_1$catch$1 0000000180031c6c     frame.obj
 0004:00000c78       $pdata$_wrap_xreflist_t_erase__SWIG_1$catch$0 0000000180031c78     frame.obj
 0004:00000c84       $pdata$_wrap_xreflist_t_erase 0000000180031c84     frame.obj
 0004:00000c90       $pdata$_wrap_xreflist_t_find__SWIG_0 0000000180031c90     frame.obj
 0004:00000c9c       $pdata$_wrap_xreflist_t_find__SWIG_0$catch$5 0000000180031c9c     frame.obj
 0004:00000ca8       $pdata$_wrap_xreflist_t_find__SWIG_0$catch$4 0000000180031ca8     frame.obj
 0004:00000cb4       $pdata$_wrap_xreflist_t_find__SWIG_0$catch$3 0000000180031cb4     frame.obj
 0004:00000cc0       $pdata$_wrap_xreflist_t_find__SWIG_0$catch$2 0000000180031cc0     frame.obj
 0004:00000ccc       $pdata$_wrap_xreflist_t_find__SWIG_0$catch$1 0000000180031ccc     frame.obj
 0004:00000cd8       $pdata$_wrap_xreflist_t_find__SWIG_0$catch$0 0000000180031cd8     frame.obj
 0004:00000ce4       $pdata$_wrap_xreflist_t_find__SWIG_1 0000000180031ce4     frame.obj
 0004:00000cf0       $pdata$_wrap_xreflist_t_find__SWIG_1$catch$5 0000000180031cf0     frame.obj
 0004:00000cfc       $pdata$_wrap_xreflist_t_find__SWIG_1$catch$4 0000000180031cfc     frame.obj
 0004:00000d08       $pdata$_wrap_xreflist_t_find__SWIG_1$catch$3 0000000180031d08     frame.obj
 0004:00000d14       $pdata$_wrap_xreflist_t_find__SWIG_1$catch$2 0000000180031d14     frame.obj
 0004:00000d20       $pdata$_wrap_xreflist_t_find__SWIG_1$catch$1 0000000180031d20     frame.obj
 0004:00000d2c       $pdata$_wrap_xreflist_t_find__SWIG_1$catch$0 0000000180031d2c     frame.obj
 0004:00000d38       $pdata$_wrap_xreflist_t_find 0000000180031d38     frame.obj
 0004:00000d44       $pdata$_wrap_xreflist_t_has 0000000180031d44     frame.obj
 0004:00000d50       $pdata$_wrap_xreflist_t_has$catch$5 0000000180031d50     frame.obj
 0004:00000d5c       $pdata$_wrap_xreflist_t_has$catch$4 0000000180031d5c     frame.obj
 0004:00000d68       $pdata$_wrap_xreflist_t_has$catch$3 0000000180031d68     frame.obj
 0004:00000d74       $pdata$_wrap_xreflist_t_has$catch$2 0000000180031d74     frame.obj
 0004:00000d80       $pdata$_wrap_xreflist_t_has$catch$1 0000000180031d80     frame.obj
 0004:00000d8c       $pdata$_wrap_xreflist_t_has$catch$0 0000000180031d8c     frame.obj
 0004:00000d98       $pdata$_wrap_xreflist_t_add_unique 0000000180031d98     frame.obj
 0004:00000da4       $pdata$_wrap_xreflist_t_add_unique$catch$5 0000000180031da4     frame.obj
 0004:00000db0       $pdata$_wrap_xreflist_t_add_unique$catch$4 0000000180031db0     frame.obj
 0004:00000dbc       $pdata$_wrap_xreflist_t_add_unique$catch$3 0000000180031dbc     frame.obj
 0004:00000dc8       $pdata$_wrap_xreflist_t_add_unique$catch$2 0000000180031dc8     frame.obj
 0004:00000dd4       $pdata$_wrap_xreflist_t_add_unique$catch$1 0000000180031dd4     frame.obj
 0004:00000de0       $pdata$_wrap_xreflist_t_add_unique$catch$0 0000000180031de0     frame.obj
 0004:00000dec       $pdata$_wrap_xreflist_t__del 0000000180031dec     frame.obj
 0004:00000df8       $pdata$_wrap_xreflist_t__del$catch$5 0000000180031df8     frame.obj
 0004:00000e04       $pdata$_wrap_xreflist_t__del$catch$4 0000000180031e04     frame.obj
 0004:00000e10       $pdata$_wrap_xreflist_t__del$catch$3 0000000180031e10     frame.obj
 0004:00000e1c       $pdata$_wrap_xreflist_t__del$catch$2 0000000180031e1c     frame.obj
 0004:00000e28       $pdata$_wrap_xreflist_t__del$catch$1 0000000180031e28     frame.obj
 0004:00000e34       $pdata$_wrap_xreflist_t__del$catch$0 0000000180031e34     frame.obj
 0004:00000e40       $pdata$_wrap_xreflist_t___len__ 0000000180031e40     frame.obj
 0004:00000e4c       $pdata$_wrap_xreflist_t___len__$catch$5 0000000180031e4c     frame.obj
 0004:00000e58       $pdata$_wrap_xreflist_t___len__$catch$4 0000000180031e58     frame.obj
 0004:00000e64       $pdata$_wrap_xreflist_t___len__$catch$3 0000000180031e64     frame.obj
 0004:00000e70       $pdata$_wrap_xreflist_t___len__$catch$2 0000000180031e70     frame.obj
 0004:00000e7c       $pdata$_wrap_xreflist_t___len__$catch$1 0000000180031e7c     frame.obj
 0004:00000e88       $pdata$_wrap_xreflist_t___len__$catch$0 0000000180031e88     frame.obj
 0004:00000e94       $pdata$_wrap_xreflist_t___getitem__ 0000000180031e94     frame.obj
 0004:00000ea0       $pdata$_wrap_xreflist_t___getitem__$catch$0 0000000180031ea0     frame.obj
 0004:00000eac       $pdata$_wrap_xreflist_t___getitem__$catch$1 0000000180031eac     frame.obj
 0004:00000eb8       $pdata$_wrap_xreflist_t___getitem__$catch$2 0000000180031eb8     frame.obj
 0004:00000ec4       $pdata$_wrap_xreflist_t___getitem__$catch$3 0000000180031ec4     frame.obj
 0004:00000ed0       $pdata$_wrap_xreflist_t___getitem__$catch$4 0000000180031ed0     frame.obj
 0004:00000edc       $pdata$_wrap_xreflist_t___getitem__$catch$5 0000000180031edc     frame.obj
 0004:00000ee8       $pdata$_wrap_xreflist_t___setitem__ 0000000180031ee8     frame.obj
 0004:00000ef4       $pdata$_wrap_xreflist_t___setitem__$catch$0 0000000180031ef4     frame.obj
 0004:00000f00       $pdata$_wrap_xreflist_t___setitem__$catch$1 0000000180031f00     frame.obj
 0004:00000f0c       $pdata$_wrap_xreflist_t___setitem__$catch$2 0000000180031f0c     frame.obj
 0004:00000f18       $pdata$_wrap_xreflist_t___setitem__$catch$3 0000000180031f18     frame.obj
 0004:00000f24       $pdata$_wrap_xreflist_t___setitem__$catch$4 0000000180031f24     frame.obj
 0004:00000f30       $pdata$_wrap_xreflist_t___setitem__$catch$5 0000000180031f30     frame.obj
 0004:00000f3c       $pdata$xreflist_t_swigregister 0000000180031f3c     frame.obj
 0004:00000f48       $pdata$_wrap_get_stkvar    0000000180031f48     frame.obj
 0004:00000f54       $pdata$_wrap_get_stkvar$catch$5 0000000180031f54     frame.obj
 0004:00000f60       $pdata$_wrap_get_stkvar$catch$4 0000000180031f60     frame.obj
 0004:00000f6c       $pdata$_wrap_get_stkvar$catch$3 0000000180031f6c     frame.obj
 0004:00000f78       $pdata$_wrap_get_stkvar$catch$2 0000000180031f78     frame.obj
 0004:00000f84       $pdata$_wrap_get_stkvar$catch$1 0000000180031f84     frame.obj
 0004:00000f90       $pdata$_wrap_get_stkvar$catch$0 0000000180031f90     frame.obj
 0004:00000f9c       $pdata$_wrap_stkpnt_t_ea_set 0000000180031f9c     frame.obj
 0004:00000fa8       $pdata$0$_wrap_stkpnt_t_ea_set 0000000180031fa8     frame.obj
 0004:00000fb4       $pdata$1$_wrap_stkpnt_t_ea_set 0000000180031fb4     frame.obj
 0004:00000fc0       $pdata$_wrap_stkpnt_t_ea_get 0000000180031fc0     frame.obj
 0004:00000fcc       $pdata$0$_wrap_stkpnt_t_ea_get 0000000180031fcc     frame.obj
 0004:00000fd8       $pdata$1$_wrap_stkpnt_t_ea_get 0000000180031fd8     frame.obj
 0004:00000fe4       $pdata$_wrap_stkpnt_t_spd_set 0000000180031fe4     frame.obj
 0004:00000ff0       $pdata$0$_wrap_stkpnt_t_spd_set 0000000180031ff0     frame.obj
 0004:00000ffc       $pdata$1$_wrap_stkpnt_t_spd_set 0000000180031ffc     frame.obj
 0004:00001008       $pdata$_wrap_stkpnt_t_spd_get 0000000180032008     frame.obj
 0004:00001014       $pdata$0$_wrap_stkpnt_t_spd_get 0000000180032014     frame.obj
 0004:00001020       $pdata$1$_wrap_stkpnt_t_spd_get 0000000180032020     frame.obj
 0004:0000102c       $pdata$_wrap_stkpnt_t___lt__ 000000018003202c     frame.obj
 0004:00001038       $pdata$_wrap_stkpnt_t___lt__$catch$5 0000000180032038     frame.obj
 0004:00001044       $pdata$_wrap_stkpnt_t___lt__$catch$4 0000000180032044     frame.obj
 0004:00001050       $pdata$_wrap_stkpnt_t___lt__$catch$3 0000000180032050     frame.obj
 0004:0000105c       $pdata$_wrap_stkpnt_t___lt__$catch$2 000000018003205c     frame.obj
 0004:00001068       $pdata$_wrap_stkpnt_t___lt__$catch$1 0000000180032068     frame.obj
 0004:00001074       $pdata$_wrap_stkpnt_t___lt__$catch$0 0000000180032074     frame.obj
 0004:00001080       $pdata$_wrap_new_stkpnt_t  0000000180032080     frame.obj
 0004:0000108c       $pdata$_wrap_new_stkpnt_t$catch$0 000000018003208c     frame.obj
 0004:00001098       $pdata$_wrap_new_stkpnt_t$catch$1 0000000180032098     frame.obj
 0004:000010a4       $pdata$_wrap_new_stkpnt_t$catch$2 00000001800320a4     frame.obj
 0004:000010b0       $pdata$_wrap_new_stkpnt_t$catch$3 00000001800320b0     frame.obj
 0004:000010bc       $pdata$_wrap_new_stkpnt_t$catch$4 00000001800320bc     frame.obj
 0004:000010c8       $pdata$_wrap_new_stkpnt_t$catch$5 00000001800320c8     frame.obj
 0004:000010d4       $pdata$_wrap_delete_stkpnt_t 00000001800320d4     frame.obj
 0004:000010e0       $pdata$_wrap_delete_stkpnt_t$catch$5 00000001800320e0     frame.obj
 0004:000010ec       $pdata$_wrap_delete_stkpnt_t$catch$4 00000001800320ec     frame.obj
 0004:000010f8       $pdata$_wrap_delete_stkpnt_t$catch$3 00000001800320f8     frame.obj
 0004:00001104       $pdata$_wrap_delete_stkpnt_t$catch$2 0000000180032104     frame.obj
 0004:00001110       $pdata$_wrap_delete_stkpnt_t$catch$1 0000000180032110     frame.obj
 0004:0000111c       $pdata$_wrap_delete_stkpnt_t$catch$0 000000018003211c     frame.obj
 0004:00001128       $pdata$stkpnt_t_swigregister 0000000180032128     frame.obj
 0004:00001134       $pdata$_wrap_new_stkpnts_t 0000000180032134     frame.obj
 0004:00001140       $pdata$_wrap_new_stkpnts_t$catch$6 0000000180032140     frame.obj
 0004:0000114c       $pdata$_wrap_new_stkpnts_t$catch$5 000000018003214c     frame.obj
 0004:00001158       $pdata$_wrap_new_stkpnts_t$catch$4 0000000180032158     frame.obj
 0004:00001164       $pdata$_wrap_new_stkpnts_t$catch$3 0000000180032164     frame.obj
 0004:00001170       $pdata$_wrap_new_stkpnts_t$catch$2 0000000180032170     frame.obj
 0004:0000117c       $pdata$_wrap_new_stkpnts_t$catch$1 000000018003217c     frame.obj
 0004:00001188       $pdata$_wrap_delete_stkpnts_t 0000000180032188     frame.obj
 0004:00001194       $pdata$_wrap_delete_stkpnts_t$catch$6 0000000180032194     frame.obj
 0004:000011a0       $pdata$_wrap_delete_stkpnts_t$catch$5 00000001800321a0     frame.obj
 0004:000011ac       $pdata$_wrap_delete_stkpnts_t$catch$4 00000001800321ac     frame.obj
 0004:000011b8       $pdata$_wrap_delete_stkpnts_t$catch$3 00000001800321b8     frame.obj
 0004:000011c4       $pdata$_wrap_delete_stkpnts_t$catch$2 00000001800321c4     frame.obj
 0004:000011d0       $pdata$_wrap_delete_stkpnts_t$catch$1 00000001800321d0     frame.obj
 0004:000011dc       $pdata$stkpnts_t_swigregister 00000001800321dc     frame.obj
 0004:000011e8       $pdata$_wrap_add_frame     00000001800321e8     frame.obj
 0004:000011f4       $pdata$_wrap_add_frame$catch$5 00000001800321f4     frame.obj
 0004:00001200       $pdata$_wrap_add_frame$catch$4 0000000180032200     frame.obj
 0004:0000120c       $pdata$_wrap_add_frame$catch$3 000000018003220c     frame.obj
 0004:00001218       $pdata$_wrap_add_frame$catch$2 0000000180032218     frame.obj
 0004:00001224       $pdata$_wrap_add_frame$catch$1 0000000180032224     frame.obj
 0004:00001230       $pdata$_wrap_add_frame$catch$0 0000000180032230     frame.obj
 0004:0000123c       $pdata$_wrap_del_frame     000000018003223c     frame.obj
 0004:00001248       $pdata$_wrap_del_frame$catch$5 0000000180032248     frame.obj
 0004:00001254       $pdata$_wrap_del_frame$catch$4 0000000180032254     frame.obj
 0004:00001260       $pdata$_wrap_del_frame$catch$3 0000000180032260     frame.obj
 0004:0000126c       $pdata$_wrap_del_frame$catch$2 000000018003226c     frame.obj
 0004:00001278       $pdata$_wrap_del_frame$catch$1 0000000180032278     frame.obj
 0004:00001284       $pdata$_wrap_del_frame$catch$0 0000000180032284     frame.obj
 0004:00001290       $pdata$_wrap_set_frame_size 0000000180032290     frame.obj
 0004:0000129c       $pdata$_wrap_set_frame_size$catch$5 000000018003229c     frame.obj
 0004:000012a8       $pdata$_wrap_set_frame_size$catch$4 00000001800322a8     frame.obj
 0004:000012b4       $pdata$_wrap_set_frame_size$catch$3 00000001800322b4     frame.obj
 0004:000012c0       $pdata$_wrap_set_frame_size$catch$2 00000001800322c0     frame.obj
 0004:000012cc       $pdata$_wrap_set_frame_size$catch$1 00000001800322cc     frame.obj
 0004:000012d8       $pdata$_wrap_set_frame_size$catch$0 00000001800322d8     frame.obj
 0004:000012e4       $pdata$_wrap_get_frame_size 00000001800322e4     frame.obj
 0004:000012f0       $pdata$_wrap_get_frame_size$catch$5 00000001800322f0     frame.obj
 0004:000012fc       $pdata$_wrap_get_frame_size$catch$4 00000001800322fc     frame.obj
 0004:00001308       $pdata$_wrap_get_frame_size$catch$3 0000000180032308     frame.obj
 0004:00001314       $pdata$_wrap_get_frame_size$catch$2 0000000180032314     frame.obj
 0004:00001320       $pdata$_wrap_get_frame_size$catch$1 0000000180032320     frame.obj
 0004:0000132c       $pdata$_wrap_get_frame_size$catch$0 000000018003232c     frame.obj
 0004:00001338       $pdata$_wrap_get_frame_retsize 0000000180032338     frame.obj
 0004:00001344       $pdata$_wrap_get_frame_retsize$catch$5 0000000180032344     frame.obj
 0004:00001350       $pdata$_wrap_get_frame_retsize$catch$4 0000000180032350     frame.obj
 0004:0000135c       $pdata$_wrap_get_frame_retsize$catch$3 000000018003235c     frame.obj
 0004:00001368       $pdata$_wrap_get_frame_retsize$catch$2 0000000180032368     frame.obj
 0004:00001374       $pdata$_wrap_get_frame_retsize$catch$1 0000000180032374     frame.obj
 0004:00001380       $pdata$_wrap_get_frame_retsize$catch$0 0000000180032380     frame.obj
 0004:0000138c       $pdata$_wrap_get_frame_part 000000018003238c     frame.obj
 0004:00001398       $pdata$_wrap_get_frame_part$catch$5 0000000180032398     frame.obj
 0004:000013a4       $pdata$_wrap_get_frame_part$catch$4 00000001800323a4     frame.obj
 0004:000013b0       $pdata$_wrap_get_frame_part$catch$3 00000001800323b0     frame.obj
 0004:000013bc       $pdata$_wrap_get_frame_part$catch$2 00000001800323bc     frame.obj
 0004:000013c8       $pdata$_wrap_get_frame_part$catch$1 00000001800323c8     frame.obj
 0004:000013d4       $pdata$_wrap_get_frame_part$catch$0 00000001800323d4     frame.obj
 0004:000013e0       $pdata$_wrap_frame_off_args 00000001800323e0     frame.obj
 0004:000013ec       $pdata$_wrap_frame_off_args$catch$5 00000001800323ec     frame.obj
 0004:000013f8       $pdata$_wrap_frame_off_args$catch$4 00000001800323f8     frame.obj
 0004:00001404       $pdata$_wrap_frame_off_args$catch$3 0000000180032404     frame.obj
 0004:00001410       $pdata$_wrap_frame_off_args$catch$2 0000000180032410     frame.obj
 0004:0000141c       $pdata$_wrap_frame_off_args$catch$1 000000018003241c     frame.obj
 0004:00001428       $pdata$_wrap_frame_off_args$catch$0 0000000180032428     frame.obj
 0004:00001434       $pdata$_wrap_frame_off_retaddr 0000000180032434     frame.obj
 0004:00001440       $pdata$_wrap_frame_off_retaddr$catch$5 0000000180032440     frame.obj
 0004:0000144c       $pdata$_wrap_frame_off_retaddr$catch$4 000000018003244c     frame.obj
 0004:00001458       $pdata$_wrap_frame_off_retaddr$catch$3 0000000180032458     frame.obj
 0004:00001464       $pdata$_wrap_frame_off_retaddr$catch$2 0000000180032464     frame.obj
 0004:00001470       $pdata$_wrap_frame_off_retaddr$catch$1 0000000180032470     frame.obj
 0004:0000147c       $pdata$_wrap_frame_off_retaddr$catch$0 000000018003247c     frame.obj
 0004:00001488       $pdata$_wrap_frame_off_savregs 0000000180032488     frame.obj
 0004:00001494       $pdata$_wrap_frame_off_savregs$catch$5 0000000180032494     frame.obj
 0004:000014a0       $pdata$_wrap_frame_off_savregs$catch$4 00000001800324a0     frame.obj
 0004:000014ac       $pdata$_wrap_frame_off_savregs$catch$3 00000001800324ac     frame.obj
 0004:000014b8       $pdata$_wrap_frame_off_savregs$catch$2 00000001800324b8     frame.obj
 0004:000014c4       $pdata$_wrap_frame_off_savregs$catch$1 00000001800324c4     frame.obj
 0004:000014d0       $pdata$_wrap_frame_off_savregs$catch$0 00000001800324d0     frame.obj
 0004:000014dc       $pdata$_wrap_frame_off_lvars 00000001800324dc     frame.obj
 0004:000014e8       $pdata$_wrap_frame_off_lvars$catch$5 00000001800324e8     frame.obj
 0004:000014f4       $pdata$_wrap_frame_off_lvars$catch$4 00000001800324f4     frame.obj
 0004:00001500       $pdata$_wrap_frame_off_lvars$catch$3 0000000180032500     frame.obj
 0004:0000150c       $pdata$_wrap_frame_off_lvars$catch$2 000000018003250c     frame.obj
 0004:00001518       $pdata$_wrap_frame_off_lvars$catch$1 0000000180032518     frame.obj
 0004:00001524       $pdata$_wrap_frame_off_lvars$catch$0 0000000180032524     frame.obj
 0004:00001530       $pdata$_wrap_is_funcarg_off 0000000180032530     frame.obj
 0004:0000153c       $pdata$_wrap_is_funcarg_off$catch$5 000000018003253c     frame.obj
 0004:00001548       $pdata$_wrap_is_funcarg_off$catch$4 0000000180032548     frame.obj
 0004:00001554       $pdata$_wrap_is_funcarg_off$catch$3 0000000180032554     frame.obj
 0004:00001560       $pdata$_wrap_is_funcarg_off$catch$2 0000000180032560     frame.obj
 0004:0000156c       $pdata$_wrap_is_funcarg_off$catch$1 000000018003256c     frame.obj
 0004:00001578       $pdata$_wrap_is_funcarg_off$catch$0 0000000180032578     frame.obj
 0004:00001584       $pdata$_wrap_lvar_off      0000000180032584     frame.obj
 0004:00001590       $pdata$_wrap_lvar_off$catch$5 0000000180032590     frame.obj
 0004:0000159c       $pdata$_wrap_lvar_off$catch$4 000000018003259c     frame.obj
 0004:000015a8       $pdata$_wrap_lvar_off$catch$3 00000001800325a8     frame.obj
 0004:000015b4       $pdata$_wrap_lvar_off$catch$2 00000001800325b4     frame.obj
 0004:000015c0       $pdata$_wrap_lvar_off$catch$1 00000001800325c0     frame.obj
 0004:000015cc       $pdata$_wrap_lvar_off$catch$0 00000001800325cc     frame.obj
 0004:000015d8       $pdata$_wrap_get_frame__SWIG_0 00000001800325d8     frame.obj
 0004:000015e4       $pdata$_wrap_get_frame__SWIG_0$catch$5 00000001800325e4     frame.obj
 0004:000015f0       $pdata$_wrap_get_frame__SWIG_0$catch$4 00000001800325f0     frame.obj
 0004:000015fc       $pdata$_wrap_get_frame__SWIG_0$catch$3 00000001800325fc     frame.obj
 0004:00001608       $pdata$_wrap_get_frame__SWIG_0$catch$2 0000000180032608     frame.obj
 0004:00001614       $pdata$_wrap_get_frame__SWIG_0$catch$1 0000000180032614     frame.obj
 0004:00001620       $pdata$_wrap_get_frame__SWIG_0$catch$0 0000000180032620     frame.obj
 0004:0000162c       $pdata$_wrap_get_frame__SWIG_1 000000018003262c     frame.obj
 0004:00001638       $pdata$_wrap_get_frame__SWIG_1$catch$5 0000000180032638     frame.obj
 0004:00001644       $pdata$_wrap_get_frame__SWIG_1$catch$4 0000000180032644     frame.obj
 0004:00001650       $pdata$_wrap_get_frame__SWIG_1$catch$3 0000000180032650     frame.obj
 0004:0000165c       $pdata$_wrap_get_frame__SWIG_1$catch$2 000000018003265c     frame.obj
 0004:00001668       $pdata$_wrap_get_frame__SWIG_1$catch$1 0000000180032668     frame.obj
 0004:00001674       $pdata$_wrap_get_frame__SWIG_1$catch$0 0000000180032674     frame.obj
 0004:00001680       $pdata$_wrap_get_frame     0000000180032680     frame.obj
 0004:0000168c       $pdata$2$_wrap_get_frame   000000018003268c     frame.obj
 0004:00001698       $pdata$4$_wrap_get_frame   0000000180032698     frame.obj
 0004:000016a4       $pdata$_wrap_update_fpd    00000001800326a4     frame.obj
 0004:000016b0       $pdata$_wrap_update_fpd$catch$5 00000001800326b0     frame.obj
 0004:000016bc       $pdata$_wrap_update_fpd$catch$4 00000001800326bc     frame.obj
 0004:000016c8       $pdata$_wrap_update_fpd$catch$3 00000001800326c8     frame.obj
 0004:000016d4       $pdata$_wrap_update_fpd$catch$2 00000001800326d4     frame.obj
 0004:000016e0       $pdata$_wrap_update_fpd$catch$1 00000001800326e0     frame.obj
 0004:000016ec       $pdata$_wrap_update_fpd$catch$0 00000001800326ec     frame.obj
 0004:000016f8       $pdata$_wrap_set_purged    00000001800326f8     frame.obj
 0004:00001704       $pdata$_wrap_set_purged$catch$5 0000000180032704     frame.obj
 0004:00001710       $pdata$_wrap_set_purged$catch$4 0000000180032710     frame.obj
 0004:0000171c       $pdata$_wrap_set_purged$catch$3 000000018003271c     frame.obj
 0004:00001728       $pdata$_wrap_set_purged$catch$2 0000000180032728     frame.obj
 0004:00001734       $pdata$_wrap_set_purged$catch$1 0000000180032734     frame.obj
 0004:00001740       $pdata$_wrap_set_purged$catch$0 0000000180032740     frame.obj
 0004:0000174c       $pdata$_wrap_get_func_by_frame 000000018003274c     frame.obj
 0004:00001758       $pdata$_wrap_get_func_by_frame$catch$5 0000000180032758     frame.obj
 0004:00001764       $pdata$_wrap_get_func_by_frame$catch$4 0000000180032764     frame.obj
 0004:00001770       $pdata$_wrap_get_func_by_frame$catch$3 0000000180032770     frame.obj
 0004:0000177c       $pdata$_wrap_get_func_by_frame$catch$2 000000018003277c     frame.obj
 0004:00001788       $pdata$_wrap_get_func_by_frame$catch$1 0000000180032788     frame.obj
 0004:00001794       $pdata$_wrap_get_func_by_frame$catch$0 0000000180032794     frame.obj
 0004:000017a0       $pdata$_wrap_define_stkvar 00000001800327a0     frame.obj
 0004:000017ac       $pdata$_wrap_define_stkvar$catch$5 00000001800327ac     frame.obj
 0004:000017b8       $pdata$_wrap_define_stkvar$catch$4 00000001800327b8     frame.obj
 0004:000017c4       $pdata$_wrap_define_stkvar$catch$3 00000001800327c4     frame.obj
 0004:000017d0       $pdata$_wrap_define_stkvar$catch$2 00000001800327d0     frame.obj
 0004:000017dc       $pdata$_wrap_define_stkvar$catch$1 00000001800327dc     frame.obj
 0004:000017e8       $pdata$_wrap_define_stkvar$catch$0 00000001800327e8     frame.obj
 0004:000017f4       $pdata$_wrap_build_stkvar_name 00000001800327f4     frame.obj
 0004:00001800       $pdata$_wrap_build_stkvar_name$catch$8 0000000180032800     frame.obj
 0004:0000180c       $pdata$_wrap_build_stkvar_name$catch$7 000000018003280c     frame.obj
 0004:00001818       $pdata$_wrap_build_stkvar_name$catch$6 0000000180032818     frame.obj
 0004:00001824       $pdata$_wrap_build_stkvar_name$catch$5 0000000180032824     frame.obj
 0004:00001830       $pdata$_wrap_build_stkvar_name$catch$4 0000000180032830     frame.obj
 0004:0000183c       $pdata$_wrap_build_stkvar_name$catch$3 000000018003283c     frame.obj
 0004:00001848       $pdata$_wrap_calc_stkvar_struc_offset 0000000180032848     frame.obj
 0004:00001854       $pdata$_wrap_calc_stkvar_struc_offset$catch$5 0000000180032854     frame.obj
 0004:00001860       $pdata$_wrap_calc_stkvar_struc_offset$catch$4 0000000180032860     frame.obj
 0004:0000186c       $pdata$_wrap_calc_stkvar_struc_offset$catch$3 000000018003286c     frame.obj
 0004:00001878       $pdata$_wrap_calc_stkvar_struc_offset$catch$2 0000000180032878     frame.obj
 0004:00001884       $pdata$_wrap_calc_stkvar_struc_offset$catch$1 0000000180032884     frame.obj
 0004:00001890       $pdata$_wrap_calc_stkvar_struc_offset$catch$0 0000000180032890     frame.obj
 0004:0000189c       $pdata$_wrap_regvar_t_canon_set 000000018003289c     frame.obj
 0004:000018a8       $pdata$_wrap_regvar_t_canon_get 00000001800328a8     frame.obj
 0004:000018b4       $pdata$0$_wrap_regvar_t_canon_get 00000001800328b4     frame.obj
 0004:000018c0       $pdata$1$_wrap_regvar_t_canon_get 00000001800328c0     frame.obj
 0004:000018cc       $pdata$_wrap_regvar_t_user_set 00000001800328cc     frame.obj
 0004:000018d8       $pdata$_wrap_regvar_t_user_get 00000001800328d8     frame.obj
 0004:000018e4       $pdata$0$_wrap_regvar_t_user_get 00000001800328e4     frame.obj
 0004:000018f0       $pdata$1$_wrap_regvar_t_user_get 00000001800328f0     frame.obj
 0004:000018fc       $pdata$_wrap_regvar_t_cmt_set 00000001800328fc     frame.obj
 0004:00001908       $pdata$_wrap_regvar_t_cmt_get 0000000180032908     frame.obj
 0004:00001914       $pdata$0$_wrap_regvar_t_cmt_get 0000000180032914     frame.obj
 0004:00001920       $pdata$1$_wrap_regvar_t_cmt_get 0000000180032920     frame.obj
 0004:0000192c       $pdata$_wrap_new_regvar_t  000000018003292c     frame.obj
 0004:00001938       $pdata$_wrap_new_regvar_t$catch$1 0000000180032938     frame.obj
 0004:00001944       $pdata$_wrap_new_regvar_t$catch$2 0000000180032944     frame.obj
 0004:00001950       $pdata$_wrap_new_regvar_t$catch$3 0000000180032950     frame.obj
 0004:0000195c       $pdata$_wrap_new_regvar_t$catch$4 000000018003295c     frame.obj
 0004:00001968       $pdata$_wrap_new_regvar_t$catch$5 0000000180032968     frame.obj
 0004:00001974       $pdata$_wrap_new_regvar_t$catch$6 0000000180032974     frame.obj
 0004:00001980       $pdata$_wrap_delete_regvar_t 0000000180032980     frame.obj
 0004:0000198c       $pdata$_wrap_delete_regvar_t$catch$5 000000018003298c     frame.obj
 0004:00001998       $pdata$_wrap_delete_regvar_t$catch$4 0000000180032998     frame.obj
 0004:000019a4       $pdata$_wrap_delete_regvar_t$catch$3 00000001800329a4     frame.obj
 0004:000019b0       $pdata$_wrap_delete_regvar_t$catch$2 00000001800329b0     frame.obj
 0004:000019bc       $pdata$_wrap_delete_regvar_t$catch$1 00000001800329bc     frame.obj
 0004:000019c8       $pdata$_wrap_delete_regvar_t$catch$0 00000001800329c8     frame.obj
 0004:000019d4       $pdata$regvar_t_swigregister 00000001800329d4     frame.obj
 0004:000019e0       $pdata$_wrap_add_regvar    00000001800329e0     frame.obj
 0004:000019ec       $pdata$_wrap_add_regvar$catch$5 00000001800329ec     frame.obj
 0004:000019f8       $pdata$_wrap_add_regvar$catch$4 00000001800329f8     frame.obj
 0004:00001a04       $pdata$_wrap_add_regvar$catch$3 0000000180032a04     frame.obj
 0004:00001a10       $pdata$_wrap_add_regvar$catch$2 0000000180032a10     frame.obj
 0004:00001a1c       $pdata$_wrap_add_regvar$catch$1 0000000180032a1c     frame.obj
 0004:00001a28       $pdata$_wrap_add_regvar$catch$0 0000000180032a28     frame.obj
 0004:00001a34       $pdata$_wrap_find_regvar__SWIG_0 0000000180032a34     frame.obj
 0004:00001a40       $pdata$_wrap_find_regvar__SWIG_0$catch$5 0000000180032a40     frame.obj
 0004:00001a4c       $pdata$_wrap_find_regvar__SWIG_0$catch$4 0000000180032a4c     frame.obj
 0004:00001a58       $pdata$_wrap_find_regvar__SWIG_0$catch$3 0000000180032a58     frame.obj
 0004:00001a64       $pdata$_wrap_find_regvar__SWIG_0$catch$2 0000000180032a64     frame.obj
 0004:00001a70       $pdata$_wrap_find_regvar__SWIG_0$catch$1 0000000180032a70     frame.obj
 0004:00001a7c       $pdata$_wrap_find_regvar__SWIG_0$catch$0 0000000180032a7c     frame.obj
 0004:00001a88       $pdata$_wrap_find_regvar__SWIG_1 0000000180032a88     frame.obj
 0004:00001a94       $pdata$_wrap_find_regvar__SWIG_1$catch$5 0000000180032a94     frame.obj
 0004:00001aa0       $pdata$_wrap_find_regvar__SWIG_1$catch$4 0000000180032aa0     frame.obj
 0004:00001aac       $pdata$_wrap_find_regvar__SWIG_1$catch$3 0000000180032aac     frame.obj
 0004:00001ab8       $pdata$_wrap_find_regvar__SWIG_1$catch$2 0000000180032ab8     frame.obj
 0004:00001ac4       $pdata$_wrap_find_regvar__SWIG_1$catch$1 0000000180032ac4     frame.obj
 0004:00001ad0       $pdata$_wrap_find_regvar__SWIG_1$catch$0 0000000180032ad0     frame.obj
 0004:00001adc       $pdata$_wrap_find_regvar   0000000180032adc     frame.obj
 0004:00001ae8       $pdata$5$_wrap_find_regvar 0000000180032ae8     frame.obj
 0004:00001af4       $pdata$6$_wrap_find_regvar 0000000180032af4     frame.obj
 0004:00001b00       $pdata$7$_wrap_find_regvar 0000000180032b00     frame.obj
 0004:00001b0c       $pdata$_wrap_rename_regvar 0000000180032b0c     frame.obj
 0004:00001b18       $pdata$_wrap_rename_regvar$catch$5 0000000180032b18     frame.obj
 0004:00001b24       $pdata$_wrap_rename_regvar$catch$4 0000000180032b24     frame.obj
 0004:00001b30       $pdata$_wrap_rename_regvar$catch$3 0000000180032b30     frame.obj
 0004:00001b3c       $pdata$_wrap_rename_regvar$catch$2 0000000180032b3c     frame.obj
 0004:00001b48       $pdata$_wrap_rename_regvar$catch$1 0000000180032b48     frame.obj
 0004:00001b54       $pdata$_wrap_rename_regvar$catch$0 0000000180032b54     frame.obj
 0004:00001b60       $pdata$_wrap_set_regvar_cmt 0000000180032b60     frame.obj
 0004:00001b6c       $pdata$_wrap_set_regvar_cmt$catch$5 0000000180032b6c     frame.obj
 0004:00001b78       $pdata$_wrap_set_regvar_cmt$catch$4 0000000180032b78     frame.obj
 0004:00001b84       $pdata$_wrap_set_regvar_cmt$catch$3 0000000180032b84     frame.obj
 0004:00001b90       $pdata$_wrap_set_regvar_cmt$catch$2 0000000180032b90     frame.obj
 0004:00001b9c       $pdata$_wrap_set_regvar_cmt$catch$1 0000000180032b9c     frame.obj
 0004:00001ba8       $pdata$_wrap_set_regvar_cmt$catch$0 0000000180032ba8     frame.obj
 0004:00001bb4       $pdata$_wrap_del_regvar    0000000180032bb4     frame.obj
 0004:00001bc0       $pdata$_wrap_del_regvar$catch$5 0000000180032bc0     frame.obj
 0004:00001bcc       $pdata$_wrap_del_regvar$catch$4 0000000180032bcc     frame.obj
 0004:00001bd8       $pdata$_wrap_del_regvar$catch$3 0000000180032bd8     frame.obj
 0004:00001be4       $pdata$_wrap_del_regvar$catch$2 0000000180032be4     frame.obj
 0004:00001bf0       $pdata$_wrap_del_regvar$catch$1 0000000180032bf0     frame.obj
 0004:00001bfc       $pdata$_wrap_del_regvar$catch$0 0000000180032bfc     frame.obj
 0004:00001c08       $pdata$_wrap_llabel_t_ea_set 0000000180032c08     frame.obj
 0004:00001c14       $pdata$0$_wrap_llabel_t_ea_set 0000000180032c14     frame.obj
 0004:00001c20       $pdata$1$_wrap_llabel_t_ea_set 0000000180032c20     frame.obj
 0004:00001c2c       $pdata$_wrap_llabel_t_ea_get 0000000180032c2c     frame.obj
 0004:00001c38       $pdata$0$_wrap_llabel_t_ea_get 0000000180032c38     frame.obj
 0004:00001c44       $pdata$1$_wrap_llabel_t_ea_get 0000000180032c44     frame.obj
 0004:00001c50       $pdata$_wrap_llabel_t_name_set 0000000180032c50     frame.obj
 0004:00001c5c       $pdata$_wrap_llabel_t_name_get 0000000180032c5c     frame.obj
 0004:00001c68       $pdata$0$_wrap_llabel_t_name_get 0000000180032c68     frame.obj
 0004:00001c74       $pdata$1$_wrap_llabel_t_name_get 0000000180032c74     frame.obj
 0004:00001c80       $pdata$_wrap_new_llabel_t  0000000180032c80     frame.obj
 0004:00001c8c       $pdata$_wrap_new_llabel_t$catch$0 0000000180032c8c     frame.obj
 0004:00001c98       $pdata$_wrap_new_llabel_t$catch$1 0000000180032c98     frame.obj
 0004:00001ca4       $pdata$_wrap_new_llabel_t$catch$2 0000000180032ca4     frame.obj
 0004:00001cb0       $pdata$_wrap_new_llabel_t$catch$3 0000000180032cb0     frame.obj
 0004:00001cbc       $pdata$_wrap_new_llabel_t$catch$4 0000000180032cbc     frame.obj
 0004:00001cc8       $pdata$_wrap_new_llabel_t$catch$5 0000000180032cc8     frame.obj
 0004:00001cd4       $pdata$_wrap_delete_llabel_t 0000000180032cd4     frame.obj
 0004:00001ce0       $pdata$_wrap_delete_llabel_t$catch$5 0000000180032ce0     frame.obj
 0004:00001cec       $pdata$_wrap_delete_llabel_t$catch$4 0000000180032cec     frame.obj
 0004:00001cf8       $pdata$_wrap_delete_llabel_t$catch$3 0000000180032cf8     frame.obj
 0004:00001d04       $pdata$_wrap_delete_llabel_t$catch$2 0000000180032d04     frame.obj
 0004:00001d10       $pdata$_wrap_delete_llabel_t$catch$1 0000000180032d10     frame.obj
 0004:00001d1c       $pdata$_wrap_delete_llabel_t$catch$0 0000000180032d1c     frame.obj
 0004:00001d28       $pdata$llabel_t_swigregister 0000000180032d28     frame.obj
 0004:00001d34       $pdata$_wrap_add_auto_stkpnt 0000000180032d34     frame.obj
 0004:00001d40       $pdata$_wrap_add_auto_stkpnt$catch$5 0000000180032d40     frame.obj
 0004:00001d4c       $pdata$_wrap_add_auto_stkpnt$catch$4 0000000180032d4c     frame.obj
 0004:00001d58       $pdata$_wrap_add_auto_stkpnt$catch$3 0000000180032d58     frame.obj
 0004:00001d64       $pdata$_wrap_add_auto_stkpnt$catch$2 0000000180032d64     frame.obj
 0004:00001d70       $pdata$_wrap_add_auto_stkpnt$catch$1 0000000180032d70     frame.obj
 0004:00001d7c       $pdata$_wrap_add_auto_stkpnt$catch$0 0000000180032d7c     frame.obj
 0004:00001d88       $pdata$_wrap_add_user_stkpnt 0000000180032d88     frame.obj
 0004:00001d94       $pdata$_wrap_add_user_stkpnt$catch$5 0000000180032d94     frame.obj
 0004:00001da0       $pdata$_wrap_add_user_stkpnt$catch$4 0000000180032da0     frame.obj
 0004:00001dac       $pdata$_wrap_add_user_stkpnt$catch$3 0000000180032dac     frame.obj
 0004:00001db8       $pdata$_wrap_add_user_stkpnt$catch$2 0000000180032db8     frame.obj
 0004:00001dc4       $pdata$_wrap_add_user_stkpnt$catch$1 0000000180032dc4     frame.obj
 0004:00001dd0       $pdata$_wrap_add_user_stkpnt$catch$0 0000000180032dd0     frame.obj
 0004:00001ddc       $pdata$_wrap_del_stkpnt    0000000180032ddc     frame.obj
 0004:00001de8       $pdata$_wrap_del_stkpnt$catch$5 0000000180032de8     frame.obj
 0004:00001df4       $pdata$_wrap_del_stkpnt$catch$4 0000000180032df4     frame.obj
 0004:00001e00       $pdata$_wrap_del_stkpnt$catch$3 0000000180032e00     frame.obj
 0004:00001e0c       $pdata$_wrap_del_stkpnt$catch$2 0000000180032e0c     frame.obj
 0004:00001e18       $pdata$_wrap_del_stkpnt$catch$1 0000000180032e18     frame.obj
 0004:00001e24       $pdata$_wrap_del_stkpnt$catch$0 0000000180032e24     frame.obj
 0004:00001e30       $pdata$_wrap_get_spd       0000000180032e30     frame.obj
 0004:00001e3c       $pdata$_wrap_get_spd$catch$5 0000000180032e3c     frame.obj
 0004:00001e48       $pdata$_wrap_get_spd$catch$4 0000000180032e48     frame.obj
 0004:00001e54       $pdata$_wrap_get_spd$catch$3 0000000180032e54     frame.obj
 0004:00001e60       $pdata$_wrap_get_spd$catch$2 0000000180032e60     frame.obj
 0004:00001e6c       $pdata$_wrap_get_spd$catch$1 0000000180032e6c     frame.obj
 0004:00001e78       $pdata$_wrap_get_spd$catch$0 0000000180032e78     frame.obj
 0004:00001e84       $pdata$_wrap_get_effective_spd 0000000180032e84     frame.obj
 0004:00001e90       $pdata$_wrap_get_effective_spd$catch$5 0000000180032e90     frame.obj
 0004:00001e9c       $pdata$_wrap_get_effective_spd$catch$4 0000000180032e9c     frame.obj
 0004:00001ea8       $pdata$_wrap_get_effective_spd$catch$3 0000000180032ea8     frame.obj
 0004:00001eb4       $pdata$_wrap_get_effective_spd$catch$2 0000000180032eb4     frame.obj
 0004:00001ec0       $pdata$_wrap_get_effective_spd$catch$1 0000000180032ec0     frame.obj
 0004:00001ecc       $pdata$_wrap_get_effective_spd$catch$0 0000000180032ecc     frame.obj
 0004:00001ed8       $pdata$_wrap_get_sp_delta  0000000180032ed8     frame.obj
 0004:00001ee4       $pdata$_wrap_get_sp_delta$catch$5 0000000180032ee4     frame.obj
 0004:00001ef0       $pdata$_wrap_get_sp_delta$catch$4 0000000180032ef0     frame.obj
 0004:00001efc       $pdata$_wrap_get_sp_delta$catch$3 0000000180032efc     frame.obj
 0004:00001f08       $pdata$_wrap_get_sp_delta$catch$2 0000000180032f08     frame.obj
 0004:00001f14       $pdata$_wrap_get_sp_delta$catch$1 0000000180032f14     frame.obj
 0004:00001f20       $pdata$_wrap_get_sp_delta$catch$0 0000000180032f20     frame.obj
 0004:00001f2c       $pdata$_wrap_recalc_spd    0000000180032f2c     frame.obj
 0004:00001f38       $pdata$_wrap_recalc_spd$catch$5 0000000180032f38     frame.obj
 0004:00001f44       $pdata$_wrap_recalc_spd$catch$4 0000000180032f44     frame.obj
 0004:00001f50       $pdata$_wrap_recalc_spd$catch$3 0000000180032f50     frame.obj
 0004:00001f5c       $pdata$_wrap_recalc_spd$catch$2 0000000180032f5c     frame.obj
 0004:00001f68       $pdata$_wrap_recalc_spd$catch$1 0000000180032f68     frame.obj
 0004:00001f74       $pdata$_wrap_recalc_spd$catch$0 0000000180032f74     frame.obj
 0004:00001f80       $pdata$_wrap_xreflist_entry_t_ea_set 0000000180032f80     frame.obj
 0004:00001f8c       $pdata$0$_wrap_xreflist_entry_t_ea_set 0000000180032f8c     frame.obj
 0004:00001f98       $pdata$1$_wrap_xreflist_entry_t_ea_set 0000000180032f98     frame.obj
 0004:00001fa4       $pdata$_wrap_xreflist_entry_t_ea_get 0000000180032fa4     frame.obj
 0004:00001fb0       $pdata$0$_wrap_xreflist_entry_t_ea_get 0000000180032fb0     frame.obj
 0004:00001fbc       $pdata$1$_wrap_xreflist_entry_t_ea_get 0000000180032fbc     frame.obj
 0004:00001fc8       $pdata$_wrap_xreflist_entry_t_opnum_set 0000000180032fc8     frame.obj
 0004:00001fd4       $pdata$0$_wrap_xreflist_entry_t_opnum_set 0000000180032fd4     frame.obj
 0004:00001fe0       $pdata$1$_wrap_xreflist_entry_t_opnum_set 0000000180032fe0     frame.obj
 0004:00001fec       $pdata$_wrap_xreflist_entry_t_opnum_get 0000000180032fec     frame.obj
 0004:00001ff8       $pdata$0$_wrap_xreflist_entry_t_opnum_get 0000000180032ff8     frame.obj
 0004:00002004       $pdata$1$_wrap_xreflist_entry_t_opnum_get 0000000180033004     frame.obj
 0004:00002010       $pdata$_wrap_xreflist_entry_t_type_set 0000000180033010     frame.obj
 0004:0000201c       $pdata$0$_wrap_xreflist_entry_t_type_set 000000018003301c     frame.obj
 0004:00002028       $pdata$1$_wrap_xreflist_entry_t_type_set 0000000180033028     frame.obj
 0004:00002034       $pdata$_wrap_xreflist_entry_t_type_get 0000000180033034     frame.obj
 0004:00002040       $pdata$0$_wrap_xreflist_entry_t_type_get 0000000180033040     frame.obj
 0004:0000204c       $pdata$1$_wrap_xreflist_entry_t_type_get 000000018003304c     frame.obj
 0004:00002058       $pdata$_wrap_xreflist_entry_t___eq__ 0000000180033058     frame.obj
 0004:00002064       $pdata$_wrap_xreflist_entry_t___eq__$catch$5 0000000180033064     frame.obj
 0004:00002070       $pdata$_wrap_xreflist_entry_t___eq__$catch$4 0000000180033070     frame.obj
 0004:0000207c       $pdata$_wrap_xreflist_entry_t___eq__$catch$3 000000018003307c     frame.obj
 0004:00002088       $pdata$_wrap_xreflist_entry_t___eq__$catch$2 0000000180033088     frame.obj
 0004:00002094       $pdata$_wrap_xreflist_entry_t___eq__$catch$1 0000000180033094     frame.obj
 0004:000020a0       $pdata$_wrap_xreflist_entry_t___eq__$catch$0 00000001800330a0     frame.obj
 0004:000020ac       $pdata$_wrap_xreflist_entry_t___ne__ 00000001800330ac     frame.obj
 0004:000020b8       $pdata$_wrap_xreflist_entry_t___ne__$catch$5 00000001800330b8     frame.obj
 0004:000020c4       $pdata$_wrap_xreflist_entry_t___ne__$catch$4 00000001800330c4     frame.obj
 0004:000020d0       $pdata$_wrap_xreflist_entry_t___ne__$catch$3 00000001800330d0     frame.obj
 0004:000020dc       $pdata$_wrap_xreflist_entry_t___ne__$catch$2 00000001800330dc     frame.obj
 0004:000020e8       $pdata$_wrap_xreflist_entry_t___ne__$catch$1 00000001800330e8     frame.obj
 0004:000020f4       $pdata$_wrap_xreflist_entry_t___ne__$catch$0 00000001800330f4     frame.obj
 0004:00002100       $pdata$_wrap_new_xreflist_entry_t 0000000180033100     frame.obj
 0004:0000210c       $pdata$_wrap_new_xreflist_entry_t$catch$0 000000018003310c     frame.obj
 0004:00002118       $pdata$_wrap_new_xreflist_entry_t$catch$1 0000000180033118     frame.obj
 0004:00002124       $pdata$_wrap_new_xreflist_entry_t$catch$2 0000000180033124     frame.obj
 0004:00002130       $pdata$_wrap_new_xreflist_entry_t$catch$3 0000000180033130     frame.obj
 0004:0000213c       $pdata$_wrap_new_xreflist_entry_t$catch$4 000000018003313c     frame.obj
 0004:00002148       $pdata$_wrap_new_xreflist_entry_t$catch$5 0000000180033148     frame.obj
 0004:00002154       $pdata$_wrap_delete_xreflist_entry_t 0000000180033154     frame.obj
 0004:00002160       $pdata$_wrap_delete_xreflist_entry_t$catch$5 0000000180033160     frame.obj
 0004:0000216c       $pdata$_wrap_delete_xreflist_entry_t$catch$4 000000018003316c     frame.obj
 0004:00002178       $pdata$_wrap_delete_xreflist_entry_t$catch$3 0000000180033178     frame.obj
 0004:00002184       $pdata$_wrap_delete_xreflist_entry_t$catch$2 0000000180033184     frame.obj
 0004:00002190       $pdata$_wrap_delete_xreflist_entry_t$catch$1 0000000180033190     frame.obj
 0004:0000219c       $pdata$_wrap_delete_xreflist_entry_t$catch$0 000000018003319c     frame.obj
 0004:000021a8       $pdata$xreflist_entry_t_swigregister 00000001800331a8     frame.obj
 0004:000021b4       $pdata$_wrap_build_stkvar_xrefs 00000001800331b4     frame.obj
 0004:000021c0       $pdata$_wrap_build_stkvar_xrefs$catch$5 00000001800331c0     frame.obj
 0004:000021cc       $pdata$_wrap_build_stkvar_xrefs$catch$4 00000001800331cc     frame.obj
 0004:000021d8       $pdata$_wrap_build_stkvar_xrefs$catch$3 00000001800331d8     frame.obj
 0004:000021e4       $pdata$_wrap_build_stkvar_xrefs$catch$2 00000001800331e4     frame.obj
 0004:000021f0       $pdata$_wrap_build_stkvar_xrefs$catch$1 00000001800331f0     frame.obj
 0004:000021fc       $pdata$_wrap_build_stkvar_xrefs$catch$0 00000001800331fc     frame.obj
 0004:00002208       $pdata$_wrap_get_min_spd_ea 0000000180033208     frame.obj
 0004:00002214       $pdata$_wrap_get_min_spd_ea$catch$5 0000000180033214     frame.obj
 0004:00002220       $pdata$_wrap_get_min_spd_ea$catch$4 0000000180033220     frame.obj
 0004:0000222c       $pdata$_wrap_get_min_spd_ea$catch$3 000000018003322c     frame.obj
 0004:00002238       $pdata$_wrap_get_min_spd_ea$catch$2 0000000180033238     frame.obj
 0004:00002244       $pdata$_wrap_get_min_spd_ea$catch$1 0000000180033244     frame.obj
 0004:00002250       $pdata$_wrap_get_min_spd_ea$catch$0 0000000180033250     frame.obj
 0004:0000225c       $pdata$_wrap_delete_unreferenced_stkvars 000000018003325c     frame.obj
 0004:00002268       $pdata$_wrap_delete_unreferenced_stkvars$catch$5 0000000180033268     frame.obj
 0004:00002274       $pdata$_wrap_delete_unreferenced_stkvars$catch$4 0000000180033274     frame.obj
 0004:00002280       $pdata$_wrap_delete_unreferenced_stkvars$catch$3 0000000180033280     frame.obj
 0004:0000228c       $pdata$_wrap_delete_unreferenced_stkvars$catch$2 000000018003328c     frame.obj
 0004:00002298       $pdata$_wrap_delete_unreferenced_stkvars$catch$1 0000000180033298     frame.obj
 0004:000022a4       $pdata$_wrap_delete_unreferenced_stkvars$catch$0 00000001800332a4     frame.obj
 0004:000022b0       $pdata$_wrap_delete_wrong_stkvar_ops 00000001800332b0     frame.obj
 0004:000022bc       $pdata$_wrap_delete_wrong_stkvar_ops$catch$5 00000001800332bc     frame.obj
 0004:000022c8       $pdata$_wrap_delete_wrong_stkvar_ops$catch$4 00000001800332c8     frame.obj
 0004:000022d4       $pdata$_wrap_delete_wrong_stkvar_ops$catch$3 00000001800332d4     frame.obj
 0004:000022e0       $pdata$_wrap_delete_wrong_stkvar_ops$catch$2 00000001800332e0     frame.obj
 0004:000022ec       $pdata$_wrap_delete_wrong_stkvar_ops$catch$1 00000001800332ec     frame.obj
 0004:000022f8       $pdata$_wrap_delete_wrong_stkvar_ops$catch$0 00000001800332f8     frame.obj
 0004:00002304       $pdata$SWIG_InitializeModule 0000000180033304     frame.obj
 0004:00002310       $pdata$1$SWIG_InitializeModule 0000000180033310     frame.obj
 0004:0000231c       $pdata$4$SWIG_InitializeModule 000000018003331c     frame.obj
 0004:00002328       $pdata$5$SWIG_InitializeModule 0000000180033328     frame.obj
 0004:00002334       $pdata$6$SWIG_InitializeModule 0000000180033334     frame.obj
 0004:00002340       $pdata$SWIG_Python_FixMethods 0000000180033340     frame.obj
 0004:0000234c       $pdata$4$SWIG_Python_FixMethods 000000018003334c     frame.obj
 0004:00002358       $pdata$5$SWIG_Python_FixMethods 0000000180033358     frame.obj
 0004:00002364       $pdata$PyInit__ida_frame   0000000180033364     frame.obj
 0004:00002370       $pdata$1$PyInit__ida_frame 0000000180033370     frame.obj
 0004:0000237c       $pdata$2$PyInit__ida_frame 000000018003337c     frame.obj
 0004:00002388       $pdata$3$PyInit__ida_frame 0000000180033388     frame.obj
 0004:00002394       $pdata$4$PyInit__ida_frame 0000000180033394     frame.obj
 0004:000023a0       $pdata$??2@YAPEAX_K@Z      00000001800333a0     MSVCRT:new_scalar.obj
 0004:000023ac       $pdata$_Init_thread_header 00000001800333ac     MSVCRT:thread_safe_statics.obj
 0004:000023b8       $pdata$_Init_thread_footer 00000001800333b8     MSVCRT:thread_safe_statics.obj
 0004:000023c4       $pdata$_Init_thread_wait   00000001800333c4     MSVCRT:thread_safe_statics.obj
 0004:000023d0       $pdata$_Init_thread_notify 00000001800333d0     MSVCRT:thread_safe_statics.obj
 0004:000023dc       $pdata$?__scrt_uninitialize_thread_safe_statics@@YAXXZ 00000001800333dc     MSVCRT:thread_safe_statics.obj
 0004:000023e8       $pdata$?__scrt_initialize_thread_safe_statics@@YAHXZ 00000001800333e8     MSVCRT:thread_safe_statics.obj
 0004:000023f4       $pdata$__GSHandlerCheckCommon 00000001800333f4     MSVCRT:gshandler.obj
 0004:00002400       $pdata$__GSHandlerCheck    0000000180033400     MSVCRT:gshandler.obj
 0004:0000240c       $pdata$__GSHandlerCheck_EH 000000018003340c     MSVCRT:gshandlereh.obj
 0004:00002424       $pdata$??_Gtype_info@@UEAAPEAXI@Z 0000000180033424     MSVCRT:std_type_info_static.obj
 0004:00002430       $pdata$?dllmain_crt_process_attach@@YAHQEAUHINSTANCE__@@QEAX@Z 0000000180033430     MSVCRT:dll_dllmain.obj
 0004:0000243c       $pdata$?fin$0@?0??dllmain_crt_process_attach@@YAHQEAUHINSTANCE__@@QEAX@Z@4HA 000000018003343c     MSVCRT:dll_dllmain.obj
 0004:00002448       $pdata$?dllmain_crt_process_detach@@YAH_N@Z 0000000180033448     MSVCRT:dll_dllmain.obj
 0004:00002454       $pdata$?fin$0@?0??dllmain_crt_process_detach@@YAH_N@Z@4HA 0000000180033454     MSVCRT:dll_dllmain.obj
 0004:00002460       $pdata$?dllmain_crt_dispatch@@YAHQEAUHINSTANCE__@@KQEAX@Z 0000000180033460     MSVCRT:dll_dllmain.obj
 0004:0000246c       $pdata$?dllmain_dispatch@@YAHQEAUHINSTANCE__@@KQEAX@Z 000000018003346c     MSVCRT:dll_dllmain.obj
 0004:00002478       $pdata$?filt$0@?0??dllmain_dispatch@@YAHQEAUHINSTANCE__@@KQEAX@Z@4HA 0000000180033478     MSVCRT:dll_dllmain.obj
 0004:00002484       $pdata$_DllMainCRTStartup  0000000180033484     MSVCRT:dll_dllmain.obj
 0004:00002490       $pdata$??0bad_alloc@std@@QEAA@AEBV01@@Z 0000000180033490     MSVCRT:throw_bad_alloc.obj
 0004:0000249c       $pdata$??0bad_array_new_length@std@@QEAA@AEBV01@@Z 000000018003349c     MSVCRT:throw_bad_alloc.obj
 0004:000024a8       $pdata$?__scrt_throw_std_bad_alloc@@YAXXZ 00000001800334a8     MSVCRT:throw_bad_alloc.obj
 0004:000024b4       $pdata$?__scrt_throw_std_bad_array_new_length@@YAXXZ 00000001800334b4     MSVCRT:throw_bad_alloc.obj
 0004:000024c0       $pdata$atexit              00000001800334c0     MSVCRT:utility.obj
 0004:000024cc       $pdata$_onexit             00000001800334cc     MSVCRT:utility.obj
 0004:000024d8       $pdata$__scrt_is_nonwritable_in_current_image 00000001800334d8     MSVCRT:utility.obj
 0004:000024e4       $pdata$__scrt_is_nonwritable_in_current_image$filt$0 00000001800334e4     MSVCRT:utility.obj
 0004:000024f0       $pdata$__scrt_acquire_startup_lock 00000001800334f0     MSVCRT:utility.obj
 0004:000024fc       $pdata$__scrt_release_startup_lock 00000001800334fc     MSVCRT:utility.obj
 0004:00002508       $pdata$__scrt_initialize_crt 0000000180033508     MSVCRT:utility.obj
 0004:00002514       $pdata$__scrt_uninitialize_crt 0000000180033514     MSVCRT:utility.obj
 0004:00002520       $pdata$__scrt_initialize_onexit_tables 0000000180033520     MSVCRT:utility.obj
 0004:0000252c       $pdata$__scrt_dllmain_exception_filter 000000018003352c     MSVCRT:utility.obj
 0004:00002538       $pdata$__scrt_dllmain_before_initialize_c 0000000180033538     MSVCRT:utility.obj
 0004:00002544       $pdata$__scrt_dllmain_after_initialize_c 0000000180033544     MSVCRT:utility.obj
 0004:00002550       $pdata$__scrt_dllmain_uninitialize_c 0000000180033550     MSVCRT:utility.obj
 0004:0000255c       $pdata$__scrt_dllmain_uninitialize_critical 000000018003355c     MSVCRT:utility.obj
 0004:00002568       $pdata$__scrt_dllmain_crt_thread_attach 0000000180033568     MSVCRT:utility.obj
 0004:00002574       $pdata$__scrt_dllmain_crt_thread_detach 0000000180033574     MSVCRT:utility.obj
 0004:00002580       $pdata$__scrt_fastfail     0000000180033580     MSVCRT:utility_desktop.obj
 0004:0000258c       $pdata$__report_gsfailure  000000018003358c     MSVCRT:gs_report.obj
 0004:00002598       $pdata$capture_previous_context 0000000180033598     MSVCRT:gs_report.obj
 0004:000025a4       $pdata$__raise_securityfailure 00000001800335a4     MSVCRT:gs_report.obj
 0004:000025b0       $pdata$__security_init_cookie 00000001800335b0     MSVCRT:gs_support.obj
 0004:000025bc       $pdata$DllMain             00000001800335bc     MSVCRT:dll_dllmain_stub.obj
 0004:000025c8       $pdata$__scrt_initialize_default_local_stdio_options 00000001800335c8     MSVCRT:default_local_stdio_options.obj
 0004:000025d4       $pdata$_RTC_Initialize     00000001800335d4     MSVCRT:initsect.obj
 0004:000025e0       $pdata$_RTC_Terminate      00000001800335e0     MSVCRT:initsect.obj
 0004:000025ec       $pdata$__isa_available_init 00000001800335ec     MSVCRT:cpu_disp.obj
