 _ida_funcs

 Timestamp is 5e3da086 (Fri Feb  7 17:38:14 2020)

 Preferred load address is 0000000180000000

 Start         Length     Name                   Class
 0001:00000000 00017450H .text$mn                CODE
 0001:00017450 00000020H .text$mn$00             CODE
 0001:00017470 0000ae73H .text$x                 CODE
 0002:00000000 000006a8H .idata$5                DATA
 0002:000006a8 00000010H .00cfg                  DATA
 0002:000006b8 00000008H .CRT$XCA                DATA
 0002:000006c0 00000008H .CRT$XCZ                DATA
 0002:000006c8 00000008H .CRT$XIA                DATA
 0002:000006d0 00000008H .CRT$XIC                DATA
 0002:000006d8 00000008H .CRT$XIZ                DATA
 0002:000006e0 00000008H .CRT$XLA                DATA
 0002:000006e8 00000008H .CRT$XLZ                DATA
 0002:000006f0 00000008H .CRT$XPA                DATA
 0002:000006f8 00000008H .CRT$XPZ                DATA
 0002:00000700 00000008H .CRT$XTA                DATA
 0002:00000708 00000008H .CRT$XTZ                DATA
 0002:00000710 00000000H .gfids$y                DATA
 0002:00000710 0000cad0H .rdata                  DATA
 0002:0000d1e0 00000028H .rdata$T                DATA
 0002:0000d208 000002fcH .rdata$r                DATA
 0002:0000d504 00000314H .rdata$zzzdbg           DATA
 0002:0000d818 00000008H .rtc$IAA                DATA
 0002:0000d820 00000008H .rtc$IZZ                DATA
 0002:0000d828 00000008H .rtc$TAA                DATA
 0002:0000d830 00000008H .rtc$TZZ                DATA
 0002:0000d838 00000004H .tls                    DATA
 0002:0000d83c 00000004H .tls$                   DATA
 0002:0000d840 00000010H .tls$ZZZ                DATA
 0002:0000d850 00008ae8H .xdata                  DATA
 0002:00016338 00000188H .xdata$x                DATA
 0002:000164c0 00000054H .edata                  DATA
 0002:00016514 000000b4H .idata$2                DATA
 0002:000165c8 00000018H .idata$3                DATA
 0002:000165e0 000006a8H .idata$4                DATA
 0002:00016c88 000010c4H .idata$6                DATA
 0003:00000000 000047c8H .data                   DATA
 0003:000047c8 00000148H .data$r                 DATA
 0003:00004910 00000998H .bss                    DATA
 0004:00000000 00003cf0H .pdata                  DATA

  Address         Publics by Value              Rva+Base               Lib:Object

 0000:00000000       __volatile_metadata        0000000000000000     <absolute>
 0000:00000000       __guard_iat_count          0000000000000000     <absolute>
 0000:00000000       __hybrid_code_map          0000000000000000     <absolute>
 0000:00000000       __guard_iat_table          0000000000000000     <absolute>
 0000:00000000       ___safe_se_handler_count   0000000000000000     <absolute>
 0000:00000000       __hybrid_code_map_count    0000000000000000     <absolute>
 0000:00000000       __dynamic_value_reloc_table 0000000000000000     <absolute>
 0000:00000000       __guard_fids_count         0000000000000000     <absolute>
 0000:00000000       __enclave_config           0000000000000000     <absolute>
 0000:00000000       ___safe_se_handler_table   0000000000000000     <absolute>
 0000:00000000       __guard_fids_table         0000000000000000     <absolute>
 0000:00000000       __guard_longjmp_table      0000000000000000     <absolute>
 0000:00000000       __hybrid_auxiliary_iat     0000000000000000     <absolute>
 0000:00000000       __guard_longjmp_count      0000000000000000     <absolute>
 0000:00000100       __guard_flags              0000000000000100     <absolute>
 0000:00000000       __ImageBase                0000000180000000     <linker-defined>
 0001:00013120       ??0exception@std@@QEAA@AEBV01@@Z 0000000180014120 f i funcs.obj
 0001:00013160       ??0logic_error@std@@QEAA@AEBV01@@Z 0000000180014160 f i funcs.obj
 0001:000131a0       ??0out_of_range@std@@QEAA@AEBV01@@Z 00000001800141a0 f i funcs.obj
 0001:000131e0       ??0out_of_range@std@@QEAA@PEBD@Z 00000001800141e0 f i funcs.obj
 0001:00013230       ??1?$SwigValueWrapper@U?$dynamic_wrapped_array_t@Urange_t@@@@@@QEAA@XZ 0000000180014230 f i funcs.obj
 0001:00013230       ??1?$SwigValueWrapper@U?$dynamic_wrapped_array_t@Ustkpnt_t@@@@@@QEAA@XZ 0000000180014230 f i funcs.obj
 0001:00013230       ??1?$SwigValueWrapper@U?$dynamic_wrapped_array_t@Uregvar_t@@@@@@QEAA@XZ 0000000180014230 f i funcs.obj
 0001:00013240       ??1?$qvector@I@@QEAA@XZ    0000000180014240 f i funcs.obj
 0001:00013240       ??1?$_qstring@D@@QEAA@XZ   0000000180014240 f i funcs.obj
 0001:00013250       ??1bad_array_new_length@std@@UEAA@XZ 0000000180014250 f i MSVCRT:throw_bad_alloc.obj
 0001:00013250       ??1out_of_range@std@@UEAA@XZ 0000000180014250 f i funcs.obj
 0001:00013250       ??1bad_alloc@std@@UEAA@XZ  0000000180014250 f i MSVCRT:throw_bad_alloc.obj
 0001:00013270       ??_Gbad_alloc@std@@UEAAPEAXI@Z 0000000180014270 f i MSVCRT:throw_bad_alloc.obj
 0001:00013270       ??_Gbad_array_new_length@std@@UEAAPEAXI@Z 0000000180014270 f i MSVCRT:throw_bad_alloc.obj
 0001:00013270       ??_Elogic_error@std@@UEAAPEAXI@Z 0000000180014270 f i funcs.obj
 0001:00013270       ??_Gexception@std@@UEAAPEAXI@Z 0000000180014270 f i funcs.obj
 0001:00013270       ??_Ebad_alloc@std@@UEAAPEAXI@Z 0000000180014270 f i MSVCRT:throw_bad_alloc.obj
 0001:00013270       ??_Eexception@std@@UEAAPEAXI@Z 0000000180014270 f i funcs.obj
 0001:00013270       ??_Ebad_array_new_length@std@@UEAAPEAXI@Z 0000000180014270 f i MSVCRT:throw_bad_alloc.obj
 0001:00013270       ??_Gout_of_range@std@@UEAAPEAXI@Z 0000000180014270 f i funcs.obj
 0001:00013270       ??_Glogic_error@std@@UEAAPEAXI@Z 0000000180014270 f i funcs.obj
 0001:00013270       ??_Eout_of_range@std@@UEAAPEAXI@Z 0000000180014270 f i funcs.obj
 0001:00013890       __scrt_stub_for_acrt_thread_attach 0000000180014890 f i MSVCRT:ucrt_stubs.obj
 0001:00013890       __vcrt_thread_detach       0000000180014890 f i MSVCRT:ucrt_stubs.obj
 0001:00013890       __acrt_uninitialize_critical 0000000180014890 f i MSVCRT:ucrt_stubs.obj
 0001:00013890       __acrt_uninitialize        0000000180014890 f i MSVCRT:ucrt_stubs.obj
 0001:00013890       __scrt_stub_for_acrt_uninitialize_critical 0000000180014890 f i MSVCRT:ucrt_stubs.obj
 0001:00013890       __vcrt_initialize          0000000180014890 f i MSVCRT:ucrt_stubs.obj
 0001:00013890       __acrt_initialize          0000000180014890 f i MSVCRT:ucrt_stubs.obj
 0001:00013890       __vcrt_uninitialize        0000000180014890 f i MSVCRT:ucrt_stubs.obj
 0001:00013890       __vcrt_thread_attach       0000000180014890 f i MSVCRT:ucrt_stubs.obj
 0001:00013890       __acrt_thread_attach       0000000180014890 f i MSVCRT:ucrt_stubs.obj
 0001:00013890       __scrt_stub_for_acrt_initialize 0000000180014890 f i MSVCRT:ucrt_stubs.obj
 0001:00013890       __acrt_thread_detach       0000000180014890 f i MSVCRT:ucrt_stubs.obj
 0001:00013890       ?f_any@@YA_NIPEAX@Z        0000000180014890 f i funcs.obj
 0001:00013890       __vcrt_uninitialize_critical 0000000180014890 f i MSVCRT:ucrt_stubs.obj
 0001:00013890       __scrt_stub_for_acrt_thread_detach 0000000180014890 f i MSVCRT:ucrt_stubs.obj
 0001:00013890       __scrt_stub_for_acrt_uninitialize 0000000180014890 f i MSVCRT:ucrt_stubs.obj
 0001:000138a0       ?f_is_code@@YA_NIPEAX@Z    00000001800148a0 f i funcs.obj
 0001:000138b0       ?f_is_data@@YA_NIPEAX@Z    00000001800148b0 f i funcs.obj
 0001:000138c0       ?f_is_head@@YA_NIPEAX@Z    00000001800148c0 f i funcs.obj
 0001:000138d0       ?f_is_not_tail@@YA_NIPEAX@Z 00000001800148d0 f i funcs.obj
 0001:000138e0       ?set_range@func_tail_iterator_t@@QEAA_NII@Z 00000001800148e0 f i funcs.obj
 0001:00013940       ?sprnt@?$_qstring@D@@QEAAAEAV1@PEBDZZ 0000000180014940 f i funcs.obj
 0001:00013a00       ?what@exception@std@@UEBAPEBDXZ 0000000180014a00 f i funcs.obj
 0001:00013a20       PyInit__ida_funcs          0000000180014a20 f   funcs.obj
 0001:00015890       __local_stdio_printf_options 0000000180016890 f i funcs.obj
 0001:00015ec0       printf                     0000000180016ec0 f i funcs.obj
 0001:00015f15       qfree                      0000000180016f15 f   ida:ida.dll
 0001:00015f1b       qvsnprintf                 0000000180016f1b f   ida:ida.dll
 0001:00015f21       qvector_reserve            0000000180016f21 f   ida:ida.dll
 0001:00015f27       is_main_thread             0000000180016f27 f   ida:ida.dll
 0001:00015f2d       lock_func_range            0000000180016f2d f   ida:ida.dll
 0001:00015f33       is_func_locked             0000000180016f33 f   ida:ida.dll
 0001:00015f39       get_func                   0000000180016f39 f   ida:ida.dll
 0001:00015f3f       get_func_chunknum          0000000180016f3f f   ida:ida.dll
 0001:00015f45       getn_func                  0000000180016f45 f   ida:ida.dll
 0001:00015f4b       get_func_qty               0000000180016f4b f   ida:ida.dll
 0001:00015f51       get_func_num               0000000180016f51 f   ida:ida.dll
 0001:00015f57       get_prev_func              0000000180016f57 f   ida:ida.dll
 0001:00015f5d       get_next_func              0000000180016f5d f   ida:ida.dll
 0001:00015f63       get_func_ranges            0000000180016f63 f   ida:ida.dll
 0001:00015f69       get_func_cmt               0000000180016f69 f   ida:ida.dll
 0001:00015f6f       set_func_cmt               0000000180016f6f f   ida:ida.dll
 0001:00015f75       update_func                0000000180016f75 f   ida:ida.dll
 0001:00015f7b       add_func_ex                0000000180016f7b f   ida:ida.dll
 0001:00015f81       del_func                   0000000180016f81 f   ida:ida.dll
 0001:00015f87       set_func_start             0000000180016f87 f   ida:ida.dll
 0001:00015f8d       set_func_end               0000000180016f8d f   ida:ida.dll
 0001:00015f93       reanalyze_function         0000000180016f93 f   ida:ida.dll
 0001:00015f99       find_func_bounds           0000000180016f99 f   ida:ida.dll
 0001:00015f9f       get_func_name              0000000180016f9f f   ida:ida.dll
 0001:00015fa5       calc_func_size             0000000180016fa5 f   ida:ida.dll
 0001:00015fab       get_func_bitness           0000000180016fab f   ida:ida.dll
 0001:00015fb1       set_visible_func           0000000180016fb1 f   ida:ida.dll
 0001:00015fb7       set_func_name_if_jumpfunc  0000000180016fb7 f   ida:ida.dll
 0001:00015fbd       calc_thunk_func_target     0000000180016fbd f   ida:ida.dll
 0001:00015fc3       func_does_return           0000000180016fc3 f   ida:ida.dll
 0001:00015fc9       reanalyze_noret_flag       0000000180016fc9 f   ida:ida.dll
 0001:00015fcf       set_noret_insn             0000000180016fcf f   ida:ida.dll
 0001:00015fd5       get_fchunk                 0000000180016fd5 f   ida:ida.dll
 0001:00015fdb       getn_fchunk                0000000180016fdb f   ida:ida.dll
 0001:00015fe1       get_fchunk_qty             0000000180016fe1 f   ida:ida.dll
 0001:00015fe7       get_fchunk_num             0000000180016fe7 f   ida:ida.dll
 0001:00015fed       get_prev_fchunk            0000000180016fed f   ida:ida.dll
 0001:00015ff3       get_next_fchunk            0000000180016ff3 f   ida:ida.dll
 0001:00015ff9       append_func_tail           0000000180016ff9 f   ida:ida.dll
 0001:00015fff       remove_func_tail           0000000180016fff f   ida:ida.dll
 0001:00016005       set_tail_owner             0000000180017005 f   ida:ida.dll
 0001:0001600b       func_tail_iterator_set     000000018001700b f   ida:ida.dll
 0001:00016011       func_tail_iterator_set_ea  0000000180017011 f   ida:ida.dll
 0001:00016017       func_parent_iterator_set   0000000180017017 f   ida:ida.dll
 0001:0001601d       func_item_iterator_next    000000018001701d f   ida:ida.dll
 0001:00016023       func_item_iterator_prev    0000000180017023 f   ida:ida.dll
 0001:00016029       func_item_iterator_decode_prev_insn 0000000180017029 f   ida:ida.dll
 0001:0001602f       func_item_iterator_decode_preceding_insn 000000018001702f f   ida:ida.dll
 0001:00016035       get_prev_func_addr         0000000180017035 f   ida:ida.dll
 0001:0001603b       get_next_func_addr         000000018001703b f   ida:ida.dll
 0001:00016041       read_regargs               0000000180017041 f   ida:ida.dll
 0001:00016047       add_regarg                 0000000180017047 f   ida:ida.dll
 0001:0001604d       plan_to_apply_idasgn       000000018001704d f   ida:ida.dll
 0001:00016053       apply_idasgn_to            0000000180017053 f   ida:ida.dll
 0001:00016059       get_idasgn_qty             0000000180017059 f   ida:ida.dll
 0001:0001605f       get_current_idasgn         000000018001705f f   ida:ida.dll
 0001:00016065       calc_idasgn_state          0000000180017065 f   ida:ida.dll
 0001:0001606b       del_idasgn                 000000018001706b f   ida:ida.dll
 0001:00016071       get_idasgn_desc            0000000180017071 f   ida:ida.dll
 0001:00016077       get_idasgn_title           0000000180017077 f   ida:ida.dll
 0001:0001607d       apply_startup_sig          000000018001707d f   ida:ida.dll
 0001:00016083       try_to_add_libfunc         0000000180017083 f   ida:ida.dll
 0001:00016089       find_regvar                0000000180017089 f   ida:ida.dll
 0001:0001608f       PyW_GetNumber              000000018001708f f   python:python.dll
 0001:00016095       PyW_PyListToEaVec          0000000180017095 f   python:python.dll
 0001:0001609c       ??2@YAPEAX_K@Z             000000018001709c f   MSVCRT:new_scalar.obj
 0001:000160d8       ??_V@YAXPEAX@Z             00000001800170d8 f   MSVCRT:delete_array.obj
 0001:000160d8       ??3@YAXPEAX_K@Z            00000001800170d8 f   MSVCRT:delete_scalar_size.obj
 0001:000160e0       ??_U@YAPEAX_K@Z            00000001800170e0 f   MSVCRT:new_array.obj
 0001:00016270       _Init_thread_footer        0000000180017270 f   MSVCRT:thread_safe_statics.obj
 0001:000162d0       _Init_thread_header        00000001800172d0 f   MSVCRT:thread_safe_statics.obj
 0001:00016338       _Init_thread_notify        0000000180017338 f   MSVCRT:thread_safe_statics.obj
 0001:00016388       _Init_thread_wait          0000000180017388 f   MSVCRT:thread_safe_statics.obj
 0001:00016400       __GSHandlerCheck           0000000180017400 f   MSVCRT:gshandler.obj
 0001:00016420       __GSHandlerCheckCommon     0000000180017420 f   MSVCRT:gshandler.obj
 0001:0001647c       __GSHandlerCheck_EH        000000018001747c f   MSVCRT:gshandlereh.obj
 0001:00016510       __security_check_cookie    0000000180017510 f   MSVCRT:amdsecgs.obj
 0001:00016534       ??_Etype_info@@UEAAPEAXI@Z 0000000180017534 f i MSVCRT:std_type_info_static.obj
 0001:00016534       ??_Gtype_info@@UEAAPEAXI@Z 0000000180017534 f i MSVCRT:std_type_info_static.obj
 0001:00016890       _DllMainCRTStartup         0000000180017890 f   MSVCRT:dll_dllmain.obj
 0001:000168d0       ??0bad_alloc@std@@QEAA@AEBV01@@Z 00000001800178d0 f i MSVCRT:throw_bad_alloc.obj
 0001:00016910       ??0bad_alloc@std@@QEAA@XZ  0000000180017910 f i MSVCRT:throw_bad_alloc.obj
 0001:00016930       ??0bad_array_new_length@std@@QEAA@AEBV01@@Z 0000000180017930 f i MSVCRT:throw_bad_alloc.obj
 0001:00016970       ??0bad_array_new_length@std@@QEAA@XZ 0000000180017970 f i MSVCRT:throw_bad_alloc.obj
 0001:00016990       ?__scrt_throw_std_bad_alloc@@YAXXZ 0000000180017990 f   MSVCRT:throw_bad_alloc.obj
 0001:000169b0       ?__scrt_throw_std_bad_array_new_length@@YAXXZ 00000001800179b0 f   MSVCRT:throw_bad_alloc.obj
 0001:000169d0       ??3@YAXPEAX@Z              00000001800179d0 f   MSVCRT:delete_scalar.obj
 0001:000169d8       __scrt_acquire_startup_lock 00000001800179d8 f   MSVCRT:utility.obj
 0001:00016a14       __scrt_dllmain_after_initialize_c 0000000180017a14 f   MSVCRT:utility.obj
 0001:00016a48       __scrt_dllmain_before_initialize_c 0000000180017a48 f   MSVCRT:utility.obj
 0001:00016a60       __scrt_dllmain_crt_thread_attach 0000000180017a60 f   MSVCRT:utility.obj
 0001:00016a88       __scrt_dllmain_crt_thread_detach 0000000180017a88 f   MSVCRT:utility.obj
 0001:00016aa0       __scrt_dllmain_exception_filter 0000000180017aa0 f   MSVCRT:utility.obj
 0001:00016b00       __scrt_dllmain_uninitialize_c 0000000180017b00 f   MSVCRT:utility.obj
 0001:00016b30       __scrt_dllmain_uninitialize_critical 0000000180017b30 f   MSVCRT:utility.obj
 0001:00016b44       __scrt_initialize_crt      0000000180017b44 f   MSVCRT:utility.obj
 0001:00016b90       __scrt_initialize_onexit_tables 0000000180017b90 f   MSVCRT:utility.obj
 0001:00016c68       __scrt_is_nonwritable_in_current_image 0000000180017c68 f   MSVCRT:utility.obj
 0001:00016d04       __scrt_release_startup_lock 0000000180017d04 f   MSVCRT:utility.obj
 0001:00016d28       __scrt_uninitialize_crt    0000000180017d28 f   MSVCRT:utility.obj
 0001:00016d54       _onexit                    0000000180017d54 f   MSVCRT:utility.obj
 0001:00016da4       atexit                     0000000180017da4 f   MSVCRT:utility.obj
 0001:00016dbc       __crt_debugger_hook        0000000180017dbc f   MSVCRT:utility_desktop.obj
 0001:00016dc4       __scrt_fastfail            0000000180017dc4 f   MSVCRT:utility_desktop.obj
 0001:00016f10       _guard_check_icall_nop     0000000180017f10 f i MSVCRT:guard_support.obj
 0001:00016f14       __raise_securityfailure    0000000180017f14 f   MSVCRT:gs_report.obj
 0001:00016f48       __report_gsfailure         0000000180017f48 f   MSVCRT:gs_report.obj
 0001:00017090       __security_init_cookie     0000000180018090 f   MSVCRT:gs_support.obj
 0001:0001713c       DllMain                    000000018001813c f   MSVCRT:dll_dllmain_stub.obj
 0001:00017160       ?__scrt_initialize_type_info@@YAXXZ 0000000180018160 f   MSVCRT:tncleanup.obj
 0001:00017170       ?__scrt_uninitialize_type_info@@YAXXZ 0000000180018170 f   MSVCRT:tncleanup.obj
 0001:0001717c       __local_stdio_scanf_options 000000018001817c f i MSVCRT:default_local_stdio_options.obj
 0001:00017184       __scrt_initialize_default_local_stdio_options 0000000180018184 f   MSVCRT:default_local_stdio_options.obj
 0001:000171a0       __scrt_get_dyn_tls_init_callback 00000001800181a0 f   MSVCRT:dyn_tls_init.obj
 0001:000171a8       _RTC_Initialize            00000001800181a8 f   MSVCRT:initsect.obj
 0001:000171e4       _RTC_Terminate             00000001800181e4 f   MSVCRT:initsect.obj
 0001:00017220       __isa_available_init       0000000180018220 f   MSVCRT:cpu_disp.obj
 0001:0001739c       _get_startup_argv_mode     000000018001839c f   MSVCRT:argv_mode.obj
 0001:000173a4       __scrt_is_ucrt_dll_in_use  00000001800183a4 f   MSVCRT:ucrt_detection.obj
 0001:000173b0       IsProcessorFeaturePresent  00000001800183b0 f   kernel32:KERNEL32.dll
 0001:000173b6       strstr                     00000001800183b6 f   vcruntime:VCRUNTIME140.dll
 0001:000173bc       __std_exception_copy       00000001800183bc f   vcruntime:VCRUNTIME140.dll
 0001:000173c2       __std_exception_destroy    00000001800183c2 f   vcruntime:VCRUNTIME140.dll
 0001:000173c8       _CxxThrowException         00000001800183c8 f   vcruntime:VCRUNTIME140.dll
 0001:000173ce       __CxxFrameHandler3         00000001800183ce f   vcruntime:VCRUNTIME140.dll
 0001:000173d4       memcpy                     00000001800183d4 f   vcruntime:VCRUNTIME140.dll
 0001:000173da       memset                     00000001800183da f   vcruntime:VCRUNTIME140.dll
 0001:000173e0       __std_terminate            00000001800183e0 f   vcruntime:VCRUNTIME140.dll
 0001:000173e6       __C_specific_handler       00000001800183e6 f   vcruntime:VCRUNTIME140.dll
 0001:000173ec       __std_type_info_destroy_list 00000001800183ec f   vcruntime:VCRUNTIME140.dll
 0001:000173f2       free                       00000001800183f2 f   ucrt:api-ms-win-crt-heap-l1-1-0.dll
 0001:000173f8       malloc                     00000001800183f8 f   ucrt:api-ms-win-crt-heap-l1-1-0.dll
 0001:000173fe       _callnewh                  00000001800183fe f   ucrt:api-ms-win-crt-heap-l1-1-0.dll
 0001:00017404       _initterm                  0000000180018404 f   ucrt:api-ms-win-crt-runtime-l1-1-0.dll
 0001:0001740a       _initterm_e                000000018001840a f   ucrt:api-ms-win-crt-runtime-l1-1-0.dll
 0001:00017410       _seh_filter_dll            0000000180018410 f   ucrt:api-ms-win-crt-runtime-l1-1-0.dll
 0001:00017416       _configure_narrow_argv     0000000180018416 f   ucrt:api-ms-win-crt-runtime-l1-1-0.dll
 0001:0001741c       _initialize_narrow_environment 000000018001841c f   ucrt:api-ms-win-crt-runtime-l1-1-0.dll
 0001:00017422       _initialize_onexit_table   0000000180018422 f   ucrt:api-ms-win-crt-runtime-l1-1-0.dll
 0001:00017428       _register_onexit_function  0000000180018428 f   ucrt:api-ms-win-crt-runtime-l1-1-0.dll
 0001:0001742e       _execute_onexit_table      000000018001842e f   ucrt:api-ms-win-crt-runtime-l1-1-0.dll
 0001:00017434       _crt_atexit                0000000180018434 f   ucrt:api-ms-win-crt-runtime-l1-1-0.dll
 0001:0001743a       _cexit                     000000018001843a f   ucrt:api-ms-win-crt-runtime-l1-1-0.dll
 0001:00017440       __scrt_stub_for_is_c_termination_complete 0000000180018440 f   MSVCRT:ucrt_stubs.obj
 0001:00017440       _is_c_termination_complete 0000000180018440 f   MSVCRT:ucrt_stubs.obj
 0001:00017460       _guard_dispatch_icall_nop  0000000180018460 f   MSVCRT:guard_dispatch.obj
 0002:00000000       __imp_CloseHandle          0000000180024000     kernel32:KERNEL32.dll
 0002:00000008       __imp_EnterCriticalSection 0000000180024008     kernel32:KERNEL32.dll
 0002:00000010       __imp_LeaveCriticalSection 0000000180024010     kernel32:KERNEL32.dll
 0002:00000018       __imp_InitializeCriticalSectionAndSpinCount 0000000180024018     kernel32:KERNEL32.dll
 0002:00000020       __imp_DeleteCriticalSection 0000000180024020     kernel32:KERNEL32.dll
 0002:00000028       __imp_SetEvent             0000000180024028     kernel32:KERNEL32.dll
 0002:00000030       __imp_ResetEvent           0000000180024030     kernel32:KERNEL32.dll
 0002:00000038       __imp_WaitForSingleObjectEx 0000000180024038     kernel32:KERNEL32.dll
 0002:00000040       __imp_CreateEventW         0000000180024040     kernel32:KERNEL32.dll
 0002:00000048       __imp_GetModuleHandleW     0000000180024048     kernel32:KERNEL32.dll
 0002:00000050       __imp_GetProcAddress       0000000180024050     kernel32:KERNEL32.dll
 0002:00000058       __imp_RtlCaptureContext    0000000180024058     kernel32:KERNEL32.dll
 0002:00000060       __imp_RtlLookupFunctionEntry 0000000180024060     kernel32:KERNEL32.dll
 0002:00000068       __imp_RtlVirtualUnwind     0000000180024068     kernel32:KERNEL32.dll
 0002:00000070       __imp_IsDebuggerPresent    0000000180024070     kernel32:KERNEL32.dll
 0002:00000078       __imp_UnhandledExceptionFilter 0000000180024078     kernel32:KERNEL32.dll
 0002:00000080       __imp_SetUnhandledExceptionFilter 0000000180024080     kernel32:KERNEL32.dll
 0002:00000088       __imp_IsProcessorFeaturePresent 0000000180024088     kernel32:KERNEL32.dll
 0002:00000090       __imp_GetCurrentProcess    0000000180024090     kernel32:KERNEL32.dll
 0002:00000098       __imp_TerminateProcess     0000000180024098     kernel32:KERNEL32.dll
 0002:000000a0       __imp_QueryPerformanceCounter 00000001800240a0     kernel32:KERNEL32.dll
 0002:000000a8       __imp_GetCurrentProcessId  00000001800240a8     kernel32:KERNEL32.dll
 0002:000000b0       __imp_GetCurrentThreadId   00000001800240b0     kernel32:KERNEL32.dll
 0002:000000b8       __imp_GetSystemTimeAsFileTime 00000001800240b8     kernel32:KERNEL32.dll
 0002:000000c0       __imp_DisableThreadLibraryCalls 00000001800240c0     kernel32:KERNEL32.dll
 0002:000000c8       __imp_InitializeSListHead  00000001800240c8     kernel32:KERNEL32.dll
 0002:000000d0       \177KERNEL32_NULL_THUNK_DATA 00000001800240d0     kernel32:KERNEL32.dll
 0002:000000d8       __imp_strstr               00000001800240d8     vcruntime:VCRUNTIME140.dll
 0002:000000e0       __imp___std_exception_copy 00000001800240e0     vcruntime:VCRUNTIME140.dll
 0002:000000e8       __imp___std_exception_destroy 00000001800240e8     vcruntime:VCRUNTIME140.dll
 0002:000000f0       __imp__CxxThrowException   00000001800240f0     vcruntime:VCRUNTIME140.dll
 0002:000000f8       __imp___CxxFrameHandler3   00000001800240f8     vcruntime:VCRUNTIME140.dll
 0002:00000100       __imp_memcpy               0000000180024100     vcruntime:VCRUNTIME140.dll
 0002:00000108       __imp_memset               0000000180024108     vcruntime:VCRUNTIME140.dll
 0002:00000110       __imp___std_terminate      0000000180024110     vcruntime:VCRUNTIME140.dll
 0002:00000118       __imp___C_specific_handler 0000000180024118     vcruntime:VCRUNTIME140.dll
 0002:00000120       __imp___std_type_info_destroy_list 0000000180024120     vcruntime:VCRUNTIME140.dll
 0002:00000128       \177VCRUNTIME140_NULL_THUNK_DATA 0000000180024128     vcruntime:VCRUNTIME140.dll
 0002:00000130       __imp_malloc               0000000180024130     ucrt:api-ms-win-crt-heap-l1-1-0.dll
 0002:00000138       __imp__callnewh            0000000180024138     ucrt:api-ms-win-crt-heap-l1-1-0.dll
 0002:00000140       __imp_free                 0000000180024140     ucrt:api-ms-win-crt-heap-l1-1-0.dll
 0002:00000148       \177api-ms-win-crt-heap-l1-1-0_NULL_THUNK_DATA 0000000180024148     ucrt:api-ms-win-crt-heap-l1-1-0.dll
 0002:00000150       __imp__initterm_e          0000000180024150     ucrt:api-ms-win-crt-runtime-l1-1-0.dll
 0002:00000158       __imp__seh_filter_dll      0000000180024158     ucrt:api-ms-win-crt-runtime-l1-1-0.dll
 0002:00000160       __imp__configure_narrow_argv 0000000180024160     ucrt:api-ms-win-crt-runtime-l1-1-0.dll
 0002:00000168       __imp__initterm            0000000180024168     ucrt:api-ms-win-crt-runtime-l1-1-0.dll
 0002:00000170       __imp__initialize_onexit_table 0000000180024170     ucrt:api-ms-win-crt-runtime-l1-1-0.dll
 0002:00000178       __imp__register_onexit_function 0000000180024178     ucrt:api-ms-win-crt-runtime-l1-1-0.dll
 0002:00000180       __imp__execute_onexit_table 0000000180024180     ucrt:api-ms-win-crt-runtime-l1-1-0.dll
 0002:00000188       __imp__crt_atexit          0000000180024188     ucrt:api-ms-win-crt-runtime-l1-1-0.dll
 0002:00000190       __imp__cexit               0000000180024190     ucrt:api-ms-win-crt-runtime-l1-1-0.dll
 0002:00000198       __imp__initialize_narrow_environment 0000000180024198     ucrt:api-ms-win-crt-runtime-l1-1-0.dll
 0002:000001a0       \177api-ms-win-crt-runtime-l1-1-0_NULL_THUNK_DATA 00000001800241a0     ucrt:api-ms-win-crt-runtime-l1-1-0.dll
 0002:000001a8       __imp___acrt_iob_func      00000001800241a8     ucrt:api-ms-win-crt-stdio-l1-1-0.dll
 0002:000001b0       __imp___stdio_common_vfprintf 00000001800241b0     ucrt:api-ms-win-crt-stdio-l1-1-0.dll
 0002:000001b8       \177api-ms-win-crt-stdio-l1-1-0_NULL_THUNK_DATA 00000001800241b8     ucrt:api-ms-win-crt-stdio-l1-1-0.dll
 0002:000001c0       __imp_strncmp              00000001800241c0     ucrt:api-ms-win-crt-string-l1-1-0.dll
 0002:000001c8       \177api-ms-win-crt-string-l1-1-0_NULL_THUNK_DATA 00000001800241c8     ucrt:api-ms-win-crt-string-l1-1-0.dll
 0002:000001d0       __imp_get_current_idasgn   00000001800241d0     ida:ida.dll
 0002:000001d8       __imp_calc_idasgn_state    00000001800241d8     ida:ida.dll
 0002:000001e0       __imp_find_regvar          00000001800241e0     ida:ida.dll
 0002:000001e8       __imp_try_to_add_libfunc   00000001800241e8     ida:ida.dll
 0002:000001f0       __imp_get_idasgn_qty       00000001800241f0     ida:ida.dll
 0002:000001f8       __imp_apply_idasgn_to      00000001800241f8     ida:ida.dll
 0002:00000200       __imp_plan_to_apply_idasgn 0000000180024200     ida:ida.dll
 0002:00000208       __imp_add_regarg           0000000180024208     ida:ida.dll
 0002:00000210       __imp_apply_startup_sig    0000000180024210     ida:ida.dll
 0002:00000218       __imp_get_next_func_addr   0000000180024218     ida:ida.dll
 0002:00000220       __imp_get_prev_func_addr   0000000180024220     ida:ida.dll
 0002:00000228       __imp_func_item_iterator_decode_preceding_insn 0000000180024228     ida:ida.dll
 0002:00000230       __imp_func_item_iterator_decode_prev_insn 0000000180024230     ida:ida.dll
 0002:00000238       __imp_func_item_iterator_prev 0000000180024238     ida:ida.dll
 0002:00000240       __imp_func_item_iterator_next 0000000180024240     ida:ida.dll
 0002:00000248       __imp_func_parent_iterator_set 0000000180024248     ida:ida.dll
 0002:00000250       __imp_func_tail_iterator_set_ea 0000000180024250     ida:ida.dll
 0002:00000258       __imp_func_tail_iterator_set 0000000180024258     ida:ida.dll
 0002:00000260       __imp_set_tail_owner       0000000180024260     ida:ida.dll
 0002:00000268       __imp_get_idasgn_desc      0000000180024268     ida:ida.dll
 0002:00000270       __imp_get_idasgn_title     0000000180024270     ida:ida.dll
 0002:00000278       __imp_read_regargs         0000000180024278     ida:ida.dll
 0002:00000280       __imp_del_idasgn           0000000180024280     ida:ida.dll
 0002:00000288       __imp_remove_func_tail     0000000180024288     ida:ida.dll
 0002:00000290       __imp_append_func_tail     0000000180024290     ida:ida.dll
 0002:00000298       __imp_get_next_fchunk      0000000180024298     ida:ida.dll
 0002:000002a0       __imp_get_prev_fchunk      00000001800242a0     ida:ida.dll
 0002:000002a8       __imp_get_fchunk_num       00000001800242a8     ida:ida.dll
 0002:000002b0       __imp_get_fchunk_qty       00000001800242b0     ida:ida.dll
 0002:000002b8       __imp_getn_fchunk          00000001800242b8     ida:ida.dll
 0002:000002c0       __imp_get_fchunk           00000001800242c0     ida:ida.dll
 0002:000002c8       __imp_set_noret_insn       00000001800242c8     ida:ida.dll
 0002:000002d0       __imp_reanalyze_noret_flag 00000001800242d0     ida:ida.dll
 0002:000002d8       __imp_func_does_return     00000001800242d8     ida:ida.dll
 0002:000002e0       __imp_calc_thunk_func_target 00000001800242e0     ida:ida.dll
 0002:000002e8       __imp_set_func_name_if_jumpfunc 00000001800242e8     ida:ida.dll
 0002:000002f0       __imp_set_visible_func     00000001800242f0     ida:ida.dll
 0002:000002f8       __imp_get_func_bitness     00000001800242f8     ida:ida.dll
 0002:00000300       __imp_calc_func_size       0000000180024300     ida:ida.dll
 0002:00000308       __imp_get_func_name        0000000180024308     ida:ida.dll
 0002:00000310       __imp_find_func_bounds     0000000180024310     ida:ida.dll
 0002:00000318       __imp_reanalyze_function   0000000180024318     ida:ida.dll
 0002:00000320       __imp_set_func_end         0000000180024320     ida:ida.dll
 0002:00000328       __imp_set_func_start       0000000180024328     ida:ida.dll
 0002:00000330       __imp_del_func             0000000180024330     ida:ida.dll
 0002:00000338       __imp_add_func_ex          0000000180024338     ida:ida.dll
 0002:00000340       __imp_qfree                0000000180024340     ida:ida.dll
 0002:00000348       __imp_update_func          0000000180024348     ida:ida.dll
 0002:00000350       __imp_set_func_cmt         0000000180024350     ida:ida.dll
 0002:00000358       __imp_get_func_cmt         0000000180024358     ida:ida.dll
 0002:00000360       __imp_get_func_ranges      0000000180024360     ida:ida.dll
 0002:00000368       __imp_get_next_func        0000000180024368     ida:ida.dll
 0002:00000370       __imp_get_prev_func        0000000180024370     ida:ida.dll
 0002:00000378       __imp_get_func_num         0000000180024378     ida:ida.dll
 0002:00000380       __imp_get_func_qty         0000000180024380     ida:ida.dll
 0002:00000388       __imp_getn_func            0000000180024388     ida:ida.dll
 0002:00000390       __imp_get_func_chunknum    0000000180024390     ida:ida.dll
 0002:00000398       __imp_get_func             0000000180024398     ida:ida.dll
 0002:000003a0       __imp_is_func_locked       00000001800243a0     ida:ida.dll
 0002:000003a8       __imp_lock_func_range      00000001800243a8     ida:ida.dll
 0002:000003b0       __imp_is_main_thread       00000001800243b0     ida:ida.dll
 0002:000003b8       __imp_qvector_reserve      00000001800243b8     ida:ida.dll
 0002:000003c0       __imp_qvsnprintf           00000001800243c0     ida:ida.dll
 0002:000003c8       __imp_inf                  00000001800243c8     ida:ida.dll
 0002:000003d0       \177ida_NULL_THUNK_DATA    00000001800243d0     ida:ida.dll
 0002:000003d8       __imp_PyW_GetNumber        00000001800243d8     python:python.dll
 0002:000003e0       __imp_PyW_PyListToEaVec    00000001800243e0     python:python.dll
 0002:000003e8       \177python_NULL_THUNK_DATA 00000001800243e8     python:python.dll
 0002:000003f0       __imp_PyObject_Call        00000001800243f0     python38:python38.dll
 0002:000003f8       __imp_PyObject_CallFunctionObjArgs 00000001800243f8     python38:python38.dll
 0002:00000400       __imp_PySequence_Check     0000000180024400     python38:python38.dll
 0002:00000408       __imp_PyObject_IsInstance  0000000180024408     python38:python38.dll
 0002:00000410       __imp_PyType_Type          0000000180024410     python38:python38.dll
 0002:00000418       __imp__Py_NoneStruct       0000000180024418     python38:python38.dll
 0002:00000420       __imp__Py_NotImplementedStruct 0000000180024420     python38:python38.dll
 0002:00000428       __imp_PyBool_Type          0000000180024428     python38:python38.dll
 0002:00000430       __imp_PyCFunction_Type     0000000180024430     python38:python38.dll
 0002:00000438       __imp_PyImport_AddModule   0000000180024438     python38:python38.dll
 0002:00000440       __imp_PyExc_IndexError     0000000180024440     python38:python38.dll
 0002:00000448       __imp_PyExc_MemoryError    0000000180024448     python38:python38.dll
 0002:00000450       __imp_PyExc_OverflowError  0000000180024450     python38:python38.dll
 0002:00000458       __imp_PyExc_RuntimeError   0000000180024458     python38:python38.dll
 0002:00000460       __imp_PyExc_SyntaxError    0000000180024460     python38:python38.dll
 0002:00000468       __imp_PyExc_SystemError    0000000180024468     python38:python38.dll
 0002:00000470       __imp_PyExc_TypeError      0000000180024470     python38:python38.dll
 0002:00000478       __imp_PyExc_ValueError     0000000180024478     python38:python38.dll
 0002:00000480       __imp_PyExc_ZeroDivisionError 0000000180024480     python38:python38.dll
 0002:00000488       __imp_PyExc_IOError        0000000180024488     python38:python38.dll
 0002:00000490       __imp_PyEval_InitThreads   0000000180024490     python38:python38.dll
 0002:00000498       __imp_PyModule_Create2     0000000180024498     python38:python38.dll
 0002:000004a0       __imp_PyExc_AttributeError 00000001800244a0     python38:python38.dll
 0002:000004a8       __imp_PyModule_AddObject   00000001800244a8     python38:python38.dll
 0002:000004b0       __imp_Py_BuildValue        00000001800244b0     python38:python38.dll
 0002:000004b8       __imp_PyArg_UnpackTuple    00000001800244b8     python38:python38.dll
 0002:000004c0       __imp_PyGILState_Release   00000001800244c0     python38:python38.dll
 0002:000004c8       __imp_PyGILState_Ensure    00000001800244c8     python38:python38.dll
 0002:000004d0       __imp_PyErr_WriteUnraisable 00000001800244d0     python38:python38.dll
 0002:000004d8       __imp_PyErr_Format         00000001800244d8     python38:python38.dll
 0002:000004e0       __imp_PyErr_GivenExceptionMatches 00000001800244e0     python38:python38.dll
 0002:000004e8       __imp_PyErr_Restore        00000001800244e8     python38:python38.dll
 0002:000004f0       __imp_PyErr_Fetch          00000001800244f0     python38:python38.dll
 0002:000004f8       __imp_PyErr_Clear          00000001800244f8     python38:python38.dll
 0002:00000500       __imp_PyErr_Occurred       0000000180024500     python38:python38.dll
 0002:00000508       __imp_PyErr_SetString      0000000180024508     python38:python38.dll
 0002:00000510       __imp_PyErr_SetObject      0000000180024510     python38:python38.dll
 0002:00000518       __imp_PyCapsule_Import     0000000180024518     python38:python38.dll
 0002:00000520       __imp_PyCapsule_GetPointer 0000000180024520     python38:python38.dll
 0002:00000528       __imp_PyCapsule_New        0000000180024528     python38:python38.dll
 0002:00000530       __imp_PyModule_GetDict     0000000180024530     python38:python38.dll
 0002:00000538       __imp_PyCFunction_GetSelf  0000000180024538     python38:python38.dll
 0002:00000540       __imp_PyCFunction_GetFunction 0000000180024540     python38:python38.dll
 0002:00000548       __imp_PyDict_SetItemString 0000000180024548     python38:python38.dll
 0002:00000550       __imp_PyDict_SetItem       0000000180024550     python38:python38.dll
 0002:00000558       __imp_PyDict_GetItem       0000000180024558     python38:python38.dll
 0002:00000560       __imp_PyDict_New           0000000180024560     python38:python38.dll
 0002:00000568       __imp_PyList_Append        0000000180024568     python38:python38.dll
 0002:00000570       __imp_PyList_SetItem       0000000180024570     python38:python38.dll
 0002:00000578       __imp_PyList_New           0000000180024578     python38:python38.dll
 0002:00000580       __imp_PyTuple_SetItem      0000000180024580     python38:python38.dll
 0002:00000588       __imp_PyTuple_GetItem      0000000180024588     python38:python38.dll
 0002:00000590       __imp_PyTuple_Size         0000000180024590     python38:python38.dll
 0002:00000598       __imp_PyTuple_New          0000000180024598     python38:python38.dll
 0002:000005a0       __imp_PyBool_FromLong      00000001800245a0     python38:python38.dll
 0002:000005a8       __imp_PyLong_AsUnsignedLongLong 00000001800245a8     python38:python38.dll
 0002:000005b0       __imp_PyLong_FromUnsignedLongLong 00000001800245b0     python38:python38.dll
 0002:000005b8       __imp_PyLong_FromLongLong  00000001800245b8     python38:python38.dll
 0002:000005c0       __imp_PyLong_FromVoidPtr   00000001800245c0     python38:python38.dll
 0002:000005c8       __imp_PyLong_AsUnsignedLong 00000001800245c8     python38:python38.dll
 0002:000005d0       __imp_PyLong_AsLong        00000001800245d0     python38:python38.dll
 0002:000005d8       __imp_PyLong_FromSize_t    00000001800245d8     python38:python38.dll
 0002:000005e0       __imp_PyLong_FromUnsignedLong 00000001800245e0     python38:python38.dll
 0002:000005e8       __imp_PyLong_FromLong      00000001800245e8     python38:python38.dll
 0002:000005f0       __imp_PyUnicode_CompareWithASCIIString 00000001800245f0     python38:python38.dll
 0002:000005f8       __imp_PyUnicode_Concat     00000001800245f8     python38:python38.dll
 0002:00000600       __imp_PyUnicode_AsUTF8String 0000000180024600     python38:python38.dll
 0002:00000608       __imp_PyUnicode_DecodeUTF8 0000000180024608     python38:python38.dll
 0002:00000610       __imp_PyUnicode_FromFormat 0000000180024610     python38:python38.dll
 0002:00000618       __imp_PyUnicode_FromString 0000000180024618     python38:python38.dll
 0002:00000620       __imp_PyUnicode_FromStringAndSize 0000000180024620     python38:python38.dll
 0002:00000628       __imp_PyBytes_AsStringAndSize 0000000180024628     python38:python38.dll
 0002:00000630       __imp__PyObject_New        0000000180024630     python38:python38.dll
 0002:00000638       __imp_PyObject_Free        0000000180024638     python38:python38.dll
 0002:00000640       __imp_Py_DecRef            0000000180024640     python38:python38.dll
 0002:00000648       __imp__Py_Dealloc          0000000180024648     python38:python38.dll
 0002:00000650       __imp_PyObject_IsTrue      0000000180024650     python38:python38.dll
 0002:00000658       __imp_PyObject_GenericGetAttr 0000000180024658     python38:python38.dll
 0002:00000660       __imp_PyObject_SetAttr     0000000180024660     python38:python38.dll
 0002:00000668       __imp_PyObject_GetAttr     0000000180024668     python38:python38.dll
 0002:00000670       __imp_PyObject_GetAttrString 0000000180024670     python38:python38.dll
 0002:00000678       __imp_PyType_Modified      0000000180024678     python38:python38.dll
 0002:00000680       __imp_PyType_GetFlags      0000000180024680     python38:python38.dll
 0002:00000688       __imp_PyType_GetSlot       0000000180024688     python38:python38.dll
 0002:00000690       __imp_PyType_FromSpec      0000000180024690     python38:python38.dll
 0002:00000698       __imp_PyCFunction_GetFlags 0000000180024698     python38:python38.dll
 0002:000006a0       \177python38_NULL_THUNK_DATA 00000001800246a0     python38:python38.dll
 0002:000006a8       __guard_check_icall_fptr   00000001800246a8     MSVCRT:guard_support.obj
 0002:000006b0       __guard_dispatch_icall_fptr 00000001800246b0     MSVCRT:guard_support.obj
 0002:000006b8       __xc_a                     00000001800246b8     MSVCRT:initializers.obj
 0002:000006c0       __xc_z                     00000001800246c0     MSVCRT:initializers.obj
 0002:000006c8       __xi_a                     00000001800246c8     MSVCRT:initializers.obj
 0002:000006d8       __xi_z                     00000001800246d8     MSVCRT:initializers.obj
 0002:000006e0       __xl_a                     00000001800246e0     MSVCRT:tlssup.obj
 0002:000006e8       __xl_z                     00000001800246e8     MSVCRT:tlssup.obj
 0002:000006f0       __xp_a                     00000001800246f0     MSVCRT:initializers.obj
 0002:000006f8       __xp_z                     00000001800246f8     MSVCRT:initializers.obj
 0002:00000700       __xt_a                     0000000180024700     MSVCRT:initializers.obj
 0002:00000708       __xt_z                     0000000180024708     MSVCRT:initializers.obj
 0002:00000710       ??_C@_0BD@HPFOMLCC@func_t_llabels_set@ 0000000180024710     funcs.obj
 0002:00000728       ??_C@_0BF@ONENOCDF@func_t_regargqty_set@ 0000000180024728     funcs.obj
 0002:00000740       ??_C@_0BD@KBNAOLAP@func_t_regargs_set@ 0000000180024740     funcs.obj
 0002:00000758       ??_C@_0BD@GIJAEIFP@func_t_tailqty_set@ 0000000180024758     funcs.obj
 0002:00000770       ??_C@_0BB@IGMHLGDI@func_t_tails_set@ 0000000180024770     funcs.obj
 0002:00000788       ??_C@_0BB@NCFCGILD@func_t_owner_set@ 0000000180024788     funcs.obj
 0002:000007a0       ??_C@_0BC@MCHLJJGM@func_t_refqty_set@ 00000001800247a0     funcs.obj
 0002:000007b8       ??_C@_0BE@OLLDMELH@func_t_referers_set@ 00000001800247b8     funcs.obj
 0002:000007d0       ??_C@_0L@CJHLNCHM@new_func_t@ 00000001800247d0     funcs.obj
 0002:000007e0       ??_C@_0BA@BHPCCADO@lock_func_range@ 00000001800247e0     funcs.obj
 0002:000007f0       ??_C@_0BC@GLOOGCD@get_func_chunknum@ 00000001800247f0     funcs.obj
 0002:00000808       ??_C@_0O@DOPCECKI@func_contains@ 0000000180024808     funcs.obj
 0002:00000818       ??_C@_0N@LOKLNIFG@is_same_func@ 0000000180024818     funcs.obj
 0002:00000828       ??_C@_0N@GPPLDCJB@get_func_qty@ 0000000180024828     funcs.obj
 0002:00000838       ??_C@_0BA@GHACIDCO@get_func_ranges@ 0000000180024838     funcs.obj
 0002:00000848       ??_C@_0N@DDLCELDH@get_func_cmt@ 0000000180024848     funcs.obj
 0002:00000858       ??_C@_0N@EHAMIHHL@set_func_cmt@ 0000000180024858     funcs.obj
 0002:00000868       ??_C@_08MCGEAOCO@add_func@ 0000000180024868     funcs.obj
 0002:00000878       ??_C@_0P@KKNAKBLL@set_func_start@ 0000000180024878     funcs.obj
 0002:00000888       ??_C@_0N@CKODHEKP@set_func_end@ 0000000180024888     funcs.obj
 0002:00000898       ??_C@_0BD@GMPILOOM@reanalyze_function@ 0000000180024898     funcs.obj
 0002:000008b0       ??_C@_0BB@DIGNMLGJ@find_func_bounds@ 00000001800248b0     funcs.obj
 0002:000008c8       ??_C@_0BB@MNMMCMLD@set_visible_func@ 00000001800248c8     funcs.obj
 0002:000008e0       ??_C@_0BK@FBCHFPKM@set_func_name_if_jumpfunc@ 00000001800248e0     funcs.obj
 0002:00000900       ??_C@_0P@GACMJCJP@set_noret_insn@ 0000000180024900     funcs.obj
 0002:00000910       ??_C@_0P@DBAKIOHL@get_fchunk_qty@ 0000000180024910     funcs.obj
 0002:00000920       ??_C@_0BB@MCLMBMJG@append_func_tail@ 0000000180024920     funcs.obj
 0002:00000938       ??_C@_0BB@FPDDDOH@remove_func_tail@ 0000000180024938     funcs.obj
 0002:00000950       ??_C@_0P@OLKKDIFD@set_tail_owner@ 0000000180024950     funcs.obj
 0002:00000960       ??_C@_0BH@KNODJKIA@func_tail_iterator_set@ 0000000180024960     funcs.obj
 0002:00000978       ??_C@_0BK@PCAMIGKG@func_tail_iterator_set_ea@ 0000000180024978     funcs.obj
 0002:00000998       ??_C@_0BJ@GEONODJP@func_parent_iterator_set@ 0000000180024998     funcs.obj
 0002:000009b8       ??_C@_0BI@OCGMBJBF@func_item_iterator_next@ 00000001800249b8     funcs.obj
 0002:000009d0       ??_C@_0BI@NGLKANHB@func_item_iterator_prev@ 00000001800249d0     funcs.obj
 0002:000009e8       ??_C@_0CE@KKLDNEGB@func_item_iterator_decode_prev_@ 00000001800249e8     funcs.obj
 0002:00000a10       ??_C@_0CJ@DMJJNFDD@func_item_iterator_decode_prece@ 0000000180024a10     funcs.obj
 0002:00000a3c       ??_C@_05BFPNFOPC@f_any@    0000000180024a3c     funcs.obj
 0002:00000a48       ??_C@_0BJ@MFOINDHM@new_func_tail_iterator_t@ 0000000180024a48     funcs.obj
 0002:00000a68       ??_C@_0BJ@EFFFFCON@func_tail_iterator_t_set@ 0000000180024a68     funcs.obj
 0002:00000a88       ??_C@_0BM@JDCCJFMC@func_tail_iterator_t_set_ea@ 0000000180024a88     funcs.obj
 0002:00000aa8       ??_C@_0BP@NLEFINFC@func_tail_iterator_t_set_range@ 0000000180024aa8     funcs.obj
 0002:00000ac8       ??_C@_0BJ@KKADMGNH@new_func_item_iterator_t@ 0000000180024ac8     funcs.obj
 0002:00000ae8       ??_C@_0BJ@KFFFPLJM@func_item_iterator_t_set@ 0000000180024ae8     funcs.obj
 0002:00000b08       ??_C@_0BP@MPOOHOHB@func_item_iterator_t_set_range@ 0000000180024b08     funcs.obj
 0002:00000b28       ??_C@_0BK@CDCFJMDB@func_item_iterator_t_next@ 0000000180024b28     funcs.obj
 0002:00000b48       ??_C@_0BK@BHPDIIFF@func_item_iterator_t_prev@ 0000000180024b48     funcs.obj
 0002:00000b68       ??_C@_0CG@HKCBJGFK@func_item_iterator_t_decode_pre@ 0000000180024b68     funcs.obj
 0002:00000b90       ??_C@_0CL@KENKGFJD@func_item_iterator_t_decode_pre@ 0000000180024b90     funcs.obj
 0002:00000bbc       ??_C@_03BHDOPPEK@own@      0000000180024bbc     funcs.obj
 0002:00000bc0       ??_C@_06EFGGFDFD@disown@   0000000180024bc0     funcs.obj
 0002:00000bc8       ??_C@_0CC@CFIMIIPD@releases?5ownership?5of?5the?5point@ 0000000180024bc8     funcs.obj
 0002:00000bf0       ??_C@_07MEFPPMEF@acquire@  0000000180024bf0     funcs.obj
 0002:00000bf8       ??_C@_0CC@BAIBAPCI@acquires?5ownership?5of?5the?5point@ 0000000180024bf8     funcs.obj
 0002:00000c20       ??_C@_0CG@GKPKGEFE@returns?1sets?5ownership?5of?5the?5p@ 0000000180024c20     funcs.obj
 0002:00000c48       ??_C@_06PCICMFGG@append@   0000000180024c48     funcs.obj
 0002:00000c50       ??_C@_0BO@NCOOMDHM@appends?5another?5?8this?8?5object@ 0000000180024c50     funcs.obj
 0002:00000c70       ??_C@_04CJGEDOF@next@      0000000180024c70     funcs.obj
 0002:00000c78       ??_C@_0BP@IMIAEPNG@returns?5the?5next?5?8this?8?5object@ 0000000180024c78     funcs.obj
 0002:00000c98       ??_C@_08HJPCHLLJ@__repr__@ 0000000180024c98     funcs.obj
 0002:00000ca8       ??_C@_0BO@PNCCHPAD@returns?5object?5representation@ 0000000180024ca8     funcs.obj
 0002:00000cc8       ??_C@_0BL@EDDPKJMI@new_func_parent_iterator_t@ 0000000180024cc8     funcs.obj
 0002:00000ce8       ??_C@_0BL@KBNGFMOF@func_parent_iterator_t_set@ 0000000180024ce8     funcs.obj
 0002:00000d08       ??_C@_0CB@GBMBJNEG@func_parent_iterator_t_reset_fn@ 0000000180024d08     funcs.obj
 0002:00000d30       ??_C@_0BD@MOCAOLBC@get_prev_func_addr@ 0000000180024d30     funcs.obj
 0002:00000d48       ??_C@_0BD@HLFOKCLP@get_next_func_addr@ 0000000180024d48     funcs.obj
 0002:00000d60       ??_C@_0L@KGCILHKN@add_regarg@ 0000000180024d60     funcs.obj
 0002:00000d70       ??_C@_0BA@FCAOPLCI@apply_idasgn_to@ 0000000180024d70     funcs.obj
 0002:00000d80       ??_C@_0P@OPLHAKHI@get_idasgn_qty@ 0000000180024d80     funcs.obj
 0002:00000d90       ??_C@_0BD@FALMBPNH@get_current_idasgn@ 0000000180024d90     funcs.obj
 0002:00000da8       ??_C@_0BC@IIODLAMH@apply_startup_sig@ 0000000180024da8     funcs.obj
 0002:00000dc0       ??_C@_0BD@ICPDFLOF@get_fchunk_referer@ 0000000180024dc0     funcs.obj
 0002:00000dd8       ??_C@_0BG@POLKPLCH@stkpnt_array_data_get@ 0000000180024dd8     funcs.obj
 0002:00000df0       ??_C@_0CK@DOIECJCJ@stkpnt_array_data_get?$CIself?$CJ?5?9?$DO?5@ 0000000180024df0     funcs.obj
 0002:00000e20       ??_C@_0BH@LFIMAEIA@stkpnt_array_count_get@ 0000000180024e20     funcs.obj
 0002:00000e38       ??_C@_0CH@EFNBDGNP@stkpnt_array_count_get?$CIself?$CJ?5?9?$DO@ 0000000180024e38     funcs.obj
 0002:00000e60       ??_C@_0DA@ELFELDKC@new_stkpnt_array?$CI_data?0?5_count?$CJ@ 0000000180024e60     funcs.obj
 0002:00000e90       ??_C@_0BF@EEDAKGDK@stkpnt_array___len__@ 0000000180024e90     funcs.obj
 0002:00000ea8       ??_C@_0CF@LHBLOBDN@stkpnt_array___len__?$CIself?$CJ?5?9?$DO?5s@ 0000000180024ea8     funcs.obj
 0002:00000ed0       ??_C@_0DG@CCCDHIIA@stkpnt_array___getitem__?$CIself?0?5@ 0000000180024ed0     funcs.obj
 0002:00000f08       ??_C@_0CF@GACELJFD@stkpnt_array___setitem__?$CIself?0?5@ 0000000180024f08     funcs.obj
 0002:00000f30       ??_C@_0BE@EJEBBPDN@delete_stkpnt_array@ 0000000180024f30     funcs.obj
 0002:00000f48       ??_C@_0BK@FPGNANFM@delete_stkpnt_array?$CIself?$CJ@ 0000000180024f48     funcs.obj
 0002:00000f68       ??_C@_0BK@JCAAFOAE@stkpnt_array_swigregister@ 0000000180024f68     funcs.obj
 0002:00000f88       ??_C@_0BG@GOMAJOI@stkpnt_array_swiginit@ 0000000180024f88     funcs.obj
 0002:00000fa0       ??_C@_0BG@CCANCLAN@regvar_array_data_get@ 0000000180024fa0     funcs.obj
 0002:00000fb8       ??_C@_0CK@OHLNNNOC@regvar_array_data_get?$CIself?$CJ?5?9?$DO?5@ 0000000180024fb8     funcs.obj
 0002:00000fe8       ??_C@_0BH@GOOLHKIG@regvar_array_count_get@ 0000000180024fe8     funcs.obj
 0002:00001000       ??_C@_0CH@FKFGBFMO@regvar_array_count_get?$CIself?$CJ?5?9?$DO@ 0000000180025000     funcs.obj
 0002:00001028       ??_C@_0DA@NJIKFCBL@new_regvar_array?$CI_data?0?5_count?$CJ@ 0000000180025028     funcs.obj
 0002:00001058       ??_C@_0BF@CFONEDBE@regvar_array___len__@ 0000000180025058     funcs.obj
 0002:00001070       ??_C@_0CF@HPHPDAMH@regvar_array___len__?$CIself?$CJ?5?9?$DO?5s@ 0000000180025070     funcs.obj
 0002:00001098       ??_C@_0DG@HHLJMGCN@regvar_array___getitem__?$CIself?0?5@ 0000000180025098     funcs.obj
 0002:000010d0       ??_C@_0CF@KIEAGIKJ@regvar_array___setitem__?$CIself?0?5@ 00000001800250d0     funcs.obj
 0002:000010f8       ??_C@_0BE@BNLIEDPN@delete_regvar_array@ 00000001800250f8     funcs.obj
 0002:00001110       ??_C@_0BK@CDLNOOGD@delete_regvar_array?$CIself?$CJ@ 0000000180025110     funcs.obj
 0002:00001130       ??_C@_0BK@PEOHICOO@regvar_array_swigregister@ 0000000180025130     funcs.obj
 0002:00001150       ??_C@_0BG@NKFLNJMC@regvar_array_swiginit@ 0000000180025150     funcs.obj
 0002:00001168       ??_C@_0BF@ILCKBLPO@range_array_data_get@ 0000000180025168     funcs.obj
 0002:00001180       ??_C@_0CG@CCJOCKPD@range_array_data_get?$CIself?$CJ?5?9?$DO?5r@ 0000000180025180     funcs.obj
 0002:000011a8       ??_C@_0BG@EKPGPOBA@range_array_count_get@ 00000001800251a8     funcs.obj
 0002:000011c0       ??_C@_0CG@NFGJFHMM@range_array_count_get?$CIself?$CJ?5?9?$DO?5@ 00000001800251c0     funcs.obj
 0002:000011e8       ??_C@_0CO@CKDPHBBN@new_range_array?$CI_data?0?5_count?$CJ?5@ 00000001800251e8     funcs.obj
 0002:00001218       ??_C@_0BE@LOHDODPI@range_array___len__@ 0000000180025218     funcs.obj
 0002:00001230       ??_C@_0CE@KGFNPHDJ@range_array___len__?$CIself?$CJ?5?9?$DO?5si@ 0000000180025230     funcs.obj
 0002:00001258       ??_C@_0CM@BFMBLJJA@range_array___getitem__?$CIself?0?5i@ 0000000180025258     funcs.obj
 0002:00001288       ??_C@_0CE@HBGCKPFH@range_array___setitem__?$CIself?0?5i@ 0000000180025288     funcs.obj
 0002:000012b0       ??_C@_0BD@HOJGAGKL@delete_range_array@ 00000001800252b0     funcs.obj
 0002:000012c8       ??_C@_0BJ@GDAFHPME@delete_range_array?$CIself?$CJ@ 00000001800252c8     funcs.obj
 0002:000012e8       ??_C@_0BJ@DBJAHHBO@range_array_swigregister@ 00000001800252e8     funcs.obj
 0002:00001308       ??_C@_0BF@HDHMOJDB@range_array_swiginit@ 0000000180025308     funcs.obj
 0002:00001320       ??_C@_0BM@CHDKINMD@regarg_t_reg_set?$CIself?0?5reg?$CJ@ 0000000180025320     funcs.obj
 0002:00001340       ??_C@_0BB@JPHACPK@regarg_t_reg_get@ 0000000180025340     funcs.obj
 0002:00001358       ??_C@_0BO@JGBJEAAB@regarg_t_reg_get?$CIself?$CJ?5?9?$DO?5int@ 0000000180025358     funcs.obj
 0002:00001378       ??_C@_0BO@BCDAGJBN@regarg_t_type_set?$CIself?0?5type?$CJ@ 0000000180025378     funcs.obj
 0002:00001398       ??_C@_0BC@GPBIHJBM@regarg_t_type_get@ 0000000180025398     funcs.obj
 0002:000013b0       ??_C@_0CE@BFHNIHM@regarg_t_type_get?$CIself?$CJ?5?9?$DO?5type@ 00000001800253b0     funcs.obj
 0002:000013d8       ??_C@_0BO@JBDINHKE@regarg_t_name_set?$CIself?0?5name?$CJ@ 00000001800253d8     funcs.obj
 0002:000013f8       ??_C@_0BC@PPKBGGGD@regarg_t_name_get@ 00000001800253f8     funcs.obj
 0002:00001410       ??_C@_0CC@BDLIDAEL@regarg_t_name_get?$CIself?$CJ?5?9?$DO?5char@ 0000000180025410     funcs.obj
 0002:00001438       ??_C@_0BL@ONHPAPMP@new_regarg_t?$CI?$CJ?5?9?$DO?5regarg_t@ 0000000180025438     funcs.obj
 0002:00001458       ??_C@_0BA@LGBOOGMN@delete_regarg_t@ 0000000180025458     funcs.obj
 0002:00001468       ??_C@_0BG@CCCNANHA@delete_regarg_t?$CIself?$CJ@ 0000000180025468     funcs.obj
 0002:00001480       ??_C@_0BG@ELIDHNND@regarg_t_swigregister@ 0000000180025480     funcs.obj
 0002:00001498       ??_C@_0BC@PLAOIFDJ@regarg_t_swiginit@ 0000000180025498     funcs.obj
 0002:000014b0       ??_C@_0BO@HJPKPEFG@func_t_flags_set?$CIself?0?5flags?$CJ@ 00000001800254b0     funcs.obj
 0002:000014d0       ??_C@_0BB@FKEKIPDN@func_t_flags_get@ 00000001800254d0     funcs.obj
 0002:000014e8       ??_C@_0CB@GLIGHICF@func_t_flags_get?$CIself?$CJ?5?9?$DO?5uint6@ 00000001800254e8     funcs.obj
 0002:00001510       ??_C@_0O@PPAJFAJG@func_t_is_far@ 0000000180025510     funcs.obj
 0002:00001520       ??_C@_0BM@GCPCBLID@func_t_is_far?$CIself?$CJ?5?9?$DO?5bool@ 0000000180025520     funcs.obj
 0002:00001540       ??_C@_0BD@JOLNGKNC@func_t_does_return@ 0000000180025540     funcs.obj
 0002:00001558       ??_C@_0CB@OBHDMDAD@func_t_does_return?$CIself?$CJ?5?9?$DO?5boo@ 0000000180025558     funcs.obj
 0002:00001580       ??_C@_0BD@MLBIEHFO@func_t_analyzed_sp@ 0000000180025580     funcs.obj
 0002:00001598       ??_C@_0CB@FFBLCECJ@func_t_analyzed_sp?$CIself?$CJ?5?9?$DO?5boo@ 0000000180025598     funcs.obj
 0002:000015c0       ??_C@_0BM@LFFGJLEJ@func_t_need_prolog_analysis@ 00000001800255c0     funcs.obj
 0002:000015e0       ??_C@_0CK@BADIAEAD@func_t_need_prolog_analysis?$CIsel@ 00000001800255e0     funcs.obj
 0002:00001610       ??_C@_0BO@IMPOAOPN@func_t_frame_set?$CIself?0?5frame?$CJ@ 0000000180025610     funcs.obj
 0002:00001630       ??_C@_0BB@EPLHKIBG@func_t_frame_get@ 0000000180025630     funcs.obj
 0002:00001648       ??_C@_0CB@BAGKMHBB@func_t_frame_get?$CIself?$CJ?5?9?$DO?5uval_@ 0000000180025648     funcs.obj
 0002:00001670       ??_C@_0CA@OEMKPMPB@func_t_frsize_set?$CIself?0?5frsize?$CJ@ 0000000180025670     funcs.obj
 0002:00001690       ??_C@_0BC@KLHPOAGB@func_t_frsize_get@ 0000000180025690     funcs.obj
 0002:000016a8       ??_C@_0CD@GHPLMECG@func_t_frsize_get?$CIself?$CJ?5?9?$DO?5asiz@ 00000001800256a8     funcs.obj
 0002:000016d0       ??_C@_0CA@KJPPGHEO@func_t_frregs_set?$CIself?0?5frregs?$CJ@ 00000001800256d0     funcs.obj
 0002:000016f0       ??_C@_0BC@DICNPNOF@func_t_frregs_get@ 00000001800256f0     funcs.obj
 0002:00001708       ??_C@_0CC@IIKLINOB@func_t_frregs_get?$CIself?$CJ?5?9?$DO?5usho@ 0000000180025708     funcs.obj
 0002:00001730       ??_C@_0CC@OBPINLGI@func_t_argsize_set?$CIself?0?5argsiz@ 0000000180025730     funcs.obj
 0002:00001758       ??_C@_0BD@PCIBJOIB@func_t_argsize_get@ 0000000180025758     funcs.obj
 0002:00001770       ??_C@_0CE@HNIDBLMN@func_t_argsize_get?$CIself?$CJ?5?9?$DO?5asi@ 0000000180025770     funcs.obj
 0002:00001798       ??_C@_0BK@EJFGMJMB@func_t_fpd_set?$CIself?0?5fpd?$CJ@ 0000000180025798     funcs.obj
 0002:000017b8       ??_C@_0P@EEIGEMFC@func_t_fpd_get@ 00000001800257b8     funcs.obj
 0002:000017c8       ??_C@_0CA@IGOAJICB@func_t_fpd_get?$CIself?$CJ?5?9?$DO?5asize_t@ 00000001800257c8     funcs.obj
 0002:000017e8       ??_C@_0BO@NBAPBBII@func_t_color_set?$CIself?0?5color?$CJ@ 00000001800257e8     funcs.obj
 0002:00001808       ??_C@_0BB@OGFIPAKP@func_t_color_get@ 0000000180025808     funcs.obj
 0002:00001820       ??_C@_0CE@CKNOACKA@func_t_color_get?$CIself?$CJ?5?9?$DO?5bgcol@ 0000000180025820     funcs.obj
 0002:00001848       ??_C@_0CA@DHIIALLO@func_t_pntqty_set?$CIself?0?5pntqty?$CJ@ 0000000180025848     funcs.obj
 0002:00001868       ??_C@_0BC@DPLKHBGF@func_t_pntqty_get@ 0000000180025868     funcs.obj
 0002:00001880       ??_C@_0CC@FPDFENOL@func_t_pntqty_get?$CIself?$CJ?5?9?$DO?5uint@ 0000000180025880     funcs.obj
 0002:000018a8       ??_C@_0CA@PICJINPP@func_t_points_set?$CIself?0?5points?$CJ@ 00000001800258a8     funcs.obj
 0002:000018c8       ??_C@_0BC@IJPHLPJM@func_t_points_get@ 00000001800258c8     funcs.obj
 0002:000018e0       ??_C@_0CG@DEFNOFCK@func_t_points_get?$CIself?$CJ?5?9?$DO?5stkp@ 00000001800258e0     funcs.obj
 0002:00001908       ??_C@_0CG@NPJDIPIN@func_t_regvarqty_set?$CIself?0?5regv@ 0000000180025908     funcs.obj
 0002:00001930       ??_C@_0BF@JPDFMOGA@func_t_regvarqty_get@ 0000000180025930     funcs.obj
 0002:00001948       ??_C@_0CC@NIPFFNGE@func_t_regvarqty_get?$CIself?$CJ?5?9?$DO?5i@ 0000000180025948     funcs.obj
 0002:00001970       ??_C@_0CC@MMBIJPAN@func_t_regvars_set?$CIself?0?5regvar@ 0000000180025970     funcs.obj
 0002:00001998       ??_C@_0BD@HBNIIBNO@func_t_regvars_get@ 0000000180025998     funcs.obj
 0002:000019b0       ??_C@_0CH@PAGJGCBE@func_t_regvars_get?$CIself?$CJ?5?9?$DO?5reg@ 00000001800259b0     funcs.obj
 0002:000019d8       ??_C@_0CG@PHEDLFD@func_t_llabelqty_set?$CIself?0?5llab@ 00000001800259d8     funcs.obj
 0002:00001a00       ??_C@_0BF@CJHCIGFE@func_t_llabelqty_get@ 0000000180025a00     funcs.obj
 0002:00001a18       ??_C@_0CC@FFMBOMMB@func_t_llabelqty_get?$CIself?$CJ?5?9?$DO?5i@ 0000000180025a18     funcs.obj
 0002:00001a40       ??_C@_0CC@IELAFPLL@func_t_llabels_set?$CIself?0?5llabel@ 0000000180025a40     funcs.obj
 0002:00001a68       ??_C@_0BD@KACFALOK@func_t_llabels_get@ 0000000180025a68     funcs.obj
 0002:00001a80       ??_C@_0CH@GMCDFOD@func_t_llabels_get?$CIself?$CJ?5?9?$DO?5lla@ 0000000180025a80     funcs.obj
 0002:00001aa8       ??_C@_0CG@DJKNGNOA@func_t_regargqty_set?$CIself?0?5rega@ 0000000180025aa8     funcs.obj
 0002:00001ad0       ??_C@_0BF@DCDGCCPN@func_t_regargqty_get@ 0000000180025ad0     funcs.obj
 0002:00001ae8       ??_C@_0CC@DGPBHNO@func_t_regargqty_get?$CIself?$CJ?5?9?$DO?5i@ 0000000180025ae8     funcs.obj
 0002:00001b10       ??_C@_0CC@EJNGKNGL@func_t_regargs_set?$CIself?0?5regarg@ 0000000180025b10     funcs.obj
 0002:00001b38       ??_C@_0BD@HOKLCLMH@func_t_regargs_get@ 0000000180025b38     funcs.obj
 0002:00001b50       ??_C@_0CF@EANEKECM@func_t_regargs_get?$CIself?$CJ?5?9?$DO?5reg@ 0000000180025b50     funcs.obj
 0002:00001b78       ??_C@_0CC@JGNDJABG@func_t_tailqty_set?$CIself?0?5tailqt@ 0000000180025b78     funcs.obj
 0002:00001ba0       ??_C@_0BD@LHOLIIJH@func_t_tailqty_get@ 0000000180025ba0     funcs.obj
 0002:00001bb8       ??_C@_0CA@GBOFJACG@func_t_tailqty_get?$CIself?$CJ?5?9?$DO?5int@ 0000000180025bb8     funcs.obj
 0002:00001bd8       ??_C@_0BO@NLPKLAME@func_t_tails_set?$CIself?0?5tails?$CJ@ 0000000180025bd8     funcs.obj
 0002:00001bf8       ??_C@_0BB@FJLMHGPA@func_t_tails_get@ 0000000180025bf8     funcs.obj
 0002:00001c10       ??_C@_0CC@DOLIEGGP@func_t_tails_get?$CIself?$CJ?5?9?$DO?5range@ 0000000180025c10     funcs.obj
 0002:00001c38       ??_C@_0BO@EPNHGHLJ@func_t_owner_set?$CIself?0?5owner?$CJ@ 0000000180025c38     funcs.obj
 0002:00001c58       ??_C@_0BB@NCJKIHL@func_t_owner_get@ 0000000180025c58     funcs.obj
 0002:00001c70       ??_C@_0BP@KHCKFCFC@func_t_owner_get?$CIself?$CJ?5?9?$DO?5ea_t@ 0000000180025c70     funcs.obj
 0002:00001c90       ??_C@_0CA@MPCFBNMH@func_t_refqty_set?$CIself?0?5refqty?$CJ@ 0000000180025c90     funcs.obj
 0002:00001cb0       ??_C@_0BC@BNAAFJKE@func_t_refqty_get@ 0000000180025cb0     funcs.obj
 0002:00001cc8       ??_C@_0BP@KGCBNGLP@func_t_refqty_get?$CIself?$CJ?5?9?$DO?5int@ 0000000180025cc8     funcs.obj
 0002:00001ce8       ??_C@_0CE@HAAINNFM@func_t_referers_set?$CIself?0?5refer@ 0000000180025ce8     funcs.obj
 0002:00001d10       ??_C@_0BE@DEMIAEHP@func_t_referers_get@ 0000000180025d10     funcs.obj
 0002:00001d28       ??_C@_0CE@BPAFGPNA@func_t_referers_get?$CIself?$CJ?5?9?$DO?5ea@ 0000000180025d28     funcs.obj
 0002:00001d50       ??_C@_0CK@DDOHMNMB@new_func_t?$CIstart?$DN0?0?5end?$DN0?0?5f?$DN0?$CJ@ 0000000180025d50     funcs.obj
 0002:00001d80       ??_C@_0BG@JLNICFLN@func_t___get_points__@ 0000000180025d80     funcs.obj
 0002:00001d98       ??_C@_0CM@DBNBMJHC@func_t___get_points__?$CIself?$CJ?5?9?$DO?5@ 0000000180025d98     funcs.obj
 0002:00001dc8       ??_C@_0BH@NMJHGGKJ@func_t___get_regvars__@ 0000000180025dc8     funcs.obj
 0002:00001de0       ??_C@_0CN@FBNADELF@func_t___get_regvars__?$CIself?$CJ?5?9?$DO@ 0000000180025de0     funcs.obj
 0002:00001e10       ??_C@_0BF@EFAGOAFP@func_t___get_tails__@ 0000000180025e10     funcs.obj
 0002:00001e28       ??_C@_0CK@FKBKOOKF@func_t___get_tails__?$CIself?$CJ?5?9?$DO?5r@ 0000000180025e28     funcs.obj
 0002:00001e58       ??_C@_0O@FBMJFFME@delete_func_t@ 0000000180025e58     funcs.obj
 0002:00001e68       ??_C@_0BE@EFGLGJHJ@delete_func_t?$CIself?$CJ@ 0000000180025e68     funcs.obj
 0002:00001e80       ??_C@_0BE@BJBMIFAE@func_t_swigregister@ 0000000180025e80     funcs.obj
 0002:00001e98       ??_C@_0BA@NHNBOJAC@func_t_swiginit@ 0000000180025e98     funcs.obj
 0002:00001ea8       ??_C@_0O@MBKJELHO@is_func_entry@ 0000000180025ea8     funcs.obj
 0002:00001eb8       ??_C@_0BL@DLOEIBON@is_func_entry?$CIpfn?$CJ?5?9?$DO?5bool@ 0000000180025eb8     funcs.obj
 0002:00001ed8       ??_C@_0N@CENDLNDO@is_func_tail@ 0000000180025ed8     funcs.obj
 0002:00001ee8       ??_C@_0BK@OAJPJHPA@is_func_tail?$CIpfn?$CJ?5?9?$DO?5bool@ 0000000180025ee8     funcs.obj
 0002:00001f08       ??_C@_0BL@HPBPODOP@lock_func_range?$CIpfn?0?5lock?$CJ@ 0000000180025f08     funcs.obj
 0002:00001f28       ??_C@_0O@OFEMNHKG@new_lock_func@ 0000000180025f28     funcs.obj
 0002:00001f38       ??_C@_0CB@CLBCKOLB@new_lock_func?$CI_pfn?$CJ?5?9?$DO?5lock_fun@ 0000000180025f38     funcs.obj
 0002:00001f60       ??_C@_0BB@HPKMKEFK@delete_lock_func@ 0000000180025f60     funcs.obj
 0002:00001f78       ??_C@_0BH@CJHIALHM@delete_lock_func?$CIself?$CJ@ 0000000180025f78     funcs.obj
 0002:00001f90       ??_C@_0BH@CPDICBMN@lock_func_swigregister@ 0000000180025f90     funcs.obj
 0002:00001fa8       ??_C@_0BD@JCJGEMBC@lock_func_swiginit@ 0000000180025fa8     funcs.obj
 0002:00001fc0       ??_C@_0P@CMEMEDG@is_func_locked@ 0000000180025fc0     funcs.obj
 0002:00001fd0       ??_C@_0BM@MGPBFNCH@is_func_locked?$CIpfn?$CJ?5?9?$DO?5bool@ 0000000180025fd0     funcs.obj
 0002:00001ff0       ??_C@_08BKAKOLPE@get_func@ 0000000180025ff0     funcs.obj
 0002:00002000       ??_C@_0BH@DFFAMJCF@get_func?$CIea?$CJ?5?9?$DO?5func_t@ 0000000180026000     funcs.obj
 0002:00002018       ??_C@_0CC@IEKANDFD@get_func_chunknum?$CIpfn?0?5ea?$CJ?5?9?$DO?5i@ 0000000180026018     funcs.obj
 0002:00002040       ??_C@_0BP@GDMFBDDE@func_contains?$CIpfn?0?5ea?$CJ?5?9?$DO?5bool@ 0000000180026040     funcs.obj
 0002:00002060       ??_C@_0BP@DIDKPKM@is_same_func?$CIea1?0?5ea2?$CJ?5?9?$DO?5bool@ 0000000180026060     funcs.obj
 0002:00002080       ??_C@_09HBPLFCJG@getn_func@ 0000000180026080     funcs.obj
 0002:00002090       ??_C@_0BH@OLAABING@getn_func?$CIn?$CJ?5?9?$DO?5func_t@ 0000000180026090     funcs.obj
 0002:000020a8       ??_C@_0BJ@MCAHLMOB@get_func_qty?$CI?$CJ?5?9?$DO?5size_t@ 00000001800260a8     funcs.obj
 0002:000020c8       ??_C@_0N@EIONMIDK@get_func_num@ 00000001800260c8     funcs.obj
 0002:000020d8       ??_C@_0BI@FIPMLPGB@get_func_num?$CIea?$CJ?5?9?$DO?5int@ 00000001800260d8     funcs.obj
 0002:000020f0       ??_C@_0O@JMPPMKNP@get_prev_func@ 00000001800260f0     funcs.obj
 0002:00002100       ??_C@_0BM@JKJOHOLI@get_prev_func?$CIea?$CJ?5?9?$DO?5func_t@ 0000000180026100     funcs.obj
 0002:00002120       ??_C@_0O@BNBIGBOP@get_next_func@ 0000000180026120     funcs.obj
 0002:00002130       ??_C@_0BM@EPPHOLHF@get_next_func?$CIea?$CJ?5?9?$DO?5func_t@ 0000000180026130     funcs.obj
 0002:00002150       ??_C@_0CF@OAOFEKEP@get_func_ranges?$CIranges?0?5pfn?$CJ?5?9?$DO@ 0000000180026150     funcs.obj
 0002:00002178       ??_C@_0CJ@EEHLBIEP@get_func_cmt?$CIpfn?0?5repeatable?$CJ?5?9@ 0000000180026178     funcs.obj
 0002:000021a8       ??_C@_0CL@GKMEBODJ@set_func_cmt?$CIpfn?0?5cmt?0?5repeatab@ 00000001800261a8     funcs.obj
 0002:000021d8       ??_C@_0M@BPLDOGGN@update_func@ 00000001800261d8     funcs.obj
 0002:000021e8       ??_C@_0BJ@NJPBNNLK@update_func?$CIpfn?$CJ?5?9?$DO?5bool@ 00000001800261e8     funcs.obj
 0002:00002208       ??_C@_0M@NMBLAGCG@add_func_ex@ 0000000180026208     funcs.obj
 0002:00002218       ??_C@_0BJ@BDBGBOPF@add_func_ex?$CIpfn?$CJ?5?9?$DO?5bool@ 0000000180026218     funcs.obj
 0002:00002238       ??_C@_0CD@BEJBMHPO@add_func?$CIea1?0?5ea2?$DNBADADDR?$CJ?5?9?$DO?5b@ 0000000180026238     funcs.obj
 0002:00002260       ??_C@_08HHLGAFJI@del_func@ 0000000180026260     funcs.obj
 0002:00002270       ??_C@_0BF@GCDGKKHD@del_func?$CIea?$CJ?5?9?$DO?5bool@ 0000000180026270     funcs.obj
 0002:00002288       ??_C@_0CE@KMEDDBAG@set_func_start?$CIea?0?5newstart?$CJ?5?9?$DO@ 0000000180026288     funcs.obj
 0002:000022b0       ??_C@_0CB@DFHPPACD@set_func_end?$CIea?0?5newend?$CJ?5?9?$DO?5boo@ 00000001800262b0     funcs.obj
 0002:000022e0       ??_C@_0ED@OOPHPPIO@reanalyze_function?$CIpfn?0?5ea1?$DN0?0?5@ 00000001800262e0     funcs.obj
 0002:00002328       ??_C@_0CE@NKCNBEKM@find_func_bounds?$CInfn?0?5flags?$CJ?5?9?$DO@ 0000000180026328     funcs.obj
 0002:00002350       ??_C@_0O@BLFGLFA@get_func_name@ 0000000180026350     funcs.obj
 0002:00002360       ??_C@_0BN@LODGFGNN@get_func_name?$CIea?$CJ?5?9?$DO?5ssize_t@ 0000000180026360     funcs.obj
 0002:00002380       ??_C@_0P@BHOELFOO@calc_func_size@ 0000000180026380     funcs.obj
 0002:00002390       ??_C@_0BP@PDLCMFJC@calc_func_size?$CIpfn?$CJ?5?9?$DO?5asize_t@ 0000000180026390     funcs.obj
 0002:000023b0       ??_C@_0BB@DIKKBJLJ@get_func_bitness@ 00000001800263b0     funcs.obj
 0002:000023c8       ??_C@_0BN@GENMLFEH@get_func_bitness?$CIpfn?$CJ?5?9?$DO?5int@ 00000001800263c8     funcs.obj
 0002:000023e8       ??_C@_0O@OJOIDJG@get_func_bits@ 00000001800263e8     funcs.obj
 0002:000023f8       ??_C@_0BK@JPCMDAE@get_func_bits?$CIpfn?$CJ?5?9?$DO?5int@ 00000001800263f8     funcs.obj
 0002:00002418       ??_C@_0P@GFDLMKIH@get_func_bytes@ 0000000180026418     funcs.obj
 0002:00002428       ??_C@_0BL@KCANJLBB@get_func_bytes?$CIpfn?$CJ?5?9?$DO?5int@ 0000000180026428     funcs.obj
 0002:00002448       ??_C@_0BA@ODJFNPHO@is_visible_func@ 0000000180026448     funcs.obj
 0002:00002458       ??_C@_0BN@DNOFDCLI@is_visible_func?$CIpfn?$CJ?5?9?$DO?5bool@ 0000000180026458     funcs.obj
 0002:00002478       ??_C@_0BI@KGDJMFAA@is_finally_visible_func@ 0000000180026478     funcs.obj
 0002:00002490       ??_C@_0CF@BICMKDHK@is_finally_visible_func?$CIpfn?$CJ?5?9?$DO@ 0000000180026490     funcs.obj
 0002:000024b8       ??_C@_0BP@GFCAACDB@set_visible_func?$CIpfn?0?5visible?$CJ@ 00000001800264b8     funcs.obj
 0002:000024d8       ??_C@_0CP@JHKDELG@set_func_name_if_jumpfunc?$CIpfn?0?5@ 00000001800264d8     funcs.obj
 0002:00002508       ??_C@_0BH@EFJBDLII@calc_thunk_func_target@ 0000000180026508     funcs.obj
 0002:00002520       ??_C@_0CE@CMBNFDJP@calc_thunk_func_target?$CIpfn?$CJ?5?9?$DO?5@ 0000000180026520     funcs.obj
 0002:00002548       ??_C@_0BB@HDBNMCPB@func_does_return@ 0000000180026548     funcs.obj
 0002:00002560       ??_C@_0CB@PBNNECEG@func_does_return?$CIcallee?$CJ?5?9?$DO?5boo@ 0000000180026560     funcs.obj
 0002:00002588       ??_C@_0BF@MOFFBECI@reanalyze_noret_flag@ 0000000180026588     funcs.obj
 0002:000025a0       ??_C@_0CB@EBLCCICI@reanalyze_noret_flag?$CIea?$CJ?5?9?$DO?5boo@ 00000001800265a0     funcs.obj
 0002:000025c8       ??_C@_0CH@IFCPEDB@set_noret_insn?$CIinsn_ea?0?5noret?$CJ?5@ 00000001800265c8     funcs.obj
 0002:000025f0       ??_C@_0L@KMPFENGA@get_fchunk@ 00000001800265f0     funcs.obj
 0002:00002600       ??_C@_0BJ@PLOLOBCK@get_fchunk?$CIea?$CJ?5?9?$DO?5func_t@ 0000000180026600     funcs.obj
 0002:00002620       ??_C@_0M@EJIDCEJM@getn_fchunk@ 0000000180026620     funcs.obj
 0002:00002630       ??_C@_0BJ@CFONCLJO@getn_fchunk?$CIn?$CJ?5?9?$DO?5func_t@ 0000000180026630     funcs.obj
 0002:00002650       ??_C@_0BL@HACKMGGP@get_fchunk_qty?$CI?$CJ?5?9?$DO?5size_t@ 0000000180026650     funcs.obj
 0002:00002670       ??_C@_0P@BGBMHENA@get_fchunk_num@ 0000000180026670     funcs.obj
 0002:00002680       ??_C@_0BK@MIINBJNI@get_fchunk_num?$CIea?$CJ?5?9?$DO?5int@ 0000000180026680     funcs.obj
 0002:000026a0       ??_C@_0BA@JGOMCGKC@get_prev_fchunk@ 00000001800266a0     funcs.obj
 0002:000026b0       ??_C@_0BO@GKABJMJM@get_prev_fchunk?$CIea?$CJ?5?9?$DO?5func_t@ 00000001800266b0     funcs.obj
 0002:000026d0       ??_C@_0BA@IKOOLNG@get_next_fchunk@ 00000001800266d0     funcs.obj
 0002:000026e0       ??_C@_0BO@JEDAIHDN@get_next_fchunk?$CIea?$CJ?5?9?$DO?5func_t@ 00000001800266e0     funcs.obj
 0002:00002700       ??_C@_0CI@HNFBBFCG@append_func_tail?$CIpfn?0?5ea1?0?5ea2?$CJ@ 0000000180026700     funcs.obj
 0002:00002728       ??_C@_0CH@JALAHIFK@remove_func_tail?$CIpfn?0?5tail_ea?$CJ?5@ 0000000180026728     funcs.obj
 0002:00002750       ??_C@_0CI@HCJOPIII@set_tail_owner?$CIfnt?0?5func_start?$CJ@ 0000000180026750     funcs.obj
 0002:00002778       ??_C@_0CN@KBLGPGEK@func_tail_iterator_set?$CIfti?0?5pfn@ 0000000180026778     funcs.obj
 0002:000027a8       ??_C@_0CL@IDCHDNOF@func_tail_iterator_set_ea?$CIfti?0?5@ 00000001800267a8     funcs.obj
 0002:000027d8       ??_C@_0CL@NHMPADGO@func_parent_iterator_set?$CIfpi?0?5p@ 00000001800267d8     funcs.obj
 0002:00002808       ??_C@_0DA@EBIAMFPA@func_item_iterator_next?$CIfii?0?5te@ 0000000180026808     funcs.obj
 0002:00002838       ??_C@_0DA@GBNCDJPJ@func_item_iterator_prev?$CIfii?0?5te@ 0000000180026838     funcs.obj
 0002:00002868       ??_C@_0DG@ODBKNEJC@func_item_iterator_decode_prev_@ 0000000180026868     funcs.obj
 0002:000028a0       ??_C@_0EO@DHPHJLFA@func_item_iterator_decode_prece@ 00000001800268a0     funcs.obj
 0002:000028f0       ??_C@_0BK@OGCPKNBF@f_any?$CIarg1?0?5arg2?$CJ?5?9?$DO?5bool@ 00000001800268f0     funcs.obj
 0002:00002910       ??_C@_0FM@HNFJGJIG@?6func_tail_iterator_t?$CI?$CJ?6new_fun@ 0000000180026910     funcs.obj
 0002:00002970       ??_C@_0BM@NPDJDBJO@delete_func_tail_iterator_t@ 0000000180026970     funcs.obj
 0002:00002990       ??_C@_0CC@OJABLDEI@delete_func_tail_iterator_t?$CIsel@ 0000000180026990     funcs.obj
 0002:000029b8       ??_C@_0DJ@FCPMILMO@func_tail_iterator_t_set?$CIself?0?5@ 00000001800269b8     funcs.obj
 0002:000029f8       ??_C@_0CO@GFGLNDKG@func_tail_iterator_t_set_ea?$CIsel@ 00000001800269f8     funcs.obj
 0002:00002a28       ??_C@_0DH@LOBFBFPP@func_tail_iterator_t_set_range?$CI@ 0000000180026a28     funcs.obj
 0002:00002a60       ??_C@_0BL@OJAPANCF@func_tail_iterator_t_chunk@ 0000000180026a60     funcs.obj
 0002:00002a80       ??_C@_0CM@EMIJFGD@func_tail_iterator_t_chunk?$CIself@ 0000000180026a80     funcs.obj
 0002:00002ab0       ??_C@_0BL@MANBLDCC@func_tail_iterator_t_first@ 0000000180026ab0     funcs.obj
 0002:00002ad0       ??_C@_0CJ@KBIKFAIB@func_tail_iterator_t_first?$CIself@ 0000000180026ad0     funcs.obj
 0002:00002b00       ??_C@_0BK@PNDAPGOE@func_tail_iterator_t_last@ 0000000180026b00     funcs.obj
 0002:00002b20       ??_C@_0CI@LOOGIAA@func_tail_iterator_t_last?$CIself?$CJ@ 0000000180026b20     funcs.obj
 0002:00002b48       ??_C@_0BK@EMHNNDC@func_tail_iterator_t_next@ 0000000180026b48     funcs.obj
 0002:00002b68       ??_C@_0CI@MBHIKNON@func_tail_iterator_t_next?$CIself?$CJ@ 0000000180026b68     funcs.obj
 0002:00002b90       ??_C@_0BK@DABBMJFG@func_tail_iterator_t_prev@ 0000000180026b90     funcs.obj
 0002:00002bb0       ??_C@_0CI@LIFMJAB@func_tail_iterator_t_prev?$CIself?$CJ@ 0000000180026bb0     funcs.obj
 0002:00002bd8       ??_C@_0BK@GBMMADCJ@func_tail_iterator_t_main@ 0000000180026bd8     funcs.obj
 0002:00002bf8       ??_C@_0CI@OLOFCKMO@func_tail_iterator_t_main?$CIself?$CJ@ 0000000180026bf8     funcs.obj
 0002:00002c20       ??_C@_0CC@GKPGPMHA@func_tail_iterator_t_swigregist@ 0000000180026c20     funcs.obj
 0002:00002c48       ??_C@_0BO@DINBLOLH@func_tail_iterator_t_swiginit@ 0000000180026c48     funcs.obj
 0002:00002c70       ??_C@_0FM@EIFDLLD@?6func_item_iterator_t?$CI?$CJ?6new_fun@ 0000000180026c70     funcs.obj
 0002:00002cd0       ??_C@_0DJ@FGGHABBK@func_item_iterator_t_set?$CIself?0?5@ 0000000180026cd0     funcs.obj
 0002:00002d10       ??_C@_0DH@HNKFJEAP@func_item_iterator_t_set_range?$CI@ 0000000180026d10     funcs.obj
 0002:00002d48       ??_C@_0BL@FJPPAANJ@func_item_iterator_t_first@ 0000000180026d48     funcs.obj
 0002:00002d68       ??_C@_0CJ@MOCNFEAK@func_item_iterator_t_first?$CIself@ 0000000180026d68     funcs.obj
 0002:00002d98       ??_C@_0BK@NKNCLHOH@func_item_iterator_t_last@ 0000000180026d98     funcs.obj
 0002:00002db8       ??_C@_0CI@BMJNACNG@func_item_iterator_t_last?$CIself?$CJ@ 0000000180026db8     funcs.obj
 0002:00002de0       ??_C@_0BN@GELLJMOF@func_item_iterator_t_current@ 0000000180026de0     funcs.obj
 0002:00002e00       ??_C@_0CL@OFMNOHNL@func_item_iterator_t_current?$CIse@ 0000000180026e00     funcs.obj
 0002:00002e30       ??_C@_0BL@HACBLONO@func_item_iterator_t_chunk@ 0000000180026e30     funcs.obj
 0002:00002e50       ??_C@_0CM@MFHGJCCC@func_item_iterator_t_chunk?$CIself@ 0000000180026e50     funcs.obj
 0002:00002e80       ??_C@_0DC@JKAAINIL@func_item_iterator_t_next?$CIself?0@ 0000000180026e80     funcs.obj
 0002:00002eb8       ??_C@_0DC@LKFCHBIC@func_item_iterator_t_prev?$CIself?0@ 0000000180026eb8     funcs.obj
 0002:00002ef0       ??_C@_0BP@FEOBMAED@func_item_iterator_t_next_addr@ 0000000180026ef0     funcs.obj
 0002:00002f10       ??_C@_0CN@MKIBJKEG@func_item_iterator_t_next_addr?$CI@ 0000000180026f10     funcs.obj
 0002:00002f40       ??_C@_0BP@PLBOLCGL@func_item_iterator_t_next_head@ 0000000180026f40     funcs.obj
 0002:00002f60       ??_C@_0CN@LKIIAKIM@func_item_iterator_t_next_head?$CI@ 0000000180026f60     funcs.obj
 0002:00002f90       ??_C@_0BP@PMKDJALE@func_item_iterator_t_next_code@ 0000000180026f90     funcs.obj
 0002:00002fb0       ??_C@_0CN@FIDMCJDC@func_item_iterator_t_next_code?$CI@ 0000000180026fb0     funcs.obj
 0002:00002fe0       ??_C@_0BP@NGBGFNOD@func_item_iterator_t_next_data@ 0000000180026fe0     funcs.obj
 0002:00003000       ??_C@_0CN@MIEPGFAK@func_item_iterator_t_next_data?$CI@ 0000000180027000     funcs.obj
 0002:00003030       ??_C@_0CD@GMNEGNBP@func_item_iterator_t_next_not_t@ 0000000180027030     funcs.obj
 0002:00003058       ??_C@_0DB@INGECFCH@func_item_iterator_t_next_not_t@ 0000000180027058     funcs.obj
 0002:00003090       ??_C@_0BP@NFAGGLHD@func_item_iterator_t_prev_addr@ 0000000180027090     funcs.obj
 0002:000030b0       ??_C@_0CN@BPOIAPIL@func_item_iterator_t_prev_addr?$CI@ 00000001800270b0     funcs.obj
 0002:000030e0       ??_C@_0BP@HKPJBJFL@func_item_iterator_t_prev_head@ 00000001800270e0     funcs.obj
 0002:00003100       ??_C@_0CN@GPOBJPEB@func_item_iterator_t_prev_head?$CI@ 0000000180027100     funcs.obj
 0002:00003130       ??_C@_0BP@HNEEDLIE@func_item_iterator_t_prev_code@ 0000000180027130     funcs.obj
 0002:00003150       ??_C@_0CN@INFFLMPP@func_item_iterator_t_prev_code?$CI@ 0000000180027150     funcs.obj
 0002:00003180       ??_C@_0BP@FHPBPGND@func_item_iterator_t_prev_data@ 0000000180027180     funcs.obj
 0002:000031a0       ??_C@_0CN@BNCGPAMH@func_item_iterator_t_prev_data?$CI@ 00000001800271a0     funcs.obj
 0002:000031d0       ??_C@_0CD@MCFCPBKC@func_item_iterator_t_prev_not_t@ 00000001800271d0     funcs.obj
 0002:000031f8       ??_C@_0DB@LABNJPFC@func_item_iterator_t_prev_not_t@ 00000001800271f8     funcs.obj
 0002:00003230       ??_C@_0DJ@IBBDLDPO@func_item_iterator_t_decode_pre@ 0000000180027230     funcs.obj
 0002:00003270       ??_C@_0FB@CBGEFEJE@func_item_iterator_t_decode_pre@ 0000000180027270     funcs.obj
 0002:000032c8       ??_C@_0BM@LANCCEDF@delete_func_item_iterator_t@ 00000001800272c8     funcs.obj
 0002:000032e8       ??_C@_0CC@HACPAALD@delete_func_item_iterator_t?$CIsel@ 00000001800272e8     funcs.obj
 0002:00003310       ??_C@_0CC@COGIMMMD@func_item_iterator_t_swigregist@ 0000000180027310     funcs.obj
 0002:00003338       ??_C@_0BO@JCHONCKL@func_item_iterator_t_swiginit@ 0000000180027338     funcs.obj
 0002:00003360       ??_C@_0FG@NPKIDPGD@?6func_parent_iterator_t?$CI?$CJ?6new_f@ 0000000180027360     funcs.obj
 0002:000033b8       ??_C@_0BO@GBHDKBCD@delete_func_parent_iterator_t@ 00000001800273b8     funcs.obj
 0002:000033d8       ??_C@_0CE@KFDKPPLA@delete_func_parent_iterator_t?$CIs@ 00000001800273d8     funcs.obj
 0002:00003400       ??_C@_0CP@JAHPIAKN@func_parent_iterator_t_set?$CIself@ 0000000180027400     funcs.obj
 0002:00003430       ??_C@_0BO@PGEMIHJB@func_parent_iterator_t_parent@ 0000000180027430     funcs.obj
 0002:00003450       ??_C@_0CM@PEKOINPC@func_parent_iterator_t_parent?$CIs@ 0000000180027450     funcs.obj
 0002:00003480       ??_C@_0BN@OPLAPAKO@func_parent_iterator_t_first@ 0000000180027480     funcs.obj
 0002:000034a0       ??_C@_0CL@KONIIIFN@func_parent_iterator_t_first?$CIse@ 00000001800274a0     funcs.obj
 0002:000034d0       ??_C@_0BM@PDAPPNNI@func_parent_iterator_t_last@ 00000001800274d0     funcs.obj
 0002:000034f0       ??_C@_0CK@FJMPIAEJ@func_parent_iterator_t_last?$CIsel@ 00000001800274f0     funcs.obj
 0002:00003520       ??_C@_0BM@KPINGAO@func_parent_iterator_t_next@ 0000000180027520     funcs.obj
 0002:00003540       ??_C@_0CK@JDFJEFKE@func_parent_iterator_t_next?$CIsel@ 0000000180027540     funcs.obj
 0002:00003570       ??_C@_0BM@DOCOMCGK@func_parent_iterator_t_prev@ 0000000180027570     funcs.obj
 0002:00003590       ??_C@_0CK@FJKECBEI@func_parent_iterator_t_prev?$CIsel@ 0000000180027590     funcs.obj
 0002:000035c0       ??_C@_0CN@CILJBKBA@func_parent_iterator_t_reset_fn@ 00000001800275c0     funcs.obj
 0002:000035f0       ??_C@_0CE@PAIPOFKB@func_parent_iterator_t_swigregi@ 00000001800275f0     funcs.obj
 0002:00003618       ??_C@_0CA@DBBPBBHE@func_parent_iterator_t_swiginit@ 0000000180027618     funcs.obj
 0002:00003638       ??_C@_0CE@LBCFBLAA@get_prev_func_addr?$CIpfn?0?5ea?$CJ?5?9?$DO?5@ 0000000180027638     funcs.obj
 0002:00003660       ??_C@_0CE@IDJILOMG@get_next_func_addr?$CIpfn?0?5ea?$CJ?5?9?$DO?5@ 0000000180027660     funcs.obj
 0002:00003688       ??_C@_0N@HAILADMI@read_regargs@ 0000000180027688     funcs.obj
 0002:00003698       ??_C@_0BC@DOADHOJ@read_regargs?$CIpfn?$CJ@ 0000000180027698     funcs.obj
 0002:000036b0       ??_C@_0CA@ELOCOPM@add_regarg?$CIpfn?0?5reg?0?5tif?0?5name?$CJ@ 00000001800276b0     funcs.obj
 0002:000036d0       ??_C@_0BF@DMMCKKJC@plan_to_apply_idasgn@ 00000001800276d0     funcs.obj
 0002:000036e8       ??_C@_0CD@KCPPPBMN@plan_to_apply_idasgn?$CIfname?$CJ?5?9?$DO?5@ 00000001800276e8     funcs.obj
 0002:00003710       ??_C@_0DA@CGKEMECG@apply_idasgn_to?$CIsigname?0?5ea?0?5is@ 0000000180027710     funcs.obj
 0002:00003740       ??_C@_0BI@ENDKEDCC@get_idasgn_qty?$CI?$CJ?5?9?$DO?5int@ 0000000180027740     funcs.obj
 0002:00003758       ??_C@_0BM@KLOHMEAK@get_current_idasgn?$CI?$CJ?5?9?$DO?5int@ 0000000180027758     funcs.obj
 0002:00003778       ??_C@_0BC@JCLBHGAD@calc_idasgn_state@ 0000000180027778     funcs.obj
 0002:00003790       ??_C@_0BM@DADPEPFL@calc_idasgn_state?$CIn?$CJ?5?9?$DO?5int@ 0000000180027790     funcs.obj
 0002:000037b0       ??_C@_0L@JDJPHJDO@del_idasgn@ 00000001800277b0     funcs.obj
 0002:000037c0       ??_C@_0BF@DIAAPCNC@del_idasgn?$CIn?$CJ?5?9?$DO?5int@ 00000001800277c0     funcs.obj
 0002:000037d8       ??_C@_0BB@GEKDECKM@get_idasgn_title@ 00000001800277d8     funcs.obj
 0002:000037f0       ??_C@_0CC@GFICNFMH@get_idasgn_title?$CIname?$CJ?5?9?$DO?5ssize@ 00000001800277f0     funcs.obj
 0002:00003818       ??_C@_0CH@IJEEHDNB@apply_startup_sig?$CIea?0?5startup?$CJ?5@ 0000000180027818     funcs.obj
 0002:00003840       ??_C@_0BD@PPIOBHMF@try_to_add_libfunc@ 0000000180027840     funcs.obj
 0002:00003858       ??_C@_0BO@FFAAJKNA@try_to_add_libfunc?$CIea?$CJ?5?9?$DO?5int@ 0000000180027858     funcs.obj
 0002:00003878       ??_C@_0CE@HKMNCJMM@get_fchunk_referer?$CIea?0?5idx?$CJ?5?9?$DO?5@ 0000000180027878     funcs.obj
 0002:000038a0       ??_C@_0BA@FNNDNLLO@get_idasgn_desc@ 00000001800278a0     funcs.obj
 0002:000038b0       ??_C@_0CB@BDMBLGCF@get_idasgn_desc?$CIn?$CJ?5?9?$DO?5PyObject?5@ 00000001800278b0     funcs.obj
 0002:000038d8       ??_C@_0BN@BENNCCDH@get_idasgn_desc_with_matches@ 00000001800278d8     funcs.obj
 0002:000038f8       ??_C@_0CO@JEIHLJOH@get_idasgn_desc_with_matches?$CIn?$CJ@ 00000001800278f8     funcs.obj
 0002:00003928       ??_C@_0BG@DALKDCL@func_t__from_ptrval__@ 0000000180027928     funcs.obj
 0002:00003940       ??_C@_0CI@BCABJFGM@func_t__from_ptrval__?$CIptrval?$CJ?5?9@ 0000000180027940     funcs.obj
 0002:00003968       ??_C@_07HDHHMDOH@_p_char@  0000000180027968     funcs.obj
 0002:00003970       ??_C@_0BE@LADBKDLC@_p__qstringT_char_t@ 0000000180027970     funcs.obj
 0002:00003988       ??_C@_0BN@OHJFNODI@_qstring?$DM?5char?5?$DO?5?$CK?$HMqstring?5?$CK@ 0000000180027988     funcs.obj
 0002:000039a8       ??_C@_0BN@OGMFMNEO@_p__qstringT_unsigned_char_t@ 00000001800279a8     funcs.obj
 0002:000039c8       ??_C@_0CE@FCOOCMMP@qtype?5?$CK?$HM_qstring?$DM?5unsigned?5char@ 00000001800279c8     funcs.obj
 0002:000039f0       ??_C@_0BO@NPELMEMN@_p__qstringT_unsigned_short_t@ 00000001800279f0     funcs.obj
 0002:00003a10       ??_C@_0CI@MOGIECDE@_qstring?$DM?5unsigned?5short?5?$DO?5?$CK?$HMqw@ 0000000180027a10     funcs.obj
 0002:00003a38       ??_C@_0BF@FIODJLOI@_p_action_ctx_base_t@ 0000000180027a38     funcs.obj
 0002:00003a50       ??_C@_0EE@ODNBPOJC@action_ctx_base_t?5?$CK?$HMaction_upda@ 0000000180027a50     funcs.obj
 0002:00003a98       ??_C@_0N@IODFCNBG@_p_biggest_t@ 0000000180027a98     funcs.obj
 0002:00003aa8       ??_C@_0M@LMODFOHJ@biggest_t?5?$CK@ 0000000180027aa8     funcs.obj
 0002:00003ab8       ??_C@_07NBPMADL@_p_bool@   0000000180027ab8     funcs.obj
 0002:00003ac0       ??_C@_06LKKMOCCN@bool?5?$CK@ 0000000180027ac0     funcs.obj
 0002:00003ac8       ??_C@_0O@HOPHBKAL@char?5?$CK?$HMint8?5?$CK@ 0000000180027ac8     funcs.obj
 0002:00003ad8       ??_C@_0BC@KJKOCNNG@_p_const_iterator@ 0000000180027ad8     funcs.obj
 0002:00003af0       ??_C@_0BB@LAJPCFIO@const_iterator?5?$CK@ 0000000180027af0     funcs.obj
 0002:00003b08       ??_C@_0CG@FLMKLELA@_p_dynamic_wrapped_array_tT_ran@ 0000000180027b08     funcs.obj
 0002:00003b30       ??_C@_0CF@DLPMLBPN@dynamic_wrapped_array_t?$DM?5range_@ 0000000180027b30     funcs.obj
 0002:00003b58       ??_C@_0CH@CPHHEPIO@_p_dynamic_wrapped_array_tT_reg@ 0000000180027b58     funcs.obj
 0002:00003b80       ??_C@_0CG@BLMANMIB@dynamic_wrapped_array_t?$DM?5regvar@ 0000000180027b80     funcs.obj
 0002:00003ba8       ??_C@_0CH@CGNPBDPP@_p_dynamic_wrapped_array_tT_stk@ 0000000180027ba8     funcs.obj
 0002:00003bd0       ??_C@_0CG@EPDJIAEB@dynamic_wrapped_array_t?$DM?5stkpnt@ 0000000180027bd0     funcs.obj
 0002:00003bf8       ??_C@_0CE@DHGPAIMI@_p_f_p_TWidget_int_int_p_void__@ 0000000180027bf8     funcs.obj
 0002:00003c20       ??_C@_0DN@DFPOHMBA@custom_viewer_keydown_t?5?$CK?$HMbool?5@ 0000000180027c20     funcs.obj
 0002:00003c60       ??_C@_0DF@PENMGFJK@_p_f_p_TWidget_int_p_view_mouse@ 0000000180027c60     funcs.obj
 0002:00003ca0       ??_C@_0FC@NPHKCCPL@void?5?$CI?$CK?$CJ?$CITWidget?5?$CK?0int?0view_mou@ 0000000180027ca0     funcs.obj
 0002:00003cf8       ??_C@_0CA@IGCEDJID@_p_f_p_TWidget_int_p_void__bool@ 0000000180027cf8     funcs.obj
 0002:00003d20       ??_C@_0FC@PJNOFHGN@custom_viewer_click_t?5?$CK?$HMcustom_@ 0000000180027d20     funcs.obj
 0002:00003d78       ??_C@_0CO@MIHLPJDD@_p_f_p_TWidget_p_lochist_entry_@ 0000000180027d78     funcs.obj
 0002:00003db0       ??_C@_0EM@HBPJNBB@custom_viewer_adjust_place_t?5?$CK?$HM@ 0000000180027db0     funcs.obj
 0002:00003e00       ??_C@_0GM@LBGPKCPI@_p_f_p_TWidget_p_q_const__lochi@ 0000000180027e00     funcs.obj
 0002:00003e70       ??_C@_0IF@FKBGALIG@void?5?$CI?$CK?$CJ?$CITWidget?5?$CK?0lochist_entr@ 0000000180027e70     funcs.obj
 0002:00003f00       ??_C@_0FA@DFBJAGBE@_p_f_p_TWidget_p_q_const__lochi@ 0000000180027f00     funcs.obj
 0002:00003f50       ??_C@_0GI@FMPBFLEM@custom_viewer_can_navigate_t?5?$CK?$HM@ 0000000180027f50     funcs.obj
 0002:00003fb8       ??_C@_0DH@JJEDBLDE@_p_f_p_TWidget_p_q_const__place@ 0000000180027fb8     funcs.obj
 0002:00003ff0       ??_C@_0EP@PJDAMEBK@code_viewer_lines_click_t?5?$CK?$HMvoi@ 0000000180027ff0     funcs.obj
 0002:00004040       ??_C@_0DE@PBNPHPNC@_p_f_p_TWidget_p_q_const__place@ 0000000180028040     funcs.obj
 0002:00004080       ??_C@_0EL@JKPIBDKO@code_viewer_lines_icon_t?5?$CK?$HMint?5@ 0000000180028080     funcs.obj
 0002:000040d0       ??_C@_0EB@FDCGDBJI@_p_f_p_TWidget_p_q_const__place@ 00000001800280d0     funcs.obj
 0002:00004120       ??_C@_0FN@GGLCMJJK@custom_viewer_get_place_xcoord_@ 0000000180028120     funcs.obj
 0002:00004180       ??_C@_0DO@KLDLOPHE@_p_f_p_TWidget_p_q_const__place@ 0000000180028180     funcs.obj
 0002:000041c0       ??_C@_0FI@GOMHMLF@code_viewer_lines_linenum_t?5?$CK?$HMb@ 00000001800281c0     funcs.obj
 0002:00004218       ??_C@_0BL@BMEJNHDD@_p_f_p_TWidget_p_void__int@ 0000000180028218     funcs.obj
 0002:00004238       ??_C@_0DB@GMPMLKDG@custom_viewer_help_t?5?$CK?$HMint?5?$CI?$CK?$CJ?$CI@ 0000000180028238     funcs.obj
 0002:00004270       ??_C@_0BM@PAKPNBHH@_p_f_p_TWidget_p_void__void@ 0000000180028270     funcs.obj
 0002:00004290       ??_C@_0GE@BLLNJKNN@custom_viewer_popup_t?5?$CK?$HMcustom_@ 0000000180028290     funcs.obj
 0002:000042f8       ??_C@_0DM@PKHFKJJF@_p_f_p_chooser_multi_t_p_sizeve@ 00000001800282f8     funcs.obj
 0002:00004340       ??_C@_0FA@INGPHNGB@chooser_base_t?3?3cbres_t?5?$CI?$CK?$CJ?$CIcho@ 0000000180028340     funcs.obj
 0002:00004390       ??_C@_0CN@LJCPBILN@_p_f_p_chooser_t_ssize_t__choos@ 0000000180028390     funcs.obj
 0002:000043c0       ??_C@_0DL@IKAMODJA@chooser_t?3?3cbret_t?5?$CI?$CK?$CJ?$CIchooser_@ 00000001800283c0     funcs.obj
 0002:00004400       ??_C@_0EC@GIKOMIMG@_p_f_p_lochist_entry_t_r_q_cons@ 0000000180028400     funcs.obj
 0002:00004450       ??_C@_0FE@OJIOMBOE@bool?5?$CI?$CK?$CJ?$CIlochist_entry_t?5?$CK?0loch@ 0000000180028450     funcs.obj
 0002:000044a8       ??_C@_0CC@HPECDOJE@_p_f_p_q_const__char_p_void__vo@ 00000001800284a8     funcs.obj
 0002:000044d0       ??_C@_0DA@LKJNDOAC@void?5?$CI?$CK?$CJ?$CIchar?5const?5?$CK?0void?5?$CK?$CJ?$HMs@ 00000001800284d0     funcs.obj
 0002:00004500       ??_C@_0GC@HKCHLFJ@_p_f_p_q_const__char_r_q_const_@ 0000000180028500     funcs.obj
 0002:00004570       ??_C@_0GE@CDAMLIPA@h2ti_type_cb?5?$CK?$HMint?5?$CI?$CK?$CJ?$CIchar?5con@ 0000000180028570     funcs.obj
 0002:000045d8       ??_C@_0CB@PLKCNJF@_p_f_p_q_const__char_v_______in@ 00000001800285d8     funcs.obj
 0002:00004600       ??_C@_0CG@EHKOJEHN@int?5?$CI?$CK?$CJ?$CIchar?5const?5?$CK?0?4?4?4?$CJ?$HMprint@ 0000000180028600     funcs.obj
 0002:00004628       ??_C@_0CB@PPFKEDBB@_p_f_p_void_int_va_list__ssize_@ 0000000180028628     funcs.obj
 0002:00004650       ??_C@_0CM@ODIKDJIA@ssize_t?5?$CI?$CK?$CJ?$CIvoid?5?$CK?0int?0va_list?$CJ@ 0000000180028650     funcs.obj
 0002:00004680       ??_C@_0CJ@KNMLBMOG@_p_f_r_q_const__insn_t_p_int_p_@ 0000000180028680     funcs.obj
 0002:000046b0       ??_C@_0DI@CGFAFNOI@bool?5?$CI?$CK?$CJ?$CIinsn_t?5const?5?$CG?0int?5?$CK?0i@ 00000001800286b0     funcs.obj
 0002:000046f0       ??_C@_0FA@JJBGCIIH@_p_f_r_q_const__insn_t_r_q_cons@ 00000001800286f0     funcs.obj
 0002:00004740       ??_C@_0FE@IBKJNBMI@bool?5?$CI?$CK?$CJ?$CIinsn_t?5const?5?$CG?0op_t?5co@ 0000000180028740     funcs.obj
 0002:00004798       ??_C@_0BI@PGCOIKGG@_p_f_unsigned_int__bool@ 0000000180028798     funcs.obj
 0002:000047b0       ??_C@_0DN@OGOBIPP@bool?5?$CI?$CK?$CJ?$CIunsigned?5int?$CJ?$HMhas_dela@ 00000001800287b0     funcs.obj
 0002:000047f0       ??_C@_0DL@FFEHDPON@_p_f_unsigned_int_p_q_const__ch@ 00000001800287f0     funcs.obj
 0002:00004830       ??_C@_0EK@MACPDLHN@int?5?$CI?$CK?$CJ?$CIunsigned?5int?0char?5const@ 0000000180028830     funcs.obj
 0002:00004880       ??_C@_0BP@HNIFGGKH@_p_f_unsigned_int_p_void__bool@ 0000000180028880     funcs.obj
 0002:000048a0       ??_C@_0CI@PMEGIBIK@testf_t?5?$CK?$HMbool?5?$CI?$CK?$CJ?$CIunsigned?5int@ 00000001800288a0     funcs.obj
 0002:000048c8       ??_C@_0DB@CEAPILAH@_p_f_unsigned_int_r_q_const__ti@ 00000001800288c8     funcs.obj
 0002:00004900       ??_C@_0EH@MLDNCCKC@local_tinfo_predicate_t?5?$CK?$HMint?5?$CI@ 0000000180028900     funcs.obj
 0002:00004948       ??_C@_0CN@BPIIPJKN@_p_f_unsigned_int_unsigned_int_@ 0000000180028948     funcs.obj
 0002:00004978       ??_C@_0DO@CKIBBIPB@unsigned?5int?5?$CI?$CK?$CJ?$CIunsigned?5int?0u@ 0000000180028978     funcs.obj
 0002:000049b8       ??_C@_0BI@FAOMMBBE@_p_func_item_iterator_t@ 00000001800289b8     funcs.obj
 0002:000049d0       ??_C@_0BH@ECHDHDOK@func_item_iterator_t?5?$CK@ 00000001800289d0     funcs.obj
 0002:000049e8       ??_C@_0BK@DNIMECAJ@_p_func_parent_iterator_t@ 00000001800289e8     funcs.obj
 0002:00004a08       ??_C@_0BJ@KLFDOENH@func_parent_iterator_t?5?$CK@ 0000000180028a08     funcs.obj
 0002:00004a28       ??_C@_09LIGEMJOA@_p_func_t@ 0000000180028a28     funcs.obj
 0002:00004a38       ??_C@_08IOOOCDNO@func_t?5?$CK@ 0000000180028a38     funcs.obj
 0002:00004a48       ??_C@_0BI@DPAHNELP@_p_func_tail_iterator_t@ 0000000180028a48     funcs.obj
 0002:00004a60       ??_C@_0BH@GCFNJNMI@func_tail_iterator_t?5?$CK@ 0000000180028a60     funcs.obj
 0002:00004a78       ??_C@_09ENCHMALP@_p_insn_t@ 0000000180028a78     funcs.obj
 0002:00004a88       ??_C@_08MKBBCPKC@insn_t?5?$CK@ 0000000180028a88     funcs.obj
 0002:00004a94       ??_C@_06EJFLAOFF@_p_int@   0000000180028a94     funcs.obj
 0002:00004aa0       ??_C@_0IG@FDKJDHEK@adiff_t?5?$CK?$HMint?5?$CK?$HMint32?5?$CK?$HMsval_t?5@ 0000000180028aa0     funcs.obj
 0002:00004b28       ??_C@_0M@CFMLOKJJ@_p_iterator@ 0000000180028b28     funcs.obj
 0002:00004b38       ??_C@_0L@IIMCJLIP@iterator?5?$CK@ 0000000180028b38     funcs.obj
 0002:00004b48       ??_C@_0M@CFIHDIGG@_p_llabel_t@ 0000000180028b48     funcs.obj
 0002:00004b58       ??_C@_0L@HDDLNFEJ@llabel_t?5?$CK@ 0000000180028b58     funcs.obj
 0002:00004b68       ??_C@_0O@HDLJBJJF@_p_location_t@ 0000000180028b68     funcs.obj
 0002:00004b78       ??_C@_0N@ONMECIKA@location_t?5?$CK@ 0000000180028b78     funcs.obj
 0002:00004b88       ??_C@_0N@DFHLFAMM@_p_lock_func@ 0000000180028b88     funcs.obj
 0002:00004b98       ??_C@_0M@OJIAMFCD@lock_func?5?$CK@ 0000000180028b98     funcs.obj
 0002:00004ba8       ??_C@_0N@HIKGEFDH@_p_long_long@ 0000000180028ba8     funcs.obj
 0002:00004bb8       ??_C@_0BP@FECEFBLL@int64?5?$CK?$HMlonglong?5?$CK?$HMlong?5long?5?$CK@ 0000000180028bb8     funcs.obj
 0002:00004bd8       ??_C@_0CJ@KBPLCHCN@_p_qvectorT__qstringT_unsigned_@ 0000000180028bd8     funcs.obj
 0002:00004c08       ??_C@_0DF@GOALPBDM@qvector?$DM?5_qstring?$DM?5unsigned?5sho@ 0000000180028c08     funcs.obj
 0002:00004c40       ??_C@_0BH@EHIHPDFP@_p_qvectorT_argloc_t_t@ 0000000180028c40     funcs.obj
 0002:00004c58       ??_C@_0CC@PMMGEEHP@qvector?$DM?5argloc_t?5?$DO?5?$CK?$HMarglocs_t@ 0000000180028c58     funcs.obj
 0002:00004c80       ??_C@_0BD@IFPOLGLB@_p_qvectorT_bool_t@ 0000000180028c80     funcs.obj
 0002:00004c98       ??_C@_0BO@JEOEHDBE@boolvec_t?5?$CK?$HMqvector?$DM?5bool?5?$DO?5?$CK@ 0000000180028c98     funcs.obj
 0002:00004cb8       ??_C@_0BO@BMBALGLA@_p_qvectorT_channel_redir_t_t@ 0000000180028cb8     funcs.obj
 0002:00004cd8       ??_C@_0DA@DFOFPPPA@qvector?$DM?5channel_redir_t?5?$DO?5?$CK?$HMch@ 0000000180028cd8     funcs.obj
 0002:00004d08       ??_C@_0CA@KLOIFAIM@_p_qvectorT_compiled_binpat_t_t@ 0000000180028d08     funcs.obj
 0002:00004d28       ??_C@_0DH@JJMOBCIB@compiled_binpat_vec_t?5?$CK?$HMqvector@ 0000000180028d28     funcs.obj
 0002:00004d60       ??_C@_0BI@HPPPANA@_p_qvectorT_funcarg_t_t@ 0000000180028d60     funcs.obj
 0002:00004d78       ??_C@_0CG@BKJABKPP@funcargvec_t?5?$CK?$HMqvector?$DM?5funcarg@ 0000000180028d78     funcs.obj
 0002:00004da0       ??_C@_0BC@EMAMHDDK@_p_qvectorT_int_t@ 0000000180028da0     funcs.obj
 0002:00004db8       ??_C@_0CI@OEOLBAGE@svalvec_t?5?$CK?$HMintvec_t?5?$CK?$HMqvector?$DM@ 0000000180028db8     funcs.obj
 0002:00004de0       ??_C@_0BG@NGNJJEPD@_p_qvectorT_range_t_t@ 0000000180028de0     funcs.obj
 0002:00004df8       ??_C@_0CH@CMPFLCHN@rangevec_base_t?5?$CK?$HMqvector?$DM?5rang@ 0000000180028df8     funcs.obj
 0002:00004e20       ??_C@_0O@CNCDMPHD@_p_rangevec_t@ 0000000180028e20     funcs.obj
 0002:00004e30       ??_C@_0CB@DLEFICAI@_p_qvectorT_rangeset_t_const_p_@ 0000000180028e30     funcs.obj
 0002:00004e58       ??_C@_0DF@CPGECBJE@rangeset_crefvec_t?5?$CK?$HMqvector?$DM?5r@ 0000000180028e58     funcs.obj
 0002:00004e90       ??_C@_0BB@FBIHFNFO@new_stkpnt_array@ 0000000180028e90     funcs.obj
 0002:00004ea8       ??_C@_0BJ@CBEEABAG@_p_qvectorT_rangeset_t_t@ 0000000180028ea8     funcs.obj
 0002:00004ec8       ??_C@_0CN@NEPIOIFG@qvector?$DM?5rangeset_t?5?$DO?5?$CK?$HMarray_o@ 0000000180028ec8     funcs.obj
 0002:00004ef8       ??_C@_0BN@HCIAELAH@_p_qvectorT_refinfo_desc_t_t@ 0000000180028ef8     funcs.obj
 0002:00004f18       ??_C@_0DB@OEPGJFJL@refinfo_desc_vec_t?5?$CK?$HMqvector?$DM?5r@ 0000000180028f18     funcs.obj
 0002:00004f50       ??_C@_0BK@JBDFAIAF@_p_qvectorT_simd_info_t_t@ 0000000180028f50     funcs.obj
 0002:00004f70       ??_C@_0CL@IAEHADMA@simd_info_vec_t?5?$CK?$HMqvector?$DM?5simd@ 0000000180028f70     funcs.obj
 0002:00004fa0       ??_C@_0BL@JOHIOMBL@_p_qvectorT_simpleline_t_t@ 0000000180028fa0     funcs.obj
 0002:00004fc0       ??_C@_0CF@LMLHENLN@strvec_t?5?$CK?$HMqvector?$DM?5simpleline_@ 0000000180028fc0     funcs.obj
 0002:00004fe8       ??_C@_0BF@JMFCGENF@_p_qvectorT_size_t_t@ 0000000180028fe8     funcs.obj
 0002:00005000       ??_C@_0CA@PKGFIBKP@sizevec_t?5?$CK?$HMqvector?$DM?5size_t?5?$DO?5?$CK@ 0000000180029000     funcs.obj
 0002:00005020       ??_C@_0BG@GHPDGOHO@_p_qvectorT_tinfo_t_t@ 0000000180029020     funcs.obj
 0002:00005038       ??_C@_0CC@CEHAEEKI@tinfovec_t?5?$CK?$HMqvector?$DM?5tinfo_t?5?$DO@ 0000000180029038     funcs.obj
 0002:00005060       ??_C@_0BK@KGMCEJE@_p_qvectorT_type_attr_t_t@ 0000000180029060     funcs.obj
 0002:00005080       ??_C@_0CI@PENEDOEG@type_attrs_t?5?$CK?$HMqvector?$DM?5type_at@ 0000000180029080     funcs.obj
 0002:000050a8       ??_C@_0BL@MFAEBBAF@_p_qvectorT_udt_member_t_t@ 00000001800290a8     funcs.obj
 0002:000050c8       ??_C@_0CL@HFANAPIM@udtmembervec_t?5?$CK?$HMqvector?$DM?5udt_m@ 00000001800290c8     funcs.obj
 0002:000050f8       ??_C@_0BM@DFOCNGNJ@_p_qvectorT_unsigned_char_t@ 00000001800290f8     funcs.obj
 0002:00005118       ??_C@_0CH@MCODNJGI@qvector?$DM?5unsigned?5char?5?$DO?5?$CK?$HMcomp@ 0000000180029118     funcs.obj
 0002:00005140       ??_C@_0M@BEMIELHM@_p_relobj_t@ 0000000180029140     funcs.obj
 0002:00005150       ??_C@_0N@OAHCDFLH@_p_bytevec_t@ 0000000180029150     funcs.obj
 0002:00005160       ??_C@_0BA@KOPDLMDG@_p_reloc_info_t@ 0000000180029160     funcs.obj
 0002:00005170       ??_C@_0BL@POPMPLM@_p_qvectorT_unsigned_int_t@ 0000000180029170     funcs.obj
 0002:00005190       ??_C@_0DL@HDEADPMO@eavec_t?5?$CK?$HMordvec_t?5?$CK?$HMuvalvec_t?5@ 0000000180029190     funcs.obj
 0002:000051d0       ??_C@_0L@NOIPKKEL@_p_range_t@ 00000001800291d0     funcs.obj
 0002:000051e0       ??_C@_09HPKAOMNJ@range_t?5?$CK@ 00000001800291e0     funcs.obj
 0002:000051f0       ??_C@_0O@LACADBOG@_p_rangeset_t@ 00000001800291f0     funcs.obj
 0002:00005200       ??_C@_0N@NMGDGJPG@rangeset_t?5?$CK@ 0000000180029200     funcs.obj
 0002:00005210       ??_C@_0M@LOEPDBKJ@_p_regarg_t@ 0000000180029210     funcs.obj
 0002:00005220       ??_C@_0L@EGIFDNKE@regarg_t?5?$CK@ 0000000180029220     funcs.obj
 0002:00005230       ??_C@_0M@OABLEJHF@_p_regvar_t@ 0000000180029230     funcs.obj
 0002:00005240       ??_C@_0L@DFNGBAON@regvar_t?5?$CK@ 0000000180029240     funcs.obj
 0002:00005250       ??_C@_08JGEHMJEC@_p_short@ 0000000180029250     funcs.obj
 0002:00005260       ??_C@_0BA@BBDCPKKI@int16?5?$CK?$HMshort?5?$CK@ 0000000180029260     funcs.obj
 0002:00005270       ??_C@_0P@IHEJCACJ@_p_signed_char@ 0000000180029270     funcs.obj
 0002:00005280       ??_C@_0BG@CGJIOBCI@signed?5char?5?$CK?$HMsint8?5?$CK@ 0000000180029280     funcs.obj
 0002:00005298       ??_C@_0BF@FCEOICKN@_p_std__out_of_range@ 0000000180029298     funcs.obj
 0002:000052b0       ??_C@_0BE@JMJBMDHG@std?3?3out_of_range?5?$CK@ 00000001800292b0     funcs.obj
 0002:000052c8       ??_C@_0M@PBLDCNOH@_p_stkpnt_t@ 00000001800292c8     funcs.obj
 0002:000052d8       ??_C@_0L@DMHOEMJM@stkpnt_t?5?$CK@ 00000001800292d8     funcs.obj
 0002:000052e8       ??_C@_0L@HJNCCEHP@_p_tinfo_t@ 00000001800292e8     funcs.obj
 0002:000052f8       ??_C@_09MOIKBGFE@tinfo_t?5?$CK@ 00000001800292f8     funcs.obj
 0002:00005308       ??_C@_0BB@JEMKPEPB@_p_unsigned_char@ 0000000180029308     funcs.obj
 0002:00005320       ??_C@_0HI@NBHOBBOJ@uchar?5?$CK?$HMunsigned?5char?5?$CK?$HMcm_t?5?$CK?$HM@ 0000000180029320     funcs.obj
 0002:00005398       ??_C@_0BA@EMEBBPFL@_p_unsigned_int@ 0000000180029398     funcs.obj
 0002:000053b0       ??_C@_0JE@GCFOGLMK@bgcolor_t?5?$CK?$HMenum_t?5?$CK?$HMtid_t?5?$CK?$HMbm@ 00000001800293b0     funcs.obj
 0002:00005448       ??_C@_0BJ@JNIKMGBB@stkpnt_array___getitem__@ 0000000180029448     funcs.obj
 0002:00005468       ??_C@_0BG@CGEDOPGF@_p_unsigned_long_long@ 0000000180029468     funcs.obj
 0002:00005480       ??_C@_0CK@FCLCDGJM@uint64?5?$CK?$HMulonglong?5?$CK?$HMunsigned?5l@ 0000000180029480     funcs.obj
 0002:000054b0       ??_C@_0BC@GCHEMBCE@_p_unsigned_short@ 00000001800294b0     funcs.obj
 0002:000054c8       ??_C@_0CP@HNCAPCKA@uint16?5?$CK?$HMunsigned?5short?5?$CK?$HMushor@ 00000001800294c8     funcs.obj
 0002:000054f8       ??_C@_0O@KPNNNNNL@_p_value_type@ 00000001800294f8     funcs.obj
 0002:00005508       ??_C@_0N@BPDHJAOG@value_type?5?$CK@ 0000000180029508     funcs.obj
 0002:00005518       ??_C@_0BJ@LDMPOHID@stkpnt_array___setitem__@ 0000000180029518     funcs.obj
 0002:00005538       ??_C@_0BB@FHOABJO@new_regvar_array@ 0000000180029538     funcs.obj
 0002:00005550       ??_C@_0BJ@HMGNOGML@regvar_array___getitem__@ 0000000180029550     funcs.obj
 0002:00005570       ??_C@_0BJ@FCCIMHFJ@regvar_array___setitem__@ 0000000180029570     funcs.obj
 0002:00005590       ??_C@_0BA@PJDBCHM@new_range_array@ 0000000180029590     funcs.obj
 0002:000055a0       ??_C@_0BI@LBKDKIHD@range_array___getitem__@ 00000001800295a0     funcs.obj
 0002:000055b8       ??_C@_0BI@JPOGIJOB@range_array___setitem__@ 00000001800295b8     funcs.obj
 0002:000055d0       ??_C@_0BB@NGIMMCDC@regarg_t_reg_set@ 00000001800295d0     funcs.obj
 0002:000055e8       ??_C@_0BC@LAGDLJNE@regarg_t_type_set@ 00000001800295e8     funcs.obj
 0002:00005600       ??_C@_0BC@CANKKGKL@regarg_t_name_set@ 0000000180029600     funcs.obj
 0002:00005618       ??_C@_0N@OJNOKMEM@new_regarg_t@ 0000000180029618     funcs.obj
 0002:00005628       ??_C@_0BB@IFDBEPPF@func_t_flags_set@ 0000000180029628     funcs.obj
 0002:00005640       ??_C@_0BB@JAMMGINO@func_t_frame_set@ 0000000180029640     funcs.obj
 0002:00005658       ??_C@_0BC@HEAECAKJ@func_t_frsize_set@ 0000000180029658     funcs.obj
 0002:00005670       ??_C@_0BC@OHFGDNCN@func_t_frregs_set@ 0000000180029670     funcs.obj
 0002:00005688       ??_C@_0BD@CNPKFOEJ@func_t_argsize_set@ 0000000180029688     funcs.obj
 0002:000056a0       ??_C@_0P@JLPNIMJK@func_t_fpd_set@ 00000001800296a0     funcs.obj
 0002:000056b0       ??_C@_0BB@DJCDDAGH@func_t_color_set@ 00000001800296b0     funcs.obj
 0002:000056c8       ??_C@_0BC@OAMBLBKN@func_t_pntqty_set@ 00000001800296c8     funcs.obj
 0002:000056e0       ??_C@_0BC@FGIMHPFE@func_t_points_set@ 00000001800296e0     funcs.obj
 0002:000056f8       ??_C@_0BF@EAEOAOKI@func_t_regvarqty_set@ 00000001800296f8     funcs.obj
 0002:00005710       ??_C@_0BD@KOKDEBBG@func_t_regvars_set@ 0000000180029710     funcs.obj
 0002:00005728       ??_C@_0BF@PGAJEGJM@func_t_llabelqty_set@ 0000000180029728     funcs.obj
 0002:00006dd4       ??_C@_04HIBGFPH@NULL@      000000018002add4     funcs.obj
 0002:00006de0       ??_C@_0BO@CMHFAAKD@?$CFS?6Additional?5information?3?6?$CFs@ 000000018002ade0     funcs.obj
 0002:00006dfe       ??_C@_00CNPNBAHC@@         000000018002adfe     funcs.obj
 0002:00006e00       ??_C@_09HJOCAFJB@at?5least?5@ 000000018002ae00     funcs.obj
 0002:00006e10       ??_C@_0CF@KFFOGCID@?$CFs?5expected?5?$CFs?$CFd?5arguments?0?5got@ 000000018002ae10     funcs.obj
 0002:00006e38       ??_C@_0CL@NPJGKHAI@UnpackTuple?$CI?$CJ?5argument?5list?5is?5@ 000000018002ae38     funcs.obj
 0002:00006e68       ??_C@_0CD@DMIOPJCG@?$CFs?5expected?5?$CFs?$CFd?5arguments?0?5got@ 000000018002ae68     funcs.obj
 0002:00006e90       ??_C@_08KFLHMPAE@at?5most?5@ 000000018002ae90     funcs.obj
 0002:00006ea0       ??_C@_07MEBHOIG@__new__@   000000018002aea0     funcs.obj
 0002:00006ea8       ??_C@_0BB@LPCDDCDP@__swig_destroy__@ 000000018002aea8     funcs.obj
 0002:00006ec0       ??_C@_07CIFAGBMG@unknown@  000000018002aec0     funcs.obj
 0002:00006ec8       ??_C@_0CB@HIOLGNHE@?$DMSwig?5Object?5of?5type?5?8?$CFs?8?5at?5?$CFp@ 000000018002aec8     funcs.obj
 0002:00006ef0       ??_C@_08BHKDPDAA@__name__@ 000000018002aef0     funcs.obj
 0002:00006f00       ??_C@_0N@OEDBPMFH@SwigPyObject@ 000000018002af00     funcs.obj
 0002:00006f10       ??_C@_0EH@KGGHIIII@swig?1python?5detected?5a?5memory?5l@ 000000018002af10     funcs.obj
 0002:00006f58       ??_C@_0CF@NBDOMJMA@Attempt?5to?5append?5a?5non?5SwigPyO@ 000000018002af58     funcs.obj
 0002:00006f80       ??_C@_0BG@BEMBDPAG@?$DMSwig?5Packed?5at?5?$CFs?$CFs?$DO@ 000000018002af80     funcs.obj
 0002:00006f98       ??_C@_0BB@KEMDDLH@?$DMSwig?5Packed?5?$CFs?$DO@ 000000018002af98     funcs.obj
 0002:00006fac       ??_C@_04HDOCAJNK@?$CFs?$CFs@ 000000018002afac     funcs.obj
 0002:00006fb8       ??_C@_0N@FALDBJHP@SwigPyPacked@ 000000018002afb8     funcs.obj
 0002:00006fc8       ??_C@_04IIAJELJL@this@     000000018002afc8     funcs.obj
 0002:00006fd0       ??_C@_07DIBBIFIJ@__doc__@  000000018002afd0     funcs.obj
 0002:00006fd8       ??_C@_0L@GCGAIEDO@swig_ptr?3?5@ 000000018002afd8     funcs.obj
 0002:00006fe8       ??_C@_08IBFKALI@__dict__@  000000018002afe8     funcs.obj
 0002:00006ff8       ??_C@_08DOBMGDEN@swiginit@ 000000018002aff8     funcs.obj
 0002:00007008       ??_C@_0CO@FOLKHJOC@swig_runtime_data4?4type_pointer@ 000000018002b008     funcs.obj
 0002:00007038       ??_C@_0BD@BFIMCAOH@swig_runtime_data4@ 000000018002b038     funcs.obj
 0002:00007050       ??_C@_0BL@LFDLKGPB@type_pointer_capsuleidaapi@ 000000018002b050     funcs.obj
 0002:00007078       ??_7exception@std@@6B@     000000018002b078     funcs.obj
 0002:00007088       ??_C@_0BC@EOODALEL@Unknown?5exception@ 000000018002b088     funcs.obj
 0002:000070a8       ??_7logic_error@std@@6B@   000000018002b0a8     funcs.obj
 0002:000070c0       ??_7out_of_range@std@@6B@  000000018002b0c0     funcs.obj
 0002:000070d0       ??_C@_0BK@NPFFDHAP@Out?5of?5memory?5?$CIbad_alloc?$CJ@ 000000018002b0d0     funcs.obj
 0002:000070f0       ??_C@_0BCP@OKJACFO@Internal?5error?5?$CFd?5occurred?5when@ 000000018002b0f0     funcs.obj
 0002:00007220       ??_C@_0DB@OCJMLGAO@Function?5can?5be?5called?5from?5the@ 000000018002b220     funcs.obj
 0002:00007258       ??_C@_0BF@NPFMAGNK@out?5of?5bounds?5access@ 000000018002b258     funcs.obj
 0002:00007270       ??_C@_0BA@GMJLDMKP@surrogateescape@ 000000018002b270     funcs.obj
 0002:00007280       ??_C@_04KDBHCKLH@?$CIss?$CJ@ 000000018002b280     funcs.obj
 0002:00007288       ??_C@_05GBHKCDCO@?$CIssi?$CJ@ 000000018002b288     funcs.obj
 0002:00007290       ??_C@_0FO@BGPBCMMH@in?5method?5?8stkpnt_array_data_ge@ 000000018002b290     funcs.obj
 0002:000072f0       ??_C@_0FP@GOCHCBBN@in?5method?5?8stkpnt_array_count_g@ 000000018002b2f0     funcs.obj
 0002:00007350       ??_C@_0DO@EKAHCFMN@in?5method?5?8new_stkpnt_array?8?0?5a@ 000000018002b350     funcs.obj
 0002:00007390       ??_C@_0DK@IEKNBCPN@in?5method?5?8new_stkpnt_array?8?0?5a@ 000000018002b390     funcs.obj
 0002:000073d0       ??_C@_0GD@DDCKOGFH@in?5method?5?8stkpnt_array___len__@ 000000018002b3d0     funcs.obj
 0002:00007440       ??_C@_0GH@DPMNBIFA@in?5method?5?8stkpnt_array___getit@ 000000018002b440     funcs.obj
 0002:000074b0       ??_C@_0EC@BHOMBGMA@in?5method?5?8stkpnt_array___getit@ 000000018002b4b0     funcs.obj
 0002:00007500       ??_C@_0GB@EMHKFFFO@in?5method?5?8stkpnt_array___setit@ 000000018002b500     funcs.obj
 0002:00007570       ??_C@_0EC@DDIKFGOB@in?5method?5?8stkpnt_array___setit@ 000000018002b570     funcs.obj
 0002:000075c0       ??_C@_0EM@LOBMEDCA@in?5method?5?8stkpnt_array___setit@ 000000018002b5c0     funcs.obj
 0002:00007610       ??_C@_0GD@LKPIHKJK@invalid?5null?5reference?5in?5metho@ 000000018002b610     funcs.obj
 0002:00007680       ??_C@_0FM@KHHLPPBD@in?5method?5?8delete_stkpnt_array?8@ 000000018002b680     funcs.obj
 0002:000076e0       ??_C@_0N@JBELKAOG@swigregister@ 000000018002b6e0     funcs.obj
 0002:000076f0       ??_C@_0FO@OEAPMOEC@in?5method?5?8regvar_array_data_ge@ 000000018002b6f0     funcs.obj
 0002:00007750       ??_C@_0FP@MBBAANNE@in?5method?5?8regvar_array_count_g@ 000000018002b750     funcs.obj
 0002:000077b0       ??_C@_0DO@MCENPKLM@in?5method?5?8new_regvar_array?8?0?5a@ 000000018002b7b0     funcs.obj
 0002:000077f0       ??_C@_0DK@KPMJNJMH@in?5method?5?8new_regvar_array?8?0?5a@ 000000018002b7f0     funcs.obj
 0002:00007830       ??_C@_0GD@GFEAJDAC@in?5method?5?8regvar_array___len__@ 000000018002b830     funcs.obj
 0002:000078a0       ??_C@_0GH@NDJMAFAC@in?5method?5?8regvar_array___getit@ 000000018002b8a0     funcs.obj
 0002:00007910       ??_C@_0EC@LDNCNLOF@in?5method?5?8regvar_array___getit@ 000000018002b910     funcs.obj
 0002:00007960       ??_C@_0GB@LMGKAPJF@in?5method?5?8regvar_array___setit@ 000000018002b960     funcs.obj
 0002:000079d0       ??_C@_0EC@JHLEJLME@in?5method?5?8regvar_array___setit@ 000000018002b9d0     funcs.obj
 0002:00007a20       ??_C@_0EM@HBEPFBFH@in?5method?5?8regvar_array___setit@ 000000018002ba20     funcs.obj
 0002:00007a70       ??_C@_0GD@HFKLGION@invalid?5null?5reference?5in?5metho@ 000000018002ba70     funcs.obj
 0002:00007ae0       ??_C@_0FM@CECNOPEE@in?5method?5?8delete_regvar_array?8@ 000000018002bae0     funcs.obj
 0002:00007b40       ??_C@_0FM@FCFEKBKB@in?5method?5?8range_array_data_get@ 000000018002bb40     funcs.obj
 0002:00007ba0       ??_C@_0FN@PDLDGJEA@in?5method?5?8range_array_count_ge@ 000000018002bba0     funcs.obj
 0002:00007c00       ??_C@_0DM@PPKNJPI@in?5method?5?8new_range_array?8?0?5ar@ 000000018002bc00     funcs.obj
 0002:00007c40       ??_C@_0DJ@CBLEPKDA@in?5method?5?8new_range_array?8?0?5ar@ 000000018002bc40     funcs.obj
 0002:00007c80       ??_C@_0GB@LHFHLMFA@in?5method?5?8range_array___len__?8@ 000000018002bc80     funcs.obj
 0002:00007cf0       ??_C@_0GF@JDFLMFML@in?5method?5?8range_array___getite@ 000000018002bcf0     funcs.obj
 0002:00007d60       ??_C@_0EB@NOCENCLI@in?5method?5?8range_array___getite@ 000000018002bd60     funcs.obj
 0002:00007db0       ??_C@_0FP@LHAPGPAF@in?5method?5?8range_array___setite@ 000000018002bdb0     funcs.obj
 0002:00007e10       ??_C@_0EB@PKECJCJJ@in?5method?5?8range_array___setite@ 000000018002be10     funcs.obj
 0002:00007e60       ??_C@_0EK@DMIFOEPL@in?5method?5?8range_array___setite@ 000000018002be60     funcs.obj
 0002:00007eb0       ??_C@_0GB@JGCMLPFN@invalid?5null?5reference?5in?5metho@ 000000018002beb0     funcs.obj
 0002:00007f20       ??_C@_0FK@KIABNPPH@in?5method?5?8delete_range_array?8?0@ 000000018002bf20     funcs.obj
 0002:00007f80       ??_C@_0DO@IDDDFNPO@in?5method?5?8regarg_t_reg_set?8?0?5a@ 000000018002bf80     funcs.obj
 0002:00007fc0       ??_C@_0DH@CHHCHLMM@in?5method?5?8regarg_t_reg_set?8?0?5a@ 000000018002bfc0     funcs.obj
 0002:00007ff8       ??_C@_0DO@GNDBFDNI@in?5method?5?8regarg_t_reg_get?8?0?5a@ 000000018002bff8     funcs.obj
 0002:00008038       ??_C@_0DP@LLCAKIHM@in?5method?5?8regarg_t_type_set?8?0?5@ 000000018002c038     funcs.obj
 0002:00008078       ??_C@_0DN@LIBGGPKG@in?5method?5?8regarg_t_type_set?8?0?5@ 000000018002c078     funcs.obj
 0002:000080b8       ??_C@_0DP@FFCCKGFK@in?5method?5?8regarg_t_type_get?8?0?5@ 000000018002c0b8     funcs.obj
 0002:000080f8       ??_C@_0DP@FJJNKFMN@in?5method?5?8regarg_t_name_set?8?0?5@ 000000018002c0f8     funcs.obj
 0002:00008138       ??_C@_0DL@JCBIOBNK@in?5method?5?8regarg_t_name_set?8?0?5@ 000000018002c138     funcs.obj
 0002:00008178       ??_C@_0DP@LHJPKLOL@in?5method?5?8regarg_t_name_get?8?0?5@ 000000018002c178     funcs.obj
 0002:000081b8       ??_C@_0DN@ENMMMOA@in?5method?5?8delete_regarg_t?8?0?5ar@ 000000018002c1b8     funcs.obj
 0002:000081f8       ??_C@_0DM@CBGMNEPE@in?5method?5?8func_t_flags_set?8?0?5a@ 000000018002c1f8     funcs.obj
 0002:00008238       ??_C@_0BI@CADBDEKD@Expected?5an?5uint64?5type@ 000000018002c238     funcs.obj
 0002:00008250       ??_C@_0DM@PIHNOODP@in?5method?5?8func_t_flags_get?8?0?5a@ 000000018002c250     funcs.obj
 0002:00008290       ??_C@_0DP@NNOCLCAJ@in?5method?5?8func_t_is_far?8?0?5argu@ 000000018002c290     funcs.obj
 0002:000082d0       ??_C@_0EE@DAMDFOGO@in?5method?5?8func_t_does_return?8?0@ 000000018002c2d0     funcs.obj
 0002:00008320       ??_C@_0EE@LINFNGOL@in?5method?5?8func_t_analyzed_sp?8?0@ 000000018002c320     funcs.obj
 0002:00008370       ??_C@_0EN@EIFGPGIO@in?5method?5?8func_t_need_prolog_a@ 000000018002c370     funcs.obj
 0002:000083c0       ??_C@_0DM@OBKMKKJP@in?5method?5?8func_t_frame_set?8?0?5a@ 000000018002c3c0     funcs.obj
 0002:00008400       ??_C@_0DK@NCIAOJON@in?5method?5?8func_t_frame_set?8?0?5a@ 000000018002c400     funcs.obj
 0002:00008440       ??_C@_0DM@DILNJAFE@in?5method?5?8func_t_frame_get?8?0?5a@ 000000018002c440     funcs.obj
 0002:00008480       ??_C@_0DN@DEFMCOPM@in?5method?5?8func_t_frsize_set?8?0?5@ 000000018002c480     funcs.obj
 0002:000084c0       ??_C@_0DM@DJJNIBGC@in?5method?5?8func_t_frsize_set?8?0?5@ 000000018002c4c0     funcs.obj
 0002:00008500       ??_C@_0DN@ONENBEDH@in?5method?5?8func_t_frsize_get?8?0?5@ 000000018002c500     funcs.obj
 0002:00008540       ??_C@_0DN@NNGKFEAP@in?5method?5?8func_t_frregs_set?8?0?5@ 000000018002c540     funcs.obj
 0002:00008580       ??_C@_0DL@BCDFAAAJ@in?5method?5?8func_t_frregs_set?8?0?5@ 000000018002c580     funcs.obj
 0002:000085c0       ??_C@_0DN@EHLGOME@in?5method?5?8func_t_frregs_get?8?0?5@ 000000018002c5c0     funcs.obj
 0002:00008600       ??_C@_0DO@OPALFLAE@in?5method?5?8func_t_argsize_set?8?0@ 000000018002c600     funcs.obj
 0002:00008640       ??_C@_0DN@NFCBKPEI@in?5method?5?8func_t_argsize_set?8?0@ 000000018002c640     funcs.obj
 0002:00008680       ??_C@_0DO@DGBKGBMP@in?5method?5?8func_t_argsize_get?8?0@ 000000018002c680     funcs.obj
 0002:000086c0       ??_C@_0DK@GHACAECH@in?5method?5?8func_t_fpd_set?8?0?5arg@ 000000018002c6c0     funcs.obj
 0002:00008700       ??_C@_0DJ@NECEGKJA@in?5method?5?8func_t_fpd_set?8?0?5arg@ 000000018002c700     funcs.obj
 0002:00008740       ??_C@_0DK@LOBDDOOM@in?5method?5?8func_t_fpd_get?8?0?5arg@ 000000018002c740     funcs.obj
 0002:00008780       ??_C@_0DM@BLIMAEMN@in?5method?5?8func_t_color_set?8?0?5a@ 000000018002c780     funcs.obj
 0002:000087c0       ??_C@_0DN@LDEDOMBI@in?5method?5?8func_t_color_set?8?0?5a@ 000000018002c7c0     funcs.obj
 0002:00008800       ??_C@_0DM@MCJNDOAG@in?5method?5?8func_t_color_get?8?0?5a@ 000000018002c800     funcs.obj
 0002:00008840       ??_C@_0DN@GDBKMHBK@in?5method?5?8func_t_pntqty_set?8?0?5@ 000000018002c840     funcs.obj
 0002:00008880       ??_C@_0DL@HFGDJEOH@in?5method?5?8func_t_pntqty_set?8?0?5@ 000000018002c880     funcs.obj
 0002:000088c0       ??_C@_0DN@LKALPNNB@in?5method?5?8func_t_pntqty_get?8?0?5@ 000000018002c8c0     funcs.obj
 0002:00008900       ??_C@_0DN@EIKJEPAC@in?5method?5?8func_t_points_set?8?0?5@ 000000018002c900     funcs.obj
 0002:00008940       ??_C@_0DP@MCBJGLHM@in?5method?5?8func_t_points_set?8?0?5@ 000000018002c940     funcs.obj
 0002:00008980       ??_C@_0DN@JBLIHFMJ@in?5method?5?8func_t_points_get?8?0?5@ 000000018002c980     funcs.obj
 0002:000089c0       ??_C@_0EA@JJKOFBOI@in?5method?5?8func_t_regvarqty_set@ 000000018002c9c0     funcs.obj
 0002:00008a00       ??_C@_0DL@JHCJFLIC@in?5method?5?8func_t_regvarqty_set@ 000000018002ca00     funcs.obj
 0002:00008a40       ??_C@_0EA@EALPGLCD@in?5method?5?8func_t_regvarqty_get@ 000000018002ca40     funcs.obj
 0002:00008a80       ??_C@_0DO@EJBBNIKH@in?5method?5?8func_t_regvars_set?8?0@ 000000018002ca80     funcs.obj
 0002:00008ac0       ??_C@_0EA@FIAJMNHJ@in?5method?5?8func_t_regvars_set?8?0@ 000000018002cac0     funcs.obj
 0002:00008b00       ??_C@_0DO@JAAAOCGM@in?5method?5?8func_t_regvars_get?8?0@ 000000018002cb00     funcs.obj
 0002:00008b40       ??_C@_0EA@DGCAOFLL@in?5method?5?8func_t_llabelqty_set@ 000000018002cb40     funcs.obj
 0002:00008b80       ??_C@_0DL@IMECMGIL@in?5method?5?8func_t_llabelqty_set@ 000000018002cb80     funcs.obj
 0002:00008bc0       ??_C@_0EA@OPDBNPHA@in?5method?5?8func_t_llabelqty_get@ 000000018002cbc0     funcs.obj
 0002:00008c00       ??_C@_0DO@FIEPKPLE@in?5method?5?8func_t_llabels_set?8?0@ 000000018002cc00     funcs.obj
 0002:00008c40       ??_C@_0EA@CGHKPDBO@in?5method?5?8func_t_llabels_set?8?0@ 000000018002cc40     funcs.obj
 0002:00008c80       ??_C@_0DO@IBFOJFHP@in?5method?5?8func_t_llabels_get?8?0@ 000000018002cc80     funcs.obj
 0002:00008cc0       ??_C@_0EA@LCOKOJNM@in?5method?5?8func_t_regargqty_set@ 000000018002ccc0     funcs.obj
 0002:00008d00       ??_C@_0DL@EAPPNIEA@in?5method?5?8func_t_regargqty_set@ 000000018002cd00     funcs.obj
 0002:00008d40       ??_C@_0EA@GLPLNDBH@in?5method?5?8func_t_regargqty_get@ 000000018002cd40     funcs.obj
 0002:00008d80       ??_C@_0DO@KECECGDH@in?5method?5?8func_t_regargs_set?8?0@ 000000018002cd80     funcs.obj
 0002:00008dc0       ??_C@_0EA@HMDONPFE@in?5method?5?8func_t_regargs_set?8?0@ 000000018002cdc0     funcs.obj
 0002:00008e00       ??_C@_0DO@HNDFBMPM@in?5method?5?8func_t_regargs_get?8?0@ 000000018002ce00     funcs.obj
 0002:00008e40       ??_C@_0DO@IIEFAOFK@in?5method?5?8func_t_tailqty_set?8?0@ 000000018002ce40     funcs.obj
 0002:00008e80       ??_C@_0DJ@JFHKPOK@in?5method?5?8func_t_tailqty_set?8?0@ 000000018002ce80     funcs.obj
 0002:00008ec0       ??_C@_0DO@FBFEDEJB@in?5method?5?8func_t_tailqty_get?8?0@ 000000018002cec0     funcs.obj
 0002:00008f00       ??_C@_0DM@MILIDKCD@in?5method?5?8func_t_tails_set?8?0?5a@ 000000018002cf00     funcs.obj
 0002:00008f40       ??_C@_0DN@DOLMFLJJ@in?5method?5?8func_t_tails_set?8?0?5a@ 000000018002cf40     funcs.obj
 0002:00008f80       ??_C@_0DM@BBKJAAOI@in?5method?5?8func_t_tails_get?8?0?5a@ 000000018002cf80     funcs.obj
 0002:00008fc0       ??_C@_0DM@INNKOPAD@in?5method?5?8func_t_owner_set?8?0?5a@ 000000018002cfc0     funcs.obj
 0002:00009000       ??_C@_0DI@OPGCHKAH@in?5method?5?8func_t_owner_set?8?0?5a@ 000000018002d000     funcs.obj
 0002:00009038       ??_C@_0DM@FEMLNFMI@in?5method?5?8func_t_owner_get?8?0?5a@ 000000018002d038     funcs.obj
 0002:00009078       ??_C@_0DN@INDCIKDD@in?5method?5?8func_t_refqty_set?8?0?5@ 000000018002d078     funcs.obj
 0002:000090b8       ??_C@_0DI@NILJEPFH@in?5method?5?8func_t_refqty_set?8?0?5@ 000000018002d0b8     funcs.obj
 0002:000090f0       ??_C@_0DN@FECDLAPI@in?5method?5?8func_t_refqty_get?8?0?5@ 000000018002d0f0     funcs.obj
 0002:00009130       ??_C@_0DP@DOOMCIKI@in?5method?5?8func_t_referers_set?8@ 000000018002d130     funcs.obj
 0002:00009170       ??_C@_0DN@DFKNGMBN@in?5method?5?8func_t_referers_set?8@ 000000018002d170     funcs.obj
 0002:000091b0       ??_C@_0DP@OHPNBCGD@in?5method?5?8func_t_referers_get?8@ 000000018002d1b0     funcs.obj
 0002:000091f0       ??_C@_0DC@PDNKKMCG@in?5method?5?8new_func_t?8?0?5argumen@ 000000018002d1f0     funcs.obj
 0002:00009228       ??_C@_0DC@KAEAPHKC@in?5method?5?8new_func_t?8?0?5argumen@ 000000018002d228     funcs.obj
 0002:00009260       ??_C@_0DF@JKOMAHDK@in?5method?5?8new_func_t?8?0?5argumen@ 000000018002d260     funcs.obj
 0002:000092a0       ??_C@_0EB@KIDIEFFK@in?5method?5?8func_t___get_points_@ 000000018002d2a0     funcs.obj
 0002:000092f0       ??_C@_0EC@DLOKKAIA@in?5method?5?8func_t___get_regvars@ 000000018002d2f0     funcs.obj
 0002:00009340       ??_C@_0EA@MKGLAOFO@in?5method?5?8func_t___get_tails__@ 000000018002d340     funcs.obj
 0002:00009380       ??_C@_0DJ@DJNDGOAD@in?5method?5?8delete_func_t?8?0?5argu@ 000000018002d380     funcs.obj
 0002:000093c0       ??_C@_0DP@IAFEPHMJ@in?5method?5?8is_func_entry?8?0?5argu@ 000000018002d3c0     funcs.obj
 0002:00009400       ??_C@_0DO@PGGECCHA@in?5method?5?8is_func_tail?8?0?5argum@ 000000018002d400     funcs.obj
 0002:00009440       ??_C@_0EB@GPDALAFH@in?5method?5?8lock_func_range?8?0?5ar@ 000000018002d440     funcs.obj
 0002:00009488       ??_C@_0DH@BIEIHJJL@in?5method?5?8lock_func_range?8?0?5ar@ 000000018002d488     funcs.obj
 0002:000094c0       ??_C@_0DP@BEEDOECF@in?5method?5?8new_lock_func?8?0?5argu@ 000000018002d4c0     funcs.obj
 0002:00009500       ??_C@_0DP@JAAMJLEJ@in?5method?5?8delete_lock_func?8?0?5a@ 000000018002d500     funcs.obj
 0002:00009540       ??_C@_0EA@KOJAJDPA@in?5method?5?8is_func_locked?8?0?5arg@ 000000018002d540     funcs.obj
 0002:00009580       ??_C@_0DA@KCEOMMGG@in?5method?5?8get_func?8?0?5argument?5@ 000000018002d580     funcs.obj
 0002:000095b0       ??_C@_0DN@DCKIDGAB@in?5method?5?8get_func_chunknum?8?0?5@ 000000018002d5b0     funcs.obj
 0002:000095f0       ??_C@_0DJ@EBNFMFMA@in?5method?5?8get_func_chunknum?8?0?5@ 000000018002d5f0     funcs.obj
 0002:00009630       ??_C@_0DJ@DDFLKALA@in?5method?5?8func_contains?8?0?5argu@ 000000018002d630     funcs.obj
 0002:00009670       ??_C@_0DF@EAFINIKL@in?5method?5?8func_contains?8?0?5argu@ 000000018002d670     funcs.obj
 0002:000096a8       ??_C@_0DE@OKPFPLPG@in?5method?5?8is_same_func?8?0?5argum@ 000000018002d6a8     funcs.obj
 0002:000096e0       ??_C@_0DE@LJGPKAHC@in?5method?5?8is_same_func?8?0?5argum@ 000000018002d6e0     funcs.obj
 0002:00009718       ??_C@_0DD@IILFCCEJ@in?5method?5?8getn_func?8?0?5argument@ 000000018002d718     funcs.obj
 0002:00009750       ??_C@_0DE@IKNILNBD@in?5method?5?8get_func_num?8?0?5argum@ 000000018002d750     funcs.obj
 0002:00009788       ??_C@_0DF@BOCCIHGK@in?5method?5?8get_prev_func?8?0?5argu@ 000000018002d788     funcs.obj
 0002:000097c0       ??_C@_0DF@KJKDMNJM@in?5method?5?8get_next_func?8?0?5argu@ 000000018002d7c0     funcs.obj
 0002:000097f8       ??_C@_0DP@ENFAAPDG@in?5method?5?8get_func_ranges?8?0?5ar@ 000000018002d7f8     funcs.obj
 0002:00009838       ??_C@_0DL@DNGGKMDG@in?5method?5?8get_func_ranges?8?0?5ar@ 000000018002d838     funcs.obj
 0002:00009878       ??_C@_0DO@GKMILEHB@in?5method?5?8get_func_cmt?8?0?5argum@ 000000018002d878     funcs.obj
 0002:000098b8       ??_C@_0DE@JADAIICD@in?5method?5?8get_func_cmt?8?0?5argum@ 000000018002d8b8     funcs.obj
 0002:000098f0       ??_C@_0DO@FCLBFKIH@in?5method?5?8set_func_cmt?8?0?5argum@ 000000018002d8f0     funcs.obj
 0002:00009930       ??_C@_0DM@BKMPAECG@in?5method?5?8set_func_cmt?8?0?5argum@ 000000018002d930     funcs.obj
 0002:00009970       ??_C@_0DE@NMHNPODN@in?5method?5?8set_func_cmt?8?0?5argum@ 000000018002d970     funcs.obj
 0002:000099a8       ??_C@_0DH@FBNDKIHB@in?5method?5?8update_func?8?0?5argume@ 000000018002d9a8     funcs.obj
 0002:000099e0       ??_C@_0DH@MOOPNIJL@in?5method?5?8add_func_ex?8?0?5argume@ 000000018002d9e0     funcs.obj
 0002:00009a18       ??_C@_0DA@MMAGCCHI@in?5method?5?8add_func?8?0?5argument?5@ 000000018002da18     funcs.obj
 0002:00009a48       ??_C@_0DA@JPJMHJPM@in?5method?5?8add_func?8?0?5argument?5@ 000000018002da48     funcs.obj
 0002:00009a78       ??_C@_0DA@HNJABGEI@in?5method?5?8del_func?8?0?5argument?5@ 000000018002da78     funcs.obj
 0002:00009aa8       ??_C@_0DG@GLHNKADN@in?5method?5?8set_func_start?8?0?5arg@ 000000018002daa8     funcs.obj
 0002:00009ae0       ??_C@_0DG@DIOHPLLJ@in?5method?5?8set_func_start?8?0?5arg@ 000000018002dae0     funcs.obj
 0002:00009b18       ??_C@_0DE@GCOBPIAE@in?5method?5?8set_func_end?8?0?5argum@ 000000018002db18     funcs.obj
 0002:00009b50       ??_C@_0DE@DBHLKDIA@in?5method?5?8set_func_end?8?0?5argum@ 000000018002db50     funcs.obj
 0002:00009b88       ??_C@_0DO@MEPBJKNK@in?5method?5?8reanalyze_function?8?0@ 000000018002db88     funcs.obj
 0002:00009bc8       ??_C@_0DK@EECBBJE@in?5method?5?8reanalyze_function?8?0@ 000000018002dbc8     funcs.obj
 0002:00009c08       ??_C@_0DK@IDOENKNH@in?5method?5?8reanalyze_function?8?0@ 000000018002dc08     funcs.obj
 0002:00009c48       ??_C@_0DK@ODFNCCCM@in?5method?5?8reanalyze_function?8?0@ 000000018002dc48     funcs.obj
 0002:00009c88       ??_C@_0DM@OHOIPLDG@in?5method?5?8find_func_bounds?8?0?5a@ 000000018002dc88     funcs.obj
 0002:00009cc8       ??_C@_0DH@OMKGOADN@in?5method?5?8find_func_bounds?8?0?5a@ 000000018002dcc8     funcs.obj
 0002:00009d00       ??_C@_0DF@NBAKAKDK@in?5method?5?8get_func_name?8?0?5argu@ 000000018002dd00     funcs.obj
 0002:00009d38       ??_C@_0DK@LEAGDCGM@in?5method?5?8calc_func_size?8?0?5arg@ 000000018002dd38     funcs.obj
 0002:00009d80       ??_C@_0EC@CIDHGOGI@in?5method?5?8get_func_bitness?8?0?5a@ 000000018002dd80     funcs.obj
 0002:00009dc8       ??_C@_0DP@CCEIOCDJ@in?5method?5?8get_func_bits?8?0?5argu@ 000000018002ddc8     funcs.obj
 0002:00009e10       ??_C@_0EA@BLLFGIEB@in?5method?5?8get_func_bytes?8?0?5arg@ 000000018002de10     funcs.obj
 0002:00009e50       ??_C@_0DL@MNMDMNFB@in?5method?5?8is_visible_func?8?0?5ar@ 000000018002de50     funcs.obj
 0002:00009e90       ??_C@_0ED@PJHBNGOA@in?5method?5?8is_finally_visible_f@ 000000018002de90     funcs.obj
 0002:00009ed8       ??_C@_0DM@JDHELBDO@in?5method?5?8set_visible_func?8?0?5a@ 000000018002ded8     funcs.obj
 0002:00009f18       ??_C@_0DI@EEIHBFOE@in?5method?5?8set_visible_func?8?0?5a@ 000000018002df18     funcs.obj
 0002:00009f50       ??_C@_0EF@EBAFKNGH@in?5method?5?8set_func_name_if_jum@ 000000018002df50     funcs.obj
 0002:00009fa0       ??_C@_0EJ@PAOLMCP@in?5method?5?8set_func_name_if_jum@ 000000018002dfa0     funcs.obj
 0002:00009ff0       ??_C@_0EC@HMJAGGCK@in?5method?5?8calc_thunk_func_targ@ 000000018002dff0     funcs.obj
 0002:0000a040       ??_C@_0FJ@FIHBJEDL@invalid?5null?5reference?5in?5metho@ 000000018002e040     funcs.obj
 0002:0000a0a0       ??_C@_0DI@BOBGKEOI@in?5method?5?8func_does_return?8?0?5a@ 000000018002e0a0     funcs.obj
 0002:0000a0d8       ??_C@_0DM@BKODFNIJ@in?5method?5?8reanalyze_noret_flag@ 000000018002e0d8     funcs.obj
 0002:0000a118       ??_C@_0DG@GMFDMHPK@in?5method?5?8set_noret_insn?8?0?5arg@ 000000018002e118     funcs.obj
 0002:0000a150       ??_C@_0DG@HPOCBIMO@in?5method?5?8set_noret_insn?8?0?5arg@ 000000018002e150     funcs.obj
 0002:0000a188       ??_C@_0DC@PIMGNJBE@in?5method?5?8get_fchunk?8?0?5argumen@ 000000018002e188     funcs.obj
 0002:0000a1c0       ??_C@_0DC@JNAJDMGI@in?5method?5?8getn_fchunk?8?0?5argume@ 000000018002e1c0     funcs.obj
 0002:0000a1f8       ??_C@_0DG@CJOHBODG@in?5method?5?8get_fchunk_num?8?0?5arg@ 000000018002e1f8     funcs.obj
 0002:0000a230       ??_C@_0DH@LFHNLCGM@in?5method?5?8get_prev_fchunk?8?0?5ar@ 000000018002e230     funcs.obj
 0002:0000a268       ??_C@_0DH@GBJCOLFI@in?5method?5?8get_next_fchunk?8?0?5ar@ 000000018002e268     funcs.obj
 0002:0000a2a0       ??_C@_0DM@BFCLJMEN@in?5method?5?8append_func_tail?8?0?5a@ 000000018002e2a0     funcs.obj
 0002:0000a2e0       ??_C@_0DI@NEOKCFJH@in?5method?5?8append_func_tail?8?0?5a@ 000000018002e2e0     funcs.obj
 0002:0000a318       ??_C@_0DI@FDEMOONE@in?5method?5?8append_func_tail?8?0?5a@ 000000018002e318     funcs.obj
 0002:0000a350       ??_C@_0DM@BCFLFKBC@in?5method?5?8remove_func_tail?8?0?5a@ 000000018002e350     funcs.obj
 0002:0000a390       ??_C@_0DI@KIBJEMEH@in?5method?5?8remove_func_tail?8?0?5a@ 000000018002e390     funcs.obj
 0002:0000a3c8       ??_C@_0DK@NNKJHGGO@in?5method?5?8set_tail_owner?8?0?5arg@ 000000018002e3c8     funcs.obj
 0002:0000a408       ??_C@_0DG@GHKCKOAK@in?5method?5?8set_tail_owner?8?0?5arg@ 000000018002e408     funcs.obj
 0002:0000a440       ??_C@_0FA@FLLNMMGN@in?5method?5?8func_tail_iterator_s@ 000000018002e440     funcs.obj
 0002:0000a490       ??_C@_0EC@OBBKLLGG@in?5method?5?8func_tail_iterator_s@ 000000018002e490     funcs.obj
 0002:0000a4d8       ??_C@_0DO@ICFMLBA@in?5method?5?8func_tail_iterator_s@ 000000018002e4d8     funcs.obj
 0002:0000a520       ??_C@_0FD@LCCGLHHH@in?5method?5?8func_tail_iterator_s@ 000000018002e520     funcs.obj
 0002:0000a580       ??_C@_0EB@GNEFAOCG@in?5method?5?8func_tail_iterator_s@ 000000018002e580     funcs.obj
 0002:0000a5d0       ??_C@_0FE@OLHMKDPA@in?5method?5?8func_parent_iterator@ 000000018002e5d0     funcs.obj
 0002:0000a630       ??_C@_0EE@GFMLCHCI@in?5method?5?8func_parent_iterator@ 000000018002e630     funcs.obj
 0002:0000a680       ??_C@_0FB@EBEBKAIK@in?5method?5?8func_item_iterator_n@ 000000018002e680     funcs.obj
 0002:0000a6e0       ??_C@_0EE@FKCLDKON@in?5method?5?8func_item_iterator_n@ 000000018002e6e0     funcs.obj
 0002:0000a730       ??_C@_0EB@JANIINAK@in?5method?5?8func_item_iterator_n@ 000000018002e730     funcs.obj
 0002:0000a780       ??_C@_0FB@PLCLADEK@in?5method?5?8func_item_iterator_p@ 000000018002e780     funcs.obj
 0002:0000a7e0       ??_C@_0EE@ONKKHABL@in?5method?5?8func_item_iterator_p@ 000000018002e7e0     funcs.obj
 0002:0000a830       ??_C@_0EB@GDFKOAFH@in?5method?5?8func_item_iterator_p@ 000000018002e830     funcs.obj
 0002:0000a880       ??_C@_0FN@LOLPFCGL@in?5method?5?8func_item_iterator_d@ 000000018002e880     funcs.obj
 0002:0000a8e0       ??_C@_0EP@LMAGGFKF@in?5method?5?8func_item_iterator_d@ 000000018002e8e0     funcs.obj
 0002:0000a930       ??_C@_0GC@JNJJBPBO@in?5method?5?8func_item_iterator_d@ 000000018002e930     funcs.obj
 0002:0000a9a0       ??_C@_0FD@HLLEMPPI@in?5method?5?8func_item_iterator_d@ 000000018002e9a0     funcs.obj
 0002:0000aa00       ??_C@_0FC@LMOEHLDL@in?5method?5?8func_item_iterator_d@ 000000018002ea00     funcs.obj
 0002:0000aa60       ??_C@_0FE@MOANCAJN@in?5method?5?8func_item_iterator_d@ 000000018002ea60     funcs.obj
 0002:0000aab8       ??_C@_0DA@FCLHOKAN@in?5method?5?8f_any?8?0?5argument?51?5o@ 000000018002eab8     funcs.obj
 0002:0000aae8       ??_C@_0CP@CFOANPBK@in?5method?5?8f_any?8?0?5argument?52?5o@ 000000018002eae8     funcs.obj
 0002:0000ab20       ??_C@_0EE@OECPKNC@in?5method?5?8new_func_tail_iterat@ 000000018002eb20     funcs.obj
 0002:0000ab70       ??_C@_0EA@DIJEJEKC@in?5method?5?8new_func_tail_iterat@ 000000018002eb70     funcs.obj
 0002:0000abb0       ??_C@_0OH@JJJAPOKH@Wrong?5number?5or?5type?5of?5argumen@ 000000018002ebb0     funcs.obj
 0002:0000aca0       ??_C@_0FF@EMKKLCCA@in?5method?5?8delete_func_tail_ite@ 000000018002eca0     funcs.obj
 0002:0000ad00       ??_C@_0FC@BKEOMLIN@in?5method?5?8func_tail_iterator_t@ 000000018002ed00     funcs.obj
 0002:0000ad60       ??_C@_0EE@NLIDFJHM@in?5method?5?8func_tail_iterator_t@ 000000018002ed60     funcs.obj
 0002:0000adb0       ??_C@_0EA@MNFELJAO@in?5method?5?8func_tail_iterator_t@ 000000018002edb0     funcs.obj
 0002:0000adf0       ??_C@_0FF@HADBFCPH@in?5method?5?8func_tail_iterator_t@ 000000018002edf0     funcs.obj
 0002:0000ae50       ??_C@_0ED@EBPGNKEH@in?5method?5?8func_tail_iterator_t@ 000000018002ee50     funcs.obj
 0002:0000aea0       ??_C@_0FI@GAEBOLBD@in?5method?5?8func_tail_iterator_t@ 000000018002eea0     funcs.obj
 0002:0000af00       ??_C@_0EG@MNJGOIFA@in?5method?5?8func_tail_iterator_t@ 000000018002ef00     funcs.obj
 0002:0000af50       ??_C@_0EG@EKDACDBD@in?5method?5?8func_tail_iterator_t@ 000000018002ef50     funcs.obj
 0002:0000afa0       ??_C@_0FK@GJCBFIJE@in?5method?5?8func_tail_iterator_t@ 000000018002efa0     funcs.obj
 0002:0000b000       ??_C@_0FE@EFACMBHO@in?5method?5?8func_tail_iterator_t@ 000000018002f000     funcs.obj
 0002:0000b060       ??_C@_0FD@DLOBKOKO@in?5method?5?8func_tail_iterator_t@ 000000018002f060     funcs.obj
 0002:0000b0c0       ??_C@_0FD@OCMEDIKE@in?5method?5?8func_tail_iterator_t@ 000000018002f0c0     funcs.obj
 0002:0000b120       ??_C@_0FD@FIKOJLGE@in?5method?5?8func_tail_iterator_t@ 000000018002f120     funcs.obj
 0002:0000b180       ??_C@_0FD@CNCHMMGC@in?5method?5?8func_tail_iterator_t@ 000000018002f180     funcs.obj
 0002:0000b1e0       ??_C@_0EE@GHJABNGD@in?5method?5?8new_func_item_iterat@ 000000018002f1e0     funcs.obj
 0002:0000b230       ??_C@_0EA@NNPBOIPH@in?5method?5?8new_func_item_iterat@ 000000018002f230     funcs.obj
 0002:0000b270       ??_C@_0OH@GKIOGMOD@Wrong?5number?5or?5type?5of?5argumen@ 000000018002f270     funcs.obj
 0002:0000b360       ??_C@_0FC@DDGBKCBN@in?5method?5?8func_item_iterator_t@ 000000018002f360     funcs.obj
 0002:0000b3c0       ??_C@_0EE@FFIAMIMH@in?5method?5?8func_item_iterator_t@ 000000018002f3c0     funcs.obj
 0002:0000b410       ??_C@_0EA@KEIGFOLP@in?5method?5?8func_item_iterator_t@ 000000018002f410     funcs.obj
 0002:0000b450       ??_C@_0FI@FJCHCJHN@in?5method?5?8func_item_iterator_t@ 000000018002f450     funcs.obj
 0002:0000b4b0       ??_C@_0EG@ENKPLCPC@in?5method?5?8func_item_iterator_t@ 000000018002f4b0     funcs.obj
 0002:0000b500       ??_C@_0EG@MKAJHJLB@in?5method?5?8func_item_iterator_t@ 000000018002f500     funcs.obj
 0002:0000b550       ??_C@_0FE@PCIPJFLO@in?5method?5?8func_item_iterator_t@ 000000018002f550     funcs.obj
 0002:0000b5b0       ??_C@_0FD@POIHNEPI@in?5method?5?8func_item_iterator_t@ 000000018002f5b0     funcs.obj
 0002:0000b610       ??_C@_0FM@ONAICEHM@in?5method?5?8func_item_iterator_t@ 000000018002f610     funcs.obj
 0002:0000b670       ??_C@_0FK@GKHIKJFI@in?5method?5?8func_item_iterator_t@ 000000018002f670     funcs.obj
 0002:0000b6d0       ??_C@_0FD@CHKCECPC@in?5method?5?8func_item_iterator_t@ 000000018002f6d0     funcs.obj
 0002:0000b730       ??_C@_0EG@KKDILCOC@in?5method?5?8func_item_iterator_t@ 000000018002f730     funcs.obj
 0002:0000b780       ??_C@_0ED@LNBKEKAL@in?5method?5?8func_item_iterator_t@ 000000018002f780     funcs.obj
 0002:0000b7d0       ??_C@_0FD@JNMIOBDC@in?5method?5?8func_item_iterator_t@ 000000018002f7d0     funcs.obj
 0002:0000b830       ??_C@_0EG@BNLJPIBE@in?5method?5?8func_item_iterator_t@ 000000018002f830     funcs.obj
 0002:0000b880       ??_C@_0ED@EOJICHFG@in?5method?5?8func_item_iterator_t@ 000000018002f880     funcs.obj
 0002:0000b8d0       ??_C@_0FI@MIEHNPAA@in?5method?5?8func_item_iterator_t@ 000000018002f8d0     funcs.obj
 0002:0000b930       ??_C@_0FI@FOPJIEKJ@in?5method?5?8func_item_iterator_t@ 000000018002f930     funcs.obj
 0002:0000b990       ??_C@_0FI@PHCOIPGN@in?5method?5?8func_item_iterator_t@ 000000018002f990     funcs.obj
 0002:0000b9f0       ??_C@_0FI@NGJHLCPA@in?5method?5?8func_item_iterator_t@ 000000018002f9f0     funcs.obj
 0002:0000ba50       ??_C@_0FM@JKHAPHHB@in?5method?5?8func_item_iterator_t@ 000000018002fa50     funcs.obj
 0002:0000bab0       ??_C@_0FI@CFOGIJPE@in?5method?5?8func_item_iterator_t@ 000000018002fab0     funcs.obj
 0002:0000bb10       ??_C@_0FI@LDFINCFN@in?5method?5?8func_item_iterator_t@ 000000018002fb10     funcs.obj
 0002:0000bb70       ??_C@_0FI@BKIPNJJJ@in?5method?5?8func_item_iterator_t@ 000000018002fb70     funcs.obj
 0002:0000bbd0       ??_C@_0FI@DLDGOEAE@in?5method?5?8func_item_iterator_t@ 000000018002fbd0     funcs.obj
 0002:0000bc30       ??_C@_0FM@JCOCDHOO@in?5method?5?8func_item_iterator_t@ 000000018002fc30     funcs.obj
 0002:0000bc90       ??_C@_0FP@BAAMPBFL@in?5method?5?8func_item_iterator_t@ 000000018002fc90     funcs.obj
 0002:0000bcf0       ??_C@_0FB@LAAKLCGI@in?5method?5?8func_item_iterator_t@ 000000018002fcf0     funcs.obj
 0002:0000bd50       ??_C@_0GE@JEPKMAFN@in?5method?5?8func_item_iterator_t@ 000000018002fd50     funcs.obj
 0002:0000bdc0       ??_C@_0FF@NCFGNJLB@in?5method?5?8func_item_iterator_t@ 000000018002fdc0     funcs.obj
 0002:0000be20       ??_C@_0FE@OCFMGBNH@in?5method?5?8func_item_iterator_t@ 000000018002fe20     funcs.obj
 0002:0000be80       ??_C@_0FG@MBKEDLLP@in?5method?5?8func_item_iterator_t@ 000000018002fe80     funcs.obj
 0002:0000bee0       ??_C@_0FF@GELEGNNF@in?5method?5?8delete_func_item_ite@ 000000018002fee0     funcs.obj
 0002:0000bf40       ??_C@_0EG@OEDKPFKC@in?5method?5?8new_func_parent_iter@ 000000018002ff40     funcs.obj
 0002:0000bf90       ??_C@_0OM@KHHMPCCE@Wrong?5number?5or?5type?5of?5argumen@ 000000018002ff90     funcs.obj
 0002:0000c080       ??_C@_0FJ@HFEDKNPF@in?5method?5?8delete_func_parent_i@ 0000000180030080     funcs.obj
 0002:0000c0e0       ??_C@_0FG@FGHMLBHB@in?5method?5?8func_parent_iterator@ 00000001800300e0     funcs.obj
 0002:0000c140       ??_C@_0EG@EMMAGAEJ@in?5method?5?8func_parent_iterator@ 0000000180030140     funcs.obj
 0002:0000c190       ??_C@_0FP@JDCFCMBI@in?5method?5?8func_parent_iterator@ 0000000180030190     funcs.obj
 0002:0000c1f0       ??_C@_0FI@LFGDEENK@in?5method?5?8func_parent_iterator@ 00000001800301f0     funcs.obj
 0002:0000c250       ??_C@_0FH@KOKGPOA@in?5method?5?8func_parent_iterator@ 0000000180030250     funcs.obj
 0002:0000c2b0       ??_C@_0FH@OJGJGIDO@in?5method?5?8func_parent_iterator@ 00000001800302b0     funcs.obj
 0002:0000c310       ??_C@_0FH@GNEMPHEI@in?5method?5?8func_parent_iterator@ 0000000180030310     funcs.obj
 0002:0000c370       ??_C@_0FM@ENPICIBL@in?5method?5?8func_parent_iterator@ 0000000180030370     funcs.obj
 0002:0000c3d0       ??_C@_0EM@NIOLPJOM@in?5method?5?8func_parent_iterator@ 00000001800303d0     funcs.obj
 0002:0000c420       ??_C@_0DO@JOKENDFE@in?5method?5?8get_prev_func_addr?8?0@ 0000000180030420     funcs.obj
 0002:0000c460       ??_C@_0DK@IBCMLMBE@in?5method?5?8get_prev_func_addr?8?0@ 0000000180030460     funcs.obj
 0002:0000c4a0       ??_C@_0DO@OKLLHFOK@in?5method?5?8get_next_func_addr?8?0@ 00000001800304a0     funcs.obj
 0002:0000c4e0       ??_C@_0DK@PJICOIHI@in?5method?5?8get_next_func_addr?8?0@ 00000001800304e0     funcs.obj
 0002:0000c520       ??_C@_0DI@OFLNCKOG@in?5method?5?8read_regargs?8?0?5argum@ 0000000180030520     funcs.obj
 0002:0000c558       ??_C@_0DG@IMMGACLN@in?5method?5?8add_regarg?8?0?5argumen@ 0000000180030558     funcs.obj
 0002:0000c590       ??_C@_0DB@CFJCGNJM@in?5method?5?8add_regarg?8?0?5argumen@ 0000000180030590     funcs.obj
 0002:0000c5c8       ??_C@_0DN@OPGAIOFD@in?5method?5?8add_regarg?8?0?5argumen@ 00000001800305c8     funcs.obj
 0002:0000c610       ??_C@_0FE@FNJDAEKF@invalid?5null?5reference?5in?5metho@ 0000000180030610     funcs.obj
 0002:0000c668       ??_C@_0DK@PKBKKJKJ@in?5method?5?8add_regarg?8?0?5argumen@ 0000000180030668     funcs.obj
 0002:0000c6b0       ??_C@_0EE@MGDHJGJG@in?5method?5?8plan_to_apply_idasgn@ 00000001800306b0     funcs.obj
 0002:0000c6f8       ??_C@_0DP@GMHDCMGE@in?5method?5?8apply_idasgn_to?8?0?5ar@ 00000001800306f8     funcs.obj
 0002:0000c738       ??_C@_0DH@HMEJDHFE@in?5method?5?8apply_idasgn_to?8?0?5ar@ 0000000180030738     funcs.obj
 0002:0000c770       ??_C@_0DH@LLMEHIKH@in?5method?5?8apply_idasgn_to?8?0?5ar@ 0000000180030770     funcs.obj
 0002:0000c7a8       ??_C@_0DI@JIJBEFDB@in?5method?5?8calc_idasgn_state?8?0?5@ 00000001800307a8     funcs.obj
 0002:0000c7e0       ??_C@_0DB@GBLJIOCM@in?5method?5?8del_idasgn?8?0?5argumen@ 00000001800307e0     funcs.obj
 0002:0000c820       ??_C@_0EA@NFCEJGKJ@in?5method?5?8get_idasgn_title?8?0?5a@ 0000000180030820     funcs.obj
 0002:0000c860       ??_C@_0DJ@MJPKLCNL@in?5method?5?8apply_startup_sig?8?0?5@ 0000000180030860     funcs.obj
 0002:0000c8a0       ??_C@_0EB@HIDPJIPI@in?5method?5?8apply_startup_sig?8?0?5@ 00000001800308a0     funcs.obj
 0002:0000c8e8       ??_C@_0DK@PNPPMGJK@in?5method?5?8try_to_add_libfunc?8?0@ 00000001800308e8     funcs.obj
 0002:0000c928       ??_C@_0DK@JCPEFJPG@in?5method?5?8get_fchunk_referer?8?0@ 0000000180030928     funcs.obj
 0002:0000c968       ??_C@_0DM@FHGLBNNA@in?5method?5?8get_fchunk_referer?8?0@ 0000000180030968     funcs.obj
 0002:0000c9a8       ??_C@_0DG@NPBGBHB@in?5method?5?8get_idasgn_desc?8?0?5ar@ 00000001800309a8     funcs.obj
 0002:0000c9e0       ??_C@_0ED@HNGCJNCC@in?5method?5?8get_idasgn_desc_with@ 00000001800309e0     funcs.obj
 0002:0000ca28       ??_C@_0L@OAHKPNBM@_ida_funcs@ 0000000180030a28     funcs.obj
 0002:0000cc80       ??_C@_0L@LHBEOAKA@FUNC_NORET@ 0000000180030c80     funcs.obj
 0002:0000cc90       ??_C@_08MJKJJNEC@FUNC_FAR@ 0000000180030c90     funcs.obj
 0002:0000cca0       ??_C@_08OCMFDOMP@FUNC_LIB@ 0000000180030ca0     funcs.obj
 0002:0000ccb0       ??_C@_0P@DEGFBEIH@FUNC_STATICDEF@ 0000000180030cb0     funcs.obj
 0002:0000ccc0       ??_C@_0L@NMFBLLCH@FUNC_FRAME@ 0000000180030cc0     funcs.obj
 0002:0000ccd0       ??_C@_0N@EAHEAMMG@FUNC_USERFAR@ 0000000180030cd0     funcs.obj
 0002:0000cce0       ??_C@_0M@EHOKMPKE@FUNC_HIDDEN@ 0000000180030ce0     funcs.obj
 0002:0000ccf0       ??_C@_0L@PLKBMEIL@FUNC_THUNK@ 0000000180030cf0     funcs.obj
 0002:0000cd00       ??_C@_0O@GHFJEPNP@FUNC_BOTTOMBP@ 0000000180030d00     funcs.obj
 0002:0000cd10       ??_C@_0BD@MGLCAJIH@FUNC_NORET_PENDING@ 0000000180030d10     funcs.obj
 0002:0000cd28       ??_C@_0O@HIAOONGP@FUNC_SP_READY@ 0000000180030d28     funcs.obj
 0002:0000cd38       ??_C@_0O@LFKPBNGM@FUNC_FUZZY_SP@ 0000000180030d38     funcs.obj
 0002:0000cd48       ??_C@_0P@PBALHIEN@FUNC_PROLOG_OK@ 0000000180030d48     funcs.obj
 0002:0000cd58       ??_C@_0P@JGOIDMDC@FUNC_PURGED_OK@ 0000000180030d58     funcs.obj
 0002:0000cd68       ??_C@_09MOIEABFL@FUNC_TAIL@ 0000000180030d68     funcs.obj
 0002:0000cd78       ??_C@_0M@LDAGGANF@FUNC_LUMINA@ 0000000180030d78     funcs.obj
 0002:0000cd88       ??_C@_0N@ECJFDCDF@MOVE_FUNC_OK@ 0000000180030d88     funcs.obj
 0002:0000cd98       ??_C@_0BB@GPKBNKIC@MOVE_FUNC_NOCODE@ 0000000180030d98     funcs.obj
 0002:0000cdb0       ??_C@_0BD@HDNDNBLB@MOVE_FUNC_BADSTART@ 0000000180030db0     funcs.obj
 0002:0000cdc8       ??_C@_0BB@MDCIMAFJ@MOVE_FUNC_NOFUNC@ 0000000180030dc8     funcs.obj
 0002:0000cde0       ??_C@_0BC@KPPLMDEL@MOVE_FUNC_REFUSED@ 0000000180030de0     funcs.obj
 0002:0000cdf8       ??_C@_0BB@LPNOBKNJ@FIND_FUNC_NORMAL@ 0000000180030df8     funcs.obj
 0002:0000ce10       ??_C@_0BB@HKKJDMJA@FIND_FUNC_DEFINE@ 0000000180030e10     funcs.obj
 0002:0000ce28       ??_C@_0BD@LHAPCIBO@FIND_FUNC_IGNOREFN@ 0000000180030e28     funcs.obj
 0002:0000ce40       ??_C@_0BB@PGFBOGJJ@FIND_FUNC_KEEPBD@ 0000000180030e40     funcs.obj
 0002:0000ce58       ??_C@_0BA@BBEANGFM@FIND_FUNC_UNDEF@ 0000000180030e58     funcs.obj
 0002:0000ce68       ??_C@_0N@LBJGGGMG@FIND_FUNC_OK@ 0000000180030e68     funcs.obj
 0002:0000ce78       ??_C@_0BA@GPADMBCJ@FIND_FUNC_EXIST@ 0000000180030e78     funcs.obj
 0002:0000ce88       ??_C@_09EBFEHIK@IDASGN_OK@ 0000000180030e88     funcs.obj
 0002:0000ce98       ??_C@_0O@FJHOEPHM@IDASGN_BADARG@ 0000000180030e98     funcs.obj
 0002:0000cea8       ??_C@_0P@GGJCNJAM@IDASGN_APPLIED@ 0000000180030ea8     funcs.obj
 0002:0000ceb8       ??_C@_0P@OINGDLDG@IDASGN_CURRENT@ 0000000180030eb8     funcs.obj
 0002:0000cec8       ??_C@_0P@FJGAKEOE@IDASGN_PLANNED@ 0000000180030ec8     funcs.obj
 0002:0000ced8       ??_C@_0O@LHDHLLBP@LIBFUNC_FOUND@ 0000000180030ed8     funcs.obj
 0002:0000cee8       ??_C@_0N@DIKBHPGM@LIBFUNC_NONE@ 0000000180030ee8     funcs.obj
 0002:0000cef8       ??_C@_0O@GJGODBIB@LIBFUNC_DELAY@ 0000000180030ef8     funcs.obj
 0002:0000cf06       ?nullstr@?1??c_str@?$_qstring@D@@QEBAPEBDXZ@4QBDB 0000000180030f06     funcs.obj
 0002:0000cf30       ??_C@_1EC@JIJBPKFM@?$AAa?$AAp?$AAi?$AA?9?$AAm?$AAs?$AA?9?$AAw?$AAi?$AAn?$AA?9?$AAc?$AAo?$AAr?$AAe@ 0000000180030f30     MSVCRT:thread_safe_statics.obj
 0002:0000cf78       ??_C@_1BK@MGMFAEKH@?$AAk?$AAe?$AAr?$AAn?$AAe?$AAl?$AA3?$AA2?$AA?4?$AAd?$AAl?$AAl@ 0000000180030f78     MSVCRT:thread_safe_statics.obj
 0002:0000cf98       ??_C@_0BM@HLJJNPAH@InitializeConditionVariable@ 0000000180030f98     MSVCRT:thread_safe_statics.obj
 0002:0000cfb8       ??_C@_0BJ@JEBJOJFJ@SleepConditionVariableCS@ 0000000180030fb8     MSVCRT:thread_safe_statics.obj
 0002:0000cfd8       ??_C@_0BJ@PGPPEPCC@WakeAllConditionVariable@ 0000000180030fd8     MSVCRT:thread_safe_statics.obj
 0002:0000d000       ??_7type_info@@6B@         0000000180031000     MSVCRT:std_type_info_static.obj
 0002:0000d008       _pRawDllMain               0000000180031008     MSVCRT:dll_dllmain.obj
 0002:0000d008       _pDefaultRawDllMain        0000000180031008     MSVCRT:dll_dllmain.obj
 0002:0000d018       ??_7bad_alloc@std@@6B@     0000000180031018     MSVCRT:throw_bad_alloc.obj
 0002:0000d028       ??_C@_0P@GHFPNOJB@bad?5allocation@ 0000000180031028     MSVCRT:throw_bad_alloc.obj
 0002:0000d040       ??_7bad_array_new_length@std@@6B@ 0000000180031040     MSVCRT:throw_bad_alloc.obj
 0002:0000d050       ??_C@_0BF@KINCDENJ@bad?5array?5new?5length@ 0000000180031050     MSVCRT:throw_bad_alloc.obj
 0002:0000d0e0       _load_config_used          00000001800310e0     MSVCRT:loadcfg.obj
 0002:0000d1e0       _tls_used                  00000001800311e0     MSVCRT:tlssup.obj
 0002:0000d208       ??_R4exception@std@@6B@    0000000180031208     funcs.obj
 0002:0000d230       ??_R3exception@std@@8      0000000180031230     funcs.obj
 0002:0000d248       ??_R2exception@std@@8      0000000180031248     funcs.obj
 0002:0000d258       ??_R1A@?0A@EA@exception@std@@8 0000000180031258     funcs.obj
 0002:0000d280       ??_R4logic_error@std@@6B@  0000000180031280     funcs.obj
 0002:0000d2a8       ??_R3logic_error@std@@8    00000001800312a8     funcs.obj
 0002:0000d2c0       ??_R2logic_error@std@@8    00000001800312c0     funcs.obj
 0002:0000d2d8       ??_R1A@?0A@EA@logic_error@std@@8 00000001800312d8     funcs.obj
 0002:0000d300       ??_R4out_of_range@std@@6B@ 0000000180031300     funcs.obj
 0002:0000d328       ??_R3out_of_range@std@@8   0000000180031328     funcs.obj
 0002:0000d340       ??_R2out_of_range@std@@8   0000000180031340     funcs.obj
 0002:0000d360       ??_R1A@?0A@EA@out_of_range@std@@8 0000000180031360     funcs.obj
 0002:0000d388       ??_R4type_info@@6B@        0000000180031388     MSVCRT:std_type_info_static.obj
 0002:0000d3b0       ??_R3type_info@@8          00000001800313b0     MSVCRT:std_type_info_static.obj
 0002:0000d3c8       ??_R2type_info@@8          00000001800313c8     MSVCRT:std_type_info_static.obj
 0002:0000d3d8       ??_R1A@?0A@EA@type_info@@8 00000001800313d8     MSVCRT:std_type_info_static.obj
 0002:0000d400       ??_R4bad_alloc@std@@6B@    0000000180031400     MSVCRT:throw_bad_alloc.obj
 0002:0000d428       ??_R3bad_alloc@std@@8      0000000180031428     MSVCRT:throw_bad_alloc.obj
 0002:0000d440       ??_R2bad_alloc@std@@8      0000000180031440     MSVCRT:throw_bad_alloc.obj
 0002:0000d458       ??_R1A@?0A@EA@bad_alloc@std@@8 0000000180031458     MSVCRT:throw_bad_alloc.obj
 0002:0000d480       ??_R4bad_array_new_length@std@@6B@ 0000000180031480     MSVCRT:throw_bad_alloc.obj
 0002:0000d4a8       ??_R3bad_array_new_length@std@@8 00000001800314a8     MSVCRT:throw_bad_alloc.obj
 0002:0000d4c0       ??_R2bad_array_new_length@std@@8 00000001800314c0     MSVCRT:throw_bad_alloc.obj
 0002:0000d4e0       ??_R1A@?0A@EA@bad_array_new_length@std@@8 00000001800314e0     MSVCRT:throw_bad_alloc.obj
 0002:0000d818       __rtc_iaa                  0000000180031818     MSVCRT:initsect.obj
 0002:0000d820       __rtc_izz                  0000000180031820     MSVCRT:initsect.obj
 0002:0000d828       __rtc_taa                  0000000180031828     MSVCRT:initsect.obj
 0002:0000d830       __rtc_tzz                  0000000180031830     MSVCRT:initsect.obj
 0002:0000d838       _tls_start                 0000000180031838     MSVCRT:tlssup.obj
 0002:0000d83c       _Init_thread_epoch         000000018003183c     MSVCRT:thread_safe_statics.obj
 0002:0000d840       _tls_end                   0000000180031840     MSVCRT:tlssup.obj
 0002:00016338       _CT??_R0?AVexception@std@@@8??0exception@std@@QEAA@AEBV01@@Z24 000000018003a338     funcs.obj
 0002:00016360       _TI3?AVout_of_range@std@@  000000018003a360     funcs.obj
 0002:00016380       _CTA3?AVout_of_range@std@@ 000000018003a380     funcs.obj
 0002:000163a0       _CT??_R0?AVout_of_range@std@@@8??0out_of_range@std@@QEAA@AEBV01@@Z24 000000018003a3a0     funcs.obj
 0002:000163c8       _CT??_R0?AVlogic_error@std@@@8??0logic_error@std@@QEAA@AEBV01@@Z24 000000018003a3c8     funcs.obj
 0002:000163f0       _TI2?AVbad_alloc@std@@     000000018003a3f0     MSVCRT:throw_bad_alloc.obj
 0002:00016410       _CTA2?AVbad_alloc@std@@    000000018003a410     MSVCRT:throw_bad_alloc.obj
 0002:00016428       _CT??_R0?AVbad_alloc@std@@@8??0bad_alloc@std@@QEAA@AEBV01@@Z24 000000018003a428     MSVCRT:throw_bad_alloc.obj
 0002:00016450       _TI3?AVbad_array_new_length@std@@ 000000018003a450     MSVCRT:throw_bad_alloc.obj
 0002:00016470       _CTA3?AVbad_array_new_length@std@@ 000000018003a470     MSVCRT:throw_bad_alloc.obj
 0002:00016490       _CT??_R0?AVbad_array_new_length@std@@@8??0bad_array_new_length@std@@QEAA@AEBV01@@Z24 000000018003a490     MSVCRT:throw_bad_alloc.obj
 0002:00016514       __IMPORT_DESCRIPTOR_ida    000000018003a514     ida:ida.dll
 0002:00016528       __IMPORT_DESCRIPTOR_python38 000000018003a528     python38:python38.dll
 0002:0001653c       __IMPORT_DESCRIPTOR_python 000000018003a53c     python:python.dll
 0002:00016550       __IMPORT_DESCRIPTOR_KERNEL32 000000018003a550     kernel32:KERNEL32.dll
 0002:00016564       __IMPORT_DESCRIPTOR_VCRUNTIME140 000000018003a564     vcruntime:VCRUNTIME140.dll
 0002:00016578       __IMPORT_DESCRIPTOR_api-ms-win-crt-stdio-l1-1-0 000000018003a578     ucrt:api-ms-win-crt-stdio-l1-1-0.dll
 0002:0001658c       __IMPORT_DESCRIPTOR_api-ms-win-crt-string-l1-1-0 000000018003a58c     ucrt:api-ms-win-crt-string-l1-1-0.dll
 0002:000165a0       __IMPORT_DESCRIPTOR_api-ms-win-crt-heap-l1-1-0 000000018003a5a0     ucrt:api-ms-win-crt-heap-l1-1-0.dll
 0002:000165b4       __IMPORT_DESCRIPTOR_api-ms-win-crt-runtime-l1-1-0 000000018003a5b4     ucrt:api-ms-win-crt-runtime-l1-1-0.dll
 0002:000165c8       __NULL_IMPORT_DESCRIPTOR   000000018003a5c8     ida:ida.dll
 0003:00004788       _Init_global_epoch         0000000180040788     MSVCRT:thread_safe_statics.obj
 0003:00004790       __security_cookie_complement 0000000180040790     MSVCRT:gs_cookie.obj
 0003:00004798       __security_cookie          0000000180040798     MSVCRT:gs_cookie.obj
 0003:000047a0       __scrt_native_dllmain_reason 00000001800407a0     MSVCRT:utility.obj
 0003:000047a8       __isa_available            00000001800407a8     MSVCRT:cpu_disp.obj
 0003:000047ac       __isa_enabled              00000001800407ac     MSVCRT:cpu_disp.obj
 0003:000047b0       __memcpy_nt_iters          00000001800407b0     MSVCRT:cpu_disp.obj
 0003:000047c0       __scrt_ucrt_dll_is_in_use  00000001800407c0     MSVCRT:ucrt_stubs.obj
 0003:000047c8       ??_R0?AVexception@std@@@8  00000001800407c8     funcs.obj
 0003:000047f0       ??_R0?AVDirectorException@Swig@@@8 00000001800407f0     funcs.obj
 0003:00004820       ??_R0?AVout_of_range@std@@@8 0000000180040820     funcs.obj
 0003:00004848       ??_R0?AVlogic_error@std@@@8 0000000180040848     funcs.obj
 0003:00004870       ??_R0?AVbad_alloc@std@@@8  0000000180040870     funcs.obj
 0003:00004898       ??_R0?AUinterr_exc_t@@@8   0000000180040898     funcs.obj
 0003:000048c0       ??_R0?AVtype_info@@@8      00000001800408c0     MSVCRT:std_type_info_static.obj
 0003:000048e0       ??_R0?AVbad_array_new_length@std@@@8 00000001800408e0     MSVCRT:throw_bad_alloc.obj
 0003:00004910       ?swig_mutex_own@Director@Swig@@0U_RTL_CRITICAL_SECTION@2@A 0000000180040910     funcs.obj
 0003:00004c28       ?_OptionsStorage@?1??__local_stdio_printf_options@@9@4_KA 0000000180040c28     funcs.obj
 0003:00004cb8       _tls_index                 0000000180040cb8     MSVCRT:tlssup.obj
 0003:00004cc0       __scrt_current_native_startup_state 0000000180040cc0     MSVCRT:utility.obj
 0003:00004cc8       __scrt_native_startup_lock 0000000180040cc8     MSVCRT:utility.obj
 0003:00004d08       __scrt_debugger_hook_flag  0000000180040d08     MSVCRT:utility_desktop.obj
 0003:00005280       ?__type_info_root_node@@3U__type_info_node@@A 0000000180041280     MSVCRT:tncleanup.obj
 0003:00005290       ?_OptionsStorage@?1??__local_stdio_scanf_options@@9@4_KA 0000000180041290     MSVCRT:default_local_stdio_options.obj
 0003:00005298       __favor                    0000000180041298     MSVCRT:cpu_disp.obj
 0003:000052a0       __dyn_tls_init_callback    00000001800412a0     <common>

 entry point at        0001:00016890

 Static symbols

 0000:fffb9000       .debug$S                   0000000180000000     ida:ida.dll
 0000:fffb9000       .debug$S                   0000000180000000     ida:ida.dll
 0000:fffb9000       .debug$S                   0000000180000000     ida:ida.dll
 0000:fffb9000       .debug$S                   0000000180000000     ida:ida.dll
 0000:fffb9000       .debug$S                   0000000180000000     ida:ida.dll
 0000:fffb9000       .debug$S                   0000000180000000     _ida_funcs.exp
 0000:fffb9000       .debug$S                   0000000180000000     ida:ida.dll
 0000:fffb9000       .debug$S                   0000000180000000     ida:ida.dll
 0000:fffb9000       .debug$S                   0000000180000000     ida:ida.dll
 0000:fffb9000       .debug$S                   0000000180000000     ida:ida.dll
 0000:fffb9000       .debug$S                   0000000180000000     ida:ida.dll
 0000:fffb9000       .debug$S                   0000000180000000     ucrt:api-ms-win-crt-runtime-l1-1-0.dll
 0000:fffb9000       .debug$S                   0000000180000000     ucrt:api-ms-win-crt-runtime-l1-1-0.dll
 0000:fffb9000       .debug$S                   0000000180000000     ucrt:api-ms-win-crt-runtime-l1-1-0.dll
 0000:fffb9000       .debug$S                   0000000180000000     ucrt:api-ms-win-crt-runtime-l1-1-0.dll
 0000:fffb9000       .debug$S                   0000000180000000     ucrt:api-ms-win-crt-runtime-l1-1-0.dll
 0000:fffb9000       .debug$S                   0000000180000000     ucrt:api-ms-win-crt-runtime-l1-1-0.dll
 0000:fffb9000       .debug$S                   0000000180000000     ucrt:api-ms-win-crt-runtime-l1-1-0.dll
 0000:fffb9000       .debug$S                   0000000180000000     ucrt:api-ms-win-crt-runtime-l1-1-0.dll
 0000:fffb9000       .debug$S                   0000000180000000     ucrt:api-ms-win-crt-runtime-l1-1-0.dll
 0000:fffb9000       .debug$S                   0000000180000000     ucrt:api-ms-win-crt-runtime-l1-1-0.dll
 0000:fffb9000       .debug$S                   0000000180000000     ucrt:api-ms-win-crt-runtime-l1-1-0.dll
 0000:fffb9000       .debug$S                   0000000180000000     ucrt:api-ms-win-crt-runtime-l1-1-0.dll
 0000:fffb9000       .debug$S                   0000000180000000     ucrt:api-ms-win-crt-heap-l1-1-0.dll
 0000:fffb9000       .debug$S                   0000000180000000     ucrt:api-ms-win-crt-heap-l1-1-0.dll
 0000:fffb9000       .debug$S                   0000000180000000     ucrt:api-ms-win-crt-heap-l1-1-0.dll
 0000:fffb9000       .debug$S                   0000000180000000     ucrt:api-ms-win-crt-string-l1-1-0.dll
 0000:fffb9000       .debug$S                   0000000180000000     ucrt:api-ms-win-crt-string-l1-1-0.dll
 0000:fffb9000       .debug$S                   0000000180000000     ucrt:api-ms-win-crt-stdio-l1-1-0.dll
 0000:fffb9000       .debug$S                   0000000180000000     ucrt:api-ms-win-crt-stdio-l1-1-0.dll
 0000:fffb9000       .debug$S                   0000000180000000     ida:ida.dll
 0000:fffb9000       .debug$S                   0000000180000000     vcruntime:VCRUNTIME140.dll
 0000:fffb9000       .debug$S                   0000000180000000     vcruntime:VCRUNTIME140.dll
 0000:fffb9000       .debug$S                   0000000180000000     vcruntime:VCRUNTIME140.dll
 0000:fffb9000       .debug$S                   0000000180000000     vcruntime:VCRUNTIME140.dll
 0000:fffb9000       .debug$S                   0000000180000000     vcruntime:VCRUNTIME140.dll
 0000:fffb9000       .debug$S                   0000000180000000     vcruntime:VCRUNTIME140.dll
 0000:fffb9000       .debug$S                   0000000180000000     vcruntime:VCRUNTIME140.dll
 0000:fffb9000       .debug$S                   0000000180000000     vcruntime:VCRUNTIME140.dll
 0000:fffb9000       .debug$S                   0000000180000000     vcruntime:VCRUNTIME140.dll
 0000:fffb9000       .debug$S                   0000000180000000     vcruntime:VCRUNTIME140.dll
 0000:fffb9000       .debug$S                   0000000180000000     vcruntime:VCRUNTIME140.dll
 0000:fffb9000       .debug$S                   0000000180000000     ida:ida.dll
 0000:fffb9000       .debug$S                   0000000180000000     kernel32:KERNEL32.dll
 0000:fffb9000       .debug$S                   0000000180000000     kernel32:KERNEL32.dll
 0000:fffb9000       .debug$S                   0000000180000000     kernel32:KERNEL32.dll
 0000:fffb9000       .debug$S                   0000000180000000     kernel32:KERNEL32.dll
 0000:fffb9000       .debug$S                   0000000180000000     kernel32:KERNEL32.dll
 0000:fffb9000       .debug$S                   0000000180000000     kernel32:KERNEL32.dll
 0000:fffb9000       .debug$S                   0000000180000000     kernel32:KERNEL32.dll
 0000:fffb9000       .debug$S                   0000000180000000     kernel32:KERNEL32.dll
 0000:fffb9000       .debug$S                   0000000180000000     kernel32:KERNEL32.dll
 0000:fffb9000       .debug$S                   0000000180000000     kernel32:KERNEL32.dll
 0000:fffb9000       .debug$S                   0000000180000000     kernel32:KERNEL32.dll
 0000:fffb9000       .debug$S                   0000000180000000     kernel32:KERNEL32.dll
 0000:fffb9000       .debug$S                   0000000180000000     kernel32:KERNEL32.dll
 0000:fffb9000       .debug$S                   0000000180000000     kernel32:KERNEL32.dll
 0000:fffb9000       .debug$S                   0000000180000000     kernel32:KERNEL32.dll
 0000:fffb9000       .debug$S                   0000000180000000     kernel32:KERNEL32.dll
 0000:fffb9000       .debug$S                   0000000180000000     kernel32:KERNEL32.dll
 0000:fffb9000       .debug$S                   0000000180000000     kernel32:KERNEL32.dll
 0000:fffb9000       .debug$S                   0000000180000000     kernel32:KERNEL32.dll
 0000:fffb9000       .debug$S                   0000000180000000     kernel32:KERNEL32.dll
 0000:fffb9000       .debug$S                   0000000180000000     kernel32:KERNEL32.dll
 0000:fffb9000       .debug$S                   0000000180000000     kernel32:KERNEL32.dll
 0000:fffb9000       .debug$S                   0000000180000000     kernel32:KERNEL32.dll
 0000:fffb9000       .debug$S                   0000000180000000     kernel32:KERNEL32.dll
 0000:fffb9000       .debug$S                   0000000180000000     kernel32:KERNEL32.dll
 0000:fffb9000       .debug$S                   0000000180000000     kernel32:KERNEL32.dll
 0000:fffb9000       .debug$S                   0000000180000000     kernel32:KERNEL32.dll
 0000:fffb9000       .debug$S                   0000000180000000     ida:ida.dll
 0000:fffb9000       .debug$S                   0000000180000000     ida:ida.dll
 0000:fffb9000       .debug$S                   0000000180000000     ida:ida.dll
 0000:fffb9000       .debug$S                   0000000180000000     ida:ida.dll
 0000:fffb9000       .debug$S                   0000000180000000     ida:ida.dll
 0000:fffb9000       .debug$S                   0000000180000000     ida:ida.dll
 0000:fffb9000       .debug$S                   0000000180000000     ida:ida.dll
 0000:fffb9000       .debug$S                   0000000180000000     ida:ida.dll
 0000:fffb9000       .debug$S                   0000000180000000     ida:ida.dll
 0000:fffb9000       .debug$S                   0000000180000000     ida:ida.dll
 0000:fffb9000       .debug$S                   0000000180000000     ida:ida.dll
 0000:fffb9000       .debug$S                   0000000180000000     ida:ida.dll
 0000:fffb9000       .debug$S                   0000000180000000     ida:ida.dll
 0000:fffb9000       .debug$S                   0000000180000000     ida:ida.dll
 0000:fffb9000       .debug$S                   0000000180000000     ida:ida.dll
 0000:fffb9000       .debug$S                   0000000180000000     ida:ida.dll
 0000:fffb9000       .debug$S                   0000000180000000     ida:ida.dll
 0000:fffb9000       .debug$S                   0000000180000000     ida:ida.dll
 0000:fffb9000       .debug$S                   0000000180000000     ida:ida.dll
 0000:fffb9000       .debug$S                   0000000180000000     ida:ida.dll
 0000:fffb9000       .debug$S                   0000000180000000     ida:ida.dll
 0000:fffb9000       .debug$S                   0000000180000000     ida:ida.dll
 0000:fffb9000       .debug$S                   0000000180000000     ida:ida.dll
 0000:fffb9000       .debug$S                   0000000180000000     ida:ida.dll
 0000:fffb9000       .debug$S                   0000000180000000     ida:ida.dll
 0000:fffb9000       .debug$S                   0000000180000000     ida:ida.dll
 0000:fffb9000       .debug$S                   0000000180000000     ida:ida.dll
 0000:fffb9000       .debug$S                   0000000180000000     ida:ida.dll
 0000:fffb9000       .debug$S                   0000000180000000     ida:ida.dll
 0000:fffb9000       .debug$S                   0000000180000000     ida:ida.dll
 0000:fffb9000       .debug$S                   0000000180000000     ida:ida.dll
 0000:fffb9000       .debug$S                   0000000180000000     ida:ida.dll
 0000:fffb9000       .debug$S                   0000000180000000     ida:ida.dll
 0000:fffb9000       .debug$S                   0000000180000000     ida:ida.dll
 0000:fffb9000       .debug$S                   0000000180000000     ida:ida.dll
 0000:fffb9000       .debug$S                   0000000180000000     ida:ida.dll
 0000:fffb9000       .debug$S                   0000000180000000     ida:ida.dll
 0000:fffb9000       .debug$S                   0000000180000000     ida:ida.dll
 0000:fffb9000       .debug$S                   0000000180000000     ida:ida.dll
 0000:fffb9000       .debug$S                   0000000180000000     ida:ida.dll
 0000:fffb9000       .debug$S                   0000000180000000     python38:python38.dll
 0000:fffb9000       .debug$S                   0000000180000000     ida:ida.dll
 0000:fffb9000       .debug$S                   0000000180000000     ida:ida.dll
 0000:fffb9000       .debug$S                   0000000180000000     ida:ida.dll
 0000:fffb9000       .debug$S                   0000000180000000     ida:ida.dll
 0000:fffb9000       .debug$S                   0000000180000000     ida:ida.dll
 0000:fffb9000       .debug$S                   0000000180000000     ida:ida.dll
 0000:fffb9000       .debug$S                   0000000180000000     ida:ida.dll
 0000:fffb9000       .debug$S                   0000000180000000     ida:ida.dll
 0000:fffb9000       .debug$S                   0000000180000000     ida:ida.dll
 0000:fffb9000       .debug$S                   0000000180000000     ida:ida.dll
 0000:fffb9000       .debug$S                   0000000180000000     ida:ida.dll
 0000:fffb9000       .debug$S                   0000000180000000     ida:ida.dll
 0000:fffb9000       .debug$S                   0000000180000000     python38:python38.dll
 0000:fffb9000       .debug$S                   0000000180000000     python38:python38.dll
 0000:fffb9000       .debug$S                   0000000180000000     python38:python38.dll
 0000:fffb9000       .debug$S                   0000000180000000     python38:python38.dll
 0000:fffb9000       .debug$S                   0000000180000000     python38:python38.dll
 0000:fffb9000       .debug$S                   0000000180000000     python38:python38.dll
 0000:fffb9000       .debug$S                   0000000180000000     python38:python38.dll
 0000:fffb9000       .debug$S                   0000000180000000     python38:python38.dll
 0000:fffb9000       .debug$S                   0000000180000000     python38:python38.dll
 0000:fffb9000       .debug$S                   0000000180000000     python38:python38.dll
 0000:fffb9000       .debug$S                   0000000180000000     python38:python38.dll
 0000:fffb9000       .debug$S                   0000000180000000     python38:python38.dll
 0000:fffb9000       .debug$S                   0000000180000000     python38:python38.dll
 0000:fffb9000       .debug$S                   0000000180000000     python38:python38.dll
 0000:fffb9000       .debug$S                   0000000180000000     python38:python38.dll
 0000:fffb9000       .debug$S                   0000000180000000     python38:python38.dll
 0000:fffb9000       .debug$S                   0000000180000000     python38:python38.dll
 0000:fffb9000       .debug$S                   0000000180000000     python38:python38.dll
 0000:fffb9000       .debug$S                   0000000180000000     python38:python38.dll
 0000:fffb9000       .debug$S                   0000000180000000     python38:python38.dll
 0000:fffb9000       .debug$S                   0000000180000000     python38:python38.dll
 0000:fffb9000       .debug$S                   0000000180000000     python38:python38.dll
 0000:fffb9000       .debug$S                   0000000180000000     python38:python38.dll
 0000:fffb9000       .debug$S                   0000000180000000     python38:python38.dll
 0000:fffb9000       .debug$S                   0000000180000000     python38:python38.dll
 0000:fffb9000       .debug$S                   0000000180000000     python38:python38.dll
 0000:fffb9000       .debug$S                   0000000180000000     python38:python38.dll
 0000:fffb9000       .debug$S                   0000000180000000     python38:python38.dll
 0000:fffb9000       .debug$S                   0000000180000000     python38:python38.dll
 0000:fffb9000       .debug$S                   0000000180000000     python38:python38.dll
 0000:fffb9000       .debug$S                   0000000180000000     python38:python38.dll
 0000:fffb9000       .debug$S                   0000000180000000     python38:python38.dll
 0000:fffb9000       .debug$S                   0000000180000000     python38:python38.dll
 0000:fffb9000       .debug$S                   0000000180000000     python38:python38.dll
 0000:fffb9000       .debug$S                   0000000180000000     python38:python38.dll
 0000:fffb9000       .debug$S                   0000000180000000     python38:python38.dll
 0000:fffb9000       .debug$S                   0000000180000000     python38:python38.dll
 0000:fffb9000       .debug$S                   0000000180000000     python38:python38.dll
 0000:fffb9000       .debug$S                   0000000180000000     python38:python38.dll
 0000:fffb9000       .debug$S                   0000000180000000     python38:python38.dll
 0000:fffb9000       .debug$S                   0000000180000000     python38:python38.dll
 0000:fffb9000       .debug$S                   0000000180000000     python38:python38.dll
 0000:fffb9000       .debug$S                   0000000180000000     python38:python38.dll
 0000:fffb9000       .debug$S                   0000000180000000     python38:python38.dll
 0000:fffb9000       .debug$S                   0000000180000000     python38:python38.dll
 0000:fffb9000       .debug$S                   0000000180000000     python38:python38.dll
 0000:fffb9000       .debug$S                   0000000180000000     python38:python38.dll
 0000:fffb9000       .debug$S                   0000000180000000     python38:python38.dll
 0000:fffb9000       .debug$S                   0000000180000000     python38:python38.dll
 0000:fffb9000       .debug$S                   0000000180000000     python38:python38.dll
 0000:fffb9000       .debug$S                   0000000180000000     python38:python38.dll
 0000:fffb9000       .debug$S                   0000000180000000     python38:python38.dll
 0000:fffb9000       .debug$S                   0000000180000000     python38:python38.dll
 0000:fffb9000       .debug$S                   0000000180000000     python38:python38.dll
 0000:fffb9000       .debug$S                   0000000180000000     python38:python38.dll
 0000:fffb9000       .debug$S                   0000000180000000     python38:python38.dll
 0000:fffb9000       .debug$S                   0000000180000000     python38:python38.dll
 0000:fffb9000       .debug$S                   0000000180000000     python38:python38.dll
 0000:fffb9000       .debug$S                   0000000180000000     python38:python38.dll
 0000:fffb9000       .debug$S                   0000000180000000     python38:python38.dll
 0000:fffb9000       .debug$S                   0000000180000000     python38:python38.dll
 0000:fffb9000       .debug$S                   0000000180000000     python38:python38.dll
 0000:fffb9000       .debug$S                   0000000180000000     python38:python38.dll
 0000:fffb9000       .debug$S                   0000000180000000     python38:python38.dll
 0000:fffb9000       .debug$S                   0000000180000000     python38:python38.dll
 0000:fffb9000       .debug$S                   0000000180000000     python38:python38.dll
 0000:fffb9000       .debug$S                   0000000180000000     python38:python38.dll
 0000:fffb9000       .debug$S                   0000000180000000     python38:python38.dll
 0000:fffb9000       .debug$S                   0000000180000000     python38:python38.dll
 0000:fffb9000       .debug$S                   0000000180000000     python38:python38.dll
 0000:fffb9000       .debug$S                   0000000180000000     python38:python38.dll
 0000:fffb9000       .debug$S                   0000000180000000     python38:python38.dll
 0000:fffb9000       .debug$S                   0000000180000000     python38:python38.dll
 0000:fffb9000       .debug$S                   0000000180000000     python38:python38.dll
 0000:fffb9000       .debug$S                   0000000180000000     python38:python38.dll
 0000:fffb9000       .debug$S                   0000000180000000     python38:python38.dll
 0000:fffb9000       .debug$S                   0000000180000000     python38:python38.dll
 0000:fffb9000       .debug$S                   0000000180000000     python38:python38.dll
 0000:fffb9000       .debug$S                   0000000180000000     python38:python38.dll
 0000:fffb9000       .debug$S                   0000000180000000     python38:python38.dll
 0000:fffb9000       .debug$S                   0000000180000000     python38:python38.dll
 0000:fffb9000       .debug$S                   0000000180000000     python38:python38.dll
 0000:fffb9000       .debug$S                   0000000180000000     python:python.dll
 0000:fffb9000       .debug$S                   0000000180000000     python:python.dll
 0000:fffb9000       .debug$S                   0000000180000000     python38:python38.dll
 0000:fffb9000       .debug$S                   0000000180000000     python38:python38.dll
 0000:fffb9000       .debug$S                   0000000180000000     python38:python38.dll
 0001:00000000       _wrap_func_t_llabelqty_get 0000000180001000 f   funcs.obj
 0001:00000100       _wrap_func_t_llabels_set   0000000180001100 f   funcs.obj
 0001:00000300       _wrap_func_t_llabels_get   0000000180001300 f   funcs.obj
 0001:00000410       _wrap_func_t_regargqty_set 0000000180001410 f   funcs.obj
 0001:000005b0       _wrap_func_t_regargqty_get 00000001800015b0 f   funcs.obj
 0001:000006b0       _wrap_func_t_regargs_set   00000001800016b0 f   funcs.obj
 0001:000008b0       _wrap_func_t_regargs_get   00000001800018b0 f   funcs.obj
 0001:000009c0       _wrap_func_t_tailqty_set   00000001800019c0 f   funcs.obj
 0001:00000b60       _wrap_func_t_tailqty_get   0000000180001b60 f   funcs.obj
 0001:00000c60       _wrap_func_t_tails_set     0000000180001c60 f   funcs.obj
 0001:00000e60       _wrap_func_t_tails_get     0000000180001e60 f   funcs.obj
 0001:00000f70       _wrap_func_t_owner_set     0000000180001f70 f   funcs.obj
 0001:000010f0       _wrap_func_t_owner_get     00000001800020f0 f   funcs.obj
 0001:000011f0       _wrap_func_t_refqty_set    00000001800021f0 f   funcs.obj
 0001:00001390       _wrap_func_t_refqty_get    0000000180002390 f   funcs.obj
 0001:00001490       _wrap_func_t_referers_set  0000000180002490 f   funcs.obj
 0001:00001690       _wrap_func_t_referers_get  0000000180002690 f   funcs.obj
 0001:000017a0       _wrap_new_func_t           00000001800027a0 f   funcs.obj
 0001:00001a90       _wrap_func_t___get_points__ 0000000180002a90 f   funcs.obj
 0001:00001c50       _wrap_func_t___get_regvars__ 0000000180002c50 f   funcs.obj
 0001:00001e40       _wrap_func_t___get_tails__ 0000000180002e40 f   funcs.obj
 0001:00002000       _wrap_delete_func_t        0000000180003000 f   funcs.obj
 0001:00002130       func_t_swigregister        0000000180003130 f   funcs.obj
 0001:000021c0       func_tail_iterator_t_swiginit 00000001800031c0 f   funcs.obj
 0001:000021c0       regvar_array_swiginit      00000001800031c0 f   funcs.obj
 0001:000021c0       range_array_swiginit       00000001800031c0 f   funcs.obj
 0001:000021c0       regarg_t_swiginit          00000001800031c0 f   funcs.obj
 0001:000021c0       func_t_swiginit            00000001800031c0 f   funcs.obj
 0001:000021c0       stkpnt_array_swiginit      00000001800031c0 f   funcs.obj
 0001:000021c0       lock_func_swiginit         00000001800031c0 f   funcs.obj
 0001:000021c0       func_item_iterator_t_swiginit 00000001800031c0 f   funcs.obj
 0001:000021c0       func_parent_iterator_t_swiginit 00000001800031c0 f   funcs.obj
 0001:000021d0       _wrap_is_func_entry        00000001800031d0 f   funcs.obj
 0001:00002330       _wrap_is_func_tail         0000000180003330 f   funcs.obj
 0001:00002490       _wrap_lock_func_range      0000000180003490 f   funcs.obj
 0001:00002640       _wrap_new_lock_func        0000000180003640 f   funcs.obj
 0001:00002780       _wrap_delete_lock_func     0000000180003780 f   funcs.obj
 0001:000028c0       lock_func_swigregister     00000001800038c0 f   funcs.obj
 0001:00002950       _wrap_is_func_locked       0000000180003950 f   funcs.obj
 0001:00002ab0       _wrap_get_func             0000000180003ab0 f   funcs.obj
 0001:00002b90       _wrap_get_func_chunknum    0000000180003b90 f   funcs.obj
 0001:00002d40       _wrap_func_contains        0000000180003d40 f   funcs.obj
 0001:00002f00       _wrap_is_same_func         0000000180003f00 f   funcs.obj
 0001:00003060       _wrap_getn_func            0000000180004060 f   funcs.obj
 0001:00003180       _wrap_get_func_qty         0000000180004180 f   funcs.obj
 0001:00003220       _wrap_get_func_num         0000000180004220 f   funcs.obj
 0001:000032f0       _wrap_get_prev_func        00000001800042f0 f   funcs.obj
 0001:000033d0       _wrap_get_next_func        00000001800043d0 f   funcs.obj
 0001:000034b0       _wrap_get_func_ranges      00000001800044b0 f   funcs.obj
 0001:00003700       _wrap_get_func_cmt         0000000180004700 f   funcs.obj
 0001:00003970       _wrap_set_func_cmt         0000000180004970 f   funcs.obj
 0001:00003cf0       _wrap_update_func          0000000180004cf0 f   funcs.obj
 0001:00003e50       _wrap_add_func_ex          0000000180004e50 f   funcs.obj
 0001:00003fb0       _wrap_add_func             0000000180004fb0 f   funcs.obj
 0001:00004180       _wrap_del_func             0000000180005180 f   funcs.obj
 0001:00004250       _wrap_set_func_start       0000000180005250 f   funcs.obj
 0001:00004390       _wrap_set_func_end         0000000180005390 f   funcs.obj
 0001:000044e0       _wrap_reanalyze_function   00000001800054e0 f   funcs.obj
 0001:00004760       _wrap_find_func_bounds     0000000180005760 f   funcs.obj
 0001:00004930       _wrap_get_func_name        0000000180005930 f   funcs.obj
 0001:00004ab0       _wrap_calc_func_size       0000000180005ab0 f   funcs.obj
 0001:00004c00       _wrap_get_func_bitness     0000000180005c00 f   funcs.obj
 0001:00004d50       _wrap_get_func_bits        0000000180005d50 f   funcs.obj
 0001:00004ea0       _wrap_get_func_bytes       0000000180005ea0 f   funcs.obj
 0001:00005000       _wrap_is_visible_func      0000000180006000 f   funcs.obj
 0001:00005150       _wrap_is_finally_visible_func 0000000180006150 f   funcs.obj
 0001:000052c0       _wrap_set_visible_func     00000001800062c0 f   funcs.obj
 0001:00005470       _wrap_set_func_name_if_jumpfunc 0000000180006470 f   funcs.obj
 0001:000057a0       _wrap_calc_thunk_func_target 00000001800067a0 f   funcs.obj
 0001:00005990       _wrap_func_does_return     0000000180006990 f   funcs.obj
 0001:00005a60       _wrap_reanalyze_noret_flag 0000000180006a60 f   funcs.obj
 0001:00005b30       _wrap_set_noret_insn       0000000180006b30 f   funcs.obj
 0001:00005c70       _wrap_get_fchunk           0000000180006c70 f   funcs.obj
 0001:00005d50       _wrap_getn_fchunk          0000000180006d50 f   funcs.obj
 0001:00005e40       _wrap_get_fchunk_qty       0000000180006e40 f   funcs.obj
 0001:00005ee0       _wrap_get_fchunk_num       0000000180006ee0 f   funcs.obj
 0001:00005fb0       _wrap_get_prev_fchunk      0000000180006fb0 f   funcs.obj
 0001:00006090       _wrap_get_next_fchunk      0000000180007090 f   funcs.obj
 0001:00006170       _wrap_append_func_tail     0000000180007170 f   funcs.obj
 0001:00006380       _wrap_remove_func_tail     0000000180007380 f   funcs.obj
 0001:00006540       _wrap_set_tail_owner       0000000180007540 f   funcs.obj
 0001:00006700       _wrap_func_tail_iterator_set 0000000180007700 f   funcs.obj
 0001:00006980       _wrap_func_tail_iterator_set_ea 0000000180007980 f   funcs.obj
 0001:00006b20       _wrap_func_parent_iterator_set 0000000180007b20 f   funcs.obj
 0001:00006d50       _wrap_func_item_iterator_next 0000000180007d50 f   funcs.obj
 0001:00006f80       _wrap_func_item_iterator_prev 0000000180007f80 f   funcs.obj
 0001:000071b0       _wrap_func_item_iterator_decode_prev_insn 00000001800081b0 f   funcs.obj
 0001:000073e0       _wrap_func_item_iterator_decode_preceding_insn 00000001800083e0 f   funcs.obj
 0001:00007820       _wrap_f_any                0000000180008820 f   funcs.obj
 0001:00007950       _wrap_new_func_tail_iterator_t 0000000180008950 f   funcs.obj
 0001:00007b90       _wrap_delete_func_tail_iterator_t 0000000180008b90 f   funcs.obj
 0001:00007cd0       _wrap_func_tail_iterator_t_set 0000000180008cd0 f   funcs.obj
 0001:00007f70       _wrap_func_tail_iterator_t_set_ea 0000000180008f70 f   funcs.obj
 0001:00008110       _wrap_func_tail_iterator_t_set_range 0000000180009110 f   funcs.obj
 0001:00008300       _wrap_func_tail_iterator_t_chunk 0000000180009300 f   funcs.obj
 0001:00008440       _wrap_func_tail_iterator_t_first 0000000180009440 f   funcs.obj
 0001:00008570       _wrap_func_tail_iterator_t_last 0000000180009570 f   funcs.obj
 0001:000086b0       _wrap_func_tail_iterator_t_next 00000001800096b0 f   funcs.obj
 0001:000087f0       _wrap_func_tail_iterator_t_prev 00000001800097f0 f   funcs.obj
 0001:00008930       _wrap_func_tail_iterator_t_main 0000000180009930 f   funcs.obj
 0001:00008a60       func_tail_iterator_t_swigregister 0000000180009a60 f   funcs.obj
 0001:00008af0       _wrap_new_func_item_iterator_t 0000000180009af0 f   funcs.obj
 0001:00008d30       _wrap_func_item_iterator_t_set 0000000180009d30 f   funcs.obj
 0001:00008fe0       _wrap_func_item_iterator_t_set_range 0000000180009fe0 f   funcs.obj
 0001:00009200       _wrap_func_item_iterator_t_first 000000018000a200 f   funcs.obj
 0001:00009340       _wrap_func_item_iterator_t_last 000000018000a340 f   funcs.obj
 0001:00009490       _wrap_func_item_iterator_t_current 000000018000a490 f   funcs.obj
 0001:000095b0       _wrap_func_item_iterator_t_chunk 000000018000a5b0 f   funcs.obj
 0001:000096f0       _wrap_func_item_iterator_t_next 000000018000a6f0 f   funcs.obj
 0001:00009920       _wrap_func_item_iterator_t_prev 000000018000a920 f   funcs.obj
 0001:00009b50       _wrap_func_item_iterator_t_next_addr 000000018000ab50 f   funcs.obj
 0001:00009c90       _wrap_func_item_iterator_t_next_head 000000018000ac90 f   funcs.obj
 0001:00009dd0       _wrap_func_item_iterator_t_next_code 000000018000add0 f   funcs.obj
 0001:00009f10       _wrap_func_item_iterator_t_next_data 000000018000af10 f   funcs.obj
 0001:0000a050       _wrap_func_item_iterator_t_next_not_tail 000000018000b050 f   funcs.obj
 0001:0000a190       _wrap_func_item_iterator_t_prev_addr 000000018000b190 f   funcs.obj
 0001:0000a2d0       _wrap_func_item_iterator_t_prev_head 000000018000b2d0 f   funcs.obj
 0001:0000a410       _wrap_func_item_iterator_t_prev_code 000000018000b410 f   funcs.obj
 0001:0000a550       _wrap_func_item_iterator_t_prev_data 000000018000b550 f   funcs.obj
 0001:0000a690       _wrap_func_item_iterator_t_prev_not_tail 000000018000b690 f   funcs.obj
 0001:0000a7d0       _wrap_func_item_iterator_t_decode_prev_insn 000000018000b7d0 f   funcs.obj
 0001:0000aa00       _wrap_func_item_iterator_t_decode_preceding_insn 000000018000ba00 f   funcs.obj
 0001:0000ae40       SwigPyObject_repr2         000000018000be40 f   funcs.obj
 0001:0000ae50       _wrap_delete_func_item_iterator_t 000000018000be50 f   funcs.obj
 0001:0000af90       SwigPyObject_append        000000018000bf90 f   funcs.obj
 0001:0000aff0       SwigPyObject_next          000000018000bff0 f   funcs.obj
 0001:0000b010       SwigPyObject_disown        000000018000c010 f   funcs.obj
 0001:0000b030       SwigPyObject_acquire       000000018000c030 f   funcs.obj
 0001:0000b050       SwigPyObject_own           000000018000c050 f   funcs.obj
 0001:0000b100       func_item_iterator_t_swigregister 000000018000c100 f   funcs.obj
 0001:0000b190       _wrap_new_func_parent_iterator_t 000000018000c190 f   funcs.obj
 0001:0000b3a0       _wrap_delete_func_parent_iterator_t 000000018000c3a0 f   funcs.obj
 0001:0000b4e0       _wrap_func_parent_iterator_t_set 000000018000c4e0 f   funcs.obj
 0001:0000b710       _wrap_func_parent_iterator_t_parent 000000018000c710 f   funcs.obj
 0001:0000b830       _wrap_func_parent_iterator_t_first 000000018000c830 f   funcs.obj
 0001:0000b970       _wrap_func_parent_iterator_t_last 000000018000c970 f   funcs.obj
 0001:0000ba90       _wrap_func_parent_iterator_t_next 000000018000ca90 f   funcs.obj
 0001:0000bbd0       _wrap_func_parent_iterator_t_prev 000000018000cbd0 f   funcs.obj
 0001:0000bd10       _wrap_func_parent_iterator_t_reset_fnt 000000018000cd10 f   funcs.obj
 0001:0000bf20       func_parent_iterator_t_swigregister 000000018000cf20 f   funcs.obj
 0001:0000bfb0       _wrap_get_prev_func_addr   000000018000cfb0 f   funcs.obj
 0001:0000c160       _wrap_get_next_func_addr   000000018000d160 f   funcs.obj
 0001:0000c310       _wrap_read_regargs         000000018000d310 f   funcs.obj
 0001:0000c460       _wrap_add_regarg           000000018000d460 f   funcs.obj
 0001:0000c8d0       _wrap_plan_to_apply_idasgn 000000018000d8d0 f   funcs.obj
 0001:0000cb10       _wrap_apply_idasgn_to      000000018000db10 f   funcs.obj
 0001:0000ce00       _wrap_get_idasgn_qty       000000018000de00 f   funcs.obj
 0001:0000ce90       _wrap_get_current_idasgn   000000018000de90 f   funcs.obj
 0001:0000cf20       _wrap_calc_idasgn_state    000000018000df20 f   funcs.obj
 0001:0000d010       _wrap_del_idasgn           000000018000e010 f   funcs.obj
 0001:0000d100       _wrap_get_idasgn_title     000000018000e100 f   funcs.obj
 0001:0000d3e0       _wrap_apply_startup_sig    000000018000e3e0 f   funcs.obj
 0001:0000d680       _wrap_try_to_add_libfunc   000000018000e680 f   funcs.obj
 0001:0000d750       _wrap_get_fchunk_referer   000000018000e750 f   funcs.obj
 0001:0000d900       _wrap_get_idasgn_desc      000000018000e900 f   funcs.obj
 0001:0000da90       _wrap_get_idasgn_desc_with_matches 000000018000ea90 f   funcs.obj
 0001:0000dbf0       _wrap_func_t__from_ptrval__ 000000018000ebf0 f   funcs.obj
 0001:0000dc40       _p_bytevec_tTo_p_qvectorT_unsigned_char_t 000000018000ec40 f   funcs.obj
 0001:0000dc40       _p_reloc_info_tTo_p_qvectorT_unsigned_char_t 000000018000ec40 f   funcs.obj
 0001:0000dc40       _p_relobj_tTo_p_qvectorT_unsigned_char_t 000000018000ec40 f   funcs.obj
 0001:0000dc40       _p_rangevec_tTo_p_qvectorT_range_t_t 000000018000ec40 f   funcs.obj
 0001:0000dc40       _p_func_tTo_p_range_t      000000018000ec40 f   funcs.obj
 0001:0000dc50       _wrap_stkpnt_array_data_get 000000018000ec50 f   funcs.obj
 0001:0000dd60       _wrap_stkpnt_array_count_get 000000018000ed60 f   funcs.obj
 0001:0000de80       _wrap_new_stkpnt_array     000000018000ee80 f   funcs.obj
 0001:0000e060       _wrap_stkpnt_array___len__ 000000018000f060 f   funcs.obj
 0001:0000e190       _wrap_stkpnt_array___getitem__ 000000018000f190 f   funcs.obj
 0001:0000e390       _wrap_stkpnt_array___setitem__ 000000018000f390 f   funcs.obj
 0001:0000e690       _wrap_delete_stkpnt_array  000000018000f690 f   funcs.obj
 0001:0000e7c0       stkpnt_array_swigregister  000000018000f7c0 f   funcs.obj
 0001:0000e850       _wrap_regvar_array_data_get 000000018000f850 f   funcs.obj
 0001:0000e960       _wrap_regvar_array_count_get 000000018000f960 f   funcs.obj
 0001:0000ea80       _wrap_new_regvar_array     000000018000fa80 f   funcs.obj
 0001:0000ec60       _wrap_regvar_array___len__ 000000018000fc60 f   funcs.obj
 0001:0000ed90       _wrap_regvar_array___getitem__ 000000018000fd90 f   funcs.obj
 0001:0000ef90       _wrap_regvar_array___setitem__ 000000018000ff90 f   funcs.obj
 0001:0000f2a0       _wrap_delete_regvar_array  00000001800102a0 f   funcs.obj
 0001:0000f3d0       regvar_array_swigregister  00000001800103d0 f   funcs.obj
 0001:0000f460       _wrap_range_array_data_get 0000000180010460 f   funcs.obj
 0001:0000f570       _wrap_range_array_count_get 0000000180010570 f   funcs.obj
 0001:0000f690       _wrap_new_range_array      0000000180010690 f   funcs.obj
 0001:0000f870       _wrap_range_array___len__  0000000180010870 f   funcs.obj
 0001:0000f9a0       _wrap_range_array___getitem__ 00000001800109a0 f   funcs.obj
 0001:0000fba0       _wrap_range_array___setitem__ 0000000180010ba0 f   funcs.obj
 0001:0000fea0       _wrap_delete_range_array   0000000180010ea0 f   funcs.obj
 0001:0000ffd0       range_array_swigregister   0000000180010fd0 f   funcs.obj
 0001:00010060       _wrap_regarg_t_reg_set     0000000180011060 f   funcs.obj
 0001:000101f0       _wrap_regarg_t_reg_get     00000001800111f0 f   funcs.obj
 0001:000102f0       _wrap_regarg_t_type_set    00000001800112f0 f   funcs.obj
 0001:000105f0       _wrap_regarg_t_type_get    00000001800115f0 f   funcs.obj
 0001:000106f0       _wrap_regarg_t_name_set    00000001800116f0 f   funcs.obj
 0001:000109f0       _wrap_regarg_t_name_get    00000001800119f0 f   funcs.obj
 0001:00010af0       _wrap_new_regarg_t         0000000180011af0 f   funcs.obj
 0001:00010b70       _wrap_delete_regarg_t      0000000180011b70 f   funcs.obj
 0001:00010ca0       regarg_t_swigregister      0000000180011ca0 f   funcs.obj
 0001:00010d30       _wrap_func_t_flags_set     0000000180011d30 f   funcs.obj
 0001:00010ec0       _wrap_func_t_flags_get     0000000180011ec0 f   funcs.obj
 0001:00010fc0       _wrap_func_t_is_far        0000000180011fc0 f   funcs.obj
 0001:000110e0       _wrap_func_t_does_return   00000001800120e0 f   funcs.obj
 0001:00011200       _wrap_func_t_analyzed_sp   0000000180012200 f   funcs.obj
 0001:00011320       _wrap_func_t_need_prolog_analysis 0000000180012320 f   funcs.obj
 0001:00011440       _wrap_func_t_frame_set     0000000180012440 f   funcs.obj
 0001:000115e0       _wrap_func_t_frame_get     00000001800125e0 f   funcs.obj
 0001:000116e0       _wrap_func_t_frsize_set    00000001800126e0 f   funcs.obj
 0001:00011880       _wrap_func_t_frsize_get    0000000180012880 f   funcs.obj
 0001:00011980       _wrap_func_t_frregs_set    0000000180012980 f   funcs.obj
 0001:00011b40       _wrap_func_t_frregs_get    0000000180012b40 f   funcs.obj
 0001:00011c40       _wrap_func_t_argsize_set   0000000180012c40 f   funcs.obj
 0001:00011de0       _wrap_func_t_argsize_get   0000000180012de0 f   funcs.obj
 0001:00011ee0       _wrap_func_t_fpd_set       0000000180012ee0 f   funcs.obj
 0001:00012080       _wrap_func_t_fpd_get       0000000180013080 f   funcs.obj
 0001:00012180       _wrap_func_t_color_set     0000000180013180 f   funcs.obj
 0001:00012320       _wrap_func_t_color_get     0000000180013320 f   funcs.obj
 0001:00012420       _wrap_func_t_pntqty_set    0000000180013420 f   funcs.obj
 0001:000125c0       _wrap_func_t_pntqty_get    00000001800135c0 f   funcs.obj
 0001:000126c0       _wrap_func_t_points_set    00000001800136c0 f   funcs.obj
 0001:000128c0       _wrap_func_t_points_get    00000001800138c0 f   funcs.obj
 0001:000129d0       _wrap_func_t_regvarqty_set 00000001800139d0 f   funcs.obj
 0001:00012b70       _wrap_func_t_regvarqty_get 0000000180013b70 f   funcs.obj
 0001:00012c70       _wrap_func_t_regvars_set   0000000180013c70 f   funcs.obj
 0001:00012e70       _wrap_func_t_regvars_get   0000000180013e70 f   funcs.obj
 0001:00012f80       _wrap_func_t_llabelqty_set 0000000180013f80 f   funcs.obj
 0001:000132c0       ?SWIG_AsVal_unsigned_SS_int@@YAHPEAU_object@@PEAI@Z 00000001800142c0 f   funcs.obj
 0001:00013330       ?SWIG_FromCharPtr@@YAPEAU_object@@PEBD@Z 0000000180014330 f   funcs.obj
 0001:000133d0       ?SWIG_Python_ErrorType@@YAPEAU_object@@H@Z 00000001800143d0 f   funcs.obj
 0001:0001346c       $LN17                      000000018001446c     funcs.obj
 0001:000134a0       ?SWIG_Python_RaiseOrModifyTypeError@@YAXPEBD@Z 00000001800144a0 f   funcs.obj
 0001:00013560       ?SWIG_Python_SetErrorObj@@YAXPEAU_object@@0@Z 0000000180014560 f   funcs.obj
 0001:000135b0       ?SWIG_Python_UnpackTuple@@YA_JPEAU_object@@PEBD_J2PEAPEAU1@@Z 00000001800145b0 f   funcs.obj
 0001:00013780       ?SWIG_Python_str_AsChar@@YAPEADPEAU_object@@@Z 0000000180014780 f   funcs.obj
 0001:00013800       ?__raise_e@@YAXAEBVexception@std@@@Z 0000000180014800 f   funcs.obj
 0001:00013840       ?__raise_ie@@YAXAEBUinterr_exc_t@@@Z 0000000180014840 f   funcs.obj
 0001:00013c40       SWIG_InitializeModule      0000000180014c40 f   funcs.obj
 0001:00013f60       SWIG_MangledTypeQueryModule 0000000180014f60 f   funcs.obj
 0001:00014030       SWIG_Python_ConvertFunctionPtr 0000000180015030 f   funcs.obj
 0001:000141d0       SWIG_Python_ConvertPtrAndOwn 00000001800151d0 f   funcs.obj
 0001:00014420       SWIG_Python_DestroyModule  0000000180015420 f   funcs.obj
 0001:00014510       SWIG_Python_FixMethods     0000000180015510 f   funcs.obj
 0001:00014750       SWIG_Python_GetSwigThis    0000000180015750 f   funcs.obj
 0001:000147e0       SWIG_Python_InitShadowInstance 00000001800157e0 f   funcs.obj
 0001:000148e0       SWIG_Python_NewPointerObj  00000001800158e0 f   funcs.obj
 0001:00014b00       SWIG_Python_TypeCache      0000000180015b00 f   funcs.obj
 0001:00014b70       SWIG_Python_TypeQuery      0000000180015b70 f   funcs.obj
 0001:00014db0       SWIG_This                  0000000180015db0 f   funcs.obj
 0001:00014de0       SWIG_TypeCheck             0000000180015de0 f   funcs.obj
 0001:00014e80       SWIG_TypeClientData        0000000180015e80 f   funcs.obj
 0001:00014ed0       SwigPyClientData_New       0000000180015ed0 f   funcs.obj
 0001:00014fe0       SwigPyObject_Check         0000000180015fe0 f   funcs.obj
 0001:00015060       SwigPyObject_New           0000000180016060 f   funcs.obj
 0001:000150b0       SwigPyObject_dealloc       00000001800160b0 f   funcs.obj
 0001:00015240       SwigPyObject_long          0000000180016240 f   funcs.obj
 0001:00015250       SwigPyObject_repr          0000000180016250 f   funcs.obj
 0001:00015310       SwigPyObject_richcompare   0000000180016310 f   funcs.obj
 0001:00015360       SwigPyObject_type          0000000180016360 f   funcs.obj
 0001:000154a0       SwigPyPacked_Check         00000001800164a0 f   funcs.obj
 0001:00015520       SwigPyPacked_dealloc       0000000180016520 f   funcs.obj
 0001:00015550       SwigPyPacked_repr          0000000180016550 f   funcs.obj
 0001:00015650       SwigPyPacked_str           0000000180016650 f   funcs.obj
 0001:00015750       SwigPyPacked_type          0000000180016750 f   funcs.obj
 0001:000158a0       _wrap_new_func_item_iterator_t__SWIG_0 00000001800168a0 f   funcs.obj
 0001:00015910       _wrap_new_func_item_iterator_t__SWIG_1 0000000180016910 f   funcs.obj
 0001:00015ae0       _wrap_new_func_parent_iterator_t__SWIG_0 0000000180016ae0 f   funcs.obj
 0001:00015b40       _wrap_new_func_parent_iterator_t__SWIG_1 0000000180016b40 f   funcs.obj
 0001:00015ca0       _wrap_new_func_tail_iterator_t__SWIG_0 0000000180016ca0 f   funcs.obj
 0001:00015d00       _wrap_new_func_tail_iterator_t__SWIG_1 0000000180016d00 f   funcs.obj
 0001:000160e8       ?__scrt_initialize_thread_safe_statics@@YAHXZ 00000001800170e8 f   MSVCRT:thread_safe_statics.obj
 0001:00016248       ?__scrt_uninitialize_thread_safe_statics@@YAXXZ 0000000180017248 f   MSVCRT:thread_safe_statics.obj
 0001:00016500       $$000000                   0000000180017500     MSVCRT:amdsecgs.obj
 0001:00016560       ?dllmain_crt_dispatch@@YAHQEAUHINSTANCE__@@KQEAX@Z 0000000180017560 f   MSVCRT:dll_dllmain.obj
 0001:000165b0       ?dllmain_crt_process_attach@@YAHQEAUHINSTANCE__@@QEAX@Z 00000001800175b0 f   MSVCRT:dll_dllmain.obj
 0001:000166cc       ?dllmain_crt_process_detach@@YAH_N@Z 00000001800176cc f   MSVCRT:dll_dllmain.obj
 0001:0001675c       ?dllmain_dispatch@@YAHQEAUHINSTANCE__@@KQEAX@Z 000000018001775c f   MSVCRT:dll_dllmain.obj
 0001:0001701c       capture_previous_context   000000018001801c f   MSVCRT:gs_report.obj
 0001:00017450       $$000000                   0000000180018450     MSVCRT:guard_dispatch.obj
 0001:00017470       _wrap_add_func$catch$5     0000000180018470 f   funcs.obj
 0001:0001747d       __catch$_wrap_add_func$3   000000018001847d f   funcs.obj
 0001:000174a3       _wrap_add_func$catch$4     00000001800184a3 f   funcs.obj
 0001:000174b0       __catch$_wrap_add_func$5   00000001800184b0 f   funcs.obj
 0001:000174df       _wrap_add_func$catch$3     00000001800184df f   funcs.obj
 0001:000174ec       __catch$_wrap_add_func$7   00000001800184ec f   funcs.obj
 0001:00017507       _wrap_add_func$catch$2     0000000180018507 f   funcs.obj
 0001:00017514       __catch$_wrap_add_func$9   0000000180018514 f   funcs.obj
 0001:0001752f       _wrap_add_func$catch$1     000000018001852f f   funcs.obj
 0001:0001753c       __catch$_wrap_add_func$11  000000018001853c f   funcs.obj
 0001:0001756b       _wrap_add_func$catch$0     000000018001856b f   funcs.obj
 0001:00017578       __catch$_wrap_add_func$13  0000000180018578 f   funcs.obj
 0001:000175a0       _wrap_add_func_ex$catch$5  00000001800185a0 f   funcs.obj
 0001:000175ad       __catch$_wrap_add_func_ex$2 00000001800185ad f   funcs.obj
 0001:000175d3       _wrap_add_func_ex$catch$4  00000001800185d3 f   funcs.obj
 0001:000175e0       __catch$_wrap_add_func_ex$4 00000001800185e0 f   funcs.obj
 0001:0001760c       _wrap_add_func_ex$catch$3  000000018001860c f   funcs.obj
 0001:00017619       __catch$_wrap_add_func_ex$6 0000000180018619 f   funcs.obj
 0001:00017631       _wrap_add_func_ex$catch$2  0000000180018631 f   funcs.obj
 0001:0001763e       __catch$_wrap_add_func_ex$8 000000018001863e f   funcs.obj
 0001:00017656       _wrap_add_func_ex$catch$1  0000000180018656 f   funcs.obj
 0001:00017663       __catch$_wrap_add_func_ex$10 0000000180018663 f   funcs.obj
 0001:0001768f       _wrap_add_func_ex$catch$0  000000018001868f f   funcs.obj
 0001:0001769c       __catch$_wrap_add_func_ex$12 000000018001869c f   funcs.obj
 0001:000176d0       _wrap_add_regarg$catch$5   00000001800186d0 f   funcs.obj
 0001:000176dd       __catch$_wrap_add_regarg$6 00000001800186dd f   funcs.obj
 0001:00017703       _wrap_add_regarg$catch$4   0000000180018703 f   funcs.obj
 0001:00017710       __catch$_wrap_add_regarg$8 0000000180018710 f   funcs.obj
 0001:0001773c       _wrap_add_regarg$catch$3   000000018001873c f   funcs.obj
 0001:00017749       __catch$_wrap_add_regarg$10 0000000180018749 f   funcs.obj
 0001:00017761       _wrap_add_regarg$catch$2   0000000180018761 f   funcs.obj
 0001:0001776e       __catch$_wrap_add_regarg$12 000000018001876e f   funcs.obj
 0001:00017786       _wrap_add_regarg$catch$1   0000000180018786 f   funcs.obj
 0001:00017793       __catch$_wrap_add_regarg$14 0000000180018793 f   funcs.obj
 0001:000177bf       _wrap_add_regarg$catch$0   00000001800187bf f   funcs.obj
 0001:000177cc       __catch$_wrap_add_regarg$16 00000001800187cc f   funcs.obj
 0001:00017800       _wrap_append_func_tail$catch$5 0000000180018800 f   funcs.obj
 0001:0001780d       __catch$_wrap_append_func_tail$4 000000018001880d f   funcs.obj
 0001:00017833       _wrap_append_func_tail$catch$4 0000000180018833 f   funcs.obj
 0001:00017840       __catch$_wrap_append_func_tail$6 0000000180018840 f   funcs.obj
 0001:0001786c       _wrap_append_func_tail$catch$3 000000018001886c f   funcs.obj
 0001:00017879       __catch$_wrap_append_func_tail$8 0000000180018879 f   funcs.obj
 0001:00017891       _wrap_append_func_tail$catch$2 0000000180018891 f   funcs.obj
 0001:0001789e       __catch$_wrap_append_func_tail$10 000000018001889e f   funcs.obj
 0001:000178b6       _wrap_append_func_tail$catch$1 00000001800188b6 f   funcs.obj
 0001:000178c3       __catch$_wrap_append_func_tail$12 00000001800188c3 f   funcs.obj
 0001:000178ef       _wrap_append_func_tail$catch$0 00000001800188ef f   funcs.obj
 0001:000178fc       __catch$_wrap_append_func_tail$14 00000001800188fc f   funcs.obj
 0001:00017930       _wrap_apply_idasgn_to$catch$5 0000000180018930 f   funcs.obj
 0001:0001793d       __catch$_wrap_apply_idasgn_to$4 000000018001893d f   funcs.obj
 0001:00017963       _wrap_apply_idasgn_to$catch$4 0000000180018963 f   funcs.obj
 0001:00017970       __catch$_wrap_apply_idasgn_to$6 0000000180018970 f   funcs.obj
 0001:0001799c       _wrap_apply_idasgn_to$catch$3 000000018001899c f   funcs.obj
 0001:000179a9       __catch$_wrap_apply_idasgn_to$8 00000001800189a9 f   funcs.obj
 0001:000179c1       _wrap_apply_idasgn_to$catch$2 00000001800189c1 f   funcs.obj
 0001:000179ce       __catch$_wrap_apply_idasgn_to$10 00000001800189ce f   funcs.obj
 0001:000179e6       _wrap_apply_idasgn_to$catch$1 00000001800189e6 f   funcs.obj
 0001:000179f3       __catch$_wrap_apply_idasgn_to$12 00000001800189f3 f   funcs.obj
 0001:00017a1f       _wrap_apply_idasgn_to$catch$0 0000000180018a1f f   funcs.obj
 0001:00017a2c       __catch$_wrap_apply_idasgn_to$14 0000000180018a2c f   funcs.obj
 0001:00017a60       _wrap_apply_startup_sig$catch$5 0000000180018a60 f   funcs.obj
 0001:00017a6d       __catch$_wrap_apply_startup_sig$3 0000000180018a6d f   funcs.obj
 0001:00017a93       _wrap_apply_startup_sig$catch$4 0000000180018a93 f   funcs.obj
 0001:00017aa0       __catch$_wrap_apply_startup_sig$5 0000000180018aa0 f   funcs.obj
 0001:00017acc       _wrap_apply_startup_sig$catch$3 0000000180018acc f   funcs.obj
 0001:00017ad9       __catch$_wrap_apply_startup_sig$7 0000000180018ad9 f   funcs.obj
 0001:00017af1       _wrap_apply_startup_sig$catch$2 0000000180018af1 f   funcs.obj
 0001:00017afe       __catch$_wrap_apply_startup_sig$9 0000000180018afe f   funcs.obj
 0001:00017b16       _wrap_apply_startup_sig$catch$1 0000000180018b16 f   funcs.obj
 0001:00017b23       __catch$_wrap_apply_startup_sig$11 0000000180018b23 f   funcs.obj
 0001:00017b4f       _wrap_apply_startup_sig$catch$0 0000000180018b4f f   funcs.obj
 0001:00017b5c       __catch$_wrap_apply_startup_sig$13 0000000180018b5c f   funcs.obj
 0001:00017b90       _wrap_calc_func_size$catch$5 0000000180018b90 f   funcs.obj
 0001:00017b9d       __catch$_wrap_calc_func_size$2 0000000180018b9d f   funcs.obj
 0001:00017bc3       _wrap_calc_func_size$catch$4 0000000180018bc3 f   funcs.obj
 0001:00017bd0       __catch$_wrap_calc_func_size$4 0000000180018bd0 f   funcs.obj
 0001:00017bfc       _wrap_calc_func_size$catch$3 0000000180018bfc f   funcs.obj
 0001:00017c09       __catch$_wrap_calc_func_size$6 0000000180018c09 f   funcs.obj
 0001:00017c21       _wrap_calc_func_size$catch$2 0000000180018c21 f   funcs.obj
 0001:00017c2e       __catch$_wrap_calc_func_size$8 0000000180018c2e f   funcs.obj
 0001:00017c46       _wrap_calc_func_size$catch$1 0000000180018c46 f   funcs.obj
 0001:00017c53       __catch$_wrap_calc_func_size$10 0000000180018c53 f   funcs.obj
 0001:00017c7f       _wrap_calc_func_size$catch$0 0000000180018c7f f   funcs.obj
 0001:00017c8c       __catch$_wrap_calc_func_size$12 0000000180018c8c f   funcs.obj
 0001:00017cc0       _wrap_calc_idasgn_state$catch$5 0000000180018cc0 f   funcs.obj
 0001:00017ccd       __catch$_wrap_calc_idasgn_state$2 0000000180018ccd f   funcs.obj
 0001:00017cf3       _wrap_calc_idasgn_state$catch$4 0000000180018cf3 f   funcs.obj
 0001:00017d00       __catch$_wrap_calc_idasgn_state$4 0000000180018d00 f   funcs.obj
 0001:00017d2c       _wrap_calc_idasgn_state$catch$3 0000000180018d2c f   funcs.obj
 0001:00017d39       __catch$_wrap_calc_idasgn_state$6 0000000180018d39 f   funcs.obj
 0001:00017d51       _wrap_calc_idasgn_state$catch$2 0000000180018d51 f   funcs.obj
 0001:00017d5e       __catch$_wrap_calc_idasgn_state$8 0000000180018d5e f   funcs.obj
 0001:00017d76       _wrap_calc_idasgn_state$catch$1 0000000180018d76 f   funcs.obj
 0001:00017d83       __catch$_wrap_calc_idasgn_state$10 0000000180018d83 f   funcs.obj
 0001:00017daf       _wrap_calc_idasgn_state$catch$0 0000000180018daf f   funcs.obj
 0001:00017dbc       __catch$_wrap_calc_idasgn_state$12 0000000180018dbc f   funcs.obj
 0001:00017df0       _wrap_calc_thunk_func_target$catch$5 0000000180018df0 f   funcs.obj
 0001:00017dfd       __catch$_wrap_calc_thunk_func_target$3 0000000180018dfd f   funcs.obj
 0001:00017e23       _wrap_calc_thunk_func_target$catch$4 0000000180018e23 f   funcs.obj
 0001:00017e30       __catch$_wrap_calc_thunk_func_target$5 0000000180018e30 f   funcs.obj
 0001:00017e5c       _wrap_calc_thunk_func_target$catch$3 0000000180018e5c f   funcs.obj
 0001:00017e69       __catch$_wrap_calc_thunk_func_target$7 0000000180018e69 f   funcs.obj
 0001:00017e81       _wrap_calc_thunk_func_target$catch$2 0000000180018e81 f   funcs.obj
 0001:00017e8e       __catch$_wrap_calc_thunk_func_target$9 0000000180018e8e f   funcs.obj
 0001:00017ea6       _wrap_calc_thunk_func_target$catch$1 0000000180018ea6 f   funcs.obj
 0001:00017eb3       __catch$_wrap_calc_thunk_func_target$11 0000000180018eb3 f   funcs.obj
 0001:00017edf       _wrap_calc_thunk_func_target$catch$0 0000000180018edf f   funcs.obj
 0001:00017eec       __catch$_wrap_calc_thunk_func_target$13 0000000180018eec f   funcs.obj
 0001:00017f20       _wrap_del_func$catch$5     0000000180018f20 f   funcs.obj
 0001:00017f2d       __catch$_wrap_del_func$2   0000000180018f2d f   funcs.obj
 0001:00017f53       _wrap_del_func$catch$4     0000000180018f53 f   funcs.obj
 0001:00017f60       __catch$_wrap_del_func$4   0000000180018f60 f   funcs.obj
 0001:00017f8c       _wrap_del_func$catch$3     0000000180018f8c f   funcs.obj
 0001:00017f99       __catch$_wrap_del_func$6   0000000180018f99 f   funcs.obj
 0001:00017fb1       _wrap_del_func$catch$2     0000000180018fb1 f   funcs.obj
 0001:00017fbe       __catch$_wrap_del_func$8   0000000180018fbe f   funcs.obj
 0001:00017fd6       _wrap_del_func$catch$1     0000000180018fd6 f   funcs.obj
 0001:00017fe3       __catch$_wrap_del_func$10  0000000180018fe3 f   funcs.obj
 0001:0001800f       _wrap_del_func$catch$0     000000018001900f f   funcs.obj
 0001:0001801c       __catch$_wrap_del_func$12  000000018001901c f   funcs.obj
 0001:00018050       _wrap_del_idasgn$catch$5   0000000180019050 f   funcs.obj
 0001:0001805d       __catch$_wrap_del_idasgn$2 000000018001905d f   funcs.obj
 0001:00018083       _wrap_del_idasgn$catch$4   0000000180019083 f   funcs.obj
 0001:00018090       __catch$_wrap_del_idasgn$4 0000000180019090 f   funcs.obj
 0001:000180bc       _wrap_del_idasgn$catch$3   00000001800190bc f   funcs.obj
 0001:000180c9       __catch$_wrap_del_idasgn$6 00000001800190c9 f   funcs.obj
 0001:000180e1       _wrap_del_idasgn$catch$2   00000001800190e1 f   funcs.obj
 0001:000180ee       __catch$_wrap_del_idasgn$8 00000001800190ee f   funcs.obj
 0001:00018106       _wrap_del_idasgn$catch$1   0000000180019106 f   funcs.obj
 0001:00018113       __catch$_wrap_del_idasgn$10 0000000180019113 f   funcs.obj
 0001:0001813f       _wrap_del_idasgn$catch$0   000000018001913f f   funcs.obj
 0001:0001814c       __catch$_wrap_del_idasgn$12 000000018001914c f   funcs.obj
 0001:00018180       _wrap_delete_func_item_iterator_t$catch$6 0000000180019180 f   funcs.obj
 0001:0001818d       __catch$_wrap_delete_func_item_iterator_t$2 000000018001918d f   funcs.obj
 0001:000181b3       _wrap_delete_func_item_iterator_t$catch$5 00000001800191b3 f   funcs.obj
 0001:000181c0       __catch$_wrap_delete_func_item_iterator_t$4 00000001800191c0 f   funcs.obj
 0001:000181ec       _wrap_delete_func_item_iterator_t$catch$4 00000001800191ec f   funcs.obj
 0001:000181f9       __catch$_wrap_delete_func_item_iterator_t$6 00000001800191f9 f   funcs.obj
 0001:00018211       _wrap_delete_func_item_iterator_t$catch$3 0000000180019211 f   funcs.obj
 0001:0001821e       __catch$_wrap_delete_func_item_iterator_t$8 000000018001921e f   funcs.obj
 0001:00018236       _wrap_delete_func_item_iterator_t$catch$2 0000000180019236 f   funcs.obj
 0001:00018243       __catch$_wrap_delete_func_item_iterator_t$10 0000000180019243 f   funcs.obj
 0001:0001826f       _wrap_delete_func_item_iterator_t$catch$1 000000018001926f f   funcs.obj
 0001:0001827c       __catch$_wrap_delete_func_item_iterator_t$12 000000018001927c f   funcs.obj
 0001:000182b0       _wrap_delete_func_parent_iterator_t$catch$5 00000001800192b0 f   funcs.obj
 0001:000182bd       __catch$_wrap_delete_func_parent_iterator_t$2 00000001800192bd f   funcs.obj
 0001:000182e3       _wrap_delete_func_parent_iterator_t$catch$4 00000001800192e3 f   funcs.obj
 0001:000182f0       __catch$_wrap_delete_func_parent_iterator_t$4 00000001800192f0 f   funcs.obj
 0001:0001831c       _wrap_delete_func_parent_iterator_t$catch$3 000000018001931c f   funcs.obj
 0001:00018329       __catch$_wrap_delete_func_parent_iterator_t$6 0000000180019329 f   funcs.obj
 0001:00018341       _wrap_delete_func_parent_iterator_t$catch$2 0000000180019341 f   funcs.obj
 0001:0001834e       __catch$_wrap_delete_func_parent_iterator_t$8 000000018001934e f   funcs.obj
 0001:00018366       _wrap_delete_func_parent_iterator_t$catch$1 0000000180019366 f   funcs.obj
 0001:00018373       __catch$_wrap_delete_func_parent_iterator_t$10 0000000180019373 f   funcs.obj
 0001:0001839f       _wrap_delete_func_parent_iterator_t$catch$0 000000018001939f f   funcs.obj
 0001:000183ac       __catch$_wrap_delete_func_parent_iterator_t$12 00000001800193ac f   funcs.obj
 0001:000183e0       _wrap_delete_func_t$catch$5 00000001800193e0 f   funcs.obj
 0001:000183ed       __catch$_wrap_delete_func_t$2 00000001800193ed f   funcs.obj
 0001:00018413       _wrap_delete_func_t$catch$4 0000000180019413 f   funcs.obj
 0001:00018420       __catch$_wrap_delete_func_t$4 0000000180019420 f   funcs.obj
 0001:0001844c       _wrap_delete_func_t$catch$3 000000018001944c f   funcs.obj
 0001:00018459       __catch$_wrap_delete_func_t$6 0000000180019459 f   funcs.obj
 0001:00018471       _wrap_delete_func_t$catch$2 0000000180019471 f   funcs.obj
 0001:0001847e       __catch$_wrap_delete_func_t$8 000000018001947e f   funcs.obj
 0001:00018496       _wrap_delete_func_t$catch$1 0000000180019496 f   funcs.obj
 0001:000184a3       __catch$_wrap_delete_func_t$10 00000001800194a3 f   funcs.obj
 0001:000184cf       _wrap_delete_func_t$catch$0 00000001800194cf f   funcs.obj
 0001:000184dc       __catch$_wrap_delete_func_t$12 00000001800194dc f   funcs.obj
 0001:00018510       _wrap_delete_func_tail_iterator_t$catch$5 0000000180019510 f   funcs.obj
 0001:0001851d       __catch$_wrap_delete_func_tail_iterator_t$2 000000018001951d f   funcs.obj
 0001:00018543       _wrap_delete_func_tail_iterator_t$catch$4 0000000180019543 f   funcs.obj
 0001:00018550       __catch$_wrap_delete_func_tail_iterator_t$4 0000000180019550 f   funcs.obj
 0001:0001857c       _wrap_delete_func_tail_iterator_t$catch$3 000000018001957c f   funcs.obj
 0001:00018589       __catch$_wrap_delete_func_tail_iterator_t$6 0000000180019589 f   funcs.obj
 0001:000185a1       _wrap_delete_func_tail_iterator_t$catch$2 00000001800195a1 f   funcs.obj
 0001:000185ae       __catch$_wrap_delete_func_tail_iterator_t$8 00000001800195ae f   funcs.obj
 0001:000185c6       _wrap_delete_func_tail_iterator_t$catch$1 00000001800195c6 f   funcs.obj
 0001:000185d3       __catch$_wrap_delete_func_tail_iterator_t$10 00000001800195d3 f   funcs.obj
 0001:000185ff       _wrap_delete_func_tail_iterator_t$catch$0 00000001800195ff f   funcs.obj
 0001:0001860c       __catch$_wrap_delete_func_tail_iterator_t$12 000000018001960c f   funcs.obj
 0001:00018640       _wrap_delete_lock_func$catch$5 0000000180019640 f   funcs.obj
 0001:0001864d       __catch$_wrap_delete_lock_func$2 000000018001964d f   funcs.obj
 0001:00018673       _wrap_delete_lock_func$catch$4 0000000180019673 f   funcs.obj
 0001:00018680       __catch$_wrap_delete_lock_func$4 0000000180019680 f   funcs.obj
 0001:000186ac       _wrap_delete_lock_func$catch$3 00000001800196ac f   funcs.obj
 0001:000186b9       __catch$_wrap_delete_lock_func$6 00000001800196b9 f   funcs.obj
 0001:000186d1       _wrap_delete_lock_func$catch$2 00000001800196d1 f   funcs.obj
 0001:000186de       __catch$_wrap_delete_lock_func$8 00000001800196de f   funcs.obj
 0001:000186f6       _wrap_delete_lock_func$catch$1 00000001800196f6 f   funcs.obj
 0001:00018703       __catch$_wrap_delete_lock_func$10 0000000180019703 f   funcs.obj
 0001:0001872f       _wrap_delete_lock_func$catch$0 000000018001972f f   funcs.obj
 0001:0001873c       __catch$_wrap_delete_lock_func$12 000000018001973c f   funcs.obj
 0001:00018770       _wrap_delete_range_array$catch$5 0000000180019770 f   funcs.obj
 0001:0001877d       __catch$_wrap_delete_range_array$2 000000018001977d f   funcs.obj
 0001:000187a3       _wrap_delete_range_array$catch$4 00000001800197a3 f   funcs.obj
 0001:000187b0       __catch$_wrap_delete_range_array$4 00000001800197b0 f   funcs.obj
 0001:000187dc       _wrap_delete_range_array$catch$3 00000001800197dc f   funcs.obj
 0001:000187e9       __catch$_wrap_delete_range_array$6 00000001800197e9 f   funcs.obj
 0001:00018801       _wrap_delete_range_array$catch$2 0000000180019801 f   funcs.obj
 0001:0001880e       __catch$_wrap_delete_range_array$8 000000018001980e f   funcs.obj
 0001:00018826       _wrap_delete_range_array$catch$1 0000000180019826 f   funcs.obj
 0001:00018833       __catch$_wrap_delete_range_array$10 0000000180019833 f   funcs.obj
 0001:0001885f       _wrap_delete_range_array$catch$0 000000018001985f f   funcs.obj
 0001:0001886c       __catch$_wrap_delete_range_array$12 000000018001986c f   funcs.obj
 0001:000188a0       _wrap_delete_regarg_t$catch$5 00000001800198a0 f   funcs.obj
 0001:000188ad       __catch$_wrap_delete_regarg_t$2 00000001800198ad f   funcs.obj
 0001:000188d3       _wrap_delete_regarg_t$catch$4 00000001800198d3 f   funcs.obj
 0001:000188e0       __catch$_wrap_delete_regarg_t$4 00000001800198e0 f   funcs.obj
 0001:0001890c       _wrap_delete_regarg_t$catch$3 000000018001990c f   funcs.obj
 0001:00018919       __catch$_wrap_delete_regarg_t$6 0000000180019919 f   funcs.obj
 0001:00018931       _wrap_delete_regarg_t$catch$2 0000000180019931 f   funcs.obj
 0001:0001893e       __catch$_wrap_delete_regarg_t$8 000000018001993e f   funcs.obj
 0001:00018956       _wrap_delete_regarg_t$catch$1 0000000180019956 f   funcs.obj
 0001:00018963       __catch$_wrap_delete_regarg_t$10 0000000180019963 f   funcs.obj
 0001:0001898f       _wrap_delete_regarg_t$catch$0 000000018001998f f   funcs.obj
 0001:0001899c       __catch$_wrap_delete_regarg_t$12 000000018001999c f   funcs.obj
 0001:000189d0       _wrap_delete_regvar_array$catch$5 00000001800199d0 f   funcs.obj
 0001:000189dd       __catch$_wrap_delete_regvar_array$2 00000001800199dd f   funcs.obj
 0001:00018a03       _wrap_delete_regvar_array$catch$4 0000000180019a03 f   funcs.obj
 0001:00018a10       __catch$_wrap_delete_regvar_array$4 0000000180019a10 f   funcs.obj
 0001:00018a3c       _wrap_delete_regvar_array$catch$3 0000000180019a3c f   funcs.obj
 0001:00018a49       __catch$_wrap_delete_regvar_array$6 0000000180019a49 f   funcs.obj
 0001:00018a61       _wrap_delete_regvar_array$catch$2 0000000180019a61 f   funcs.obj
 0001:00018a6e       __catch$_wrap_delete_regvar_array$8 0000000180019a6e f   funcs.obj
 0001:00018a86       _wrap_delete_regvar_array$catch$1 0000000180019a86 f   funcs.obj
 0001:00018a93       __catch$_wrap_delete_regvar_array$10 0000000180019a93 f   funcs.obj
 0001:00018abf       _wrap_delete_regvar_array$catch$0 0000000180019abf f   funcs.obj
 0001:00018acc       __catch$_wrap_delete_regvar_array$12 0000000180019acc f   funcs.obj
 0001:00018b00       _wrap_delete_stkpnt_array$catch$5 0000000180019b00 f   funcs.obj
 0001:00018b0d       __catch$_wrap_delete_stkpnt_array$2 0000000180019b0d f   funcs.obj
 0001:00018b33       _wrap_delete_stkpnt_array$catch$4 0000000180019b33 f   funcs.obj
 0001:00018b40       __catch$_wrap_delete_stkpnt_array$4 0000000180019b40 f   funcs.obj
 0001:00018b6c       _wrap_delete_stkpnt_array$catch$3 0000000180019b6c f   funcs.obj
 0001:00018b79       __catch$_wrap_delete_stkpnt_array$6 0000000180019b79 f   funcs.obj
 0001:00018b91       _wrap_delete_stkpnt_array$catch$2 0000000180019b91 f   funcs.obj
 0001:00018b9e       __catch$_wrap_delete_stkpnt_array$8 0000000180019b9e f   funcs.obj
 0001:00018bb6       _wrap_delete_stkpnt_array$catch$1 0000000180019bb6 f   funcs.obj
 0001:00018bc3       __catch$_wrap_delete_stkpnt_array$10 0000000180019bc3 f   funcs.obj
 0001:00018bef       _wrap_delete_stkpnt_array$catch$0 0000000180019bef f   funcs.obj
 0001:00018bfc       __catch$_wrap_delete_stkpnt_array$12 0000000180019bfc f   funcs.obj
 0001:00018c30       _wrap_f_any$catch$5        0000000180019c30 f   funcs.obj
 0001:00018c3d       __catch$_wrap_f_any$3      0000000180019c3d f   funcs.obj
 0001:00018c63       _wrap_f_any$catch$4        0000000180019c63 f   funcs.obj
 0001:00018c70       __catch$_wrap_f_any$5      0000000180019c70 f   funcs.obj
 0001:00018c9c       _wrap_f_any$catch$3        0000000180019c9c f   funcs.obj
 0001:00018ca9       __catch$_wrap_f_any$7      0000000180019ca9 f   funcs.obj
 0001:00018cc1       _wrap_f_any$catch$2        0000000180019cc1 f   funcs.obj
 0001:00018cce       __catch$_wrap_f_any$9      0000000180019cce f   funcs.obj
 0001:00018ce6       _wrap_f_any$catch$1        0000000180019ce6 f   funcs.obj
 0001:00018cf3       __catch$_wrap_f_any$11     0000000180019cf3 f   funcs.obj
 0001:00018d1f       _wrap_f_any$catch$0        0000000180019d1f f   funcs.obj
 0001:00018d2c       __catch$_wrap_f_any$13     0000000180019d2c f   funcs.obj
 0001:00018d60       _wrap_find_func_bounds$catch$5 0000000180019d60 f   funcs.obj
 0001:00018d6d       __catch$_wrap_find_func_bounds$3 0000000180019d6d f   funcs.obj
 0001:00018d93       _wrap_find_func_bounds$catch$4 0000000180019d93 f   funcs.obj
 0001:00018da0       __catch$_wrap_find_func_bounds$5 0000000180019da0 f   funcs.obj
 0001:00018dcc       _wrap_find_func_bounds$catch$3 0000000180019dcc f   funcs.obj
 0001:00018dd9       __catch$_wrap_find_func_bounds$7 0000000180019dd9 f   funcs.obj
 0001:00018df1       _wrap_find_func_bounds$catch$2 0000000180019df1 f   funcs.obj
 0001:00018dfe       __catch$_wrap_find_func_bounds$9 0000000180019dfe f   funcs.obj
 0001:00018e16       _wrap_find_func_bounds$catch$1 0000000180019e16 f   funcs.obj
 0001:00018e23       __catch$_wrap_find_func_bounds$11 0000000180019e23 f   funcs.obj
 0001:00018e4f       _wrap_find_func_bounds$catch$0 0000000180019e4f f   funcs.obj
 0001:00018e5c       __catch$_wrap_find_func_bounds$13 0000000180019e5c f   funcs.obj
 0001:00018e90       _wrap_func_contains$catch$5 0000000180019e90 f   funcs.obj
 0001:00018e9d       __catch$_wrap_func_contains$3 0000000180019e9d f   funcs.obj
 0001:00018ec3       _wrap_func_contains$catch$4 0000000180019ec3 f   funcs.obj
 0001:00018ed0       __catch$_wrap_func_contains$5 0000000180019ed0 f   funcs.obj
 0001:00018efc       _wrap_func_contains$catch$3 0000000180019efc f   funcs.obj
 0001:00018f09       __catch$_wrap_func_contains$7 0000000180019f09 f   funcs.obj
 0001:00018f21       _wrap_func_contains$catch$2 0000000180019f21 f   funcs.obj
 0001:00018f2e       __catch$_wrap_func_contains$9 0000000180019f2e f   funcs.obj
 0001:00018f46       _wrap_func_contains$catch$1 0000000180019f46 f   funcs.obj
 0001:00018f53       __catch$_wrap_func_contains$11 0000000180019f53 f   funcs.obj
 0001:00018f7f       _wrap_func_contains$catch$0 0000000180019f7f f   funcs.obj
 0001:00018f8c       __catch$_wrap_func_contains$13 0000000180019f8c f   funcs.obj
 0001:00018fc0       _wrap_func_does_return$catch$5 0000000180019fc0 f   funcs.obj
 0001:00018fcd       __catch$_wrap_func_does_return$2 0000000180019fcd f   funcs.obj
 0001:00018ff3       _wrap_func_does_return$catch$4 0000000180019ff3 f   funcs.obj
 0001:00019000       __catch$_wrap_func_does_return$4 000000018001a000 f   funcs.obj
 0001:0001902c       _wrap_func_does_return$catch$3 000000018001a02c f   funcs.obj
 0001:00019039       __catch$_wrap_func_does_return$6 000000018001a039 f   funcs.obj
 0001:00019051       _wrap_func_does_return$catch$2 000000018001a051 f   funcs.obj
 0001:0001905e       __catch$_wrap_func_does_return$8 000000018001a05e f   funcs.obj
 0001:00019076       _wrap_func_does_return$catch$1 000000018001a076 f   funcs.obj
 0001:00019083       __catch$_wrap_func_does_return$10 000000018001a083 f   funcs.obj
 0001:000190af       _wrap_func_does_return$catch$0 000000018001a0af f   funcs.obj
 0001:000190bc       __catch$_wrap_func_does_return$12 000000018001a0bc f   funcs.obj
 0001:000190f0       _wrap_func_item_iterator_decode_preceding_insn$catch$6 000000018001a0f0 f   funcs.obj
 0001:000190fd       __catch$_wrap_func_item_iterator_decode_preceding_insn$6 000000018001a0fd f   funcs.obj
 0001:00019123       _wrap_func_item_iterator_decode_preceding_insn$catch$5 000000018001a123 f   funcs.obj
 0001:00019130       __catch$_wrap_func_item_iterator_decode_preceding_insn$8 000000018001a130 f   funcs.obj
 0001:0001915f       _wrap_func_item_iterator_decode_preceding_insn$catch$4 000000018001a15f f   funcs.obj
 0001:0001916c       __catch$_wrap_func_item_iterator_decode_preceding_insn$10 000000018001a16c f   funcs.obj
 0001:00019187       _wrap_func_item_iterator_decode_preceding_insn$catch$3 000000018001a187 f   funcs.obj
 0001:00019194       __catch$_wrap_func_item_iterator_decode_preceding_insn$12 000000018001a194 f   funcs.obj
 0001:000191ac       _wrap_func_item_iterator_decode_preceding_insn$catch$2 000000018001a1ac f   funcs.obj
 0001:000191b9       __catch$_wrap_func_item_iterator_decode_preceding_insn$14 000000018001a1b9 f   funcs.obj
 0001:000191e5       _wrap_func_item_iterator_decode_preceding_insn$catch$1 000000018001a1e5 f   funcs.obj
 0001:000191f2       __catch$_wrap_func_item_iterator_decode_preceding_insn$16 000000018001a1f2 f   funcs.obj
 0001:00019220       _wrap_func_item_iterator_t_decode_preceding_insn$dtor$0 000000018001a220 f   funcs.obj
 0001:00019220       _wrap_func_item_iterator_decode_preceding_insn$dtor$0 000000018001a220 f   funcs.obj
 0001:00019230       _wrap_func_item_iterator_decode_prev_insn$catch$5 000000018001a230 f   funcs.obj
 0001:0001923d       __catch$_wrap_func_item_iterator_decode_prev_insn$3 000000018001a23d f   funcs.obj
 0001:00019263       _wrap_func_item_iterator_decode_prev_insn$catch$4 000000018001a263 f   funcs.obj
 0001:00019270       __catch$_wrap_func_item_iterator_decode_prev_insn$5 000000018001a270 f   funcs.obj
 0001:0001929c       _wrap_func_item_iterator_decode_prev_insn$catch$3 000000018001a29c f   funcs.obj
 0001:000192a9       __catch$_wrap_func_item_iterator_decode_prev_insn$7 000000018001a2a9 f   funcs.obj
 0001:000192c1       _wrap_func_item_iterator_decode_prev_insn$catch$2 000000018001a2c1 f   funcs.obj
 0001:000192ce       __catch$_wrap_func_item_iterator_decode_prev_insn$9 000000018001a2ce f   funcs.obj
 0001:000192e6       _wrap_func_item_iterator_decode_prev_insn$catch$1 000000018001a2e6 f   funcs.obj
 0001:000192f3       __catch$_wrap_func_item_iterator_decode_prev_insn$11 000000018001a2f3 f   funcs.obj
 0001:0001931f       _wrap_func_item_iterator_decode_prev_insn$catch$0 000000018001a31f f   funcs.obj
 0001:0001932c       __catch$_wrap_func_item_iterator_decode_prev_insn$13 000000018001a32c f   funcs.obj
 0001:00019360       _wrap_func_item_iterator_next$catch$5 000000018001a360 f   funcs.obj
 0001:0001936d       __catch$_wrap_func_item_iterator_next$4 000000018001a36d f   funcs.obj
 0001:00019393       _wrap_func_item_iterator_next$catch$4 000000018001a393 f   funcs.obj
 0001:000193a0       __catch$_wrap_func_item_iterator_next$6 000000018001a3a0 f   funcs.obj
 0001:000193cc       _wrap_func_item_iterator_next$catch$3 000000018001a3cc f   funcs.obj
 0001:000193d9       __catch$_wrap_func_item_iterator_next$8 000000018001a3d9 f   funcs.obj
 0001:000193f1       _wrap_func_item_iterator_next$catch$2 000000018001a3f1 f   funcs.obj
 0001:000193fe       __catch$_wrap_func_item_iterator_next$10 000000018001a3fe f   funcs.obj
 0001:00019416       _wrap_func_item_iterator_next$catch$1 000000018001a416 f   funcs.obj
 0001:00019423       __catch$_wrap_func_item_iterator_next$12 000000018001a423 f   funcs.obj
 0001:0001944f       _wrap_func_item_iterator_next$catch$0 000000018001a44f f   funcs.obj
 0001:0001945c       __catch$_wrap_func_item_iterator_next$14 000000018001a45c f   funcs.obj
 0001:00019490       _wrap_func_item_iterator_prev$catch$5 000000018001a490 f   funcs.obj
 0001:0001949d       __catch$_wrap_func_item_iterator_prev$4 000000018001a49d f   funcs.obj
 0001:000194c3       _wrap_func_item_iterator_prev$catch$4 000000018001a4c3 f   funcs.obj
 0001:000194d0       __catch$_wrap_func_item_iterator_prev$6 000000018001a4d0 f   funcs.obj
 0001:000194fc       _wrap_func_item_iterator_prev$catch$3 000000018001a4fc f   funcs.obj
 0001:00019509       __catch$_wrap_func_item_iterator_prev$8 000000018001a509 f   funcs.obj
 0001:00019521       _wrap_func_item_iterator_prev$catch$2 000000018001a521 f   funcs.obj
 0001:0001952e       __catch$_wrap_func_item_iterator_prev$10 000000018001a52e f   funcs.obj
 0001:00019546       _wrap_func_item_iterator_prev$catch$1 000000018001a546 f   funcs.obj
 0001:00019553       __catch$_wrap_func_item_iterator_prev$12 000000018001a553 f   funcs.obj
 0001:0001957f       _wrap_func_item_iterator_prev$catch$0 000000018001a57f f   funcs.obj
 0001:0001958c       __catch$_wrap_func_item_iterator_prev$14 000000018001a58c f   funcs.obj
 0001:000195c0       _wrap_func_item_iterator_t_chunk$catch$5 000000018001a5c0 f   funcs.obj
 0001:000195cd       __catch$_wrap_func_item_iterator_t_chunk$2 000000018001a5cd f   funcs.obj
 0001:000195f3       _wrap_func_item_iterator_t_chunk$catch$4 000000018001a5f3 f   funcs.obj
 0001:00019600       __catch$_wrap_func_item_iterator_t_chunk$4 000000018001a600 f   funcs.obj
 0001:0001962c       _wrap_func_item_iterator_t_chunk$catch$3 000000018001a62c f   funcs.obj
 0001:00019639       __catch$_wrap_func_item_iterator_t_chunk$6 000000018001a639 f   funcs.obj
 0001:00019651       _wrap_func_item_iterator_t_chunk$catch$2 000000018001a651 f   funcs.obj
 0001:0001965e       __catch$_wrap_func_item_iterator_t_chunk$8 000000018001a65e f   funcs.obj
 0001:00019676       _wrap_func_item_iterator_t_chunk$catch$1 000000018001a676 f   funcs.obj
 0001:00019683       __catch$_wrap_func_item_iterator_t_chunk$10 000000018001a683 f   funcs.obj
 0001:000196af       _wrap_func_item_iterator_t_chunk$catch$0 000000018001a6af f   funcs.obj
 0001:000196bc       __catch$_wrap_func_item_iterator_t_chunk$12 000000018001a6bc f   funcs.obj
 0001:000196f0       _wrap_func_item_iterator_t_current$catch$5 000000018001a6f0 f   funcs.obj
 0001:000196fd       __catch$_wrap_func_item_iterator_t_current$2 000000018001a6fd f   funcs.obj
 0001:00019723       _wrap_func_item_iterator_t_current$catch$4 000000018001a723 f   funcs.obj
 0001:00019730       __catch$_wrap_func_item_iterator_t_current$4 000000018001a730 f   funcs.obj
 0001:0001975c       _wrap_func_item_iterator_t_current$catch$3 000000018001a75c f   funcs.obj
 0001:00019769       __catch$_wrap_func_item_iterator_t_current$6 000000018001a769 f   funcs.obj
 0001:00019781       _wrap_func_item_iterator_t_current$catch$2 000000018001a781 f   funcs.obj
 0001:0001978e       __catch$_wrap_func_item_iterator_t_current$8 000000018001a78e f   funcs.obj
 0001:000197a6       _wrap_func_item_iterator_t_current$catch$1 000000018001a7a6 f   funcs.obj
 0001:000197b3       __catch$_wrap_func_item_iterator_t_current$10 000000018001a7b3 f   funcs.obj
 0001:000197df       _wrap_func_item_iterator_t_current$catch$0 000000018001a7df f   funcs.obj
 0001:000197ec       __catch$_wrap_func_item_iterator_t_current$12 000000018001a7ec f   funcs.obj
 0001:00019820       _wrap_func_item_iterator_t_decode_preceding_insn$catch$6 000000018001a820 f   funcs.obj
 0001:0001982d       __catch$_wrap_func_item_iterator_t_decode_preceding_insn$6 000000018001a82d f   funcs.obj
 0001:00019853       _wrap_func_item_iterator_t_decode_preceding_insn$catch$5 000000018001a853 f   funcs.obj
 0001:00019860       __catch$_wrap_func_item_iterator_t_decode_preceding_insn$8 000000018001a860 f   funcs.obj
 0001:0001988f       _wrap_func_item_iterator_t_decode_preceding_insn$catch$4 000000018001a88f f   funcs.obj
 0001:0001989c       __catch$_wrap_func_item_iterator_t_decode_preceding_insn$10 000000018001a89c f   funcs.obj
 0001:000198b7       _wrap_func_item_iterator_t_decode_preceding_insn$catch$3 000000018001a8b7 f   funcs.obj
 0001:000198c4       __catch$_wrap_func_item_iterator_t_decode_preceding_insn$12 000000018001a8c4 f   funcs.obj
 0001:000198dc       _wrap_func_item_iterator_t_decode_preceding_insn$catch$2 000000018001a8dc f   funcs.obj
 0001:000198e9       __catch$_wrap_func_item_iterator_t_decode_preceding_insn$14 000000018001a8e9 f   funcs.obj
 0001:00019915       _wrap_func_item_iterator_t_decode_preceding_insn$catch$1 000000018001a915 f   funcs.obj
 0001:00019922       __catch$_wrap_func_item_iterator_t_decode_preceding_insn$16 000000018001a922 f   funcs.obj
 0001:00019950       _wrap_func_item_iterator_t_decode_prev_insn$catch$5 000000018001a950 f   funcs.obj
 0001:0001995d       __catch$_wrap_func_item_iterator_t_decode_prev_insn$3 000000018001a95d f   funcs.obj
 0001:00019983       _wrap_func_item_iterator_t_decode_prev_insn$catch$4 000000018001a983 f   funcs.obj
 0001:00019990       __catch$_wrap_func_item_iterator_t_decode_prev_insn$5 000000018001a990 f   funcs.obj
 0001:000199bc       _wrap_func_item_iterator_t_decode_prev_insn$catch$3 000000018001a9bc f   funcs.obj
 0001:000199c9       __catch$_wrap_func_item_iterator_t_decode_prev_insn$7 000000018001a9c9 f   funcs.obj
 0001:000199e1       _wrap_func_item_iterator_t_decode_prev_insn$catch$2 000000018001a9e1 f   funcs.obj
 0001:000199ee       __catch$_wrap_func_item_iterator_t_decode_prev_insn$9 000000018001a9ee f   funcs.obj
 0001:00019a06       _wrap_func_item_iterator_t_decode_prev_insn$catch$1 000000018001aa06 f   funcs.obj
 0001:00019a13       __catch$_wrap_func_item_iterator_t_decode_prev_insn$11 000000018001aa13 f   funcs.obj
 0001:00019a3f       _wrap_func_item_iterator_t_decode_prev_insn$catch$0 000000018001aa3f f   funcs.obj
 0001:00019a4c       __catch$_wrap_func_item_iterator_t_decode_prev_insn$13 000000018001aa4c f   funcs.obj
 0001:00019a80       _wrap_func_item_iterator_t_first$catch$5 000000018001aa80 f   funcs.obj
 0001:00019a8d       __catch$_wrap_func_item_iterator_t_first$2 000000018001aa8d f   funcs.obj
 0001:00019ab3       _wrap_func_item_iterator_t_first$catch$4 000000018001aab3 f   funcs.obj
 0001:00019ac0       __catch$_wrap_func_item_iterator_t_first$4 000000018001aac0 f   funcs.obj
 0001:00019aec       _wrap_func_item_iterator_t_first$catch$3 000000018001aaec f   funcs.obj
 0001:00019af9       __catch$_wrap_func_item_iterator_t_first$6 000000018001aaf9 f   funcs.obj
 0001:00019b11       _wrap_func_item_iterator_t_first$catch$2 000000018001ab11 f   funcs.obj
 0001:00019b1e       __catch$_wrap_func_item_iterator_t_first$8 000000018001ab1e f   funcs.obj
 0001:00019b36       _wrap_func_item_iterator_t_first$catch$1 000000018001ab36 f   funcs.obj
 0001:00019b43       __catch$_wrap_func_item_iterator_t_first$10 000000018001ab43 f   funcs.obj
 0001:00019b6f       _wrap_func_item_iterator_t_first$catch$0 000000018001ab6f f   funcs.obj
 0001:00019b7c       __catch$_wrap_func_item_iterator_t_first$12 000000018001ab7c f   funcs.obj
 0001:00019bb0       _wrap_func_item_iterator_t_last$catch$5 000000018001abb0 f   funcs.obj
 0001:00019bbd       __catch$_wrap_func_item_iterator_t_last$2 000000018001abbd f   funcs.obj
 0001:00019be3       _wrap_func_item_iterator_t_last$catch$4 000000018001abe3 f   funcs.obj
 0001:00019bf0       __catch$_wrap_func_item_iterator_t_last$4 000000018001abf0 f   funcs.obj
 0001:00019c1c       _wrap_func_item_iterator_t_last$catch$3 000000018001ac1c f   funcs.obj
 0001:00019c29       __catch$_wrap_func_item_iterator_t_last$6 000000018001ac29 f   funcs.obj
 0001:00019c41       _wrap_func_item_iterator_t_last$catch$2 000000018001ac41 f   funcs.obj
 0001:00019c4e       __catch$_wrap_func_item_iterator_t_last$8 000000018001ac4e f   funcs.obj
 0001:00019c66       _wrap_func_item_iterator_t_last$catch$1 000000018001ac66 f   funcs.obj
 0001:00019c73       __catch$_wrap_func_item_iterator_t_last$10 000000018001ac73 f   funcs.obj
 0001:00019c9f       _wrap_func_item_iterator_t_last$catch$0 000000018001ac9f f   funcs.obj
 0001:00019cac       __catch$_wrap_func_item_iterator_t_last$12 000000018001acac f   funcs.obj
 0001:00019ce0       _wrap_func_item_iterator_t_next$catch$5 000000018001ace0 f   funcs.obj
 0001:00019ced       __catch$_wrap_func_item_iterator_t_next$4 000000018001aced f   funcs.obj
 0001:00019d13       _wrap_func_item_iterator_t_next$catch$4 000000018001ad13 f   funcs.obj
 0001:00019d20       __catch$_wrap_func_item_iterator_t_next$6 000000018001ad20 f   funcs.obj
 0001:00019d4c       _wrap_func_item_iterator_t_next$catch$3 000000018001ad4c f   funcs.obj
 0001:00019d59       __catch$_wrap_func_item_iterator_t_next$8 000000018001ad59 f   funcs.obj
 0001:00019d71       _wrap_func_item_iterator_t_next$catch$2 000000018001ad71 f   funcs.obj
 0001:00019d7e       __catch$_wrap_func_item_iterator_t_next$10 000000018001ad7e f   funcs.obj
 0001:00019d96       _wrap_func_item_iterator_t_next$catch$1 000000018001ad96 f   funcs.obj
 0001:00019da3       __catch$_wrap_func_item_iterator_t_next$12 000000018001ada3 f   funcs.obj
 0001:00019dcf       _wrap_func_item_iterator_t_next$catch$0 000000018001adcf f   funcs.obj
 0001:00019ddc       __catch$_wrap_func_item_iterator_t_next$14 000000018001addc f   funcs.obj
 0001:00019e10       _wrap_func_item_iterator_t_next_addr$catch$5 000000018001ae10 f   funcs.obj
 0001:00019e1d       __catch$_wrap_func_item_iterator_t_next_addr$2 000000018001ae1d f   funcs.obj
 0001:00019e43       _wrap_func_item_iterator_t_next_addr$catch$4 000000018001ae43 f   funcs.obj
 0001:00019e50       __catch$_wrap_func_item_iterator_t_next_addr$4 000000018001ae50 f   funcs.obj
 0001:00019e7c       _wrap_func_item_iterator_t_next_addr$catch$3 000000018001ae7c f   funcs.obj
 0001:00019e89       __catch$_wrap_func_item_iterator_t_next_addr$6 000000018001ae89 f   funcs.obj
 0001:00019ea1       _wrap_func_item_iterator_t_next_addr$catch$2 000000018001aea1 f   funcs.obj
 0001:00019eae       __catch$_wrap_func_item_iterator_t_next_addr$8 000000018001aeae f   funcs.obj
 0001:00019ec6       _wrap_func_item_iterator_t_next_addr$catch$1 000000018001aec6 f   funcs.obj
 0001:00019ed3       __catch$_wrap_func_item_iterator_t_next_addr$10 000000018001aed3 f   funcs.obj
 0001:00019eff       _wrap_func_item_iterator_t_next_addr$catch$0 000000018001aeff f   funcs.obj
 0001:00019f0c       __catch$_wrap_func_item_iterator_t_next_addr$12 000000018001af0c f   funcs.obj
 0001:00019f40       _wrap_func_item_iterator_t_next_code$catch$5 000000018001af40 f   funcs.obj
 0001:00019f4d       __catch$_wrap_func_item_iterator_t_next_code$2 000000018001af4d f   funcs.obj
 0001:00019f73       _wrap_func_item_iterator_t_next_code$catch$4 000000018001af73 f   funcs.obj
 0001:00019f80       __catch$_wrap_func_item_iterator_t_next_code$4 000000018001af80 f   funcs.obj
 0001:00019fac       _wrap_func_item_iterator_t_next_code$catch$3 000000018001afac f   funcs.obj
 0001:00019fb9       __catch$_wrap_func_item_iterator_t_next_code$6 000000018001afb9 f   funcs.obj
 0001:00019fd1       _wrap_func_item_iterator_t_next_code$catch$2 000000018001afd1 f   funcs.obj
 0001:00019fde       __catch$_wrap_func_item_iterator_t_next_code$8 000000018001afde f   funcs.obj
 0001:00019ff6       _wrap_func_item_iterator_t_next_code$catch$1 000000018001aff6 f   funcs.obj
 0001:0001a003       __catch$_wrap_func_item_iterator_t_next_code$10 000000018001b003 f   funcs.obj
 0001:0001a02f       _wrap_func_item_iterator_t_next_code$catch$0 000000018001b02f f   funcs.obj
 0001:0001a03c       __catch$_wrap_func_item_iterator_t_next_code$12 000000018001b03c f   funcs.obj
 0001:0001a070       _wrap_func_item_iterator_t_next_data$catch$5 000000018001b070 f   funcs.obj
 0001:0001a07d       __catch$_wrap_func_item_iterator_t_next_data$2 000000018001b07d f   funcs.obj
 0001:0001a0a3       _wrap_func_item_iterator_t_next_data$catch$4 000000018001b0a3 f   funcs.obj
 0001:0001a0b0       __catch$_wrap_func_item_iterator_t_next_data$4 000000018001b0b0 f   funcs.obj
 0001:0001a0dc       _wrap_func_item_iterator_t_next_data$catch$3 000000018001b0dc f   funcs.obj
 0001:0001a0e9       __catch$_wrap_func_item_iterator_t_next_data$6 000000018001b0e9 f   funcs.obj
 0001:0001a101       _wrap_func_item_iterator_t_next_data$catch$2 000000018001b101 f   funcs.obj
 0001:0001a10e       __catch$_wrap_func_item_iterator_t_next_data$8 000000018001b10e f   funcs.obj
 0001:0001a126       _wrap_func_item_iterator_t_next_data$catch$1 000000018001b126 f   funcs.obj
 0001:0001a133       __catch$_wrap_func_item_iterator_t_next_data$10 000000018001b133 f   funcs.obj
 0001:0001a15f       _wrap_func_item_iterator_t_next_data$catch$0 000000018001b15f f   funcs.obj
 0001:0001a16c       __catch$_wrap_func_item_iterator_t_next_data$12 000000018001b16c f   funcs.obj
 0001:0001a1a0       _wrap_func_item_iterator_t_next_head$catch$5 000000018001b1a0 f   funcs.obj
 0001:0001a1ad       __catch$_wrap_func_item_iterator_t_next_head$2 000000018001b1ad f   funcs.obj
 0001:0001a1d3       _wrap_func_item_iterator_t_next_head$catch$4 000000018001b1d3 f   funcs.obj
 0001:0001a1e0       __catch$_wrap_func_item_iterator_t_next_head$4 000000018001b1e0 f   funcs.obj
 0001:0001a20c       _wrap_func_item_iterator_t_next_head$catch$3 000000018001b20c f   funcs.obj
 0001:0001a219       __catch$_wrap_func_item_iterator_t_next_head$6 000000018001b219 f   funcs.obj
 0001:0001a231       _wrap_func_item_iterator_t_next_head$catch$2 000000018001b231 f   funcs.obj
 0001:0001a23e       __catch$_wrap_func_item_iterator_t_next_head$8 000000018001b23e f   funcs.obj
 0001:0001a256       _wrap_func_item_iterator_t_next_head$catch$1 000000018001b256 f   funcs.obj
 0001:0001a263       __catch$_wrap_func_item_iterator_t_next_head$10 000000018001b263 f   funcs.obj
 0001:0001a28f       _wrap_func_item_iterator_t_next_head$catch$0 000000018001b28f f   funcs.obj
 0001:0001a29c       __catch$_wrap_func_item_iterator_t_next_head$12 000000018001b29c f   funcs.obj
 0001:0001a2d0       _wrap_func_item_iterator_t_next_not_tail$catch$5 000000018001b2d0 f   funcs.obj
 0001:0001a2dd       __catch$_wrap_func_item_iterator_t_next_not_tail$2 000000018001b2dd f   funcs.obj
 0001:0001a303       _wrap_func_item_iterator_t_next_not_tail$catch$4 000000018001b303 f   funcs.obj
 0001:0001a310       __catch$_wrap_func_item_iterator_t_next_not_tail$4 000000018001b310 f   funcs.obj
 0001:0001a33c       _wrap_func_item_iterator_t_next_not_tail$catch$3 000000018001b33c f   funcs.obj
 0001:0001a349       __catch$_wrap_func_item_iterator_t_next_not_tail$6 000000018001b349 f   funcs.obj
 0001:0001a361       _wrap_func_item_iterator_t_next_not_tail$catch$2 000000018001b361 f   funcs.obj
 0001:0001a36e       __catch$_wrap_func_item_iterator_t_next_not_tail$8 000000018001b36e f   funcs.obj
 0001:0001a386       _wrap_func_item_iterator_t_next_not_tail$catch$1 000000018001b386 f   funcs.obj
 0001:0001a393       __catch$_wrap_func_item_iterator_t_next_not_tail$10 000000018001b393 f   funcs.obj
 0001:0001a3bf       _wrap_func_item_iterator_t_next_not_tail$catch$0 000000018001b3bf f   funcs.obj
 0001:0001a3cc       __catch$_wrap_func_item_iterator_t_next_not_tail$12 000000018001b3cc f   funcs.obj
 0001:0001a400       _wrap_func_item_iterator_t_prev$catch$5 000000018001b400 f   funcs.obj
 0001:0001a40d       __catch$_wrap_func_item_iterator_t_prev$4 000000018001b40d f   funcs.obj
 0001:0001a433       _wrap_func_item_iterator_t_prev$catch$4 000000018001b433 f   funcs.obj
 0001:0001a440       __catch$_wrap_func_item_iterator_t_prev$6 000000018001b440 f   funcs.obj
 0001:0001a46c       _wrap_func_item_iterator_t_prev$catch$3 000000018001b46c f   funcs.obj
 0001:0001a479       __catch$_wrap_func_item_iterator_t_prev$8 000000018001b479 f   funcs.obj
 0001:0001a491       _wrap_func_item_iterator_t_prev$catch$2 000000018001b491 f   funcs.obj
 0001:0001a49e       __catch$_wrap_func_item_iterator_t_prev$10 000000018001b49e f   funcs.obj
 0001:0001a4b6       _wrap_func_item_iterator_t_prev$catch$1 000000018001b4b6 f   funcs.obj
 0001:0001a4c3       __catch$_wrap_func_item_iterator_t_prev$12 000000018001b4c3 f   funcs.obj
 0001:0001a4ef       _wrap_func_item_iterator_t_prev$catch$0 000000018001b4ef f   funcs.obj
 0001:0001a4fc       __catch$_wrap_func_item_iterator_t_prev$14 000000018001b4fc f   funcs.obj
 0001:0001a530       _wrap_func_item_iterator_t_prev_addr$catch$5 000000018001b530 f   funcs.obj
 0001:0001a53d       __catch$_wrap_func_item_iterator_t_prev_addr$2 000000018001b53d f   funcs.obj
 0001:0001a563       _wrap_func_item_iterator_t_prev_addr$catch$4 000000018001b563 f   funcs.obj
 0001:0001a570       __catch$_wrap_func_item_iterator_t_prev_addr$4 000000018001b570 f   funcs.obj
 0001:0001a59c       _wrap_func_item_iterator_t_prev_addr$catch$3 000000018001b59c f   funcs.obj
 0001:0001a5a9       __catch$_wrap_func_item_iterator_t_prev_addr$6 000000018001b5a9 f   funcs.obj
 0001:0001a5c1       _wrap_func_item_iterator_t_prev_addr$catch$2 000000018001b5c1 f   funcs.obj
 0001:0001a5ce       __catch$_wrap_func_item_iterator_t_prev_addr$8 000000018001b5ce f   funcs.obj
 0001:0001a5e6       _wrap_func_item_iterator_t_prev_addr$catch$1 000000018001b5e6 f   funcs.obj
 0001:0001a5f3       __catch$_wrap_func_item_iterator_t_prev_addr$10 000000018001b5f3 f   funcs.obj
 0001:0001a61f       _wrap_func_item_iterator_t_prev_addr$catch$0 000000018001b61f f   funcs.obj
 0001:0001a62c       __catch$_wrap_func_item_iterator_t_prev_addr$12 000000018001b62c f   funcs.obj
 0001:0001a660       _wrap_func_item_iterator_t_prev_code$catch$5 000000018001b660 f   funcs.obj
 0001:0001a66d       __catch$_wrap_func_item_iterator_t_prev_code$2 000000018001b66d f   funcs.obj
 0001:0001a693       _wrap_func_item_iterator_t_prev_code$catch$4 000000018001b693 f   funcs.obj
 0001:0001a6a0       __catch$_wrap_func_item_iterator_t_prev_code$4 000000018001b6a0 f   funcs.obj
 0001:0001a6cc       _wrap_func_item_iterator_t_prev_code$catch$3 000000018001b6cc f   funcs.obj
 0001:0001a6d9       __catch$_wrap_func_item_iterator_t_prev_code$6 000000018001b6d9 f   funcs.obj
 0001:0001a6f1       _wrap_func_item_iterator_t_prev_code$catch$2 000000018001b6f1 f   funcs.obj
 0001:0001a6fe       __catch$_wrap_func_item_iterator_t_prev_code$8 000000018001b6fe f   funcs.obj
 0001:0001a716       _wrap_func_item_iterator_t_prev_code$catch$1 000000018001b716 f   funcs.obj
 0001:0001a723       __catch$_wrap_func_item_iterator_t_prev_code$10 000000018001b723 f   funcs.obj
 0001:0001a74f       _wrap_func_item_iterator_t_prev_code$catch$0 000000018001b74f f   funcs.obj
 0001:0001a75c       __catch$_wrap_func_item_iterator_t_prev_code$12 000000018001b75c f   funcs.obj
 0001:0001a790       _wrap_func_item_iterator_t_prev_data$catch$5 000000018001b790 f   funcs.obj
 0001:0001a79d       __catch$_wrap_func_item_iterator_t_prev_data$2 000000018001b79d f   funcs.obj
 0001:0001a7c3       _wrap_func_item_iterator_t_prev_data$catch$4 000000018001b7c3 f   funcs.obj
 0001:0001a7d0       __catch$_wrap_func_item_iterator_t_prev_data$4 000000018001b7d0 f   funcs.obj
 0001:0001a7fc       _wrap_func_item_iterator_t_prev_data$catch$3 000000018001b7fc f   funcs.obj
 0001:0001a809       __catch$_wrap_func_item_iterator_t_prev_data$6 000000018001b809 f   funcs.obj
 0001:0001a821       _wrap_func_item_iterator_t_prev_data$catch$2 000000018001b821 f   funcs.obj
 0001:0001a82e       __catch$_wrap_func_item_iterator_t_prev_data$8 000000018001b82e f   funcs.obj
 0001:0001a846       _wrap_func_item_iterator_t_prev_data$catch$1 000000018001b846 f   funcs.obj
 0001:0001a853       __catch$_wrap_func_item_iterator_t_prev_data$10 000000018001b853 f   funcs.obj
 0001:0001a87f       _wrap_func_item_iterator_t_prev_data$catch$0 000000018001b87f f   funcs.obj
 0001:0001a88c       __catch$_wrap_func_item_iterator_t_prev_data$12 000000018001b88c f   funcs.obj
 0001:0001a8c0       _wrap_func_item_iterator_t_prev_head$catch$5 000000018001b8c0 f   funcs.obj
 0001:0001a8cd       __catch$_wrap_func_item_iterator_t_prev_head$2 000000018001b8cd f   funcs.obj
 0001:0001a8f3       _wrap_func_item_iterator_t_prev_head$catch$4 000000018001b8f3 f   funcs.obj
 0001:0001a900       __catch$_wrap_func_item_iterator_t_prev_head$4 000000018001b900 f   funcs.obj
 0001:0001a92c       _wrap_func_item_iterator_t_prev_head$catch$3 000000018001b92c f   funcs.obj
 0001:0001a939       __catch$_wrap_func_item_iterator_t_prev_head$6 000000018001b939 f   funcs.obj
 0001:0001a951       _wrap_func_item_iterator_t_prev_head$catch$2 000000018001b951 f   funcs.obj
 0001:0001a95e       __catch$_wrap_func_item_iterator_t_prev_head$8 000000018001b95e f   funcs.obj
 0001:0001a976       _wrap_func_item_iterator_t_prev_head$catch$1 000000018001b976 f   funcs.obj
 0001:0001a983       __catch$_wrap_func_item_iterator_t_prev_head$10 000000018001b983 f   funcs.obj
 0001:0001a9af       _wrap_func_item_iterator_t_prev_head$catch$0 000000018001b9af f   funcs.obj
 0001:0001a9bc       __catch$_wrap_func_item_iterator_t_prev_head$12 000000018001b9bc f   funcs.obj
 0001:0001a9f0       _wrap_func_item_iterator_t_prev_not_tail$catch$5 000000018001b9f0 f   funcs.obj
 0001:0001a9fd       __catch$_wrap_func_item_iterator_t_prev_not_tail$2 000000018001b9fd f   funcs.obj
 0001:0001aa23       _wrap_func_item_iterator_t_prev_not_tail$catch$4 000000018001ba23 f   funcs.obj
 0001:0001aa30       __catch$_wrap_func_item_iterator_t_prev_not_tail$4 000000018001ba30 f   funcs.obj
 0001:0001aa5c       _wrap_func_item_iterator_t_prev_not_tail$catch$3 000000018001ba5c f   funcs.obj
 0001:0001aa69       __catch$_wrap_func_item_iterator_t_prev_not_tail$6 000000018001ba69 f   funcs.obj
 0001:0001aa81       _wrap_func_item_iterator_t_prev_not_tail$catch$2 000000018001ba81 f   funcs.obj
 0001:0001aa8e       __catch$_wrap_func_item_iterator_t_prev_not_tail$8 000000018001ba8e f   funcs.obj
 0001:0001aaa6       _wrap_func_item_iterator_t_prev_not_tail$catch$1 000000018001baa6 f   funcs.obj
 0001:0001aab3       __catch$_wrap_func_item_iterator_t_prev_not_tail$10 000000018001bab3 f   funcs.obj
 0001:0001aadf       _wrap_func_item_iterator_t_prev_not_tail$catch$0 000000018001badf f   funcs.obj
 0001:0001aaec       __catch$_wrap_func_item_iterator_t_prev_not_tail$12 000000018001baec f   funcs.obj
 0001:0001ab20       _wrap_func_item_iterator_t_set$catch$5 000000018001bb20 f   funcs.obj
 0001:0001ab2d       __catch$_wrap_func_item_iterator_t_set$4 000000018001bb2d f   funcs.obj
 0001:0001ab53       _wrap_func_item_iterator_t_set$catch$4 000000018001bb53 f   funcs.obj
 0001:0001ab60       __catch$_wrap_func_item_iterator_t_set$6 000000018001bb60 f   funcs.obj
 0001:0001ab8c       _wrap_func_item_iterator_t_set$catch$3 000000018001bb8c f   funcs.obj
 0001:0001ab99       __catch$_wrap_func_item_iterator_t_set$8 000000018001bb99 f   funcs.obj
 0001:0001abb1       _wrap_func_item_iterator_t_set$catch$2 000000018001bbb1 f   funcs.obj
 0001:0001abbe       __catch$_wrap_func_item_iterator_t_set$10 000000018001bbbe f   funcs.obj
 0001:0001abd6       _wrap_func_item_iterator_t_set$catch$1 000000018001bbd6 f   funcs.obj
 0001:0001abe3       __catch$_wrap_func_item_iterator_t_set$12 000000018001bbe3 f   funcs.obj
 0001:0001ac0f       _wrap_func_item_iterator_t_set$catch$0 000000018001bc0f f   funcs.obj
 0001:0001ac1c       __catch$_wrap_func_item_iterator_t_set$14 000000018001bc1c f   funcs.obj
 0001:0001ac50       _wrap_func_item_iterator_t_set_range$catch$5 000000018001bc50 f   funcs.obj
 0001:0001ac5d       __catch$_wrap_func_item_iterator_t_set_range$4 000000018001bc5d f   funcs.obj
 0001:0001ac83       _wrap_func_item_iterator_t_set_range$catch$4 000000018001bc83 f   funcs.obj
 0001:0001ac90       __catch$_wrap_func_item_iterator_t_set_range$6 000000018001bc90 f   funcs.obj
 0001:0001acbc       _wrap_func_item_iterator_t_set_range$catch$3 000000018001bcbc f   funcs.obj
 0001:0001acc9       __catch$_wrap_func_item_iterator_t_set_range$8 000000018001bcc9 f   funcs.obj
 0001:0001ace1       _wrap_func_item_iterator_t_set_range$catch$2 000000018001bce1 f   funcs.obj
 0001:0001acee       __catch$_wrap_func_item_iterator_t_set_range$10 000000018001bcee f   funcs.obj
 0001:0001ad06       _wrap_func_item_iterator_t_set_range$catch$1 000000018001bd06 f   funcs.obj
 0001:0001ad13       __catch$_wrap_func_item_iterator_t_set_range$12 000000018001bd13 f   funcs.obj
 0001:0001ad3f       _wrap_func_item_iterator_t_set_range$catch$0 000000018001bd3f f   funcs.obj
 0001:0001ad4c       __catch$_wrap_func_item_iterator_t_set_range$14 000000018001bd4c f   funcs.obj
 0001:0001ad80       _wrap_func_parent_iterator_set$catch$5 000000018001bd80 f   funcs.obj
 0001:0001ad8d       __catch$_wrap_func_parent_iterator_set$3 000000018001bd8d f   funcs.obj
 0001:0001adb3       _wrap_func_parent_iterator_set$catch$4 000000018001bdb3 f   funcs.obj
 0001:0001adc0       __catch$_wrap_func_parent_iterator_set$5 000000018001bdc0 f   funcs.obj
 0001:0001adec       _wrap_func_parent_iterator_set$catch$3 000000018001bdec f   funcs.obj
 0001:0001adf9       __catch$_wrap_func_parent_iterator_set$7 000000018001bdf9 f   funcs.obj
 0001:0001ae11       _wrap_func_parent_iterator_set$catch$2 000000018001be11 f   funcs.obj
 0001:0001ae1e       __catch$_wrap_func_parent_iterator_set$9 000000018001be1e f   funcs.obj
 0001:0001ae36       _wrap_func_parent_iterator_set$catch$1 000000018001be36 f   funcs.obj
 0001:0001ae43       __catch$_wrap_func_parent_iterator_set$11 000000018001be43 f   funcs.obj
 0001:0001ae6f       _wrap_func_parent_iterator_set$catch$0 000000018001be6f f   funcs.obj
 0001:0001ae7c       __catch$_wrap_func_parent_iterator_set$13 000000018001be7c f   funcs.obj
 0001:0001aeb0       _wrap_func_parent_iterator_t_first$catch$5 000000018001beb0 f   funcs.obj
 0001:0001aebd       __catch$_wrap_func_parent_iterator_t_first$2 000000018001bebd f   funcs.obj
 0001:0001aee3       _wrap_func_parent_iterator_t_first$catch$4 000000018001bee3 f   funcs.obj
 0001:0001aef0       __catch$_wrap_func_parent_iterator_t_first$4 000000018001bef0 f   funcs.obj
 0001:0001af1c       _wrap_func_parent_iterator_t_first$catch$3 000000018001bf1c f   funcs.obj
 0001:0001af29       __catch$_wrap_func_parent_iterator_t_first$6 000000018001bf29 f   funcs.obj
 0001:0001af41       _wrap_func_parent_iterator_t_first$catch$2 000000018001bf41 f   funcs.obj
 0001:0001af4e       __catch$_wrap_func_parent_iterator_t_first$8 000000018001bf4e f   funcs.obj
 0001:0001af66       _wrap_func_parent_iterator_t_first$catch$1 000000018001bf66 f   funcs.obj
 0001:0001af73       __catch$_wrap_func_parent_iterator_t_first$10 000000018001bf73 f   funcs.obj
 0001:0001af9f       _wrap_func_parent_iterator_t_first$catch$0 000000018001bf9f f   funcs.obj
 0001:0001afac       __catch$_wrap_func_parent_iterator_t_first$12 000000018001bfac f   funcs.obj
 0001:0001afe0       _wrap_func_parent_iterator_t_last$catch$5 000000018001bfe0 f   funcs.obj
 0001:0001afed       __catch$_wrap_func_parent_iterator_t_last$2 000000018001bfed f   funcs.obj
 0001:0001b013       _wrap_func_parent_iterator_t_last$catch$4 000000018001c013 f   funcs.obj
 0001:0001b020       __catch$_wrap_func_parent_iterator_t_last$4 000000018001c020 f   funcs.obj
 0001:0001b04c       _wrap_func_parent_iterator_t_last$catch$3 000000018001c04c f   funcs.obj
 0001:0001b059       __catch$_wrap_func_parent_iterator_t_last$6 000000018001c059 f   funcs.obj
 0001:0001b071       _wrap_func_parent_iterator_t_last$catch$2 000000018001c071 f   funcs.obj
 0001:0001b07e       __catch$_wrap_func_parent_iterator_t_last$8 000000018001c07e f   funcs.obj
 0001:0001b096       _wrap_func_parent_iterator_t_last$catch$1 000000018001c096 f   funcs.obj
 0001:0001b0a3       __catch$_wrap_func_parent_iterator_t_last$10 000000018001c0a3 f   funcs.obj
 0001:0001b0cf       _wrap_func_parent_iterator_t_last$catch$0 000000018001c0cf f   funcs.obj
 0001:0001b0dc       __catch$_wrap_func_parent_iterator_t_last$12 000000018001c0dc f   funcs.obj
 0001:0001b110       _wrap_func_parent_iterator_t_next$catch$5 000000018001c110 f   funcs.obj
 0001:0001b11d       __catch$_wrap_func_parent_iterator_t_next$2 000000018001c11d f   funcs.obj
 0001:0001b143       _wrap_func_parent_iterator_t_next$catch$4 000000018001c143 f   funcs.obj
 0001:0001b150       __catch$_wrap_func_parent_iterator_t_next$4 000000018001c150 f   funcs.obj
 0001:0001b17c       _wrap_func_parent_iterator_t_next$catch$3 000000018001c17c f   funcs.obj
 0001:0001b189       __catch$_wrap_func_parent_iterator_t_next$6 000000018001c189 f   funcs.obj
 0001:0001b1a1       _wrap_func_parent_iterator_t_next$catch$2 000000018001c1a1 f   funcs.obj
 0001:0001b1ae       __catch$_wrap_func_parent_iterator_t_next$8 000000018001c1ae f   funcs.obj
 0001:0001b1c6       _wrap_func_parent_iterator_t_next$catch$1 000000018001c1c6 f   funcs.obj
 0001:0001b1d3       __catch$_wrap_func_parent_iterator_t_next$10 000000018001c1d3 f   funcs.obj
 0001:0001b1ff       _wrap_func_parent_iterator_t_next$catch$0 000000018001c1ff f   funcs.obj
 0001:0001b20c       __catch$_wrap_func_parent_iterator_t_next$12 000000018001c20c f   funcs.obj
 0001:0001b240       _wrap_func_parent_iterator_t_parent$catch$5 000000018001c240 f   funcs.obj
 0001:0001b24d       __catch$_wrap_func_parent_iterator_t_parent$2 000000018001c24d f   funcs.obj
 0001:0001b273       _wrap_func_parent_iterator_t_parent$catch$4 000000018001c273 f   funcs.obj
 0001:0001b280       __catch$_wrap_func_parent_iterator_t_parent$4 000000018001c280 f   funcs.obj
 0001:0001b2ac       _wrap_func_parent_iterator_t_parent$catch$3 000000018001c2ac f   funcs.obj
 0001:0001b2b9       __catch$_wrap_func_parent_iterator_t_parent$6 000000018001c2b9 f   funcs.obj
 0001:0001b2d1       _wrap_func_parent_iterator_t_parent$catch$2 000000018001c2d1 f   funcs.obj
 0001:0001b2de       __catch$_wrap_func_parent_iterator_t_parent$8 000000018001c2de f   funcs.obj
 0001:0001b2f6       _wrap_func_parent_iterator_t_parent$catch$1 000000018001c2f6 f   funcs.obj
 0001:0001b303       __catch$_wrap_func_parent_iterator_t_parent$10 000000018001c303 f   funcs.obj
 0001:0001b32f       _wrap_func_parent_iterator_t_parent$catch$0 000000018001c32f f   funcs.obj
 0001:0001b33c       __catch$_wrap_func_parent_iterator_t_parent$12 000000018001c33c f   funcs.obj
 0001:0001b370       _wrap_func_parent_iterator_t_prev$catch$5 000000018001c370 f   funcs.obj
 0001:0001b37d       __catch$_wrap_func_parent_iterator_t_prev$2 000000018001c37d f   funcs.obj
 0001:0001b3a3       _wrap_func_parent_iterator_t_prev$catch$4 000000018001c3a3 f   funcs.obj
 0001:0001b3b0       __catch$_wrap_func_parent_iterator_t_prev$4 000000018001c3b0 f   funcs.obj
 0001:0001b3dc       _wrap_func_parent_iterator_t_prev$catch$3 000000018001c3dc f   funcs.obj
 0001:0001b3e9       __catch$_wrap_func_parent_iterator_t_prev$6 000000018001c3e9 f   funcs.obj
 0001:0001b401       _wrap_func_parent_iterator_t_prev$catch$2 000000018001c401 f   funcs.obj
 0001:0001b40e       __catch$_wrap_func_parent_iterator_t_prev$8 000000018001c40e f   funcs.obj
 0001:0001b426       _wrap_func_parent_iterator_t_prev$catch$1 000000018001c426 f   funcs.obj
 0001:0001b433       __catch$_wrap_func_parent_iterator_t_prev$10 000000018001c433 f   funcs.obj
 0001:0001b45f       _wrap_func_parent_iterator_t_prev$catch$0 000000018001c45f f   funcs.obj
 0001:0001b46c       __catch$_wrap_func_parent_iterator_t_prev$12 000000018001c46c f   funcs.obj
 0001:0001b4a0       _wrap_func_parent_iterator_t_reset_fnt$catch$5 000000018001c4a0 f   funcs.obj
 0001:0001b4ad       __catch$_wrap_func_parent_iterator_t_reset_fnt$3 000000018001c4ad f   funcs.obj
 0001:0001b4d3       _wrap_func_parent_iterator_t_reset_fnt$catch$4 000000018001c4d3 f   funcs.obj
 0001:0001b4e0       __catch$_wrap_func_parent_iterator_t_reset_fnt$5 000000018001c4e0 f   funcs.obj
 0001:0001b50c       _wrap_func_parent_iterator_t_reset_fnt$catch$3 000000018001c50c f   funcs.obj
 0001:0001b519       __catch$_wrap_func_parent_iterator_t_reset_fnt$7 000000018001c519 f   funcs.obj
 0001:0001b531       _wrap_func_parent_iterator_t_reset_fnt$catch$2 000000018001c531 f   funcs.obj
 0001:0001b53e       __catch$_wrap_func_parent_iterator_t_reset_fnt$9 000000018001c53e f   funcs.obj
 0001:0001b556       _wrap_func_parent_iterator_t_reset_fnt$catch$1 000000018001c556 f   funcs.obj
 0001:0001b563       __catch$_wrap_func_parent_iterator_t_reset_fnt$11 000000018001c563 f   funcs.obj
 0001:0001b58f       _wrap_func_parent_iterator_t_reset_fnt$catch$0 000000018001c58f f   funcs.obj
 0001:0001b59c       __catch$_wrap_func_parent_iterator_t_reset_fnt$13 000000018001c59c f   funcs.obj
 0001:0001b5d0       _wrap_func_parent_iterator_t_set$catch$5 000000018001c5d0 f   funcs.obj
 0001:0001b5dd       __catch$_wrap_func_parent_iterator_t_set$3 000000018001c5dd f   funcs.obj
 0001:0001b603       _wrap_func_parent_iterator_t_set$catch$4 000000018001c603 f   funcs.obj
 0001:0001b610       __catch$_wrap_func_parent_iterator_t_set$5 000000018001c610 f   funcs.obj
 0001:0001b63c       _wrap_func_parent_iterator_t_set$catch$3 000000018001c63c f   funcs.obj
 0001:0001b649       __catch$_wrap_func_parent_iterator_t_set$7 000000018001c649 f   funcs.obj
 0001:0001b661       _wrap_func_parent_iterator_t_set$catch$2 000000018001c661 f   funcs.obj
 0001:0001b66e       __catch$_wrap_func_parent_iterator_t_set$9 000000018001c66e f   funcs.obj
 0001:0001b686       _wrap_func_parent_iterator_t_set$catch$1 000000018001c686 f   funcs.obj
 0001:0001b693       __catch$_wrap_func_parent_iterator_t_set$11 000000018001c693 f   funcs.obj
 0001:0001b6bf       _wrap_func_parent_iterator_t_set$catch$0 000000018001c6bf f   funcs.obj
 0001:0001b6cc       __catch$_wrap_func_parent_iterator_t_set$13 000000018001c6cc f   funcs.obj
 0001:0001b700       _wrap_func_t___get_points__$catch$5 000000018001c700 f   funcs.obj
 0001:0001b70d       __catch$_wrap_func_t___get_points__$2 000000018001c70d f   funcs.obj
 0001:0001b733       _wrap_func_t___get_points__$catch$6 000000018001c733 f   funcs.obj
 0001:0001b740       __catch$_wrap_func_t___get_points__$4 000000018001c740 f   funcs.obj
 0001:0001b76c       _wrap_func_t___get_points__$catch$7 000000018001c76c f   funcs.obj
 0001:0001b779       __catch$_wrap_func_t___get_points__$6 000000018001c779 f   funcs.obj
 0001:0001b791       _wrap_func_t___get_points__$catch$8 000000018001c791 f   funcs.obj
 0001:0001b79e       __catch$_wrap_func_t___get_points__$8 000000018001c79e f   funcs.obj
 0001:0001b7b6       _wrap_func_t___get_points__$catch$9 000000018001c7b6 f   funcs.obj
 0001:0001b7c3       __catch$_wrap_func_t___get_points__$10 000000018001c7c3 f   funcs.obj
 0001:0001b7ef       _wrap_func_t___get_points__$catch$10 000000018001c7ef f   funcs.obj
 0001:0001b7fc       __catch$_wrap_func_t___get_points__$12 000000018001c7fc f   funcs.obj
 0001:0001b830       _wrap_func_t___get_points__$dtor$0 000000018001c830 f   funcs.obj
 0001:0001b830       _wrap_func_t___get_tails__$dtor$0 000000018001c830 f   funcs.obj
 0001:0001b840       _wrap_func_t___get_regvars__$catch$5 000000018001c840 f   funcs.obj
 0001:0001b84d       __catch$_wrap_func_t___get_regvars__$2 000000018001c84d f   funcs.obj
 0001:0001b873       _wrap_func_t___get_regvars__$catch$6 000000018001c873 f   funcs.obj
 0001:0001b880       __catch$_wrap_func_t___get_regvars__$4 000000018001c880 f   funcs.obj
 0001:0001b8ac       _wrap_func_t___get_regvars__$catch$7 000000018001c8ac f   funcs.obj
 0001:0001b8b9       __catch$_wrap_func_t___get_regvars__$6 000000018001c8b9 f   funcs.obj
 0001:0001b8d1       _wrap_func_t___get_regvars__$catch$8 000000018001c8d1 f   funcs.obj
 0001:0001b8de       __catch$_wrap_func_t___get_regvars__$8 000000018001c8de f   funcs.obj
 0001:0001b8f6       _wrap_func_t___get_regvars__$catch$9 000000018001c8f6 f   funcs.obj
 0001:0001b903       __catch$_wrap_func_t___get_regvars__$10 000000018001c903 f   funcs.obj
 0001:0001b92f       _wrap_func_t___get_regvars__$catch$10 000000018001c92f f   funcs.obj
 0001:0001b93c       __catch$_wrap_func_t___get_regvars__$12 000000018001c93c f   funcs.obj
 0001:0001b970       _wrap_func_t___get_regvars__$dtor$0 000000018001c970 f   funcs.obj
 0001:0001b980       _wrap_func_t___get_tails__$catch$5 000000018001c980 f   funcs.obj
 0001:0001b98d       __catch$_wrap_func_t___get_tails__$2 000000018001c98d f   funcs.obj
 0001:0001b9b3       _wrap_func_t___get_tails__$catch$6 000000018001c9b3 f   funcs.obj
 0001:0001b9c0       __catch$_wrap_func_t___get_tails__$4 000000018001c9c0 f   funcs.obj
 0001:0001b9ec       _wrap_func_t___get_tails__$catch$7 000000018001c9ec f   funcs.obj
 0001:0001b9f9       __catch$_wrap_func_t___get_tails__$6 000000018001c9f9 f   funcs.obj
 0001:0001ba11       _wrap_func_t___get_tails__$catch$8 000000018001ca11 f   funcs.obj
 0001:0001ba1e       __catch$_wrap_func_t___get_tails__$8 000000018001ca1e f   funcs.obj
 0001:0001ba36       _wrap_func_t___get_tails__$catch$9 000000018001ca36 f   funcs.obj
 0001:0001ba43       __catch$_wrap_func_t___get_tails__$10 000000018001ca43 f   funcs.obj
 0001:0001ba6f       _wrap_func_t___get_tails__$catch$10 000000018001ca6f f   funcs.obj
 0001:0001ba7c       __catch$_wrap_func_t___get_tails__$12 000000018001ca7c f   funcs.obj
 0001:0001bab0       _wrap_func_t__from_ptrval__$catch$5 000000018001cab0 f   funcs.obj
 0001:0001babd       __catch$_wrap_func_t__from_ptrval__$1 000000018001cabd f   funcs.obj
 0001:0001bae3       _wrap_func_t__from_ptrval__$catch$4 000000018001cae3 f   funcs.obj
 0001:0001baf0       __catch$_wrap_func_t__from_ptrval__$3 000000018001caf0 f   funcs.obj
 0001:0001bb1c       _wrap_func_t__from_ptrval__$catch$3 000000018001cb1c f   funcs.obj
 0001:0001bb29       __catch$_wrap_func_t__from_ptrval__$5 000000018001cb29 f   funcs.obj
 0001:0001bb41       _wrap_func_t__from_ptrval__$catch$2 000000018001cb41 f   funcs.obj
 0001:0001bb4e       __catch$_wrap_func_t__from_ptrval__$7 000000018001cb4e f   funcs.obj
 0001:0001bb66       _wrap_func_t__from_ptrval__$catch$1 000000018001cb66 f   funcs.obj
 0001:0001bb73       __catch$_wrap_func_t__from_ptrval__$9 000000018001cb73 f   funcs.obj
 0001:0001bb9f       _wrap_func_t__from_ptrval__$catch$0 000000018001cb9f f   funcs.obj
 0001:0001bbac       __catch$_wrap_func_t__from_ptrval__$11 000000018001cbac f   funcs.obj
 0001:0001bbe0       _wrap_func_t_analyzed_sp$catch$5 000000018001cbe0 f   funcs.obj
 0001:0001bbed       __catch$_wrap_func_t_analyzed_sp$2 000000018001cbed f   funcs.obj
 0001:0001bc13       _wrap_func_t_analyzed_sp$catch$4 000000018001cc13 f   funcs.obj
 0001:0001bc20       __catch$_wrap_func_t_analyzed_sp$4 000000018001cc20 f   funcs.obj
 0001:0001bc4c       _wrap_func_t_analyzed_sp$catch$3 000000018001cc4c f   funcs.obj
 0001:0001bc59       __catch$_wrap_func_t_analyzed_sp$6 000000018001cc59 f   funcs.obj
 0001:0001bc71       _wrap_func_t_analyzed_sp$catch$2 000000018001cc71 f   funcs.obj
 0001:0001bc7e       __catch$_wrap_func_t_analyzed_sp$8 000000018001cc7e f   funcs.obj
 0001:0001bc96       _wrap_func_t_analyzed_sp$catch$1 000000018001cc96 f   funcs.obj
 0001:0001bca3       __catch$_wrap_func_t_analyzed_sp$10 000000018001cca3 f   funcs.obj
 0001:0001bccf       _wrap_func_t_analyzed_sp$catch$0 000000018001cccf f   funcs.obj
 0001:0001bcdc       __catch$_wrap_func_t_analyzed_sp$12 000000018001ccdc f   funcs.obj
 0001:0001bd10       _wrap_func_t_does_return$catch$5 000000018001cd10 f   funcs.obj
 0001:0001bd1d       __catch$_wrap_func_t_does_return$2 000000018001cd1d f   funcs.obj
 0001:0001bd43       _wrap_func_t_does_return$catch$4 000000018001cd43 f   funcs.obj
 0001:0001bd50       __catch$_wrap_func_t_does_return$4 000000018001cd50 f   funcs.obj
 0001:0001bd7c       _wrap_func_t_does_return$catch$3 000000018001cd7c f   funcs.obj
 0001:0001bd89       __catch$_wrap_func_t_does_return$6 000000018001cd89 f   funcs.obj
 0001:0001bda1       _wrap_func_t_does_return$catch$2 000000018001cda1 f   funcs.obj
 0001:0001bdae       __catch$_wrap_func_t_does_return$8 000000018001cdae f   funcs.obj
 0001:0001bdc6       _wrap_func_t_does_return$catch$1 000000018001cdc6 f   funcs.obj
 0001:0001bdd3       __catch$_wrap_func_t_does_return$10 000000018001cdd3 f   funcs.obj
 0001:0001bdff       _wrap_func_t_does_return$catch$0 000000018001cdff f   funcs.obj
 0001:0001be0c       __catch$_wrap_func_t_does_return$12 000000018001ce0c f   funcs.obj
 0001:0001be40       _wrap_func_t_is_far$catch$5 000000018001ce40 f   funcs.obj
 0001:0001be4d       __catch$_wrap_func_t_is_far$2 000000018001ce4d f   funcs.obj
 0001:0001be73       _wrap_func_t_is_far$catch$4 000000018001ce73 f   funcs.obj
 0001:0001be80       __catch$_wrap_func_t_is_far$4 000000018001ce80 f   funcs.obj
 0001:0001beac       _wrap_func_t_is_far$catch$3 000000018001ceac f   funcs.obj
 0001:0001beb9       __catch$_wrap_func_t_is_far$6 000000018001ceb9 f   funcs.obj
 0001:0001bed1       _wrap_func_t_is_far$catch$2 000000018001ced1 f   funcs.obj
 0001:0001bede       __catch$_wrap_func_t_is_far$8 000000018001cede f   funcs.obj
 0001:0001bef6       _wrap_func_t_is_far$catch$1 000000018001cef6 f   funcs.obj
 0001:0001bf03       __catch$_wrap_func_t_is_far$10 000000018001cf03 f   funcs.obj
 0001:0001bf2f       _wrap_func_t_is_far$catch$0 000000018001cf2f f   funcs.obj
 0001:0001bf3c       __catch$_wrap_func_t_is_far$12 000000018001cf3c f   funcs.obj
 0001:0001bf70       _wrap_func_t_need_prolog_analysis$catch$5 000000018001cf70 f   funcs.obj
 0001:0001bf7d       __catch$_wrap_func_t_need_prolog_analysis$2 000000018001cf7d f   funcs.obj
 0001:0001bfa3       _wrap_func_t_need_prolog_analysis$catch$4 000000018001cfa3 f   funcs.obj
 0001:0001bfb0       __catch$_wrap_func_t_need_prolog_analysis$4 000000018001cfb0 f   funcs.obj
 0001:0001bfdc       _wrap_func_t_need_prolog_analysis$catch$3 000000018001cfdc f   funcs.obj
 0001:0001bfe9       __catch$_wrap_func_t_need_prolog_analysis$6 000000018001cfe9 f   funcs.obj
 0001:0001c001       _wrap_func_t_need_prolog_analysis$catch$2 000000018001d001 f   funcs.obj
 0001:0001c00e       __catch$_wrap_func_t_need_prolog_analysis$8 000000018001d00e f   funcs.obj
 0001:0001c026       _wrap_func_t_need_prolog_analysis$catch$1 000000018001d026 f   funcs.obj
 0001:0001c033       __catch$_wrap_func_t_need_prolog_analysis$10 000000018001d033 f   funcs.obj
 0001:0001c05f       _wrap_func_t_need_prolog_analysis$catch$0 000000018001d05f f   funcs.obj
 0001:0001c06c       __catch$_wrap_func_t_need_prolog_analysis$12 000000018001d06c f   funcs.obj
 0001:0001c0a0       _wrap_func_tail_iterator_set$catch$5 000000018001d0a0 f   funcs.obj
 0001:0001c0ad       __catch$_wrap_func_tail_iterator_set$4 000000018001d0ad f   funcs.obj
 0001:0001c0d3       _wrap_func_tail_iterator_set$catch$4 000000018001d0d3 f   funcs.obj
 0001:0001c0e0       __catch$_wrap_func_tail_iterator_set$6 000000018001d0e0 f   funcs.obj
 0001:0001c10c       _wrap_func_tail_iterator_set$catch$3 000000018001d10c f   funcs.obj
 0001:0001c119       __catch$_wrap_func_tail_iterator_set$8 000000018001d119 f   funcs.obj
 0001:0001c131       _wrap_func_tail_iterator_set$catch$2 000000018001d131 f   funcs.obj
 0001:0001c13e       __catch$_wrap_func_tail_iterator_set$10 000000018001d13e f   funcs.obj
 0001:0001c156       _wrap_func_tail_iterator_set$catch$1 000000018001d156 f   funcs.obj
 0001:0001c163       __catch$_wrap_func_tail_iterator_set$12 000000018001d163 f   funcs.obj
 0001:0001c18f       _wrap_func_tail_iterator_set$catch$0 000000018001d18f f   funcs.obj
 0001:0001c19c       __catch$_wrap_func_tail_iterator_set$14 000000018001d19c f   funcs.obj
 0001:0001c1d0       _wrap_func_tail_iterator_set_ea$catch$5 000000018001d1d0 f   funcs.obj
 0001:0001c1dd       __catch$_wrap_func_tail_iterator_set_ea$3 000000018001d1dd f   funcs.obj
 0001:0001c203       _wrap_func_tail_iterator_set_ea$catch$4 000000018001d203 f   funcs.obj
 0001:0001c210       __catch$_wrap_func_tail_iterator_set_ea$5 000000018001d210 f   funcs.obj
 0001:0001c23c       _wrap_func_tail_iterator_set_ea$catch$3 000000018001d23c f   funcs.obj
 0001:0001c249       __catch$_wrap_func_tail_iterator_set_ea$7 000000018001d249 f   funcs.obj
 0001:0001c261       _wrap_func_tail_iterator_set_ea$catch$2 000000018001d261 f   funcs.obj
 0001:0001c26e       __catch$_wrap_func_tail_iterator_set_ea$9 000000018001d26e f   funcs.obj
 0001:0001c286       _wrap_func_tail_iterator_set_ea$catch$1 000000018001d286 f   funcs.obj
 0001:0001c293       __catch$_wrap_func_tail_iterator_set_ea$11 000000018001d293 f   funcs.obj
 0001:0001c2bf       _wrap_func_tail_iterator_set_ea$catch$0 000000018001d2bf f   funcs.obj
 0001:0001c2cc       __catch$_wrap_func_tail_iterator_set_ea$13 000000018001d2cc f   funcs.obj
 0001:0001c300       _wrap_func_tail_iterator_t_chunk$catch$5 000000018001d300 f   funcs.obj
 0001:0001c30d       __catch$_wrap_func_tail_iterator_t_chunk$2 000000018001d30d f   funcs.obj
 0001:0001c333       _wrap_func_tail_iterator_t_chunk$catch$4 000000018001d333 f   funcs.obj
 0001:0001c340       __catch$_wrap_func_tail_iterator_t_chunk$4 000000018001d340 f   funcs.obj
 0001:0001c36c       _wrap_func_tail_iterator_t_chunk$catch$3 000000018001d36c f   funcs.obj
 0001:0001c379       __catch$_wrap_func_tail_iterator_t_chunk$6 000000018001d379 f   funcs.obj
 0001:0001c391       _wrap_func_tail_iterator_t_chunk$catch$2 000000018001d391 f   funcs.obj
 0001:0001c39e       __catch$_wrap_func_tail_iterator_t_chunk$8 000000018001d39e f   funcs.obj
 0001:0001c3b6       _wrap_func_tail_iterator_t_chunk$catch$1 000000018001d3b6 f   funcs.obj
 0001:0001c3c3       __catch$_wrap_func_tail_iterator_t_chunk$10 000000018001d3c3 f   funcs.obj
 0001:0001c3ef       _wrap_func_tail_iterator_t_chunk$catch$0 000000018001d3ef f   funcs.obj
 0001:0001c3fc       __catch$_wrap_func_tail_iterator_t_chunk$12 000000018001d3fc f   funcs.obj
 0001:0001c430       _wrap_func_tail_iterator_t_first$catch$5 000000018001d430 f   funcs.obj
 0001:0001c43d       __catch$_wrap_func_tail_iterator_t_first$2 000000018001d43d f   funcs.obj
 0001:0001c463       _wrap_func_tail_iterator_t_first$catch$4 000000018001d463 f   funcs.obj
 0001:0001c470       __catch$_wrap_func_tail_iterator_t_first$4 000000018001d470 f   funcs.obj
 0001:0001c49c       _wrap_func_tail_iterator_t_first$catch$3 000000018001d49c f   funcs.obj
 0001:0001c4a9       __catch$_wrap_func_tail_iterator_t_first$6 000000018001d4a9 f   funcs.obj
 0001:0001c4c1       _wrap_func_tail_iterator_t_first$catch$2 000000018001d4c1 f   funcs.obj
 0001:0001c4ce       __catch$_wrap_func_tail_iterator_t_first$8 000000018001d4ce f   funcs.obj
 0001:0001c4e6       _wrap_func_tail_iterator_t_first$catch$1 000000018001d4e6 f   funcs.obj
 0001:0001c4f3       __catch$_wrap_func_tail_iterator_t_first$10 000000018001d4f3 f   funcs.obj
 0001:0001c51f       _wrap_func_tail_iterator_t_first$catch$0 000000018001d51f f   funcs.obj
 0001:0001c52c       __catch$_wrap_func_tail_iterator_t_first$12 000000018001d52c f   funcs.obj
 0001:0001c560       _wrap_func_tail_iterator_t_last$catch$5 000000018001d560 f   funcs.obj
 0001:0001c56d       __catch$_wrap_func_tail_iterator_t_last$2 000000018001d56d f   funcs.obj
 0001:0001c593       _wrap_func_tail_iterator_t_last$catch$4 000000018001d593 f   funcs.obj
 0001:0001c5a0       __catch$_wrap_func_tail_iterator_t_last$4 000000018001d5a0 f   funcs.obj
 0001:0001c5cc       _wrap_func_tail_iterator_t_last$catch$3 000000018001d5cc f   funcs.obj
 0001:0001c5d9       __catch$_wrap_func_tail_iterator_t_last$6 000000018001d5d9 f   funcs.obj
 0001:0001c5f1       _wrap_func_tail_iterator_t_last$catch$2 000000018001d5f1 f   funcs.obj
 0001:0001c5fe       __catch$_wrap_func_tail_iterator_t_last$8 000000018001d5fe f   funcs.obj
 0001:0001c616       _wrap_func_tail_iterator_t_last$catch$1 000000018001d616 f   funcs.obj
 0001:0001c623       __catch$_wrap_func_tail_iterator_t_last$10 000000018001d623 f   funcs.obj
 0001:0001c64f       _wrap_func_tail_iterator_t_last$catch$0 000000018001d64f f   funcs.obj
 0001:0001c65c       __catch$_wrap_func_tail_iterator_t_last$12 000000018001d65c f   funcs.obj
 0001:0001c690       _wrap_func_tail_iterator_t_main$catch$5 000000018001d690 f   funcs.obj
 0001:0001c69d       __catch$_wrap_func_tail_iterator_t_main$2 000000018001d69d f   funcs.obj
 0001:0001c6c3       _wrap_func_tail_iterator_t_main$catch$4 000000018001d6c3 f   funcs.obj
 0001:0001c6d0       __catch$_wrap_func_tail_iterator_t_main$4 000000018001d6d0 f   funcs.obj
 0001:0001c6fc       _wrap_func_tail_iterator_t_main$catch$3 000000018001d6fc f   funcs.obj
 0001:0001c709       __catch$_wrap_func_tail_iterator_t_main$6 000000018001d709 f   funcs.obj
 0001:0001c721       _wrap_func_tail_iterator_t_main$catch$2 000000018001d721 f   funcs.obj
 0001:0001c72e       __catch$_wrap_func_tail_iterator_t_main$8 000000018001d72e f   funcs.obj
 0001:0001c746       _wrap_func_tail_iterator_t_main$catch$1 000000018001d746 f   funcs.obj
 0001:0001c753       __catch$_wrap_func_tail_iterator_t_main$10 000000018001d753 f   funcs.obj
 0001:0001c77f       _wrap_func_tail_iterator_t_main$catch$0 000000018001d77f f   funcs.obj
 0001:0001c78c       __catch$_wrap_func_tail_iterator_t_main$12 000000018001d78c f   funcs.obj
 0001:0001c7c0       _wrap_func_tail_iterator_t_next$catch$5 000000018001d7c0 f   funcs.obj
 0001:0001c7cd       __catch$_wrap_func_tail_iterator_t_next$2 000000018001d7cd f   funcs.obj
 0001:0001c7f3       _wrap_func_tail_iterator_t_next$catch$4 000000018001d7f3 f   funcs.obj
 0001:0001c800       __catch$_wrap_func_tail_iterator_t_next$4 000000018001d800 f   funcs.obj
 0001:0001c82c       _wrap_func_tail_iterator_t_next$catch$3 000000018001d82c f   funcs.obj
 0001:0001c839       __catch$_wrap_func_tail_iterator_t_next$6 000000018001d839 f   funcs.obj
 0001:0001c851       _wrap_func_tail_iterator_t_next$catch$2 000000018001d851 f   funcs.obj
 0001:0001c85e       __catch$_wrap_func_tail_iterator_t_next$8 000000018001d85e f   funcs.obj
 0001:0001c876       _wrap_func_tail_iterator_t_next$catch$1 000000018001d876 f   funcs.obj
 0001:0001c883       __catch$_wrap_func_tail_iterator_t_next$10 000000018001d883 f   funcs.obj
 0001:0001c8af       _wrap_func_tail_iterator_t_next$catch$0 000000018001d8af f   funcs.obj
 0001:0001c8bc       __catch$_wrap_func_tail_iterator_t_next$12 000000018001d8bc f   funcs.obj
 0001:0001c8f0       _wrap_func_tail_iterator_t_prev$catch$5 000000018001d8f0 f   funcs.obj
 0001:0001c8fd       __catch$_wrap_func_tail_iterator_t_prev$2 000000018001d8fd f   funcs.obj
 0001:0001c923       _wrap_func_tail_iterator_t_prev$catch$4 000000018001d923 f   funcs.obj
 0001:0001c930       __catch$_wrap_func_tail_iterator_t_prev$4 000000018001d930 f   funcs.obj
 0001:0001c95c       _wrap_func_tail_iterator_t_prev$catch$3 000000018001d95c f   funcs.obj
 0001:0001c969       __catch$_wrap_func_tail_iterator_t_prev$6 000000018001d969 f   funcs.obj
 0001:0001c981       _wrap_func_tail_iterator_t_prev$catch$2 000000018001d981 f   funcs.obj
 0001:0001c98e       __catch$_wrap_func_tail_iterator_t_prev$8 000000018001d98e f   funcs.obj
 0001:0001c9a6       _wrap_func_tail_iterator_t_prev$catch$1 000000018001d9a6 f   funcs.obj
 0001:0001c9b3       __catch$_wrap_func_tail_iterator_t_prev$10 000000018001d9b3 f   funcs.obj
 0001:0001c9df       _wrap_func_tail_iterator_t_prev$catch$0 000000018001d9df f   funcs.obj
 0001:0001c9ec       __catch$_wrap_func_tail_iterator_t_prev$12 000000018001d9ec f   funcs.obj
 0001:0001ca20       _wrap_func_tail_iterator_t_set$catch$5 000000018001da20 f   funcs.obj
 0001:0001ca2d       __catch$_wrap_func_tail_iterator_t_set$4 000000018001da2d f   funcs.obj
 0001:0001ca53       _wrap_func_tail_iterator_t_set$catch$4 000000018001da53 f   funcs.obj
 0001:0001ca60       __catch$_wrap_func_tail_iterator_t_set$6 000000018001da60 f   funcs.obj
 0001:0001ca8c       _wrap_func_tail_iterator_t_set$catch$3 000000018001da8c f   funcs.obj
 0001:0001ca99       __catch$_wrap_func_tail_iterator_t_set$8 000000018001da99 f   funcs.obj
 0001:0001cab1       _wrap_func_tail_iterator_t_set$catch$2 000000018001dab1 f   funcs.obj
 0001:0001cabe       __catch$_wrap_func_tail_iterator_t_set$10 000000018001dabe f   funcs.obj
 0001:0001cad6       _wrap_func_tail_iterator_t_set$catch$1 000000018001dad6 f   funcs.obj
 0001:0001cae3       __catch$_wrap_func_tail_iterator_t_set$12 000000018001dae3 f   funcs.obj
 0001:0001cb0f       _wrap_func_tail_iterator_t_set$catch$0 000000018001db0f f   funcs.obj
 0001:0001cb1c       __catch$_wrap_func_tail_iterator_t_set$14 000000018001db1c f   funcs.obj
 0001:0001cb50       _wrap_func_tail_iterator_t_set_ea$catch$5 000000018001db50 f   funcs.obj
 0001:0001cb5d       __catch$_wrap_func_tail_iterator_t_set_ea$3 000000018001db5d f   funcs.obj
 0001:0001cb83       _wrap_func_tail_iterator_t_set_ea$catch$4 000000018001db83 f   funcs.obj
 0001:0001cb90       __catch$_wrap_func_tail_iterator_t_set_ea$5 000000018001db90 f   funcs.obj
 0001:0001cbbc       _wrap_func_tail_iterator_t_set_ea$catch$3 000000018001dbbc f   funcs.obj
 0001:0001cbc9       __catch$_wrap_func_tail_iterator_t_set_ea$7 000000018001dbc9 f   funcs.obj
 0001:0001cbe1       _wrap_func_tail_iterator_t_set_ea$catch$2 000000018001dbe1 f   funcs.obj
 0001:0001cbee       __catch$_wrap_func_tail_iterator_t_set_ea$9 000000018001dbee f   funcs.obj
 0001:0001cc06       _wrap_func_tail_iterator_t_set_ea$catch$1 000000018001dc06 f   funcs.obj
 0001:0001cc13       __catch$_wrap_func_tail_iterator_t_set_ea$11 000000018001dc13 f   funcs.obj
 0001:0001cc3f       _wrap_func_tail_iterator_t_set_ea$catch$0 000000018001dc3f f   funcs.obj
 0001:0001cc4c       __catch$_wrap_func_tail_iterator_t_set_ea$13 000000018001dc4c f   funcs.obj
 0001:0001cc80       _wrap_func_tail_iterator_t_set_range$catch$5 000000018001dc80 f   funcs.obj
 0001:0001cc8d       __catch$_wrap_func_tail_iterator_t_set_range$4 000000018001dc8d f   funcs.obj
 0001:0001ccb3       _wrap_func_tail_iterator_t_set_range$catch$4 000000018001dcb3 f   funcs.obj
 0001:0001ccc0       __catch$_wrap_func_tail_iterator_t_set_range$6 000000018001dcc0 f   funcs.obj
 0001:0001ccec       _wrap_func_tail_iterator_t_set_range$catch$3 000000018001dcec f   funcs.obj
 0001:0001ccf9       __catch$_wrap_func_tail_iterator_t_set_range$8 000000018001dcf9 f   funcs.obj
 0001:0001cd11       _wrap_func_tail_iterator_t_set_range$catch$2 000000018001dd11 f   funcs.obj
 0001:0001cd1e       __catch$_wrap_func_tail_iterator_t_set_range$10 000000018001dd1e f   funcs.obj
 0001:0001cd36       _wrap_func_tail_iterator_t_set_range$catch$1 000000018001dd36 f   funcs.obj
 0001:0001cd43       __catch$_wrap_func_tail_iterator_t_set_range$12 000000018001dd43 f   funcs.obj
 0001:0001cd6f       _wrap_func_tail_iterator_t_set_range$catch$0 000000018001dd6f f   funcs.obj
 0001:0001cd7c       __catch$_wrap_func_tail_iterator_t_set_range$14 000000018001dd7c f   funcs.obj
 0001:0001cdb0       _wrap_get_current_idasgn$catch$5 000000018001ddb0 f   funcs.obj
 0001:0001cdbd       __catch$_wrap_get_current_idasgn$1 000000018001ddbd f   funcs.obj
 0001:0001cde3       _wrap_get_current_idasgn$catch$4 000000018001dde3 f   funcs.obj
 0001:0001cdf0       __catch$_wrap_get_current_idasgn$3 000000018001ddf0 f   funcs.obj
 0001:0001ce1c       _wrap_get_current_idasgn$catch$3 000000018001de1c f   funcs.obj
 0001:0001ce29       __catch$_wrap_get_current_idasgn$5 000000018001de29 f   funcs.obj
 0001:0001ce41       _wrap_get_current_idasgn$catch$2 000000018001de41 f   funcs.obj
 0001:0001ce4e       __catch$_wrap_get_current_idasgn$7 000000018001de4e f   funcs.obj
 0001:0001ce66       _wrap_get_current_idasgn$catch$1 000000018001de66 f   funcs.obj
 0001:0001ce73       __catch$_wrap_get_current_idasgn$9 000000018001de73 f   funcs.obj
 0001:0001ce9f       _wrap_get_current_idasgn$catch$0 000000018001de9f f   funcs.obj
 0001:0001ceac       __catch$_wrap_get_current_idasgn$11 000000018001deac f   funcs.obj
 0001:0001cee0       _wrap_get_fchunk$catch$5   000000018001dee0 f   funcs.obj
 0001:0001ceed       __catch$_wrap_get_fchunk$2 000000018001deed f   funcs.obj
 0001:0001cf13       _wrap_get_fchunk$catch$4   000000018001df13 f   funcs.obj
 0001:0001cf20       __catch$_wrap_get_fchunk$4 000000018001df20 f   funcs.obj
 0001:0001cf4c       _wrap_get_fchunk$catch$3   000000018001df4c f   funcs.obj
 0001:0001cf59       __catch$_wrap_get_fchunk$6 000000018001df59 f   funcs.obj
 0001:0001cf71       _wrap_get_fchunk$catch$2   000000018001df71 f   funcs.obj
 0001:0001cf7e       __catch$_wrap_get_fchunk$8 000000018001df7e f   funcs.obj
 0001:0001cf96       _wrap_get_fchunk$catch$1   000000018001df96 f   funcs.obj
 0001:0001cfa3       __catch$_wrap_get_fchunk$10 000000018001dfa3 f   funcs.obj
 0001:0001cfcf       _wrap_get_fchunk$catch$0   000000018001dfcf f   funcs.obj
 0001:0001cfdc       __catch$_wrap_get_fchunk$12 000000018001dfdc f   funcs.obj
 0001:0001d010       _wrap_get_fchunk_num$catch$5 000000018001e010 f   funcs.obj
 0001:0001d01d       __catch$_wrap_get_fchunk_num$2 000000018001e01d f   funcs.obj
 0001:0001d043       _wrap_get_fchunk_num$catch$4 000000018001e043 f   funcs.obj
 0001:0001d050       __catch$_wrap_get_fchunk_num$4 000000018001e050 f   funcs.obj
 0001:0001d07c       _wrap_get_fchunk_num$catch$3 000000018001e07c f   funcs.obj
 0001:0001d089       __catch$_wrap_get_fchunk_num$6 000000018001e089 f   funcs.obj
 0001:0001d0a1       _wrap_get_fchunk_num$catch$2 000000018001e0a1 f   funcs.obj
 0001:0001d0ae       __catch$_wrap_get_fchunk_num$8 000000018001e0ae f   funcs.obj
 0001:0001d0c6       _wrap_get_fchunk_num$catch$1 000000018001e0c6 f   funcs.obj
 0001:0001d0d3       __catch$_wrap_get_fchunk_num$10 000000018001e0d3 f   funcs.obj
 0001:0001d0ff       _wrap_get_fchunk_num$catch$0 000000018001e0ff f   funcs.obj
 0001:0001d10c       __catch$_wrap_get_fchunk_num$12 000000018001e10c f   funcs.obj
 0001:0001d140       _wrap_get_fchunk_qty$catch$5 000000018001e140 f   funcs.obj
 0001:0001d14d       __catch$_wrap_get_fchunk_qty$1 000000018001e14d f   funcs.obj
 0001:0001d173       _wrap_get_fchunk_qty$catch$4 000000018001e173 f   funcs.obj
 0001:0001d180       __catch$_wrap_get_fchunk_qty$3 000000018001e180 f   funcs.obj
 0001:0001d1ac       _wrap_get_fchunk_qty$catch$3 000000018001e1ac f   funcs.obj
 0001:0001d1b9       __catch$_wrap_get_fchunk_qty$5 000000018001e1b9 f   funcs.obj
 0001:0001d1d1       _wrap_get_fchunk_qty$catch$2 000000018001e1d1 f   funcs.obj
 0001:0001d1de       __catch$_wrap_get_fchunk_qty$7 000000018001e1de f   funcs.obj
 0001:0001d1f6       _wrap_get_fchunk_qty$catch$1 000000018001e1f6 f   funcs.obj
 0001:0001d203       __catch$_wrap_get_fchunk_qty$9 000000018001e203 f   funcs.obj
 0001:0001d22f       _wrap_get_fchunk_qty$catch$0 000000018001e22f f   funcs.obj
 0001:0001d23c       __catch$_wrap_get_fchunk_qty$11 000000018001e23c f   funcs.obj
 0001:0001d270       _wrap_get_fchunk_referer$catch$5 000000018001e270 f   funcs.obj
 0001:0001d27d       __catch$_wrap_get_fchunk_referer$3 000000018001e27d f   funcs.obj
 0001:0001d2a3       _wrap_get_fchunk_referer$catch$4 000000018001e2a3 f   funcs.obj
 0001:0001d2b0       __catch$_wrap_get_fchunk_referer$5 000000018001e2b0 f   funcs.obj
 0001:0001d2dc       _wrap_get_fchunk_referer$catch$3 000000018001e2dc f   funcs.obj
 0001:0001d2e9       __catch$_wrap_get_fchunk_referer$7 000000018001e2e9 f   funcs.obj
 0001:0001d301       _wrap_get_fchunk_referer$catch$2 000000018001e301 f   funcs.obj
 0001:0001d30e       __catch$_wrap_get_fchunk_referer$9 000000018001e30e f   funcs.obj
 0001:0001d326       _wrap_get_fchunk_referer$catch$1 000000018001e326 f   funcs.obj
 0001:0001d333       __catch$_wrap_get_fchunk_referer$11 000000018001e333 f   funcs.obj
 0001:0001d35f       _wrap_get_fchunk_referer$catch$0 000000018001e35f f   funcs.obj
 0001:0001d36c       __catch$_wrap_get_fchunk_referer$13 000000018001e36c f   funcs.obj
 0001:0001d3a0       _wrap_get_func$catch$5     000000018001e3a0 f   funcs.obj
 0001:0001d3ad       __catch$_wrap_get_func$2   000000018001e3ad f   funcs.obj
 0001:0001d3d3       _wrap_get_func$catch$4     000000018001e3d3 f   funcs.obj
 0001:0001d3e0       __catch$_wrap_get_func$4   000000018001e3e0 f   funcs.obj
 0001:0001d40c       _wrap_get_func$catch$3     000000018001e40c f   funcs.obj
 0001:0001d419       __catch$_wrap_get_func$6   000000018001e419 f   funcs.obj
 0001:0001d431       _wrap_get_func$catch$2     000000018001e431 f   funcs.obj
 0001:0001d43e       __catch$_wrap_get_func$8   000000018001e43e f   funcs.obj
 0001:0001d456       _wrap_get_func$catch$1     000000018001e456 f   funcs.obj
 0001:0001d463       __catch$_wrap_get_func$10  000000018001e463 f   funcs.obj
 0001:0001d48f       _wrap_get_func$catch$0     000000018001e48f f   funcs.obj
 0001:0001d49c       __catch$_wrap_get_func$12  000000018001e49c f   funcs.obj
 0001:0001d4d0       _wrap_get_func_bitness$catch$5 000000018001e4d0 f   funcs.obj
 0001:0001d4dd       __catch$_wrap_get_func_bitness$2 000000018001e4dd f   funcs.obj
 0001:0001d503       _wrap_get_func_bitness$catch$4 000000018001e503 f   funcs.obj
 0001:0001d510       __catch$_wrap_get_func_bitness$4 000000018001e510 f   funcs.obj
 0001:0001d53c       _wrap_get_func_bitness$catch$3 000000018001e53c f   funcs.obj
 0001:0001d549       __catch$_wrap_get_func_bitness$6 000000018001e549 f   funcs.obj
 0001:0001d561       _wrap_get_func_bitness$catch$2 000000018001e561 f   funcs.obj
 0001:0001d56e       __catch$_wrap_get_func_bitness$8 000000018001e56e f   funcs.obj
 0001:0001d586       _wrap_get_func_bitness$catch$1 000000018001e586 f   funcs.obj
 0001:0001d593       __catch$_wrap_get_func_bitness$10 000000018001e593 f   funcs.obj
 0001:0001d5bf       _wrap_get_func_bitness$catch$0 000000018001e5bf f   funcs.obj
 0001:0001d5cc       __catch$_wrap_get_func_bitness$12 000000018001e5cc f   funcs.obj
 0001:0001d600       _wrap_get_func_bits$catch$5 000000018001e600 f   funcs.obj
 0001:0001d60d       __catch$_wrap_get_func_bits$2 000000018001e60d f   funcs.obj
 0001:0001d633       _wrap_get_func_bits$catch$4 000000018001e633 f   funcs.obj
 0001:0001d640       __catch$_wrap_get_func_bits$4 000000018001e640 f   funcs.obj
 0001:0001d66c       _wrap_get_func_bits$catch$3 000000018001e66c f   funcs.obj
 0001:0001d679       __catch$_wrap_get_func_bits$6 000000018001e679 f   funcs.obj
 0001:0001d691       _wrap_get_func_bits$catch$2 000000018001e691 f   funcs.obj
 0001:0001d69e       __catch$_wrap_get_func_bits$8 000000018001e69e f   funcs.obj
 0001:0001d6b6       _wrap_get_func_bits$catch$1 000000018001e6b6 f   funcs.obj
 0001:0001d6c3       __catch$_wrap_get_func_bits$10 000000018001e6c3 f   funcs.obj
 0001:0001d6ef       _wrap_get_func_bits$catch$0 000000018001e6ef f   funcs.obj
 0001:0001d6fc       __catch$_wrap_get_func_bits$12 000000018001e6fc f   funcs.obj
 0001:0001d730       _wrap_get_func_bytes$catch$5 000000018001e730 f   funcs.obj
 0001:0001d73d       __catch$_wrap_get_func_bytes$2 000000018001e73d f   funcs.obj
 0001:0001d763       _wrap_get_func_bytes$catch$4 000000018001e763 f   funcs.obj
 0001:0001d770       __catch$_wrap_get_func_bytes$4 000000018001e770 f   funcs.obj
 0001:0001d79c       _wrap_get_func_bytes$catch$3 000000018001e79c f   funcs.obj
 0001:0001d7a9       __catch$_wrap_get_func_bytes$6 000000018001e7a9 f   funcs.obj
 0001:0001d7c1       _wrap_get_func_bytes$catch$2 000000018001e7c1 f   funcs.obj
 0001:0001d7ce       __catch$_wrap_get_func_bytes$8 000000018001e7ce f   funcs.obj
 0001:0001d7e6       _wrap_get_func_bytes$catch$1 000000018001e7e6 f   funcs.obj
 0001:0001d7f3       __catch$_wrap_get_func_bytes$10 000000018001e7f3 f   funcs.obj
 0001:0001d81f       _wrap_get_func_bytes$catch$0 000000018001e81f f   funcs.obj
 0001:0001d82c       __catch$_wrap_get_func_bytes$12 000000018001e82c f   funcs.obj
 0001:0001d860       _wrap_get_func_chunknum$catch$5 000000018001e860 f   funcs.obj
 0001:0001d86d       __catch$_wrap_get_func_chunknum$3 000000018001e86d f   funcs.obj
 0001:0001d893       _wrap_get_func_chunknum$catch$4 000000018001e893 f   funcs.obj
 0001:0001d8a0       __catch$_wrap_get_func_chunknum$5 000000018001e8a0 f   funcs.obj
 0001:0001d8cc       _wrap_get_func_chunknum$catch$3 000000018001e8cc f   funcs.obj
 0001:0001d8d9       __catch$_wrap_get_func_chunknum$7 000000018001e8d9 f   funcs.obj
 0001:0001d8f1       _wrap_get_func_chunknum$catch$2 000000018001e8f1 f   funcs.obj
 0001:0001d8fe       __catch$_wrap_get_func_chunknum$9 000000018001e8fe f   funcs.obj
 0001:0001d916       _wrap_get_func_chunknum$catch$1 000000018001e916 f   funcs.obj
 0001:0001d923       __catch$_wrap_get_func_chunknum$11 000000018001e923 f   funcs.obj
 0001:0001d94f       _wrap_get_func_chunknum$catch$0 000000018001e94f f   funcs.obj
 0001:0001d95c       __catch$_wrap_get_func_chunknum$13 000000018001e95c f   funcs.obj
 0001:0001d990       _wrap_get_func_cmt$catch$8 000000018001e990 f   funcs.obj
 0001:0001d99d       __catch$_wrap_get_func_cmt$3 000000018001e99d f   funcs.obj
 0001:0001d9c3       _wrap_get_func_cmt$catch$7 000000018001e9c3 f   funcs.obj
 0001:0001d9d0       __catch$_wrap_get_func_cmt$5 000000018001e9d0 f   funcs.obj
 0001:0001d9fc       _wrap_get_func_cmt$catch$6 000000018001e9fc f   funcs.obj
 0001:0001da09       __catch$_wrap_get_func_cmt$7 000000018001ea09 f   funcs.obj
 0001:0001da21       _wrap_get_func_cmt$catch$5 000000018001ea21 f   funcs.obj
 0001:0001da2e       __catch$_wrap_get_func_cmt$9 000000018001ea2e f   funcs.obj
 0001:0001da46       _wrap_get_func_cmt$catch$4 000000018001ea46 f   funcs.obj
 0001:0001da53       __catch$_wrap_get_func_cmt$11 000000018001ea53 f   funcs.obj
 0001:0001da7f       _wrap_get_func_cmt$catch$3 000000018001ea7f f   funcs.obj
 0001:0001da8c       __catch$_wrap_get_func_cmt$13 000000018001ea8c f   funcs.obj
 0001:0001dac0       _wrap_get_func_cmt$dtor$0  000000018001eac0 f   funcs.obj
 0001:0001dad0       _wrap_get_func_name$catch$8 000000018001ead0 f   funcs.obj
 0001:0001dadd       __catch$_wrap_get_func_name$2 000000018001eadd f   funcs.obj
 0001:0001db03       _wrap_get_func_name$catch$7 000000018001eb03 f   funcs.obj
 0001:0001db10       __catch$_wrap_get_func_name$4 000000018001eb10 f   funcs.obj
 0001:0001db3c       _wrap_get_func_name$catch$6 000000018001eb3c f   funcs.obj
 0001:0001db49       __catch$_wrap_get_func_name$6 000000018001eb49 f   funcs.obj
 0001:0001db61       _wrap_get_func_name$catch$5 000000018001eb61 f   funcs.obj
 0001:0001db6e       __catch$_wrap_get_func_name$8 000000018001eb6e f   funcs.obj
 0001:0001db86       _wrap_get_func_name$catch$4 000000018001eb86 f   funcs.obj
 0001:0001db93       __catch$_wrap_get_func_name$10 000000018001eb93 f   funcs.obj
 0001:0001dbbf       _wrap_get_func_name$catch$3 000000018001ebbf f   funcs.obj
 0001:0001dbcc       __catch$_wrap_get_func_name$12 000000018001ebcc f   funcs.obj
 0001:0001dc00       _wrap_get_func_name$dtor$0 000000018001ec00 f   funcs.obj
 0001:0001dc10       _wrap_get_func_num$catch$5 000000018001ec10 f   funcs.obj
 0001:0001dc1d       __catch$_wrap_get_func_num$2 000000018001ec1d f   funcs.obj
 0001:0001dc43       _wrap_get_func_num$catch$4 000000018001ec43 f   funcs.obj
 0001:0001dc50       __catch$_wrap_get_func_num$4 000000018001ec50 f   funcs.obj
 0001:0001dc7c       _wrap_get_func_num$catch$3 000000018001ec7c f   funcs.obj
 0001:0001dc89       __catch$_wrap_get_func_num$6 000000018001ec89 f   funcs.obj
 0001:0001dca1       _wrap_get_func_num$catch$2 000000018001eca1 f   funcs.obj
 0001:0001dcae       __catch$_wrap_get_func_num$8 000000018001ecae f   funcs.obj
 0001:0001dcc6       _wrap_get_func_num$catch$1 000000018001ecc6 f   funcs.obj
 0001:0001dcd3       __catch$_wrap_get_func_num$10 000000018001ecd3 f   funcs.obj
 0001:0001dcff       _wrap_get_func_num$catch$0 000000018001ecff f   funcs.obj
 0001:0001dd0c       __catch$_wrap_get_func_num$12 000000018001ed0c f   funcs.obj
 0001:0001dd40       _wrap_get_func_qty$catch$5 000000018001ed40 f   funcs.obj
 0001:0001dd4d       __catch$_wrap_get_func_qty$1 000000018001ed4d f   funcs.obj
 0001:0001dd73       _wrap_get_func_qty$catch$4 000000018001ed73 f   funcs.obj
 0001:0001dd80       __catch$_wrap_get_func_qty$3 000000018001ed80 f   funcs.obj
 0001:0001ddac       _wrap_get_func_qty$catch$3 000000018001edac f   funcs.obj
 0001:0001ddb9       __catch$_wrap_get_func_qty$5 000000018001edb9 f   funcs.obj
 0001:0001ddd1       _wrap_get_func_qty$catch$2 000000018001edd1 f   funcs.obj
 0001:0001ddde       __catch$_wrap_get_func_qty$7 000000018001edde f   funcs.obj
 0001:0001ddf6       _wrap_get_func_qty$catch$1 000000018001edf6 f   funcs.obj
 0001:0001de03       __catch$_wrap_get_func_qty$9 000000018001ee03 f   funcs.obj
 0001:0001de2f       _wrap_get_func_qty$catch$0 000000018001ee2f f   funcs.obj
 0001:0001de3c       __catch$_wrap_get_func_qty$11 000000018001ee3c f   funcs.obj
 0001:0001de70       _wrap_get_func_ranges$catch$5 000000018001ee70 f   funcs.obj
 0001:0001de7d       __catch$_wrap_get_func_ranges$3 000000018001ee7d f   funcs.obj
 0001:0001dea3       _wrap_get_func_ranges$catch$4 000000018001eea3 f   funcs.obj
 0001:0001deb0       __catch$_wrap_get_func_ranges$5 000000018001eeb0 f   funcs.obj
 0001:0001dedc       _wrap_get_func_ranges$catch$3 000000018001eedc f   funcs.obj
 0001:0001dee9       __catch$_wrap_get_func_ranges$7 000000018001eee9 f   funcs.obj
 0001:0001df01       _wrap_get_func_ranges$catch$2 000000018001ef01 f   funcs.obj
 0001:0001df0e       __catch$_wrap_get_func_ranges$9 000000018001ef0e f   funcs.obj
 0001:0001df26       _wrap_get_func_ranges$catch$1 000000018001ef26 f   funcs.obj
 0001:0001df33       __catch$_wrap_get_func_ranges$11 000000018001ef33 f   funcs.obj
 0001:0001df5f       _wrap_get_func_ranges$catch$0 000000018001ef5f f   funcs.obj
 0001:0001df6c       __catch$_wrap_get_func_ranges$13 000000018001ef6c f   funcs.obj
 0001:0001dfa0       _wrap_get_idasgn_desc$catch$11 000000018001efa0 f   funcs.obj
 0001:0001dfad       __catch$_wrap_get_idasgn_desc$2 000000018001efad f   funcs.obj
 0001:0001dfd3       _wrap_get_idasgn_desc$catch$10 000000018001efd3 f   funcs.obj
 0001:0001dfe0       __catch$_wrap_get_idasgn_desc$4 000000018001efe0 f   funcs.obj
 0001:0001e00c       _wrap_get_idasgn_desc$catch$9 000000018001f00c f   funcs.obj
 0001:0001e019       __catch$_wrap_get_idasgn_desc$6 000000018001f019 f   funcs.obj
 0001:0001e031       _wrap_get_idasgn_desc$catch$8 000000018001f031 f   funcs.obj
 0001:0001e03e       __catch$_wrap_get_idasgn_desc$8 000000018001f03e f   funcs.obj
 0001:0001e056       _wrap_get_idasgn_desc$catch$7 000000018001f056 f   funcs.obj
 0001:0001e063       __catch$_wrap_get_idasgn_desc$10 000000018001f063 f   funcs.obj
 0001:0001e08f       _wrap_get_idasgn_desc$catch$6 000000018001f08f f   funcs.obj
 0001:0001e09c       __catch$_wrap_get_idasgn_desc$12 000000018001f09c f   funcs.obj
 0001:0001e0d0       _wrap_get_idasgn_desc_with_matches$catch$11 000000018001f0d0 f   funcs.obj
 0001:0001e0dd       __catch$_wrap_get_idasgn_desc_with_matches$2 000000018001f0dd f   funcs.obj
 0001:0001e103       _wrap_get_idasgn_desc_with_matches$catch$10 000000018001f103 f   funcs.obj
 0001:0001e110       __catch$_wrap_get_idasgn_desc_with_matches$4 000000018001f110 f   funcs.obj
 0001:0001e13c       _wrap_get_idasgn_desc_with_matches$catch$9 000000018001f13c f   funcs.obj
 0001:0001e149       __catch$_wrap_get_idasgn_desc_with_matches$6 000000018001f149 f   funcs.obj
 0001:0001e161       _wrap_get_idasgn_desc_with_matches$catch$8 000000018001f161 f   funcs.obj
 0001:0001e16e       __catch$_wrap_get_idasgn_desc_with_matches$8 000000018001f16e f   funcs.obj
 0001:0001e186       _wrap_get_idasgn_desc_with_matches$catch$7 000000018001f186 f   funcs.obj
 0001:0001e193       __catch$_wrap_get_idasgn_desc_with_matches$10 000000018001f193 f   funcs.obj
 0001:0001e1bf       _wrap_get_idasgn_desc_with_matches$catch$6 000000018001f1bf f   funcs.obj
 0001:0001e1cc       __catch$_wrap_get_idasgn_desc_with_matches$12 000000018001f1cc f   funcs.obj
 0001:0001e200       _wrap_get_idasgn_qty$catch$5 000000018001f200 f   funcs.obj
 0001:0001e20d       __catch$_wrap_get_idasgn_qty$1 000000018001f20d f   funcs.obj
 0001:0001e233       _wrap_get_idasgn_qty$catch$4 000000018001f233 f   funcs.obj
 0001:0001e240       __catch$_wrap_get_idasgn_qty$3 000000018001f240 f   funcs.obj
 0001:0001e26c       _wrap_get_idasgn_qty$catch$3 000000018001f26c f   funcs.obj
 0001:0001e279       __catch$_wrap_get_idasgn_qty$5 000000018001f279 f   funcs.obj
 0001:0001e291       _wrap_get_idasgn_qty$catch$2 000000018001f291 f   funcs.obj
 0001:0001e29e       __catch$_wrap_get_idasgn_qty$7 000000018001f29e f   funcs.obj
 0001:0001e2b6       _wrap_get_idasgn_qty$catch$1 000000018001f2b6 f   funcs.obj
 0001:0001e2c3       __catch$_wrap_get_idasgn_qty$9 000000018001f2c3 f   funcs.obj
 0001:0001e2ef       _wrap_get_idasgn_qty$catch$0 000000018001f2ef f   funcs.obj
 0001:0001e2fc       __catch$_wrap_get_idasgn_qty$11 000000018001f2fc f   funcs.obj
 0001:0001e330       _wrap_get_idasgn_title$catch$8 000000018001f330 f   funcs.obj
 0001:0001e33d       __catch$_wrap_get_idasgn_title$2 000000018001f33d f   funcs.obj
 0001:0001e363       _wrap_get_idasgn_title$catch$7 000000018001f363 f   funcs.obj
 0001:0001e370       __catch$_wrap_get_idasgn_title$4 000000018001f370 f   funcs.obj
 0001:0001e39c       _wrap_get_idasgn_title$catch$6 000000018001f39c f   funcs.obj
 0001:0001e3a9       __catch$_wrap_get_idasgn_title$6 000000018001f3a9 f   funcs.obj
 0001:0001e3c1       _wrap_get_idasgn_title$catch$5 000000018001f3c1 f   funcs.obj
 0001:0001e3ce       __catch$_wrap_get_idasgn_title$8 000000018001f3ce f   funcs.obj
 0001:0001e3e6       _wrap_get_idasgn_title$catch$4 000000018001f3e6 f   funcs.obj
 0001:0001e3f3       __catch$_wrap_get_idasgn_title$10 000000018001f3f3 f   funcs.obj
 0001:0001e41f       _wrap_get_idasgn_title$catch$3 000000018001f41f f   funcs.obj
 0001:0001e42c       __catch$_wrap_get_idasgn_title$12 000000018001f42c f   funcs.obj
 0001:0001e460       _wrap_get_idasgn_title$dtor$0 000000018001f460 f   funcs.obj
 0001:0001e470       _wrap_get_next_fchunk$catch$5 000000018001f470 f   funcs.obj
 0001:0001e47d       __catch$_wrap_get_next_fchunk$2 000000018001f47d f   funcs.obj
 0001:0001e4a3       _wrap_get_next_fchunk$catch$4 000000018001f4a3 f   funcs.obj
 0001:0001e4b0       __catch$_wrap_get_next_fchunk$4 000000018001f4b0 f   funcs.obj
 0001:0001e4dc       _wrap_get_next_fchunk$catch$3 000000018001f4dc f   funcs.obj
 0001:0001e4e9       __catch$_wrap_get_next_fchunk$6 000000018001f4e9 f   funcs.obj
 0001:0001e501       _wrap_get_next_fchunk$catch$2 000000018001f501 f   funcs.obj
 0001:0001e50e       __catch$_wrap_get_next_fchunk$8 000000018001f50e f   funcs.obj
 0001:0001e526       _wrap_get_next_fchunk$catch$1 000000018001f526 f   funcs.obj
 0001:0001e533       __catch$_wrap_get_next_fchunk$10 000000018001f533 f   funcs.obj
 0001:0001e55f       _wrap_get_next_fchunk$catch$0 000000018001f55f f   funcs.obj
 0001:0001e56c       __catch$_wrap_get_next_fchunk$12 000000018001f56c f   funcs.obj
 0001:0001e5a0       _wrap_get_next_func$catch$5 000000018001f5a0 f   funcs.obj
 0001:0001e5ad       __catch$_wrap_get_next_func$2 000000018001f5ad f   funcs.obj
 0001:0001e5d3       _wrap_get_next_func$catch$4 000000018001f5d3 f   funcs.obj
 0001:0001e5e0       __catch$_wrap_get_next_func$4 000000018001f5e0 f   funcs.obj
 0001:0001e60c       _wrap_get_next_func$catch$3 000000018001f60c f   funcs.obj
 0001:0001e619       __catch$_wrap_get_next_func$6 000000018001f619 f   funcs.obj
 0001:0001e631       _wrap_get_next_func$catch$2 000000018001f631 f   funcs.obj
 0001:0001e63e       __catch$_wrap_get_next_func$8 000000018001f63e f   funcs.obj
 0001:0001e656       _wrap_get_next_func$catch$1 000000018001f656 f   funcs.obj
 0001:0001e663       __catch$_wrap_get_next_func$10 000000018001f663 f   funcs.obj
 0001:0001e68f       _wrap_get_next_func$catch$0 000000018001f68f f   funcs.obj
 0001:0001e69c       __catch$_wrap_get_next_func$12 000000018001f69c f   funcs.obj
 0001:0001e6d0       _wrap_get_next_func_addr$catch$5 000000018001f6d0 f   funcs.obj
 0001:0001e6dd       __catch$_wrap_get_next_func_addr$3 000000018001f6dd f   funcs.obj
 0001:0001e703       _wrap_get_next_func_addr$catch$4 000000018001f703 f   funcs.obj
 0001:0001e710       __catch$_wrap_get_next_func_addr$5 000000018001f710 f   funcs.obj
 0001:0001e73c       _wrap_get_next_func_addr$catch$3 000000018001f73c f   funcs.obj
 0001:0001e749       __catch$_wrap_get_next_func_addr$7 000000018001f749 f   funcs.obj
 0001:0001e761       _wrap_get_next_func_addr$catch$2 000000018001f761 f   funcs.obj
 0001:0001e76e       __catch$_wrap_get_next_func_addr$9 000000018001f76e f   funcs.obj
 0001:0001e786       _wrap_get_next_func_addr$catch$1 000000018001f786 f   funcs.obj
 0001:0001e793       __catch$_wrap_get_next_func_addr$11 000000018001f793 f   funcs.obj
 0001:0001e7bf       _wrap_get_next_func_addr$catch$0 000000018001f7bf f   funcs.obj
 0001:0001e7cc       __catch$_wrap_get_next_func_addr$13 000000018001f7cc f   funcs.obj
 0001:0001e800       _wrap_get_prev_fchunk$catch$5 000000018001f800 f   funcs.obj
 0001:0001e80d       __catch$_wrap_get_prev_fchunk$2 000000018001f80d f   funcs.obj
 0001:0001e833       _wrap_get_prev_fchunk$catch$4 000000018001f833 f   funcs.obj
 0001:0001e840       __catch$_wrap_get_prev_fchunk$4 000000018001f840 f   funcs.obj
 0001:0001e86c       _wrap_get_prev_fchunk$catch$3 000000018001f86c f   funcs.obj
 0001:0001e879       __catch$_wrap_get_prev_fchunk$6 000000018001f879 f   funcs.obj
 0001:0001e891       _wrap_get_prev_fchunk$catch$2 000000018001f891 f   funcs.obj
 0001:0001e89e       __catch$_wrap_get_prev_fchunk$8 000000018001f89e f   funcs.obj
 0001:0001e8b6       _wrap_get_prev_fchunk$catch$1 000000018001f8b6 f   funcs.obj
 0001:0001e8c3       __catch$_wrap_get_prev_fchunk$10 000000018001f8c3 f   funcs.obj
 0001:0001e8ef       _wrap_get_prev_fchunk$catch$0 000000018001f8ef f   funcs.obj
 0001:0001e8fc       __catch$_wrap_get_prev_fchunk$12 000000018001f8fc f   funcs.obj
 0001:0001e930       _wrap_get_prev_func$catch$5 000000018001f930 f   funcs.obj
 0001:0001e93d       __catch$_wrap_get_prev_func$2 000000018001f93d f   funcs.obj
 0001:0001e963       _wrap_get_prev_func$catch$4 000000018001f963 f   funcs.obj
 0001:0001e970       __catch$_wrap_get_prev_func$4 000000018001f970 f   funcs.obj
 0001:0001e99c       _wrap_get_prev_func$catch$3 000000018001f99c f   funcs.obj
 0001:0001e9a9       __catch$_wrap_get_prev_func$6 000000018001f9a9 f   funcs.obj
 0001:0001e9c1       _wrap_get_prev_func$catch$2 000000018001f9c1 f   funcs.obj
 0001:0001e9ce       __catch$_wrap_get_prev_func$8 000000018001f9ce f   funcs.obj
 0001:0001e9e6       _wrap_get_prev_func$catch$1 000000018001f9e6 f   funcs.obj
 0001:0001e9f3       __catch$_wrap_get_prev_func$10 000000018001f9f3 f   funcs.obj
 0001:0001ea1f       _wrap_get_prev_func$catch$0 000000018001fa1f f   funcs.obj
 0001:0001ea2c       __catch$_wrap_get_prev_func$12 000000018001fa2c f   funcs.obj
 0001:0001ea60       _wrap_get_prev_func_addr$catch$5 000000018001fa60 f   funcs.obj
 0001:0001ea6d       __catch$_wrap_get_prev_func_addr$3 000000018001fa6d f   funcs.obj
 0001:0001ea93       _wrap_get_prev_func_addr$catch$4 000000018001fa93 f   funcs.obj
 0001:0001eaa0       __catch$_wrap_get_prev_func_addr$5 000000018001faa0 f   funcs.obj
 0001:0001eacc       _wrap_get_prev_func_addr$catch$3 000000018001facc f   funcs.obj
 0001:0001ead9       __catch$_wrap_get_prev_func_addr$7 000000018001fad9 f   funcs.obj
 0001:0001eaf1       _wrap_get_prev_func_addr$catch$2 000000018001faf1 f   funcs.obj
 0001:0001eafe       __catch$_wrap_get_prev_func_addr$9 000000018001fafe f   funcs.obj
 0001:0001eb16       _wrap_get_prev_func_addr$catch$1 000000018001fb16 f   funcs.obj
 0001:0001eb23       __catch$_wrap_get_prev_func_addr$11 000000018001fb23 f   funcs.obj
 0001:0001eb4f       _wrap_get_prev_func_addr$catch$0 000000018001fb4f f   funcs.obj
 0001:0001eb5c       __catch$_wrap_get_prev_func_addr$13 000000018001fb5c f   funcs.obj
 0001:0001eb90       _wrap_getn_fchunk$catch$5  000000018001fb90 f   funcs.obj
 0001:0001eb9d       __catch$_wrap_getn_fchunk$2 000000018001fb9d f   funcs.obj
 0001:0001ebc3       _wrap_getn_fchunk$catch$4  000000018001fbc3 f   funcs.obj
 0001:0001ebd0       __catch$_wrap_getn_fchunk$4 000000018001fbd0 f   funcs.obj
 0001:0001ebfc       _wrap_getn_fchunk$catch$3  000000018001fbfc f   funcs.obj
 0001:0001ec09       __catch$_wrap_getn_fchunk$6 000000018001fc09 f   funcs.obj
 0001:0001ec21       _wrap_getn_fchunk$catch$2  000000018001fc21 f   funcs.obj
 0001:0001ec2e       __catch$_wrap_getn_fchunk$8 000000018001fc2e f   funcs.obj
 0001:0001ec46       _wrap_getn_fchunk$catch$1  000000018001fc46 f   funcs.obj
 0001:0001ec53       __catch$_wrap_getn_fchunk$10 000000018001fc53 f   funcs.obj
 0001:0001ec7f       _wrap_getn_fchunk$catch$0  000000018001fc7f f   funcs.obj
 0001:0001ec8c       __catch$_wrap_getn_fchunk$12 000000018001fc8c f   funcs.obj
 0001:0001ecc0       _wrap_getn_func$catch$5    000000018001fcc0 f   funcs.obj
 0001:0001eccd       __catch$_wrap_getn_func$2  000000018001fccd f   funcs.obj
 0001:0001ecf3       _wrap_getn_func$catch$4    000000018001fcf3 f   funcs.obj
 0001:0001ed00       __catch$_wrap_getn_func$4  000000018001fd00 f   funcs.obj
 0001:0001ed2c       _wrap_getn_func$catch$3    000000018001fd2c f   funcs.obj
 0001:0001ed39       __catch$_wrap_getn_func$6  000000018001fd39 f   funcs.obj
 0001:0001ed51       _wrap_getn_func$catch$2    000000018001fd51 f   funcs.obj
 0001:0001ed5e       __catch$_wrap_getn_func$8  000000018001fd5e f   funcs.obj
 0001:0001ed76       _wrap_getn_func$catch$1    000000018001fd76 f   funcs.obj
 0001:0001ed83       __catch$_wrap_getn_func$10 000000018001fd83 f   funcs.obj
 0001:0001edaf       _wrap_getn_func$catch$0    000000018001fdaf f   funcs.obj
 0001:0001edbc       __catch$_wrap_getn_func$12 000000018001fdbc f   funcs.obj
 0001:0001edf0       _wrap_is_finally_visible_func$catch$5 000000018001fdf0 f   funcs.obj
 0001:0001edfd       __catch$_wrap_is_finally_visible_func$2 000000018001fdfd f   funcs.obj
 0001:0001ee23       _wrap_is_finally_visible_func$catch$4 000000018001fe23 f   funcs.obj
 0001:0001ee30       __catch$_wrap_is_finally_visible_func$4 000000018001fe30 f   funcs.obj
 0001:0001ee5c       _wrap_is_finally_visible_func$catch$3 000000018001fe5c f   funcs.obj
 0001:0001ee69       __catch$_wrap_is_finally_visible_func$6 000000018001fe69 f   funcs.obj
 0001:0001ee81       _wrap_is_finally_visible_func$catch$2 000000018001fe81 f   funcs.obj
 0001:0001ee8e       __catch$_wrap_is_finally_visible_func$8 000000018001fe8e f   funcs.obj
 0001:0001eea6       _wrap_is_finally_visible_func$catch$1 000000018001fea6 f   funcs.obj
 0001:0001eeb3       __catch$_wrap_is_finally_visible_func$10 000000018001feb3 f   funcs.obj
 0001:0001eedf       _wrap_is_finally_visible_func$catch$0 000000018001fedf f   funcs.obj
 0001:0001eeec       __catch$_wrap_is_finally_visible_func$12 000000018001feec f   funcs.obj
 0001:0001ef20       _wrap_is_func_entry$catch$5 000000018001ff20 f   funcs.obj
 0001:0001ef2d       __catch$_wrap_is_func_entry$2 000000018001ff2d f   funcs.obj
 0001:0001ef53       _wrap_is_func_entry$catch$4 000000018001ff53 f   funcs.obj
 0001:0001ef60       __catch$_wrap_is_func_entry$4 000000018001ff60 f   funcs.obj
 0001:0001ef8c       _wrap_is_func_entry$catch$3 000000018001ff8c f   funcs.obj
 0001:0001ef99       __catch$_wrap_is_func_entry$6 000000018001ff99 f   funcs.obj
 0001:0001efb1       _wrap_is_func_entry$catch$2 000000018001ffb1 f   funcs.obj
 0001:0001efbe       __catch$_wrap_is_func_entry$8 000000018001ffbe f   funcs.obj
 0001:0001efd6       _wrap_is_func_entry$catch$1 000000018001ffd6 f   funcs.obj
 0001:0001efe3       __catch$_wrap_is_func_entry$10 000000018001ffe3 f   funcs.obj
 0001:0001f00f       _wrap_is_func_entry$catch$0 000000018002000f f   funcs.obj
 0001:0001f01c       __catch$_wrap_is_func_entry$12 000000018002001c f   funcs.obj
 0001:0001f050       _wrap_is_func_locked$catch$5 0000000180020050 f   funcs.obj
 0001:0001f05d       __catch$_wrap_is_func_locked$2 000000018002005d f   funcs.obj
 0001:0001f083       _wrap_is_func_locked$catch$4 0000000180020083 f   funcs.obj
 0001:0001f090       __catch$_wrap_is_func_locked$4 0000000180020090 f   funcs.obj
 0001:0001f0bc       _wrap_is_func_locked$catch$3 00000001800200bc f   funcs.obj
 0001:0001f0c9       __catch$_wrap_is_func_locked$6 00000001800200c9 f   funcs.obj
 0001:0001f0e1       _wrap_is_func_locked$catch$2 00000001800200e1 f   funcs.obj
 0001:0001f0ee       __catch$_wrap_is_func_locked$8 00000001800200ee f   funcs.obj
 0001:0001f106       _wrap_is_func_locked$catch$1 0000000180020106 f   funcs.obj
 0001:0001f113       __catch$_wrap_is_func_locked$10 0000000180020113 f   funcs.obj
 0001:0001f13f       _wrap_is_func_locked$catch$0 000000018002013f f   funcs.obj
 0001:0001f14c       __catch$_wrap_is_func_locked$12 000000018002014c f   funcs.obj
 0001:0001f180       _wrap_is_func_tail$catch$5 0000000180020180 f   funcs.obj
 0001:0001f18d       __catch$_wrap_is_func_tail$2 000000018002018d f   funcs.obj
 0001:0001f1b3       _wrap_is_func_tail$catch$4 00000001800201b3 f   funcs.obj
 0001:0001f1c0       __catch$_wrap_is_func_tail$4 00000001800201c0 f   funcs.obj
 0001:0001f1ec       _wrap_is_func_tail$catch$3 00000001800201ec f   funcs.obj
 0001:0001f1f9       __catch$_wrap_is_func_tail$6 00000001800201f9 f   funcs.obj
 0001:0001f211       _wrap_is_func_tail$catch$2 0000000180020211 f   funcs.obj
 0001:0001f21e       __catch$_wrap_is_func_tail$8 000000018002021e f   funcs.obj
 0001:0001f236       _wrap_is_func_tail$catch$1 0000000180020236 f   funcs.obj
 0001:0001f243       __catch$_wrap_is_func_tail$10 0000000180020243 f   funcs.obj
 0001:0001f26f       _wrap_is_func_tail$catch$0 000000018002026f f   funcs.obj
 0001:0001f27c       __catch$_wrap_is_func_tail$12 000000018002027c f   funcs.obj
 0001:0001f2b0       _wrap_is_same_func$catch$5 00000001800202b0 f   funcs.obj
 0001:0001f2bd       __catch$_wrap_is_same_func$3 00000001800202bd f   funcs.obj
 0001:0001f2e3       _wrap_is_same_func$catch$4 00000001800202e3 f   funcs.obj
 0001:0001f2f0       __catch$_wrap_is_same_func$5 00000001800202f0 f   funcs.obj
 0001:0001f31c       _wrap_is_same_func$catch$3 000000018002031c f   funcs.obj
 0001:0001f329       __catch$_wrap_is_same_func$7 0000000180020329 f   funcs.obj
 0001:0001f341       _wrap_is_same_func$catch$2 0000000180020341 f   funcs.obj
 0001:0001f34e       __catch$_wrap_is_same_func$9 000000018002034e f   funcs.obj
 0001:0001f366       _wrap_is_same_func$catch$1 0000000180020366 f   funcs.obj
 0001:0001f373       __catch$_wrap_is_same_func$11 0000000180020373 f   funcs.obj
 0001:0001f39f       _wrap_is_same_func$catch$0 000000018002039f f   funcs.obj
 0001:0001f3ac       __catch$_wrap_is_same_func$13 00000001800203ac f   funcs.obj
 0001:0001f3e0       _wrap_is_visible_func$catch$5 00000001800203e0 f   funcs.obj
 0001:0001f3ed       __catch$_wrap_is_visible_func$2 00000001800203ed f   funcs.obj
 0001:0001f413       _wrap_is_visible_func$catch$4 0000000180020413 f   funcs.obj
 0001:0001f420       __catch$_wrap_is_visible_func$4 0000000180020420 f   funcs.obj
 0001:0001f44c       _wrap_is_visible_func$catch$3 000000018002044c f   funcs.obj
 0001:0001f459       __catch$_wrap_is_visible_func$6 0000000180020459 f   funcs.obj
 0001:0001f471       _wrap_is_visible_func$catch$2 0000000180020471 f   funcs.obj
 0001:0001f47e       __catch$_wrap_is_visible_func$8 000000018002047e f   funcs.obj
 0001:0001f496       _wrap_is_visible_func$catch$1 0000000180020496 f   funcs.obj
 0001:0001f4a3       __catch$_wrap_is_visible_func$10 00000001800204a3 f   funcs.obj
 0001:0001f4cf       _wrap_is_visible_func$catch$0 00000001800204cf f   funcs.obj
 0001:0001f4dc       __catch$_wrap_is_visible_func$12 00000001800204dc f   funcs.obj
 0001:0001f510       _wrap_lock_func_range$catch$5 0000000180020510 f   funcs.obj
 0001:0001f51d       __catch$_wrap_lock_func_range$3 000000018002051d f   funcs.obj
 0001:0001f543       _wrap_lock_func_range$catch$4 0000000180020543 f   funcs.obj
 0001:0001f550       __catch$_wrap_lock_func_range$5 0000000180020550 f   funcs.obj
 0001:0001f57c       _wrap_lock_func_range$catch$3 000000018002057c f   funcs.obj
 0001:0001f589       __catch$_wrap_lock_func_range$7 0000000180020589 f   funcs.obj
 0001:0001f5a1       _wrap_lock_func_range$catch$2 00000001800205a1 f   funcs.obj
 0001:0001f5ae       __catch$_wrap_lock_func_range$9 00000001800205ae f   funcs.obj
 0001:0001f5c6       _wrap_lock_func_range$catch$1 00000001800205c6 f   funcs.obj
 0001:0001f5d3       __catch$_wrap_lock_func_range$11 00000001800205d3 f   funcs.obj
 0001:0001f5ff       _wrap_lock_func_range$catch$0 00000001800205ff f   funcs.obj
 0001:0001f60c       __catch$_wrap_lock_func_range$13 000000018002060c f   funcs.obj
 0001:0001f640       _wrap_new_func_item_iterator_t__SWIG_0$catch$1 0000000180020640 f   funcs.obj
 0001:0001f64d       __catch$_wrap_new_func_item_iterator_t__SWIG_0$1 000000018002064d f   funcs.obj
 0001:0001f673       _wrap_new_func_item_iterator_t__SWIG_0$catch$2 0000000180020673 f   funcs.obj
 0001:0001f680       __catch$_wrap_new_func_item_iterator_t__SWIG_0$3 0000000180020680 f   funcs.obj
 0001:0001f6ac       _wrap_new_func_item_iterator_t__SWIG_0$catch$3 00000001800206ac f   funcs.obj
 0001:0001f6b9       __catch$_wrap_new_func_item_iterator_t__SWIG_0$5 00000001800206b9 f   funcs.obj
 0001:0001f6d1       _wrap_new_func_item_iterator_t__SWIG_0$catch$4 00000001800206d1 f   funcs.obj
 0001:0001f6de       __catch$_wrap_new_func_item_iterator_t__SWIG_0$7 00000001800206de f   funcs.obj
 0001:0001f6f6       _wrap_new_func_item_iterator_t__SWIG_0$catch$5 00000001800206f6 f   funcs.obj
 0001:0001f703       __catch$_wrap_new_func_item_iterator_t__SWIG_0$9 0000000180020703 f   funcs.obj
 0001:0001f72f       _wrap_new_func_item_iterator_t__SWIG_0$catch$6 000000018002072f f   funcs.obj
 0001:0001f73c       __catch$_wrap_new_func_item_iterator_t__SWIG_0$11 000000018002073c f   funcs.obj
 0001:0001f770       _wrap_new_func_item_iterator_t__SWIG_1$catch$1 0000000180020770 f   funcs.obj
 0001:0001f77d       __catch$_wrap_new_func_item_iterator_t__SWIG_1$3 000000018002077d f   funcs.obj
 0001:0001f7a3       _wrap_new_func_item_iterator_t__SWIG_1$catch$2 00000001800207a3 f   funcs.obj
 0001:0001f7b0       __catch$_wrap_new_func_item_iterator_t__SWIG_1$5 00000001800207b0 f   funcs.obj
 0001:0001f7dc       _wrap_new_func_item_iterator_t__SWIG_1$catch$3 00000001800207dc f   funcs.obj
 0001:0001f7e9       __catch$_wrap_new_func_item_iterator_t__SWIG_1$7 00000001800207e9 f   funcs.obj
 0001:0001f801       _wrap_new_func_item_iterator_t__SWIG_1$catch$4 0000000180020801 f   funcs.obj
 0001:0001f80e       __catch$_wrap_new_func_item_iterator_t__SWIG_1$9 000000018002080e f   funcs.obj
 0001:0001f826       _wrap_new_func_item_iterator_t__SWIG_1$catch$5 0000000180020826 f   funcs.obj
 0001:0001f833       __catch$_wrap_new_func_item_iterator_t__SWIG_1$11 0000000180020833 f   funcs.obj
 0001:0001f85f       _wrap_new_func_item_iterator_t__SWIG_1$catch$6 000000018002085f f   funcs.obj
 0001:0001f86c       __catch$_wrap_new_func_item_iterator_t__SWIG_1$13 000000018002086c f   funcs.obj
 0001:0001f8a0       _wrap_new_func_parent_iterator_t__SWIG_0$catch$1 00000001800208a0 f   funcs.obj
 0001:0001f8ad       __catch$_wrap_new_func_parent_iterator_t__SWIG_0$1 00000001800208ad f   funcs.obj
 0001:0001f8d3       _wrap_new_func_parent_iterator_t__SWIG_0$catch$2 00000001800208d3 f   funcs.obj
 0001:0001f8e0       __catch$_wrap_new_func_parent_iterator_t__SWIG_0$3 00000001800208e0 f   funcs.obj
 0001:0001f90c       _wrap_new_func_parent_iterator_t__SWIG_0$catch$3 000000018002090c f   funcs.obj
 0001:0001f919       __catch$_wrap_new_func_parent_iterator_t__SWIG_0$5 0000000180020919 f   funcs.obj
 0001:0001f931       _wrap_new_func_parent_iterator_t__SWIG_0$catch$4 0000000180020931 f   funcs.obj
 0001:0001f93e       __catch$_wrap_new_func_parent_iterator_t__SWIG_0$7 000000018002093e f   funcs.obj
 0001:0001f956       _wrap_new_func_parent_iterator_t__SWIG_0$catch$5 0000000180020956 f   funcs.obj
 0001:0001f963       __catch$_wrap_new_func_parent_iterator_t__SWIG_0$9 0000000180020963 f   funcs.obj
 0001:0001f98f       _wrap_new_func_parent_iterator_t__SWIG_0$catch$6 000000018002098f f   funcs.obj
 0001:0001f99c       __catch$_wrap_new_func_parent_iterator_t__SWIG_0$11 000000018002099c f   funcs.obj
 0001:0001f9d0       _wrap_new_func_parent_iterator_t__SWIG_1$catch$1 00000001800209d0 f   funcs.obj
 0001:0001f9dd       __catch$_wrap_new_func_parent_iterator_t__SWIG_1$2 00000001800209dd f   funcs.obj
 0001:0001fa03       _wrap_new_func_parent_iterator_t__SWIG_1$catch$2 0000000180020a03 f   funcs.obj
 0001:0001fa10       __catch$_wrap_new_func_parent_iterator_t__SWIG_1$4 0000000180020a10 f   funcs.obj
 0001:0001fa3c       _wrap_new_func_parent_iterator_t__SWIG_1$catch$3 0000000180020a3c f   funcs.obj
 0001:0001fa49       __catch$_wrap_new_func_parent_iterator_t__SWIG_1$6 0000000180020a49 f   funcs.obj
 0001:0001fa61       _wrap_new_func_parent_iterator_t__SWIG_1$catch$4 0000000180020a61 f   funcs.obj
 0001:0001fa6e       __catch$_wrap_new_func_parent_iterator_t__SWIG_1$8 0000000180020a6e f   funcs.obj
 0001:0001fa86       _wrap_new_func_parent_iterator_t__SWIG_1$catch$5 0000000180020a86 f   funcs.obj
 0001:0001fa93       __catch$_wrap_new_func_parent_iterator_t__SWIG_1$10 0000000180020a93 f   funcs.obj
 0001:0001fabf       _wrap_new_func_parent_iterator_t__SWIG_1$catch$6 0000000180020abf f   funcs.obj
 0001:0001facc       __catch$_wrap_new_func_parent_iterator_t__SWIG_1$12 0000000180020acc f   funcs.obj
 0001:0001fb00       _wrap_new_func_t$catch$1   0000000180020b00 f   funcs.obj
 0001:0001fb0d       __catch$_wrap_new_func_t$4 0000000180020b0d f   funcs.obj
 0001:0001fb33       _wrap_new_func_t$catch$2   0000000180020b33 f   funcs.obj
 0001:0001fb40       __catch$_wrap_new_func_t$6 0000000180020b40 f   funcs.obj
 0001:0001fb6c       _wrap_new_func_t$catch$3   0000000180020b6c f   funcs.obj
 0001:0001fb79       __catch$_wrap_new_func_t$8 0000000180020b79 f   funcs.obj
 0001:0001fb91       _wrap_new_func_t$catch$4   0000000180020b91 f   funcs.obj
 0001:0001fb9e       __catch$_wrap_new_func_t$10 0000000180020b9e f   funcs.obj
 0001:0001fbb6       _wrap_new_func_t$catch$5   0000000180020bb6 f   funcs.obj
 0001:0001fbc3       __catch$_wrap_new_func_t$12 0000000180020bc3 f   funcs.obj
 0001:0001fbef       _wrap_new_func_t$catch$6   0000000180020bef f   funcs.obj
 0001:0001fbfc       __catch$_wrap_new_func_t$14 0000000180020bfc f   funcs.obj
 0001:0001fc30       _wrap_new_func_tail_iterator_t__SWIG_0$catch$1 0000000180020c30 f   funcs.obj
 0001:0001fc3d       __catch$_wrap_new_func_tail_iterator_t__SWIG_0$1 0000000180020c3d f   funcs.obj
 0001:0001fc63       _wrap_new_func_tail_iterator_t__SWIG_0$catch$2 0000000180020c63 f   funcs.obj
 0001:0001fc70       __catch$_wrap_new_func_tail_iterator_t__SWIG_0$3 0000000180020c70 f   funcs.obj
 0001:0001fc9c       _wrap_new_func_tail_iterator_t__SWIG_0$catch$3 0000000180020c9c f   funcs.obj
 0001:0001fca9       __catch$_wrap_new_func_tail_iterator_t__SWIG_0$5 0000000180020ca9 f   funcs.obj
 0001:0001fcc1       _wrap_new_func_tail_iterator_t__SWIG_0$catch$4 0000000180020cc1 f   funcs.obj
 0001:0001fcce       __catch$_wrap_new_func_tail_iterator_t__SWIG_0$7 0000000180020cce f   funcs.obj
 0001:0001fce6       _wrap_new_func_tail_iterator_t__SWIG_0$catch$5 0000000180020ce6 f   funcs.obj
 0001:0001fcf3       __catch$_wrap_new_func_tail_iterator_t__SWIG_0$9 0000000180020cf3 f   funcs.obj
 0001:0001fd1f       _wrap_new_func_tail_iterator_t__SWIG_0$catch$6 0000000180020d1f f   funcs.obj
 0001:0001fd2c       __catch$_wrap_new_func_tail_iterator_t__SWIG_0$11 0000000180020d2c f   funcs.obj
 0001:0001fd60       _wrap_new_func_tail_iterator_t__SWIG_1$catch$1 0000000180020d60 f   funcs.obj
 0001:0001fd6d       __catch$_wrap_new_func_tail_iterator_t__SWIG_1$3 0000000180020d6d f   funcs.obj
 0001:0001fd93       _wrap_new_func_tail_iterator_t__SWIG_1$catch$2 0000000180020d93 f   funcs.obj
 0001:0001fda0       __catch$_wrap_new_func_tail_iterator_t__SWIG_1$5 0000000180020da0 f   funcs.obj
 0001:0001fdcc       _wrap_new_func_tail_iterator_t__SWIG_1$catch$3 0000000180020dcc f   funcs.obj
 0001:0001fdd9       __catch$_wrap_new_func_tail_iterator_t__SWIG_1$7 0000000180020dd9 f   funcs.obj
 0001:0001fdf1       _wrap_new_func_tail_iterator_t__SWIG_1$catch$4 0000000180020df1 f   funcs.obj
 0001:0001fdfe       __catch$_wrap_new_func_tail_iterator_t__SWIG_1$9 0000000180020dfe f   funcs.obj
 0001:0001fe16       _wrap_new_func_tail_iterator_t__SWIG_1$catch$5 0000000180020e16 f   funcs.obj
 0001:0001fe23       __catch$_wrap_new_func_tail_iterator_t__SWIG_1$11 0000000180020e23 f   funcs.obj
 0001:0001fe4f       _wrap_new_func_tail_iterator_t__SWIG_1$catch$6 0000000180020e4f f   funcs.obj
 0001:0001fe5c       __catch$_wrap_new_func_tail_iterator_t__SWIG_1$13 0000000180020e5c f   funcs.obj
 0001:0001fe90       _wrap_new_lock_func$catch$1 0000000180020e90 f   funcs.obj
 0001:0001fe9d       __catch$_wrap_new_lock_func$2 0000000180020e9d f   funcs.obj
 0001:0001fec3       _wrap_new_lock_func$catch$2 0000000180020ec3 f   funcs.obj
 0001:0001fed0       __catch$_wrap_new_lock_func$4 0000000180020ed0 f   funcs.obj
 0001:0001fefc       _wrap_new_lock_func$catch$3 0000000180020efc f   funcs.obj
 0001:0001ff09       __catch$_wrap_new_lock_func$6 0000000180020f09 f   funcs.obj
 0001:0001ff21       _wrap_new_lock_func$catch$4 0000000180020f21 f   funcs.obj
 0001:0001ff2e       __catch$_wrap_new_lock_func$8 0000000180020f2e f   funcs.obj
 0001:0001ff46       _wrap_new_lock_func$catch$5 0000000180020f46 f   funcs.obj
 0001:0001ff53       __catch$_wrap_new_lock_func$10 0000000180020f53 f   funcs.obj
 0001:0001ff7f       _wrap_new_lock_func$catch$6 0000000180020f7f f   funcs.obj
 0001:0001ff8c       __catch$_wrap_new_lock_func$12 0000000180020f8c f   funcs.obj
 0001:0001ffc0       _wrap_new_range_array$catch$1 0000000180020fc0 f   funcs.obj
 0001:0001ffcd       __catch$_wrap_new_range_array$3 0000000180020fcd f   funcs.obj
 0001:0001fff3       _wrap_new_range_array$catch$2 0000000180020ff3 f   funcs.obj
 0001:00020000       __catch$_wrap_new_range_array$5 0000000180021000 f   funcs.obj
 0001:0002002c       _wrap_new_range_array$catch$3 000000018002102c f   funcs.obj
 0001:00020039       __catch$_wrap_new_range_array$7 0000000180021039 f   funcs.obj
 0001:00020051       _wrap_new_range_array$catch$4 0000000180021051 f   funcs.obj
 0001:0002005e       __catch$_wrap_new_range_array$9 000000018002105e f   funcs.obj
 0001:00020076       _wrap_new_range_array$catch$5 0000000180021076 f   funcs.obj
 0001:00020083       __catch$_wrap_new_range_array$11 0000000180021083 f   funcs.obj
 0001:000200af       _wrap_new_range_array$catch$6 00000001800210af f   funcs.obj
 0001:000200bc       __catch$_wrap_new_range_array$13 00000001800210bc f   funcs.obj
 0001:000200f0       _wrap_new_regarg_t$catch$0 00000001800210f0 f   funcs.obj
 0001:000200fd       __catch$_wrap_new_regarg_t$1 00000001800210fd f   funcs.obj
 0001:00020123       _wrap_new_regarg_t$catch$1 0000000180021123 f   funcs.obj
 0001:00020130       __catch$_wrap_new_regarg_t$3 0000000180021130 f   funcs.obj
 0001:0002015c       _wrap_new_regarg_t$catch$2 000000018002115c f   funcs.obj
 0001:00020169       __catch$_wrap_new_regarg_t$5 0000000180021169 f   funcs.obj
 0001:00020181       _wrap_new_regarg_t$catch$3 0000000180021181 f   funcs.obj
 0001:0002018e       __catch$_wrap_new_regarg_t$7 000000018002118e f   funcs.obj
 0001:000201a6       _wrap_new_regarg_t$catch$4 00000001800211a6 f   funcs.obj
 0001:000201b3       __catch$_wrap_new_regarg_t$9 00000001800211b3 f   funcs.obj
 0001:000201df       _wrap_new_regarg_t$catch$5 00000001800211df f   funcs.obj
 0001:000201ec       __catch$_wrap_new_regarg_t$11 00000001800211ec f   funcs.obj
 0001:00020220       _wrap_new_regvar_array$catch$1 0000000180021220 f   funcs.obj
 0001:0002022d       __catch$_wrap_new_regvar_array$3 000000018002122d f   funcs.obj
 0001:00020253       _wrap_new_regvar_array$catch$2 0000000180021253 f   funcs.obj
 0001:00020260       __catch$_wrap_new_regvar_array$5 0000000180021260 f   funcs.obj
 0001:0002028c       _wrap_new_regvar_array$catch$3 000000018002128c f   funcs.obj
 0001:00020299       __catch$_wrap_new_regvar_array$7 0000000180021299 f   funcs.obj
 0001:000202b1       _wrap_new_regvar_array$catch$4 00000001800212b1 f   funcs.obj
 0001:000202be       __catch$_wrap_new_regvar_array$9 00000001800212be f   funcs.obj
 0001:000202d6       _wrap_new_regvar_array$catch$5 00000001800212d6 f   funcs.obj
 0001:000202e3       __catch$_wrap_new_regvar_array$11 00000001800212e3 f   funcs.obj
 0001:0002030f       _wrap_new_regvar_array$catch$6 000000018002130f f   funcs.obj
 0001:0002031c       __catch$_wrap_new_regvar_array$13 000000018002131c f   funcs.obj
 0001:00020350       _wrap_new_stkpnt_array$catch$1 0000000180021350 f   funcs.obj
 0001:0002035d       __catch$_wrap_new_stkpnt_array$3 000000018002135d f   funcs.obj
 0001:00020383       _wrap_new_stkpnt_array$catch$2 0000000180021383 f   funcs.obj
 0001:00020390       __catch$_wrap_new_stkpnt_array$5 0000000180021390 f   funcs.obj
 0001:000203bc       _wrap_new_stkpnt_array$catch$3 00000001800213bc f   funcs.obj
 0001:000203c9       __catch$_wrap_new_stkpnt_array$7 00000001800213c9 f   funcs.obj
 0001:000203e1       _wrap_new_stkpnt_array$catch$4 00000001800213e1 f   funcs.obj
 0001:000203ee       __catch$_wrap_new_stkpnt_array$9 00000001800213ee f   funcs.obj
 0001:00020406       _wrap_new_stkpnt_array$catch$5 0000000180021406 f   funcs.obj
 0001:00020413       __catch$_wrap_new_stkpnt_array$11 0000000180021413 f   funcs.obj
 0001:0002043f       _wrap_new_stkpnt_array$catch$6 000000018002143f f   funcs.obj
 0001:0002044c       __catch$_wrap_new_stkpnt_array$13 000000018002144c f   funcs.obj
 0001:00020480       _wrap_plan_to_apply_idasgn$catch$5 0000000180021480 f   funcs.obj
 0001:0002048d       __catch$_wrap_plan_to_apply_idasgn$2 000000018002148d f   funcs.obj
 0001:000204b3       _wrap_plan_to_apply_idasgn$catch$4 00000001800214b3 f   funcs.obj
 0001:000204c0       __catch$_wrap_plan_to_apply_idasgn$4 00000001800214c0 f   funcs.obj
 0001:000204ec       _wrap_plan_to_apply_idasgn$catch$3 00000001800214ec f   funcs.obj
 0001:000204f9       __catch$_wrap_plan_to_apply_idasgn$6 00000001800214f9 f   funcs.obj
 0001:00020511       _wrap_plan_to_apply_idasgn$catch$2 0000000180021511 f   funcs.obj
 0001:0002051e       __catch$_wrap_plan_to_apply_idasgn$8 000000018002151e f   funcs.obj
 0001:00020536       _wrap_plan_to_apply_idasgn$catch$1 0000000180021536 f   funcs.obj
 0001:00020543       __catch$_wrap_plan_to_apply_idasgn$10 0000000180021543 f   funcs.obj
 0001:0002056f       _wrap_plan_to_apply_idasgn$catch$0 000000018002156f f   funcs.obj
 0001:0002057c       __catch$_wrap_plan_to_apply_idasgn$12 000000018002157c f   funcs.obj
 0001:000205b0       _wrap_range_array___getitem__$catch$0 00000001800215b0 f   funcs.obj
 0001:000205be       __catch$_wrap_range_array___getitem__$3 00000001800215be f   funcs.obj
 0001:0002062d       _wrap_range_array___getitem__$catch$1 000000018002162d f   funcs.obj
 0001:0002063a       __catch$_wrap_range_array___getitem__$6 000000018002163a f   funcs.obj
 0001:00020660       _wrap_range_array___getitem__$catch$2 0000000180021660 f   funcs.obj
 0001:0002066d       __catch$_wrap_range_array___getitem__$8 000000018002166d f   funcs.obj
 0001:00020699       _wrap_range_array___getitem__$catch$3 0000000180021699 f   funcs.obj
 0001:000206a6       __catch$_wrap_range_array___getitem__$10 00000001800216a6 f   funcs.obj
 0001:000206be       _wrap_range_array___getitem__$catch$4 00000001800216be f   funcs.obj
 0001:000206cb       __catch$_wrap_range_array___getitem__$12 00000001800216cb f   funcs.obj
 0001:000206e3       _wrap_range_array___getitem__$catch$5 00000001800216e3 f   funcs.obj
 0001:000206f0       __catch$_wrap_range_array___getitem__$14 00000001800216f0 f   funcs.obj
 0001:0002071c       _wrap_range_array___getitem__$catch$6 000000018002171c f   funcs.obj
 0001:00020729       __catch$_wrap_range_array___getitem__$16 0000000180021729 f   funcs.obj
 0001:00020750       _wrap_range_array___len__$catch$5 0000000180021750 f   funcs.obj
 0001:0002075d       __catch$_wrap_range_array___len__$2 000000018002175d f   funcs.obj
 0001:00020783       _wrap_range_array___len__$catch$4 0000000180021783 f   funcs.obj
 0001:00020790       __catch$_wrap_range_array___len__$4 0000000180021790 f   funcs.obj
 0001:000207bc       _wrap_range_array___len__$catch$3 00000001800217bc f   funcs.obj
 0001:000207c9       __catch$_wrap_range_array___len__$6 00000001800217c9 f   funcs.obj
 0001:000207e1       _wrap_range_array___len__$catch$2 00000001800217e1 f   funcs.obj
 0001:000207ee       __catch$_wrap_range_array___len__$8 00000001800217ee f   funcs.obj
 0001:00020806       _wrap_range_array___len__$catch$1 0000000180021806 f   funcs.obj
 0001:00020813       __catch$_wrap_range_array___len__$10 0000000180021813 f   funcs.obj
 0001:0002083f       _wrap_range_array___len__$catch$0 000000018002183f f   funcs.obj
 0001:0002084c       __catch$_wrap_range_array___len__$12 000000018002184c f   funcs.obj
 0001:00020880       _wrap_range_array___setitem__$catch$0 0000000180021880 f   funcs.obj
 0001:0002088e       __catch$_wrap_range_array___setitem__$5 000000018002188e f   funcs.obj
 0001:000208fd       _wrap_range_array___setitem__$catch$1 00000001800218fd f   funcs.obj
 0001:0002090a       __catch$_wrap_range_array___setitem__$8 000000018002190a f   funcs.obj
 0001:00020930       _wrap_range_array___setitem__$catch$2 0000000180021930 f   funcs.obj
 0001:0002093d       __catch$_wrap_range_array___setitem__$10 000000018002193d f   funcs.obj
 0001:00020969       _wrap_range_array___setitem__$catch$3 0000000180021969 f   funcs.obj
 0001:00020976       __catch$_wrap_range_array___setitem__$12 0000000180021976 f   funcs.obj
 0001:0002098e       _wrap_range_array___setitem__$catch$4 000000018002198e f   funcs.obj
 0001:0002099b       __catch$_wrap_range_array___setitem__$14 000000018002199b f   funcs.obj
 0001:000209b3       _wrap_range_array___setitem__$catch$5 00000001800219b3 f   funcs.obj
 0001:000209c0       __catch$_wrap_range_array___setitem__$16 00000001800219c0 f   funcs.obj
 0001:000209ec       _wrap_range_array___setitem__$catch$6 00000001800219ec f   funcs.obj
 0001:000209f9       __catch$_wrap_range_array___setitem__$18 00000001800219f9 f   funcs.obj
 0001:00020a20       _wrap_read_regargs$catch$5 0000000180021a20 f   funcs.obj
 0001:00020a2d       __catch$_wrap_read_regargs$2 0000000180021a2d f   funcs.obj
 0001:00020a53       _wrap_read_regargs$catch$4 0000000180021a53 f   funcs.obj
 0001:00020a60       __catch$_wrap_read_regargs$4 0000000180021a60 f   funcs.obj
 0001:00020a8c       _wrap_read_regargs$catch$3 0000000180021a8c f   funcs.obj
 0001:00020a99       __catch$_wrap_read_regargs$6 0000000180021a99 f   funcs.obj
 0001:00020ab1       _wrap_read_regargs$catch$2 0000000180021ab1 f   funcs.obj
 0001:00020abe       __catch$_wrap_read_regargs$8 0000000180021abe f   funcs.obj
 0001:00020ad6       _wrap_read_regargs$catch$1 0000000180021ad6 f   funcs.obj
 0001:00020ae3       __catch$_wrap_read_regargs$10 0000000180021ae3 f   funcs.obj
 0001:00020b0f       _wrap_read_regargs$catch$0 0000000180021b0f f   funcs.obj
 0001:00020b1c       __catch$_wrap_read_regargs$12 0000000180021b1c f   funcs.obj
 0001:00020b50       _wrap_reanalyze_function$catch$5 0000000180021b50 f   funcs.obj
 0001:00020b5d       __catch$_wrap_reanalyze_function$5 0000000180021b5d f   funcs.obj
 0001:00020b83       _wrap_reanalyze_function$catch$4 0000000180021b83 f   funcs.obj
 0001:00020b90       __catch$_wrap_reanalyze_function$7 0000000180021b90 f   funcs.obj
 0001:00020bbc       _wrap_reanalyze_function$catch$3 0000000180021bbc f   funcs.obj
 0001:00020bc9       __catch$_wrap_reanalyze_function$9 0000000180021bc9 f   funcs.obj
 0001:00020be1       _wrap_reanalyze_function$catch$2 0000000180021be1 f   funcs.obj
 0001:00020bee       __catch$_wrap_reanalyze_function$11 0000000180021bee f   funcs.obj
 0001:00020c06       _wrap_reanalyze_function$catch$1 0000000180021c06 f   funcs.obj
 0001:00020c13       __catch$_wrap_reanalyze_function$13 0000000180021c13 f   funcs.obj
 0001:00020c3f       _wrap_reanalyze_function$catch$0 0000000180021c3f f   funcs.obj
 0001:00020c4c       __catch$_wrap_reanalyze_function$15 0000000180021c4c f   funcs.obj
 0001:00020c80       _wrap_reanalyze_noret_flag$catch$5 0000000180021c80 f   funcs.obj
 0001:00020c8d       __catch$_wrap_reanalyze_noret_flag$2 0000000180021c8d f   funcs.obj
 0001:00020cb3       _wrap_reanalyze_noret_flag$catch$4 0000000180021cb3 f   funcs.obj
 0001:00020cc0       __catch$_wrap_reanalyze_noret_flag$4 0000000180021cc0 f   funcs.obj
 0001:00020cec       _wrap_reanalyze_noret_flag$catch$3 0000000180021cec f   funcs.obj
 0001:00020cf9       __catch$_wrap_reanalyze_noret_flag$6 0000000180021cf9 f   funcs.obj
 0001:00020d11       _wrap_reanalyze_noret_flag$catch$2 0000000180021d11 f   funcs.obj
 0001:00020d1e       __catch$_wrap_reanalyze_noret_flag$8 0000000180021d1e f   funcs.obj
 0001:00020d36       _wrap_reanalyze_noret_flag$catch$1 0000000180021d36 f   funcs.obj
 0001:00020d43       __catch$_wrap_reanalyze_noret_flag$10 0000000180021d43 f   funcs.obj
 0001:00020d6f       _wrap_reanalyze_noret_flag$catch$0 0000000180021d6f f   funcs.obj
 0001:00020d7c       __catch$_wrap_reanalyze_noret_flag$12 0000000180021d7c f   funcs.obj
 0001:00020db0       _wrap_regvar_array___getitem__$catch$0 0000000180021db0 f   funcs.obj
 0001:00020dbe       __catch$_wrap_regvar_array___getitem__$3 0000000180021dbe f   funcs.obj
 0001:00020e2d       _wrap_regvar_array___getitem__$catch$1 0000000180021e2d f   funcs.obj
 0001:00020e3a       __catch$_wrap_regvar_array___getitem__$6 0000000180021e3a f   funcs.obj
 0001:00020e60       _wrap_regvar_array___getitem__$catch$2 0000000180021e60 f   funcs.obj
 0001:00020e6d       __catch$_wrap_regvar_array___getitem__$8 0000000180021e6d f   funcs.obj
 0001:00020e99       _wrap_regvar_array___getitem__$catch$3 0000000180021e99 f   funcs.obj
 0001:00020ea6       __catch$_wrap_regvar_array___getitem__$10 0000000180021ea6 f   funcs.obj
 0001:00020ebe       _wrap_regvar_array___getitem__$catch$4 0000000180021ebe f   funcs.obj
 0001:00020ecb       __catch$_wrap_regvar_array___getitem__$12 0000000180021ecb f   funcs.obj
 0001:00020ee3       _wrap_regvar_array___getitem__$catch$5 0000000180021ee3 f   funcs.obj
 0001:00020ef0       __catch$_wrap_regvar_array___getitem__$14 0000000180021ef0 f   funcs.obj
 0001:00020f1c       _wrap_regvar_array___getitem__$catch$6 0000000180021f1c f   funcs.obj
 0001:00020f29       __catch$_wrap_regvar_array___getitem__$16 0000000180021f29 f   funcs.obj
 0001:00020f50       _wrap_regvar_array___len__$catch$5 0000000180021f50 f   funcs.obj
 0001:00020f5d       __catch$_wrap_regvar_array___len__$2 0000000180021f5d f   funcs.obj
 0001:00020f83       _wrap_regvar_array___len__$catch$4 0000000180021f83 f   funcs.obj
 0001:00020f90       __catch$_wrap_regvar_array___len__$4 0000000180021f90 f   funcs.obj
 0001:00020fbc       _wrap_regvar_array___len__$catch$3 0000000180021fbc f   funcs.obj
 0001:00020fc9       __catch$_wrap_regvar_array___len__$6 0000000180021fc9 f   funcs.obj
 0001:00020fe1       _wrap_regvar_array___len__$catch$2 0000000180021fe1 f   funcs.obj
 0001:00020fee       __catch$_wrap_regvar_array___len__$8 0000000180021fee f   funcs.obj
 0001:00021006       _wrap_regvar_array___len__$catch$1 0000000180022006 f   funcs.obj
 0001:00021013       __catch$_wrap_regvar_array___len__$10 0000000180022013 f   funcs.obj
 0001:0002103f       _wrap_regvar_array___len__$catch$0 000000018002203f f   funcs.obj
 0001:0002104c       __catch$_wrap_regvar_array___len__$12 000000018002204c f   funcs.obj
 0001:00021080       _wrap_regvar_array___setitem__$catch$0 0000000180022080 f   funcs.obj
 0001:0002108e       __catch$_wrap_regvar_array___setitem__$5 000000018002208e f   funcs.obj
 0001:000210fd       _wrap_regvar_array___setitem__$catch$1 00000001800220fd f   funcs.obj
 0001:0002110a       __catch$_wrap_regvar_array___setitem__$8 000000018002210a f   funcs.obj
 0001:00021130       _wrap_regvar_array___setitem__$catch$2 0000000180022130 f   funcs.obj
 0001:0002113d       __catch$_wrap_regvar_array___setitem__$10 000000018002213d f   funcs.obj
 0001:00021169       _wrap_regvar_array___setitem__$catch$3 0000000180022169 f   funcs.obj
 0001:00021176       __catch$_wrap_regvar_array___setitem__$12 0000000180022176 f   funcs.obj
 0001:0002118e       _wrap_regvar_array___setitem__$catch$4 000000018002218e f   funcs.obj
 0001:0002119b       __catch$_wrap_regvar_array___setitem__$14 000000018002219b f   funcs.obj
 0001:000211b3       _wrap_regvar_array___setitem__$catch$5 00000001800221b3 f   funcs.obj
 0001:000211c0       __catch$_wrap_regvar_array___setitem__$16 00000001800221c0 f   funcs.obj
 0001:000211ec       _wrap_regvar_array___setitem__$catch$6 00000001800221ec f   funcs.obj
 0001:000211f9       __catch$_wrap_regvar_array___setitem__$18 00000001800221f9 f   funcs.obj
 0001:00021220       _wrap_remove_func_tail$catch$5 0000000180022220 f   funcs.obj
 0001:0002122d       __catch$_wrap_remove_func_tail$3 000000018002222d f   funcs.obj
 0001:00021253       _wrap_remove_func_tail$catch$4 0000000180022253 f   funcs.obj
 0001:00021260       __catch$_wrap_remove_func_tail$5 0000000180022260 f   funcs.obj
 0001:0002128c       _wrap_remove_func_tail$catch$3 000000018002228c f   funcs.obj
 0001:00021299       __catch$_wrap_remove_func_tail$7 0000000180022299 f   funcs.obj
 0001:000212b1       _wrap_remove_func_tail$catch$2 00000001800222b1 f   funcs.obj
 0001:000212be       __catch$_wrap_remove_func_tail$9 00000001800222be f   funcs.obj
 0001:000212d6       _wrap_remove_func_tail$catch$1 00000001800222d6 f   funcs.obj
 0001:000212e3       __catch$_wrap_remove_func_tail$11 00000001800222e3 f   funcs.obj
 0001:0002130f       _wrap_remove_func_tail$catch$0 000000018002230f f   funcs.obj
 0001:0002131c       __catch$_wrap_remove_func_tail$13 000000018002231c f   funcs.obj
 0001:00021350       _wrap_set_func_cmt$catch$5 0000000180022350 f   funcs.obj
 0001:0002135d       __catch$_wrap_set_func_cmt$4 000000018002235d f   funcs.obj
 0001:00021383       _wrap_set_func_cmt$catch$4 0000000180022383 f   funcs.obj
 0001:00021390       __catch$_wrap_set_func_cmt$6 0000000180022390 f   funcs.obj
 0001:000213bc       _wrap_set_func_cmt$catch$3 00000001800223bc f   funcs.obj
 0001:000213c9       __catch$_wrap_set_func_cmt$8 00000001800223c9 f   funcs.obj
 0001:000213e1       _wrap_set_func_cmt$catch$2 00000001800223e1 f   funcs.obj
 0001:000213ee       __catch$_wrap_set_func_cmt$10 00000001800223ee f   funcs.obj
 0001:00021406       _wrap_set_func_cmt$catch$1 0000000180022406 f   funcs.obj
 0001:00021413       __catch$_wrap_set_func_cmt$12 0000000180022413 f   funcs.obj
 0001:0002143f       _wrap_set_func_cmt$catch$0 000000018002243f f   funcs.obj
 0001:0002144c       __catch$_wrap_set_func_cmt$14 000000018002244c f   funcs.obj
 0001:00021480       _wrap_set_func_end$catch$5 0000000180022480 f   funcs.obj
 0001:0002148d       __catch$_wrap_set_func_end$3 000000018002248d f   funcs.obj
 0001:000214b3       _wrap_set_func_end$catch$4 00000001800224b3 f   funcs.obj
 0001:000214c0       __catch$_wrap_set_func_end$5 00000001800224c0 f   funcs.obj
 0001:000214ec       _wrap_set_func_end$catch$3 00000001800224ec f   funcs.obj
 0001:000214f9       __catch$_wrap_set_func_end$7 00000001800224f9 f   funcs.obj
 0001:00021511       _wrap_set_func_end$catch$2 0000000180022511 f   funcs.obj
 0001:0002151e       __catch$_wrap_set_func_end$9 000000018002251e f   funcs.obj
 0001:00021536       _wrap_set_func_end$catch$1 0000000180022536 f   funcs.obj
 0001:00021543       __catch$_wrap_set_func_end$11 0000000180022543 f   funcs.obj
 0001:0002156f       _wrap_set_func_end$catch$0 000000018002256f f   funcs.obj
 0001:0002157c       __catch$_wrap_set_func_end$13 000000018002257c f   funcs.obj
 0001:000215b0       _wrap_set_func_name_if_jumpfunc$catch$5 00000001800225b0 f   funcs.obj
 0001:000215bd       __catch$_wrap_set_func_name_if_jumpfunc$3 00000001800225bd f   funcs.obj
 0001:000215e3       _wrap_set_func_name_if_jumpfunc$catch$4 00000001800225e3 f   funcs.obj
 0001:000215f0       __catch$_wrap_set_func_name_if_jumpfunc$5 00000001800225f0 f   funcs.obj
 0001:0002161c       _wrap_set_func_name_if_jumpfunc$catch$3 000000018002261c f   funcs.obj
 0001:00021629       __catch$_wrap_set_func_name_if_jumpfunc$7 0000000180022629 f   funcs.obj
 0001:00021641       _wrap_set_func_name_if_jumpfunc$catch$2 0000000180022641 f   funcs.obj
 0001:0002164e       __catch$_wrap_set_func_name_if_jumpfunc$9 000000018002264e f   funcs.obj
 0001:00021666       _wrap_set_func_name_if_jumpfunc$catch$1 0000000180022666 f   funcs.obj
 0001:00021673       __catch$_wrap_set_func_name_if_jumpfunc$11 0000000180022673 f   funcs.obj
 0001:0002169f       _wrap_set_func_name_if_jumpfunc$catch$0 000000018002269f f   funcs.obj
 0001:000216ac       __catch$_wrap_set_func_name_if_jumpfunc$13 00000001800226ac f   funcs.obj
 0001:000216e0       _wrap_set_func_start$catch$5 00000001800226e0 f   funcs.obj
 0001:000216ed       __catch$_wrap_set_func_start$3 00000001800226ed f   funcs.obj
 0001:00021713       _wrap_set_func_start$catch$4 0000000180022713 f   funcs.obj
 0001:00021720       __catch$_wrap_set_func_start$5 0000000180022720 f   funcs.obj
 0001:0002174c       _wrap_set_func_start$catch$3 000000018002274c f   funcs.obj
 0001:00021759       __catch$_wrap_set_func_start$7 0000000180022759 f   funcs.obj
 0001:00021771       _wrap_set_func_start$catch$2 0000000180022771 f   funcs.obj
 0001:0002177e       __catch$_wrap_set_func_start$9 000000018002277e f   funcs.obj
 0001:00021796       _wrap_set_func_start$catch$1 0000000180022796 f   funcs.obj
 0001:000217a3       __catch$_wrap_set_func_start$11 00000001800227a3 f   funcs.obj
 0001:000217cf       _wrap_set_func_start$catch$0 00000001800227cf f   funcs.obj
 0001:000217dc       __catch$_wrap_set_func_start$13 00000001800227dc f   funcs.obj
 0001:00021810       _wrap_set_noret_insn$catch$5 0000000180022810 f   funcs.obj
 0001:0002181d       __catch$_wrap_set_noret_insn$3 000000018002281d f   funcs.obj
 0001:00021843       _wrap_set_noret_insn$catch$4 0000000180022843 f   funcs.obj
 0001:00021850       __catch$_wrap_set_noret_insn$5 0000000180022850 f   funcs.obj
 0001:0002187c       _wrap_set_noret_insn$catch$3 000000018002287c f   funcs.obj
 0001:00021889       __catch$_wrap_set_noret_insn$7 0000000180022889 f   funcs.obj
 0001:000218a1       _wrap_set_noret_insn$catch$2 00000001800228a1 f   funcs.obj
 0001:000218ae       __catch$_wrap_set_noret_insn$9 00000001800228ae f   funcs.obj
 0001:000218c6       _wrap_set_noret_insn$catch$1 00000001800228c6 f   funcs.obj
 0001:000218d3       __catch$_wrap_set_noret_insn$11 00000001800228d3 f   funcs.obj
 0001:000218ff       _wrap_set_noret_insn$catch$0 00000001800228ff f   funcs.obj
 0001:0002190c       __catch$_wrap_set_noret_insn$13 000000018002290c f   funcs.obj
 0001:00021940       _wrap_set_tail_owner$catch$5 0000000180022940 f   funcs.obj
 0001:0002194d       __catch$_wrap_set_tail_owner$3 000000018002294d f   funcs.obj
 0001:00021973       _wrap_set_tail_owner$catch$4 0000000180022973 f   funcs.obj
 0001:00021980       __catch$_wrap_set_tail_owner$5 0000000180022980 f   funcs.obj
 0001:000219ac       _wrap_set_tail_owner$catch$3 00000001800229ac f   funcs.obj
 0001:000219b9       __catch$_wrap_set_tail_owner$7 00000001800229b9 f   funcs.obj
 0001:000219d1       _wrap_set_tail_owner$catch$2 00000001800229d1 f   funcs.obj
 0001:000219de       __catch$_wrap_set_tail_owner$9 00000001800229de f   funcs.obj
 0001:000219f6       _wrap_set_tail_owner$catch$1 00000001800229f6 f   funcs.obj
 0001:00021a03       __catch$_wrap_set_tail_owner$11 0000000180022a03 f   funcs.obj
 0001:00021a2f       _wrap_set_tail_owner$catch$0 0000000180022a2f f   funcs.obj
 0001:00021a3c       __catch$_wrap_set_tail_owner$13 0000000180022a3c f   funcs.obj
 0001:00021a70       _wrap_set_visible_func$catch$5 0000000180022a70 f   funcs.obj
 0001:00021a7d       __catch$_wrap_set_visible_func$3 0000000180022a7d f   funcs.obj
 0001:00021aa3       _wrap_set_visible_func$catch$4 0000000180022aa3 f   funcs.obj
 0001:00021ab0       __catch$_wrap_set_visible_func$5 0000000180022ab0 f   funcs.obj
 0001:00021adc       _wrap_set_visible_func$catch$3 0000000180022adc f   funcs.obj
 0001:00021ae9       __catch$_wrap_set_visible_func$7 0000000180022ae9 f   funcs.obj
 0001:00021b01       _wrap_set_visible_func$catch$2 0000000180022b01 f   funcs.obj
 0001:00021b0e       __catch$_wrap_set_visible_func$9 0000000180022b0e f   funcs.obj
 0001:00021b26       _wrap_set_visible_func$catch$1 0000000180022b26 f   funcs.obj
 0001:00021b33       __catch$_wrap_set_visible_func$11 0000000180022b33 f   funcs.obj
 0001:00021b5f       _wrap_set_visible_func$catch$0 0000000180022b5f f   funcs.obj
 0001:00021b6c       __catch$_wrap_set_visible_func$13 0000000180022b6c f   funcs.obj
 0001:00021ba0       _wrap_stkpnt_array___getitem__$catch$0 0000000180022ba0 f   funcs.obj
 0001:00021bae       __catch$_wrap_stkpnt_array___getitem__$3 0000000180022bae f   funcs.obj
 0001:00021c1d       _wrap_stkpnt_array___getitem__$catch$1 0000000180022c1d f   funcs.obj
 0001:00021c2a       __catch$_wrap_stkpnt_array___getitem__$6 0000000180022c2a f   funcs.obj
 0001:00021c50       _wrap_stkpnt_array___getitem__$catch$2 0000000180022c50 f   funcs.obj
 0001:00021c5d       __catch$_wrap_stkpnt_array___getitem__$8 0000000180022c5d f   funcs.obj
 0001:00021c89       _wrap_stkpnt_array___getitem__$catch$3 0000000180022c89 f   funcs.obj
 0001:00021c96       __catch$_wrap_stkpnt_array___getitem__$10 0000000180022c96 f   funcs.obj
 0001:00021cae       _wrap_stkpnt_array___getitem__$catch$4 0000000180022cae f   funcs.obj
 0001:00021cbb       __catch$_wrap_stkpnt_array___getitem__$12 0000000180022cbb f   funcs.obj
 0001:00021cd3       _wrap_stkpnt_array___getitem__$catch$5 0000000180022cd3 f   funcs.obj
 0001:00021ce0       __catch$_wrap_stkpnt_array___getitem__$14 0000000180022ce0 f   funcs.obj
 0001:00021d0c       _wrap_stkpnt_array___getitem__$catch$6 0000000180022d0c f   funcs.obj
 0001:00021d19       __catch$_wrap_stkpnt_array___getitem__$16 0000000180022d19 f   funcs.obj
 0001:00021d40       _wrap_stkpnt_array___len__$catch$5 0000000180022d40 f   funcs.obj
 0001:00021d4d       __catch$_wrap_stkpnt_array___len__$2 0000000180022d4d f   funcs.obj
 0001:00021d73       _wrap_stkpnt_array___len__$catch$4 0000000180022d73 f   funcs.obj
 0001:00021d80       __catch$_wrap_stkpnt_array___len__$4 0000000180022d80 f   funcs.obj
 0001:00021dac       _wrap_stkpnt_array___len__$catch$3 0000000180022dac f   funcs.obj
 0001:00021db9       __catch$_wrap_stkpnt_array___len__$6 0000000180022db9 f   funcs.obj
 0001:00021dd1       _wrap_stkpnt_array___len__$catch$2 0000000180022dd1 f   funcs.obj
 0001:00021dde       __catch$_wrap_stkpnt_array___len__$8 0000000180022dde f   funcs.obj
 0001:00021df6       _wrap_stkpnt_array___len__$catch$1 0000000180022df6 f   funcs.obj
 0001:00021e03       __catch$_wrap_stkpnt_array___len__$10 0000000180022e03 f   funcs.obj
 0001:00021e2f       _wrap_stkpnt_array___len__$catch$0 0000000180022e2f f   funcs.obj
 0001:00021e3c       __catch$_wrap_stkpnt_array___len__$12 0000000180022e3c f   funcs.obj
 0001:00021e70       _wrap_stkpnt_array___setitem__$catch$0 0000000180022e70 f   funcs.obj
 0001:00021e7e       __catch$_wrap_stkpnt_array___setitem__$5 0000000180022e7e f   funcs.obj
 0001:00021eed       _wrap_stkpnt_array___setitem__$catch$1 0000000180022eed f   funcs.obj
 0001:00021efa       __catch$_wrap_stkpnt_array___setitem__$8 0000000180022efa f   funcs.obj
 0001:00021f20       _wrap_stkpnt_array___setitem__$catch$2 0000000180022f20 f   funcs.obj
 0001:00021f2d       __catch$_wrap_stkpnt_array___setitem__$10 0000000180022f2d f   funcs.obj
 0001:00021f59       _wrap_stkpnt_array___setitem__$catch$3 0000000180022f59 f   funcs.obj
 0001:00021f66       __catch$_wrap_stkpnt_array___setitem__$12 0000000180022f66 f   funcs.obj
 0001:00021f7e       _wrap_stkpnt_array___setitem__$catch$4 0000000180022f7e f   funcs.obj
 0001:00021f8b       __catch$_wrap_stkpnt_array___setitem__$14 0000000180022f8b f   funcs.obj
 0001:00021fa3       _wrap_stkpnt_array___setitem__$catch$5 0000000180022fa3 f   funcs.obj
 0001:00021fb0       __catch$_wrap_stkpnt_array___setitem__$16 0000000180022fb0 f   funcs.obj
 0001:00021fdc       _wrap_stkpnt_array___setitem__$catch$6 0000000180022fdc f   funcs.obj
 0001:00021fe9       __catch$_wrap_stkpnt_array___setitem__$18 0000000180022fe9 f   funcs.obj
 0001:00022010       _wrap_try_to_add_libfunc$catch$5 0000000180023010 f   funcs.obj
 0001:0002201d       __catch$_wrap_try_to_add_libfunc$2 000000018002301d f   funcs.obj
 0001:00022043       _wrap_try_to_add_libfunc$catch$4 0000000180023043 f   funcs.obj
 0001:00022050       __catch$_wrap_try_to_add_libfunc$4 0000000180023050 f   funcs.obj
 0001:0002207c       _wrap_try_to_add_libfunc$catch$3 000000018002307c f   funcs.obj
 0001:00022089       __catch$_wrap_try_to_add_libfunc$6 0000000180023089 f   funcs.obj
 0001:000220a1       _wrap_try_to_add_libfunc$catch$2 00000001800230a1 f   funcs.obj
 0001:000220ae       __catch$_wrap_try_to_add_libfunc$8 00000001800230ae f   funcs.obj
 0001:000220c6       _wrap_try_to_add_libfunc$catch$1 00000001800230c6 f   funcs.obj
 0001:000220d3       __catch$_wrap_try_to_add_libfunc$10 00000001800230d3 f   funcs.obj
 0001:000220ff       _wrap_try_to_add_libfunc$catch$0 00000001800230ff f   funcs.obj
 0001:0002210c       __catch$_wrap_try_to_add_libfunc$12 000000018002310c f   funcs.obj
 0001:00022140       _wrap_update_func$catch$5  0000000180023140 f   funcs.obj
 0001:0002214d       __catch$_wrap_update_func$2 000000018002314d f   funcs.obj
 0001:00022173       _wrap_update_func$catch$4  0000000180023173 f   funcs.obj
 0001:00022180       __catch$_wrap_update_func$4 0000000180023180 f   funcs.obj
 0001:000221ac       _wrap_update_func$catch$3  00000001800231ac f   funcs.obj
 0001:000221b9       __catch$_wrap_update_func$6 00000001800231b9 f   funcs.obj
 0001:000221d1       _wrap_update_func$catch$2  00000001800231d1 f   funcs.obj
 0001:000221de       __catch$_wrap_update_func$8 00000001800231de f   funcs.obj
 0001:000221f6       _wrap_update_func$catch$1  00000001800231f6 f   funcs.obj
 0001:00022203       __catch$_wrap_update_func$10 0000000180023203 f   funcs.obj
 0001:0002222f       _wrap_update_func$catch$0  000000018002322f f   funcs.obj
 0001:0002223c       __catch$_wrap_update_func$12 000000018002323c f   funcs.obj
 0001:00022262       ?fin$0@?0??dllmain_crt_process_attach@@YAHQEAUHINSTANCE__@@QEAX@Z@4HA 0000000180023262 f   MSVCRT:dll_dllmain.obj
 0001:00022279       ?fin$0@?0??dllmain_crt_process_detach@@YAH_N@Z@4HA 0000000180023279 f   MSVCRT:dll_dllmain.obj
 0001:00022295       ?filt$0@?0??dllmain_dispatch@@YAHQEAUHINSTANCE__@@KQEAX@Z@4HA 0000000180023295 f   MSVCRT:dll_dllmain.obj
 0001:000222cb       __scrt_is_nonwritable_in_current_image$filt$0 00000001800232cb f   MSVCRT:utility.obj
 0002:000006d0       ?__scrt_initialize_tss_var@@3P6AHXZEA 00000001800246d0     MSVCRT:thread_safe_statics.obj
 0002:00005740       $cppxdata$_wrap_new_stkpnt_array 0000000180029740     funcs.obj
 0002:00005768       $cppxdata$_wrap_stkpnt_array___len__ 0000000180029768     funcs.obj
 0002:00005790       $cppxdata$_wrap_stkpnt_array___getitem__ 0000000180029790     funcs.obj
 0002:000057b8       $cppxdata$_wrap_stkpnt_array___setitem__ 00000001800297b8     funcs.obj
 0002:000057e0       $cppxdata$_wrap_delete_stkpnt_array 00000001800297e0     funcs.obj
 0002:00005808       $cppxdata$_wrap_new_regvar_array 0000000180029808     funcs.obj
 0002:00005830       $cppxdata$_wrap_regvar_array___len__ 0000000180029830     funcs.obj
 0002:00005858       $cppxdata$_wrap_regvar_array___getitem__ 0000000180029858     funcs.obj
 0002:00005880       $cppxdata$_wrap_regvar_array___setitem__ 0000000180029880     funcs.obj
 0002:000058a8       $cppxdata$_wrap_delete_regvar_array 00000001800298a8     funcs.obj
 0002:000058d0       $cppxdata$_wrap_new_range_array 00000001800298d0     funcs.obj
 0002:000058f8       $cppxdata$_wrap_range_array___len__ 00000001800298f8     funcs.obj
 0002:00005920       $cppxdata$_wrap_range_array___getitem__ 0000000180029920     funcs.obj
 0002:00005948       $cppxdata$_wrap_range_array___setitem__ 0000000180029948     funcs.obj
 0002:00005970       $cppxdata$_wrap_delete_range_array 0000000180029970     funcs.obj
 0002:00005998       $cppxdata$_wrap_new_regarg_t 0000000180029998     funcs.obj
 0002:000059c0       $cppxdata$_wrap_delete_regarg_t 00000001800299c0     funcs.obj
 0002:000059e8       $cppxdata$_wrap_func_t_is_far 00000001800299e8     funcs.obj
 0002:00005a10       $cppxdata$_wrap_func_t_does_return 0000000180029a10     funcs.obj
 0002:00005a38       $cppxdata$_wrap_func_t_analyzed_sp 0000000180029a38     funcs.obj
 0002:00005a60       $cppxdata$_wrap_func_t_need_prolog_analysis 0000000180029a60     funcs.obj
 0002:00005a88       $cppxdata$_wrap_new_func_t 0000000180029a88     funcs.obj
 0002:00005ab0       $cppxdata$_wrap_func_t___get_points__ 0000000180029ab0     funcs.obj
 0002:00005ad8       $cppxdata$_wrap_func_t___get_regvars__ 0000000180029ad8     funcs.obj
 0002:00005b00       $cppxdata$_wrap_func_t___get_tails__ 0000000180029b00     funcs.obj
 0002:00005b28       $cppxdata$_wrap_delete_func_t 0000000180029b28     funcs.obj
 0002:00005b50       $cppxdata$_wrap_is_func_entry 0000000180029b50     funcs.obj
 0002:00005b78       $cppxdata$_wrap_is_func_tail 0000000180029b78     funcs.obj
 0002:00005ba0       $cppxdata$_wrap_lock_func_range 0000000180029ba0     funcs.obj
 0002:00005bc8       $cppxdata$_wrap_new_lock_func 0000000180029bc8     funcs.obj
 0002:00005bf0       $cppxdata$_wrap_delete_lock_func 0000000180029bf0     funcs.obj
 0002:00005c18       $cppxdata$_wrap_is_func_locked 0000000180029c18     funcs.obj
 0002:00005c40       $cppxdata$_wrap_get_func   0000000180029c40     funcs.obj
 0002:00005c68       $cppxdata$_wrap_get_func_chunknum 0000000180029c68     funcs.obj
 0002:00005c90       $cppxdata$_wrap_func_contains 0000000180029c90     funcs.obj
 0002:00005cb8       $cppxdata$_wrap_is_same_func 0000000180029cb8     funcs.obj
 0002:00005ce0       $cppxdata$_wrap_getn_func  0000000180029ce0     funcs.obj
 0002:00005d08       $cppxdata$_wrap_get_func_qty 0000000180029d08     funcs.obj
 0002:00005d30       $cppxdata$_wrap_get_func_num 0000000180029d30     funcs.obj
 0002:00005d58       $cppxdata$_wrap_get_prev_func 0000000180029d58     funcs.obj
 0002:00005d80       $cppxdata$_wrap_get_next_func 0000000180029d80     funcs.obj
 0002:00005da8       $cppxdata$_wrap_get_func_ranges 0000000180029da8     funcs.obj
 0002:00005dd0       $cppxdata$_wrap_get_func_cmt 0000000180029dd0     funcs.obj
 0002:00005df8       $cppxdata$_wrap_set_func_cmt 0000000180029df8     funcs.obj
 0002:00005e20       $cppxdata$_wrap_update_func 0000000180029e20     funcs.obj
 0002:00005e48       $cppxdata$_wrap_add_func_ex 0000000180029e48     funcs.obj
 0002:00005e70       $cppxdata$_wrap_add_func   0000000180029e70     funcs.obj
 0002:00005e98       $cppxdata$_wrap_del_func   0000000180029e98     funcs.obj
 0002:00005ec0       $cppxdata$_wrap_set_func_start 0000000180029ec0     funcs.obj
 0002:00005ee8       $cppxdata$_wrap_set_func_end 0000000180029ee8     funcs.obj
 0002:00005f10       $cppxdata$_wrap_reanalyze_function 0000000180029f10     funcs.obj
 0002:00005f38       $cppxdata$_wrap_find_func_bounds 0000000180029f38     funcs.obj
 0002:00005f60       $cppxdata$_wrap_get_func_name 0000000180029f60     funcs.obj
 0002:00005f88       $cppxdata$_wrap_calc_func_size 0000000180029f88     funcs.obj
 0002:00005fb0       $cppxdata$_wrap_get_func_bitness 0000000180029fb0     funcs.obj
 0002:00005fd8       $cppxdata$_wrap_get_func_bits 0000000180029fd8     funcs.obj
 0002:00006000       $cppxdata$_wrap_get_func_bytes 000000018002a000     funcs.obj
 0002:00006028       $cppxdata$_wrap_is_visible_func 000000018002a028     funcs.obj
 0002:00006050       $cppxdata$_wrap_is_finally_visible_func 000000018002a050     funcs.obj
 0002:00006078       $cppxdata$_wrap_set_visible_func 000000018002a078     funcs.obj
 0002:000060a0       $cppxdata$_wrap_set_func_name_if_jumpfunc 000000018002a0a0     funcs.obj
 0002:000060c8       $cppxdata$_wrap_calc_thunk_func_target 000000018002a0c8     funcs.obj
 0002:000060f0       $cppxdata$_wrap_func_does_return 000000018002a0f0     funcs.obj
 0002:00006118       $cppxdata$_wrap_reanalyze_noret_flag 000000018002a118     funcs.obj
 0002:00006140       $cppxdata$_wrap_set_noret_insn 000000018002a140     funcs.obj
 0002:00006168       $cppxdata$_wrap_get_fchunk 000000018002a168     funcs.obj
 0002:00006190       $cppxdata$_wrap_getn_fchunk 000000018002a190     funcs.obj
 0002:000061b8       $cppxdata$_wrap_get_fchunk_qty 000000018002a1b8     funcs.obj
 0002:000061e0       $cppxdata$_wrap_get_fchunk_num 000000018002a1e0     funcs.obj
 0002:00006208       $cppxdata$_wrap_get_prev_fchunk 000000018002a208     funcs.obj
 0002:00006230       $cppxdata$_wrap_get_next_fchunk 000000018002a230     funcs.obj
 0002:00006258       $cppxdata$_wrap_append_func_tail 000000018002a258     funcs.obj
 0002:00006280       $cppxdata$_wrap_remove_func_tail 000000018002a280     funcs.obj
 0002:000062a8       $cppxdata$_wrap_set_tail_owner 000000018002a2a8     funcs.obj
 0002:000062d0       $cppxdata$_wrap_func_tail_iterator_set 000000018002a2d0     funcs.obj
 0002:000062f8       $cppxdata$_wrap_func_tail_iterator_set_ea 000000018002a2f8     funcs.obj
 0002:00006320       $cppxdata$_wrap_func_parent_iterator_set 000000018002a320     funcs.obj
 0002:00006348       $cppxdata$_wrap_func_item_iterator_next 000000018002a348     funcs.obj
 0002:00006370       $cppxdata$_wrap_func_item_iterator_prev 000000018002a370     funcs.obj
 0002:00006398       $cppxdata$_wrap_func_item_iterator_decode_prev_insn 000000018002a398     funcs.obj
 0002:000063c0       $cppxdata$_wrap_func_item_iterator_decode_preceding_insn 000000018002a3c0     funcs.obj
 0002:000063e8       $cppxdata$_wrap_f_any      000000018002a3e8     funcs.obj
 0002:00006410       $cppxdata$_wrap_new_func_tail_iterator_t__SWIG_0 000000018002a410     funcs.obj
 0002:00006438       $cppxdata$_wrap_new_func_tail_iterator_t__SWIG_1 000000018002a438     funcs.obj
 0002:00006460       $cppxdata$_wrap_delete_func_tail_iterator_t 000000018002a460     funcs.obj
 0002:00006488       $cppxdata$_wrap_func_tail_iterator_t_set 000000018002a488     funcs.obj
 0002:000064b0       $cppxdata$_wrap_func_tail_iterator_t_set_ea 000000018002a4b0     funcs.obj
 0002:000064d8       $cppxdata$_wrap_func_tail_iterator_t_set_range 000000018002a4d8     funcs.obj
 0002:00006500       $cppxdata$_wrap_func_tail_iterator_t_chunk 000000018002a500     funcs.obj
 0002:00006528       $cppxdata$_wrap_func_tail_iterator_t_first 000000018002a528     funcs.obj
 0002:00006550       $cppxdata$_wrap_func_tail_iterator_t_last 000000018002a550     funcs.obj
 0002:00006578       $cppxdata$_wrap_func_tail_iterator_t_next 000000018002a578     funcs.obj
 0002:000065a0       $cppxdata$_wrap_func_tail_iterator_t_prev 000000018002a5a0     funcs.obj
 0002:000065c8       $cppxdata$_wrap_func_tail_iterator_t_main 000000018002a5c8     funcs.obj
 0002:000065f0       $cppxdata$_wrap_new_func_item_iterator_t__SWIG_0 000000018002a5f0     funcs.obj
 0002:00006618       $cppxdata$_wrap_new_func_item_iterator_t__SWIG_1 000000018002a618     funcs.obj
 0002:00006640       $cppxdata$_wrap_func_item_iterator_t_set 000000018002a640     funcs.obj
 0002:00006668       $cppxdata$_wrap_func_item_iterator_t_set_range 000000018002a668     funcs.obj
 0002:00006690       $cppxdata$_wrap_func_item_iterator_t_first 000000018002a690     funcs.obj
 0002:000066b8       $cppxdata$_wrap_func_item_iterator_t_last 000000018002a6b8     funcs.obj
 0002:000066e0       $cppxdata$_wrap_func_item_iterator_t_current 000000018002a6e0     funcs.obj
 0002:00006708       $cppxdata$_wrap_func_item_iterator_t_chunk 000000018002a708     funcs.obj
 0002:00006730       $cppxdata$_wrap_func_item_iterator_t_next 000000018002a730     funcs.obj
 0002:00006758       $cppxdata$_wrap_func_item_iterator_t_prev 000000018002a758     funcs.obj
 0002:00006780       $cppxdata$_wrap_func_item_iterator_t_next_addr 000000018002a780     funcs.obj
 0002:000067a8       $cppxdata$_wrap_func_item_iterator_t_next_head 000000018002a7a8     funcs.obj
 0002:000067d0       $cppxdata$_wrap_func_item_iterator_t_next_code 000000018002a7d0     funcs.obj
 0002:000067f8       $cppxdata$_wrap_func_item_iterator_t_next_data 000000018002a7f8     funcs.obj
 0002:00006820       $cppxdata$_wrap_func_item_iterator_t_next_not_tail 000000018002a820     funcs.obj
 0002:00006848       $cppxdata$_wrap_func_item_iterator_t_prev_addr 000000018002a848     funcs.obj
 0002:00006870       $cppxdata$_wrap_func_item_iterator_t_prev_head 000000018002a870     funcs.obj
 0002:00006898       $cppxdata$_wrap_func_item_iterator_t_prev_code 000000018002a898     funcs.obj
 0002:000068c0       $cppxdata$_wrap_func_item_iterator_t_prev_data 000000018002a8c0     funcs.obj
 0002:000068e8       $cppxdata$_wrap_func_item_iterator_t_prev_not_tail 000000018002a8e8     funcs.obj
 0002:00006910       $cppxdata$_wrap_func_item_iterator_t_decode_prev_insn 000000018002a910     funcs.obj
 0002:00006938       $cppxdata$_wrap_func_item_iterator_t_decode_preceding_insn 000000018002a938     funcs.obj
 0002:00006960       $cppxdata$_wrap_delete_func_item_iterator_t 000000018002a960     funcs.obj
 0002:00006988       $cppxdata$_wrap_new_func_parent_iterator_t__SWIG_0 000000018002a988     funcs.obj
 0002:000069b0       $cppxdata$_wrap_new_func_parent_iterator_t__SWIG_1 000000018002a9b0     funcs.obj
 0002:000069d8       $cppxdata$_wrap_delete_func_parent_iterator_t 000000018002a9d8     funcs.obj
 0002:00006a00       $cppxdata$_wrap_func_parent_iterator_t_set 000000018002aa00     funcs.obj
 0002:00006a28       $cppxdata$_wrap_func_parent_iterator_t_parent 000000018002aa28     funcs.obj
 0002:00006a50       $cppxdata$_wrap_func_parent_iterator_t_first 000000018002aa50     funcs.obj
 0002:00006a78       $cppxdata$_wrap_func_parent_iterator_t_last 000000018002aa78     funcs.obj
 0002:00006aa0       $cppxdata$_wrap_func_parent_iterator_t_next 000000018002aaa0     funcs.obj
 0002:00006ac8       $cppxdata$_wrap_func_parent_iterator_t_prev 000000018002aac8     funcs.obj
 0002:00006af0       $cppxdata$_wrap_func_parent_iterator_t_reset_fnt 000000018002aaf0     funcs.obj
 0002:00006b18       $cppxdata$_wrap_get_prev_func_addr 000000018002ab18     funcs.obj
 0002:00006b40       $cppxdata$_wrap_get_next_func_addr 000000018002ab40     funcs.obj
 0002:00006b68       $cppxdata$_wrap_read_regargs 000000018002ab68     funcs.obj
 0002:00006b90       $cppxdata$_wrap_add_regarg 000000018002ab90     funcs.obj
 0002:00006bb8       $cppxdata$_wrap_plan_to_apply_idasgn 000000018002abb8     funcs.obj
 0002:00006be0       $cppxdata$_wrap_apply_idasgn_to 000000018002abe0     funcs.obj
 0002:00006c08       $cppxdata$_wrap_get_idasgn_qty 000000018002ac08     funcs.obj
 0002:00006c30       $cppxdata$_wrap_get_current_idasgn 000000018002ac30     funcs.obj
 0002:00006c58       $cppxdata$_wrap_calc_idasgn_state 000000018002ac58     funcs.obj
 0002:00006c80       $cppxdata$_wrap_del_idasgn 000000018002ac80     funcs.obj
 0002:00006ca8       $cppxdata$_wrap_get_idasgn_title 000000018002aca8     funcs.obj
 0002:00006cd0       $cppxdata$_wrap_apply_startup_sig 000000018002acd0     funcs.obj
 0002:00006cf8       $cppxdata$_wrap_try_to_add_libfunc 000000018002acf8     funcs.obj
 0002:00006d20       $cppxdata$_wrap_get_fchunk_referer 000000018002ad20     funcs.obj
 0002:00006d48       $cppxdata$_wrap_get_idasgn_desc 000000018002ad48     funcs.obj
 0002:00006d70       $cppxdata$_wrap_get_idasgn_desc_with_matches 000000018002ad70     funcs.obj
 0002:00006d98       $cppxdata$_wrap_func_t__from_ptrval__ 000000018002ad98     funcs.obj
 0002:00006dc0       ?hex@?1??SWIG_PackData@@9@4QBDB 000000018002adc0     funcs.obj
 0002:0000ca40       ?cis@?1??PyInit__ida_funcs@@9@4QBUci_t@?1??1@YAPEAU_object@@XZ@B 0000000180030a40     funcs.obj
 0002:0000cf08       $cppxdata$?__scrt_initialize_thread_safe_statics@@YAHXZ 0000000180030f08     MSVCRT:thread_safe_statics.obj
 0002:0000d068       GS_ExceptionPointers       0000000180031068     MSVCRT:gs_report.obj
 0002:0000d850       $unwind$printf             0000000180031850     funcs.obj
 0002:0000d85c       $unwind$_RTC_Initialize    000000018003185c     MSVCRT:initsect.obj
 0002:0000d85c       $unwind$??_Gexception@std@@UEAAPEAXI@Z 000000018003185c     funcs.obj
 0002:0000d85c       $unwind$SWIG_TypeClientData 000000018003185c     funcs.obj
 0002:0000d85c       $unwind$SwigPyObject_append 000000018003185c     funcs.obj
 0002:0000d85c       $unwind$?SWIG_AsVal_unsigned_SS_int@@YAHPEAU_object@@PEAI@Z 000000018003185c     funcs.obj
 0002:0000d85c       $unwind$??_Gout_of_range@std@@UEAAPEAXI@Z 000000018003185c     funcs.obj
 0002:0000d85c       $unwind$??_Gbad_alloc@std@@UEAAPEAXI@Z 000000018003185c     MSVCRT:throw_bad_alloc.obj
 0002:0000d85c       $unwind$??_Gbad_array_new_length@std@@UEAAPEAXI@Z 000000018003185c     MSVCRT:throw_bad_alloc.obj
 0002:0000d85c       $unwind$_RTC_Terminate     000000018003185c     MSVCRT:initsect.obj
 0002:0000d85c       $unwind$??_Glogic_error@std@@UEAAPEAXI@Z 000000018003185c     funcs.obj
 0002:0000d868       $unwind$SWIG_MangledTypeQueryModule 0000000180031868     funcs.obj
 0002:0000d878       $unwind$??0bad_array_new_length@std@@QEAA@AEBV01@@Z 0000000180031878     MSVCRT:throw_bad_alloc.obj
 0002:0000d878       $unwind$__raise_securityfailure 0000000180031878     MSVCRT:gs_report.obj
 0002:0000d878       $unwind$SwigPyPacked_dealloc 0000000180031878     funcs.obj
 0002:0000d878       $unwind$_Init_thread_wait  0000000180031878     MSVCRT:thread_safe_statics.obj
 0002:0000d878       $unwind$?SWIG_Python_RaiseOrModifyTypeError@@YAXPEBD@Z 0000000180031878     funcs.obj
 0002:0000d878       $unwind$??_Gtype_info@@UEAAPEAXI@Z 0000000180031878     MSVCRT:std_type_info_static.obj
 0002:0000d878       $unwind$__scrt_uninitialize_crt 0000000180031878     MSVCRT:utility.obj
 0002:0000d878       $unwind$?SWIG_FromCharPtr@@YAPEAU_object@@PEBD@Z 0000000180031878     funcs.obj
 0002:0000d878       $unwind$__scrt_release_startup_lock 0000000180031878     MSVCRT:utility.obj
 0002:0000d878       $unwind$??0exception@std@@QEAA@AEBV01@@Z 0000000180031878     funcs.obj
 0002:0000d878       $unwind$??0bad_alloc@std@@QEAA@AEBV01@@Z 0000000180031878     MSVCRT:throw_bad_alloc.obj
 0002:0000d878       $unwind$??0out_of_range@std@@QEAA@AEBV01@@Z 0000000180031878     funcs.obj
 0002:0000d878       $unwind$_Init_thread_footer 0000000180031878     MSVCRT:thread_safe_statics.obj
 0002:0000d878       $unwind$?SWIG_Python_str_AsChar@@YAPEADPEAU_object@@@Z 0000000180031878     funcs.obj
 0002:0000d878       $unwind$_Init_thread_header 0000000180031878     MSVCRT:thread_safe_statics.obj
 0002:0000d878       $unwind$__scrt_initialize_crt 0000000180031878     MSVCRT:utility.obj
 0002:0000d878       $unwind$??2@YAPEAX_K@Z     0000000180031878     MSVCRT:new_scalar.obj
 0002:0000d878       $unwind$??0logic_error@std@@QEAA@AEBV01@@Z 0000000180031878     funcs.obj
 0002:0000d878       $unwind$_onexit            0000000180031878     MSVCRT:utility.obj
 0002:0000d878       $unwind$SWIG_Python_GetSwigThis 0000000180031878     funcs.obj
 0002:0000d880       $chain$0$?SWIG_Python_str_AsChar@@YAPEADPEAU_object@@@Z 0000000180031880     funcs.obj
 0002:0000d894       $chain$1$?SWIG_Python_str_AsChar@@YAPEADPEAU_object@@@Z 0000000180031894     funcs.obj
 0002:0000d8a4       $unwind$SwigPyObject_New   00000001800318a4     funcs.obj
 0002:0000d8a4       $unwind$?SWIG_Python_SetErrorObj@@YAXPEAU_object@@0@Z 00000001800318a4     funcs.obj
 0002:0000d8a4       $unwind$_DllMainCRTStartup 00000001800318a4     MSVCRT:dll_dllmain.obj
 0002:0000d8b4       $unwind$?SWIG_Python_UnpackTuple@@YA_JPEAU_object@@PEBD_J2PEAPEAU1@@Z 00000001800318b4     funcs.obj
 0002:0000d8c8       $chain$0$?SWIG_Python_UnpackTuple@@YA_JPEAU_object@@PEBD_J2PEAPEAU1@@Z 00000001800318c8     funcs.obj
 0002:0000d8dc       $chain$1$?SWIG_Python_UnpackTuple@@YA_JPEAU_object@@PEBD_J2PEAPEAU1@@Z 00000001800318dc     funcs.obj
 0002:0000d8ec       $unwind$SwigPyClientData_New 00000001800318ec     funcs.obj
 0002:0000d8fc       $chain$2$SwigPyClientData_New 00000001800318fc     funcs.obj
 0002:0000d910       $chain$3$SwigPyClientData_New 0000000180031910     funcs.obj
 0002:0000d920       $unwind$SwigPyObject_repr  0000000180031920     funcs.obj
 0002:0000d92c       $chain$0$SwigPyObject_repr 000000018003192c     funcs.obj
 0002:0000d940       $chain$1$SwigPyObject_repr 0000000180031940     funcs.obj
 0002:0000d950       $unwind$SwigPyObject_type  0000000180031950     funcs.obj
 0002:0000d964       $unwind$SwigPyPacked_Check 0000000180031964     funcs.obj
 0002:0000d964       $unwind$SwigPyObject_Check 0000000180031964     funcs.obj
 0002:0000d970       $unwind$SwigPyObject_dealloc 0000000180031970     funcs.obj
 0002:0000d97c       $chain$2$SwigPyObject_dealloc 000000018003197c     funcs.obj
 0002:0000d998       $chain$3$SwigPyObject_dealloc 0000000180031998     funcs.obj
 0002:0000d9a8       $unwind$??0out_of_range@std@@QEAA@PEBD@Z 00000001800319a8     funcs.obj
 0002:0000d9a8       $unwind$SwigPyObject_own   00000001800319a8     funcs.obj
 0002:0000d9b0       $chain$0$SwigPyObject_own  00000001800319b0     funcs.obj
 0002:0000d9c4       $chain$2$SwigPyObject_own  00000001800319c4     funcs.obj
 0002:0000d9d8       $unwind$SwigPyPacked_repr  00000001800319d8     funcs.obj
 0002:0000d9d8       $unwind$SwigPyPacked_str   00000001800319d8     funcs.obj
 0002:0000d9e8       $chain$0$SwigPyPacked_repr 00000001800319e8     funcs.obj
 0002:0000d9fc       $chain$1$SwigPyPacked_repr 00000001800319fc     funcs.obj
 0002:0000da0c       $chain$0$SwigPyPacked_str  0000000180031a0c     funcs.obj
 0002:0000da20       $chain$1$SwigPyPacked_str  0000000180031a20     funcs.obj
 0002:0000da30       $unwind$SwigPyPacked_type  0000000180031a30     funcs.obj
 0002:0000da40       $unwind$DllMain            0000000180031a40     MSVCRT:dll_dllmain_stub.obj
 0002:0000da40       $unwind$SWIG_Python_TypeCache 0000000180031a40     funcs.obj
 0002:0000da40       $unwind$?dllmain_crt_dispatch@@YAHQEAUHINSTANCE__@@KQEAX@Z 0000000180031a40     MSVCRT:dll_dllmain.obj
 0002:0000da40       $unwind$__GSHandlerCheck   0000000180031a40     MSVCRT:gshandler.obj
 0002:0000da40       $unwind$SWIG_This          0000000180031a40     funcs.obj
 0002:0000da40       $unwind$__scrt_dllmain_crt_thread_detach 0000000180031a40     MSVCRT:utility.obj
 0002:0000da40       $unwind$__scrt_dllmain_crt_thread_attach 0000000180031a40     MSVCRT:utility.obj
 0002:0000da40       $unwind$__scrt_dllmain_uninitialize_critical 0000000180031a40     MSVCRT:utility.obj
 0002:0000da40       $unwind$?__raise_e@@YAXAEBVexception@std@@@Z 0000000180031a40     funcs.obj
 0002:0000da40       $unwind$__scrt_dllmain_uninitialize_c 0000000180031a40     MSVCRT:utility.obj
 0002:0000da40       $unwind$__scrt_dllmain_after_initialize_c 0000000180031a40     MSVCRT:utility.obj
 0002:0000da40       $unwind$?__scrt_uninitialize_thread_safe_statics@@YAXXZ 0000000180031a40     MSVCRT:thread_safe_statics.obj
 0002:0000da40       $unwind$SWIG_Python_DestroyModule 0000000180031a40     funcs.obj
 0002:0000da40       $unwind$_Init_thread_notify 0000000180031a40     MSVCRT:thread_safe_statics.obj
 0002:0000da40       $unwind$__scrt_dllmain_before_initialize_c 0000000180031a40     MSVCRT:utility.obj
 0002:0000da40       $unwind$__scrt_initialize_default_local_stdio_options 0000000180031a40     MSVCRT:default_local_stdio_options.obj
 0002:0000da40       $unwind$__scrt_acquire_startup_lock 0000000180031a40     MSVCRT:utility.obj
 0002:0000da40       $unwind$atexit             0000000180031a40     MSVCRT:utility.obj
 0002:0000da48       $unwind$SWIG_Python_ConvertPtrAndOwn 0000000180031a48     funcs.obj
 0002:0000da58       $chain$0$SWIG_Python_ConvertPtrAndOwn 0000000180031a58     funcs.obj
 0002:0000da6c       $chain$4$SWIG_Python_ConvertPtrAndOwn 0000000180031a6c     funcs.obj
 0002:0000da88       $unwind$SWIG_Python_ConvertFunctionPtr 0000000180031a88     funcs.obj
 0002:0000da94       $chain$0$SWIG_Python_ConvertFunctionPtr 0000000180031a94     funcs.obj
 0002:0000daa8       $chain$2$SWIG_Python_ConvertFunctionPtr 0000000180031aa8     funcs.obj
 0002:0000dac0       $chain$3$SWIG_Python_ConvertFunctionPtr 0000000180031ac0     funcs.obj
 0002:0000dad4       $chain$5$SWIG_Python_ConvertFunctionPtr 0000000180031ad4     funcs.obj
 0002:0000daec       $unwind$SWIG_Python_InitShadowInstance 0000000180031aec     funcs.obj
 0002:0000dafc       $unwind$SWIG_Python_NewPointerObj 0000000180031afc     funcs.obj
 0002:0000db18       $chain$2$SWIG_Python_DestroyModule 0000000180031b18     funcs.obj
 0002:0000db34       $chain$3$SWIG_Python_DestroyModule 0000000180031b34     funcs.obj
 0002:0000db48       $chain$4$SWIG_Python_DestroyModule 0000000180031b48     funcs.obj
 0002:0000db58       $chain$5$SWIG_Python_DestroyModule 0000000180031b58     funcs.obj
 0002:0000db68       $unwind$SWIG_Python_TypeQuery 0000000180031b68     funcs.obj
 0002:0000db74       $chain$1$SWIG_Python_TypeQuery 0000000180031b74     funcs.obj
 0002:0000db8c       $chain$5$SWIG_Python_TypeQuery 0000000180031b8c     funcs.obj
 0002:0000dbac       $chain$6$SWIG_Python_TypeQuery 0000000180031bac     funcs.obj
 0002:0000dbbc       $chain$7$SWIG_Python_TypeQuery 0000000180031bbc     funcs.obj
 0002:0000dbcc       $unwind$?sprnt@?$_qstring@D@@QEAAAEAV1@PEBDZZ 0000000180031bcc     funcs.obj
 0002:0000dbdc       $unwind$?__scrt_throw_std_bad_alloc@@YAXXZ 0000000180031bdc     MSVCRT:throw_bad_alloc.obj
 0002:0000dbdc       $unwind$?__scrt_throw_std_bad_array_new_length@@YAXXZ 0000000180031bdc     MSVCRT:throw_bad_alloc.obj
 0002:0000dbdc       $unwind$?__raise_ie@@YAXAEBUinterr_exc_t@@@Z 0000000180031bdc     funcs.obj
 0002:0000dbe4       $unwind$?set_range@func_tail_iterator_t@@QEAA_NII@Z 0000000180031be4     funcs.obj
 0002:0000dbf4       $unwind$_wrap_func_t_argsize_get 0000000180031bf4     funcs.obj
 0002:0000dbf4       $unwind$_wrap_regvar_array_data_get 0000000180031bf4     funcs.obj
 0002:0000dbf4       $unwind$_wrap_func_t_tails_get 0000000180031bf4     funcs.obj
 0002:0000dbf4       $unwind$_wrap_func_t_referers_get 0000000180031bf4     funcs.obj
 0002:0000dbf4       $unwind$_wrap_func_t_regvars_get 0000000180031bf4     funcs.obj
 0002:0000dbf4       $unwind$_wrap_regarg_t_reg_get 0000000180031bf4     funcs.obj
 0002:0000dbf4       $unwind$_wrap_func_t_regvarqty_get 0000000180031bf4     funcs.obj
 0002:0000dbf4       $unwind$_wrap_range_array_data_get 0000000180031bf4     funcs.obj
 0002:0000dbf4       $unwind$_wrap_func_t_pntqty_get 0000000180031bf4     funcs.obj
 0002:0000dbf4       $unwind$_wrap_func_t_regargs_get 0000000180031bf4     funcs.obj
 0002:0000dbf4       $unwind$_wrap_regarg_t_type_get 0000000180031bf4     funcs.obj
 0002:0000dbf4       $unwind$_wrap_func_t_color_get 0000000180031bf4     funcs.obj
 0002:0000dbf4       $unwind$_wrap_func_t_fpd_get 0000000180031bf4     funcs.obj
 0002:0000dbf4       $unwind$_wrap_func_t_llabelqty_get 0000000180031bf4     funcs.obj
 0002:0000dbf4       $unwind$_wrap_range_array_count_get 0000000180031bf4     funcs.obj
 0002:0000dbf4       $unwind$_wrap_func_t_flags_get 0000000180031bf4     funcs.obj
 0002:0000dbf4       $unwind$_wrap_func_t_owner_get 0000000180031bf4     funcs.obj
 0002:0000dbf4       $unwind$_wrap_func_t_refqty_get 0000000180031bf4     funcs.obj
 0002:0000dbf4       $unwind$_wrap_func_t_regargqty_get 0000000180031bf4     funcs.obj
 0002:0000dbf4       $unwind$_wrap_func_t_frregs_get 0000000180031bf4     funcs.obj
 0002:0000dbf4       $unwind$_wrap_regarg_t_name_get 0000000180031bf4     funcs.obj
 0002:0000dbf4       $unwind$_wrap_func_t_points_get 0000000180031bf4     funcs.obj
 0002:0000dbf4       $unwind$_wrap_func_t_frsize_get 0000000180031bf4     funcs.obj
 0002:0000dbf4       $unwind$_wrap_func_t_llabels_get 0000000180031bf4     funcs.obj
 0002:0000dbf4       $unwind$_wrap_stkpnt_array_count_get 0000000180031bf4     funcs.obj
 0002:0000dbf4       $unwind$_wrap_stkpnt_array_data_get 0000000180031bf4     funcs.obj
 0002:0000dbf4       $unwind$_wrap_func_t_tailqty_get 0000000180031bf4     funcs.obj
 0002:0000dbf4       $unwind$_wrap_regvar_array_count_get 0000000180031bf4     funcs.obj
 0002:0000dbf4       $unwind$_wrap_func_t_frame_get 0000000180031bf4     funcs.obj
 0002:0000dc04       $chain$0$_wrap_stkpnt_array_data_get 0000000180031c04     funcs.obj
 0002:0000dc18       $chain$1$_wrap_stkpnt_array_data_get 0000000180031c18     funcs.obj
 0002:0000dc28       $chain$0$_wrap_stkpnt_array_count_get 0000000180031c28     funcs.obj
 0002:0000dc3c       $chain$1$_wrap_stkpnt_array_count_get 0000000180031c3c     funcs.obj
 0002:0000dc4c       $unwind$_wrap_new_stkpnt_array 0000000180031c4c     funcs.obj
 0002:0000dc68       $stateUnwindMap$_wrap_func_tail_iterator_set 0000000180031c68     funcs.obj
 0002:0000dc68       $stateUnwindMap$_wrap_get_func_chunknum 0000000180031c68     funcs.obj
 0002:0000dc68       $stateUnwindMap$_wrap_func_item_iterator_t_next_code 0000000180031c68     funcs.obj
 0002:0000dc68       $stateUnwindMap$_wrap_func_item_iterator_t_next_data 0000000180031c68     funcs.obj
 0002:0000dc68       $stateUnwindMap$_wrap_new_func_tail_iterator_t__SWIG_1 0000000180031c68     funcs.obj
 0002:0000dc68       $stateUnwindMap$_wrap_is_visible_func 0000000180031c68     funcs.obj
 0002:0000dc68       $stateUnwindMap$_wrap_new_range_array 0000000180031c68     funcs.obj
 0002:0000dc68       $stateUnwindMap$_wrap_is_finally_visible_func 0000000180031c68     funcs.obj
 0002:0000dc68       $stateUnwindMap$_wrap_new_func_t 0000000180031c68     funcs.obj
 0002:0000dc68       $stateUnwindMap$_wrap_func_item_iterator_t_set_range 0000000180031c68     funcs.obj
 0002:0000dc68       $stateUnwindMap$_wrap_func_contains 0000000180031c68     funcs.obj
 0002:0000dc68       $stateUnwindMap$_wrap_get_func 0000000180031c68     funcs.obj
 0002:0000dc68       $stateUnwindMap$_wrap_func_item_iterator_t_last 0000000180031c68     funcs.obj
 0002:0000dc68       $stateUnwindMap$_wrap_func_item_iterator_t_first 0000000180031c68     funcs.obj
 0002:0000dc68       $stateUnwindMap$_wrap_func_item_iterator_t_next_not_tail 0000000180031c68     funcs.obj
 0002:0000dc68       $stateUnwindMap$_wrap_del_func 0000000180031c68     funcs.obj
 0002:0000dc68       $stateUnwindMap$_wrap_delete_func_tail_iterator_t 0000000180031c68     funcs.obj
 0002:0000dc68       $stateUnwindMap$_wrap_add_func 0000000180031c68     funcs.obj
 0002:0000dc68       $stateUnwindMap$_wrap_func_item_iterator_t_prev_addr 0000000180031c68     funcs.obj
 0002:0000dc68       $stateUnwindMap$_wrap_set_tail_owner 0000000180031c68     funcs.obj
 0002:0000dc68       $stateUnwindMap$_wrap_func_tail_iterator_t_last 0000000180031c68     funcs.obj
 0002:0000dc68       $stateUnwindMap$_wrap_func_item_iterator_t_prev_head 0000000180031c68     funcs.obj
 0002:0000dc68       $stateUnwindMap$_wrap_get_func_bytes 0000000180031c68     funcs.obj
 0002:0000dc68       $stateUnwindMap$_wrap_range_array___len__ 0000000180031c68     funcs.obj
 0002:0000dc68       $stateUnwindMap$_wrap_func_item_iterator_t_prev_code 0000000180031c68     funcs.obj
 0002:0000dc68       $stateUnwindMap$_wrap_delete_stkpnt_array 0000000180031c68     funcs.obj
 0002:0000dc68       $stateUnwindMap$_wrap_set_visible_func 0000000180031c68     funcs.obj
 0002:0000dc68       $stateUnwindMap$_wrap_is_same_func 0000000180031c68     funcs.obj
 0002:0000dc68       $stateUnwindMap$_wrap_func_t_need_prolog_analysis 0000000180031c68     funcs.obj
 0002:0000dc68       $stateUnwindMap$_wrap_func_item_iterator_t_prev_data 0000000180031c68     funcs.obj
 0002:0000dc68       $stateUnwindMap$_wrap_is_func_locked 0000000180031c68     funcs.obj
 0002:0000dc68       $stateUnwindMap$_wrap_func_tail_iterator_t_set_ea 0000000180031c68     funcs.obj
 0002:0000dc68       $stateUnwindMap$_wrap_func_item_iterator_t_chunk 0000000180031c68     funcs.obj
 0002:0000dc68       $stateUnwindMap$_wrap_func_item_iterator_t_set 0000000180031c68     funcs.obj
 0002:0000dc68       $stateUnwindMap$_wrap_new_func_tail_iterator_t__SWIG_0 0000000180031c68     funcs.obj
 0002:0000dc68       $stateUnwindMap$_wrap_func_tail_iterator_t_first 0000000180031c68     funcs.obj
 0002:0000dc68       $stateUnwindMap$_wrap_func_item_iterator_t_prev_not_tail 0000000180031c68     funcs.obj
 0002:0000dc68       $stateUnwindMap$_wrap_get_func_bits 0000000180031c68     funcs.obj
 0002:0000dc68       $stateUnwindMap$_wrap_add_func_ex 0000000180031c68     funcs.obj
 0002:0000dc68       $stateUnwindMap$_wrap_func_item_iterator_t_decode_prev_insn 0000000180031c68     funcs.obj
 0002:0000dc68       $stateUnwindMap$_wrap_func_t_analyzed_sp 0000000180031c68     funcs.obj
 0002:0000dc68       $stateUnwindMap$_wrap_set_func_name_if_jumpfunc 0000000180031c68     funcs.obj
 0002:0000dc68       $stateUnwindMap$_wrap_remove_func_tail 0000000180031c68     funcs.obj
 0002:0000dc68       $stateUnwindMap$_wrap_getn_func 0000000180031c68     funcs.obj
 0002:0000dc68       $stateUnwindMap$_wrap_delete_func_item_iterator_t 0000000180031c68     funcs.obj
 0002:0000dc68       $stateUnwindMap$_wrap_func_item_iterator_t_next_head 0000000180031c68     funcs.obj
 0002:0000dc68       $stateUnwindMap$_wrap_set_func_start 0000000180031c68     funcs.obj
 0002:0000dc68       $stateUnwindMap$_wrap_func_tail_iterator_t_next 0000000180031c68     funcs.obj
 0002:0000dc68       $stateUnwindMap$_wrap_func_tail_iterator_t_set 0000000180031c68     funcs.obj
 0002:0000dc68       $stateUnwindMap$_wrap_func_tail_iterator_set_ea 0000000180031c68     funcs.obj
 0002:0000dc68       $stateUnwindMap$_wrap_calc_thunk_func_target 0000000180031c68     funcs.obj
 0002:0000dc68       $stateUnwindMap$_wrap_delete_lock_func 0000000180031c68     funcs.obj
 0002:0000dc68       $stateUnwindMap$_wrap_func_t_does_return 0000000180031c68     funcs.obj
 0002:0000dc68       $stateUnwindMap$_wrap_new_func_parent_iterator_t__SWIG_0 0000000180031c68     funcs.obj
 0002:0000dc68       $stateUnwindMap$_wrap_func_item_iterator_t_next 0000000180031c68     funcs.obj
 0002:0000dc68       $stateUnwindMap$_wrap_new_func_parent_iterator_t__SWIG_1 0000000180031c68     funcs.obj
 0002:0000dc68       $stateUnwindMap$_wrap_get_func_qty 0000000180031c68     funcs.obj
 0002:0000dc68       $stateUnwindMap$_wrap_delete_func_parent_iterator_t 0000000180031c68     funcs.obj
 0002:0000dc68       $stateUnwindMap$_wrap_stkpnt_array___len__ 0000000180031c68     funcs.obj
 0002:0000dc68       $stateUnwindMap$_wrap_get_func_bitness 0000000180031c68     funcs.obj
 0002:0000dc68       $stateUnwindMap$_wrap_func_parent_iterator_t_set 0000000180031c68     funcs.obj
 0002:0000dc68       $stateUnwindMap$_wrap_new_func_item_iterator_t__SWIG_1 0000000180031c68     funcs.obj
 0002:0000dc68       $stateUnwindMap$_wrap_f_any 0000000180031c68     funcs.obj
 0002:0000dc68       $stateUnwindMap$_wrap_func_parent_iterator_t_parent 0000000180031c68     funcs.obj
 0002:0000dc68       $stateUnwindMap$_wrap_func_t_is_far 0000000180031c68     funcs.obj
 0002:0000dc68       $stateUnwindMap$_wrap_delete_regvar_array 0000000180031c68     funcs.obj
 0002:0000dc68       $stateUnwindMap$_wrap_func_parent_iterator_t_first 0000000180031c68     funcs.obj
 0002:0000dc68       $stateUnwindMap$_wrap_update_func 0000000180031c68     funcs.obj
 0002:0000dc68       $stateUnwindMap$_wrap_set_func_end 0000000180031c68     funcs.obj
 0002:0000dc68       $stateUnwindMap$_wrap_func_parent_iterator_t_last 0000000180031c68     funcs.obj
 0002:0000dc68       $stateUnwindMap$_wrap_new_lock_func 0000000180031c68     funcs.obj
 0002:0000dc68       $stateUnwindMap$_wrap_get_func_num 0000000180031c68     funcs.obj
 0002:0000dc68       $stateUnwindMap$_wrap_func_item_iterator_t_next_addr 0000000180031c68     funcs.obj
 0002:0000dc68       $stateUnwindMap$_wrap_func_parent_iterator_t_next 0000000180031c68     funcs.obj
 0002:0000dc68       $stateUnwindMap$_wrap_append_func_tail 0000000180031c68     funcs.obj
 0002:0000dc68       $stateUnwindMap$_wrap_func_does_return 0000000180031c68     funcs.obj
 0002:0000dc68       $stateUnwindMap$_wrap_func_tail_iterator_t_chunk 0000000180031c68     funcs.obj
 0002:0000dc68       $stateUnwindMap$_wrap_func_parent_iterator_t_prev 0000000180031c68     funcs.obj
 0002:0000dc68       $stateUnwindMap$_wrap_delete_range_array 0000000180031c68     funcs.obj
 0002:0000dc68       $stateUnwindMap$_wrap_func_parent_iterator_t_reset_fnt 0000000180031c68     funcs.obj
 0002:0000dc68       $stateUnwindMap$_wrap_set_func_cmt 0000000180031c68     funcs.obj
 0002:0000dc68       $stateUnwindMap$_wrap_get_next_fchunk 0000000180031c68     funcs.obj
 0002:0000dc68       $stateUnwindMap$_wrap_func_item_iterator_t_current 0000000180031c68     funcs.obj
 0002:0000dc68       $stateUnwindMap$_wrap_get_prev_func_addr 0000000180031c68     funcs.obj
 0002:0000dc68       $stateUnwindMap$_wrap_func_parent_iterator_set 0000000180031c68     funcs.obj
 0002:0000dc68       $stateUnwindMap$_wrap_reanalyze_noret_flag 0000000180031c68     funcs.obj
 0002:0000dc68       $stateUnwindMap$_wrap_new_func_item_iterator_t__SWIG_0 0000000180031c68     funcs.obj
 0002:0000dc68       $stateUnwindMap$_wrap_get_next_func_addr 0000000180031c68     funcs.obj
 0002:0000dc68       $stateUnwindMap$_wrap_get_prev_func 0000000180031c68     funcs.obj
 0002:0000dc68       $stateUnwindMap$_wrap_lock_func_range 0000000180031c68     funcs.obj
 0002:0000dc68       $stateUnwindMap$_wrap_delete_regarg_t 0000000180031c68     funcs.obj
 0002:0000dc68       $stateUnwindMap$_wrap_func_tail_iterator_t_prev 0000000180031c68     funcs.obj
 0002:0000dc68       $stateUnwindMap$_wrap_read_regargs 0000000180031c68     funcs.obj
 0002:0000dc68       $stateUnwindMap$_wrap_reanalyze_function 0000000180031c68     funcs.obj
 0002:0000dc68       $stateUnwindMap$_wrap_calc_func_size 0000000180031c68     funcs.obj
 0002:0000dc68       $stateUnwindMap$_wrap_add_regarg 0000000180031c68     funcs.obj
 0002:0000dc68       $stateUnwindMap$_wrap_find_func_bounds 0000000180031c68     funcs.obj
 0002:0000dc68       $stateUnwindMap$_wrap_plan_to_apply_idasgn 0000000180031c68     funcs.obj
 0002:0000dc68       $stateUnwindMap$_wrap_delete_func_t 0000000180031c68     funcs.obj
 0002:0000dc68       $stateUnwindMap$_wrap_apply_idasgn_to 0000000180031c68     funcs.obj
 0002:0000dc68       $stateUnwindMap$_wrap_func_item_iterator_t_prev 0000000180031c68     funcs.obj
 0002:0000dc68       $stateUnwindMap$_wrap_set_noret_insn 0000000180031c68     funcs.obj
 0002:0000dc68       $stateUnwindMap$_wrap_get_prev_fchunk 0000000180031c68     funcs.obj
 0002:0000dc68       $stateUnwindMap$_wrap_get_idasgn_qty 0000000180031c68     funcs.obj
 0002:0000dc68       $stateUnwindMap$_wrap_new_stkpnt_array 0000000180031c68     funcs.obj
 0002:0000dc68       $stateUnwindMap$_wrap_get_next_func 0000000180031c68     funcs.obj
 0002:0000dc68       $stateUnwindMap$_wrap_get_current_idasgn 0000000180031c68     funcs.obj
 0002:0000dc68       $stateUnwindMap$_wrap_func_tail_iterator_t_set_range 0000000180031c68     funcs.obj
 0002:0000dc68       $stateUnwindMap$_wrap_is_func_tail 0000000180031c68     funcs.obj
 0002:0000dc68       $stateUnwindMap$_wrap_new_regarg_t 0000000180031c68     funcs.obj
 0002:0000dc68       $stateUnwindMap$_wrap_calc_idasgn_state 0000000180031c68     funcs.obj
 0002:0000dc68       $stateUnwindMap$_wrap_func_item_iterator_decode_prev_insn 0000000180031c68     funcs.obj
 0002:0000dc68       $stateUnwindMap$_wrap_new_regvar_array 0000000180031c68     funcs.obj
 0002:0000dc68       $stateUnwindMap$_wrap_func_t__from_ptrval__ 0000000180031c68     funcs.obj
 0002:0000dc68       $stateUnwindMap$_wrap_func_item_iterator_next 0000000180031c68     funcs.obj
 0002:0000dc68       $stateUnwindMap$_wrap_get_idasgn_desc_with_matches 0000000180031c68     funcs.obj
 0002:0000dc68       $stateUnwindMap$_wrap_get_fchunk 0000000180031c68     funcs.obj
 0002:0000dc68       $stateUnwindMap$_wrap_del_idasgn 0000000180031c68     funcs.obj
 0002:0000dc68       $stateUnwindMap$_wrap_get_fchunk_num 0000000180031c68     funcs.obj
 0002:0000dc68       $stateUnwindMap$_wrap_get_idasgn_desc 0000000180031c68     funcs.obj
 0002:0000dc68       $stateUnwindMap$_wrap_apply_startup_sig 0000000180031c68     funcs.obj
 0002:0000dc68       $stateUnwindMap$_wrap_regvar_array___len__ 0000000180031c68     funcs.obj
 0002:0000dc68       $stateUnwindMap$_wrap_func_tail_iterator_t_main 0000000180031c68     funcs.obj
 0002:0000dc68       $stateUnwindMap$_wrap_getn_fchunk 0000000180031c68     funcs.obj
 0002:0000dc68       $stateUnwindMap$_wrap_try_to_add_libfunc 0000000180031c68     funcs.obj
 0002:0000dc68       $stateUnwindMap$_wrap_get_func_ranges 0000000180031c68     funcs.obj
 0002:0000dc68       $stateUnwindMap$_wrap_func_item_iterator_prev 0000000180031c68     funcs.obj
 0002:0000dc68       $stateUnwindMap$_wrap_is_func_entry 0000000180031c68     funcs.obj
 0002:0000dc68       $stateUnwindMap$_wrap_get_fchunk_qty 0000000180031c68     funcs.obj
 0002:0000dc68       $stateUnwindMap$_wrap_get_fchunk_referer 0000000180031c68     funcs.obj
 0002:0000dc78       $tryMap$_wrap_new_stkpnt_array 0000000180031c78     funcs.obj
 0002:0000dc8c       $handlerMap$0$_wrap_new_stkpnt_array 0000000180031c8c     funcs.obj
 0002:0000dd08       $ip2state$_wrap_new_stkpnt_array 0000000180031d08     funcs.obj
 0002:0000dd30       $unwind$_wrap_new_stkpnt_array$catch$6 0000000180031d30     funcs.obj
 0002:0000dd30       $unwind$_wrap_new_stkpnt_array$catch$2 0000000180031d30     funcs.obj
 0002:0000dd30       $unwind$_wrap_new_stkpnt_array$catch$1 0000000180031d30     funcs.obj
 0002:0000dd30       $unwind$_wrap_new_stkpnt_array$catch$5 0000000180031d30     funcs.obj
 0002:0000dd30       $unwind$_wrap_new_stkpnt_array$catch$4 0000000180031d30     funcs.obj
 0002:0000dd30       $unwind$_wrap_new_stkpnt_array$catch$3 0000000180031d30     funcs.obj
 0002:0000dd40       $unwind$_wrap_stkpnt_array___len__ 0000000180031d40     funcs.obj
 0002:0000dd5c       $tryMap$_wrap_stkpnt_array___len__ 0000000180031d5c     funcs.obj
 0002:0000dd70       $handlerMap$0$_wrap_stkpnt_array___len__ 0000000180031d70     funcs.obj
 0002:0000dde8       $ip2state$_wrap_stkpnt_array___len__ 0000000180031de8     funcs.obj
 0002:0000de08       $unwind$_wrap_stkpnt_array___len__$catch$0 0000000180031e08     funcs.obj
 0002:0000de08       $unwind$_wrap_stkpnt_array___len__$catch$5 0000000180031e08     funcs.obj
 0002:0000de08       $unwind$_wrap_stkpnt_array___len__$catch$1 0000000180031e08     funcs.obj
 0002:0000de08       $unwind$_wrap_stkpnt_array___len__$catch$3 0000000180031e08     funcs.obj
 0002:0000de08       $unwind$_wrap_stkpnt_array___len__$catch$2 0000000180031e08     funcs.obj
 0002:0000de08       $unwind$_wrap_stkpnt_array___len__$catch$4 0000000180031e08     funcs.obj
 0002:0000de18       $unwind$_wrap_stkpnt_array___getitem__ 0000000180031e18     funcs.obj
 0002:0000de38       $stateUnwindMap$_wrap_stkpnt_array___getitem__ 0000000180031e38     funcs.obj
 0002:0000de38       $stateUnwindMap$_wrap_regvar_array___getitem__ 0000000180031e38     funcs.obj
 0002:0000de38       $stateUnwindMap$_wrap_range_array___getitem__ 0000000180031e38     funcs.obj
 0002:0000de38       $stateUnwindMap$_wrap_regvar_array___setitem__ 0000000180031e38     funcs.obj
 0002:0000de38       $stateUnwindMap$_wrap_range_array___setitem__ 0000000180031e38     funcs.obj
 0002:0000de38       $stateUnwindMap$_wrap_stkpnt_array___setitem__ 0000000180031e38     funcs.obj
 0002:0000de58       $tryMap$_wrap_stkpnt_array___getitem__ 0000000180031e58     funcs.obj
 0002:0000de80       $handlerMap$0$_wrap_stkpnt_array___getitem__ 0000000180031e80     funcs.obj
 0002:0000de94       $handlerMap$1$_wrap_stkpnt_array___getitem__ 0000000180031e94     funcs.obj
 0002:0000df10       $ip2state$_wrap_stkpnt_array___getitem__ 0000000180031f10     funcs.obj
 0002:0000df40       $unwind$_wrap_stkpnt_array___getitem__$catch$0 0000000180031f40     funcs.obj
 0002:0000df54       $unwind$_wrap_stkpnt_array___getitem__$catch$1 0000000180031f54     funcs.obj
 0002:0000df54       $unwind$_wrap_stkpnt_array___getitem__$catch$3 0000000180031f54     funcs.obj
 0002:0000df54       $unwind$_wrap_stkpnt_array___getitem__$catch$4 0000000180031f54     funcs.obj
 0002:0000df54       $unwind$_wrap_stkpnt_array___getitem__$catch$6 0000000180031f54     funcs.obj
 0002:0000df54       $unwind$_wrap_stkpnt_array___getitem__$catch$5 0000000180031f54     funcs.obj
 0002:0000df54       $unwind$_wrap_stkpnt_array___getitem__$catch$2 0000000180031f54     funcs.obj
 0002:0000df64       $unwind$_wrap_stkpnt_array___setitem__ 0000000180031f64     funcs.obj
 0002:0000df8c       $tryMap$_wrap_stkpnt_array___setitem__ 0000000180031f8c     funcs.obj
 0002:0000dfb4       $handlerMap$0$_wrap_stkpnt_array___setitem__ 0000000180031fb4     funcs.obj
 0002:0000dfc8       $handlerMap$1$_wrap_stkpnt_array___setitem__ 0000000180031fc8     funcs.obj
 0002:0000e040       $ip2state$_wrap_stkpnt_array___setitem__ 0000000180032040     funcs.obj
 0002:0000e080       $unwind$_wrap_stkpnt_array___setitem__$catch$0 0000000180032080     funcs.obj
 0002:0000e094       $unwind$_wrap_stkpnt_array___setitem__$catch$6 0000000180032094     funcs.obj
 0002:0000e094       $unwind$_wrap_stkpnt_array___setitem__$catch$4 0000000180032094     funcs.obj
 0002:0000e094       $unwind$_wrap_stkpnt_array___setitem__$catch$1 0000000180032094     funcs.obj
 0002:0000e094       $unwind$_wrap_stkpnt_array___setitem__$catch$2 0000000180032094     funcs.obj
 0002:0000e094       $unwind$_wrap_stkpnt_array___setitem__$catch$3 0000000180032094     funcs.obj
 0002:0000e094       $unwind$_wrap_stkpnt_array___setitem__$catch$5 0000000180032094     funcs.obj
 0002:0000e0a4       $unwind$_wrap_delete_stkpnt_array 00000001800320a4     funcs.obj
 0002:0000e0c0       $tryMap$_wrap_delete_stkpnt_array 00000001800320c0     funcs.obj
 0002:0000e0d4       $handlerMap$0$_wrap_delete_stkpnt_array 00000001800320d4     funcs.obj
 0002:0000e150       $ip2state$_wrap_delete_stkpnt_array 0000000180032150     funcs.obj
 0002:0000e170       $unwind$_wrap_delete_stkpnt_array$catch$0 0000000180032170     funcs.obj
 0002:0000e170       $unwind$_wrap_delete_stkpnt_array$catch$3 0000000180032170     funcs.obj
 0002:0000e170       $unwind$_wrap_delete_stkpnt_array$catch$2 0000000180032170     funcs.obj
 0002:0000e170       $unwind$_wrap_delete_stkpnt_array$catch$1 0000000180032170     funcs.obj
 0002:0000e170       $unwind$_wrap_delete_stkpnt_array$catch$5 0000000180032170     funcs.obj
 0002:0000e170       $unwind$_wrap_delete_stkpnt_array$catch$4 0000000180032170     funcs.obj
 0002:0000e180       $unwind$func_item_iterator_t_swigregister 0000000180032180     funcs.obj
 0002:0000e180       $unwind$regarg_t_swigregister 0000000180032180     funcs.obj
 0002:0000e180       $unwind$func_tail_iterator_t_swigregister 0000000180032180     funcs.obj
 0002:0000e180       $unwind$func_t_swigregister 0000000180032180     funcs.obj
 0002:0000e180       $unwind$range_array_swigregister 0000000180032180     funcs.obj
 0002:0000e180       $unwind$stkpnt_array_swigregister 0000000180032180     funcs.obj
 0002:0000e180       $unwind$lock_func_swigregister 0000000180032180     funcs.obj
 0002:0000e180       $unwind$func_parent_iterator_t_swigregister 0000000180032180     funcs.obj
 0002:0000e180       $unwind$regvar_array_swigregister 0000000180032180     funcs.obj
 0002:0000e188       $chain$0$_wrap_regvar_array_data_get 0000000180032188     funcs.obj
 0002:0000e19c       $chain$1$_wrap_regvar_array_data_get 000000018003219c     funcs.obj
 0002:0000e1ac       $chain$0$_wrap_regvar_array_count_get 00000001800321ac     funcs.obj
 0002:0000e1c0       $chain$1$_wrap_regvar_array_count_get 00000001800321c0     funcs.obj
 0002:0000e1d0       $unwind$_wrap_new_regvar_array 00000001800321d0     funcs.obj
 0002:0000e1ec       $tryMap$_wrap_new_regvar_array 00000001800321ec     funcs.obj
 0002:0000e200       $handlerMap$0$_wrap_new_regvar_array 0000000180032200     funcs.obj
 0002:0000e278       $ip2state$_wrap_new_regvar_array 0000000180032278     funcs.obj
 0002:0000e2a0       $unwind$_wrap_new_regvar_array$catch$2 00000001800322a0     funcs.obj
 0002:0000e2a0       $unwind$_wrap_new_regvar_array$catch$6 00000001800322a0     funcs.obj
 0002:0000e2a0       $unwind$_wrap_new_regvar_array$catch$5 00000001800322a0     funcs.obj
 0002:0000e2a0       $unwind$_wrap_new_regvar_array$catch$4 00000001800322a0     funcs.obj
 0002:0000e2a0       $unwind$_wrap_new_regvar_array$catch$3 00000001800322a0     funcs.obj
 0002:0000e2a0       $unwind$_wrap_new_regvar_array$catch$1 00000001800322a0     funcs.obj
 0002:0000e2b0       $unwind$_wrap_regvar_array___len__ 00000001800322b0     funcs.obj
 0002:0000e2cc       $tryMap$_wrap_regvar_array___len__ 00000001800322cc     funcs.obj
 0002:0000e2e0       $handlerMap$0$_wrap_regvar_array___len__ 00000001800322e0     funcs.obj
 0002:0000e358       $ip2state$_wrap_regvar_array___len__ 0000000180032358     funcs.obj
 0002:0000e378       $unwind$_wrap_regvar_array___len__$catch$1 0000000180032378     funcs.obj
 0002:0000e378       $unwind$_wrap_regvar_array___len__$catch$5 0000000180032378     funcs.obj
 0002:0000e378       $unwind$_wrap_regvar_array___len__$catch$4 0000000180032378     funcs.obj
 0002:0000e378       $unwind$_wrap_regvar_array___len__$catch$3 0000000180032378     funcs.obj
 0002:0000e378       $unwind$_wrap_regvar_array___len__$catch$2 0000000180032378     funcs.obj
 0002:0000e378       $unwind$_wrap_regvar_array___len__$catch$0 0000000180032378     funcs.obj
 0002:0000e388       $unwind$_wrap_regvar_array___getitem__ 0000000180032388     funcs.obj
 0002:0000e3a8       $tryMap$_wrap_regvar_array___getitem__ 00000001800323a8     funcs.obj
 0002:0000e3d0       $handlerMap$0$_wrap_regvar_array___getitem__ 00000001800323d0     funcs.obj
 0002:0000e3e4       $handlerMap$1$_wrap_regvar_array___getitem__ 00000001800323e4     funcs.obj
 0002:0000e460       $ip2state$_wrap_regvar_array___getitem__ 0000000180032460     funcs.obj
 0002:0000e490       $unwind$_wrap_regvar_array___getitem__$catch$0 0000000180032490     funcs.obj
 0002:0000e4a4       $unwind$_wrap_regvar_array___getitem__$catch$4 00000001800324a4     funcs.obj
 0002:0000e4a4       $unwind$_wrap_regvar_array___getitem__$catch$1 00000001800324a4     funcs.obj
 0002:0000e4a4       $unwind$_wrap_regvar_array___getitem__$catch$2 00000001800324a4     funcs.obj
 0002:0000e4a4       $unwind$_wrap_regvar_array___getitem__$catch$3 00000001800324a4     funcs.obj
 0002:0000e4a4       $unwind$_wrap_regvar_array___getitem__$catch$6 00000001800324a4     funcs.obj
 0002:0000e4a4       $unwind$_wrap_regvar_array___getitem__$catch$5 00000001800324a4     funcs.obj
 0002:0000e4b4       $unwind$_wrap_regvar_array___setitem__ 00000001800324b4     funcs.obj
 0002:0000e4dc       $tryMap$_wrap_regvar_array___setitem__ 00000001800324dc     funcs.obj
 0002:0000e504       $handlerMap$0$_wrap_regvar_array___setitem__ 0000000180032504     funcs.obj
 0002:0000e518       $handlerMap$1$_wrap_regvar_array___setitem__ 0000000180032518     funcs.obj
 0002:0000e590       $ip2state$_wrap_regvar_array___setitem__ 0000000180032590     funcs.obj
 0002:0000e5d0       $unwind$_wrap_regvar_array___setitem__$catch$0 00000001800325d0     funcs.obj
 0002:0000e5e4       $unwind$_wrap_regvar_array___setitem__$catch$4 00000001800325e4     funcs.obj
 0002:0000e5e4       $unwind$_wrap_regvar_array___setitem__$catch$1 00000001800325e4     funcs.obj
 0002:0000e5e4       $unwind$_wrap_regvar_array___setitem__$catch$2 00000001800325e4     funcs.obj
 0002:0000e5e4       $unwind$_wrap_regvar_array___setitem__$catch$3 00000001800325e4     funcs.obj
 0002:0000e5e4       $unwind$_wrap_regvar_array___setitem__$catch$6 00000001800325e4     funcs.obj
 0002:0000e5e4       $unwind$_wrap_regvar_array___setitem__$catch$5 00000001800325e4     funcs.obj
 0002:0000e5f4       $unwind$_wrap_delete_regvar_array 00000001800325f4     funcs.obj
 0002:0000e610       $tryMap$_wrap_delete_regvar_array 0000000180032610     funcs.obj
 0002:0000e624       $handlerMap$0$_wrap_delete_regvar_array 0000000180032624     funcs.obj
 0002:0000e6a0       $ip2state$_wrap_delete_regvar_array 00000001800326a0     funcs.obj
 0002:0000e6c0       $unwind$_wrap_delete_regvar_array$catch$1 00000001800326c0     funcs.obj
 0002:0000e6c0       $unwind$_wrap_delete_regvar_array$catch$5 00000001800326c0     funcs.obj
 0002:0000e6c0       $unwind$_wrap_delete_regvar_array$catch$4 00000001800326c0     funcs.obj
 0002:0000e6c0       $unwind$_wrap_delete_regvar_array$catch$3 00000001800326c0     funcs.obj
 0002:0000e6c0       $unwind$_wrap_delete_regvar_array$catch$2 00000001800326c0     funcs.obj
 0002:0000e6c0       $unwind$_wrap_delete_regvar_array$catch$0 00000001800326c0     funcs.obj
 0002:0000e6d0       $chain$0$_wrap_range_array_data_get 00000001800326d0     funcs.obj
 0002:0000e6e4       $chain$1$_wrap_range_array_data_get 00000001800326e4     funcs.obj
 0002:0000e6f4       $chain$0$_wrap_range_array_count_get 00000001800326f4     funcs.obj
 0002:0000e708       $chain$1$_wrap_range_array_count_get 0000000180032708     funcs.obj
 0002:0000e718       $unwind$_wrap_new_range_array 0000000180032718     funcs.obj
 0002:0000e734       $tryMap$_wrap_new_range_array 0000000180032734     funcs.obj
 0002:0000e748       $handlerMap$0$_wrap_new_range_array 0000000180032748     funcs.obj
 0002:0000e7c0       $ip2state$_wrap_new_range_array 00000001800327c0     funcs.obj
 0002:0000e7e8       $unwind$_wrap_new_range_array$catch$4 00000001800327e8     funcs.obj
 0002:0000e7e8       $unwind$_wrap_new_range_array$catch$1 00000001800327e8     funcs.obj
 0002:0000e7e8       $unwind$_wrap_new_range_array$catch$2 00000001800327e8     funcs.obj
 0002:0000e7e8       $unwind$_wrap_new_range_array$catch$3 00000001800327e8     funcs.obj
 0002:0000e7e8       $unwind$_wrap_new_range_array$catch$6 00000001800327e8     funcs.obj
 0002:0000e7e8       $unwind$_wrap_new_range_array$catch$5 00000001800327e8     funcs.obj
 0002:0000e7f8       $unwind$_wrap_range_array___len__ 00000001800327f8     funcs.obj
 0002:0000e814       $tryMap$_wrap_range_array___len__ 0000000180032814     funcs.obj
 0002:0000e828       $handlerMap$0$_wrap_range_array___len__ 0000000180032828     funcs.obj
 0002:0000e8a0       $ip2state$_wrap_range_array___len__ 00000001800328a0     funcs.obj
 0002:0000e8c0       $unwind$_wrap_range_array___len__$catch$1 00000001800328c0     funcs.obj
 0002:0000e8c0       $unwind$_wrap_range_array___len__$catch$5 00000001800328c0     funcs.obj
 0002:0000e8c0       $unwind$_wrap_range_array___len__$catch$4 00000001800328c0     funcs.obj
 0002:0000e8c0       $unwind$_wrap_range_array___len__$catch$3 00000001800328c0     funcs.obj
 0002:0000e8c0       $unwind$_wrap_range_array___len__$catch$2 00000001800328c0     funcs.obj
 0002:0000e8c0       $unwind$_wrap_range_array___len__$catch$0 00000001800328c0     funcs.obj
 0002:0000e8d0       $unwind$_wrap_range_array___getitem__ 00000001800328d0     funcs.obj
 0002:0000e8f0       $tryMap$_wrap_range_array___getitem__ 00000001800328f0     funcs.obj
 0002:0000e918       $handlerMap$0$_wrap_range_array___getitem__ 0000000180032918     funcs.obj
 0002:0000e92c       $handlerMap$1$_wrap_range_array___getitem__ 000000018003292c     funcs.obj
 0002:0000e9a8       $ip2state$_wrap_range_array___getitem__ 00000001800329a8     funcs.obj
 0002:0000e9d8       $unwind$_wrap_range_array___getitem__$catch$0 00000001800329d8     funcs.obj
 0002:0000e9ec       $unwind$_wrap_range_array___getitem__$catch$2 00000001800329ec     funcs.obj
 0002:0000e9ec       $unwind$_wrap_range_array___getitem__$catch$1 00000001800329ec     funcs.obj
 0002:0000e9ec       $unwind$_wrap_range_array___getitem__$catch$6 00000001800329ec     funcs.obj
 0002:0000e9ec       $unwind$_wrap_range_array___getitem__$catch$3 00000001800329ec     funcs.obj
 0002:0000e9ec       $unwind$_wrap_range_array___getitem__$catch$4 00000001800329ec     funcs.obj
 0002:0000e9ec       $unwind$_wrap_range_array___getitem__$catch$5 00000001800329ec     funcs.obj
 0002:0000e9fc       $unwind$_wrap_range_array___setitem__ 00000001800329fc     funcs.obj
 0002:0000ea24       $tryMap$_wrap_range_array___setitem__ 0000000180032a24     funcs.obj
 0002:0000ea4c       $handlerMap$0$_wrap_range_array___setitem__ 0000000180032a4c     funcs.obj
 0002:0000ea60       $handlerMap$1$_wrap_range_array___setitem__ 0000000180032a60     funcs.obj
 0002:0000eae0       $ip2state$_wrap_range_array___setitem__ 0000000180032ae0     funcs.obj
 0002:0000eb20       $unwind$_wrap_range_array___setitem__$catch$0 0000000180032b20     funcs.obj
 0002:0000eb34       $unwind$_wrap_range_array___setitem__$catch$2 0000000180032b34     funcs.obj
 0002:0000eb34       $unwind$_wrap_range_array___setitem__$catch$1 0000000180032b34     funcs.obj
 0002:0000eb34       $unwind$_wrap_range_array___setitem__$catch$6 0000000180032b34     funcs.obj
 0002:0000eb34       $unwind$_wrap_range_array___setitem__$catch$3 0000000180032b34     funcs.obj
 0002:0000eb34       $unwind$_wrap_range_array___setitem__$catch$4 0000000180032b34     funcs.obj
 0002:0000eb34       $unwind$_wrap_range_array___setitem__$catch$5 0000000180032b34     funcs.obj
 0002:0000eb44       $unwind$_wrap_delete_range_array 0000000180032b44     funcs.obj
 0002:0000eb60       $tryMap$_wrap_delete_range_array 0000000180032b60     funcs.obj
 0002:0000eb74       $handlerMap$0$_wrap_delete_range_array 0000000180032b74     funcs.obj
 0002:0000ebf0       $ip2state$_wrap_delete_range_array 0000000180032bf0     funcs.obj
 0002:0000ec10       $unwind$_wrap_delete_range_array$catch$3 0000000180032c10     funcs.obj
 0002:0000ec10       $unwind$_wrap_delete_range_array$catch$5 0000000180032c10     funcs.obj
 0002:0000ec10       $unwind$_wrap_delete_range_array$catch$0 0000000180032c10     funcs.obj
 0002:0000ec10       $unwind$_wrap_delete_range_array$catch$2 0000000180032c10     funcs.obj
 0002:0000ec10       $unwind$_wrap_delete_range_array$catch$1 0000000180032c10     funcs.obj
 0002:0000ec10       $unwind$_wrap_delete_range_array$catch$4 0000000180032c10     funcs.obj
 0002:0000ec20       $unwind$_wrap_func_t_color_set 0000000180032c20     funcs.obj
 0002:0000ec20       $unwind$_wrap_func_t_regvarqty_set 0000000180032c20     funcs.obj
 0002:0000ec20       $unwind$_wrap_func_t_refqty_set 0000000180032c20     funcs.obj
 0002:0000ec20       $unwind$_wrap_func_t_pntqty_set 0000000180032c20     funcs.obj
 0002:0000ec20       $unwind$_wrap_regarg_t_reg_set 0000000180032c20     funcs.obj
 0002:0000ec20       $unwind$_wrap_func_t_llabelqty_set 0000000180032c20     funcs.obj
 0002:0000ec20       $unwind$_wrap_func_t_argsize_set 0000000180032c20     funcs.obj
 0002:0000ec20       $unwind$_wrap_func_t_regargqty_set 0000000180032c20     funcs.obj
 0002:0000ec20       $unwind$_wrap_func_t_frsize_set 0000000180032c20     funcs.obj
 0002:0000ec20       $unwind$_wrap_func_t_owner_set 0000000180032c20     funcs.obj
 0002:0000ec20       $unwind$_wrap_func_t_tailqty_set 0000000180032c20     funcs.obj
 0002:0000ec20       $unwind$_wrap_func_t_fpd_set 0000000180032c20     funcs.obj
 0002:0000ec20       $unwind$_wrap_func_t_frame_set 0000000180032c20     funcs.obj
 0002:0000ec20       $unwind$_wrap_func_t_flags_set 0000000180032c20     funcs.obj
 0002:0000ec30       $chain$0$_wrap_regarg_t_reg_set 0000000180032c30     funcs.obj
 0002:0000ec44       $chain$1$_wrap_regarg_t_reg_set 0000000180032c44     funcs.obj
 0002:0000ec54       $chain$0$_wrap_regarg_t_reg_get 0000000180032c54     funcs.obj
 0002:0000ec68       $chain$1$_wrap_regarg_t_reg_get 0000000180032c68     funcs.obj
 0002:0000ec78       $unwind$_wrap_regarg_t_type_set 0000000180032c78     funcs.obj
 0002:0000ec78       $unwind$_wrap_regarg_t_name_set 0000000180032c78     funcs.obj
 0002:0000ec8c       $chain$0$_wrap_regarg_t_type_get 0000000180032c8c     funcs.obj
 0002:0000eca0       $chain$1$_wrap_regarg_t_type_get 0000000180032ca0     funcs.obj
 0002:0000ecb0       $chain$0$_wrap_regarg_t_name_get 0000000180032cb0     funcs.obj
 0002:0000ecc4       $chain$1$_wrap_regarg_t_name_get 0000000180032cc4     funcs.obj
 0002:0000ecd4       $unwind$_wrap_new_regarg_t 0000000180032cd4     funcs.obj
 0002:0000ece4       $tryMap$_wrap_new_regarg_t 0000000180032ce4     funcs.obj
 0002:0000ecf8       $handlerMap$0$_wrap_new_regarg_t 0000000180032cf8     funcs.obj
 0002:0000ed70       $ip2state$_wrap_new_regarg_t 0000000180032d70     funcs.obj
 0002:0000ed90       $unwind$_wrap_new_regarg_t$catch$0 0000000180032d90     funcs.obj
 0002:0000ed90       $unwind$_wrap_new_regarg_t$catch$4 0000000180032d90     funcs.obj
 0002:0000ed90       $unwind$_wrap_new_regarg_t$catch$2 0000000180032d90     funcs.obj
 0002:0000ed90       $unwind$_wrap_new_regarg_t$catch$1 0000000180032d90     funcs.obj
 0002:0000ed90       $unwind$_wrap_new_regarg_t$catch$5 0000000180032d90     funcs.obj
 0002:0000ed90       $unwind$_wrap_new_regarg_t$catch$3 0000000180032d90     funcs.obj
 0002:0000eda0       $unwind$_wrap_delete_regarg_t 0000000180032da0     funcs.obj
 0002:0000edbc       $tryMap$_wrap_delete_regarg_t 0000000180032dbc     funcs.obj
 0002:0000edd0       $handlerMap$0$_wrap_delete_regarg_t 0000000180032dd0     funcs.obj
 0002:0000ee48       $ip2state$_wrap_delete_regarg_t 0000000180032e48     funcs.obj
 0002:0000ee68       $unwind$_wrap_delete_regarg_t$catch$5 0000000180032e68     funcs.obj
 0002:0000ee68       $unwind$_wrap_delete_regarg_t$catch$4 0000000180032e68     funcs.obj
 0002:0000ee68       $unwind$_wrap_delete_regarg_t$catch$3 0000000180032e68     funcs.obj
 0002:0000ee68       $unwind$_wrap_delete_regarg_t$catch$2 0000000180032e68     funcs.obj
 0002:0000ee68       $unwind$_wrap_delete_regarg_t$catch$1 0000000180032e68     funcs.obj
 0002:0000ee68       $unwind$_wrap_delete_regarg_t$catch$0 0000000180032e68     funcs.obj
 0002:0000ee78       $chain$0$_wrap_func_t_flags_set 0000000180032e78     funcs.obj
 0002:0000ee8c       $chain$1$_wrap_func_t_flags_set 0000000180032e8c     funcs.obj
 0002:0000ee9c       $chain$0$_wrap_func_t_flags_get 0000000180032e9c     funcs.obj
 0002:0000eeb0       $chain$1$_wrap_func_t_flags_get 0000000180032eb0     funcs.obj
 0002:0000eec0       $unwind$_wrap_func_t_is_far 0000000180032ec0     funcs.obj
 0002:0000eedc       $tryMap$_wrap_func_t_is_far 0000000180032edc     funcs.obj
 0002:0000eef0       $handlerMap$0$_wrap_func_t_is_far 0000000180032ef0     funcs.obj
 0002:0000ef68       $ip2state$_wrap_func_t_is_far 0000000180032f68     funcs.obj
 0002:0000ef88       $unwind$_wrap_func_t_is_far$catch$2 0000000180032f88     funcs.obj
 0002:0000ef88       $unwind$_wrap_func_t_is_far$catch$1 0000000180032f88     funcs.obj
 0002:0000ef88       $unwind$_wrap_func_t_is_far$catch$5 0000000180032f88     funcs.obj
 0002:0000ef88       $unwind$_wrap_func_t_is_far$catch$0 0000000180032f88     funcs.obj
 0002:0000ef88       $unwind$_wrap_func_t_is_far$catch$3 0000000180032f88     funcs.obj
 0002:0000ef88       $unwind$_wrap_func_t_is_far$catch$4 0000000180032f88     funcs.obj
 0002:0000ef98       $unwind$_wrap_func_t_does_return 0000000180032f98     funcs.obj
 0002:0000efb4       $tryMap$_wrap_func_t_does_return 0000000180032fb4     funcs.obj
 0002:0000efc8       $handlerMap$0$_wrap_func_t_does_return 0000000180032fc8     funcs.obj
 0002:0000f040       $ip2state$_wrap_func_t_does_return 0000000180033040     funcs.obj
 0002:0000f060       $unwind$_wrap_func_t_does_return$catch$4 0000000180033060     funcs.obj
 0002:0000f060       $unwind$_wrap_func_t_does_return$catch$5 0000000180033060     funcs.obj
 0002:0000f060       $unwind$_wrap_func_t_does_return$catch$1 0000000180033060     funcs.obj
 0002:0000f060       $unwind$_wrap_func_t_does_return$catch$0 0000000180033060     funcs.obj
 0002:0000f060       $unwind$_wrap_func_t_does_return$catch$2 0000000180033060     funcs.obj
 0002:0000f060       $unwind$_wrap_func_t_does_return$catch$3 0000000180033060     funcs.obj
 0002:0000f070       $unwind$_wrap_func_t_analyzed_sp 0000000180033070     funcs.obj
 0002:0000f08c       $tryMap$_wrap_func_t_analyzed_sp 000000018003308c     funcs.obj
 0002:0000f0a0       $handlerMap$0$_wrap_func_t_analyzed_sp 00000001800330a0     funcs.obj
 0002:0000f118       $ip2state$_wrap_func_t_analyzed_sp 0000000180033118     funcs.obj
 0002:0000f138       $unwind$_wrap_func_t_analyzed_sp$catch$0 0000000180033138     funcs.obj
 0002:0000f138       $unwind$_wrap_func_t_analyzed_sp$catch$5 0000000180033138     funcs.obj
 0002:0000f138       $unwind$_wrap_func_t_analyzed_sp$catch$4 0000000180033138     funcs.obj
 0002:0000f138       $unwind$_wrap_func_t_analyzed_sp$catch$3 0000000180033138     funcs.obj
 0002:0000f138       $unwind$_wrap_func_t_analyzed_sp$catch$2 0000000180033138     funcs.obj
 0002:0000f138       $unwind$_wrap_func_t_analyzed_sp$catch$1 0000000180033138     funcs.obj
 0002:0000f148       $unwind$_wrap_func_t_need_prolog_analysis 0000000180033148     funcs.obj
 0002:0000f164       $tryMap$_wrap_func_t_need_prolog_analysis 0000000180033164     funcs.obj
 0002:0000f178       $handlerMap$0$_wrap_func_t_need_prolog_analysis 0000000180033178     funcs.obj
 0002:0000f1f0       $ip2state$_wrap_func_t_need_prolog_analysis 00000001800331f0     funcs.obj
 0002:0000f210       $unwind$_wrap_func_t_need_prolog_analysis$catch$3 0000000180033210     funcs.obj
 0002:0000f210       $unwind$_wrap_func_t_need_prolog_analysis$catch$0 0000000180033210     funcs.obj
 0002:0000f210       $unwind$_wrap_func_t_need_prolog_analysis$catch$2 0000000180033210     funcs.obj
 0002:0000f210       $unwind$_wrap_func_t_need_prolog_analysis$catch$1 0000000180033210     funcs.obj
 0002:0000f210       $unwind$_wrap_func_t_need_prolog_analysis$catch$5 0000000180033210     funcs.obj
 0002:0000f210       $unwind$_wrap_func_t_need_prolog_analysis$catch$4 0000000180033210     funcs.obj
 0002:0000f220       $chain$0$_wrap_func_t_frame_set 0000000180033220     funcs.obj
 0002:0000f234       $chain$1$_wrap_func_t_frame_set 0000000180033234     funcs.obj
 0002:0000f244       $chain$0$_wrap_func_t_frame_get 0000000180033244     funcs.obj
 0002:0000f258       $chain$1$_wrap_func_t_frame_get 0000000180033258     funcs.obj
 0002:0000f268       $chain$0$_wrap_func_t_frsize_set 0000000180033268     funcs.obj
 0002:0000f27c       $chain$1$_wrap_func_t_frsize_set 000000018003327c     funcs.obj
 0002:0000f28c       $chain$0$_wrap_func_t_frsize_get 000000018003328c     funcs.obj
 0002:0000f2a0       $chain$1$_wrap_func_t_frsize_get 00000001800332a0     funcs.obj
 0002:0000f2b0       $unwind$_wrap_func_t_frregs_set 00000001800332b0     funcs.obj
 0002:0000f2c4       $chain$0$_wrap_func_t_frregs_set 00000001800332c4     funcs.obj
 0002:0000f2d8       $chain$1$_wrap_func_t_frregs_set 00000001800332d8     funcs.obj
 0002:0000f2e8       $chain$0$_wrap_func_t_frregs_get 00000001800332e8     funcs.obj
 0002:0000f2fc       $chain$1$_wrap_func_t_frregs_get 00000001800332fc     funcs.obj
 0002:0000f30c       $chain$0$_wrap_func_t_argsize_set 000000018003330c     funcs.obj
 0002:0000f320       $chain$1$_wrap_func_t_argsize_set 0000000180033320     funcs.obj
 0002:0000f330       $chain$0$_wrap_func_t_argsize_get 0000000180033330     funcs.obj
 0002:0000f344       $chain$1$_wrap_func_t_argsize_get 0000000180033344     funcs.obj
 0002:0000f354       $chain$0$_wrap_func_t_fpd_set 0000000180033354     funcs.obj
 0002:0000f368       $chain$1$_wrap_func_t_fpd_set 0000000180033368     funcs.obj
 0002:0000f378       $chain$0$_wrap_func_t_fpd_get 0000000180033378     funcs.obj
 0002:0000f38c       $chain$1$_wrap_func_t_fpd_get 000000018003338c     funcs.obj
 0002:0000f39c       $chain$0$_wrap_func_t_color_set 000000018003339c     funcs.obj
 0002:0000f3b0       $chain$1$_wrap_func_t_color_set 00000001800333b0     funcs.obj
 0002:0000f3c0       $chain$0$_wrap_func_t_color_get 00000001800333c0     funcs.obj
 0002:0000f3d4       $chain$1$_wrap_func_t_color_get 00000001800333d4     funcs.obj
 0002:0000f3e4       $chain$0$_wrap_func_t_pntqty_set 00000001800333e4     funcs.obj
 0002:0000f3f8       $chain$1$_wrap_func_t_pntqty_set 00000001800333f8     funcs.obj
 0002:0000f408       $chain$0$_wrap_func_t_pntqty_get 0000000180033408     funcs.obj
 0002:0000f41c       $chain$1$_wrap_func_t_pntqty_get 000000018003341c     funcs.obj
 0002:0000f42c       $unwind$_wrap_func_t_points_set 000000018003342c     funcs.obj
 0002:0000f42c       $unwind$_wrap_func_t_regvars_set 000000018003342c     funcs.obj
 0002:0000f42c       $unwind$_wrap_func_t_regargs_set 000000018003342c     funcs.obj
 0002:0000f42c       $unwind$_wrap_func_t_referers_set 000000018003342c     funcs.obj
 0002:0000f42c       $unwind$_wrap_func_t_llabels_set 000000018003342c     funcs.obj
 0002:0000f42c       $unwind$_wrap_func_t_tails_set 000000018003342c     funcs.obj
 0002:0000f444       $chain$0$_wrap_func_t_points_get 0000000180033444     funcs.obj
 0002:0000f458       $chain$1$_wrap_func_t_points_get 0000000180033458     funcs.obj
 0002:0000f468       $chain$0$_wrap_func_t_regvarqty_set 0000000180033468     funcs.obj
 0002:0000f47c       $chain$1$_wrap_func_t_regvarqty_set 000000018003347c     funcs.obj
 0002:0000f48c       $chain$0$_wrap_func_t_regvarqty_get 000000018003348c     funcs.obj
 0002:0000f4a0       $chain$1$_wrap_func_t_regvarqty_get 00000001800334a0     funcs.obj
 0002:0000f4b0       $chain$0$_wrap_func_t_regvars_get 00000001800334b0     funcs.obj
 0002:0000f4c4       $chain$1$_wrap_func_t_regvars_get 00000001800334c4     funcs.obj
 0002:0000f4d4       $chain$0$_wrap_func_t_llabelqty_set 00000001800334d4     funcs.obj
 0002:0000f4e8       $chain$1$_wrap_func_t_llabelqty_set 00000001800334e8     funcs.obj
 0002:0000f4f8       $chain$0$_wrap_func_t_llabelqty_get 00000001800334f8     funcs.obj
 0002:0000f50c       $chain$1$_wrap_func_t_llabelqty_get 000000018003350c     funcs.obj
 0002:0000f51c       $chain$0$_wrap_func_t_llabels_get 000000018003351c     funcs.obj
 0002:0000f530       $chain$1$_wrap_func_t_llabels_get 0000000180033530     funcs.obj
 0002:0000f540       $chain$0$_wrap_func_t_regargqty_set 0000000180033540     funcs.obj
 0002:0000f554       $chain$1$_wrap_func_t_regargqty_set 0000000180033554     funcs.obj
 0002:0000f564       $chain$0$_wrap_func_t_regargqty_get 0000000180033564     funcs.obj
 0002:0000f578       $chain$1$_wrap_func_t_regargqty_get 0000000180033578     funcs.obj
 0002:0000f588       $chain$0$_wrap_func_t_regargs_get 0000000180033588     funcs.obj
 0002:0000f59c       $chain$1$_wrap_func_t_regargs_get 000000018003359c     funcs.obj
 0002:0000f5ac       $chain$0$_wrap_func_t_tailqty_set 00000001800335ac     funcs.obj
 0002:0000f5c0       $chain$1$_wrap_func_t_tailqty_set 00000001800335c0     funcs.obj
 0002:0000f5d0       $chain$0$_wrap_func_t_tailqty_get 00000001800335d0     funcs.obj
 0002:0000f5e4       $chain$1$_wrap_func_t_tailqty_get 00000001800335e4     funcs.obj
 0002:0000f5f4       $chain$0$_wrap_func_t_tails_get 00000001800335f4     funcs.obj
 0002:0000f608       $chain$1$_wrap_func_t_tails_get 0000000180033608     funcs.obj
 0002:0000f618       $chain$0$_wrap_func_t_owner_set 0000000180033618     funcs.obj
 0002:0000f62c       $chain$1$_wrap_func_t_owner_set 000000018003362c     funcs.obj
 0002:0000f63c       $chain$0$_wrap_func_t_owner_get 000000018003363c     funcs.obj
 0002:0000f650       $chain$1$_wrap_func_t_owner_get 0000000180033650     funcs.obj
 0002:0000f660       $chain$0$_wrap_func_t_refqty_set 0000000180033660     funcs.obj
 0002:0000f674       $chain$1$_wrap_func_t_refqty_set 0000000180033674     funcs.obj
 0002:0000f684       $chain$0$_wrap_func_t_refqty_get 0000000180033684     funcs.obj
 0002:0000f698       $chain$1$_wrap_func_t_refqty_get 0000000180033698     funcs.obj
 0002:0000f6a8       $chain$0$_wrap_func_t_referers_get 00000001800336a8     funcs.obj
 0002:0000f6bc       $chain$1$_wrap_func_t_referers_get 00000001800336bc     funcs.obj
 0002:0000f6cc       $unwind$_wrap_new_func_t   00000001800336cc     funcs.obj
 0002:0000f6f4       $tryMap$_wrap_new_func_t   00000001800336f4     funcs.obj
 0002:0000f708       $handlerMap$0$_wrap_new_func_t 0000000180033708     funcs.obj
 0002:0000f780       $ip2state$_wrap_new_func_t 0000000180033780     funcs.obj
 0002:0000f7a8       $unwind$_wrap_new_func_t$catch$3 00000001800337a8     funcs.obj
 0002:0000f7a8       $unwind$_wrap_new_func_t$catch$6 00000001800337a8     funcs.obj
 0002:0000f7a8       $unwind$_wrap_new_func_t$catch$4 00000001800337a8     funcs.obj
 0002:0000f7a8       $unwind$_wrap_new_func_t$catch$2 00000001800337a8     funcs.obj
 0002:0000f7a8       $unwind$_wrap_new_func_t$catch$5 00000001800337a8     funcs.obj
 0002:0000f7a8       $unwind$_wrap_new_func_t$catch$1 00000001800337a8     funcs.obj
 0002:0000f7b8       $unwind$_wrap_func_t___get_points__ 00000001800337b8     funcs.obj
 0002:0000f7d4       $stateUnwindMap$_wrap_func_t___get_points__ 00000001800337d4     funcs.obj
 0002:0000f7d4       $stateUnwindMap$_wrap_func_t___get_tails__ 00000001800337d4     funcs.obj
 0002:0000f7ec       $tryMap$_wrap_func_t___get_points__ 00000001800337ec     funcs.obj
 0002:0000f800       $handlerMap$0$_wrap_func_t___get_points__ 0000000180033800     funcs.obj
 0002:0000f878       $ip2state$_wrap_func_t___get_points__ 0000000180033878     funcs.obj
 0002:0000f8a8       $unwind$_wrap_func_t___get_points__$catch$10 00000001800338a8     funcs.obj
 0002:0000f8a8       $unwind$_wrap_func_t___get_points__$catch$9 00000001800338a8     funcs.obj
 0002:0000f8a8       $unwind$_wrap_func_t___get_points__$catch$6 00000001800338a8     funcs.obj
 0002:0000f8a8       $unwind$_wrap_func_t___get_points__$catch$5 00000001800338a8     funcs.obj
 0002:0000f8a8       $unwind$_wrap_func_t___get_points__$catch$7 00000001800338a8     funcs.obj
 0002:0000f8a8       $unwind$_wrap_func_t___get_points__$catch$8 00000001800338a8     funcs.obj
 0002:0000f8b8       $unwind$_wrap_func_t___get_regvars__ 00000001800338b8     funcs.obj
 0002:0000f8d4       $stateUnwindMap$_wrap_func_t___get_regvars__ 00000001800338d4     funcs.obj
 0002:0000f8ec       $tryMap$_wrap_func_t___get_regvars__ 00000001800338ec     funcs.obj
 0002:0000f900       $handlerMap$0$_wrap_func_t___get_regvars__ 0000000180033900     funcs.obj
 0002:0000f978       $ip2state$_wrap_func_t___get_regvars__ 0000000180033978     funcs.obj
 0002:0000f9a8       $unwind$_wrap_func_t___get_regvars__$catch$7 00000001800339a8     funcs.obj
 0002:0000f9a8       $unwind$_wrap_func_t___get_regvars__$catch$8 00000001800339a8     funcs.obj
 0002:0000f9a8       $unwind$_wrap_func_t___get_regvars__$catch$9 00000001800339a8     funcs.obj
 0002:0000f9a8       $unwind$_wrap_func_t___get_regvars__$catch$10 00000001800339a8     funcs.obj
 0002:0000f9a8       $unwind$_wrap_func_t___get_regvars__$catch$5 00000001800339a8     funcs.obj
 0002:0000f9a8       $unwind$_wrap_func_t___get_regvars__$catch$6 00000001800339a8     funcs.obj
 0002:0000f9b8       $unwind$_wrap_func_t___get_tails__ 00000001800339b8     funcs.obj
 0002:0000f9d4       $tryMap$_wrap_func_t___get_tails__ 00000001800339d4     funcs.obj
 0002:0000f9e8       $handlerMap$0$_wrap_func_t___get_tails__ 00000001800339e8     funcs.obj
 0002:0000fa60       $ip2state$_wrap_func_t___get_tails__ 0000000180033a60     funcs.obj
 0002:0000fa90       $unwind$_wrap_func_t___get_tails__$catch$5 0000000180033a90     funcs.obj
 0002:0000fa90       $unwind$_wrap_func_t___get_tails__$catch$8 0000000180033a90     funcs.obj
 0002:0000fa90       $unwind$_wrap_func_t___get_tails__$catch$10 0000000180033a90     funcs.obj
 0002:0000fa90       $unwind$_wrap_func_t___get_tails__$catch$6 0000000180033a90     funcs.obj
 0002:0000fa90       $unwind$_wrap_func_t___get_tails__$catch$7 0000000180033a90     funcs.obj
 0002:0000fa90       $unwind$_wrap_func_t___get_tails__$catch$9 0000000180033a90     funcs.obj
 0002:0000faa0       $unwind$_wrap_delete_func_t 0000000180033aa0     funcs.obj
 0002:0000fabc       $tryMap$_wrap_delete_func_t 0000000180033abc     funcs.obj
 0002:0000fad0       $handlerMap$0$_wrap_delete_func_t 0000000180033ad0     funcs.obj
 0002:0000fb48       $ip2state$_wrap_delete_func_t 0000000180033b48     funcs.obj
 0002:0000fb68       $unwind$_wrap_delete_func_t$catch$3 0000000180033b68     funcs.obj
 0002:0000fb68       $unwind$_wrap_delete_func_t$catch$5 0000000180033b68     funcs.obj
 0002:0000fb68       $unwind$_wrap_delete_func_t$catch$4 0000000180033b68     funcs.obj
 0002:0000fb68       $unwind$_wrap_delete_func_t$catch$0 0000000180033b68     funcs.obj
 0002:0000fb68       $unwind$_wrap_delete_func_t$catch$2 0000000180033b68     funcs.obj
 0002:0000fb68       $unwind$_wrap_delete_func_t$catch$1 0000000180033b68     funcs.obj
 0002:0000fb78       $unwind$_wrap_is_func_entry 0000000180033b78     funcs.obj
 0002:0000fb98       $tryMap$_wrap_is_func_entry 0000000180033b98     funcs.obj
 0002:0000fbac       $handlerMap$0$_wrap_is_func_entry 0000000180033bac     funcs.obj
 0002:0000fc28       $ip2state$_wrap_is_func_entry 0000000180033c28     funcs.obj
 0002:0000fc48       $unwind$_wrap_is_func_entry$catch$3 0000000180033c48     funcs.obj
 0002:0000fc48       $unwind$_wrap_is_func_entry$catch$1 0000000180033c48     funcs.obj
 0002:0000fc48       $unwind$_wrap_is_func_entry$catch$5 0000000180033c48     funcs.obj
 0002:0000fc48       $unwind$_wrap_is_func_entry$catch$0 0000000180033c48     funcs.obj
 0002:0000fc48       $unwind$_wrap_is_func_entry$catch$2 0000000180033c48     funcs.obj
 0002:0000fc48       $unwind$_wrap_is_func_entry$catch$4 0000000180033c48     funcs.obj
 0002:0000fc58       $unwind$_wrap_is_func_tail 0000000180033c58     funcs.obj
 0002:0000fc78       $tryMap$_wrap_is_func_tail 0000000180033c78     funcs.obj
 0002:0000fc8c       $handlerMap$0$_wrap_is_func_tail 0000000180033c8c     funcs.obj
 0002:0000fd08       $ip2state$_wrap_is_func_tail 0000000180033d08     funcs.obj
 0002:0000fd28       $unwind$_wrap_is_func_tail$catch$2 0000000180033d28     funcs.obj
 0002:0000fd28       $unwind$_wrap_is_func_tail$catch$3 0000000180033d28     funcs.obj
 0002:0000fd28       $unwind$_wrap_is_func_tail$catch$5 0000000180033d28     funcs.obj
 0002:0000fd28       $unwind$_wrap_is_func_tail$catch$1 0000000180033d28     funcs.obj
 0002:0000fd28       $unwind$_wrap_is_func_tail$catch$0 0000000180033d28     funcs.obj
 0002:0000fd28       $unwind$_wrap_is_func_tail$catch$4 0000000180033d28     funcs.obj
 0002:0000fd38       $unwind$_wrap_lock_func_range 0000000180033d38     funcs.obj
 0002:0000fd54       $tryMap$_wrap_lock_func_range 0000000180033d54     funcs.obj
 0002:0000fd68       $handlerMap$0$_wrap_lock_func_range 0000000180033d68     funcs.obj
 0002:0000fde0       $ip2state$_wrap_lock_func_range 0000000180033de0     funcs.obj
 0002:0000fe00       $unwind$_wrap_lock_func_range$catch$1 0000000180033e00     funcs.obj
 0002:0000fe00       $unwind$_wrap_lock_func_range$catch$3 0000000180033e00     funcs.obj
 0002:0000fe00       $unwind$_wrap_lock_func_range$catch$0 0000000180033e00     funcs.obj
 0002:0000fe00       $unwind$_wrap_lock_func_range$catch$4 0000000180033e00     funcs.obj
 0002:0000fe00       $unwind$_wrap_lock_func_range$catch$5 0000000180033e00     funcs.obj
 0002:0000fe00       $unwind$_wrap_lock_func_range$catch$2 0000000180033e00     funcs.obj
 0002:0000fe10       $unwind$_wrap_new_lock_func 0000000180033e10     funcs.obj
 0002:0000fe2c       $tryMap$_wrap_new_lock_func 0000000180033e2c     funcs.obj
 0002:0000fe40       $handlerMap$0$_wrap_new_lock_func 0000000180033e40     funcs.obj
 0002:0000feb8       $ip2state$_wrap_new_lock_func 0000000180033eb8     funcs.obj
 0002:0000fee0       $unwind$_wrap_new_lock_func$catch$3 0000000180033ee0     funcs.obj
 0002:0000fee0       $unwind$_wrap_new_lock_func$catch$2 0000000180033ee0     funcs.obj
 0002:0000fee0       $unwind$_wrap_new_lock_func$catch$1 0000000180033ee0     funcs.obj
 0002:0000fee0       $unwind$_wrap_new_lock_func$catch$6 0000000180033ee0     funcs.obj
 0002:0000fee0       $unwind$_wrap_new_lock_func$catch$4 0000000180033ee0     funcs.obj
 0002:0000fee0       $unwind$_wrap_new_lock_func$catch$5 0000000180033ee0     funcs.obj
 0002:0000fef0       $unwind$_wrap_delete_lock_func 0000000180033ef0     funcs.obj
 0002:0000ff0c       $tryMap$_wrap_delete_lock_func 0000000180033f0c     funcs.obj
 0002:0000ff20       $handlerMap$0$_wrap_delete_lock_func 0000000180033f20     funcs.obj
 0002:0000ff98       $ip2state$_wrap_delete_lock_func 0000000180033f98     funcs.obj
 0002:0000ffb8       $unwind$_wrap_delete_lock_func$catch$2 0000000180033fb8     funcs.obj
 0002:0000ffb8       $unwind$_wrap_delete_lock_func$catch$3 0000000180033fb8     funcs.obj
 0002:0000ffb8       $unwind$_wrap_delete_lock_func$catch$1 0000000180033fb8     funcs.obj
 0002:0000ffb8       $unwind$_wrap_delete_lock_func$catch$4 0000000180033fb8     funcs.obj
 0002:0000ffb8       $unwind$_wrap_delete_lock_func$catch$0 0000000180033fb8     funcs.obj
 0002:0000ffb8       $unwind$_wrap_delete_lock_func$catch$5 0000000180033fb8     funcs.obj
 0002:0000ffc8       $unwind$_wrap_is_func_locked 0000000180033fc8     funcs.obj
 0002:0000ffe8       $tryMap$_wrap_is_func_locked 0000000180033fe8     funcs.obj
 0002:0000fffc       $handlerMap$0$_wrap_is_func_locked 0000000180033ffc     funcs.obj
 0002:00010078       $ip2state$_wrap_is_func_locked 0000000180034078     funcs.obj
 0002:00010098       $unwind$_wrap_is_func_locked$catch$1 0000000180034098     funcs.obj
 0002:00010098       $unwind$_wrap_is_func_locked$catch$5 0000000180034098     funcs.obj
 0002:00010098       $unwind$_wrap_is_func_locked$catch$3 0000000180034098     funcs.obj
 0002:00010098       $unwind$_wrap_is_func_locked$catch$2 0000000180034098     funcs.obj
 0002:00010098       $unwind$_wrap_is_func_locked$catch$0 0000000180034098     funcs.obj
 0002:00010098       $unwind$_wrap_is_func_locked$catch$4 0000000180034098     funcs.obj
 0002:000100a8       $unwind$_wrap_get_func     00000001800340a8     funcs.obj
 0002:000100bc       $tryMap$_wrap_get_func     00000001800340bc     funcs.obj
 0002:000100d0       $handlerMap$0$_wrap_get_func 00000001800340d0     funcs.obj
 0002:00010148       $ip2state$_wrap_get_func   0000000180034148     funcs.obj
 0002:00010160       $unwind$_wrap_get_func$catch$4 0000000180034160     funcs.obj
 0002:00010160       $unwind$_wrap_get_func$catch$2 0000000180034160     funcs.obj
 0002:00010160       $unwind$_wrap_get_func$catch$1 0000000180034160     funcs.obj
 0002:00010160       $unwind$_wrap_get_func$catch$0 0000000180034160     funcs.obj
 0002:00010160       $unwind$_wrap_get_func$catch$5 0000000180034160     funcs.obj
 0002:00010160       $unwind$_wrap_get_func$catch$3 0000000180034160     funcs.obj
 0002:00010170       $unwind$_wrap_get_func_chunknum 0000000180034170     funcs.obj
 0002:0001018c       $tryMap$_wrap_get_func_chunknum 000000018003418c     funcs.obj
 0002:000101a0       $handlerMap$0$_wrap_get_func_chunknum 00000001800341a0     funcs.obj
 0002:00010218       $ip2state$_wrap_get_func_chunknum 0000000180034218     funcs.obj
 0002:00010238       $unwind$_wrap_get_func_chunknum$catch$3 0000000180034238     funcs.obj
 0002:00010238       $unwind$_wrap_get_func_chunknum$catch$5 0000000180034238     funcs.obj
 0002:00010238       $unwind$_wrap_get_func_chunknum$catch$2 0000000180034238     funcs.obj
 0002:00010238       $unwind$_wrap_get_func_chunknum$catch$1 0000000180034238     funcs.obj
 0002:00010238       $unwind$_wrap_get_func_chunknum$catch$0 0000000180034238     funcs.obj
 0002:00010238       $unwind$_wrap_get_func_chunknum$catch$4 0000000180034238     funcs.obj
 0002:00010248       $unwind$_wrap_func_contains 0000000180034248     funcs.obj
 0002:00010264       $tryMap$_wrap_func_contains 0000000180034264     funcs.obj
 0002:00010278       $handlerMap$0$_wrap_func_contains 0000000180034278     funcs.obj
 0002:000102f0       $ip2state$_wrap_func_contains 00000001800342f0     funcs.obj
 0002:00010310       $unwind$_wrap_func_contains$catch$0 0000000180034310     funcs.obj
 0002:00010310       $unwind$_wrap_func_contains$catch$1 0000000180034310     funcs.obj
 0002:00010310       $unwind$_wrap_func_contains$catch$2 0000000180034310     funcs.obj
 0002:00010310       $unwind$_wrap_func_contains$catch$3 0000000180034310     funcs.obj
 0002:00010310       $unwind$_wrap_func_contains$catch$4 0000000180034310     funcs.obj
 0002:00010310       $unwind$_wrap_func_contains$catch$5 0000000180034310     funcs.obj
 0002:00010320       $unwind$_wrap_is_same_func 0000000180034320     funcs.obj
 0002:00010334       $tryMap$_wrap_is_same_func 0000000180034334     funcs.obj
 0002:00010348       $handlerMap$0$_wrap_is_same_func 0000000180034348     funcs.obj
 0002:000103c0       $ip2state$_wrap_is_same_func 00000001800343c0     funcs.obj
 0002:000103d8       $unwind$_wrap_is_same_func$catch$0 00000001800343d8     funcs.obj
 0002:000103d8       $unwind$_wrap_is_same_func$catch$5 00000001800343d8     funcs.obj
 0002:000103d8       $unwind$_wrap_is_same_func$catch$2 00000001800343d8     funcs.obj
 0002:000103d8       $unwind$_wrap_is_same_func$catch$4 00000001800343d8     funcs.obj
 0002:000103d8       $unwind$_wrap_is_same_func$catch$3 00000001800343d8     funcs.obj
 0002:000103d8       $unwind$_wrap_is_same_func$catch$1 00000001800343d8     funcs.obj
 0002:000103e8       $unwind$_wrap_getn_func    00000001800343e8     funcs.obj
 0002:000103fc       $tryMap$_wrap_getn_func    00000001800343fc     funcs.obj
 0002:00010410       $handlerMap$0$_wrap_getn_func 0000000180034410     funcs.obj
 0002:00010488       $ip2state$_wrap_getn_func  0000000180034488     funcs.obj
 0002:000104a0       $unwind$_wrap_getn_func$catch$2 00000001800344a0     funcs.obj
 0002:000104a0       $unwind$_wrap_getn_func$catch$5 00000001800344a0     funcs.obj
 0002:000104a0       $unwind$_wrap_getn_func$catch$1 00000001800344a0     funcs.obj
 0002:000104a0       $unwind$_wrap_getn_func$catch$4 00000001800344a0     funcs.obj
 0002:000104a0       $unwind$_wrap_getn_func$catch$3 00000001800344a0     funcs.obj
 0002:000104a0       $unwind$_wrap_getn_func$catch$0 00000001800344a0     funcs.obj
 0002:000104b0       $unwind$_wrap_get_func_qty 00000001800344b0     funcs.obj
 0002:000104c0       $tryMap$_wrap_get_func_qty 00000001800344c0     funcs.obj
 0002:000104d4       $handlerMap$0$_wrap_get_func_qty 00000001800344d4     funcs.obj
 0002:00010550       $ip2state$_wrap_get_func_qty 0000000180034550     funcs.obj
 0002:00010568       $unwind$_wrap_get_func_qty$catch$1 0000000180034568     funcs.obj
 0002:00010568       $unwind$_wrap_get_func_qty$catch$5 0000000180034568     funcs.obj
 0002:00010568       $unwind$_wrap_get_func_qty$catch$4 0000000180034568     funcs.obj
 0002:00010568       $unwind$_wrap_get_func_qty$catch$3 0000000180034568     funcs.obj
 0002:00010568       $unwind$_wrap_get_func_qty$catch$2 0000000180034568     funcs.obj
 0002:00010568       $unwind$_wrap_get_func_qty$catch$0 0000000180034568     funcs.obj
 0002:00010578       $unwind$_wrap_get_func_num 0000000180034578     funcs.obj
 0002:0001058c       $tryMap$_wrap_get_func_num 000000018003458c     funcs.obj
 0002:000105a0       $handlerMap$0$_wrap_get_func_num 00000001800345a0     funcs.obj
 0002:00010618       $ip2state$_wrap_get_func_num 0000000180034618     funcs.obj
 0002:00010630       $unwind$_wrap_get_func_num$catch$5 0000000180034630     funcs.obj
 0002:00010630       $unwind$_wrap_get_func_num$catch$4 0000000180034630     funcs.obj
 0002:00010630       $unwind$_wrap_get_func_num$catch$3 0000000180034630     funcs.obj
 0002:00010630       $unwind$_wrap_get_func_num$catch$2 0000000180034630     funcs.obj
 0002:00010630       $unwind$_wrap_get_func_num$catch$1 0000000180034630     funcs.obj
 0002:00010630       $unwind$_wrap_get_func_num$catch$0 0000000180034630     funcs.obj
 0002:00010640       $unwind$_wrap_get_prev_func 0000000180034640     funcs.obj
 0002:00010654       $tryMap$_wrap_get_prev_func 0000000180034654     funcs.obj
 0002:00010668       $handlerMap$0$_wrap_get_prev_func 0000000180034668     funcs.obj
 0002:000106e0       $ip2state$_wrap_get_prev_func 00000001800346e0     funcs.obj
 0002:000106f8       $unwind$_wrap_get_prev_func$catch$2 00000001800346f8     funcs.obj
 0002:000106f8       $unwind$_wrap_get_prev_func$catch$0 00000001800346f8     funcs.obj
 0002:000106f8       $unwind$_wrap_get_prev_func$catch$3 00000001800346f8     funcs.obj
 0002:000106f8       $unwind$_wrap_get_prev_func$catch$5 00000001800346f8     funcs.obj
 0002:000106f8       $unwind$_wrap_get_prev_func$catch$4 00000001800346f8     funcs.obj
 0002:000106f8       $unwind$_wrap_get_prev_func$catch$1 00000001800346f8     funcs.obj
 0002:00010708       $unwind$_wrap_get_next_func 0000000180034708     funcs.obj
 0002:0001071c       $tryMap$_wrap_get_next_func 000000018003471c     funcs.obj
 0002:00010730       $handlerMap$0$_wrap_get_next_func 0000000180034730     funcs.obj
 0002:000107a8       $ip2state$_wrap_get_next_func 00000001800347a8     funcs.obj
 0002:000107c0       $unwind$_wrap_get_next_func$catch$3 00000001800347c0     funcs.obj
 0002:000107c0       $unwind$_wrap_get_next_func$catch$4 00000001800347c0     funcs.obj
 0002:000107c0       $unwind$_wrap_get_next_func$catch$5 00000001800347c0     funcs.obj
 0002:000107c0       $unwind$_wrap_get_next_func$catch$2 00000001800347c0     funcs.obj
 0002:000107c0       $unwind$_wrap_get_next_func$catch$0 00000001800347c0     funcs.obj
 0002:000107c0       $unwind$_wrap_get_next_func$catch$1 00000001800347c0     funcs.obj
 0002:000107d0       $unwind$_wrap_get_func_ranges 00000001800347d0     funcs.obj
 0002:000107f0       $tryMap$_wrap_get_func_ranges 00000001800347f0     funcs.obj
 0002:00010804       $handlerMap$0$_wrap_get_func_ranges 0000000180034804     funcs.obj
 0002:00010880       $ip2state$_wrap_get_func_ranges 0000000180034880     funcs.obj
 0002:000108a8       $unwind$_wrap_get_func_ranges$catch$2 00000001800348a8     funcs.obj
 0002:000108a8       $unwind$_wrap_get_func_ranges$catch$1 00000001800348a8     funcs.obj
 0002:000108a8       $unwind$_wrap_get_func_ranges$catch$0 00000001800348a8     funcs.obj
 0002:000108a8       $unwind$_wrap_get_func_ranges$catch$5 00000001800348a8     funcs.obj
 0002:000108a8       $unwind$_wrap_get_func_ranges$catch$3 00000001800348a8     funcs.obj
 0002:000108a8       $unwind$_wrap_get_func_ranges$catch$4 00000001800348a8     funcs.obj
 0002:000108b8       $unwind$_wrap_get_func_cmt 00000001800348b8     funcs.obj
 0002:000108dc       $stateUnwindMap$_wrap_get_func_cmt 00000001800348dc     funcs.obj
 0002:000108f4       $tryMap$_wrap_get_func_cmt 00000001800348f4     funcs.obj
 0002:00010908       $handlerMap$0$_wrap_get_func_cmt 0000000180034908     funcs.obj
 0002:00010980       $ip2state$_wrap_get_func_cmt 0000000180034980     funcs.obj
 0002:000109a0       $unwind$_wrap_get_func_cmt$catch$3 00000001800349a0     funcs.obj
 0002:000109a0       $unwind$_wrap_get_func_cmt$catch$6 00000001800349a0     funcs.obj
 0002:000109a0       $unwind$_wrap_get_func_cmt$catch$7 00000001800349a0     funcs.obj
 0002:000109a0       $unwind$_wrap_get_func_cmt$catch$8 00000001800349a0     funcs.obj
 0002:000109a0       $unwind$_wrap_get_func_cmt$catch$4 00000001800349a0     funcs.obj
 0002:000109a0       $unwind$_wrap_get_func_cmt$catch$5 00000001800349a0     funcs.obj
 0002:000109b0       $unwind$_wrap_set_func_cmt 00000001800349b0     funcs.obj
 0002:000109d8       $tryMap$_wrap_set_func_cmt 00000001800349d8     funcs.obj
 0002:000109ec       $handlerMap$0$_wrap_set_func_cmt 00000001800349ec     funcs.obj
 0002:00010a68       $ip2state$_wrap_set_func_cmt 0000000180034a68     funcs.obj
 0002:00010a90       $unwind$_wrap_set_func_cmt$catch$4 0000000180034a90     funcs.obj
 0002:00010a90       $unwind$_wrap_set_func_cmt$catch$3 0000000180034a90     funcs.obj
 0002:00010a90       $unwind$_wrap_set_func_cmt$catch$2 0000000180034a90     funcs.obj
 0002:00010a90       $unwind$_wrap_set_func_cmt$catch$1 0000000180034a90     funcs.obj
 0002:00010a90       $unwind$_wrap_set_func_cmt$catch$5 0000000180034a90     funcs.obj
 0002:00010a90       $unwind$_wrap_set_func_cmt$catch$0 0000000180034a90     funcs.obj
 0002:00010aa0       $unwind$_wrap_update_func  0000000180034aa0     funcs.obj
 0002:00010ac0       $tryMap$_wrap_update_func  0000000180034ac0     funcs.obj
 0002:00010ad4       $handlerMap$0$_wrap_update_func 0000000180034ad4     funcs.obj
 0002:00010b50       $ip2state$_wrap_update_func 0000000180034b50     funcs.obj
 0002:00010b70       $unwind$_wrap_update_func$catch$5 0000000180034b70     funcs.obj
 0002:00010b70       $unwind$_wrap_update_func$catch$1 0000000180034b70     funcs.obj
 0002:00010b70       $unwind$_wrap_update_func$catch$2 0000000180034b70     funcs.obj
 0002:00010b70       $unwind$_wrap_update_func$catch$3 0000000180034b70     funcs.obj
 0002:00010b70       $unwind$_wrap_update_func$catch$0 0000000180034b70     funcs.obj
 0002:00010b70       $unwind$_wrap_update_func$catch$4 0000000180034b70     funcs.obj
 0002:00010b80       $unwind$_wrap_add_func_ex  0000000180034b80     funcs.obj
 0002:00010ba0       $tryMap$_wrap_add_func_ex  0000000180034ba0     funcs.obj
 0002:00010bb4       $handlerMap$0$_wrap_add_func_ex 0000000180034bb4     funcs.obj
 0002:00010c30       $ip2state$_wrap_add_func_ex 0000000180034c30     funcs.obj
 0002:00010c50       $unwind$_wrap_add_func_ex$catch$5 0000000180034c50     funcs.obj
 0002:00010c50       $unwind$_wrap_add_func_ex$catch$4 0000000180034c50     funcs.obj
 0002:00010c50       $unwind$_wrap_add_func_ex$catch$3 0000000180034c50     funcs.obj
 0002:00010c50       $unwind$_wrap_add_func_ex$catch$2 0000000180034c50     funcs.obj
 0002:00010c50       $unwind$_wrap_add_func_ex$catch$1 0000000180034c50     funcs.obj
 0002:00010c50       $unwind$_wrap_add_func_ex$catch$0 0000000180034c50     funcs.obj
 0002:00010c60       $unwind$_wrap_add_func     0000000180034c60     funcs.obj
 0002:00010c78       $tryMap$_wrap_add_func     0000000180034c78     funcs.obj
 0002:00010c8c       $handlerMap$0$_wrap_add_func 0000000180034c8c     funcs.obj
 0002:00010d08       $ip2state$_wrap_add_func   0000000180034d08     funcs.obj
 0002:00010d20       $unwind$_wrap_add_func$catch$1 0000000180034d20     funcs.obj
 0002:00010d20       $unwind$_wrap_add_func$catch$0 0000000180034d20     funcs.obj
 0002:00010d20       $unwind$_wrap_add_func$catch$5 0000000180034d20     funcs.obj
 0002:00010d20       $unwind$_wrap_add_func$catch$4 0000000180034d20     funcs.obj
 0002:00010d20       $unwind$_wrap_add_func$catch$2 0000000180034d20     funcs.obj
 0002:00010d20       $unwind$_wrap_add_func$catch$3 0000000180034d20     funcs.obj
 0002:00010d30       $unwind$_wrap_del_func     0000000180034d30     funcs.obj
 0002:00010d44       $tryMap$_wrap_del_func     0000000180034d44     funcs.obj
 0002:00010d58       $handlerMap$0$_wrap_del_func 0000000180034d58     funcs.obj
 0002:00010dd0       $ip2state$_wrap_del_func   0000000180034dd0     funcs.obj
 0002:00010de8       $unwind$_wrap_del_func$catch$0 0000000180034de8     funcs.obj
 0002:00010de8       $unwind$_wrap_del_func$catch$2 0000000180034de8     funcs.obj
 0002:00010de8       $unwind$_wrap_del_func$catch$3 0000000180034de8     funcs.obj
 0002:00010de8       $unwind$_wrap_del_func$catch$4 0000000180034de8     funcs.obj
 0002:00010de8       $unwind$_wrap_del_func$catch$5 0000000180034de8     funcs.obj
 0002:00010de8       $unwind$_wrap_del_func$catch$1 0000000180034de8     funcs.obj
 0002:00010df8       $unwind$_wrap_set_func_start 0000000180034df8     funcs.obj
 0002:00010e0c       $tryMap$_wrap_set_func_start 0000000180034e0c     funcs.obj
 0002:00010e20       $handlerMap$0$_wrap_set_func_start 0000000180034e20     funcs.obj
 0002:00010e98       $ip2state$_wrap_set_func_start 0000000180034e98     funcs.obj
 0002:00010eb0       $unwind$_wrap_set_func_start$catch$2 0000000180034eb0     funcs.obj
 0002:00010eb0       $unwind$_wrap_set_func_start$catch$1 0000000180034eb0     funcs.obj
 0002:00010eb0       $unwind$_wrap_set_func_start$catch$3 0000000180034eb0     funcs.obj
 0002:00010eb0       $unwind$_wrap_set_func_start$catch$0 0000000180034eb0     funcs.obj
 0002:00010eb0       $unwind$_wrap_set_func_start$catch$4 0000000180034eb0     funcs.obj
 0002:00010eb0       $unwind$_wrap_set_func_start$catch$5 0000000180034eb0     funcs.obj
 0002:00010ec0       $unwind$_wrap_set_func_end 0000000180034ec0     funcs.obj
 0002:00010ed4       $tryMap$_wrap_set_func_end 0000000180034ed4     funcs.obj
 0002:00010ee8       $handlerMap$0$_wrap_set_func_end 0000000180034ee8     funcs.obj
 0002:00010f60       $ip2state$_wrap_set_func_end 0000000180034f60     funcs.obj
 0002:00010f78       $unwind$_wrap_set_func_end$catch$1 0000000180034f78     funcs.obj
 0002:00010f78       $unwind$_wrap_set_func_end$catch$0 0000000180034f78     funcs.obj
 0002:00010f78       $unwind$_wrap_set_func_end$catch$3 0000000180034f78     funcs.obj
 0002:00010f78       $unwind$_wrap_set_func_end$catch$5 0000000180034f78     funcs.obj
 0002:00010f78       $unwind$_wrap_set_func_end$catch$4 0000000180034f78     funcs.obj
 0002:00010f78       $unwind$_wrap_set_func_end$catch$2 0000000180034f78     funcs.obj
 0002:00010f88       $unwind$_wrap_reanalyze_function 0000000180034f88     funcs.obj
 0002:00010fb0       $tryMap$_wrap_reanalyze_function 0000000180034fb0     funcs.obj
 0002:00010fc4       $handlerMap$0$_wrap_reanalyze_function 0000000180034fc4     funcs.obj
 0002:00011040       $ip2state$_wrap_reanalyze_function 0000000180035040     funcs.obj
 0002:00011060       $unwind$_wrap_reanalyze_function$catch$1 0000000180035060     funcs.obj
 0002:00011060       $unwind$_wrap_reanalyze_function$catch$5 0000000180035060     funcs.obj
 0002:00011060       $unwind$_wrap_reanalyze_function$catch$3 0000000180035060     funcs.obj
 0002:00011060       $unwind$_wrap_reanalyze_function$catch$4 0000000180035060     funcs.obj
 0002:00011060       $unwind$_wrap_reanalyze_function$catch$0 0000000180035060     funcs.obj
 0002:00011060       $unwind$_wrap_reanalyze_function$catch$2 0000000180035060     funcs.obj
 0002:00011070       $unwind$_wrap_find_func_bounds 0000000180035070     funcs.obj
 0002:0001108c       $tryMap$_wrap_find_func_bounds 000000018003508c     funcs.obj
 0002:000110a0       $handlerMap$0$_wrap_find_func_bounds 00000001800350a0     funcs.obj
 0002:00011118       $ip2state$_wrap_find_func_bounds 0000000180035118     funcs.obj
 0002:00011138       $unwind$_wrap_find_func_bounds$catch$5 0000000180035138     funcs.obj
 0002:00011138       $unwind$_wrap_find_func_bounds$catch$2 0000000180035138     funcs.obj
 0002:00011138       $unwind$_wrap_find_func_bounds$catch$1 0000000180035138     funcs.obj
 0002:00011138       $unwind$_wrap_find_func_bounds$catch$0 0000000180035138     funcs.obj
 0002:00011138       $unwind$_wrap_find_func_bounds$catch$3 0000000180035138     funcs.obj
 0002:00011138       $unwind$_wrap_find_func_bounds$catch$4 0000000180035138     funcs.obj
 0002:00011148       $unwind$_wrap_get_func_name 0000000180035148     funcs.obj
 0002:0001115c       $stateUnwindMap$_wrap_get_func_name 000000018003515c     funcs.obj
 0002:00011174       $tryMap$_wrap_get_func_name 0000000180035174     funcs.obj
 0002:00011188       $handlerMap$0$_wrap_get_func_name 0000000180035188     funcs.obj
 0002:00011200       $ip2state$_wrap_get_func_name 0000000180035200     funcs.obj
 0002:00011218       $unwind$_wrap_get_func_name$catch$8 0000000180035218     funcs.obj
 0002:00011218       $unwind$_wrap_get_func_name$catch$7 0000000180035218     funcs.obj
 0002:00011218       $unwind$_wrap_get_func_name$catch$6 0000000180035218     funcs.obj
 0002:00011218       $unwind$_wrap_get_func_name$catch$5 0000000180035218     funcs.obj
 0002:00011218       $unwind$_wrap_get_func_name$catch$4 0000000180035218     funcs.obj
 0002:00011218       $unwind$_wrap_get_func_name$catch$3 0000000180035218     funcs.obj
 0002:00011228       $unwind$_wrap_calc_func_size 0000000180035228     funcs.obj
 0002:00011244       $tryMap$_wrap_calc_func_size 0000000180035244     funcs.obj
 0002:00011258       $handlerMap$0$_wrap_calc_func_size 0000000180035258     funcs.obj
 0002:000112d0       $ip2state$_wrap_calc_func_size 00000001800352d0     funcs.obj
 0002:000112f0       $unwind$_wrap_calc_func_size$catch$4 00000001800352f0     funcs.obj
 0002:000112f0       $unwind$_wrap_calc_func_size$catch$1 00000001800352f0     funcs.obj
 0002:000112f0       $unwind$_wrap_calc_func_size$catch$3 00000001800352f0     funcs.obj
 0002:000112f0       $unwind$_wrap_calc_func_size$catch$2 00000001800352f0     funcs.obj
 0002:000112f0       $unwind$_wrap_calc_func_size$catch$5 00000001800352f0     funcs.obj
 0002:000112f0       $unwind$_wrap_calc_func_size$catch$0 00000001800352f0     funcs.obj
 0002:00011300       $unwind$_wrap_get_func_bitness 0000000180035300     funcs.obj
 0002:0001131c       $tryMap$_wrap_get_func_bitness 000000018003531c     funcs.obj
 0002:00011330       $handlerMap$0$_wrap_get_func_bitness 0000000180035330     funcs.obj
 0002:000113a8       $ip2state$_wrap_get_func_bitness 00000001800353a8     funcs.obj
 0002:000113c8       $unwind$_wrap_get_func_bitness$catch$1 00000001800353c8     funcs.obj
 0002:000113c8       $unwind$_wrap_get_func_bitness$catch$3 00000001800353c8     funcs.obj
 0002:000113c8       $unwind$_wrap_get_func_bitness$catch$0 00000001800353c8     funcs.obj
 0002:000113c8       $unwind$_wrap_get_func_bitness$catch$4 00000001800353c8     funcs.obj
 0002:000113c8       $unwind$_wrap_get_func_bitness$catch$2 00000001800353c8     funcs.obj
 0002:000113c8       $unwind$_wrap_get_func_bitness$catch$5 00000001800353c8     funcs.obj
 0002:000113d8       $unwind$_wrap_get_func_bits 00000001800353d8     funcs.obj
 0002:000113f4       $tryMap$_wrap_get_func_bits 00000001800353f4     funcs.obj
 0002:00011408       $handlerMap$0$_wrap_get_func_bits 0000000180035408     funcs.obj
 0002:00011480       $ip2state$_wrap_get_func_bits 0000000180035480     funcs.obj
 0002:000114a0       $unwind$_wrap_get_func_bits$catch$4 00000001800354a0     funcs.obj
 0002:000114a0       $unwind$_wrap_get_func_bits$catch$5 00000001800354a0     funcs.obj
 0002:000114a0       $unwind$_wrap_get_func_bits$catch$2 00000001800354a0     funcs.obj
 0002:000114a0       $unwind$_wrap_get_func_bits$catch$0 00000001800354a0     funcs.obj
 0002:000114a0       $unwind$_wrap_get_func_bits$catch$1 00000001800354a0     funcs.obj
 0002:000114a0       $unwind$_wrap_get_func_bits$catch$3 00000001800354a0     funcs.obj
 0002:000114b0       $unwind$_wrap_get_func_bytes 00000001800354b0     funcs.obj
 0002:000114cc       $tryMap$_wrap_get_func_bytes 00000001800354cc     funcs.obj
 0002:000114e0       $handlerMap$0$_wrap_get_func_bytes 00000001800354e0     funcs.obj
 0002:00011558       $ip2state$_wrap_get_func_bytes 0000000180035558     funcs.obj
 0002:00011578       $unwind$_wrap_get_func_bytes$catch$3 0000000180035578     funcs.obj
 0002:00011578       $unwind$_wrap_get_func_bytes$catch$5 0000000180035578     funcs.obj
 0002:00011578       $unwind$_wrap_get_func_bytes$catch$2 0000000180035578     funcs.obj
 0002:00011578       $unwind$_wrap_get_func_bytes$catch$1 0000000180035578     funcs.obj
 0002:00011578       $unwind$_wrap_get_func_bytes$catch$0 0000000180035578     funcs.obj
 0002:00011578       $unwind$_wrap_get_func_bytes$catch$4 0000000180035578     funcs.obj
 0002:00011588       $unwind$_wrap_is_visible_func 0000000180035588     funcs.obj
 0002:000115a4       $tryMap$_wrap_is_visible_func 00000001800355a4     funcs.obj
 0002:000115b8       $handlerMap$0$_wrap_is_visible_func 00000001800355b8     funcs.obj
 0002:00011630       $ip2state$_wrap_is_visible_func 0000000180035630     funcs.obj
 0002:00011650       $unwind$_wrap_is_visible_func$catch$5 0000000180035650     funcs.obj
 0002:00011650       $unwind$_wrap_is_visible_func$catch$4 0000000180035650     funcs.obj
 0002:00011650       $unwind$_wrap_is_visible_func$catch$3 0000000180035650     funcs.obj
 0002:00011650       $unwind$_wrap_is_visible_func$catch$2 0000000180035650     funcs.obj
 0002:00011650       $unwind$_wrap_is_visible_func$catch$1 0000000180035650     funcs.obj
 0002:00011650       $unwind$_wrap_is_visible_func$catch$0 0000000180035650     funcs.obj
 0002:00011660       $unwind$_wrap_is_finally_visible_func 0000000180035660     funcs.obj
 0002:00011680       $tryMap$_wrap_is_finally_visible_func 0000000180035680     funcs.obj
 0002:00011694       $handlerMap$0$_wrap_is_finally_visible_func 0000000180035694     funcs.obj
 0002:00011710       $ip2state$_wrap_is_finally_visible_func 0000000180035710     funcs.obj
 0002:00011730       $unwind$_wrap_is_finally_visible_func$catch$5 0000000180035730     funcs.obj
 0002:00011730       $unwind$_wrap_is_finally_visible_func$catch$4 0000000180035730     funcs.obj
 0002:00011730       $unwind$_wrap_is_finally_visible_func$catch$3 0000000180035730     funcs.obj
 0002:00011730       $unwind$_wrap_is_finally_visible_func$catch$2 0000000180035730     funcs.obj
 0002:00011730       $unwind$_wrap_is_finally_visible_func$catch$1 0000000180035730     funcs.obj
 0002:00011730       $unwind$_wrap_is_finally_visible_func$catch$0 0000000180035730     funcs.obj
 0002:00011740       $unwind$_wrap_set_visible_func 0000000180035740     funcs.obj
 0002:0001175c       $tryMap$_wrap_set_visible_func 000000018003575c     funcs.obj
 0002:00011770       $handlerMap$0$_wrap_set_visible_func 0000000180035770     funcs.obj
 0002:000117e8       $ip2state$_wrap_set_visible_func 00000001800357e8     funcs.obj
 0002:00011808       $unwind$_wrap_set_visible_func$catch$5 0000000180035808     funcs.obj
 0002:00011808       $unwind$_wrap_set_visible_func$catch$4 0000000180035808     funcs.obj
 0002:00011808       $unwind$_wrap_set_visible_func$catch$3 0000000180035808     funcs.obj
 0002:00011808       $unwind$_wrap_set_visible_func$catch$2 0000000180035808     funcs.obj
 0002:00011808       $unwind$_wrap_set_visible_func$catch$1 0000000180035808     funcs.obj
 0002:00011808       $unwind$_wrap_set_visible_func$catch$0 0000000180035808     funcs.obj
 0002:00011818       $unwind$_wrap_set_func_name_if_jumpfunc 0000000180035818     funcs.obj
 0002:00011834       $tryMap$_wrap_set_func_name_if_jumpfunc 0000000180035834     funcs.obj
 0002:00011848       $handlerMap$0$_wrap_set_func_name_if_jumpfunc 0000000180035848     funcs.obj
 0002:000118c0       $ip2state$_wrap_set_func_name_if_jumpfunc 00000001800358c0     funcs.obj
 0002:000118e8       $unwind$_wrap_set_func_name_if_jumpfunc$catch$5 00000001800358e8     funcs.obj
 0002:000118e8       $unwind$_wrap_set_func_name_if_jumpfunc$catch$4 00000001800358e8     funcs.obj
 0002:000118e8       $unwind$_wrap_set_func_name_if_jumpfunc$catch$3 00000001800358e8     funcs.obj
 0002:000118e8       $unwind$_wrap_set_func_name_if_jumpfunc$catch$2 00000001800358e8     funcs.obj
 0002:000118e8       $unwind$_wrap_set_func_name_if_jumpfunc$catch$1 00000001800358e8     funcs.obj
 0002:000118e8       $unwind$_wrap_set_func_name_if_jumpfunc$catch$0 00000001800358e8     funcs.obj
 0002:000118f8       $unwind$_wrap_calc_thunk_func_target 00000001800358f8     funcs.obj
 0002:00011914       $tryMap$_wrap_calc_thunk_func_target 0000000180035914     funcs.obj
 0002:00011928       $handlerMap$0$_wrap_calc_thunk_func_target 0000000180035928     funcs.obj
 0002:000119a0       $ip2state$_wrap_calc_thunk_func_target 00000001800359a0     funcs.obj
 0002:000119c0       $unwind$_wrap_calc_thunk_func_target$catch$5 00000001800359c0     funcs.obj
 0002:000119c0       $unwind$_wrap_calc_thunk_func_target$catch$3 00000001800359c0     funcs.obj
 0002:000119c0       $unwind$_wrap_calc_thunk_func_target$catch$2 00000001800359c0     funcs.obj
 0002:000119c0       $unwind$_wrap_calc_thunk_func_target$catch$1 00000001800359c0     funcs.obj
 0002:000119c0       $unwind$_wrap_calc_thunk_func_target$catch$0 00000001800359c0     funcs.obj
 0002:000119c0       $unwind$_wrap_calc_thunk_func_target$catch$4 00000001800359c0     funcs.obj
 0002:000119d0       $unwind$_wrap_func_does_return 00000001800359d0     funcs.obj
 0002:000119e4       $tryMap$_wrap_func_does_return 00000001800359e4     funcs.obj
 0002:000119f8       $handlerMap$0$_wrap_func_does_return 00000001800359f8     funcs.obj
 0002:00011a70       $ip2state$_wrap_func_does_return 0000000180035a70     funcs.obj
 0002:00011a88       $unwind$_wrap_func_does_return$catch$5 0000000180035a88     funcs.obj
 0002:00011a88       $unwind$_wrap_func_does_return$catch$4 0000000180035a88     funcs.obj
 0002:00011a88       $unwind$_wrap_func_does_return$catch$3 0000000180035a88     funcs.obj
 0002:00011a88       $unwind$_wrap_func_does_return$catch$2 0000000180035a88     funcs.obj
 0002:00011a88       $unwind$_wrap_func_does_return$catch$1 0000000180035a88     funcs.obj
 0002:00011a88       $unwind$_wrap_func_does_return$catch$0 0000000180035a88     funcs.obj
 0002:00011a98       $unwind$_wrap_reanalyze_noret_flag 0000000180035a98     funcs.obj
 0002:00011aac       $tryMap$_wrap_reanalyze_noret_flag 0000000180035aac     funcs.obj
 0002:00011ac0       $handlerMap$0$_wrap_reanalyze_noret_flag 0000000180035ac0     funcs.obj
 0002:00011b38       $ip2state$_wrap_reanalyze_noret_flag 0000000180035b38     funcs.obj
 0002:00011b50       $unwind$_wrap_reanalyze_noret_flag$catch$4 0000000180035b50     funcs.obj
 0002:00011b50       $unwind$_wrap_reanalyze_noret_flag$catch$5 0000000180035b50     funcs.obj
 0002:00011b50       $unwind$_wrap_reanalyze_noret_flag$catch$3 0000000180035b50     funcs.obj
 0002:00011b50       $unwind$_wrap_reanalyze_noret_flag$catch$2 0000000180035b50     funcs.obj
 0002:00011b50       $unwind$_wrap_reanalyze_noret_flag$catch$1 0000000180035b50     funcs.obj
 0002:00011b50       $unwind$_wrap_reanalyze_noret_flag$catch$0 0000000180035b50     funcs.obj
 0002:00011b60       $unwind$_wrap_set_noret_insn 0000000180035b60     funcs.obj
 0002:00011b74       $tryMap$_wrap_set_noret_insn 0000000180035b74     funcs.obj
 0002:00011b88       $handlerMap$0$_wrap_set_noret_insn 0000000180035b88     funcs.obj
 0002:00011c00       $ip2state$_wrap_set_noret_insn 0000000180035c00     funcs.obj
 0002:00011c18       $unwind$_wrap_set_noret_insn$catch$5 0000000180035c18     funcs.obj
 0002:00011c18       $unwind$_wrap_set_noret_insn$catch$4 0000000180035c18     funcs.obj
 0002:00011c18       $unwind$_wrap_set_noret_insn$catch$3 0000000180035c18     funcs.obj
 0002:00011c18       $unwind$_wrap_set_noret_insn$catch$2 0000000180035c18     funcs.obj
 0002:00011c18       $unwind$_wrap_set_noret_insn$catch$1 0000000180035c18     funcs.obj
 0002:00011c18       $unwind$_wrap_set_noret_insn$catch$0 0000000180035c18     funcs.obj
 0002:00011c28       $unwind$_wrap_get_fchunk   0000000180035c28     funcs.obj
 0002:00011c3c       $tryMap$_wrap_get_fchunk   0000000180035c3c     funcs.obj
 0002:00011c50       $handlerMap$0$_wrap_get_fchunk 0000000180035c50     funcs.obj
 0002:00011cc8       $ip2state$_wrap_get_fchunk 0000000180035cc8     funcs.obj
 0002:00011ce0       $unwind$_wrap_get_fchunk$catch$4 0000000180035ce0     funcs.obj
 0002:00011ce0       $unwind$_wrap_get_fchunk$catch$5 0000000180035ce0     funcs.obj
 0002:00011ce0       $unwind$_wrap_get_fchunk$catch$3 0000000180035ce0     funcs.obj
 0002:00011ce0       $unwind$_wrap_get_fchunk$catch$2 0000000180035ce0     funcs.obj
 0002:00011ce0       $unwind$_wrap_get_fchunk$catch$1 0000000180035ce0     funcs.obj
 0002:00011ce0       $unwind$_wrap_get_fchunk$catch$0 0000000180035ce0     funcs.obj
 0002:00011cf0       $unwind$_wrap_getn_fchunk  0000000180035cf0     funcs.obj
 0002:00011d04       $tryMap$_wrap_getn_fchunk  0000000180035d04     funcs.obj
 0002:00011d18       $handlerMap$0$_wrap_getn_fchunk 0000000180035d18     funcs.obj
 0002:00011d90       $ip2state$_wrap_getn_fchunk 0000000180035d90     funcs.obj
 0002:00011da8       $unwind$_wrap_getn_fchunk$catch$4 0000000180035da8     funcs.obj
 0002:00011da8       $unwind$_wrap_getn_fchunk$catch$5 0000000180035da8     funcs.obj
 0002:00011da8       $unwind$_wrap_getn_fchunk$catch$0 0000000180035da8     funcs.obj
 0002:00011da8       $unwind$_wrap_getn_fchunk$catch$2 0000000180035da8     funcs.obj
 0002:00011da8       $unwind$_wrap_getn_fchunk$catch$1 0000000180035da8     funcs.obj
 0002:00011da8       $unwind$_wrap_getn_fchunk$catch$3 0000000180035da8     funcs.obj
 0002:00011db8       $unwind$_wrap_get_fchunk_qty 0000000180035db8     funcs.obj
 0002:00011dc8       $tryMap$_wrap_get_fchunk_qty 0000000180035dc8     funcs.obj
 0002:00011ddc       $handlerMap$0$_wrap_get_fchunk_qty 0000000180035ddc     funcs.obj
 0002:00011e58       $ip2state$_wrap_get_fchunk_qty 0000000180035e58     funcs.obj
 0002:00011e70       $unwind$_wrap_get_fchunk_qty$catch$5 0000000180035e70     funcs.obj
 0002:00011e70       $unwind$_wrap_get_fchunk_qty$catch$4 0000000180035e70     funcs.obj
 0002:00011e70       $unwind$_wrap_get_fchunk_qty$catch$3 0000000180035e70     funcs.obj
 0002:00011e70       $unwind$_wrap_get_fchunk_qty$catch$2 0000000180035e70     funcs.obj
 0002:00011e70       $unwind$_wrap_get_fchunk_qty$catch$1 0000000180035e70     funcs.obj
 0002:00011e70       $unwind$_wrap_get_fchunk_qty$catch$0 0000000180035e70     funcs.obj
 0002:00011e80       $unwind$_wrap_get_fchunk_num 0000000180035e80     funcs.obj
 0002:00011e94       $tryMap$_wrap_get_fchunk_num 0000000180035e94     funcs.obj
 0002:00011ea8       $handlerMap$0$_wrap_get_fchunk_num 0000000180035ea8     funcs.obj
 0002:00011f20       $ip2state$_wrap_get_fchunk_num 0000000180035f20     funcs.obj
 0002:00011f38       $unwind$_wrap_get_fchunk_num$catch$5 0000000180035f38     funcs.obj
 0002:00011f38       $unwind$_wrap_get_fchunk_num$catch$4 0000000180035f38     funcs.obj
 0002:00011f38       $unwind$_wrap_get_fchunk_num$catch$3 0000000180035f38     funcs.obj
 0002:00011f38       $unwind$_wrap_get_fchunk_num$catch$2 0000000180035f38     funcs.obj
 0002:00011f38       $unwind$_wrap_get_fchunk_num$catch$1 0000000180035f38     funcs.obj
 0002:00011f38       $unwind$_wrap_get_fchunk_num$catch$0 0000000180035f38     funcs.obj
 0002:00011f48       $unwind$_wrap_get_prev_fchunk 0000000180035f48     funcs.obj
 0002:00011f5c       $tryMap$_wrap_get_prev_fchunk 0000000180035f5c     funcs.obj
 0002:00011f70       $handlerMap$0$_wrap_get_prev_fchunk 0000000180035f70     funcs.obj
 0002:00011fe8       $ip2state$_wrap_get_prev_fchunk 0000000180035fe8     funcs.obj
 0002:00012000       $unwind$_wrap_get_prev_fchunk$catch$5 0000000180036000     funcs.obj
 0002:00012000       $unwind$_wrap_get_prev_fchunk$catch$4 0000000180036000     funcs.obj
 0002:00012000       $unwind$_wrap_get_prev_fchunk$catch$3 0000000180036000     funcs.obj
 0002:00012000       $unwind$_wrap_get_prev_fchunk$catch$2 0000000180036000     funcs.obj
 0002:00012000       $unwind$_wrap_get_prev_fchunk$catch$1 0000000180036000     funcs.obj
 0002:00012000       $unwind$_wrap_get_prev_fchunk$catch$0 0000000180036000     funcs.obj
 0002:00012010       $unwind$_wrap_get_next_fchunk 0000000180036010     funcs.obj
 0002:00012024       $tryMap$_wrap_get_next_fchunk 0000000180036024     funcs.obj
 0002:00012038       $handlerMap$0$_wrap_get_next_fchunk 0000000180036038     funcs.obj
 0002:000120b0       $ip2state$_wrap_get_next_fchunk 00000001800360b0     funcs.obj
 0002:000120c8       $unwind$_wrap_get_next_fchunk$catch$5 00000001800360c8     funcs.obj
 0002:000120c8       $unwind$_wrap_get_next_fchunk$catch$4 00000001800360c8     funcs.obj
 0002:000120c8       $unwind$_wrap_get_next_fchunk$catch$3 00000001800360c8     funcs.obj
 0002:000120c8       $unwind$_wrap_get_next_fchunk$catch$2 00000001800360c8     funcs.obj
 0002:000120c8       $unwind$_wrap_get_next_fchunk$catch$1 00000001800360c8     funcs.obj
 0002:000120c8       $unwind$_wrap_get_next_fchunk$catch$0 00000001800360c8     funcs.obj
 0002:000120d8       $unwind$_wrap_append_func_tail 00000001800360d8     funcs.obj
 0002:00012100       $tryMap$_wrap_append_func_tail 0000000180036100     funcs.obj
 0002:00012114       $handlerMap$0$_wrap_append_func_tail 0000000180036114     funcs.obj
 0002:00012190       $ip2state$_wrap_append_func_tail 0000000180036190     funcs.obj
 0002:000121b0       $unwind$_wrap_append_func_tail$catch$5 00000001800361b0     funcs.obj
 0002:000121b0       $unwind$_wrap_append_func_tail$catch$4 00000001800361b0     funcs.obj
 0002:000121b0       $unwind$_wrap_append_func_tail$catch$3 00000001800361b0     funcs.obj
 0002:000121b0       $unwind$_wrap_append_func_tail$catch$2 00000001800361b0     funcs.obj
 0002:000121b0       $unwind$_wrap_append_func_tail$catch$1 00000001800361b0     funcs.obj
 0002:000121b0       $unwind$_wrap_append_func_tail$catch$0 00000001800361b0     funcs.obj
 0002:000121c0       $unwind$_wrap_remove_func_tail 00000001800361c0     funcs.obj
 0002:000121e0       $tryMap$_wrap_remove_func_tail 00000001800361e0     funcs.obj
 0002:000121f4       $handlerMap$0$_wrap_remove_func_tail 00000001800361f4     funcs.obj
 0002:00012270       $ip2state$_wrap_remove_func_tail 0000000180036270     funcs.obj
 0002:00012290       $unwind$_wrap_remove_func_tail$catch$5 0000000180036290     funcs.obj
 0002:00012290       $unwind$_wrap_remove_func_tail$catch$4 0000000180036290     funcs.obj
 0002:00012290       $unwind$_wrap_remove_func_tail$catch$3 0000000180036290     funcs.obj
 0002:00012290       $unwind$_wrap_remove_func_tail$catch$2 0000000180036290     funcs.obj
 0002:00012290       $unwind$_wrap_remove_func_tail$catch$1 0000000180036290     funcs.obj
 0002:00012290       $unwind$_wrap_remove_func_tail$catch$0 0000000180036290     funcs.obj
 0002:000122a0       $unwind$_wrap_set_tail_owner 00000001800362a0     funcs.obj
 0002:000122c0       $tryMap$_wrap_set_tail_owner 00000001800362c0     funcs.obj
 0002:000122d4       $handlerMap$0$_wrap_set_tail_owner 00000001800362d4     funcs.obj
 0002:00012350       $ip2state$_wrap_set_tail_owner 0000000180036350     funcs.obj
 0002:00012370       $unwind$_wrap_set_tail_owner$catch$5 0000000180036370     funcs.obj
 0002:00012370       $unwind$_wrap_set_tail_owner$catch$4 0000000180036370     funcs.obj
 0002:00012370       $unwind$_wrap_set_tail_owner$catch$3 0000000180036370     funcs.obj
 0002:00012370       $unwind$_wrap_set_tail_owner$catch$2 0000000180036370     funcs.obj
 0002:00012370       $unwind$_wrap_set_tail_owner$catch$1 0000000180036370     funcs.obj
 0002:00012370       $unwind$_wrap_set_tail_owner$catch$0 0000000180036370     funcs.obj
 0002:00012380       $unwind$_wrap_func_tail_iterator_set 0000000180036380     funcs.obj
 0002:000123a8       $tryMap$_wrap_func_tail_iterator_set 00000001800363a8     funcs.obj
 0002:000123bc       $handlerMap$0$_wrap_func_tail_iterator_set 00000001800363bc     funcs.obj
 0002:00012438       $ip2state$_wrap_func_tail_iterator_set 0000000180036438     funcs.obj
 0002:00012468       $unwind$_wrap_func_tail_iterator_set$catch$3 0000000180036468     funcs.obj
 0002:00012468       $unwind$_wrap_func_tail_iterator_set$catch$1 0000000180036468     funcs.obj
 0002:00012468       $unwind$_wrap_func_tail_iterator_set$catch$0 0000000180036468     funcs.obj
 0002:00012468       $unwind$_wrap_func_tail_iterator_set$catch$5 0000000180036468     funcs.obj
 0002:00012468       $unwind$_wrap_func_tail_iterator_set$catch$2 0000000180036468     funcs.obj
 0002:00012468       $unwind$_wrap_func_tail_iterator_set$catch$4 0000000180036468     funcs.obj
 0002:00012478       $unwind$_wrap_func_tail_iterator_set_ea 0000000180036478     funcs.obj
 0002:00012498       $tryMap$_wrap_func_tail_iterator_set_ea 0000000180036498     funcs.obj
 0002:000124ac       $handlerMap$0$_wrap_func_tail_iterator_set_ea 00000001800364ac     funcs.obj
 0002:00012528       $ip2state$_wrap_func_tail_iterator_set_ea 0000000180036528     funcs.obj
 0002:00012548       $unwind$_wrap_func_tail_iterator_set_ea$catch$0 0000000180036548     funcs.obj
 0002:00012548       $unwind$_wrap_func_tail_iterator_set_ea$catch$1 0000000180036548     funcs.obj
 0002:00012548       $unwind$_wrap_func_tail_iterator_set_ea$catch$5 0000000180036548     funcs.obj
 0002:00012548       $unwind$_wrap_func_tail_iterator_set_ea$catch$4 0000000180036548     funcs.obj
 0002:00012548       $unwind$_wrap_func_tail_iterator_set_ea$catch$2 0000000180036548     funcs.obj
 0002:00012548       $unwind$_wrap_func_tail_iterator_set_ea$catch$3 0000000180036548     funcs.obj
 0002:00012558       $unwind$_wrap_func_parent_iterator_set 0000000180036558     funcs.obj
 0002:00012578       $tryMap$_wrap_func_parent_iterator_set 0000000180036578     funcs.obj
 0002:0001258c       $handlerMap$0$_wrap_func_parent_iterator_set 000000018003658c     funcs.obj
 0002:00012608       $ip2state$_wrap_func_parent_iterator_set 0000000180036608     funcs.obj
 0002:00012630       $unwind$_wrap_func_parent_iterator_set$catch$1 0000000180036630     funcs.obj
 0002:00012630       $unwind$_wrap_func_parent_iterator_set$catch$2 0000000180036630     funcs.obj
 0002:00012630       $unwind$_wrap_func_parent_iterator_set$catch$0 0000000180036630     funcs.obj
 0002:00012630       $unwind$_wrap_func_parent_iterator_set$catch$3 0000000180036630     funcs.obj
 0002:00012630       $unwind$_wrap_func_parent_iterator_set$catch$5 0000000180036630     funcs.obj
 0002:00012630       $unwind$_wrap_func_parent_iterator_set$catch$4 0000000180036630     funcs.obj
 0002:00012640       $unwind$_wrap_func_item_iterator_next 0000000180036640     funcs.obj
 0002:00012668       $tryMap$_wrap_func_item_iterator_next 0000000180036668     funcs.obj
 0002:0001267c       $handlerMap$0$_wrap_func_item_iterator_next 000000018003667c     funcs.obj
 0002:000126f8       $ip2state$_wrap_func_item_iterator_next 00000001800366f8     funcs.obj
 0002:00012718       $unwind$_wrap_func_item_iterator_next$catch$3 0000000180036718     funcs.obj
 0002:00012718       $unwind$_wrap_func_item_iterator_next$catch$5 0000000180036718     funcs.obj
 0002:00012718       $unwind$_wrap_func_item_iterator_next$catch$4 0000000180036718     funcs.obj
 0002:00012718       $unwind$_wrap_func_item_iterator_next$catch$0 0000000180036718     funcs.obj
 0002:00012718       $unwind$_wrap_func_item_iterator_next$catch$2 0000000180036718     funcs.obj
 0002:00012718       $unwind$_wrap_func_item_iterator_next$catch$1 0000000180036718     funcs.obj
 0002:00012728       $unwind$_wrap_func_item_iterator_prev 0000000180036728     funcs.obj
 0002:00012750       $tryMap$_wrap_func_item_iterator_prev 0000000180036750     funcs.obj
 0002:00012764       $handlerMap$0$_wrap_func_item_iterator_prev 0000000180036764     funcs.obj
 0002:000127e0       $ip2state$_wrap_func_item_iterator_prev 00000001800367e0     funcs.obj
 0002:00012800       $unwind$_wrap_func_item_iterator_prev$catch$3 0000000180036800     funcs.obj
 0002:00012800       $unwind$_wrap_func_item_iterator_prev$catch$1 0000000180036800     funcs.obj
 0002:00012800       $unwind$_wrap_func_item_iterator_prev$catch$2 0000000180036800     funcs.obj
 0002:00012800       $unwind$_wrap_func_item_iterator_prev$catch$4 0000000180036800     funcs.obj
 0002:00012800       $unwind$_wrap_func_item_iterator_prev$catch$0 0000000180036800     funcs.obj
 0002:00012800       $unwind$_wrap_func_item_iterator_prev$catch$5 0000000180036800     funcs.obj
 0002:00012810       $unwind$_wrap_func_item_iterator_decode_prev_insn 0000000180036810     funcs.obj
 0002:00012830       $tryMap$_wrap_func_item_iterator_decode_prev_insn 0000000180036830     funcs.obj
 0002:00012844       $handlerMap$0$_wrap_func_item_iterator_decode_prev_insn 0000000180036844     funcs.obj
 0002:000128c0       $ip2state$_wrap_func_item_iterator_decode_prev_insn 00000001800368c0     funcs.obj
 0002:000128e8       $unwind$_wrap_func_item_iterator_decode_prev_insn$catch$2 00000001800368e8     funcs.obj
 0002:000128e8       $unwind$_wrap_func_item_iterator_decode_prev_insn$catch$3 00000001800368e8     funcs.obj
 0002:000128e8       $unwind$_wrap_func_item_iterator_decode_prev_insn$catch$0 00000001800368e8     funcs.obj
 0002:000128e8       $unwind$_wrap_func_item_iterator_decode_prev_insn$catch$5 00000001800368e8     funcs.obj
 0002:000128e8       $unwind$_wrap_func_item_iterator_decode_prev_insn$catch$4 00000001800368e8     funcs.obj
 0002:000128e8       $unwind$_wrap_func_item_iterator_decode_prev_insn$catch$1 00000001800368e8     funcs.obj
 0002:000128f8       $unwind$_wrap_func_item_iterator_decode_preceding_insn 00000001800368f8     funcs.obj
 0002:00012920       $stateUnwindMap$_wrap_func_item_iterator_t_decode_preceding_insn 0000000180036920     funcs.obj
 0002:00012920       $stateUnwindMap$_wrap_func_item_iterator_decode_preceding_insn 0000000180036920     funcs.obj
 0002:00012938       $tryMap$_wrap_func_item_iterator_decode_preceding_insn 0000000180036938     funcs.obj
 0002:0001294c       $handlerMap$0$_wrap_func_item_iterator_decode_preceding_insn 000000018003694c     funcs.obj
 0002:000129c8       $ip2state$_wrap_func_item_iterator_decode_preceding_insn 00000001800369c8     funcs.obj
 0002:000129f8       $unwind$_wrap_func_item_iterator_decode_preceding_insn$catch$3 00000001800369f8     funcs.obj
 0002:000129f8       $unwind$_wrap_func_item_iterator_decode_preceding_insn$catch$2 00000001800369f8     funcs.obj
 0002:000129f8       $unwind$_wrap_func_item_iterator_decode_preceding_insn$catch$6 00000001800369f8     funcs.obj
 0002:000129f8       $unwind$_wrap_func_item_iterator_decode_preceding_insn$catch$1 00000001800369f8     funcs.obj
 0002:000129f8       $unwind$_wrap_func_item_iterator_decode_preceding_insn$catch$5 00000001800369f8     funcs.obj
 0002:000129f8       $unwind$_wrap_func_item_iterator_decode_preceding_insn$catch$4 00000001800369f8     funcs.obj
 0002:00012a08       $unwind$_wrap_f_any        0000000180036a08     funcs.obj
 0002:00012a1c       $tryMap$_wrap_f_any        0000000180036a1c     funcs.obj
 0002:00012a30       $handlerMap$0$_wrap_f_any  0000000180036a30     funcs.obj
 0002:00012aa8       $ip2state$_wrap_f_any      0000000180036aa8     funcs.obj
 0002:00012ac0       $unwind$_wrap_f_any$catch$4 0000000180036ac0     funcs.obj
 0002:00012ac0       $unwind$_wrap_f_any$catch$1 0000000180036ac0     funcs.obj
 0002:00012ac0       $unwind$_wrap_f_any$catch$0 0000000180036ac0     funcs.obj
 0002:00012ac0       $unwind$_wrap_f_any$catch$2 0000000180036ac0     funcs.obj
 0002:00012ac0       $unwind$_wrap_f_any$catch$3 0000000180036ac0     funcs.obj
 0002:00012ac0       $unwind$_wrap_f_any$catch$5 0000000180036ac0     funcs.obj
 0002:00012ad0       $unwind$_wrap_new_func_tail_iterator_t__SWIG_0 0000000180036ad0     funcs.obj
 0002:00012ae0       $tryMap$_wrap_new_func_tail_iterator_t__SWIG_0 0000000180036ae0     funcs.obj
 0002:00012af4       $handlerMap$0$_wrap_new_func_tail_iterator_t__SWIG_0 0000000180036af4     funcs.obj
 0002:00012b70       $ip2state$_wrap_new_func_tail_iterator_t__SWIG_0 0000000180036b70     funcs.obj
 0002:00012b90       $unwind$_wrap_new_func_tail_iterator_t__SWIG_0$catch$1 0000000180036b90     funcs.obj
 0002:00012b90       $unwind$_wrap_new_func_tail_iterator_t__SWIG_0$catch$5 0000000180036b90     funcs.obj
 0002:00012b90       $unwind$_wrap_new_func_tail_iterator_t__SWIG_0$catch$4 0000000180036b90     funcs.obj
 0002:00012b90       $unwind$_wrap_new_func_tail_iterator_t__SWIG_0$catch$6 0000000180036b90     funcs.obj
 0002:00012b90       $unwind$_wrap_new_func_tail_iterator_t__SWIG_0$catch$2 0000000180036b90     funcs.obj
 0002:00012b90       $unwind$_wrap_new_func_tail_iterator_t__SWIG_0$catch$3 0000000180036b90     funcs.obj
 0002:00012ba0       $unwind$_wrap_new_func_tail_iterator_t__SWIG_1 0000000180036ba0     funcs.obj
 0002:00012bc0       $tryMap$_wrap_new_func_tail_iterator_t__SWIG_1 0000000180036bc0     funcs.obj
 0002:00012bd4       $handlerMap$0$_wrap_new_func_tail_iterator_t__SWIG_1 0000000180036bd4     funcs.obj
 0002:00012c50       $ip2state$_wrap_new_func_tail_iterator_t__SWIG_1 0000000180036c50     funcs.obj
 0002:00012c78       $unwind$_wrap_new_func_tail_iterator_t__SWIG_1$catch$4 0000000180036c78     funcs.obj
 0002:00012c78       $unwind$_wrap_new_func_tail_iterator_t__SWIG_1$catch$1 0000000180036c78     funcs.obj
 0002:00012c78       $unwind$_wrap_new_func_tail_iterator_t__SWIG_1$catch$5 0000000180036c78     funcs.obj
 0002:00012c78       $unwind$_wrap_new_func_tail_iterator_t__SWIG_1$catch$3 0000000180036c78     funcs.obj
 0002:00012c78       $unwind$_wrap_new_func_tail_iterator_t__SWIG_1$catch$2 0000000180036c78     funcs.obj
 0002:00012c78       $unwind$_wrap_new_func_tail_iterator_t__SWIG_1$catch$6 0000000180036c78     funcs.obj
 0002:00012c88       $unwind$_wrap_new_func_item_iterator_t 0000000180036c88     funcs.obj
 0002:00012c88       $unwind$_wrap_new_func_tail_iterator_t 0000000180036c88     funcs.obj
 0002:00012ca4       $unwind$_wrap_delete_func_tail_iterator_t 0000000180036ca4     funcs.obj
 0002:00012cc0       $tryMap$_wrap_delete_func_tail_iterator_t 0000000180036cc0     funcs.obj
 0002:00012cd4       $handlerMap$0$_wrap_delete_func_tail_iterator_t 0000000180036cd4     funcs.obj
 0002:00012d50       $ip2state$_wrap_delete_func_tail_iterator_t 0000000180036d50     funcs.obj
 0002:00012d70       $unwind$_wrap_delete_func_tail_iterator_t$catch$0 0000000180036d70     funcs.obj
 0002:00012d70       $unwind$_wrap_delete_func_tail_iterator_t$catch$3 0000000180036d70     funcs.obj
 0002:00012d70       $unwind$_wrap_delete_func_tail_iterator_t$catch$2 0000000180036d70     funcs.obj
 0002:00012d70       $unwind$_wrap_delete_func_tail_iterator_t$catch$5 0000000180036d70     funcs.obj
 0002:00012d70       $unwind$_wrap_delete_func_tail_iterator_t$catch$1 0000000180036d70     funcs.obj
 0002:00012d70       $unwind$_wrap_delete_func_tail_iterator_t$catch$4 0000000180036d70     funcs.obj
 0002:00012d80       $unwind$_wrap_func_tail_iterator_t_set 0000000180036d80     funcs.obj
 0002:00012da8       $tryMap$_wrap_func_tail_iterator_t_set 0000000180036da8     funcs.obj
 0002:00012dbc       $handlerMap$0$_wrap_func_tail_iterator_t_set 0000000180036dbc     funcs.obj
 0002:00012e38       $ip2state$_wrap_func_tail_iterator_t_set 0000000180036e38     funcs.obj
 0002:00012e68       $unwind$_wrap_func_tail_iterator_t_set$catch$5 0000000180036e68     funcs.obj
 0002:00012e68       $unwind$_wrap_func_tail_iterator_t_set$catch$2 0000000180036e68     funcs.obj
 0002:00012e68       $unwind$_wrap_func_tail_iterator_t_set$catch$4 0000000180036e68     funcs.obj
 0002:00012e68       $unwind$_wrap_func_tail_iterator_t_set$catch$3 0000000180036e68     funcs.obj
 0002:00012e68       $unwind$_wrap_func_tail_iterator_t_set$catch$0 0000000180036e68     funcs.obj
 0002:00012e68       $unwind$_wrap_func_tail_iterator_t_set$catch$1 0000000180036e68     funcs.obj
 0002:00012e78       $unwind$_wrap_func_tail_iterator_t_set_ea 0000000180036e78     funcs.obj
 0002:00012e98       $tryMap$_wrap_func_tail_iterator_t_set_ea 0000000180036e98     funcs.obj
 0002:00012eac       $handlerMap$0$_wrap_func_tail_iterator_t_set_ea 0000000180036eac     funcs.obj
 0002:00012f28       $ip2state$_wrap_func_tail_iterator_t_set_ea 0000000180036f28     funcs.obj
 0002:00012f48       $unwind$_wrap_func_tail_iterator_t_set_ea$catch$5 0000000180036f48     funcs.obj
 0002:00012f48       $unwind$_wrap_func_tail_iterator_t_set_ea$catch$4 0000000180036f48     funcs.obj
 0002:00012f48       $unwind$_wrap_func_tail_iterator_t_set_ea$catch$0 0000000180036f48     funcs.obj
 0002:00012f48       $unwind$_wrap_func_tail_iterator_t_set_ea$catch$3 0000000180036f48     funcs.obj
 0002:00012f48       $unwind$_wrap_func_tail_iterator_t_set_ea$catch$2 0000000180036f48     funcs.obj
 0002:00012f48       $unwind$_wrap_func_tail_iterator_t_set_ea$catch$1 0000000180036f48     funcs.obj
 0002:00012f58       $unwind$_wrap_func_tail_iterator_t_set_range 0000000180036f58     funcs.obj
 0002:00012f80       $tryMap$_wrap_func_tail_iterator_t_set_range 0000000180036f80     funcs.obj
 0002:00012f94       $handlerMap$0$_wrap_func_tail_iterator_t_set_range 0000000180036f94     funcs.obj
 0002:00013010       $ip2state$_wrap_func_tail_iterator_t_set_range 0000000180037010     funcs.obj
 0002:00013030       $unwind$_wrap_func_tail_iterator_t_set_range$catch$2 0000000180037030     funcs.obj
 0002:00013030       $unwind$_wrap_func_tail_iterator_t_set_range$catch$4 0000000180037030     funcs.obj
 0002:00013030       $unwind$_wrap_func_tail_iterator_t_set_range$catch$3 0000000180037030     funcs.obj
 0002:00013030       $unwind$_wrap_func_tail_iterator_t_set_range$catch$1 0000000180037030     funcs.obj
 0002:00013030       $unwind$_wrap_func_tail_iterator_t_set_range$catch$0 0000000180037030     funcs.obj
 0002:00013030       $unwind$_wrap_func_tail_iterator_t_set_range$catch$5 0000000180037030     funcs.obj
 0002:00013040       $unwind$_wrap_func_tail_iterator_t_chunk 0000000180037040     funcs.obj
 0002:0001305c       $tryMap$_wrap_func_tail_iterator_t_chunk 000000018003705c     funcs.obj
 0002:00013070       $handlerMap$0$_wrap_func_tail_iterator_t_chunk 0000000180037070     funcs.obj
 0002:000130e8       $ip2state$_wrap_func_tail_iterator_t_chunk 00000001800370e8     funcs.obj
 0002:00013108       $unwind$_wrap_func_tail_iterator_t_chunk$catch$5 0000000180037108     funcs.obj
 0002:00013108       $unwind$_wrap_func_tail_iterator_t_chunk$catch$2 0000000180037108     funcs.obj
 0002:00013108       $unwind$_wrap_func_tail_iterator_t_chunk$catch$1 0000000180037108     funcs.obj
 0002:00013108       $unwind$_wrap_func_tail_iterator_t_chunk$catch$0 0000000180037108     funcs.obj
 0002:00013108       $unwind$_wrap_func_tail_iterator_t_chunk$catch$3 0000000180037108     funcs.obj
 0002:00013108       $unwind$_wrap_func_tail_iterator_t_chunk$catch$4 0000000180037108     funcs.obj
 0002:00013118       $unwind$_wrap_func_tail_iterator_t_first 0000000180037118     funcs.obj
 0002:00013138       $tryMap$_wrap_func_tail_iterator_t_first 0000000180037138     funcs.obj
 0002:0001314c       $handlerMap$0$_wrap_func_tail_iterator_t_first 000000018003714c     funcs.obj
 0002:000131c8       $ip2state$_wrap_func_tail_iterator_t_first 00000001800371c8     funcs.obj
 0002:000131e8       $unwind$_wrap_func_tail_iterator_t_first$catch$0 00000001800371e8     funcs.obj
 0002:000131e8       $unwind$_wrap_func_tail_iterator_t_first$catch$1 00000001800371e8     funcs.obj
 0002:000131e8       $unwind$_wrap_func_tail_iterator_t_first$catch$2 00000001800371e8     funcs.obj
 0002:000131e8       $unwind$_wrap_func_tail_iterator_t_first$catch$3 00000001800371e8     funcs.obj
 0002:000131e8       $unwind$_wrap_func_tail_iterator_t_first$catch$5 00000001800371e8     funcs.obj
 0002:000131e8       $unwind$_wrap_func_tail_iterator_t_first$catch$4 00000001800371e8     funcs.obj
 0002:000131f8       $unwind$_wrap_func_tail_iterator_t_last 00000001800371f8     funcs.obj
 0002:00013218       $tryMap$_wrap_func_tail_iterator_t_last 0000000180037218     funcs.obj
 0002:0001322c       $handlerMap$0$_wrap_func_tail_iterator_t_last 000000018003722c     funcs.obj
 0002:000132a8       $ip2state$_wrap_func_tail_iterator_t_last 00000001800372a8     funcs.obj
 0002:000132c8       $unwind$_wrap_func_tail_iterator_t_last$catch$5 00000001800372c8     funcs.obj
 0002:000132c8       $unwind$_wrap_func_tail_iterator_t_last$catch$2 00000001800372c8     funcs.obj
 0002:000132c8       $unwind$_wrap_func_tail_iterator_t_last$catch$1 00000001800372c8     funcs.obj
 0002:000132c8       $unwind$_wrap_func_tail_iterator_t_last$catch$4 00000001800372c8     funcs.obj
 0002:000132c8       $unwind$_wrap_func_tail_iterator_t_last$catch$3 00000001800372c8     funcs.obj
 0002:000132c8       $unwind$_wrap_func_tail_iterator_t_last$catch$0 00000001800372c8     funcs.obj
 0002:000132d8       $unwind$_wrap_func_tail_iterator_t_next 00000001800372d8     funcs.obj
 0002:000132f8       $tryMap$_wrap_func_tail_iterator_t_next 00000001800372f8     funcs.obj
 0002:0001330c       $handlerMap$0$_wrap_func_tail_iterator_t_next 000000018003730c     funcs.obj
 0002:00013388       $ip2state$_wrap_func_tail_iterator_t_next 0000000180037388     funcs.obj
 0002:000133a8       $unwind$_wrap_func_tail_iterator_t_next$catch$3 00000001800373a8     funcs.obj
 0002:000133a8       $unwind$_wrap_func_tail_iterator_t_next$catch$4 00000001800373a8     funcs.obj
 0002:000133a8       $unwind$_wrap_func_tail_iterator_t_next$catch$5 00000001800373a8     funcs.obj
 0002:000133a8       $unwind$_wrap_func_tail_iterator_t_next$catch$1 00000001800373a8     funcs.obj
 0002:000133a8       $unwind$_wrap_func_tail_iterator_t_next$catch$0 00000001800373a8     funcs.obj
 0002:000133a8       $unwind$_wrap_func_tail_iterator_t_next$catch$2 00000001800373a8     funcs.obj
 0002:000133b8       $unwind$_wrap_func_tail_iterator_t_prev 00000001800373b8     funcs.obj
 0002:000133d8       $tryMap$_wrap_func_tail_iterator_t_prev 00000001800373d8     funcs.obj
 0002:000133ec       $handlerMap$0$_wrap_func_tail_iterator_t_prev 00000001800373ec     funcs.obj
 0002:00013468       $ip2state$_wrap_func_tail_iterator_t_prev 0000000180037468     funcs.obj
 0002:00013488       $unwind$_wrap_func_tail_iterator_t_prev$catch$5 0000000180037488     funcs.obj
 0002:00013488       $unwind$_wrap_func_tail_iterator_t_prev$catch$3 0000000180037488     funcs.obj
 0002:00013488       $unwind$_wrap_func_tail_iterator_t_prev$catch$2 0000000180037488     funcs.obj
 0002:00013488       $unwind$_wrap_func_tail_iterator_t_prev$catch$4 0000000180037488     funcs.obj
 0002:00013488       $unwind$_wrap_func_tail_iterator_t_prev$catch$0 0000000180037488     funcs.obj
 0002:00013488       $unwind$_wrap_func_tail_iterator_t_prev$catch$1 0000000180037488     funcs.obj
 0002:00013498       $unwind$_wrap_func_tail_iterator_t_main 0000000180037498     funcs.obj
 0002:000134b8       $tryMap$_wrap_func_tail_iterator_t_main 00000001800374b8     funcs.obj
 0002:000134cc       $handlerMap$0$_wrap_func_tail_iterator_t_main 00000001800374cc     funcs.obj
 0002:00013548       $ip2state$_wrap_func_tail_iterator_t_main 0000000180037548     funcs.obj
 0002:00013568       $unwind$_wrap_func_tail_iterator_t_main$catch$0 0000000180037568     funcs.obj
 0002:00013568       $unwind$_wrap_func_tail_iterator_t_main$catch$5 0000000180037568     funcs.obj
 0002:00013568       $unwind$_wrap_func_tail_iterator_t_main$catch$1 0000000180037568     funcs.obj
 0002:00013568       $unwind$_wrap_func_tail_iterator_t_main$catch$2 0000000180037568     funcs.obj
 0002:00013568       $unwind$_wrap_func_tail_iterator_t_main$catch$4 0000000180037568     funcs.obj
 0002:00013568       $unwind$_wrap_func_tail_iterator_t_main$catch$3 0000000180037568     funcs.obj
 0002:00013578       $unwind$_wrap_new_func_item_iterator_t__SWIG_0 0000000180037578     funcs.obj
 0002:00013588       $tryMap$_wrap_new_func_item_iterator_t__SWIG_0 0000000180037588     funcs.obj
 0002:0001359c       $handlerMap$0$_wrap_new_func_item_iterator_t__SWIG_0 000000018003759c     funcs.obj
 0002:00013618       $ip2state$_wrap_new_func_item_iterator_t__SWIG_0 0000000180037618     funcs.obj
 0002:00013638       $unwind$_wrap_new_func_item_iterator_t__SWIG_0$catch$2 0000000180037638     funcs.obj
 0002:00013638       $unwind$_wrap_new_func_item_iterator_t__SWIG_0$catch$5 0000000180037638     funcs.obj
 0002:00013638       $unwind$_wrap_new_func_item_iterator_t__SWIG_0$catch$1 0000000180037638     funcs.obj
 0002:00013638       $unwind$_wrap_new_func_item_iterator_t__SWIG_0$catch$6 0000000180037638     funcs.obj
 0002:00013638       $unwind$_wrap_new_func_item_iterator_t__SWIG_0$catch$3 0000000180037638     funcs.obj
 0002:00013638       $unwind$_wrap_new_func_item_iterator_t__SWIG_0$catch$4 0000000180037638     funcs.obj
 0002:00013648       $unwind$_wrap_new_func_item_iterator_t__SWIG_1 0000000180037648     funcs.obj
 0002:00013668       $tryMap$_wrap_new_func_item_iterator_t__SWIG_1 0000000180037668     funcs.obj
 0002:0001367c       $handlerMap$0$_wrap_new_func_item_iterator_t__SWIG_1 000000018003767c     funcs.obj
 0002:000136f8       $ip2state$_wrap_new_func_item_iterator_t__SWIG_1 00000001800376f8     funcs.obj
 0002:00013720       $unwind$_wrap_new_func_item_iterator_t__SWIG_1$catch$6 0000000180037720     funcs.obj
 0002:00013720       $unwind$_wrap_new_func_item_iterator_t__SWIG_1$catch$1 0000000180037720     funcs.obj
 0002:00013720       $unwind$_wrap_new_func_item_iterator_t__SWIG_1$catch$2 0000000180037720     funcs.obj
 0002:00013720       $unwind$_wrap_new_func_item_iterator_t__SWIG_1$catch$3 0000000180037720     funcs.obj
 0002:00013720       $unwind$_wrap_new_func_item_iterator_t__SWIG_1$catch$5 0000000180037720     funcs.obj
 0002:00013720       $unwind$_wrap_new_func_item_iterator_t__SWIG_1$catch$4 0000000180037720     funcs.obj
 0002:00013730       $unwind$_wrap_func_item_iterator_t_set 0000000180037730     funcs.obj
 0002:00013758       $tryMap$_wrap_func_item_iterator_t_set 0000000180037758     funcs.obj
 0002:0001376c       $handlerMap$0$_wrap_func_item_iterator_t_set 000000018003776c     funcs.obj
 0002:000137e8       $ip2state$_wrap_func_item_iterator_t_set 00000001800377e8     funcs.obj
 0002:00013818       $unwind$_wrap_func_item_iterator_t_set$catch$1 0000000180037818     funcs.obj
 0002:00013818       $unwind$_wrap_func_item_iterator_t_set$catch$3 0000000180037818     funcs.obj
 0002:00013818       $unwind$_wrap_func_item_iterator_t_set$catch$0 0000000180037818     funcs.obj
 0002:00013818       $unwind$_wrap_func_item_iterator_t_set$catch$2 0000000180037818     funcs.obj
 0002:00013818       $unwind$_wrap_func_item_iterator_t_set$catch$5 0000000180037818     funcs.obj
 0002:00013818       $unwind$_wrap_func_item_iterator_t_set$catch$4 0000000180037818     funcs.obj
 0002:00013828       $unwind$_wrap_func_item_iterator_t_set_range 0000000180037828     funcs.obj
 0002:00013850       $tryMap$_wrap_func_item_iterator_t_set_range 0000000180037850     funcs.obj
 0002:00013864       $handlerMap$0$_wrap_func_item_iterator_t_set_range 0000000180037864     funcs.obj
 0002:000138e0       $ip2state$_wrap_func_item_iterator_t_set_range 00000001800378e0     funcs.obj
 0002:00013900       $unwind$_wrap_func_item_iterator_t_set_range$catch$2 0000000180037900     funcs.obj
 0002:00013900       $unwind$_wrap_func_item_iterator_t_set_range$catch$3 0000000180037900     funcs.obj
 0002:00013900       $unwind$_wrap_func_item_iterator_t_set_range$catch$1 0000000180037900     funcs.obj
 0002:00013900       $unwind$_wrap_func_item_iterator_t_set_range$catch$4 0000000180037900     funcs.obj
 0002:00013900       $unwind$_wrap_func_item_iterator_t_set_range$catch$0 0000000180037900     funcs.obj
 0002:00013900       $unwind$_wrap_func_item_iterator_t_set_range$catch$5 0000000180037900     funcs.obj
 0002:00013910       $unwind$_wrap_func_item_iterator_t_first 0000000180037910     funcs.obj
 0002:00013930       $tryMap$_wrap_func_item_iterator_t_first 0000000180037930     funcs.obj
 0002:00013944       $handlerMap$0$_wrap_func_item_iterator_t_first 0000000180037944     funcs.obj
 0002:000139c0       $ip2state$_wrap_func_item_iterator_t_first 00000001800379c0     funcs.obj
 0002:000139e0       $unwind$_wrap_func_item_iterator_t_first$catch$4 00000001800379e0     funcs.obj
 0002:000139e0       $unwind$_wrap_func_item_iterator_t_first$catch$5 00000001800379e0     funcs.obj
 0002:000139e0       $unwind$_wrap_func_item_iterator_t_first$catch$0 00000001800379e0     funcs.obj
 0002:000139e0       $unwind$_wrap_func_item_iterator_t_first$catch$1 00000001800379e0     funcs.obj
 0002:000139e0       $unwind$_wrap_func_item_iterator_t_first$catch$2 00000001800379e0     funcs.obj
 0002:000139e0       $unwind$_wrap_func_item_iterator_t_first$catch$3 00000001800379e0     funcs.obj
 0002:000139f0       $unwind$_wrap_func_item_iterator_t_last 00000001800379f0     funcs.obj
 0002:00013a10       $tryMap$_wrap_func_item_iterator_t_last 0000000180037a10     funcs.obj
 0002:00013a24       $handlerMap$0$_wrap_func_item_iterator_t_last 0000000180037a24     funcs.obj
 0002:00013aa0       $ip2state$_wrap_func_item_iterator_t_last 0000000180037aa0     funcs.obj
 0002:00013ac0       $unwind$_wrap_func_item_iterator_t_last$catch$1 0000000180037ac0     funcs.obj
 0002:00013ac0       $unwind$_wrap_func_item_iterator_t_last$catch$4 0000000180037ac0     funcs.obj
 0002:00013ac0       $unwind$_wrap_func_item_iterator_t_last$catch$0 0000000180037ac0     funcs.obj
 0002:00013ac0       $unwind$_wrap_func_item_iterator_t_last$catch$3 0000000180037ac0     funcs.obj
 0002:00013ac0       $unwind$_wrap_func_item_iterator_t_last$catch$2 0000000180037ac0     funcs.obj
 0002:00013ac0       $unwind$_wrap_func_item_iterator_t_last$catch$5 0000000180037ac0     funcs.obj
 0002:00013ad0       $unwind$_wrap_func_item_iterator_t_current 0000000180037ad0     funcs.obj
 0002:00013aec       $tryMap$_wrap_func_item_iterator_t_current 0000000180037aec     funcs.obj
 0002:00013b00       $handlerMap$0$_wrap_func_item_iterator_t_current 0000000180037b00     funcs.obj
 0002:00013b78       $ip2state$_wrap_func_item_iterator_t_current 0000000180037b78     funcs.obj
 0002:00013b98       $unwind$_wrap_func_item_iterator_t_current$catch$5 0000000180037b98     funcs.obj
 0002:00013b98       $unwind$_wrap_func_item_iterator_t_current$catch$4 0000000180037b98     funcs.obj
 0002:00013b98       $unwind$_wrap_func_item_iterator_t_current$catch$0 0000000180037b98     funcs.obj
 0002:00013b98       $unwind$_wrap_func_item_iterator_t_current$catch$2 0000000180037b98     funcs.obj
 0002:00013b98       $unwind$_wrap_func_item_iterator_t_current$catch$1 0000000180037b98     funcs.obj
 0002:00013b98       $unwind$_wrap_func_item_iterator_t_current$catch$3 0000000180037b98     funcs.obj
 0002:00013ba8       $unwind$_wrap_func_item_iterator_t_chunk 0000000180037ba8     funcs.obj
 0002:00013bc4       $tryMap$_wrap_func_item_iterator_t_chunk 0000000180037bc4     funcs.obj
 0002:00013bd8       $handlerMap$0$_wrap_func_item_iterator_t_chunk 0000000180037bd8     funcs.obj
 0002:00013c50       $ip2state$_wrap_func_item_iterator_t_chunk 0000000180037c50     funcs.obj
 0002:00013c70       $unwind$_wrap_func_item_iterator_t_chunk$catch$3 0000000180037c70     funcs.obj
 0002:00013c70       $unwind$_wrap_func_item_iterator_t_chunk$catch$5 0000000180037c70     funcs.obj
 0002:00013c70       $unwind$_wrap_func_item_iterator_t_chunk$catch$0 0000000180037c70     funcs.obj
 0002:00013c70       $unwind$_wrap_func_item_iterator_t_chunk$catch$4 0000000180037c70     funcs.obj
 0002:00013c70       $unwind$_wrap_func_item_iterator_t_chunk$catch$1 0000000180037c70     funcs.obj
 0002:00013c70       $unwind$_wrap_func_item_iterator_t_chunk$catch$2 0000000180037c70     funcs.obj
 0002:00013c80       $unwind$_wrap_func_item_iterator_t_next 0000000180037c80     funcs.obj
 0002:00013ca8       $tryMap$_wrap_func_item_iterator_t_next 0000000180037ca8     funcs.obj
 0002:00013cbc       $handlerMap$0$_wrap_func_item_iterator_t_next 0000000180037cbc     funcs.obj
 0002:00013d38       $ip2state$_wrap_func_item_iterator_t_next 0000000180037d38     funcs.obj
 0002:00013d58       $unwind$_wrap_func_item_iterator_t_next$catch$0 0000000180037d58     funcs.obj
 0002:00013d58       $unwind$_wrap_func_item_iterator_t_next$catch$3 0000000180037d58     funcs.obj
 0002:00013d58       $unwind$_wrap_func_item_iterator_t_next$catch$1 0000000180037d58     funcs.obj
 0002:00013d58       $unwind$_wrap_func_item_iterator_t_next$catch$5 0000000180037d58     funcs.obj
 0002:00013d58       $unwind$_wrap_func_item_iterator_t_next$catch$2 0000000180037d58     funcs.obj
 0002:00013d58       $unwind$_wrap_func_item_iterator_t_next$catch$4 0000000180037d58     funcs.obj
 0002:00013d68       $unwind$_wrap_func_item_iterator_t_prev 0000000180037d68     funcs.obj
 0002:00013d90       $tryMap$_wrap_func_item_iterator_t_prev 0000000180037d90     funcs.obj
 0002:00013da4       $handlerMap$0$_wrap_func_item_iterator_t_prev 0000000180037da4     funcs.obj
 0002:00013e20       $ip2state$_wrap_func_item_iterator_t_prev 0000000180037e20     funcs.obj
 0002:00013e40       $unwind$_wrap_func_item_iterator_t_prev$catch$0 0000000180037e40     funcs.obj
 0002:00013e40       $unwind$_wrap_func_item_iterator_t_prev$catch$4 0000000180037e40     funcs.obj
 0002:00013e40       $unwind$_wrap_func_item_iterator_t_prev$catch$2 0000000180037e40     funcs.obj
 0002:00013e40       $unwind$_wrap_func_item_iterator_t_prev$catch$1 0000000180037e40     funcs.obj
 0002:00013e40       $unwind$_wrap_func_item_iterator_t_prev$catch$5 0000000180037e40     funcs.obj
 0002:00013e40       $unwind$_wrap_func_item_iterator_t_prev$catch$3 0000000180037e40     funcs.obj
 0002:00013e50       $unwind$_wrap_func_item_iterator_t_next_addr 0000000180037e50     funcs.obj
 0002:00013e70       $tryMap$_wrap_func_item_iterator_t_next_addr 0000000180037e70     funcs.obj
 0002:00013e84       $handlerMap$0$_wrap_func_item_iterator_t_next_addr 0000000180037e84     funcs.obj
 0002:00013f00       $ip2state$_wrap_func_item_iterator_t_next_addr 0000000180037f00     funcs.obj
 0002:00013f20       $unwind$_wrap_func_item_iterator_t_next_addr$catch$0 0000000180037f20     funcs.obj
 0002:00013f20       $unwind$_wrap_func_item_iterator_t_next_addr$catch$4 0000000180037f20     funcs.obj
 0002:00013f20       $unwind$_wrap_func_item_iterator_t_next_addr$catch$1 0000000180037f20     funcs.obj
 0002:00013f20       $unwind$_wrap_func_item_iterator_t_next_addr$catch$2 0000000180037f20     funcs.obj
 0002:00013f20       $unwind$_wrap_func_item_iterator_t_next_addr$catch$3 0000000180037f20     funcs.obj
 0002:00013f20       $unwind$_wrap_func_item_iterator_t_next_addr$catch$5 0000000180037f20     funcs.obj
 0002:00013f30       $unwind$_wrap_func_item_iterator_t_next_head 0000000180037f30     funcs.obj
 0002:00013f50       $tryMap$_wrap_func_item_iterator_t_next_head 0000000180037f50     funcs.obj
 0002:00013f64       $handlerMap$0$_wrap_func_item_iterator_t_next_head 0000000180037f64     funcs.obj
 0002:00013fe0       $ip2state$_wrap_func_item_iterator_t_next_head 0000000180037fe0     funcs.obj
 0002:00014000       $unwind$_wrap_func_item_iterator_t_next_head$catch$5 0000000180038000     funcs.obj
 0002:00014000       $unwind$_wrap_func_item_iterator_t_next_head$catch$4 0000000180038000     funcs.obj
 0002:00014000       $unwind$_wrap_func_item_iterator_t_next_head$catch$3 0000000180038000     funcs.obj
 0002:00014000       $unwind$_wrap_func_item_iterator_t_next_head$catch$2 0000000180038000     funcs.obj
 0002:00014000       $unwind$_wrap_func_item_iterator_t_next_head$catch$1 0000000180038000     funcs.obj
 0002:00014000       $unwind$_wrap_func_item_iterator_t_next_head$catch$0 0000000180038000     funcs.obj
 0002:00014010       $unwind$_wrap_func_item_iterator_t_next_code 0000000180038010     funcs.obj
 0002:00014030       $tryMap$_wrap_func_item_iterator_t_next_code 0000000180038030     funcs.obj
 0002:00014044       $handlerMap$0$_wrap_func_item_iterator_t_next_code 0000000180038044     funcs.obj
 0002:000140c0       $ip2state$_wrap_func_item_iterator_t_next_code 00000001800380c0     funcs.obj
 0002:000140e0       $unwind$_wrap_func_item_iterator_t_next_code$catch$0 00000001800380e0     funcs.obj
 0002:000140e0       $unwind$_wrap_func_item_iterator_t_next_code$catch$4 00000001800380e0     funcs.obj
 0002:000140e0       $unwind$_wrap_func_item_iterator_t_next_code$catch$3 00000001800380e0     funcs.obj
 0002:000140e0       $unwind$_wrap_func_item_iterator_t_next_code$catch$2 00000001800380e0     funcs.obj
 0002:000140e0       $unwind$_wrap_func_item_iterator_t_next_code$catch$1 00000001800380e0     funcs.obj
 0002:000140e0       $unwind$_wrap_func_item_iterator_t_next_code$catch$5 00000001800380e0     funcs.obj
 0002:000140f0       $unwind$_wrap_func_item_iterator_t_next_data 00000001800380f0     funcs.obj
 0002:00014110       $tryMap$_wrap_func_item_iterator_t_next_data 0000000180038110     funcs.obj
 0002:00014124       $handlerMap$0$_wrap_func_item_iterator_t_next_data 0000000180038124     funcs.obj
 0002:000141a0       $ip2state$_wrap_func_item_iterator_t_next_data 00000001800381a0     funcs.obj
 0002:000141c0       $unwind$_wrap_func_item_iterator_t_next_data$catch$0 00000001800381c0     funcs.obj
 0002:000141c0       $unwind$_wrap_func_item_iterator_t_next_data$catch$5 00000001800381c0     funcs.obj
 0002:000141c0       $unwind$_wrap_func_item_iterator_t_next_data$catch$4 00000001800381c0     funcs.obj
 0002:000141c0       $unwind$_wrap_func_item_iterator_t_next_data$catch$3 00000001800381c0     funcs.obj
 0002:000141c0       $unwind$_wrap_func_item_iterator_t_next_data$catch$2 00000001800381c0     funcs.obj
 0002:000141c0       $unwind$_wrap_func_item_iterator_t_next_data$catch$1 00000001800381c0     funcs.obj
 0002:000141d0       $unwind$_wrap_func_item_iterator_t_next_not_tail 00000001800381d0     funcs.obj
 0002:000141f0       $tryMap$_wrap_func_item_iterator_t_next_not_tail 00000001800381f0     funcs.obj
 0002:00014204       $handlerMap$0$_wrap_func_item_iterator_t_next_not_tail 0000000180038204     funcs.obj
 0002:00014280       $ip2state$_wrap_func_item_iterator_t_next_not_tail 0000000180038280     funcs.obj
 0002:000142a0       $unwind$_wrap_func_item_iterator_t_next_not_tail$catch$3 00000001800382a0     funcs.obj
 0002:000142a0       $unwind$_wrap_func_item_iterator_t_next_not_tail$catch$5 00000001800382a0     funcs.obj
 0002:000142a0       $unwind$_wrap_func_item_iterator_t_next_not_tail$catch$1 00000001800382a0     funcs.obj
 0002:000142a0       $unwind$_wrap_func_item_iterator_t_next_not_tail$catch$0 00000001800382a0     funcs.obj
 0002:000142a0       $unwind$_wrap_func_item_iterator_t_next_not_tail$catch$2 00000001800382a0     funcs.obj
 0002:000142a0       $unwind$_wrap_func_item_iterator_t_next_not_tail$catch$4 00000001800382a0     funcs.obj
 0002:000142b0       $unwind$_wrap_func_item_iterator_t_prev_addr 00000001800382b0     funcs.obj
 0002:000142d0       $tryMap$_wrap_func_item_iterator_t_prev_addr 00000001800382d0     funcs.obj
 0002:000142e4       $handlerMap$0$_wrap_func_item_iterator_t_prev_addr 00000001800382e4     funcs.obj
 0002:00014360       $ip2state$_wrap_func_item_iterator_t_prev_addr 0000000180038360     funcs.obj
 0002:00014380       $unwind$_wrap_func_item_iterator_t_prev_addr$catch$0 0000000180038380     funcs.obj
 0002:00014380       $unwind$_wrap_func_item_iterator_t_prev_addr$catch$1 0000000180038380     funcs.obj
 0002:00014380       $unwind$_wrap_func_item_iterator_t_prev_addr$catch$2 0000000180038380     funcs.obj
 0002:00014380       $unwind$_wrap_func_item_iterator_t_prev_addr$catch$3 0000000180038380     funcs.obj
 0002:00014380       $unwind$_wrap_func_item_iterator_t_prev_addr$catch$4 0000000180038380     funcs.obj
 0002:00014380       $unwind$_wrap_func_item_iterator_t_prev_addr$catch$5 0000000180038380     funcs.obj
 0002:00014390       $unwind$_wrap_func_item_iterator_t_prev_head 0000000180038390     funcs.obj
 0002:000143b0       $tryMap$_wrap_func_item_iterator_t_prev_head 00000001800383b0     funcs.obj
 0002:000143c4       $handlerMap$0$_wrap_func_item_iterator_t_prev_head 00000001800383c4     funcs.obj
 0002:00014440       $ip2state$_wrap_func_item_iterator_t_prev_head 0000000180038440     funcs.obj
 0002:00014460       $unwind$_wrap_func_item_iterator_t_prev_head$catch$3 0000000180038460     funcs.obj
 0002:00014460       $unwind$_wrap_func_item_iterator_t_prev_head$catch$5 0000000180038460     funcs.obj
 0002:00014460       $unwind$_wrap_func_item_iterator_t_prev_head$catch$2 0000000180038460     funcs.obj
 0002:00014460       $unwind$_wrap_func_item_iterator_t_prev_head$catch$1 0000000180038460     funcs.obj
 0002:00014460       $unwind$_wrap_func_item_iterator_t_prev_head$catch$0 0000000180038460     funcs.obj
 0002:00014460       $unwind$_wrap_func_item_iterator_t_prev_head$catch$4 0000000180038460     funcs.obj
 0002:00014470       $unwind$_wrap_func_item_iterator_t_prev_code 0000000180038470     funcs.obj
 0002:00014490       $tryMap$_wrap_func_item_iterator_t_prev_code 0000000180038490     funcs.obj
 0002:000144a4       $handlerMap$0$_wrap_func_item_iterator_t_prev_code 00000001800384a4     funcs.obj
 0002:00014520       $ip2state$_wrap_func_item_iterator_t_prev_code 0000000180038520     funcs.obj
 0002:00014540       $unwind$_wrap_func_item_iterator_t_prev_code$catch$1 0000000180038540     funcs.obj
 0002:00014540       $unwind$_wrap_func_item_iterator_t_prev_code$catch$3 0000000180038540     funcs.obj
 0002:00014540       $unwind$_wrap_func_item_iterator_t_prev_code$catch$2 0000000180038540     funcs.obj
 0002:00014540       $unwind$_wrap_func_item_iterator_t_prev_code$catch$5 0000000180038540     funcs.obj
 0002:00014540       $unwind$_wrap_func_item_iterator_t_prev_code$catch$0 0000000180038540     funcs.obj
 0002:00014540       $unwind$_wrap_func_item_iterator_t_prev_code$catch$4 0000000180038540     funcs.obj
 0002:00014550       $unwind$_wrap_func_item_iterator_t_prev_data 0000000180038550     funcs.obj
 0002:00014570       $tryMap$_wrap_func_item_iterator_t_prev_data 0000000180038570     funcs.obj
 0002:00014584       $handlerMap$0$_wrap_func_item_iterator_t_prev_data 0000000180038584     funcs.obj
 0002:00014600       $ip2state$_wrap_func_item_iterator_t_prev_data 0000000180038600     funcs.obj
 0002:00014620       $unwind$_wrap_func_item_iterator_t_prev_data$catch$0 0000000180038620     funcs.obj
 0002:00014620       $unwind$_wrap_func_item_iterator_t_prev_data$catch$3 0000000180038620     funcs.obj
 0002:00014620       $unwind$_wrap_func_item_iterator_t_prev_data$catch$4 0000000180038620     funcs.obj
 0002:00014620       $unwind$_wrap_func_item_iterator_t_prev_data$catch$2 0000000180038620     funcs.obj
 0002:00014620       $unwind$_wrap_func_item_iterator_t_prev_data$catch$5 0000000180038620     funcs.obj
 0002:00014620       $unwind$_wrap_func_item_iterator_t_prev_data$catch$1 0000000180038620     funcs.obj
 0002:00014630       $unwind$_wrap_func_item_iterator_t_prev_not_tail 0000000180038630     funcs.obj
 0002:00014650       $tryMap$_wrap_func_item_iterator_t_prev_not_tail 0000000180038650     funcs.obj
 0002:00014664       $handlerMap$0$_wrap_func_item_iterator_t_prev_not_tail 0000000180038664     funcs.obj
 0002:000146e0       $ip2state$_wrap_func_item_iterator_t_prev_not_tail 00000001800386e0     funcs.obj
 0002:00014700       $unwind$_wrap_func_item_iterator_t_prev_not_tail$catch$5 0000000180038700     funcs.obj
 0002:00014700       $unwind$_wrap_func_item_iterator_t_prev_not_tail$catch$4 0000000180038700     funcs.obj
 0002:00014700       $unwind$_wrap_func_item_iterator_t_prev_not_tail$catch$3 0000000180038700     funcs.obj
 0002:00014700       $unwind$_wrap_func_item_iterator_t_prev_not_tail$catch$2 0000000180038700     funcs.obj
 0002:00014700       $unwind$_wrap_func_item_iterator_t_prev_not_tail$catch$0 0000000180038700     funcs.obj
 0002:00014700       $unwind$_wrap_func_item_iterator_t_prev_not_tail$catch$1 0000000180038700     funcs.obj
 0002:00014710       $unwind$_wrap_func_item_iterator_t_decode_prev_insn 0000000180038710     funcs.obj
 0002:00014730       $tryMap$_wrap_func_item_iterator_t_decode_prev_insn 0000000180038730     funcs.obj
 0002:00014744       $handlerMap$0$_wrap_func_item_iterator_t_decode_prev_insn 0000000180038744     funcs.obj
 0002:000147c0       $ip2state$_wrap_func_item_iterator_t_decode_prev_insn 00000001800387c0     funcs.obj
 0002:000147e8       $unwind$_wrap_func_item_iterator_t_decode_prev_insn$catch$2 00000001800387e8     funcs.obj
 0002:000147e8       $unwind$_wrap_func_item_iterator_t_decode_prev_insn$catch$3 00000001800387e8     funcs.obj
 0002:000147e8       $unwind$_wrap_func_item_iterator_t_decode_prev_insn$catch$5 00000001800387e8     funcs.obj
 0002:000147e8       $unwind$_wrap_func_item_iterator_t_decode_prev_insn$catch$1 00000001800387e8     funcs.obj
 0002:000147e8       $unwind$_wrap_func_item_iterator_t_decode_prev_insn$catch$0 00000001800387e8     funcs.obj
 0002:000147e8       $unwind$_wrap_func_item_iterator_t_decode_prev_insn$catch$4 00000001800387e8     funcs.obj
 0002:000147f8       $unwind$_wrap_func_item_iterator_t_decode_preceding_insn 00000001800387f8     funcs.obj
 0002:00014820       $tryMap$_wrap_func_item_iterator_t_decode_preceding_insn 0000000180038820     funcs.obj
 0002:00014834       $handlerMap$0$_wrap_func_item_iterator_t_decode_preceding_insn 0000000180038834     funcs.obj
 0002:000148b0       $ip2state$_wrap_func_item_iterator_t_decode_preceding_insn 00000001800388b0     funcs.obj
 0002:000148e0       $unwind$_wrap_func_item_iterator_t_decode_preceding_insn$catch$4 00000001800388e0     funcs.obj
 0002:000148e0       $unwind$_wrap_func_item_iterator_t_decode_preceding_insn$catch$3 00000001800388e0     funcs.obj
 0002:000148e0       $unwind$_wrap_func_item_iterator_t_decode_preceding_insn$catch$2 00000001800388e0     funcs.obj
 0002:000148e0       $unwind$_wrap_func_item_iterator_t_decode_preceding_insn$catch$6 00000001800388e0     funcs.obj
 0002:000148e0       $unwind$_wrap_func_item_iterator_t_decode_preceding_insn$catch$5 00000001800388e0     funcs.obj
 0002:000148e0       $unwind$_wrap_func_item_iterator_t_decode_preceding_insn$catch$1 00000001800388e0     funcs.obj
 0002:000148f0       $unwind$_wrap_delete_func_item_iterator_t 00000001800388f0     funcs.obj
 0002:0001490c       $tryMap$_wrap_delete_func_item_iterator_t 000000018003890c     funcs.obj
 0002:00014920       $handlerMap$0$_wrap_delete_func_item_iterator_t 0000000180038920     funcs.obj
 0002:00014998       $ip2state$_wrap_delete_func_item_iterator_t 0000000180038998     funcs.obj
 0002:000149b8       $unwind$_wrap_delete_func_item_iterator_t$catch$1 00000001800389b8     funcs.obj
 0002:000149b8       $unwind$_wrap_delete_func_item_iterator_t$catch$6 00000001800389b8     funcs.obj
 0002:000149b8       $unwind$_wrap_delete_func_item_iterator_t$catch$3 00000001800389b8     funcs.obj
 0002:000149b8       $unwind$_wrap_delete_func_item_iterator_t$catch$4 00000001800389b8     funcs.obj
 0002:000149b8       $unwind$_wrap_delete_func_item_iterator_t$catch$5 00000001800389b8     funcs.obj
 0002:000149b8       $unwind$_wrap_delete_func_item_iterator_t$catch$2 00000001800389b8     funcs.obj
 0002:000149c8       $unwind$_wrap_new_func_parent_iterator_t__SWIG_0 00000001800389c8     funcs.obj
 0002:000149d8       $tryMap$_wrap_new_func_parent_iterator_t__SWIG_0 00000001800389d8     funcs.obj
 0002:000149ec       $handlerMap$0$_wrap_new_func_parent_iterator_t__SWIG_0 00000001800389ec     funcs.obj
 0002:00014a68       $ip2state$_wrap_new_func_parent_iterator_t__SWIG_0 0000000180038a68     funcs.obj
 0002:00014a88       $unwind$_wrap_new_func_parent_iterator_t__SWIG_0$catch$6 0000000180038a88     funcs.obj
 0002:00014a88       $unwind$_wrap_new_func_parent_iterator_t__SWIG_0$catch$1 0000000180038a88     funcs.obj
 0002:00014a88       $unwind$_wrap_new_func_parent_iterator_t__SWIG_0$catch$2 0000000180038a88     funcs.obj
 0002:00014a88       $unwind$_wrap_new_func_parent_iterator_t__SWIG_0$catch$3 0000000180038a88     funcs.obj
 0002:00014a88       $unwind$_wrap_new_func_parent_iterator_t__SWIG_0$catch$4 0000000180038a88     funcs.obj
 0002:00014a88       $unwind$_wrap_new_func_parent_iterator_t__SWIG_0$catch$5 0000000180038a88     funcs.obj
 0002:00014a98       $unwind$_wrap_new_func_parent_iterator_t__SWIG_1 0000000180038a98     funcs.obj
 0002:00014ab4       $tryMap$_wrap_new_func_parent_iterator_t__SWIG_1 0000000180038ab4     funcs.obj
 0002:00014ac8       $handlerMap$0$_wrap_new_func_parent_iterator_t__SWIG_1 0000000180038ac8     funcs.obj
 0002:00014b40       $ip2state$_wrap_new_func_parent_iterator_t__SWIG_1 0000000180038b40     funcs.obj
 0002:00014b68       $unwind$_wrap_new_func_parent_iterator_t__SWIG_1$catch$4 0000000180038b68     funcs.obj
 0002:00014b68       $unwind$_wrap_new_func_parent_iterator_t__SWIG_1$catch$1 0000000180038b68     funcs.obj
 0002:00014b68       $unwind$_wrap_new_func_parent_iterator_t__SWIG_1$catch$2 0000000180038b68     funcs.obj
 0002:00014b68       $unwind$_wrap_new_func_parent_iterator_t__SWIG_1$catch$3 0000000180038b68     funcs.obj
 0002:00014b68       $unwind$_wrap_new_func_parent_iterator_t__SWIG_1$catch$6 0000000180038b68     funcs.obj
 0002:00014b68       $unwind$_wrap_new_func_parent_iterator_t__SWIG_1$catch$5 0000000180038b68     funcs.obj
 0002:00014b78       $unwind$_wrap_new_func_parent_iterator_t 0000000180038b78     funcs.obj
 0002:00014b8c       $unwind$_wrap_delete_func_parent_iterator_t 0000000180038b8c     funcs.obj
 0002:00014ba8       $tryMap$_wrap_delete_func_parent_iterator_t 0000000180038ba8     funcs.obj
 0002:00014bbc       $handlerMap$0$_wrap_delete_func_parent_iterator_t 0000000180038bbc     funcs.obj
 0002:00014c38       $ip2state$_wrap_delete_func_parent_iterator_t 0000000180038c38     funcs.obj
 0002:00014c58       $unwind$_wrap_delete_func_parent_iterator_t$catch$3 0000000180038c58     funcs.obj
 0002:00014c58       $unwind$_wrap_delete_func_parent_iterator_t$catch$4 0000000180038c58     funcs.obj
 0002:00014c58       $unwind$_wrap_delete_func_parent_iterator_t$catch$0 0000000180038c58     funcs.obj
 0002:00014c58       $unwind$_wrap_delete_func_parent_iterator_t$catch$2 0000000180038c58     funcs.obj
 0002:00014c58       $unwind$_wrap_delete_func_parent_iterator_t$catch$1 0000000180038c58     funcs.obj
 0002:00014c58       $unwind$_wrap_delete_func_parent_iterator_t$catch$5 0000000180038c58     funcs.obj
 0002:00014c68       $unwind$_wrap_func_parent_iterator_t_set 0000000180038c68     funcs.obj
 0002:00014c88       $tryMap$_wrap_func_parent_iterator_t_set 0000000180038c88     funcs.obj
 0002:00014c9c       $handlerMap$0$_wrap_func_parent_iterator_t_set 0000000180038c9c     funcs.obj
 0002:00014d18       $ip2state$_wrap_func_parent_iterator_t_set 0000000180038d18     funcs.obj
 0002:00014d40       $unwind$_wrap_func_parent_iterator_t_set$catch$5 0000000180038d40     funcs.obj
 0002:00014d40       $unwind$_wrap_func_parent_iterator_t_set$catch$2 0000000180038d40     funcs.obj
 0002:00014d40       $unwind$_wrap_func_parent_iterator_t_set$catch$1 0000000180038d40     funcs.obj
 0002:00014d40       $unwind$_wrap_func_parent_iterator_t_set$catch$0 0000000180038d40     funcs.obj
 0002:00014d40       $unwind$_wrap_func_parent_iterator_t_set$catch$3 0000000180038d40     funcs.obj
 0002:00014d40       $unwind$_wrap_func_parent_iterator_t_set$catch$4 0000000180038d40     funcs.obj
 0002:00014d50       $unwind$_wrap_func_parent_iterator_t_parent 0000000180038d50     funcs.obj
 0002:00014d6c       $tryMap$_wrap_func_parent_iterator_t_parent 0000000180038d6c     funcs.obj
 0002:00014d80       $handlerMap$0$_wrap_func_parent_iterator_t_parent 0000000180038d80     funcs.obj
 0002:00014df8       $ip2state$_wrap_func_parent_iterator_t_parent 0000000180038df8     funcs.obj
 0002:00014e18       $unwind$_wrap_func_parent_iterator_t_parent$catch$5 0000000180038e18     funcs.obj
 0002:00014e18       $unwind$_wrap_func_parent_iterator_t_parent$catch$4 0000000180038e18     funcs.obj
 0002:00014e18       $unwind$_wrap_func_parent_iterator_t_parent$catch$0 0000000180038e18     funcs.obj
 0002:00014e18       $unwind$_wrap_func_parent_iterator_t_parent$catch$1 0000000180038e18     funcs.obj
 0002:00014e18       $unwind$_wrap_func_parent_iterator_t_parent$catch$2 0000000180038e18     funcs.obj
 0002:00014e18       $unwind$_wrap_func_parent_iterator_t_parent$catch$3 0000000180038e18     funcs.obj
 0002:00014e28       $unwind$_wrap_func_parent_iterator_t_first 0000000180038e28     funcs.obj
 0002:00014e48       $tryMap$_wrap_func_parent_iterator_t_first 0000000180038e48     funcs.obj
 0002:00014e5c       $handlerMap$0$_wrap_func_parent_iterator_t_first 0000000180038e5c     funcs.obj
 0002:00014ed8       $ip2state$_wrap_func_parent_iterator_t_first 0000000180038ed8     funcs.obj
 0002:00014ef8       $unwind$_wrap_func_parent_iterator_t_first$catch$3 0000000180038ef8     funcs.obj
 0002:00014ef8       $unwind$_wrap_func_parent_iterator_t_first$catch$4 0000000180038ef8     funcs.obj
 0002:00014ef8       $unwind$_wrap_func_parent_iterator_t_first$catch$0 0000000180038ef8     funcs.obj
 0002:00014ef8       $unwind$_wrap_func_parent_iterator_t_first$catch$2 0000000180038ef8     funcs.obj
 0002:00014ef8       $unwind$_wrap_func_parent_iterator_t_first$catch$1 0000000180038ef8     funcs.obj
 0002:00014ef8       $unwind$_wrap_func_parent_iterator_t_first$catch$5 0000000180038ef8     funcs.obj
 0002:00014f08       $unwind$_wrap_func_parent_iterator_t_last 0000000180038f08     funcs.obj
 0002:00014f24       $tryMap$_wrap_func_parent_iterator_t_last 0000000180038f24     funcs.obj
 0002:00014f38       $handlerMap$0$_wrap_func_parent_iterator_t_last 0000000180038f38     funcs.obj
 0002:00014fb0       $ip2state$_wrap_func_parent_iterator_t_last 0000000180038fb0     funcs.obj
 0002:00014fd0       $unwind$_wrap_func_parent_iterator_t_last$catch$3 0000000180038fd0     funcs.obj
 0002:00014fd0       $unwind$_wrap_func_parent_iterator_t_last$catch$1 0000000180038fd0     funcs.obj
 0002:00014fd0       $unwind$_wrap_func_parent_iterator_t_last$catch$2 0000000180038fd0     funcs.obj
 0002:00014fd0       $unwind$_wrap_func_parent_iterator_t_last$catch$5 0000000180038fd0     funcs.obj
 0002:00014fd0       $unwind$_wrap_func_parent_iterator_t_last$catch$4 0000000180038fd0     funcs.obj
 0002:00014fd0       $unwind$_wrap_func_parent_iterator_t_last$catch$0 0000000180038fd0     funcs.obj
 0002:00014fe0       $unwind$_wrap_func_parent_iterator_t_next 0000000180038fe0     funcs.obj
 0002:00015000       $tryMap$_wrap_func_parent_iterator_t_next 0000000180039000     funcs.obj
 0002:00015014       $handlerMap$0$_wrap_func_parent_iterator_t_next 0000000180039014     funcs.obj
 0002:00015090       $ip2state$_wrap_func_parent_iterator_t_next 0000000180039090     funcs.obj
 0002:000150b0       $unwind$_wrap_func_parent_iterator_t_next$catch$2 00000001800390b0     funcs.obj
 0002:000150b0       $unwind$_wrap_func_parent_iterator_t_next$catch$3 00000001800390b0     funcs.obj
 0002:000150b0       $unwind$_wrap_func_parent_iterator_t_next$catch$5 00000001800390b0     funcs.obj
 0002:000150b0       $unwind$_wrap_func_parent_iterator_t_next$catch$4 00000001800390b0     funcs.obj
 0002:000150b0       $unwind$_wrap_func_parent_iterator_t_next$catch$0 00000001800390b0     funcs.obj
 0002:000150b0       $unwind$_wrap_func_parent_iterator_t_next$catch$1 00000001800390b0     funcs.obj
 0002:000150c0       $unwind$_wrap_func_parent_iterator_t_prev 00000001800390c0     funcs.obj
 0002:000150e0       $tryMap$_wrap_func_parent_iterator_t_prev 00000001800390e0     funcs.obj
 0002:000150f4       $handlerMap$0$_wrap_func_parent_iterator_t_prev 00000001800390f4     funcs.obj
 0002:00015170       $ip2state$_wrap_func_parent_iterator_t_prev 0000000180039170     funcs.obj
 0002:00015190       $unwind$_wrap_func_parent_iterator_t_prev$catch$2 0000000180039190     funcs.obj
 0002:00015190       $unwind$_wrap_func_parent_iterator_t_prev$catch$3 0000000180039190     funcs.obj
 0002:00015190       $unwind$_wrap_func_parent_iterator_t_prev$catch$4 0000000180039190     funcs.obj
 0002:00015190       $unwind$_wrap_func_parent_iterator_t_prev$catch$5 0000000180039190     funcs.obj
 0002:00015190       $unwind$_wrap_func_parent_iterator_t_prev$catch$1 0000000180039190     funcs.obj
 0002:00015190       $unwind$_wrap_func_parent_iterator_t_prev$catch$0 0000000180039190     funcs.obj
 0002:000151a0       $unwind$_wrap_func_parent_iterator_t_reset_fnt 00000001800391a0     funcs.obj
 0002:000151c0       $tryMap$_wrap_func_parent_iterator_t_reset_fnt 00000001800391c0     funcs.obj
 0002:000151d4       $handlerMap$0$_wrap_func_parent_iterator_t_reset_fnt 00000001800391d4     funcs.obj
 0002:00015250       $ip2state$_wrap_func_parent_iterator_t_reset_fnt 0000000180039250     funcs.obj
 0002:00015278       $unwind$_wrap_func_parent_iterator_t_reset_fnt$catch$5 0000000180039278     funcs.obj
 0002:00015278       $unwind$_wrap_func_parent_iterator_t_reset_fnt$catch$3 0000000180039278     funcs.obj
 0002:00015278       $unwind$_wrap_func_parent_iterator_t_reset_fnt$catch$2 0000000180039278     funcs.obj
 0002:00015278       $unwind$_wrap_func_parent_iterator_t_reset_fnt$catch$1 0000000180039278     funcs.obj
 0002:00015278       $unwind$_wrap_func_parent_iterator_t_reset_fnt$catch$0 0000000180039278     funcs.obj
 0002:00015278       $unwind$_wrap_func_parent_iterator_t_reset_fnt$catch$4 0000000180039278     funcs.obj
 0002:00015288       $unwind$_wrap_get_prev_func_addr 0000000180039288     funcs.obj
 0002:000152a4       $tryMap$_wrap_get_prev_func_addr 00000001800392a4     funcs.obj
 0002:000152b8       $handlerMap$0$_wrap_get_prev_func_addr 00000001800392b8     funcs.obj
 0002:00015330       $ip2state$_wrap_get_prev_func_addr 0000000180039330     funcs.obj
 0002:00015350       $unwind$_wrap_get_prev_func_addr$catch$2 0000000180039350     funcs.obj
 0002:00015350       $unwind$_wrap_get_prev_func_addr$catch$1 0000000180039350     funcs.obj
 0002:00015350       $unwind$_wrap_get_prev_func_addr$catch$5 0000000180039350     funcs.obj
 0002:00015350       $unwind$_wrap_get_prev_func_addr$catch$4 0000000180039350     funcs.obj
 0002:00015350       $unwind$_wrap_get_prev_func_addr$catch$0 0000000180039350     funcs.obj
 0002:00015350       $unwind$_wrap_get_prev_func_addr$catch$3 0000000180039350     funcs.obj
 0002:00015360       $unwind$_wrap_get_next_func_addr 0000000180039360     funcs.obj
 0002:0001537c       $tryMap$_wrap_get_next_func_addr 000000018003937c     funcs.obj
 0002:00015390       $handlerMap$0$_wrap_get_next_func_addr 0000000180039390     funcs.obj
 0002:00015408       $ip2state$_wrap_get_next_func_addr 0000000180039408     funcs.obj
 0002:00015428       $unwind$_wrap_get_next_func_addr$catch$4 0000000180039428     funcs.obj
 0002:00015428       $unwind$_wrap_get_next_func_addr$catch$5 0000000180039428     funcs.obj
 0002:00015428       $unwind$_wrap_get_next_func_addr$catch$0 0000000180039428     funcs.obj
 0002:00015428       $unwind$_wrap_get_next_func_addr$catch$3 0000000180039428     funcs.obj
 0002:00015428       $unwind$_wrap_get_next_func_addr$catch$2 0000000180039428     funcs.obj
 0002:00015428       $unwind$_wrap_get_next_func_addr$catch$1 0000000180039428     funcs.obj
 0002:00015438       $unwind$_wrap_read_regargs 0000000180039438     funcs.obj
 0002:00015454       $tryMap$_wrap_read_regargs 0000000180039454     funcs.obj
 0002:00015468       $handlerMap$0$_wrap_read_regargs 0000000180039468     funcs.obj
 0002:000154e0       $ip2state$_wrap_read_regargs 00000001800394e0     funcs.obj
 0002:00015500       $unwind$_wrap_read_regargs$catch$4 0000000180039500     funcs.obj
 0002:00015500       $unwind$_wrap_read_regargs$catch$5 0000000180039500     funcs.obj
 0002:00015500       $unwind$_wrap_read_regargs$catch$0 0000000180039500     funcs.obj
 0002:00015500       $unwind$_wrap_read_regargs$catch$3 0000000180039500     funcs.obj
 0002:00015500       $unwind$_wrap_read_regargs$catch$2 0000000180039500     funcs.obj
 0002:00015500       $unwind$_wrap_read_regargs$catch$1 0000000180039500     funcs.obj
 0002:00015510       $unwind$_wrap_add_regarg   0000000180039510     funcs.obj
 0002:00015538       $tryMap$_wrap_add_regarg   0000000180039538     funcs.obj
 0002:0001554c       $handlerMap$0$_wrap_add_regarg 000000018003954c     funcs.obj
 0002:000155c8       $ip2state$_wrap_add_regarg 00000001800395c8     funcs.obj
 0002:000155f8       $unwind$_wrap_add_regarg$catch$4 00000001800395f8     funcs.obj
 0002:000155f8       $unwind$_wrap_add_regarg$catch$3 00000001800395f8     funcs.obj
 0002:000155f8       $unwind$_wrap_add_regarg$catch$5 00000001800395f8     funcs.obj
 0002:000155f8       $unwind$_wrap_add_regarg$catch$2 00000001800395f8     funcs.obj
 0002:000155f8       $unwind$_wrap_add_regarg$catch$1 00000001800395f8     funcs.obj
 0002:000155f8       $unwind$_wrap_add_regarg$catch$0 00000001800395f8     funcs.obj
 0002:00015608       $unwind$_wrap_plan_to_apply_idasgn 0000000180039608     funcs.obj
 0002:00015620       $tryMap$_wrap_plan_to_apply_idasgn 0000000180039620     funcs.obj
 0002:00015634       $handlerMap$0$_wrap_plan_to_apply_idasgn 0000000180039634     funcs.obj
 0002:000156b0       $ip2state$_wrap_plan_to_apply_idasgn 00000001800396b0     funcs.obj
 0002:000156d8       $unwind$_wrap_plan_to_apply_idasgn$catch$4 00000001800396d8     funcs.obj
 0002:000156d8       $unwind$_wrap_plan_to_apply_idasgn$catch$3 00000001800396d8     funcs.obj
 0002:000156d8       $unwind$_wrap_plan_to_apply_idasgn$catch$2 00000001800396d8     funcs.obj
 0002:000156d8       $unwind$_wrap_plan_to_apply_idasgn$catch$1 00000001800396d8     funcs.obj
 0002:000156d8       $unwind$_wrap_plan_to_apply_idasgn$catch$0 00000001800396d8     funcs.obj
 0002:000156d8       $unwind$_wrap_plan_to_apply_idasgn$catch$5 00000001800396d8     funcs.obj
 0002:000156e8       $unwind$_wrap_apply_idasgn_to 00000001800396e8     funcs.obj
 0002:00015708       $tryMap$_wrap_apply_idasgn_to 0000000180039708     funcs.obj
 0002:0001571c       $handlerMap$0$_wrap_apply_idasgn_to 000000018003971c     funcs.obj
 0002:00015798       $ip2state$_wrap_apply_idasgn_to 0000000180039798     funcs.obj
 0002:000157c0       $unwind$_wrap_apply_idasgn_to$catch$5 00000001800397c0     funcs.obj
 0002:000157c0       $unwind$_wrap_apply_idasgn_to$catch$4 00000001800397c0     funcs.obj
 0002:000157c0       $unwind$_wrap_apply_idasgn_to$catch$3 00000001800397c0     funcs.obj
 0002:000157c0       $unwind$_wrap_apply_idasgn_to$catch$2 00000001800397c0     funcs.obj
 0002:000157c0       $unwind$_wrap_apply_idasgn_to$catch$1 00000001800397c0     funcs.obj
 0002:000157c0       $unwind$_wrap_apply_idasgn_to$catch$0 00000001800397c0     funcs.obj
 0002:000157d0       $unwind$_wrap_get_idasgn_qty 00000001800397d0     funcs.obj
 0002:000157e0       $tryMap$_wrap_get_idasgn_qty 00000001800397e0     funcs.obj
 0002:000157f4       $handlerMap$0$_wrap_get_idasgn_qty 00000001800397f4     funcs.obj
 0002:00015870       $ip2state$_wrap_get_idasgn_qty 0000000180039870     funcs.obj
 0002:00015888       $unwind$_wrap_get_idasgn_qty$catch$4 0000000180039888     funcs.obj
 0002:00015888       $unwind$_wrap_get_idasgn_qty$catch$5 0000000180039888     funcs.obj
 0002:00015888       $unwind$_wrap_get_idasgn_qty$catch$0 0000000180039888     funcs.obj
 0002:00015888       $unwind$_wrap_get_idasgn_qty$catch$2 0000000180039888     funcs.obj
 0002:00015888       $unwind$_wrap_get_idasgn_qty$catch$3 0000000180039888     funcs.obj
 0002:00015888       $unwind$_wrap_get_idasgn_qty$catch$1 0000000180039888     funcs.obj
 0002:00015898       $unwind$_wrap_get_current_idasgn 0000000180039898     funcs.obj
 0002:000158a8       $tryMap$_wrap_get_current_idasgn 00000001800398a8     funcs.obj
 0002:000158bc       $handlerMap$0$_wrap_get_current_idasgn 00000001800398bc     funcs.obj
 0002:00015938       $ip2state$_wrap_get_current_idasgn 0000000180039938     funcs.obj
 0002:00015950       $unwind$_wrap_get_current_idasgn$catch$2 0000000180039950     funcs.obj
 0002:00015950       $unwind$_wrap_get_current_idasgn$catch$0 0000000180039950     funcs.obj
 0002:00015950       $unwind$_wrap_get_current_idasgn$catch$1 0000000180039950     funcs.obj
 0002:00015950       $unwind$_wrap_get_current_idasgn$catch$5 0000000180039950     funcs.obj
 0002:00015950       $unwind$_wrap_get_current_idasgn$catch$3 0000000180039950     funcs.obj
 0002:00015950       $unwind$_wrap_get_current_idasgn$catch$4 0000000180039950     funcs.obj
 0002:00015960       $unwind$_wrap_calc_idasgn_state 0000000180039960     funcs.obj
 0002:00015974       $tryMap$_wrap_calc_idasgn_state 0000000180039974     funcs.obj
 0002:00015988       $handlerMap$0$_wrap_calc_idasgn_state 0000000180039988     funcs.obj
 0002:00015a00       $ip2state$_wrap_calc_idasgn_state 0000000180039a00     funcs.obj
 0002:00015a18       $unwind$_wrap_calc_idasgn_state$catch$2 0000000180039a18     funcs.obj
 0002:00015a18       $unwind$_wrap_calc_idasgn_state$catch$1 0000000180039a18     funcs.obj
 0002:00015a18       $unwind$_wrap_calc_idasgn_state$catch$0 0000000180039a18     funcs.obj
 0002:00015a18       $unwind$_wrap_calc_idasgn_state$catch$3 0000000180039a18     funcs.obj
 0002:00015a18       $unwind$_wrap_calc_idasgn_state$catch$4 0000000180039a18     funcs.obj
 0002:00015a18       $unwind$_wrap_calc_idasgn_state$catch$5 0000000180039a18     funcs.obj
 0002:00015a28       $unwind$_wrap_del_idasgn   0000000180039a28     funcs.obj
 0002:00015a3c       $tryMap$_wrap_del_idasgn   0000000180039a3c     funcs.obj
 0002:00015a50       $handlerMap$0$_wrap_del_idasgn 0000000180039a50     funcs.obj
 0002:00015ac8       $ip2state$_wrap_del_idasgn 0000000180039ac8     funcs.obj
 0002:00015ae0       $unwind$_wrap_del_idasgn$catch$5 0000000180039ae0     funcs.obj
 0002:00015ae0       $unwind$_wrap_del_idasgn$catch$4 0000000180039ae0     funcs.obj
 0002:00015ae0       $unwind$_wrap_del_idasgn$catch$3 0000000180039ae0     funcs.obj
 0002:00015ae0       $unwind$_wrap_del_idasgn$catch$2 0000000180039ae0     funcs.obj
 0002:00015ae0       $unwind$_wrap_del_idasgn$catch$1 0000000180039ae0     funcs.obj
 0002:00015ae0       $unwind$_wrap_del_idasgn$catch$0 0000000180039ae0     funcs.obj
 0002:00015af0       $unwind$_wrap_get_idasgn_title 0000000180039af0     funcs.obj
 0002:00015b0c       $stateUnwindMap$_wrap_get_idasgn_title 0000000180039b0c     funcs.obj
 0002:00015b24       $tryMap$_wrap_get_idasgn_title 0000000180039b24     funcs.obj
 0002:00015b38       $handlerMap$0$_wrap_get_idasgn_title 0000000180039b38     funcs.obj
 0002:00015bb0       $ip2state$_wrap_get_idasgn_title 0000000180039bb0     funcs.obj
 0002:00015bd8       $unwind$_wrap_get_idasgn_title$catch$8 0000000180039bd8     funcs.obj
 0002:00015bd8       $unwind$_wrap_get_idasgn_title$catch$7 0000000180039bd8     funcs.obj
 0002:00015bd8       $unwind$_wrap_get_idasgn_title$catch$6 0000000180039bd8     funcs.obj
 0002:00015bd8       $unwind$_wrap_get_idasgn_title$catch$5 0000000180039bd8     funcs.obj
 0002:00015bd8       $unwind$_wrap_get_idasgn_title$catch$4 0000000180039bd8     funcs.obj
 0002:00015bd8       $unwind$_wrap_get_idasgn_title$catch$3 0000000180039bd8     funcs.obj
 0002:00015be8       $unwind$_wrap_apply_startup_sig 0000000180039be8     funcs.obj
 0002:00015c00       $tryMap$_wrap_apply_startup_sig 0000000180039c00     funcs.obj
 0002:00015c14       $handlerMap$0$_wrap_apply_startup_sig 0000000180039c14     funcs.obj
 0002:00015c90       $ip2state$_wrap_apply_startup_sig 0000000180039c90     funcs.obj
 0002:00015cb8       $unwind$_wrap_apply_startup_sig$catch$2 0000000180039cb8     funcs.obj
 0002:00015cb8       $unwind$_wrap_apply_startup_sig$catch$5 0000000180039cb8     funcs.obj
 0002:00015cb8       $unwind$_wrap_apply_startup_sig$catch$4 0000000180039cb8     funcs.obj
 0002:00015cb8       $unwind$_wrap_apply_startup_sig$catch$3 0000000180039cb8     funcs.obj
 0002:00015cb8       $unwind$_wrap_apply_startup_sig$catch$0 0000000180039cb8     funcs.obj
 0002:00015cb8       $unwind$_wrap_apply_startup_sig$catch$1 0000000180039cb8     funcs.obj
 0002:00015cc8       $unwind$_wrap_try_to_add_libfunc 0000000180039cc8     funcs.obj
 0002:00015cdc       $tryMap$_wrap_try_to_add_libfunc 0000000180039cdc     funcs.obj
 0002:00015cf0       $handlerMap$0$_wrap_try_to_add_libfunc 0000000180039cf0     funcs.obj
 0002:00015d68       $ip2state$_wrap_try_to_add_libfunc 0000000180039d68     funcs.obj
 0002:00015d80       $unwind$_wrap_try_to_add_libfunc$catch$4 0000000180039d80     funcs.obj
 0002:00015d80       $unwind$_wrap_try_to_add_libfunc$catch$2 0000000180039d80     funcs.obj
 0002:00015d80       $unwind$_wrap_try_to_add_libfunc$catch$0 0000000180039d80     funcs.obj
 0002:00015d80       $unwind$_wrap_try_to_add_libfunc$catch$1 0000000180039d80     funcs.obj
 0002:00015d80       $unwind$_wrap_try_to_add_libfunc$catch$3 0000000180039d80     funcs.obj
 0002:00015d80       $unwind$_wrap_try_to_add_libfunc$catch$5 0000000180039d80     funcs.obj
 0002:00015d90       $unwind$_wrap_get_fchunk_referer 0000000180039d90     funcs.obj
 0002:00015da4       $tryMap$_wrap_get_fchunk_referer 0000000180039da4     funcs.obj
 0002:00015db8       $handlerMap$0$_wrap_get_fchunk_referer 0000000180039db8     funcs.obj
 0002:00015e30       $ip2state$_wrap_get_fchunk_referer 0000000180039e30     funcs.obj
 0002:00015e48       $unwind$_wrap_get_fchunk_referer$catch$2 0000000180039e48     funcs.obj
 0002:00015e48       $unwind$_wrap_get_fchunk_referer$catch$5 0000000180039e48     funcs.obj
 0002:00015e48       $unwind$_wrap_get_fchunk_referer$catch$4 0000000180039e48     funcs.obj
 0002:00015e48       $unwind$_wrap_get_fchunk_referer$catch$0 0000000180039e48     funcs.obj
 0002:00015e48       $unwind$_wrap_get_fchunk_referer$catch$3 0000000180039e48     funcs.obj
 0002:00015e48       $unwind$_wrap_get_fchunk_referer$catch$1 0000000180039e48     funcs.obj
 0002:00015e58       $unwind$_wrap_get_idasgn_desc 0000000180039e58     funcs.obj
 0002:00015e6c       $tryMap$_wrap_get_idasgn_desc 0000000180039e6c     funcs.obj
 0002:00015e80       $handlerMap$0$_wrap_get_idasgn_desc 0000000180039e80     funcs.obj
 0002:00015ef8       $ip2state$_wrap_get_idasgn_desc 0000000180039ef8     funcs.obj
 0002:00015f10       $unwind$_wrap_get_idasgn_desc$catch$6 0000000180039f10     funcs.obj
 0002:00015f10       $unwind$_wrap_get_idasgn_desc$catch$8 0000000180039f10     funcs.obj
 0002:00015f10       $unwind$_wrap_get_idasgn_desc$catch$7 0000000180039f10     funcs.obj
 0002:00015f10       $unwind$_wrap_get_idasgn_desc$catch$9 0000000180039f10     funcs.obj
 0002:00015f10       $unwind$_wrap_get_idasgn_desc$catch$10 0000000180039f10     funcs.obj
 0002:00015f10       $unwind$_wrap_get_idasgn_desc$catch$11 0000000180039f10     funcs.obj
 0002:00015f20       $unwind$_wrap_get_idasgn_desc_with_matches 0000000180039f20     funcs.obj
 0002:00015f34       $tryMap$_wrap_get_idasgn_desc_with_matches 0000000180039f34     funcs.obj
 0002:00015f48       $handlerMap$0$_wrap_get_idasgn_desc_with_matches 0000000180039f48     funcs.obj
 0002:00015fc0       $ip2state$_wrap_get_idasgn_desc_with_matches 0000000180039fc0     funcs.obj
 0002:00015fd8       $unwind$_wrap_get_idasgn_desc_with_matches$catch$6 0000000180039fd8     funcs.obj
 0002:00015fd8       $unwind$_wrap_get_idasgn_desc_with_matches$catch$11 0000000180039fd8     funcs.obj
 0002:00015fd8       $unwind$_wrap_get_idasgn_desc_with_matches$catch$9 0000000180039fd8     funcs.obj
 0002:00015fd8       $unwind$_wrap_get_idasgn_desc_with_matches$catch$8 0000000180039fd8     funcs.obj
 0002:00015fd8       $unwind$_wrap_get_idasgn_desc_with_matches$catch$7 0000000180039fd8     funcs.obj
 0002:00015fd8       $unwind$_wrap_get_idasgn_desc_with_matches$catch$10 0000000180039fd8     funcs.obj
 0002:00015fe8       $unwind$_wrap_func_t__from_ptrval__ 0000000180039fe8     funcs.obj
 0002:00015ff8       $tryMap$_wrap_func_t__from_ptrval__ 0000000180039ff8     funcs.obj
 0002:0001600c       $handlerMap$0$_wrap_func_t__from_ptrval__ 000000018003a00c     funcs.obj
 0002:00016088       $ip2state$_wrap_func_t__from_ptrval__ 000000018003a088     funcs.obj
 0002:000160a0       $unwind$_wrap_func_t__from_ptrval__$catch$5 000000018003a0a0     funcs.obj
 0002:000160a0       $unwind$_wrap_func_t__from_ptrval__$catch$4 000000018003a0a0     funcs.obj
 0002:000160a0       $unwind$_wrap_func_t__from_ptrval__$catch$1 000000018003a0a0     funcs.obj
 0002:000160a0       $unwind$_wrap_func_t__from_ptrval__$catch$0 000000018003a0a0     funcs.obj
 0002:000160a0       $unwind$_wrap_func_t__from_ptrval__$catch$2 000000018003a0a0     funcs.obj
 0002:000160a0       $unwind$_wrap_func_t__from_ptrval__$catch$3 000000018003a0a0     funcs.obj
 0002:000160b0       $unwind$SWIG_InitializeModule 000000018003a0b0     funcs.obj
 0002:000160c0       $chain$1$SWIG_InitializeModule 000000018003a0c0     funcs.obj
 0002:000160d4       $chain$4$SWIG_InitializeModule 000000018003a0d4     funcs.obj
 0002:000160f0       $chain$5$SWIG_InitializeModule 000000018003a0f0     funcs.obj
 0002:00016100       $chain$6$SWIG_InitializeModule 000000018003a100     funcs.obj
 0002:00016110       $unwind$SWIG_Python_FixMethods 000000018003a110     funcs.obj
 0002:0001611c       $chain$4$SWIG_Python_FixMethods 000000018003a11c     funcs.obj
 0002:00016140       $chain$5$SWIG_Python_FixMethods 000000018003a140     funcs.obj
 0002:00016150       $unwind$PyInit__ida_funcs  000000018003a150     funcs.obj
 0002:00016160       $chain$1$PyInit__ida_funcs 000000018003a160     funcs.obj
 0002:00016178       $chain$2$PyInit__ida_funcs 000000018003a178     funcs.obj
 0002:0001618c       $chain$3$PyInit__ida_funcs 000000018003a18c     funcs.obj
 0002:0001619c       $chain$4$PyInit__ida_funcs 000000018003a19c     funcs.obj
 0002:000161ac       $unwind$?__scrt_initialize_thread_safe_statics@@YAHXZ 000000018003a1ac     MSVCRT:thread_safe_statics.obj
 0002:000161c4       $stateUnwindMap$?__scrt_initialize_thread_safe_statics@@YAHXZ 000000018003a1c4     MSVCRT:thread_safe_statics.obj
 0002:000161d0       $ip2state$?__scrt_initialize_thread_safe_statics@@YAHXZ 000000018003a1d0     MSVCRT:thread_safe_statics.obj
 0002:000161d8       $unwind$__GSHandlerCheckCommon 000000018003a1d8     MSVCRT:gshandler.obj
 0002:000161e0       $unwind$__GSHandlerCheck_EH 000000018003a1e0     MSVCRT:gshandlereh.obj
 0002:000161f8       $xdatasym                  000000018003a1f8     MSVCRT:amdsecgs.obj
 0002:000161fc       $unwind$?dllmain_crt_process_attach@@YAHQEAUHINSTANCE__@@QEAX@Z 000000018003a1fc     MSVCRT:dll_dllmain.obj
 0002:00016238       $unwind$?fin$0@?0??dllmain_crt_process_attach@@YAHQEAUHINSTANCE__@@QEAX@Z@4HA 000000018003a238     MSVCRT:dll_dllmain.obj
 0002:00016238       $unwind$?fin$0@?0??dllmain_crt_process_detach@@YAH_N@Z@4HA 000000018003a238     MSVCRT:dll_dllmain.obj
 0002:00016240       $unwind$?dllmain_crt_process_detach@@YAH_N@Z 000000018003a240     MSVCRT:dll_dllmain.obj
 0002:00016278       $unwind$?dllmain_dispatch@@YAHQEAUHINSTANCE__@@KQEAX@Z 000000018003a278     MSVCRT:dll_dllmain.obj
 0002:000162a0       $unwind$?filt$0@?0??dllmain_dispatch@@YAHQEAUHINSTANCE__@@KQEAX@Z@4HA 000000018003a2a0     MSVCRT:dll_dllmain.obj
 0002:000162a8       $unwind$__scrt_is_nonwritable_in_current_image 000000018003a2a8     MSVCRT:utility.obj
 0002:000162c8       $unwind$__scrt_is_nonwritable_in_current_image$filt$0 000000018003a2c8     MSVCRT:utility.obj
 0002:000162d0       $unwind$__scrt_initialize_onexit_tables 000000018003a2d0     MSVCRT:utility.obj
 0002:000162d8       $unwind$__scrt_dllmain_exception_filter 000000018003a2d8     MSVCRT:utility.obj
 0002:000162ec       $unwind$__scrt_fastfail    000000018003a2ec     MSVCRT:utility_desktop.obj
 0002:000162fc       $unwind$__report_gsfailure 000000018003a2fc     MSVCRT:gs_report.obj
 0002:00016304       $unwind$capture_previous_context 000000018003a304     MSVCRT:gs_report.obj
 0002:00016310       $unwind$__security_init_cookie 000000018003a310     MSVCRT:gs_support.obj
 0002:0001631c       $unwind$__isa_available_init 000000018003a31c     MSVCRT:cpu_disp.obj
 0002:00016330       $xdatasym                  000000018003a330     MSVCRT:guard_dispatch.obj
 0002:000164c0       .edata                     000000018003a4c0     _ida_funcs.exp
 0002:000164e8       rgpv                       000000018003a4e8     _ida_funcs.exp
 0002:000164ec       rgszName                   000000018003a4ec     _ida_funcs.exp
 0002:000164f0       rgwOrd                     000000018003a4f0     _ida_funcs.exp
 0002:000164f2       szName                     000000018003a4f2     _ida_funcs.exp
 0002:00016501       $N00001                    000000018003a501     _ida_funcs.exp
 0002:0001714e       .idata$6                   000000018003b14e     ida:ida.dll
 0002:00017834       .idata$6                   000000018003b834     python38:python38.dll
 0002:00017866       .idata$6                   000000018003b866     python:python.dll
 0002:00017abe       .idata$6                   000000018003babe     kernel32:KERNEL32.dll
 0002:00017b92       .idata$6                   000000018003bb92     vcruntime:VCRUNTIME140.dll
 0002:00017cc8       .idata$6                   000000018003bcc8     ucrt:api-ms-win-crt-stdio-l1-1-0.dll
 0002:00017ce8       .idata$6                   000000018003bce8     ucrt:api-ms-win-crt-string-l1-1-0.dll
 0002:00017d0a       .idata$6                   000000018003bd0a     ucrt:api-ms-win-crt-heap-l1-1-0.dll
 0002:00017d2a       .idata$6                   000000018003bd2a     ucrt:api-ms-win-crt-runtime-l1-1-0.dll
 0003:00000000       ?swig_module@@3Uswig_module_info@@A 000000018003c000     funcs.obj
 0003:00000030       swigobject_methods         000000018003c030     funcs.obj
 0003:00000110       SwigMethods                000000018003c110     funcs.obj
 0003:00001b90       _swigt__p__qstringT_char_t 000000018003db90     funcs.obj
 0003:00001bc0       _swigt__p__qstringT_unsigned_char_t 000000018003dbc0     funcs.obj
 0003:00001bf0       _swigt__p__qstringT_unsigned_short_t 000000018003dbf0     funcs.obj
 0003:00001c20       _swigt__p_action_ctx_base_t 000000018003dc20     funcs.obj
 0003:00001c50       _swigt__p_biggest_t        000000018003dc50     funcs.obj
 0003:00001c80       _swigt__p_bool             000000018003dc80     funcs.obj
 0003:00001cb0       _swigt__p_char             000000018003dcb0     funcs.obj
 0003:00001ce0       _swigt__p_const_iterator   000000018003dce0     funcs.obj
 0003:00001d10       _swigt__p_dynamic_wrapped_array_tT_range_t_t 000000018003dd10     funcs.obj
 0003:00001d40       _swigt__p_dynamic_wrapped_array_tT_regvar_t_t 000000018003dd40     funcs.obj
 0003:00001d70       _swigt__p_dynamic_wrapped_array_tT_stkpnt_t_t 000000018003dd70     funcs.obj
 0003:00001da0       _swigt__p_f_p_TWidget_int_int_p_void__bool 000000018003dda0     funcs.obj
 0003:00001dd0       _swigt__p_f_p_TWidget_int_p_view_mouse_event_t_p_void__void 000000018003ddd0     funcs.obj
 0003:00001e00       _swigt__p_f_p_TWidget_int_p_void__bool 000000018003de00     funcs.obj
 0003:00001e30       _swigt__p_f_p_TWidget_p_lochist_entry_t_p_void__void 000000018003de30     funcs.obj
 0003:00001e60       _swigt__p_f_p_TWidget_p_q_const__lochist_entry_t_p_q_const__lochist_entry_t_r_q_const__locchange_md_t_p_void__void 000000018003de60     funcs.obj
 0003:00001e90       _swigt__p_f_p_TWidget_p_q_const__lochist_entry_t_r_q_const__locchange_md_t_p_void__int 000000018003de90     funcs.obj
 0003:00001ec0       _swigt__p_f_p_TWidget_p_q_const__place_t_int_int_p_void__void 000000018003dec0     funcs.obj
 0003:00001ef0       _swigt__p_f_p_TWidget_p_q_const__place_t_p_int_p_void__int 000000018003def0     funcs.obj
 0003:00001f20       _swigt__p_f_p_TWidget_p_q_const__place_t_p_q_const__place_t_p_void__int 000000018003df20     funcs.obj
 0003:00001f50       _swigt__p_f_p_TWidget_p_q_const__place_t_p_unsigned_int_p_void__bool 000000018003df50     funcs.obj
 0003:00001f80       _swigt__p_f_p_TWidget_p_void__int 000000018003df80     funcs.obj
 0003:00001fb0       _swigt__p_f_p_TWidget_p_void__void 000000018003dfb0     funcs.obj
 0003:00001fe0       _swigt__p_f_p_chooser_multi_t_p_sizevec_t__chooser_base_t__cbres_t 000000018003dfe0     funcs.obj
 0003:00002010       _swigt__p_f_p_chooser_t_ssize_t__chooser_t__cbret_t 000000018003e010     funcs.obj
 0003:00002040       _swigt__p_f_p_lochist_entry_t_r_q_const__lochist_entry_t_p_TWidget__bool 000000018003e040     funcs.obj
 0003:00002070       _swigt__p_f_p_q_const__char_p_void__void 000000018003e070     funcs.obj
 0003:000020a0       _swigt__p_f_p_q_const__char_r_q_const__tinfo_t_p_q_const__char_p_q_const__unsigned_long_long_p_void__int 000000018003e0a0     funcs.obj
 0003:000020d0       _swigt__p_f_p_q_const__char_v_______int 000000018003e0d0     funcs.obj
 0003:00002100       _swigt__p_f_p_void_int_va_list__ssize_t 000000018003e100     funcs.obj
 0003:00002130       _swigt__p_f_r_q_const__insn_t_p_int_p_int__bool 000000018003e130     funcs.obj
 0003:00002160       _swigt__p_f_r_q_const__insn_t_r_q_const__op_t_r_q_const__tinfo_t_p_q_const__char__bool 000000018003e160     funcs.obj
 0003:00002190       _swigt__p_f_unsigned_int__bool 000000018003e190     funcs.obj
 0003:000021c0       _swigt__p_f_unsigned_int_p_q_const__char_unsigned_int_p_void__int 000000018003e1c0     funcs.obj
 0003:000021f0       _swigt__p_f_unsigned_int_p_void__bool 000000018003e1f0     funcs.obj
 0003:00002220       _swigt__p_f_unsigned_int_r_q_const__tinfo_t_p_void__int 000000018003e220     funcs.obj
 0003:00002250       _swigt__p_f_unsigned_int_unsigned_int__unsigned_int 000000018003e250     funcs.obj
 0003:00002280       _swigt__p_func_item_iterator_t 000000018003e280     funcs.obj
 0003:000022b0       _swigt__p_func_parent_iterator_t 000000018003e2b0     funcs.obj
 0003:000022e0       _swigt__p_func_t           000000018003e2e0     funcs.obj
 0003:00002310       _swigt__p_func_tail_iterator_t 000000018003e310     funcs.obj
 0003:00002340       _swigt__p_insn_t           000000018003e340     funcs.obj
 0003:00002370       _swigt__p_int              000000018003e370     funcs.obj
 0003:000023a0       _swigt__p_iterator         000000018003e3a0     funcs.obj
 0003:000023d0       _swigt__p_llabel_t         000000018003e3d0     funcs.obj
 0003:00002400       _swigt__p_location_t       000000018003e400     funcs.obj
 0003:00002430       _swigt__p_lock_func        000000018003e430     funcs.obj
 0003:00002460       _swigt__p_long_long        000000018003e460     funcs.obj
 0003:00002490       _swigt__p_qvectorT__qstringT_unsigned_short_t_t 000000018003e490     funcs.obj
 0003:000024c0       _swigt__p_qvectorT_argloc_t_t 000000018003e4c0     funcs.obj
 0003:000024f0       _swigt__p_qvectorT_bool_t  000000018003e4f0     funcs.obj
 0003:00002520       _swigt__p_qvectorT_channel_redir_t_t 000000018003e520     funcs.obj
 0003:00002550       _swigt__p_qvectorT_compiled_binpat_t_t 000000018003e550     funcs.obj
 0003:00002580       _swigt__p_qvectorT_funcarg_t_t 000000018003e580     funcs.obj
 0003:000025b0       _swigt__p_qvectorT_int_t   000000018003e5b0     funcs.obj
 0003:000025e0       _swigt__p_qvectorT_range_t_t 000000018003e5e0     funcs.obj
 0003:00002610       _swigt__p_rangevec_t       000000018003e610     funcs.obj
 0003:00002640       _swigt__p_qvectorT_rangeset_t_const_p_t 000000018003e640     funcs.obj
 0003:00002670       _swigt__p_qvectorT_rangeset_t_t 000000018003e670     funcs.obj
 0003:000026a0       _swigt__p_qvectorT_refinfo_desc_t_t 000000018003e6a0     funcs.obj
 0003:000026d0       _swigt__p_qvectorT_simd_info_t_t 000000018003e6d0     funcs.obj
 0003:00002700       _swigt__p_qvectorT_simpleline_t_t 000000018003e700     funcs.obj
 0003:00002730       _swigt__p_qvectorT_size_t_t 000000018003e730     funcs.obj
 0003:00002760       _swigt__p_qvectorT_tinfo_t_t 000000018003e760     funcs.obj
 0003:00002790       _swigt__p_qvectorT_type_attr_t_t 000000018003e790     funcs.obj
 0003:000027c0       _swigt__p_qvectorT_udt_member_t_t 000000018003e7c0     funcs.obj
 0003:000027f0       _swigt__p_qvectorT_unsigned_char_t 000000018003e7f0     funcs.obj
 0003:00002820       _swigt__p_relobj_t         000000018003e820     funcs.obj
 0003:00002850       _swigt__p_bytevec_t        000000018003e850     funcs.obj
 0003:00002880       _swigt__p_reloc_info_t     000000018003e880     funcs.obj
 0003:000028b0       _swigt__p_qvectorT_unsigned_int_t 000000018003e8b0     funcs.obj
 0003:000028e0       _swigt__p_range_t          000000018003e8e0     funcs.obj
 0003:00002910       _swigt__p_rangeset_t       000000018003e910     funcs.obj
 0003:00002940       _swigt__p_regarg_t         000000018003e940     funcs.obj
 0003:00002970       _swigt__p_regvar_t         000000018003e970     funcs.obj
 0003:000029a0       _swigt__p_short            000000018003e9a0     funcs.obj
 0003:000029d0       _swigt__p_signed_char      000000018003e9d0     funcs.obj
 0003:00002a00       _swigt__p_std__out_of_range 000000018003ea00     funcs.obj
 0003:00002a30       _swigt__p_stkpnt_t         000000018003ea30     funcs.obj
 0003:00002a60       _swigt__p_tinfo_t          000000018003ea60     funcs.obj
 0003:00002a90       _swigt__p_unsigned_char    000000018003ea90     funcs.obj
 0003:00002ac0       _swigt__p_unsigned_int     000000018003eac0     funcs.obj
 0003:00002af0       _swigt__p_unsigned_long_long 000000018003eaf0     funcs.obj
 0003:00002b20       _swigt__p_unsigned_short   000000018003eb20     funcs.obj
 0003:00002b50       _swigt__p_value_type       000000018003eb50     funcs.obj
 0003:00002b80       swig_type_initial          000000018003eb80     funcs.obj
 0003:00002e30       _swigc__p__qstringT_char_t 000000018003ee30     funcs.obj
 0003:00002e70       _swigc__p__qstringT_unsigned_char_t 000000018003ee70     funcs.obj
 0003:00002eb0       _swigc__p__qstringT_unsigned_short_t 000000018003eeb0     funcs.obj
 0003:00002ef0       _swigc__p_action_ctx_base_t 000000018003eef0     funcs.obj
 0003:00002f30       _swigc__p_biggest_t        000000018003ef30     funcs.obj
 0003:00002f70       _swigc__p_bool             000000018003ef70     funcs.obj
 0003:00002fb0       _swigc__p_char             000000018003efb0     funcs.obj
 0003:00002ff0       _swigc__p_const_iterator   000000018003eff0     funcs.obj
 0003:00003030       _swigc__p_dynamic_wrapped_array_tT_range_t_t 000000018003f030     funcs.obj
 0003:00003070       _swigc__p_dynamic_wrapped_array_tT_regvar_t_t 000000018003f070     funcs.obj
 0003:000030b0       _swigc__p_dynamic_wrapped_array_tT_stkpnt_t_t 000000018003f0b0     funcs.obj
 0003:000030f0       _swigc__p_f_p_TWidget_int_int_p_void__bool 000000018003f0f0     funcs.obj
 0003:00003130       _swigc__p_f_p_TWidget_int_p_view_mouse_event_t_p_void__void 000000018003f130     funcs.obj
 0003:00003170       _swigc__p_f_p_TWidget_int_p_void__bool 000000018003f170     funcs.obj
 0003:000031b0       _swigc__p_f_p_TWidget_p_lochist_entry_t_p_void__void 000000018003f1b0     funcs.obj
 0003:000031f0       _swigc__p_f_p_TWidget_p_q_const__lochist_entry_t_p_q_const__lochist_entry_t_r_q_const__locchange_md_t_p_void__void 000000018003f1f0     funcs.obj
 0003:00003230       _swigc__p_f_p_TWidget_p_q_const__lochist_entry_t_r_q_const__locchange_md_t_p_void__int 000000018003f230     funcs.obj
 0003:00003270       _swigc__p_f_p_TWidget_p_q_const__place_t_int_int_p_void__void 000000018003f270     funcs.obj
 0003:000032b0       _swigc__p_f_p_TWidget_p_q_const__place_t_p_int_p_void__int 000000018003f2b0     funcs.obj
 0003:000032f0       _swigc__p_f_p_TWidget_p_q_const__place_t_p_q_const__place_t_p_void__int 000000018003f2f0     funcs.obj
 0003:00003330       _swigc__p_f_p_TWidget_p_q_const__place_t_p_unsigned_int_p_void__bool 000000018003f330     funcs.obj
 0003:00003370       _swigc__p_f_p_TWidget_p_void__int 000000018003f370     funcs.obj
 0003:000033b0       _swigc__p_f_p_TWidget_p_void__void 000000018003f3b0     funcs.obj
 0003:000033f0       _swigc__p_f_p_chooser_multi_t_p_sizevec_t__chooser_base_t__cbres_t 000000018003f3f0     funcs.obj
 0003:00003430       _swigc__p_f_p_chooser_t_ssize_t__chooser_t__cbret_t 000000018003f430     funcs.obj
 0003:00003470       _swigc__p_f_p_lochist_entry_t_r_q_const__lochist_entry_t_p_TWidget__bool 000000018003f470     funcs.obj
 0003:000034b0       _swigc__p_f_p_q_const__char_p_void__void 000000018003f4b0     funcs.obj
 0003:000034f0       _swigc__p_f_p_q_const__char_r_q_const__tinfo_t_p_q_const__char_p_q_const__unsigned_long_long_p_void__int 000000018003f4f0     funcs.obj
 0003:00003530       _swigc__p_f_p_q_const__char_v_______int 000000018003f530     funcs.obj
 0003:00003570       _swigc__p_f_p_void_int_va_list__ssize_t 000000018003f570     funcs.obj
 0003:000035b0       _swigc__p_f_r_q_const__insn_t_p_int_p_int__bool 000000018003f5b0     funcs.obj
 0003:000035f0       _swigc__p_f_r_q_const__insn_t_r_q_const__op_t_r_q_const__tinfo_t_p_q_const__char__bool 000000018003f5f0     funcs.obj
 0003:00003630       _swigc__p_f_unsigned_int__bool 000000018003f630     funcs.obj
 0003:00003670       _swigc__p_f_unsigned_int_p_q_const__char_unsigned_int_p_void__int 000000018003f670     funcs.obj
 0003:000036b0       _swigc__p_f_unsigned_int_p_void__bool 000000018003f6b0     funcs.obj
 0003:000036f0       _swigc__p_f_unsigned_int_r_q_const__tinfo_t_p_void__int 000000018003f6f0     funcs.obj
 0003:00003730       _swigc__p_f_unsigned_int_unsigned_int__unsigned_int 000000018003f730     funcs.obj
 0003:00003770       _swigc__p_func_item_iterator_t 000000018003f770     funcs.obj
 0003:000037b0       _swigc__p_func_parent_iterator_t 000000018003f7b0     funcs.obj
 0003:000037f0       _swigc__p_func_t           000000018003f7f0     funcs.obj
 0003:00003830       _swigc__p_func_tail_iterator_t 000000018003f830     funcs.obj
 0003:00003870       _swigc__p_insn_t           000000018003f870     funcs.obj
 0003:000038b0       _swigc__p_int              000000018003f8b0     funcs.obj
 0003:000038f0       _swigc__p_iterator         000000018003f8f0     funcs.obj
 0003:00003930       _swigc__p_llabel_t         000000018003f930     funcs.obj
 0003:00003970       _swigc__p_location_t       000000018003f970     funcs.obj
 0003:000039b0       _swigc__p_lock_func        000000018003f9b0     funcs.obj
 0003:000039f0       _swigc__p_long_long        000000018003f9f0     funcs.obj
 0003:00003a30       _swigc__p_qvectorT__qstringT_unsigned_short_t_t 000000018003fa30     funcs.obj
 0003:00003a70       _swigc__p_qvectorT_argloc_t_t 000000018003fa70     funcs.obj
 0003:00003ab0       _swigc__p_qvectorT_bool_t  000000018003fab0     funcs.obj
 0003:00003af0       _swigc__p_qvectorT_channel_redir_t_t 000000018003faf0     funcs.obj
 0003:00003b30       _swigc__p_qvectorT_compiled_binpat_t_t 000000018003fb30     funcs.obj
 0003:00003b70       _swigc__p_qvectorT_funcarg_t_t 000000018003fb70     funcs.obj
 0003:00003bb0       _swigc__p_qvectorT_int_t   000000018003fbb0     funcs.obj
 0003:00003bf0       _swigc__p_rangevec_t       000000018003fbf0     funcs.obj
 0003:00003c30       _swigc__p_qvectorT_range_t_t 000000018003fc30     funcs.obj
 0003:00003c90       _swigc__p_qvectorT_rangeset_t_const_p_t 000000018003fc90     funcs.obj
 0003:00003cd0       _swigc__p_qvectorT_rangeset_t_t 000000018003fcd0     funcs.obj
 0003:00003d10       _swigc__p_qvectorT_refinfo_desc_t_t 000000018003fd10     funcs.obj
 0003:00003d50       _swigc__p_qvectorT_simd_info_t_t 000000018003fd50     funcs.obj
 0003:00003d90       _swigc__p_qvectorT_simpleline_t_t 000000018003fd90     funcs.obj
 0003:00003dd0       _swigc__p_qvectorT_size_t_t 000000018003fdd0     funcs.obj
 0003:00003e10       _swigc__p_qvectorT_tinfo_t_t 000000018003fe10     funcs.obj
 0003:00003e50       _swigc__p_qvectorT_type_attr_t_t 000000018003fe50     funcs.obj
 0003:00003e90       _swigc__p_qvectorT_udt_member_t_t 000000018003fe90     funcs.obj
 0003:00003ed0       _swigc__p_relobj_t         000000018003fed0     funcs.obj
 0003:00003f10       _swigc__p_bytevec_t        000000018003ff10     funcs.obj
 0003:00003f50       _swigc__p_reloc_info_t     000000018003ff50     funcs.obj
 0003:00003f90       _swigc__p_qvectorT_unsigned_char_t 000000018003ff90     funcs.obj
 0003:00004030       _swigc__p_qvectorT_unsigned_int_t 0000000180040030     funcs.obj
 0003:00004070       _swigc__p_range_t          0000000180040070     funcs.obj
 0003:000040d0       _swigc__p_rangeset_t       00000001800400d0     funcs.obj
 0003:00004110       _swigc__p_regarg_t         0000000180040110     funcs.obj
 0003:00004150       _swigc__p_regvar_t         0000000180040150     funcs.obj
 0003:00004190       _swigc__p_short            0000000180040190     funcs.obj
 0003:000041d0       _swigc__p_signed_char      00000001800401d0     funcs.obj
 0003:00004210       _swigc__p_std__out_of_range 0000000180040210     funcs.obj
 0003:00004250       _swigc__p_stkpnt_t         0000000180040250     funcs.obj
 0003:00004290       _swigc__p_tinfo_t          0000000180040290     funcs.obj
 0003:000042d0       _swigc__p_unsigned_char    00000001800402d0     funcs.obj
 0003:00004310       _swigc__p_unsigned_int     0000000180040310     funcs.obj
 0003:00004350       _swigc__p_unsigned_long_long 0000000180040350     funcs.obj
 0003:00004390       _swigc__p_unsigned_short   0000000180040390     funcs.obj
 0003:000043d0       _swigc__p_value_type       00000001800403d0     funcs.obj
 0003:00004410       swig_cast_initial          0000000180040410     funcs.obj
 0003:000046b8       ?swigobject_doc@?1??SwigPyObject_TypeOnce@@9@4PADA 00000001800406b8     funcs.obj
 0003:000046e8       ?swigpacked_doc@?1??SwigPyPacked_TypeOnce@@9@4PADA 00000001800406e8     funcs.obj
 0003:00004720       ?SWIG_module@?1??PyInit__ida_funcs@@9@4UPyModuleDef@@A 0000000180040720     funcs.obj
 0003:00004940       ?swig_types@@3PAPEAUswig_type_info@@A 0000000180040940     funcs.obj
 0003:00004bf0       Swig_This_global           0000000180040bf0     funcs.obj
 0003:00004bf8       swig_const_table           0000000180040bf8     funcs.obj
 0003:00004c30       ?type@?1??SwigPyObject_type@@9@4PEAU_typeobject@@EA 0000000180040c30     funcs.obj
 0003:00004c38       ?$TSS0@?1??SwigPyObject_type@@9@4HA 0000000180040c38     funcs.obj
 0003:00004c40       ?type@?1??SwigPyPacked_type@@9@4PEAU_typeobject@@EA 0000000180040c40     funcs.obj
 0003:00004c48       ?$TSS0@?1??SwigPyPacked_type@@9@4HA 0000000180040c48     funcs.obj
 0003:00004c50       ?type_pointer@?1??SWIG_Python_GetModule@@9@4PEAXEA 0000000180040c50     funcs.obj
 0003:00004c58       ?cache@?1??SWIG_Python_TypeCache@@9@4PEAU_object@@EA 0000000180040c58     funcs.obj
 0003:00004c60       ?$TSS0@?1??SWIG_Python_TypeCache@@9@4HA 0000000180040c60     funcs.obj
 0003:00004c64       ?init@?1??SWIG_pchar_descriptor@@YAPEAUswig_type_info@@XZ@4HA 0000000180040c64     funcs.obj
 0003:00004c68       ?info@?1??SWIG_pchar_descriptor@@YAPEAUswig_type_info@@XZ@4PEAU2@EA 0000000180040c68     funcs.obj
 0003:00004c70       ?_Tss_mutex@@3U_RTL_CRITICAL_SECTION@@A 0000000180040c70     MSVCRT:thread_safe_statics.obj
 0003:00004c98       ?_Tss_cv@@3U_RTL_CONDITION_VARIABLE@@A 0000000180040c98     MSVCRT:thread_safe_statics.obj
 0003:00004ca0       ?_Tss_event@@3PEAXEA       0000000180040ca0     MSVCRT:thread_safe_statics.obj
 0003:00004ca8       ?encoded_sleep_condition_variable_cs@@3P6AHPEAU_RTL_CONDITION_VARIABLE@@PEAU_RTL_CRITICAL_SECTION@@K@ZEA 0000000180040ca8     MSVCRT:thread_safe_statics.obj
 0003:00004cb0       ?encoded_wake_all_condition_variable@@3P6AXPEAU_RTL_CONDITION_VARIABLE@@@ZEA 0000000180040cb0     MSVCRT:thread_safe_statics.obj
 0003:00004cbc       ?__proc_attached@@3HA      0000000180040cbc     MSVCRT:dll_dllmain.obj
 0003:00004cd0       ?is_initialized_as_dll@@3_NA 0000000180040cd0     MSVCRT:utility.obj
 0003:00004cd1       ?module_local_atexit_table_initialized@@3_NA 0000000180040cd1     MSVCRT:utility.obj
 0003:00004cd8       ?module_local_atexit_table@@3U_onexit_table_t@@A 0000000180040cd8     MSVCRT:utility.obj
 0003:00004cf0       ?module_local_at_quick_exit_table@@3U_onexit_table_t@@A 0000000180040cf0     MSVCRT:utility.obj
 0003:00004d10       GS_ExceptionRecord         0000000180040d10     MSVCRT:gs_report.obj
 0003:00004db0       GS_ContextRecord           0000000180040db0     MSVCRT:gs_report.obj
 0004:00000000       $pdata$printf              0000000180042000     funcs.obj
 0004:0000000c       $pdata$SWIG_TypeClientData 000000018004200c     funcs.obj
 0004:00000018       $pdata$SWIG_MangledTypeQueryModule 0000000180042018     funcs.obj
 0004:00000024       $pdata$?SWIG_Python_str_AsChar@@YAPEADPEAU_object@@@Z 0000000180042024     funcs.obj
 0004:00000030       $pdata$0$?SWIG_Python_str_AsChar@@YAPEADPEAU_object@@@Z 0000000180042030     funcs.obj
 0004:0000003c       $pdata$1$?SWIG_Python_str_AsChar@@YAPEADPEAU_object@@@Z 000000018004203c     funcs.obj
 0004:00000048       $pdata$?SWIG_Python_RaiseOrModifyTypeError@@YAXPEBD@Z 0000000180042048     funcs.obj
 0004:00000054       $pdata$?SWIG_Python_SetErrorObj@@YAXPEAU_object@@0@Z 0000000180042054     funcs.obj
 0004:00000060       $pdata$?SWIG_Python_UnpackTuple@@YA_JPEAU_object@@PEBD_J2PEAPEAU1@@Z 0000000180042060     funcs.obj
 0004:0000006c       $pdata$0$?SWIG_Python_UnpackTuple@@YA_JPEAU_object@@PEBD_J2PEAPEAU1@@Z 000000018004206c     funcs.obj
 0004:00000078       $pdata$1$?SWIG_Python_UnpackTuple@@YA_JPEAU_object@@PEBD_J2PEAPEAU1@@Z 0000000180042078     funcs.obj
 0004:00000084       $pdata$SwigPyClientData_New 0000000180042084     funcs.obj
 0004:00000090       $pdata$2$SwigPyClientData_New 0000000180042090     funcs.obj
 0004:0000009c       $pdata$3$SwigPyClientData_New 000000018004209c     funcs.obj
 0004:000000a8       $pdata$SwigPyObject_repr   00000001800420a8     funcs.obj
 0004:000000b4       $pdata$0$SwigPyObject_repr 00000001800420b4     funcs.obj
 0004:000000c0       $pdata$1$SwigPyObject_repr 00000001800420c0     funcs.obj
 0004:000000cc       $pdata$SwigPyObject_type   00000001800420cc     funcs.obj
 0004:000000d8       $pdata$SwigPyObject_Check  00000001800420d8     funcs.obj
 0004:000000e4       $pdata$SwigPyObject_New    00000001800420e4     funcs.obj
 0004:000000f0       $pdata$SwigPyObject_dealloc 00000001800420f0     funcs.obj
 0004:000000fc       $pdata$2$SwigPyObject_dealloc 00000001800420fc     funcs.obj
 0004:00000108       $pdata$3$SwigPyObject_dealloc 0000000180042108     funcs.obj
 0004:00000114       $pdata$SwigPyObject_append 0000000180042114     funcs.obj
 0004:00000120       $pdata$SwigPyObject_own    0000000180042120     funcs.obj
 0004:0000012c       $pdata$0$SwigPyObject_own  000000018004212c     funcs.obj
 0004:00000138       $pdata$2$SwigPyObject_own  0000000180042138     funcs.obj
 0004:00000144       $pdata$SwigPyPacked_repr   0000000180042144     funcs.obj
 0004:00000150       $pdata$0$SwigPyPacked_repr 0000000180042150     funcs.obj
 0004:0000015c       $pdata$1$SwigPyPacked_repr 000000018004215c     funcs.obj
 0004:00000168       $pdata$SwigPyPacked_str    0000000180042168     funcs.obj
 0004:00000174       $pdata$0$SwigPyPacked_str  0000000180042174     funcs.obj
 0004:00000180       $pdata$1$SwigPyPacked_str  0000000180042180     funcs.obj
 0004:0000018c       $pdata$SwigPyPacked_type   000000018004218c     funcs.obj
 0004:00000198       $pdata$SwigPyPacked_Check  0000000180042198     funcs.obj
 0004:000001a4       $pdata$SwigPyPacked_dealloc 00000001800421a4     funcs.obj
 0004:000001b0       $pdata$SWIG_This           00000001800421b0     funcs.obj
 0004:000001bc       $pdata$SWIG_Python_GetSwigThis 00000001800421bc     funcs.obj
 0004:000001c8       $pdata$SWIG_Python_ConvertPtrAndOwn 00000001800421c8     funcs.obj
 0004:000001d4       $pdata$0$SWIG_Python_ConvertPtrAndOwn 00000001800421d4     funcs.obj
 0004:000001e0       $pdata$4$SWIG_Python_ConvertPtrAndOwn 00000001800421e0     funcs.obj
 0004:000001ec       $pdata$SWIG_Python_ConvertFunctionPtr 00000001800421ec     funcs.obj
 0004:000001f8       $pdata$0$SWIG_Python_ConvertFunctionPtr 00000001800421f8     funcs.obj
 0004:00000204       $pdata$2$SWIG_Python_ConvertFunctionPtr 0000000180042204     funcs.obj
 0004:00000210       $pdata$3$SWIG_Python_ConvertFunctionPtr 0000000180042210     funcs.obj
 0004:0000021c       $pdata$5$SWIG_Python_ConvertFunctionPtr 000000018004221c     funcs.obj
 0004:00000228       $pdata$SWIG_Python_InitShadowInstance 0000000180042228     funcs.obj
 0004:00000234       $pdata$SWIG_Python_NewPointerObj 0000000180042234     funcs.obj
 0004:00000240       $pdata$SWIG_Python_DestroyModule 0000000180042240     funcs.obj
 0004:0000024c       $pdata$2$SWIG_Python_DestroyModule 000000018004224c     funcs.obj
 0004:00000258       $pdata$3$SWIG_Python_DestroyModule 0000000180042258     funcs.obj
 0004:00000264       $pdata$4$SWIG_Python_DestroyModule 0000000180042264     funcs.obj
 0004:00000270       $pdata$5$SWIG_Python_DestroyModule 0000000180042270     funcs.obj
 0004:0000027c       $pdata$SWIG_Python_TypeCache 000000018004227c     funcs.obj
 0004:00000288       $pdata$SWIG_Python_TypeQuery 0000000180042288     funcs.obj
 0004:00000294       $pdata$1$SWIG_Python_TypeQuery 0000000180042294     funcs.obj
 0004:000002a0       $pdata$5$SWIG_Python_TypeQuery 00000001800422a0     funcs.obj
 0004:000002ac       $pdata$6$SWIG_Python_TypeQuery 00000001800422ac     funcs.obj
 0004:000002b8       $pdata$7$SWIG_Python_TypeQuery 00000001800422b8     funcs.obj
 0004:000002c4       $pdata$??0exception@std@@QEAA@AEBV01@@Z 00000001800422c4     funcs.obj
 0004:000002d0       $pdata$??_Gbad_alloc@std@@UEAAPEAXI@Z 00000001800422d0     MSVCRT:throw_bad_alloc.obj
 0004:000002d0       $pdata$??_Gbad_array_new_length@std@@UEAAPEAXI@Z 00000001800422d0     MSVCRT:throw_bad_alloc.obj
 0004:000002d0       $pdata$??_Gexception@std@@UEAAPEAXI@Z 00000001800422d0     funcs.obj
 0004:000002d0       $pdata$??_Gout_of_range@std@@UEAAPEAXI@Z 00000001800422d0     funcs.obj
 0004:000002d0       $pdata$??_Glogic_error@std@@UEAAPEAXI@Z 00000001800422d0     funcs.obj
 0004:000002dc       $pdata$??0logic_error@std@@QEAA@AEBV01@@Z 00000001800422dc     funcs.obj
 0004:000002e8       $pdata$??0out_of_range@std@@QEAA@PEBD@Z 00000001800422e8     funcs.obj
 0004:000002f4       $pdata$??0out_of_range@std@@QEAA@AEBV01@@Z 00000001800422f4     funcs.obj
 0004:00000300       $pdata$?sprnt@?$_qstring@D@@QEAAAEAV1@PEBDZZ 0000000180042300     funcs.obj
 0004:0000030c       $pdata$?__raise_e@@YAXAEBVexception@std@@@Z 000000018004230c     funcs.obj
 0004:00000318       $pdata$?__raise_ie@@YAXAEBUinterr_exc_t@@@Z 0000000180042318     funcs.obj
 0004:00000324       $pdata$?set_range@func_tail_iterator_t@@QEAA_NII@Z 0000000180042324     funcs.obj
 0004:00000330       $pdata$?SWIG_FromCharPtr@@YAPEAU_object@@PEBD@Z 0000000180042330     funcs.obj
 0004:0000033c       $pdata$?SWIG_AsVal_unsigned_SS_int@@YAHPEAU_object@@PEAI@Z 000000018004233c     funcs.obj
 0004:00000348       $pdata$_wrap_stkpnt_array_data_get 0000000180042348     funcs.obj
 0004:00000354       $pdata$0$_wrap_stkpnt_array_data_get 0000000180042354     funcs.obj
 0004:00000360       $pdata$1$_wrap_stkpnt_array_data_get 0000000180042360     funcs.obj
 0004:0000036c       $pdata$_wrap_stkpnt_array_count_get 000000018004236c     funcs.obj
 0004:00000378       $pdata$0$_wrap_stkpnt_array_count_get 0000000180042378     funcs.obj
 0004:00000384       $pdata$1$_wrap_stkpnt_array_count_get 0000000180042384     funcs.obj
 0004:00000390       $pdata$_wrap_new_stkpnt_array 0000000180042390     funcs.obj
 0004:0000039c       $pdata$_wrap_new_stkpnt_array$catch$1 000000018004239c     funcs.obj
 0004:000003a8       $pdata$_wrap_new_stkpnt_array$catch$2 00000001800423a8     funcs.obj
 0004:000003b4       $pdata$_wrap_new_stkpnt_array$catch$3 00000001800423b4     funcs.obj
 0004:000003c0       $pdata$_wrap_new_stkpnt_array$catch$4 00000001800423c0     funcs.obj
 0004:000003cc       $pdata$_wrap_new_stkpnt_array$catch$5 00000001800423cc     funcs.obj
 0004:000003d8       $pdata$_wrap_new_stkpnt_array$catch$6 00000001800423d8     funcs.obj
 0004:000003e4       $pdata$_wrap_stkpnt_array___len__ 00000001800423e4     funcs.obj
 0004:000003f0       $pdata$_wrap_stkpnt_array___len__$catch$5 00000001800423f0     funcs.obj
 0004:000003fc       $pdata$_wrap_stkpnt_array___len__$catch$4 00000001800423fc     funcs.obj
 0004:00000408       $pdata$_wrap_stkpnt_array___len__$catch$3 0000000180042408     funcs.obj
 0004:00000414       $pdata$_wrap_stkpnt_array___len__$catch$2 0000000180042414     funcs.obj
 0004:00000420       $pdata$_wrap_stkpnt_array___len__$catch$1 0000000180042420     funcs.obj
 0004:0000042c       $pdata$_wrap_stkpnt_array___len__$catch$0 000000018004242c     funcs.obj
 0004:00000438       $pdata$_wrap_stkpnt_array___getitem__ 0000000180042438     funcs.obj
 0004:00000444       $pdata$_wrap_stkpnt_array___getitem__$catch$0 0000000180042444     funcs.obj
 0004:00000450       $pdata$_wrap_stkpnt_array___getitem__$catch$1 0000000180042450     funcs.obj
 0004:0000045c       $pdata$_wrap_stkpnt_array___getitem__$catch$2 000000018004245c     funcs.obj
 0004:00000468       $pdata$_wrap_stkpnt_array___getitem__$catch$3 0000000180042468     funcs.obj
 0004:00000474       $pdata$_wrap_stkpnt_array___getitem__$catch$4 0000000180042474     funcs.obj
 0004:00000480       $pdata$_wrap_stkpnt_array___getitem__$catch$5 0000000180042480     funcs.obj
 0004:0000048c       $pdata$_wrap_stkpnt_array___getitem__$catch$6 000000018004248c     funcs.obj
 0004:00000498       $pdata$_wrap_stkpnt_array___setitem__ 0000000180042498     funcs.obj
 0004:000004a4       $pdata$_wrap_stkpnt_array___setitem__$catch$0 00000001800424a4     funcs.obj
 0004:000004b0       $pdata$_wrap_stkpnt_array___setitem__$catch$1 00000001800424b0     funcs.obj
 0004:000004bc       $pdata$_wrap_stkpnt_array___setitem__$catch$2 00000001800424bc     funcs.obj
 0004:000004c8       $pdata$_wrap_stkpnt_array___setitem__$catch$3 00000001800424c8     funcs.obj
 0004:000004d4       $pdata$_wrap_stkpnt_array___setitem__$catch$4 00000001800424d4     funcs.obj
 0004:000004e0       $pdata$_wrap_stkpnt_array___setitem__$catch$5 00000001800424e0     funcs.obj
 0004:000004ec       $pdata$_wrap_stkpnt_array___setitem__$catch$6 00000001800424ec     funcs.obj
 0004:000004f8       $pdata$_wrap_delete_stkpnt_array 00000001800424f8     funcs.obj
 0004:00000504       $pdata$_wrap_delete_stkpnt_array$catch$5 0000000180042504     funcs.obj
 0004:00000510       $pdata$_wrap_delete_stkpnt_array$catch$4 0000000180042510     funcs.obj
 0004:0000051c       $pdata$_wrap_delete_stkpnt_array$catch$3 000000018004251c     funcs.obj
 0004:00000528       $pdata$_wrap_delete_stkpnt_array$catch$2 0000000180042528     funcs.obj
 0004:00000534       $pdata$_wrap_delete_stkpnt_array$catch$1 0000000180042534     funcs.obj
 0004:00000540       $pdata$_wrap_delete_stkpnt_array$catch$0 0000000180042540     funcs.obj
 0004:0000054c       $pdata$stkpnt_array_swigregister 000000018004254c     funcs.obj
 0004:00000558       $pdata$_wrap_regvar_array_data_get 0000000180042558     funcs.obj
 0004:00000564       $pdata$0$_wrap_regvar_array_data_get 0000000180042564     funcs.obj
 0004:00000570       $pdata$1$_wrap_regvar_array_data_get 0000000180042570     funcs.obj
 0004:0000057c       $pdata$_wrap_regvar_array_count_get 000000018004257c     funcs.obj
 0004:00000588       $pdata$0$_wrap_regvar_array_count_get 0000000180042588     funcs.obj
 0004:00000594       $pdata$1$_wrap_regvar_array_count_get 0000000180042594     funcs.obj
 0004:000005a0       $pdata$_wrap_new_regvar_array 00000001800425a0     funcs.obj
 0004:000005ac       $pdata$_wrap_new_regvar_array$catch$1 00000001800425ac     funcs.obj
 0004:000005b8       $pdata$_wrap_new_regvar_array$catch$2 00000001800425b8     funcs.obj
 0004:000005c4       $pdata$_wrap_new_regvar_array$catch$3 00000001800425c4     funcs.obj
 0004:000005d0       $pdata$_wrap_new_regvar_array$catch$4 00000001800425d0     funcs.obj
 0004:000005dc       $pdata$_wrap_new_regvar_array$catch$5 00000001800425dc     funcs.obj
 0004:000005e8       $pdata$_wrap_new_regvar_array$catch$6 00000001800425e8     funcs.obj
 0004:000005f4       $pdata$_wrap_regvar_array___len__ 00000001800425f4     funcs.obj
 0004:00000600       $pdata$_wrap_regvar_array___len__$catch$5 0000000180042600     funcs.obj
 0004:0000060c       $pdata$_wrap_regvar_array___len__$catch$4 000000018004260c     funcs.obj
 0004:00000618       $pdata$_wrap_regvar_array___len__$catch$3 0000000180042618     funcs.obj
 0004:00000624       $pdata$_wrap_regvar_array___len__$catch$2 0000000180042624     funcs.obj
 0004:00000630       $pdata$_wrap_regvar_array___len__$catch$1 0000000180042630     funcs.obj
 0004:0000063c       $pdata$_wrap_regvar_array___len__$catch$0 000000018004263c     funcs.obj
 0004:00000648       $pdata$_wrap_regvar_array___getitem__ 0000000180042648     funcs.obj
 0004:00000654       $pdata$_wrap_regvar_array___getitem__$catch$0 0000000180042654     funcs.obj
 0004:00000660       $pdata$_wrap_regvar_array___getitem__$catch$1 0000000180042660     funcs.obj
 0004:0000066c       $pdata$_wrap_regvar_array___getitem__$catch$2 000000018004266c     funcs.obj
 0004:00000678       $pdata$_wrap_regvar_array___getitem__$catch$3 0000000180042678     funcs.obj
 0004:00000684       $pdata$_wrap_regvar_array___getitem__$catch$4 0000000180042684     funcs.obj
 0004:00000690       $pdata$_wrap_regvar_array___getitem__$catch$5 0000000180042690     funcs.obj
 0004:0000069c       $pdata$_wrap_regvar_array___getitem__$catch$6 000000018004269c     funcs.obj
 0004:000006a8       $pdata$_wrap_regvar_array___setitem__ 00000001800426a8     funcs.obj
 0004:000006b4       $pdata$_wrap_regvar_array___setitem__$catch$0 00000001800426b4     funcs.obj
 0004:000006c0       $pdata$_wrap_regvar_array___setitem__$catch$1 00000001800426c0     funcs.obj
 0004:000006cc       $pdata$_wrap_regvar_array___setitem__$catch$2 00000001800426cc     funcs.obj
 0004:000006d8       $pdata$_wrap_regvar_array___setitem__$catch$3 00000001800426d8     funcs.obj
 0004:000006e4       $pdata$_wrap_regvar_array___setitem__$catch$4 00000001800426e4     funcs.obj
 0004:000006f0       $pdata$_wrap_regvar_array___setitem__$catch$5 00000001800426f0     funcs.obj
 0004:000006fc       $pdata$_wrap_regvar_array___setitem__$catch$6 00000001800426fc     funcs.obj
 0004:00000708       $pdata$_wrap_delete_regvar_array 0000000180042708     funcs.obj
 0004:00000714       $pdata$_wrap_delete_regvar_array$catch$5 0000000180042714     funcs.obj
 0004:00000720       $pdata$_wrap_delete_regvar_array$catch$4 0000000180042720     funcs.obj
 0004:0000072c       $pdata$_wrap_delete_regvar_array$catch$3 000000018004272c     funcs.obj
 0004:00000738       $pdata$_wrap_delete_regvar_array$catch$2 0000000180042738     funcs.obj
 0004:00000744       $pdata$_wrap_delete_regvar_array$catch$1 0000000180042744     funcs.obj
 0004:00000750       $pdata$_wrap_delete_regvar_array$catch$0 0000000180042750     funcs.obj
 0004:0000075c       $pdata$regvar_array_swigregister 000000018004275c     funcs.obj
 0004:00000768       $pdata$_wrap_range_array_data_get 0000000180042768     funcs.obj
 0004:00000774       $pdata$0$_wrap_range_array_data_get 0000000180042774     funcs.obj
 0004:00000780       $pdata$1$_wrap_range_array_data_get 0000000180042780     funcs.obj
 0004:0000078c       $pdata$_wrap_range_array_count_get 000000018004278c     funcs.obj
 0004:00000798       $pdata$0$_wrap_range_array_count_get 0000000180042798     funcs.obj
 0004:000007a4       $pdata$1$_wrap_range_array_count_get 00000001800427a4     funcs.obj
 0004:000007b0       $pdata$_wrap_new_range_array 00000001800427b0     funcs.obj
 0004:000007bc       $pdata$_wrap_new_range_array$catch$1 00000001800427bc     funcs.obj
 0004:000007c8       $pdata$_wrap_new_range_array$catch$2 00000001800427c8     funcs.obj
 0004:000007d4       $pdata$_wrap_new_range_array$catch$3 00000001800427d4     funcs.obj
 0004:000007e0       $pdata$_wrap_new_range_array$catch$4 00000001800427e0     funcs.obj
 0004:000007ec       $pdata$_wrap_new_range_array$catch$5 00000001800427ec     funcs.obj
 0004:000007f8       $pdata$_wrap_new_range_array$catch$6 00000001800427f8     funcs.obj
 0004:00000804       $pdata$_wrap_range_array___len__ 0000000180042804     funcs.obj
 0004:00000810       $pdata$_wrap_range_array___len__$catch$5 0000000180042810     funcs.obj
 0004:0000081c       $pdata$_wrap_range_array___len__$catch$4 000000018004281c     funcs.obj
 0004:00000828       $pdata$_wrap_range_array___len__$catch$3 0000000180042828     funcs.obj
 0004:00000834       $pdata$_wrap_range_array___len__$catch$2 0000000180042834     funcs.obj
 0004:00000840       $pdata$_wrap_range_array___len__$catch$1 0000000180042840     funcs.obj
 0004:0000084c       $pdata$_wrap_range_array___len__$catch$0 000000018004284c     funcs.obj
 0004:00000858       $pdata$_wrap_range_array___getitem__ 0000000180042858     funcs.obj
 0004:00000864       $pdata$_wrap_range_array___getitem__$catch$0 0000000180042864     funcs.obj
 0004:00000870       $pdata$_wrap_range_array___getitem__$catch$1 0000000180042870     funcs.obj
 0004:0000087c       $pdata$_wrap_range_array___getitem__$catch$2 000000018004287c     funcs.obj
 0004:00000888       $pdata$_wrap_range_array___getitem__$catch$3 0000000180042888     funcs.obj
 0004:00000894       $pdata$_wrap_range_array___getitem__$catch$4 0000000180042894     funcs.obj
 0004:000008a0       $pdata$_wrap_range_array___getitem__$catch$5 00000001800428a0     funcs.obj
 0004:000008ac       $pdata$_wrap_range_array___getitem__$catch$6 00000001800428ac     funcs.obj
 0004:000008b8       $pdata$_wrap_range_array___setitem__ 00000001800428b8     funcs.obj
 0004:000008c4       $pdata$_wrap_range_array___setitem__$catch$0 00000001800428c4     funcs.obj
 0004:000008d0       $pdata$_wrap_range_array___setitem__$catch$1 00000001800428d0     funcs.obj
 0004:000008dc       $pdata$_wrap_range_array___setitem__$catch$2 00000001800428dc     funcs.obj
 0004:000008e8       $pdata$_wrap_range_array___setitem__$catch$3 00000001800428e8     funcs.obj
 0004:000008f4       $pdata$_wrap_range_array___setitem__$catch$4 00000001800428f4     funcs.obj
 0004:00000900       $pdata$_wrap_range_array___setitem__$catch$5 0000000180042900     funcs.obj
 0004:0000090c       $pdata$_wrap_range_array___setitem__$catch$6 000000018004290c     funcs.obj
 0004:00000918       $pdata$_wrap_delete_range_array 0000000180042918     funcs.obj
 0004:00000924       $pdata$_wrap_delete_range_array$catch$5 0000000180042924     funcs.obj
 0004:00000930       $pdata$_wrap_delete_range_array$catch$4 0000000180042930     funcs.obj
 0004:0000093c       $pdata$_wrap_delete_range_array$catch$3 000000018004293c     funcs.obj
 0004:00000948       $pdata$_wrap_delete_range_array$catch$2 0000000180042948     funcs.obj
 0004:00000954       $pdata$_wrap_delete_range_array$catch$1 0000000180042954     funcs.obj
 0004:00000960       $pdata$_wrap_delete_range_array$catch$0 0000000180042960     funcs.obj
 0004:0000096c       $pdata$range_array_swigregister 000000018004296c     funcs.obj
 0004:00000978       $pdata$_wrap_regarg_t_reg_set 0000000180042978     funcs.obj
 0004:00000984       $pdata$0$_wrap_regarg_t_reg_set 0000000180042984     funcs.obj
 0004:00000990       $pdata$1$_wrap_regarg_t_reg_set 0000000180042990     funcs.obj
 0004:0000099c       $pdata$_wrap_regarg_t_reg_get 000000018004299c     funcs.obj
 0004:000009a8       $pdata$0$_wrap_regarg_t_reg_get 00000001800429a8     funcs.obj
 0004:000009b4       $pdata$1$_wrap_regarg_t_reg_get 00000001800429b4     funcs.obj
 0004:000009c0       $pdata$_wrap_regarg_t_type_set 00000001800429c0     funcs.obj
 0004:000009cc       $pdata$_wrap_regarg_t_type_get 00000001800429cc     funcs.obj
 0004:000009d8       $pdata$0$_wrap_regarg_t_type_get 00000001800429d8     funcs.obj
 0004:000009e4       $pdata$1$_wrap_regarg_t_type_get 00000001800429e4     funcs.obj
 0004:000009f0       $pdata$_wrap_regarg_t_name_set 00000001800429f0     funcs.obj
 0004:000009fc       $pdata$_wrap_regarg_t_name_get 00000001800429fc     funcs.obj
 0004:00000a08       $pdata$0$_wrap_regarg_t_name_get 0000000180042a08     funcs.obj
 0004:00000a14       $pdata$1$_wrap_regarg_t_name_get 0000000180042a14     funcs.obj
 0004:00000a20       $pdata$_wrap_new_regarg_t  0000000180042a20     funcs.obj
 0004:00000a2c       $pdata$_wrap_new_regarg_t$catch$0 0000000180042a2c     funcs.obj
 0004:00000a38       $pdata$_wrap_new_regarg_t$catch$1 0000000180042a38     funcs.obj
 0004:00000a44       $pdata$_wrap_new_regarg_t$catch$2 0000000180042a44     funcs.obj
 0004:00000a50       $pdata$_wrap_new_regarg_t$catch$3 0000000180042a50     funcs.obj
 0004:00000a5c       $pdata$_wrap_new_regarg_t$catch$4 0000000180042a5c     funcs.obj
 0004:00000a68       $pdata$_wrap_new_regarg_t$catch$5 0000000180042a68     funcs.obj
 0004:00000a74       $pdata$_wrap_delete_regarg_t 0000000180042a74     funcs.obj
 0004:00000a80       $pdata$_wrap_delete_regarg_t$catch$5 0000000180042a80     funcs.obj
 0004:00000a8c       $pdata$_wrap_delete_regarg_t$catch$4 0000000180042a8c     funcs.obj
 0004:00000a98       $pdata$_wrap_delete_regarg_t$catch$3 0000000180042a98     funcs.obj
 0004:00000aa4       $pdata$_wrap_delete_regarg_t$catch$2 0000000180042aa4     funcs.obj
 0004:00000ab0       $pdata$_wrap_delete_regarg_t$catch$1 0000000180042ab0     funcs.obj
 0004:00000abc       $pdata$_wrap_delete_regarg_t$catch$0 0000000180042abc     funcs.obj
 0004:00000ac8       $pdata$regarg_t_swigregister 0000000180042ac8     funcs.obj
 0004:00000ad4       $pdata$_wrap_func_t_flags_set 0000000180042ad4     funcs.obj
 0004:00000ae0       $pdata$0$_wrap_func_t_flags_set 0000000180042ae0     funcs.obj
 0004:00000aec       $pdata$1$_wrap_func_t_flags_set 0000000180042aec     funcs.obj
 0004:00000af8       $pdata$_wrap_func_t_flags_get 0000000180042af8     funcs.obj
 0004:00000b04       $pdata$0$_wrap_func_t_flags_get 0000000180042b04     funcs.obj
 0004:00000b10       $pdata$1$_wrap_func_t_flags_get 0000000180042b10     funcs.obj
 0004:00000b1c       $pdata$_wrap_func_t_is_far 0000000180042b1c     funcs.obj
 0004:00000b28       $pdata$_wrap_func_t_is_far$catch$5 0000000180042b28     funcs.obj
 0004:00000b34       $pdata$_wrap_func_t_is_far$catch$4 0000000180042b34     funcs.obj
 0004:00000b40       $pdata$_wrap_func_t_is_far$catch$3 0000000180042b40     funcs.obj
 0004:00000b4c       $pdata$_wrap_func_t_is_far$catch$2 0000000180042b4c     funcs.obj
 0004:00000b58       $pdata$_wrap_func_t_is_far$catch$1 0000000180042b58     funcs.obj
 0004:00000b64       $pdata$_wrap_func_t_is_far$catch$0 0000000180042b64     funcs.obj
 0004:00000b70       $pdata$_wrap_func_t_does_return 0000000180042b70     funcs.obj
 0004:00000b7c       $pdata$_wrap_func_t_does_return$catch$5 0000000180042b7c     funcs.obj
 0004:00000b88       $pdata$_wrap_func_t_does_return$catch$4 0000000180042b88     funcs.obj
 0004:00000b94       $pdata$_wrap_func_t_does_return$catch$3 0000000180042b94     funcs.obj
 0004:00000ba0       $pdata$_wrap_func_t_does_return$catch$2 0000000180042ba0     funcs.obj
 0004:00000bac       $pdata$_wrap_func_t_does_return$catch$1 0000000180042bac     funcs.obj
 0004:00000bb8       $pdata$_wrap_func_t_does_return$catch$0 0000000180042bb8     funcs.obj
 0004:00000bc4       $pdata$_wrap_func_t_analyzed_sp 0000000180042bc4     funcs.obj
 0004:00000bd0       $pdata$_wrap_func_t_analyzed_sp$catch$5 0000000180042bd0     funcs.obj
 0004:00000bdc       $pdata$_wrap_func_t_analyzed_sp$catch$4 0000000180042bdc     funcs.obj
 0004:00000be8       $pdata$_wrap_func_t_analyzed_sp$catch$3 0000000180042be8     funcs.obj
 0004:00000bf4       $pdata$_wrap_func_t_analyzed_sp$catch$2 0000000180042bf4     funcs.obj
 0004:00000c00       $pdata$_wrap_func_t_analyzed_sp$catch$1 0000000180042c00     funcs.obj
 0004:00000c0c       $pdata$_wrap_func_t_analyzed_sp$catch$0 0000000180042c0c     funcs.obj
 0004:00000c18       $pdata$_wrap_func_t_need_prolog_analysis 0000000180042c18     funcs.obj
 0004:00000c24       $pdata$_wrap_func_t_need_prolog_analysis$catch$5 0000000180042c24     funcs.obj
 0004:00000c30       $pdata$_wrap_func_t_need_prolog_analysis$catch$4 0000000180042c30     funcs.obj
 0004:00000c3c       $pdata$_wrap_func_t_need_prolog_analysis$catch$3 0000000180042c3c     funcs.obj
 0004:00000c48       $pdata$_wrap_func_t_need_prolog_analysis$catch$2 0000000180042c48     funcs.obj
 0004:00000c54       $pdata$_wrap_func_t_need_prolog_analysis$catch$1 0000000180042c54     funcs.obj
 0004:00000c60       $pdata$_wrap_func_t_need_prolog_analysis$catch$0 0000000180042c60     funcs.obj
 0004:00000c6c       $pdata$_wrap_func_t_frame_set 0000000180042c6c     funcs.obj
 0004:00000c78       $pdata$0$_wrap_func_t_frame_set 0000000180042c78     funcs.obj
 0004:00000c84       $pdata$1$_wrap_func_t_frame_set 0000000180042c84     funcs.obj
 0004:00000c90       $pdata$_wrap_func_t_frame_get 0000000180042c90     funcs.obj
 0004:00000c9c       $pdata$0$_wrap_func_t_frame_get 0000000180042c9c     funcs.obj
 0004:00000ca8       $pdata$1$_wrap_func_t_frame_get 0000000180042ca8     funcs.obj
 0004:00000cb4       $pdata$_wrap_func_t_frsize_set 0000000180042cb4     funcs.obj
 0004:00000cc0       $pdata$0$_wrap_func_t_frsize_set 0000000180042cc0     funcs.obj
 0004:00000ccc       $pdata$1$_wrap_func_t_frsize_set 0000000180042ccc     funcs.obj
 0004:00000cd8       $pdata$_wrap_func_t_frsize_get 0000000180042cd8     funcs.obj
 0004:00000ce4       $pdata$0$_wrap_func_t_frsize_get 0000000180042ce4     funcs.obj
 0004:00000cf0       $pdata$1$_wrap_func_t_frsize_get 0000000180042cf0     funcs.obj
 0004:00000cfc       $pdata$_wrap_func_t_frregs_set 0000000180042cfc     funcs.obj
 0004:00000d08       $pdata$0$_wrap_func_t_frregs_set 0000000180042d08     funcs.obj
 0004:00000d14       $pdata$1$_wrap_func_t_frregs_set 0000000180042d14     funcs.obj
 0004:00000d20       $pdata$_wrap_func_t_frregs_get 0000000180042d20     funcs.obj
 0004:00000d2c       $pdata$0$_wrap_func_t_frregs_get 0000000180042d2c     funcs.obj
 0004:00000d38       $pdata$1$_wrap_func_t_frregs_get 0000000180042d38     funcs.obj
 0004:00000d44       $pdata$_wrap_func_t_argsize_set 0000000180042d44     funcs.obj
 0004:00000d50       $pdata$0$_wrap_func_t_argsize_set 0000000180042d50     funcs.obj
 0004:00000d5c       $pdata$1$_wrap_func_t_argsize_set 0000000180042d5c     funcs.obj
 0004:00000d68       $pdata$_wrap_func_t_argsize_get 0000000180042d68     funcs.obj
 0004:00000d74       $pdata$0$_wrap_func_t_argsize_get 0000000180042d74     funcs.obj
 0004:00000d80       $pdata$1$_wrap_func_t_argsize_get 0000000180042d80     funcs.obj
 0004:00000d8c       $pdata$_wrap_func_t_fpd_set 0000000180042d8c     funcs.obj
 0004:00000d98       $pdata$0$_wrap_func_t_fpd_set 0000000180042d98     funcs.obj
 0004:00000da4       $pdata$1$_wrap_func_t_fpd_set 0000000180042da4     funcs.obj
 0004:00000db0       $pdata$_wrap_func_t_fpd_get 0000000180042db0     funcs.obj
 0004:00000dbc       $pdata$0$_wrap_func_t_fpd_get 0000000180042dbc     funcs.obj
 0004:00000dc8       $pdata$1$_wrap_func_t_fpd_get 0000000180042dc8     funcs.obj
 0004:00000dd4       $pdata$_wrap_func_t_color_set 0000000180042dd4     funcs.obj
 0004:00000de0       $pdata$0$_wrap_func_t_color_set 0000000180042de0     funcs.obj
 0004:00000dec       $pdata$1$_wrap_func_t_color_set 0000000180042dec     funcs.obj
 0004:00000df8       $pdata$_wrap_func_t_color_get 0000000180042df8     funcs.obj
 0004:00000e04       $pdata$0$_wrap_func_t_color_get 0000000180042e04     funcs.obj
 0004:00000e10       $pdata$1$_wrap_func_t_color_get 0000000180042e10     funcs.obj
 0004:00000e1c       $pdata$_wrap_func_t_pntqty_set 0000000180042e1c     funcs.obj
 0004:00000e28       $pdata$0$_wrap_func_t_pntqty_set 0000000180042e28     funcs.obj
 0004:00000e34       $pdata$1$_wrap_func_t_pntqty_set 0000000180042e34     funcs.obj
 0004:00000e40       $pdata$_wrap_func_t_pntqty_get 0000000180042e40     funcs.obj
 0004:00000e4c       $pdata$0$_wrap_func_t_pntqty_get 0000000180042e4c     funcs.obj
 0004:00000e58       $pdata$1$_wrap_func_t_pntqty_get 0000000180042e58     funcs.obj
 0004:00000e64       $pdata$_wrap_func_t_points_set 0000000180042e64     funcs.obj
 0004:00000e70       $pdata$_wrap_func_t_points_get 0000000180042e70     funcs.obj
 0004:00000e7c       $pdata$0$_wrap_func_t_points_get 0000000180042e7c     funcs.obj
 0004:00000e88       $pdata$1$_wrap_func_t_points_get 0000000180042e88     funcs.obj
 0004:00000e94       $pdata$_wrap_func_t_regvarqty_set 0000000180042e94     funcs.obj
 0004:00000ea0       $pdata$0$_wrap_func_t_regvarqty_set 0000000180042ea0     funcs.obj
 0004:00000eac       $pdata$1$_wrap_func_t_regvarqty_set 0000000180042eac     funcs.obj
 0004:00000eb8       $pdata$_wrap_func_t_regvarqty_get 0000000180042eb8     funcs.obj
 0004:00000ec4       $pdata$0$_wrap_func_t_regvarqty_get 0000000180042ec4     funcs.obj
 0004:00000ed0       $pdata$1$_wrap_func_t_regvarqty_get 0000000180042ed0     funcs.obj
 0004:00000edc       $pdata$_wrap_func_t_regvars_set 0000000180042edc     funcs.obj
 0004:00000ee8       $pdata$_wrap_func_t_regvars_get 0000000180042ee8     funcs.obj
 0004:00000ef4       $pdata$0$_wrap_func_t_regvars_get 0000000180042ef4     funcs.obj
 0004:00000f00       $pdata$1$_wrap_func_t_regvars_get 0000000180042f00     funcs.obj
 0004:00000f0c       $pdata$_wrap_func_t_llabelqty_set 0000000180042f0c     funcs.obj
 0004:00000f18       $pdata$0$_wrap_func_t_llabelqty_set 0000000180042f18     funcs.obj
 0004:00000f24       $pdata$1$_wrap_func_t_llabelqty_set 0000000180042f24     funcs.obj
 0004:00000f30       $pdata$_wrap_func_t_llabelqty_get 0000000180042f30     funcs.obj
 0004:00000f3c       $pdata$0$_wrap_func_t_llabelqty_get 0000000180042f3c     funcs.obj
 0004:00000f48       $pdata$1$_wrap_func_t_llabelqty_get 0000000180042f48     funcs.obj
 0004:00000f54       $pdata$_wrap_func_t_llabels_set 0000000180042f54     funcs.obj
 0004:00000f60       $pdata$_wrap_func_t_llabels_get 0000000180042f60     funcs.obj
 0004:00000f6c       $pdata$0$_wrap_func_t_llabels_get 0000000180042f6c     funcs.obj
 0004:00000f78       $pdata$1$_wrap_func_t_llabels_get 0000000180042f78     funcs.obj
 0004:00000f84       $pdata$_wrap_func_t_regargqty_set 0000000180042f84     funcs.obj
 0004:00000f90       $pdata$0$_wrap_func_t_regargqty_set 0000000180042f90     funcs.obj
 0004:00000f9c       $pdata$1$_wrap_func_t_regargqty_set 0000000180042f9c     funcs.obj
 0004:00000fa8       $pdata$_wrap_func_t_regargqty_get 0000000180042fa8     funcs.obj
 0004:00000fb4       $pdata$0$_wrap_func_t_regargqty_get 0000000180042fb4     funcs.obj
 0004:00000fc0       $pdata$1$_wrap_func_t_regargqty_get 0000000180042fc0     funcs.obj
 0004:00000fcc       $pdata$_wrap_func_t_regargs_set 0000000180042fcc     funcs.obj
 0004:00000fd8       $pdata$_wrap_func_t_regargs_get 0000000180042fd8     funcs.obj
 0004:00000fe4       $pdata$0$_wrap_func_t_regargs_get 0000000180042fe4     funcs.obj
 0004:00000ff0       $pdata$1$_wrap_func_t_regargs_get 0000000180042ff0     funcs.obj
 0004:00000ffc       $pdata$_wrap_func_t_tailqty_set 0000000180042ffc     funcs.obj
 0004:00001008       $pdata$0$_wrap_func_t_tailqty_set 0000000180043008     funcs.obj
 0004:00001014       $pdata$1$_wrap_func_t_tailqty_set 0000000180043014     funcs.obj
 0004:00001020       $pdata$_wrap_func_t_tailqty_get 0000000180043020     funcs.obj
 0004:0000102c       $pdata$0$_wrap_func_t_tailqty_get 000000018004302c     funcs.obj
 0004:00001038       $pdata$1$_wrap_func_t_tailqty_get 0000000180043038     funcs.obj
 0004:00001044       $pdata$_wrap_func_t_tails_set 0000000180043044     funcs.obj
 0004:00001050       $pdata$_wrap_func_t_tails_get 0000000180043050     funcs.obj
 0004:0000105c       $pdata$0$_wrap_func_t_tails_get 000000018004305c     funcs.obj
 0004:00001068       $pdata$1$_wrap_func_t_tails_get 0000000180043068     funcs.obj
 0004:00001074       $pdata$_wrap_func_t_owner_set 0000000180043074     funcs.obj
 0004:00001080       $pdata$0$_wrap_func_t_owner_set 0000000180043080     funcs.obj
 0004:0000108c       $pdata$1$_wrap_func_t_owner_set 000000018004308c     funcs.obj
 0004:00001098       $pdata$_wrap_func_t_owner_get 0000000180043098     funcs.obj
 0004:000010a4       $pdata$0$_wrap_func_t_owner_get 00000001800430a4     funcs.obj
 0004:000010b0       $pdata$1$_wrap_func_t_owner_get 00000001800430b0     funcs.obj
 0004:000010bc       $pdata$_wrap_func_t_refqty_set 00000001800430bc     funcs.obj
 0004:000010c8       $pdata$0$_wrap_func_t_refqty_set 00000001800430c8     funcs.obj
 0004:000010d4       $pdata$1$_wrap_func_t_refqty_set 00000001800430d4     funcs.obj
 0004:000010e0       $pdata$_wrap_func_t_refqty_get 00000001800430e0     funcs.obj
 0004:000010ec       $pdata$0$_wrap_func_t_refqty_get 00000001800430ec     funcs.obj
 0004:000010f8       $pdata$1$_wrap_func_t_refqty_get 00000001800430f8     funcs.obj
 0004:00001104       $pdata$_wrap_func_t_referers_set 0000000180043104     funcs.obj
 0004:00001110       $pdata$_wrap_func_t_referers_get 0000000180043110     funcs.obj
 0004:0000111c       $pdata$0$_wrap_func_t_referers_get 000000018004311c     funcs.obj
 0004:00001128       $pdata$1$_wrap_func_t_referers_get 0000000180043128     funcs.obj
 0004:00001134       $pdata$_wrap_new_func_t    0000000180043134     funcs.obj
 0004:00001140       $pdata$_wrap_new_func_t$catch$1 0000000180043140     funcs.obj
 0004:0000114c       $pdata$_wrap_new_func_t$catch$2 000000018004314c     funcs.obj
 0004:00001158       $pdata$_wrap_new_func_t$catch$3 0000000180043158     funcs.obj
 0004:00001164       $pdata$_wrap_new_func_t$catch$4 0000000180043164     funcs.obj
 0004:00001170       $pdata$_wrap_new_func_t$catch$5 0000000180043170     funcs.obj
 0004:0000117c       $pdata$_wrap_new_func_t$catch$6 000000018004317c     funcs.obj
 0004:00001188       $pdata$_wrap_func_t___get_points__ 0000000180043188     funcs.obj
 0004:00001194       $pdata$_wrap_func_t___get_points__$catch$5 0000000180043194     funcs.obj
 0004:000011a0       $pdata$_wrap_func_t___get_points__$catch$6 00000001800431a0     funcs.obj
 0004:000011ac       $pdata$_wrap_func_t___get_points__$catch$7 00000001800431ac     funcs.obj
 0004:000011b8       $pdata$_wrap_func_t___get_points__$catch$8 00000001800431b8     funcs.obj
 0004:000011c4       $pdata$_wrap_func_t___get_points__$catch$9 00000001800431c4     funcs.obj
 0004:000011d0       $pdata$_wrap_func_t___get_points__$catch$10 00000001800431d0     funcs.obj
 0004:000011dc       $pdata$_wrap_func_t___get_regvars__ 00000001800431dc     funcs.obj
 0004:000011e8       $pdata$_wrap_func_t___get_regvars__$catch$5 00000001800431e8     funcs.obj
 0004:000011f4       $pdata$_wrap_func_t___get_regvars__$catch$6 00000001800431f4     funcs.obj
 0004:00001200       $pdata$_wrap_func_t___get_regvars__$catch$7 0000000180043200     funcs.obj
 0004:0000120c       $pdata$_wrap_func_t___get_regvars__$catch$8 000000018004320c     funcs.obj
 0004:00001218       $pdata$_wrap_func_t___get_regvars__$catch$9 0000000180043218     funcs.obj
 0004:00001224       $pdata$_wrap_func_t___get_regvars__$catch$10 0000000180043224     funcs.obj
 0004:00001230       $pdata$_wrap_func_t___get_tails__ 0000000180043230     funcs.obj
 0004:0000123c       $pdata$_wrap_func_t___get_tails__$catch$5 000000018004323c     funcs.obj
 0004:00001248       $pdata$_wrap_func_t___get_tails__$catch$6 0000000180043248     funcs.obj
 0004:00001254       $pdata$_wrap_func_t___get_tails__$catch$7 0000000180043254     funcs.obj
 0004:00001260       $pdata$_wrap_func_t___get_tails__$catch$8 0000000180043260     funcs.obj
 0004:0000126c       $pdata$_wrap_func_t___get_tails__$catch$9 000000018004326c     funcs.obj
 0004:00001278       $pdata$_wrap_func_t___get_tails__$catch$10 0000000180043278     funcs.obj
 0004:00001284       $pdata$_wrap_delete_func_t 0000000180043284     funcs.obj
 0004:00001290       $pdata$_wrap_delete_func_t$catch$5 0000000180043290     funcs.obj
 0004:0000129c       $pdata$_wrap_delete_func_t$catch$4 000000018004329c     funcs.obj
 0004:000012a8       $pdata$_wrap_delete_func_t$catch$3 00000001800432a8     funcs.obj
 0004:000012b4       $pdata$_wrap_delete_func_t$catch$2 00000001800432b4     funcs.obj
 0004:000012c0       $pdata$_wrap_delete_func_t$catch$1 00000001800432c0     funcs.obj
 0004:000012cc       $pdata$_wrap_delete_func_t$catch$0 00000001800432cc     funcs.obj
 0004:000012d8       $pdata$func_t_swigregister 00000001800432d8     funcs.obj
 0004:000012e4       $pdata$_wrap_is_func_entry 00000001800432e4     funcs.obj
 0004:000012f0       $pdata$_wrap_is_func_entry$catch$5 00000001800432f0     funcs.obj
 0004:000012fc       $pdata$_wrap_is_func_entry$catch$4 00000001800432fc     funcs.obj
 0004:00001308       $pdata$_wrap_is_func_entry$catch$3 0000000180043308     funcs.obj
 0004:00001314       $pdata$_wrap_is_func_entry$catch$2 0000000180043314     funcs.obj
 0004:00001320       $pdata$_wrap_is_func_entry$catch$1 0000000180043320     funcs.obj
 0004:0000132c       $pdata$_wrap_is_func_entry$catch$0 000000018004332c     funcs.obj
 0004:00001338       $pdata$_wrap_is_func_tail  0000000180043338     funcs.obj
 0004:00001344       $pdata$_wrap_is_func_tail$catch$5 0000000180043344     funcs.obj
 0004:00001350       $pdata$_wrap_is_func_tail$catch$4 0000000180043350     funcs.obj
 0004:0000135c       $pdata$_wrap_is_func_tail$catch$3 000000018004335c     funcs.obj
 0004:00001368       $pdata$_wrap_is_func_tail$catch$2 0000000180043368     funcs.obj
 0004:00001374       $pdata$_wrap_is_func_tail$catch$1 0000000180043374     funcs.obj
 0004:00001380       $pdata$_wrap_is_func_tail$catch$0 0000000180043380     funcs.obj
 0004:0000138c       $pdata$_wrap_lock_func_range 000000018004338c     funcs.obj
 0004:00001398       $pdata$_wrap_lock_func_range$catch$5 0000000180043398     funcs.obj
 0004:000013a4       $pdata$_wrap_lock_func_range$catch$4 00000001800433a4     funcs.obj
 0004:000013b0       $pdata$_wrap_lock_func_range$catch$3 00000001800433b0     funcs.obj
 0004:000013bc       $pdata$_wrap_lock_func_range$catch$2 00000001800433bc     funcs.obj
 0004:000013c8       $pdata$_wrap_lock_func_range$catch$1 00000001800433c8     funcs.obj
 0004:000013d4       $pdata$_wrap_lock_func_range$catch$0 00000001800433d4     funcs.obj
 0004:000013e0       $pdata$_wrap_new_lock_func 00000001800433e0     funcs.obj
 0004:000013ec       $pdata$_wrap_new_lock_func$catch$1 00000001800433ec     funcs.obj
 0004:000013f8       $pdata$_wrap_new_lock_func$catch$2 00000001800433f8     funcs.obj
 0004:00001404       $pdata$_wrap_new_lock_func$catch$3 0000000180043404     funcs.obj
 0004:00001410       $pdata$_wrap_new_lock_func$catch$4 0000000180043410     funcs.obj
 0004:0000141c       $pdata$_wrap_new_lock_func$catch$5 000000018004341c     funcs.obj
 0004:00001428       $pdata$_wrap_new_lock_func$catch$6 0000000180043428     funcs.obj
 0004:00001434       $pdata$_wrap_delete_lock_func 0000000180043434     funcs.obj
 0004:00001440       $pdata$_wrap_delete_lock_func$catch$5 0000000180043440     funcs.obj
 0004:0000144c       $pdata$_wrap_delete_lock_func$catch$4 000000018004344c     funcs.obj
 0004:00001458       $pdata$_wrap_delete_lock_func$catch$3 0000000180043458     funcs.obj
 0004:00001464       $pdata$_wrap_delete_lock_func$catch$2 0000000180043464     funcs.obj
 0004:00001470       $pdata$_wrap_delete_lock_func$catch$1 0000000180043470     funcs.obj
 0004:0000147c       $pdata$_wrap_delete_lock_func$catch$0 000000018004347c     funcs.obj
 0004:00001488       $pdata$lock_func_swigregister 0000000180043488     funcs.obj
 0004:00001494       $pdata$_wrap_is_func_locked 0000000180043494     funcs.obj
 0004:000014a0       $pdata$_wrap_is_func_locked$catch$5 00000001800434a0     funcs.obj
 0004:000014ac       $pdata$_wrap_is_func_locked$catch$4 00000001800434ac     funcs.obj
 0004:000014b8       $pdata$_wrap_is_func_locked$catch$3 00000001800434b8     funcs.obj
 0004:000014c4       $pdata$_wrap_is_func_locked$catch$2 00000001800434c4     funcs.obj
 0004:000014d0       $pdata$_wrap_is_func_locked$catch$1 00000001800434d0     funcs.obj
 0004:000014dc       $pdata$_wrap_is_func_locked$catch$0 00000001800434dc     funcs.obj
 0004:000014e8       $pdata$_wrap_get_func      00000001800434e8     funcs.obj
 0004:000014f4       $pdata$_wrap_get_func$catch$5 00000001800434f4     funcs.obj
 0004:00001500       $pdata$_wrap_get_func$catch$4 0000000180043500     funcs.obj
 0004:0000150c       $pdata$_wrap_get_func$catch$3 000000018004350c     funcs.obj
 0004:00001518       $pdata$_wrap_get_func$catch$2 0000000180043518     funcs.obj
 0004:00001524       $pdata$_wrap_get_func$catch$1 0000000180043524     funcs.obj
 0004:00001530       $pdata$_wrap_get_func$catch$0 0000000180043530     funcs.obj
 0004:0000153c       $pdata$_wrap_get_func_chunknum 000000018004353c     funcs.obj
 0004:00001548       $pdata$_wrap_get_func_chunknum$catch$5 0000000180043548     funcs.obj
 0004:00001554       $pdata$_wrap_get_func_chunknum$catch$4 0000000180043554     funcs.obj
 0004:00001560       $pdata$_wrap_get_func_chunknum$catch$3 0000000180043560     funcs.obj
 0004:0000156c       $pdata$_wrap_get_func_chunknum$catch$2 000000018004356c     funcs.obj
 0004:00001578       $pdata$_wrap_get_func_chunknum$catch$1 0000000180043578     funcs.obj
 0004:00001584       $pdata$_wrap_get_func_chunknum$catch$0 0000000180043584     funcs.obj
 0004:00001590       $pdata$_wrap_func_contains 0000000180043590     funcs.obj
 0004:0000159c       $pdata$_wrap_func_contains$catch$5 000000018004359c     funcs.obj
 0004:000015a8       $pdata$_wrap_func_contains$catch$4 00000001800435a8     funcs.obj
 0004:000015b4       $pdata$_wrap_func_contains$catch$3 00000001800435b4     funcs.obj
 0004:000015c0       $pdata$_wrap_func_contains$catch$2 00000001800435c0     funcs.obj
 0004:000015cc       $pdata$_wrap_func_contains$catch$1 00000001800435cc     funcs.obj
 0004:000015d8       $pdata$_wrap_func_contains$catch$0 00000001800435d8     funcs.obj
 0004:000015e4       $pdata$_wrap_is_same_func  00000001800435e4     funcs.obj
 0004:000015f0       $pdata$_wrap_is_same_func$catch$5 00000001800435f0     funcs.obj
 0004:000015fc       $pdata$_wrap_is_same_func$catch$4 00000001800435fc     funcs.obj
 0004:00001608       $pdata$_wrap_is_same_func$catch$3 0000000180043608     funcs.obj
 0004:00001614       $pdata$_wrap_is_same_func$catch$2 0000000180043614     funcs.obj
 0004:00001620       $pdata$_wrap_is_same_func$catch$1 0000000180043620     funcs.obj
 0004:0000162c       $pdata$_wrap_is_same_func$catch$0 000000018004362c     funcs.obj
 0004:00001638       $pdata$_wrap_getn_func     0000000180043638     funcs.obj
 0004:00001644       $pdata$_wrap_getn_func$catch$5 0000000180043644     funcs.obj
 0004:00001650       $pdata$_wrap_getn_func$catch$4 0000000180043650     funcs.obj
 0004:0000165c       $pdata$_wrap_getn_func$catch$3 000000018004365c     funcs.obj
 0004:00001668       $pdata$_wrap_getn_func$catch$2 0000000180043668     funcs.obj
 0004:00001674       $pdata$_wrap_getn_func$catch$1 0000000180043674     funcs.obj
 0004:00001680       $pdata$_wrap_getn_func$catch$0 0000000180043680     funcs.obj
 0004:0000168c       $pdata$_wrap_get_func_qty  000000018004368c     funcs.obj
 0004:00001698       $pdata$_wrap_get_func_qty$catch$5 0000000180043698     funcs.obj
 0004:000016a4       $pdata$_wrap_get_func_qty$catch$4 00000001800436a4     funcs.obj
 0004:000016b0       $pdata$_wrap_get_func_qty$catch$3 00000001800436b0     funcs.obj
 0004:000016bc       $pdata$_wrap_get_func_qty$catch$2 00000001800436bc     funcs.obj
 0004:000016c8       $pdata$_wrap_get_func_qty$catch$1 00000001800436c8     funcs.obj
 0004:000016d4       $pdata$_wrap_get_func_qty$catch$0 00000001800436d4     funcs.obj
 0004:000016e0       $pdata$_wrap_get_func_num  00000001800436e0     funcs.obj
 0004:000016ec       $pdata$_wrap_get_func_num$catch$5 00000001800436ec     funcs.obj
 0004:000016f8       $pdata$_wrap_get_func_num$catch$4 00000001800436f8     funcs.obj
 0004:00001704       $pdata$_wrap_get_func_num$catch$3 0000000180043704     funcs.obj
 0004:00001710       $pdata$_wrap_get_func_num$catch$2 0000000180043710     funcs.obj
 0004:0000171c       $pdata$_wrap_get_func_num$catch$1 000000018004371c     funcs.obj
 0004:00001728       $pdata$_wrap_get_func_num$catch$0 0000000180043728     funcs.obj
 0004:00001734       $pdata$_wrap_get_prev_func 0000000180043734     funcs.obj
 0004:00001740       $pdata$_wrap_get_prev_func$catch$5 0000000180043740     funcs.obj
 0004:0000174c       $pdata$_wrap_get_prev_func$catch$4 000000018004374c     funcs.obj
 0004:00001758       $pdata$_wrap_get_prev_func$catch$3 0000000180043758     funcs.obj
 0004:00001764       $pdata$_wrap_get_prev_func$catch$2 0000000180043764     funcs.obj
 0004:00001770       $pdata$_wrap_get_prev_func$catch$1 0000000180043770     funcs.obj
 0004:0000177c       $pdata$_wrap_get_prev_func$catch$0 000000018004377c     funcs.obj
 0004:00001788       $pdata$_wrap_get_next_func 0000000180043788     funcs.obj
 0004:00001794       $pdata$_wrap_get_next_func$catch$5 0000000180043794     funcs.obj
 0004:000017a0       $pdata$_wrap_get_next_func$catch$4 00000001800437a0     funcs.obj
 0004:000017ac       $pdata$_wrap_get_next_func$catch$3 00000001800437ac     funcs.obj
 0004:000017b8       $pdata$_wrap_get_next_func$catch$2 00000001800437b8     funcs.obj
 0004:000017c4       $pdata$_wrap_get_next_func$catch$1 00000001800437c4     funcs.obj
 0004:000017d0       $pdata$_wrap_get_next_func$catch$0 00000001800437d0     funcs.obj
 0004:000017dc       $pdata$_wrap_get_func_ranges 00000001800437dc     funcs.obj
 0004:000017e8       $pdata$_wrap_get_func_ranges$catch$5 00000001800437e8     funcs.obj
 0004:000017f4       $pdata$_wrap_get_func_ranges$catch$4 00000001800437f4     funcs.obj
 0004:00001800       $pdata$_wrap_get_func_ranges$catch$3 0000000180043800     funcs.obj
 0004:0000180c       $pdata$_wrap_get_func_ranges$catch$2 000000018004380c     funcs.obj
 0004:00001818       $pdata$_wrap_get_func_ranges$catch$1 0000000180043818     funcs.obj
 0004:00001824       $pdata$_wrap_get_func_ranges$catch$0 0000000180043824     funcs.obj
 0004:00001830       $pdata$_wrap_get_func_cmt  0000000180043830     funcs.obj
 0004:0000183c       $pdata$_wrap_get_func_cmt$catch$8 000000018004383c     funcs.obj
 0004:00001848       $pdata$_wrap_get_func_cmt$catch$7 0000000180043848     funcs.obj
 0004:00001854       $pdata$_wrap_get_func_cmt$catch$6 0000000180043854     funcs.obj
 0004:00001860       $pdata$_wrap_get_func_cmt$catch$5 0000000180043860     funcs.obj
 0004:0000186c       $pdata$_wrap_get_func_cmt$catch$4 000000018004386c     funcs.obj
 0004:00001878       $pdata$_wrap_get_func_cmt$catch$3 0000000180043878     funcs.obj
 0004:00001884       $pdata$_wrap_set_func_cmt  0000000180043884     funcs.obj
 0004:00001890       $pdata$_wrap_set_func_cmt$catch$5 0000000180043890     funcs.obj
 0004:0000189c       $pdata$_wrap_set_func_cmt$catch$4 000000018004389c     funcs.obj
 0004:000018a8       $pdata$_wrap_set_func_cmt$catch$3 00000001800438a8     funcs.obj
 0004:000018b4       $pdata$_wrap_set_func_cmt$catch$2 00000001800438b4     funcs.obj
 0004:000018c0       $pdata$_wrap_set_func_cmt$catch$1 00000001800438c0     funcs.obj
 0004:000018cc       $pdata$_wrap_set_func_cmt$catch$0 00000001800438cc     funcs.obj
 0004:000018d8       $pdata$_wrap_update_func   00000001800438d8     funcs.obj
 0004:000018e4       $pdata$_wrap_update_func$catch$5 00000001800438e4     funcs.obj
 0004:000018f0       $pdata$_wrap_update_func$catch$4 00000001800438f0     funcs.obj
 0004:000018fc       $pdata$_wrap_update_func$catch$3 00000001800438fc     funcs.obj
 0004:00001908       $pdata$_wrap_update_func$catch$2 0000000180043908     funcs.obj
 0004:00001914       $pdata$_wrap_update_func$catch$1 0000000180043914     funcs.obj
 0004:00001920       $pdata$_wrap_update_func$catch$0 0000000180043920     funcs.obj
 0004:0000192c       $pdata$_wrap_add_func_ex   000000018004392c     funcs.obj
 0004:00001938       $pdata$_wrap_add_func_ex$catch$5 0000000180043938     funcs.obj
 0004:00001944       $pdata$_wrap_add_func_ex$catch$4 0000000180043944     funcs.obj
 0004:00001950       $pdata$_wrap_add_func_ex$catch$3 0000000180043950     funcs.obj
 0004:0000195c       $pdata$_wrap_add_func_ex$catch$2 000000018004395c     funcs.obj
 0004:00001968       $pdata$_wrap_add_func_ex$catch$1 0000000180043968     funcs.obj
 0004:00001974       $pdata$_wrap_add_func_ex$catch$0 0000000180043974     funcs.obj
 0004:00001980       $pdata$_wrap_add_func      0000000180043980     funcs.obj
 0004:0000198c       $pdata$_wrap_add_func$catch$5 000000018004398c     funcs.obj
 0004:00001998       $pdata$_wrap_add_func$catch$4 0000000180043998     funcs.obj
 0004:000019a4       $pdata$_wrap_add_func$catch$3 00000001800439a4     funcs.obj
 0004:000019b0       $pdata$_wrap_add_func$catch$2 00000001800439b0     funcs.obj
 0004:000019bc       $pdata$_wrap_add_func$catch$1 00000001800439bc     funcs.obj
 0004:000019c8       $pdata$_wrap_add_func$catch$0 00000001800439c8     funcs.obj
 0004:000019d4       $pdata$_wrap_del_func      00000001800439d4     funcs.obj
 0004:000019e0       $pdata$_wrap_del_func$catch$5 00000001800439e0     funcs.obj
 0004:000019ec       $pdata$_wrap_del_func$catch$4 00000001800439ec     funcs.obj
 0004:000019f8       $pdata$_wrap_del_func$catch$3 00000001800439f8     funcs.obj
 0004:00001a04       $pdata$_wrap_del_func$catch$2 0000000180043a04     funcs.obj
 0004:00001a10       $pdata$_wrap_del_func$catch$1 0000000180043a10     funcs.obj
 0004:00001a1c       $pdata$_wrap_del_func$catch$0 0000000180043a1c     funcs.obj
 0004:00001a28       $pdata$_wrap_set_func_start 0000000180043a28     funcs.obj
 0004:00001a34       $pdata$_wrap_set_func_start$catch$5 0000000180043a34     funcs.obj
 0004:00001a40       $pdata$_wrap_set_func_start$catch$4 0000000180043a40     funcs.obj
 0004:00001a4c       $pdata$_wrap_set_func_start$catch$3 0000000180043a4c     funcs.obj
 0004:00001a58       $pdata$_wrap_set_func_start$catch$2 0000000180043a58     funcs.obj
 0004:00001a64       $pdata$_wrap_set_func_start$catch$1 0000000180043a64     funcs.obj
 0004:00001a70       $pdata$_wrap_set_func_start$catch$0 0000000180043a70     funcs.obj
 0004:00001a7c       $pdata$_wrap_set_func_end  0000000180043a7c     funcs.obj
 0004:00001a88       $pdata$_wrap_set_func_end$catch$5 0000000180043a88     funcs.obj
 0004:00001a94       $pdata$_wrap_set_func_end$catch$4 0000000180043a94     funcs.obj
 0004:00001aa0       $pdata$_wrap_set_func_end$catch$3 0000000180043aa0     funcs.obj
 0004:00001aac       $pdata$_wrap_set_func_end$catch$2 0000000180043aac     funcs.obj
 0004:00001ab8       $pdata$_wrap_set_func_end$catch$1 0000000180043ab8     funcs.obj
 0004:00001ac4       $pdata$_wrap_set_func_end$catch$0 0000000180043ac4     funcs.obj
 0004:00001ad0       $pdata$_wrap_reanalyze_function 0000000180043ad0     funcs.obj
 0004:00001adc       $pdata$_wrap_reanalyze_function$catch$5 0000000180043adc     funcs.obj
 0004:00001ae8       $pdata$_wrap_reanalyze_function$catch$4 0000000180043ae8     funcs.obj
 0004:00001af4       $pdata$_wrap_reanalyze_function$catch$3 0000000180043af4     funcs.obj
 0004:00001b00       $pdata$_wrap_reanalyze_function$catch$2 0000000180043b00     funcs.obj
 0004:00001b0c       $pdata$_wrap_reanalyze_function$catch$1 0000000180043b0c     funcs.obj
 0004:00001b18       $pdata$_wrap_reanalyze_function$catch$0 0000000180043b18     funcs.obj
 0004:00001b24       $pdata$_wrap_find_func_bounds 0000000180043b24     funcs.obj
 0004:00001b30       $pdata$_wrap_find_func_bounds$catch$5 0000000180043b30     funcs.obj
 0004:00001b3c       $pdata$_wrap_find_func_bounds$catch$4 0000000180043b3c     funcs.obj
 0004:00001b48       $pdata$_wrap_find_func_bounds$catch$3 0000000180043b48     funcs.obj
 0004:00001b54       $pdata$_wrap_find_func_bounds$catch$2 0000000180043b54     funcs.obj
 0004:00001b60       $pdata$_wrap_find_func_bounds$catch$1 0000000180043b60     funcs.obj
 0004:00001b6c       $pdata$_wrap_find_func_bounds$catch$0 0000000180043b6c     funcs.obj
 0004:00001b78       $pdata$_wrap_get_func_name 0000000180043b78     funcs.obj
 0004:00001b84       $pdata$_wrap_get_func_name$catch$8 0000000180043b84     funcs.obj
 0004:00001b90       $pdata$_wrap_get_func_name$catch$7 0000000180043b90     funcs.obj
 0004:00001b9c       $pdata$_wrap_get_func_name$catch$6 0000000180043b9c     funcs.obj
 0004:00001ba8       $pdata$_wrap_get_func_name$catch$5 0000000180043ba8     funcs.obj
 0004:00001bb4       $pdata$_wrap_get_func_name$catch$4 0000000180043bb4     funcs.obj
 0004:00001bc0       $pdata$_wrap_get_func_name$catch$3 0000000180043bc0     funcs.obj
 0004:00001bcc       $pdata$_wrap_calc_func_size 0000000180043bcc     funcs.obj
 0004:00001bd8       $pdata$_wrap_calc_func_size$catch$5 0000000180043bd8     funcs.obj
 0004:00001be4       $pdata$_wrap_calc_func_size$catch$4 0000000180043be4     funcs.obj
 0004:00001bf0       $pdata$_wrap_calc_func_size$catch$3 0000000180043bf0     funcs.obj
 0004:00001bfc       $pdata$_wrap_calc_func_size$catch$2 0000000180043bfc     funcs.obj
 0004:00001c08       $pdata$_wrap_calc_func_size$catch$1 0000000180043c08     funcs.obj
 0004:00001c14       $pdata$_wrap_calc_func_size$catch$0 0000000180043c14     funcs.obj
 0004:00001c20       $pdata$_wrap_get_func_bitness 0000000180043c20     funcs.obj
 0004:00001c2c       $pdata$_wrap_get_func_bitness$catch$5 0000000180043c2c     funcs.obj
 0004:00001c38       $pdata$_wrap_get_func_bitness$catch$4 0000000180043c38     funcs.obj
 0004:00001c44       $pdata$_wrap_get_func_bitness$catch$3 0000000180043c44     funcs.obj
 0004:00001c50       $pdata$_wrap_get_func_bitness$catch$2 0000000180043c50     funcs.obj
 0004:00001c5c       $pdata$_wrap_get_func_bitness$catch$1 0000000180043c5c     funcs.obj
 0004:00001c68       $pdata$_wrap_get_func_bitness$catch$0 0000000180043c68     funcs.obj
 0004:00001c74       $pdata$_wrap_get_func_bits 0000000180043c74     funcs.obj
 0004:00001c80       $pdata$_wrap_get_func_bits$catch$5 0000000180043c80     funcs.obj
 0004:00001c8c       $pdata$_wrap_get_func_bits$catch$4 0000000180043c8c     funcs.obj
 0004:00001c98       $pdata$_wrap_get_func_bits$catch$3 0000000180043c98     funcs.obj
 0004:00001ca4       $pdata$_wrap_get_func_bits$catch$2 0000000180043ca4     funcs.obj
 0004:00001cb0       $pdata$_wrap_get_func_bits$catch$1 0000000180043cb0     funcs.obj
 0004:00001cbc       $pdata$_wrap_get_func_bits$catch$0 0000000180043cbc     funcs.obj
 0004:00001cc8       $pdata$_wrap_get_func_bytes 0000000180043cc8     funcs.obj
 0004:00001cd4       $pdata$_wrap_get_func_bytes$catch$5 0000000180043cd4     funcs.obj
 0004:00001ce0       $pdata$_wrap_get_func_bytes$catch$4 0000000180043ce0     funcs.obj
 0004:00001cec       $pdata$_wrap_get_func_bytes$catch$3 0000000180043cec     funcs.obj
 0004:00001cf8       $pdata$_wrap_get_func_bytes$catch$2 0000000180043cf8     funcs.obj
 0004:00001d04       $pdata$_wrap_get_func_bytes$catch$1 0000000180043d04     funcs.obj
 0004:00001d10       $pdata$_wrap_get_func_bytes$catch$0 0000000180043d10     funcs.obj
 0004:00001d1c       $pdata$_wrap_is_visible_func 0000000180043d1c     funcs.obj
 0004:00001d28       $pdata$_wrap_is_visible_func$catch$5 0000000180043d28     funcs.obj
 0004:00001d34       $pdata$_wrap_is_visible_func$catch$4 0000000180043d34     funcs.obj
 0004:00001d40       $pdata$_wrap_is_visible_func$catch$3 0000000180043d40     funcs.obj
 0004:00001d4c       $pdata$_wrap_is_visible_func$catch$2 0000000180043d4c     funcs.obj
 0004:00001d58       $pdata$_wrap_is_visible_func$catch$1 0000000180043d58     funcs.obj
 0004:00001d64       $pdata$_wrap_is_visible_func$catch$0 0000000180043d64     funcs.obj
 0004:00001d70       $pdata$_wrap_is_finally_visible_func 0000000180043d70     funcs.obj
 0004:00001d7c       $pdata$_wrap_is_finally_visible_func$catch$5 0000000180043d7c     funcs.obj
 0004:00001d88       $pdata$_wrap_is_finally_visible_func$catch$4 0000000180043d88     funcs.obj
 0004:00001d94       $pdata$_wrap_is_finally_visible_func$catch$3 0000000180043d94     funcs.obj
 0004:00001da0       $pdata$_wrap_is_finally_visible_func$catch$2 0000000180043da0     funcs.obj
 0004:00001dac       $pdata$_wrap_is_finally_visible_func$catch$1 0000000180043dac     funcs.obj
 0004:00001db8       $pdata$_wrap_is_finally_visible_func$catch$0 0000000180043db8     funcs.obj
 0004:00001dc4       $pdata$_wrap_set_visible_func 0000000180043dc4     funcs.obj
 0004:00001dd0       $pdata$_wrap_set_visible_func$catch$5 0000000180043dd0     funcs.obj
 0004:00001ddc       $pdata$_wrap_set_visible_func$catch$4 0000000180043ddc     funcs.obj
 0004:00001de8       $pdata$_wrap_set_visible_func$catch$3 0000000180043de8     funcs.obj
 0004:00001df4       $pdata$_wrap_set_visible_func$catch$2 0000000180043df4     funcs.obj
 0004:00001e00       $pdata$_wrap_set_visible_func$catch$1 0000000180043e00     funcs.obj
 0004:00001e0c       $pdata$_wrap_set_visible_func$catch$0 0000000180043e0c     funcs.obj
 0004:00001e18       $pdata$_wrap_set_func_name_if_jumpfunc 0000000180043e18     funcs.obj
 0004:00001e24       $pdata$_wrap_set_func_name_if_jumpfunc$catch$5 0000000180043e24     funcs.obj
 0004:00001e30       $pdata$_wrap_set_func_name_if_jumpfunc$catch$4 0000000180043e30     funcs.obj
 0004:00001e3c       $pdata$_wrap_set_func_name_if_jumpfunc$catch$3 0000000180043e3c     funcs.obj
 0004:00001e48       $pdata$_wrap_set_func_name_if_jumpfunc$catch$2 0000000180043e48     funcs.obj
 0004:00001e54       $pdata$_wrap_set_func_name_if_jumpfunc$catch$1 0000000180043e54     funcs.obj
 0004:00001e60       $pdata$_wrap_set_func_name_if_jumpfunc$catch$0 0000000180043e60     funcs.obj
 0004:00001e6c       $pdata$_wrap_calc_thunk_func_target 0000000180043e6c     funcs.obj
 0004:00001e78       $pdata$_wrap_calc_thunk_func_target$catch$5 0000000180043e78     funcs.obj
 0004:00001e84       $pdata$_wrap_calc_thunk_func_target$catch$4 0000000180043e84     funcs.obj
 0004:00001e90       $pdata$_wrap_calc_thunk_func_target$catch$3 0000000180043e90     funcs.obj
 0004:00001e9c       $pdata$_wrap_calc_thunk_func_target$catch$2 0000000180043e9c     funcs.obj
 0004:00001ea8       $pdata$_wrap_calc_thunk_func_target$catch$1 0000000180043ea8     funcs.obj
 0004:00001eb4       $pdata$_wrap_calc_thunk_func_target$catch$0 0000000180043eb4     funcs.obj
 0004:00001ec0       $pdata$_wrap_func_does_return 0000000180043ec0     funcs.obj
 0004:00001ecc       $pdata$_wrap_func_does_return$catch$5 0000000180043ecc     funcs.obj
 0004:00001ed8       $pdata$_wrap_func_does_return$catch$4 0000000180043ed8     funcs.obj
 0004:00001ee4       $pdata$_wrap_func_does_return$catch$3 0000000180043ee4     funcs.obj
 0004:00001ef0       $pdata$_wrap_func_does_return$catch$2 0000000180043ef0     funcs.obj
 0004:00001efc       $pdata$_wrap_func_does_return$catch$1 0000000180043efc     funcs.obj
 0004:00001f08       $pdata$_wrap_func_does_return$catch$0 0000000180043f08     funcs.obj
 0004:00001f14       $pdata$_wrap_reanalyze_noret_flag 0000000180043f14     funcs.obj
 0004:00001f20       $pdata$_wrap_reanalyze_noret_flag$catch$5 0000000180043f20     funcs.obj
 0004:00001f2c       $pdata$_wrap_reanalyze_noret_flag$catch$4 0000000180043f2c     funcs.obj
 0004:00001f38       $pdata$_wrap_reanalyze_noret_flag$catch$3 0000000180043f38     funcs.obj
 0004:00001f44       $pdata$_wrap_reanalyze_noret_flag$catch$2 0000000180043f44     funcs.obj
 0004:00001f50       $pdata$_wrap_reanalyze_noret_flag$catch$1 0000000180043f50     funcs.obj
 0004:00001f5c       $pdata$_wrap_reanalyze_noret_flag$catch$0 0000000180043f5c     funcs.obj
 0004:00001f68       $pdata$_wrap_set_noret_insn 0000000180043f68     funcs.obj
 0004:00001f74       $pdata$_wrap_set_noret_insn$catch$5 0000000180043f74     funcs.obj
 0004:00001f80       $pdata$_wrap_set_noret_insn$catch$4 0000000180043f80     funcs.obj
 0004:00001f8c       $pdata$_wrap_set_noret_insn$catch$3 0000000180043f8c     funcs.obj
 0004:00001f98       $pdata$_wrap_set_noret_insn$catch$2 0000000180043f98     funcs.obj
 0004:00001fa4       $pdata$_wrap_set_noret_insn$catch$1 0000000180043fa4     funcs.obj
 0004:00001fb0       $pdata$_wrap_set_noret_insn$catch$0 0000000180043fb0     funcs.obj
 0004:00001fbc       $pdata$_wrap_get_fchunk    0000000180043fbc     funcs.obj
 0004:00001fc8       $pdata$_wrap_get_fchunk$catch$5 0000000180043fc8     funcs.obj
 0004:00001fd4       $pdata$_wrap_get_fchunk$catch$4 0000000180043fd4     funcs.obj
 0004:00001fe0       $pdata$_wrap_get_fchunk$catch$3 0000000180043fe0     funcs.obj
 0004:00001fec       $pdata$_wrap_get_fchunk$catch$2 0000000180043fec     funcs.obj
 0004:00001ff8       $pdata$_wrap_get_fchunk$catch$1 0000000180043ff8     funcs.obj
 0004:00002004       $pdata$_wrap_get_fchunk$catch$0 0000000180044004     funcs.obj
 0004:00002010       $pdata$_wrap_getn_fchunk   0000000180044010     funcs.obj
 0004:0000201c       $pdata$_wrap_getn_fchunk$catch$5 000000018004401c     funcs.obj
 0004:00002028       $pdata$_wrap_getn_fchunk$catch$4 0000000180044028     funcs.obj
 0004:00002034       $pdata$_wrap_getn_fchunk$catch$3 0000000180044034     funcs.obj
 0004:00002040       $pdata$_wrap_getn_fchunk$catch$2 0000000180044040     funcs.obj
 0004:0000204c       $pdata$_wrap_getn_fchunk$catch$1 000000018004404c     funcs.obj
 0004:00002058       $pdata$_wrap_getn_fchunk$catch$0 0000000180044058     funcs.obj
 0004:00002064       $pdata$_wrap_get_fchunk_qty 0000000180044064     funcs.obj
 0004:00002070       $pdata$_wrap_get_fchunk_qty$catch$5 0000000180044070     funcs.obj
 0004:0000207c       $pdata$_wrap_get_fchunk_qty$catch$4 000000018004407c     funcs.obj
 0004:00002088       $pdata$_wrap_get_fchunk_qty$catch$3 0000000180044088     funcs.obj
 0004:00002094       $pdata$_wrap_get_fchunk_qty$catch$2 0000000180044094     funcs.obj
 0004:000020a0       $pdata$_wrap_get_fchunk_qty$catch$1 00000001800440a0     funcs.obj
 0004:000020ac       $pdata$_wrap_get_fchunk_qty$catch$0 00000001800440ac     funcs.obj
 0004:000020b8       $pdata$_wrap_get_fchunk_num 00000001800440b8     funcs.obj
 0004:000020c4       $pdata$_wrap_get_fchunk_num$catch$5 00000001800440c4     funcs.obj
 0004:000020d0       $pdata$_wrap_get_fchunk_num$catch$4 00000001800440d0     funcs.obj
 0004:000020dc       $pdata$_wrap_get_fchunk_num$catch$3 00000001800440dc     funcs.obj
 0004:000020e8       $pdata$_wrap_get_fchunk_num$catch$2 00000001800440e8     funcs.obj
 0004:000020f4       $pdata$_wrap_get_fchunk_num$catch$1 00000001800440f4     funcs.obj
 0004:00002100       $pdata$_wrap_get_fchunk_num$catch$0 0000000180044100     funcs.obj
 0004:0000210c       $pdata$_wrap_get_prev_fchunk 000000018004410c     funcs.obj
 0004:00002118       $pdata$_wrap_get_prev_fchunk$catch$5 0000000180044118     funcs.obj
 0004:00002124       $pdata$_wrap_get_prev_fchunk$catch$4 0000000180044124     funcs.obj
 0004:00002130       $pdata$_wrap_get_prev_fchunk$catch$3 0000000180044130     funcs.obj
 0004:0000213c       $pdata$_wrap_get_prev_fchunk$catch$2 000000018004413c     funcs.obj
 0004:00002148       $pdata$_wrap_get_prev_fchunk$catch$1 0000000180044148     funcs.obj
 0004:00002154       $pdata$_wrap_get_prev_fchunk$catch$0 0000000180044154     funcs.obj
 0004:00002160       $pdata$_wrap_get_next_fchunk 0000000180044160     funcs.obj
 0004:0000216c       $pdata$_wrap_get_next_fchunk$catch$5 000000018004416c     funcs.obj
 0004:00002178       $pdata$_wrap_get_next_fchunk$catch$4 0000000180044178     funcs.obj
 0004:00002184       $pdata$_wrap_get_next_fchunk$catch$3 0000000180044184     funcs.obj
 0004:00002190       $pdata$_wrap_get_next_fchunk$catch$2 0000000180044190     funcs.obj
 0004:0000219c       $pdata$_wrap_get_next_fchunk$catch$1 000000018004419c     funcs.obj
 0004:000021a8       $pdata$_wrap_get_next_fchunk$catch$0 00000001800441a8     funcs.obj
 0004:000021b4       $pdata$_wrap_append_func_tail 00000001800441b4     funcs.obj
 0004:000021c0       $pdata$_wrap_append_func_tail$catch$5 00000001800441c0     funcs.obj
 0004:000021cc       $pdata$_wrap_append_func_tail$catch$4 00000001800441cc     funcs.obj
 0004:000021d8       $pdata$_wrap_append_func_tail$catch$3 00000001800441d8     funcs.obj
 0004:000021e4       $pdata$_wrap_append_func_tail$catch$2 00000001800441e4     funcs.obj
 0004:000021f0       $pdata$_wrap_append_func_tail$catch$1 00000001800441f0     funcs.obj
 0004:000021fc       $pdata$_wrap_append_func_tail$catch$0 00000001800441fc     funcs.obj
 0004:00002208       $pdata$_wrap_remove_func_tail 0000000180044208     funcs.obj
 0004:00002214       $pdata$_wrap_remove_func_tail$catch$5 0000000180044214     funcs.obj
 0004:00002220       $pdata$_wrap_remove_func_tail$catch$4 0000000180044220     funcs.obj
 0004:0000222c       $pdata$_wrap_remove_func_tail$catch$3 000000018004422c     funcs.obj
 0004:00002238       $pdata$_wrap_remove_func_tail$catch$2 0000000180044238     funcs.obj
 0004:00002244       $pdata$_wrap_remove_func_tail$catch$1 0000000180044244     funcs.obj
 0004:00002250       $pdata$_wrap_remove_func_tail$catch$0 0000000180044250     funcs.obj
 0004:0000225c       $pdata$_wrap_set_tail_owner 000000018004425c     funcs.obj
 0004:00002268       $pdata$_wrap_set_tail_owner$catch$5 0000000180044268     funcs.obj
 0004:00002274       $pdata$_wrap_set_tail_owner$catch$4 0000000180044274     funcs.obj
 0004:00002280       $pdata$_wrap_set_tail_owner$catch$3 0000000180044280     funcs.obj
 0004:0000228c       $pdata$_wrap_set_tail_owner$catch$2 000000018004428c     funcs.obj
 0004:00002298       $pdata$_wrap_set_tail_owner$catch$1 0000000180044298     funcs.obj
 0004:000022a4       $pdata$_wrap_set_tail_owner$catch$0 00000001800442a4     funcs.obj
 0004:000022b0       $pdata$_wrap_func_tail_iterator_set 00000001800442b0     funcs.obj
 0004:000022bc       $pdata$_wrap_func_tail_iterator_set$catch$5 00000001800442bc     funcs.obj
 0004:000022c8       $pdata$_wrap_func_tail_iterator_set$catch$4 00000001800442c8     funcs.obj
 0004:000022d4       $pdata$_wrap_func_tail_iterator_set$catch$3 00000001800442d4     funcs.obj
 0004:000022e0       $pdata$_wrap_func_tail_iterator_set$catch$2 00000001800442e0     funcs.obj
 0004:000022ec       $pdata$_wrap_func_tail_iterator_set$catch$1 00000001800442ec     funcs.obj
 0004:000022f8       $pdata$_wrap_func_tail_iterator_set$catch$0 00000001800442f8     funcs.obj
 0004:00002304       $pdata$_wrap_func_tail_iterator_set_ea 0000000180044304     funcs.obj
 0004:00002310       $pdata$_wrap_func_tail_iterator_set_ea$catch$5 0000000180044310     funcs.obj
 0004:0000231c       $pdata$_wrap_func_tail_iterator_set_ea$catch$4 000000018004431c     funcs.obj
 0004:00002328       $pdata$_wrap_func_tail_iterator_set_ea$catch$3 0000000180044328     funcs.obj
 0004:00002334       $pdata$_wrap_func_tail_iterator_set_ea$catch$2 0000000180044334     funcs.obj
 0004:00002340       $pdata$_wrap_func_tail_iterator_set_ea$catch$1 0000000180044340     funcs.obj
 0004:0000234c       $pdata$_wrap_func_tail_iterator_set_ea$catch$0 000000018004434c     funcs.obj
 0004:00002358       $pdata$_wrap_func_parent_iterator_set 0000000180044358     funcs.obj
 0004:00002364       $pdata$_wrap_func_parent_iterator_set$catch$5 0000000180044364     funcs.obj
 0004:00002370       $pdata$_wrap_func_parent_iterator_set$catch$4 0000000180044370     funcs.obj
 0004:0000237c       $pdata$_wrap_func_parent_iterator_set$catch$3 000000018004437c     funcs.obj
 0004:00002388       $pdata$_wrap_func_parent_iterator_set$catch$2 0000000180044388     funcs.obj
 0004:00002394       $pdata$_wrap_func_parent_iterator_set$catch$1 0000000180044394     funcs.obj
 0004:000023a0       $pdata$_wrap_func_parent_iterator_set$catch$0 00000001800443a0     funcs.obj
 0004:000023ac       $pdata$_wrap_func_item_iterator_next 00000001800443ac     funcs.obj
 0004:000023b8       $pdata$_wrap_func_item_iterator_next$catch$5 00000001800443b8     funcs.obj
 0004:000023c4       $pdata$_wrap_func_item_iterator_next$catch$4 00000001800443c4     funcs.obj
 0004:000023d0       $pdata$_wrap_func_item_iterator_next$catch$3 00000001800443d0     funcs.obj
 0004:000023dc       $pdata$_wrap_func_item_iterator_next$catch$2 00000001800443dc     funcs.obj
 0004:000023e8       $pdata$_wrap_func_item_iterator_next$catch$1 00000001800443e8     funcs.obj
 0004:000023f4       $pdata$_wrap_func_item_iterator_next$catch$0 00000001800443f4     funcs.obj
 0004:00002400       $pdata$_wrap_func_item_iterator_prev 0000000180044400     funcs.obj
 0004:0000240c       $pdata$_wrap_func_item_iterator_prev$catch$5 000000018004440c     funcs.obj
 0004:00002418       $pdata$_wrap_func_item_iterator_prev$catch$4 0000000180044418     funcs.obj
 0004:00002424       $pdata$_wrap_func_item_iterator_prev$catch$3 0000000180044424     funcs.obj
 0004:00002430       $pdata$_wrap_func_item_iterator_prev$catch$2 0000000180044430     funcs.obj
 0004:0000243c       $pdata$_wrap_func_item_iterator_prev$catch$1 000000018004443c     funcs.obj
 0004:00002448       $pdata$_wrap_func_item_iterator_prev$catch$0 0000000180044448     funcs.obj
 0004:00002454       $pdata$_wrap_func_item_iterator_decode_prev_insn 0000000180044454     funcs.obj
 0004:00002460       $pdata$_wrap_func_item_iterator_decode_prev_insn$catch$5 0000000180044460     funcs.obj
 0004:0000246c       $pdata$_wrap_func_item_iterator_decode_prev_insn$catch$4 000000018004446c     funcs.obj
 0004:00002478       $pdata$_wrap_func_item_iterator_decode_prev_insn$catch$3 0000000180044478     funcs.obj
 0004:00002484       $pdata$_wrap_func_item_iterator_decode_prev_insn$catch$2 0000000180044484     funcs.obj
 0004:00002490       $pdata$_wrap_func_item_iterator_decode_prev_insn$catch$1 0000000180044490     funcs.obj
 0004:0000249c       $pdata$_wrap_func_item_iterator_decode_prev_insn$catch$0 000000018004449c     funcs.obj
 0004:000024a8       $pdata$_wrap_func_item_iterator_decode_preceding_insn 00000001800444a8     funcs.obj
 0004:000024b4       $pdata$_wrap_func_item_iterator_decode_preceding_insn$catch$6 00000001800444b4     funcs.obj
 0004:000024c0       $pdata$_wrap_func_item_iterator_decode_preceding_insn$catch$5 00000001800444c0     funcs.obj
 0004:000024cc       $pdata$_wrap_func_item_iterator_decode_preceding_insn$catch$4 00000001800444cc     funcs.obj
 0004:000024d8       $pdata$_wrap_func_item_iterator_decode_preceding_insn$catch$3 00000001800444d8     funcs.obj
 0004:000024e4       $pdata$_wrap_func_item_iterator_decode_preceding_insn$catch$2 00000001800444e4     funcs.obj
 0004:000024f0       $pdata$_wrap_func_item_iterator_decode_preceding_insn$catch$1 00000001800444f0     funcs.obj
 0004:000024fc       $pdata$_wrap_f_any         00000001800444fc     funcs.obj
 0004:00002508       $pdata$_wrap_f_any$catch$5 0000000180044508     funcs.obj
 0004:00002514       $pdata$_wrap_f_any$catch$4 0000000180044514     funcs.obj
 0004:00002520       $pdata$_wrap_f_any$catch$3 0000000180044520     funcs.obj
 0004:0000252c       $pdata$_wrap_f_any$catch$2 000000018004452c     funcs.obj
 0004:00002538       $pdata$_wrap_f_any$catch$1 0000000180044538     funcs.obj
 0004:00002544       $pdata$_wrap_f_any$catch$0 0000000180044544     funcs.obj
 0004:00002550       $pdata$_wrap_new_func_tail_iterator_t__SWIG_0 0000000180044550     funcs.obj
 0004:0000255c       $pdata$_wrap_new_func_tail_iterator_t__SWIG_0$catch$1 000000018004455c     funcs.obj
 0004:00002568       $pdata$_wrap_new_func_tail_iterator_t__SWIG_0$catch$2 0000000180044568     funcs.obj
 0004:00002574       $pdata$_wrap_new_func_tail_iterator_t__SWIG_0$catch$3 0000000180044574     funcs.obj
 0004:00002580       $pdata$_wrap_new_func_tail_iterator_t__SWIG_0$catch$4 0000000180044580     funcs.obj
 0004:0000258c       $pdata$_wrap_new_func_tail_iterator_t__SWIG_0$catch$5 000000018004458c     funcs.obj
 0004:00002598       $pdata$_wrap_new_func_tail_iterator_t__SWIG_0$catch$6 0000000180044598     funcs.obj
 0004:000025a4       $pdata$_wrap_new_func_tail_iterator_t__SWIG_1 00000001800445a4     funcs.obj
 0004:000025b0       $pdata$_wrap_new_func_tail_iterator_t__SWIG_1$catch$1 00000001800445b0     funcs.obj
 0004:000025bc       $pdata$_wrap_new_func_tail_iterator_t__SWIG_1$catch$2 00000001800445bc     funcs.obj
 0004:000025c8       $pdata$_wrap_new_func_tail_iterator_t__SWIG_1$catch$3 00000001800445c8     funcs.obj
 0004:000025d4       $pdata$_wrap_new_func_tail_iterator_t__SWIG_1$catch$4 00000001800445d4     funcs.obj
 0004:000025e0       $pdata$_wrap_new_func_tail_iterator_t__SWIG_1$catch$5 00000001800445e0     funcs.obj
 0004:000025ec       $pdata$_wrap_new_func_tail_iterator_t__SWIG_1$catch$6 00000001800445ec     funcs.obj
 0004:000025f8       $pdata$_wrap_new_func_tail_iterator_t 00000001800445f8     funcs.obj
 0004:00002604       $pdata$_wrap_delete_func_tail_iterator_t 0000000180044604     funcs.obj
 0004:00002610       $pdata$_wrap_delete_func_tail_iterator_t$catch$5 0000000180044610     funcs.obj
 0004:0000261c       $pdata$_wrap_delete_func_tail_iterator_t$catch$4 000000018004461c     funcs.obj
 0004:00002628       $pdata$_wrap_delete_func_tail_iterator_t$catch$3 0000000180044628     funcs.obj
 0004:00002634       $pdata$_wrap_delete_func_tail_iterator_t$catch$2 0000000180044634     funcs.obj
 0004:00002640       $pdata$_wrap_delete_func_tail_iterator_t$catch$1 0000000180044640     funcs.obj
 0004:0000264c       $pdata$_wrap_delete_func_tail_iterator_t$catch$0 000000018004464c     funcs.obj
 0004:00002658       $pdata$_wrap_func_tail_iterator_t_set 0000000180044658     funcs.obj
 0004:00002664       $pdata$_wrap_func_tail_iterator_t_set$catch$5 0000000180044664     funcs.obj
 0004:00002670       $pdata$_wrap_func_tail_iterator_t_set$catch$4 0000000180044670     funcs.obj
 0004:0000267c       $pdata$_wrap_func_tail_iterator_t_set$catch$3 000000018004467c     funcs.obj
 0004:00002688       $pdata$_wrap_func_tail_iterator_t_set$catch$2 0000000180044688     funcs.obj
 0004:00002694       $pdata$_wrap_func_tail_iterator_t_set$catch$1 0000000180044694     funcs.obj
 0004:000026a0       $pdata$_wrap_func_tail_iterator_t_set$catch$0 00000001800446a0     funcs.obj
 0004:000026ac       $pdata$_wrap_func_tail_iterator_t_set_ea 00000001800446ac     funcs.obj
 0004:000026b8       $pdata$_wrap_func_tail_iterator_t_set_ea$catch$5 00000001800446b8     funcs.obj
 0004:000026c4       $pdata$_wrap_func_tail_iterator_t_set_ea$catch$4 00000001800446c4     funcs.obj
 0004:000026d0       $pdata$_wrap_func_tail_iterator_t_set_ea$catch$3 00000001800446d0     funcs.obj
 0004:000026dc       $pdata$_wrap_func_tail_iterator_t_set_ea$catch$2 00000001800446dc     funcs.obj
 0004:000026e8       $pdata$_wrap_func_tail_iterator_t_set_ea$catch$1 00000001800446e8     funcs.obj
 0004:000026f4       $pdata$_wrap_func_tail_iterator_t_set_ea$catch$0 00000001800446f4     funcs.obj
 0004:00002700       $pdata$_wrap_func_tail_iterator_t_set_range 0000000180044700     funcs.obj
 0004:0000270c       $pdata$_wrap_func_tail_iterator_t_set_range$catch$5 000000018004470c     funcs.obj
 0004:00002718       $pdata$_wrap_func_tail_iterator_t_set_range$catch$4 0000000180044718     funcs.obj
 0004:00002724       $pdata$_wrap_func_tail_iterator_t_set_range$catch$3 0000000180044724     funcs.obj
 0004:00002730       $pdata$_wrap_func_tail_iterator_t_set_range$catch$2 0000000180044730     funcs.obj
 0004:0000273c       $pdata$_wrap_func_tail_iterator_t_set_range$catch$1 000000018004473c     funcs.obj
 0004:00002748       $pdata$_wrap_func_tail_iterator_t_set_range$catch$0 0000000180044748     funcs.obj
 0004:00002754       $pdata$_wrap_func_tail_iterator_t_chunk 0000000180044754     funcs.obj
 0004:00002760       $pdata$_wrap_func_tail_iterator_t_chunk$catch$5 0000000180044760     funcs.obj
 0004:0000276c       $pdata$_wrap_func_tail_iterator_t_chunk$catch$4 000000018004476c     funcs.obj
 0004:00002778       $pdata$_wrap_func_tail_iterator_t_chunk$catch$3 0000000180044778     funcs.obj
 0004:00002784       $pdata$_wrap_func_tail_iterator_t_chunk$catch$2 0000000180044784     funcs.obj
 0004:00002790       $pdata$_wrap_func_tail_iterator_t_chunk$catch$1 0000000180044790     funcs.obj
 0004:0000279c       $pdata$_wrap_func_tail_iterator_t_chunk$catch$0 000000018004479c     funcs.obj
 0004:000027a8       $pdata$_wrap_func_tail_iterator_t_first 00000001800447a8     funcs.obj
 0004:000027b4       $pdata$_wrap_func_tail_iterator_t_first$catch$5 00000001800447b4     funcs.obj
 0004:000027c0       $pdata$_wrap_func_tail_iterator_t_first$catch$4 00000001800447c0     funcs.obj
 0004:000027cc       $pdata$_wrap_func_tail_iterator_t_first$catch$3 00000001800447cc     funcs.obj
 0004:000027d8       $pdata$_wrap_func_tail_iterator_t_first$catch$2 00000001800447d8     funcs.obj
 0004:000027e4       $pdata$_wrap_func_tail_iterator_t_first$catch$1 00000001800447e4     funcs.obj
 0004:000027f0       $pdata$_wrap_func_tail_iterator_t_first$catch$0 00000001800447f0     funcs.obj
 0004:000027fc       $pdata$_wrap_func_tail_iterator_t_last 00000001800447fc     funcs.obj
 0004:00002808       $pdata$_wrap_func_tail_iterator_t_last$catch$5 0000000180044808     funcs.obj
 0004:00002814       $pdata$_wrap_func_tail_iterator_t_last$catch$4 0000000180044814     funcs.obj
 0004:00002820       $pdata$_wrap_func_tail_iterator_t_last$catch$3 0000000180044820     funcs.obj
 0004:0000282c       $pdata$_wrap_func_tail_iterator_t_last$catch$2 000000018004482c     funcs.obj
 0004:00002838       $pdata$_wrap_func_tail_iterator_t_last$catch$1 0000000180044838     funcs.obj
 0004:00002844       $pdata$_wrap_func_tail_iterator_t_last$catch$0 0000000180044844     funcs.obj
 0004:00002850       $pdata$_wrap_func_tail_iterator_t_next 0000000180044850     funcs.obj
 0004:0000285c       $pdata$_wrap_func_tail_iterator_t_next$catch$5 000000018004485c     funcs.obj
 0004:00002868       $pdata$_wrap_func_tail_iterator_t_next$catch$4 0000000180044868     funcs.obj
 0004:00002874       $pdata$_wrap_func_tail_iterator_t_next$catch$3 0000000180044874     funcs.obj
 0004:00002880       $pdata$_wrap_func_tail_iterator_t_next$catch$2 0000000180044880     funcs.obj
 0004:0000288c       $pdata$_wrap_func_tail_iterator_t_next$catch$1 000000018004488c     funcs.obj
 0004:00002898       $pdata$_wrap_func_tail_iterator_t_next$catch$0 0000000180044898     funcs.obj
 0004:000028a4       $pdata$_wrap_func_tail_iterator_t_prev 00000001800448a4     funcs.obj
 0004:000028b0       $pdata$_wrap_func_tail_iterator_t_prev$catch$5 00000001800448b0     funcs.obj
 0004:000028bc       $pdata$_wrap_func_tail_iterator_t_prev$catch$4 00000001800448bc     funcs.obj
 0004:000028c8       $pdata$_wrap_func_tail_iterator_t_prev$catch$3 00000001800448c8     funcs.obj
 0004:000028d4       $pdata$_wrap_func_tail_iterator_t_prev$catch$2 00000001800448d4     funcs.obj
 0004:000028e0       $pdata$_wrap_func_tail_iterator_t_prev$catch$1 00000001800448e0     funcs.obj
 0004:000028ec       $pdata$_wrap_func_tail_iterator_t_prev$catch$0 00000001800448ec     funcs.obj
 0004:000028f8       $pdata$_wrap_func_tail_iterator_t_main 00000001800448f8     funcs.obj
 0004:00002904       $pdata$_wrap_func_tail_iterator_t_main$catch$5 0000000180044904     funcs.obj
 0004:00002910       $pdata$_wrap_func_tail_iterator_t_main$catch$4 0000000180044910     funcs.obj
 0004:0000291c       $pdata$_wrap_func_tail_iterator_t_main$catch$3 000000018004491c     funcs.obj
 0004:00002928       $pdata$_wrap_func_tail_iterator_t_main$catch$2 0000000180044928     funcs.obj
 0004:00002934       $pdata$_wrap_func_tail_iterator_t_main$catch$1 0000000180044934     funcs.obj
 0004:00002940       $pdata$_wrap_func_tail_iterator_t_main$catch$0 0000000180044940     funcs.obj
 0004:0000294c       $pdata$func_tail_iterator_t_swigregister 000000018004494c     funcs.obj
 0004:00002958       $pdata$_wrap_new_func_item_iterator_t__SWIG_0 0000000180044958     funcs.obj
 0004:00002964       $pdata$_wrap_new_func_item_iterator_t__SWIG_0$catch$1 0000000180044964     funcs.obj
 0004:00002970       $pdata$_wrap_new_func_item_iterator_t__SWIG_0$catch$2 0000000180044970     funcs.obj
 0004:0000297c       $pdata$_wrap_new_func_item_iterator_t__SWIG_0$catch$3 000000018004497c     funcs.obj
 0004:00002988       $pdata$_wrap_new_func_item_iterator_t__SWIG_0$catch$4 0000000180044988     funcs.obj
 0004:00002994       $pdata$_wrap_new_func_item_iterator_t__SWIG_0$catch$5 0000000180044994     funcs.obj
 0004:000029a0       $pdata$_wrap_new_func_item_iterator_t__SWIG_0$catch$6 00000001800449a0     funcs.obj
 0004:000029ac       $pdata$_wrap_new_func_item_iterator_t__SWIG_1 00000001800449ac     funcs.obj
 0004:000029b8       $pdata$_wrap_new_func_item_iterator_t__SWIG_1$catch$1 00000001800449b8     funcs.obj
 0004:000029c4       $pdata$_wrap_new_func_item_iterator_t__SWIG_1$catch$2 00000001800449c4     funcs.obj
 0004:000029d0       $pdata$_wrap_new_func_item_iterator_t__SWIG_1$catch$3 00000001800449d0     funcs.obj
 0004:000029dc       $pdata$_wrap_new_func_item_iterator_t__SWIG_1$catch$4 00000001800449dc     funcs.obj
 0004:000029e8       $pdata$_wrap_new_func_item_iterator_t__SWIG_1$catch$5 00000001800449e8     funcs.obj
 0004:000029f4       $pdata$_wrap_new_func_item_iterator_t__SWIG_1$catch$6 00000001800449f4     funcs.obj
 0004:00002a00       $pdata$_wrap_new_func_item_iterator_t 0000000180044a00     funcs.obj
 0004:00002a0c       $pdata$_wrap_func_item_iterator_t_set 0000000180044a0c     funcs.obj
 0004:00002a18       $pdata$_wrap_func_item_iterator_t_set$catch$5 0000000180044a18     funcs.obj
 0004:00002a24       $pdata$_wrap_func_item_iterator_t_set$catch$4 0000000180044a24     funcs.obj
 0004:00002a30       $pdata$_wrap_func_item_iterator_t_set$catch$3 0000000180044a30     funcs.obj
 0004:00002a3c       $pdata$_wrap_func_item_iterator_t_set$catch$2 0000000180044a3c     funcs.obj
 0004:00002a48       $pdata$_wrap_func_item_iterator_t_set$catch$1 0000000180044a48     funcs.obj
 0004:00002a54       $pdata$_wrap_func_item_iterator_t_set$catch$0 0000000180044a54     funcs.obj
 0004:00002a60       $pdata$_wrap_func_item_iterator_t_set_range 0000000180044a60     funcs.obj
 0004:00002a6c       $pdata$_wrap_func_item_iterator_t_set_range$catch$5 0000000180044a6c     funcs.obj
 0004:00002a78       $pdata$_wrap_func_item_iterator_t_set_range$catch$4 0000000180044a78     funcs.obj
 0004:00002a84       $pdata$_wrap_func_item_iterator_t_set_range$catch$3 0000000180044a84     funcs.obj
 0004:00002a90       $pdata$_wrap_func_item_iterator_t_set_range$catch$2 0000000180044a90     funcs.obj
 0004:00002a9c       $pdata$_wrap_func_item_iterator_t_set_range$catch$1 0000000180044a9c     funcs.obj
 0004:00002aa8       $pdata$_wrap_func_item_iterator_t_set_range$catch$0 0000000180044aa8     funcs.obj
 0004:00002ab4       $pdata$_wrap_func_item_iterator_t_first 0000000180044ab4     funcs.obj
 0004:00002ac0       $pdata$_wrap_func_item_iterator_t_first$catch$5 0000000180044ac0     funcs.obj
 0004:00002acc       $pdata$_wrap_func_item_iterator_t_first$catch$4 0000000180044acc     funcs.obj
 0004:00002ad8       $pdata$_wrap_func_item_iterator_t_first$catch$3 0000000180044ad8     funcs.obj
 0004:00002ae4       $pdata$_wrap_func_item_iterator_t_first$catch$2 0000000180044ae4     funcs.obj
 0004:00002af0       $pdata$_wrap_func_item_iterator_t_first$catch$1 0000000180044af0     funcs.obj
 0004:00002afc       $pdata$_wrap_func_item_iterator_t_first$catch$0 0000000180044afc     funcs.obj
 0004:00002b08       $pdata$_wrap_func_item_iterator_t_last 0000000180044b08     funcs.obj
 0004:00002b14       $pdata$_wrap_func_item_iterator_t_last$catch$5 0000000180044b14     funcs.obj
 0004:00002b20       $pdata$_wrap_func_item_iterator_t_last$catch$4 0000000180044b20     funcs.obj
 0004:00002b2c       $pdata$_wrap_func_item_iterator_t_last$catch$3 0000000180044b2c     funcs.obj
 0004:00002b38       $pdata$_wrap_func_item_iterator_t_last$catch$2 0000000180044b38     funcs.obj
 0004:00002b44       $pdata$_wrap_func_item_iterator_t_last$catch$1 0000000180044b44     funcs.obj
 0004:00002b50       $pdata$_wrap_func_item_iterator_t_last$catch$0 0000000180044b50     funcs.obj
 0004:00002b5c       $pdata$_wrap_func_item_iterator_t_current 0000000180044b5c     funcs.obj
 0004:00002b68       $pdata$_wrap_func_item_iterator_t_current$catch$5 0000000180044b68     funcs.obj
 0004:00002b74       $pdata$_wrap_func_item_iterator_t_current$catch$4 0000000180044b74     funcs.obj
 0004:00002b80       $pdata$_wrap_func_item_iterator_t_current$catch$3 0000000180044b80     funcs.obj
 0004:00002b8c       $pdata$_wrap_func_item_iterator_t_current$catch$2 0000000180044b8c     funcs.obj
 0004:00002b98       $pdata$_wrap_func_item_iterator_t_current$catch$1 0000000180044b98     funcs.obj
 0004:00002ba4       $pdata$_wrap_func_item_iterator_t_current$catch$0 0000000180044ba4     funcs.obj
 0004:00002bb0       $pdata$_wrap_func_item_iterator_t_chunk 0000000180044bb0     funcs.obj
 0004:00002bbc       $pdata$_wrap_func_item_iterator_t_chunk$catch$5 0000000180044bbc     funcs.obj
 0004:00002bc8       $pdata$_wrap_func_item_iterator_t_chunk$catch$4 0000000180044bc8     funcs.obj
 0004:00002bd4       $pdata$_wrap_func_item_iterator_t_chunk$catch$3 0000000180044bd4     funcs.obj
 0004:00002be0       $pdata$_wrap_func_item_iterator_t_chunk$catch$2 0000000180044be0     funcs.obj
 0004:00002bec       $pdata$_wrap_func_item_iterator_t_chunk$catch$1 0000000180044bec     funcs.obj
 0004:00002bf8       $pdata$_wrap_func_item_iterator_t_chunk$catch$0 0000000180044bf8     funcs.obj
 0004:00002c04       $pdata$_wrap_func_item_iterator_t_next 0000000180044c04     funcs.obj
 0004:00002c10       $pdata$_wrap_func_item_iterator_t_next$catch$5 0000000180044c10     funcs.obj
 0004:00002c1c       $pdata$_wrap_func_item_iterator_t_next$catch$4 0000000180044c1c     funcs.obj
 0004:00002c28       $pdata$_wrap_func_item_iterator_t_next$catch$3 0000000180044c28     funcs.obj
 0004:00002c34       $pdata$_wrap_func_item_iterator_t_next$catch$2 0000000180044c34     funcs.obj
 0004:00002c40       $pdata$_wrap_func_item_iterator_t_next$catch$1 0000000180044c40     funcs.obj
 0004:00002c4c       $pdata$_wrap_func_item_iterator_t_next$catch$0 0000000180044c4c     funcs.obj
 0004:00002c58       $pdata$_wrap_func_item_iterator_t_prev 0000000180044c58     funcs.obj
 0004:00002c64       $pdata$_wrap_func_item_iterator_t_prev$catch$5 0000000180044c64     funcs.obj
 0004:00002c70       $pdata$_wrap_func_item_iterator_t_prev$catch$4 0000000180044c70     funcs.obj
 0004:00002c7c       $pdata$_wrap_func_item_iterator_t_prev$catch$3 0000000180044c7c     funcs.obj
 0004:00002c88       $pdata$_wrap_func_item_iterator_t_prev$catch$2 0000000180044c88     funcs.obj
 0004:00002c94       $pdata$_wrap_func_item_iterator_t_prev$catch$1 0000000180044c94     funcs.obj
 0004:00002ca0       $pdata$_wrap_func_item_iterator_t_prev$catch$0 0000000180044ca0     funcs.obj
 0004:00002cac       $pdata$_wrap_func_item_iterator_t_next_addr 0000000180044cac     funcs.obj
 0004:00002cb8       $pdata$_wrap_func_item_iterator_t_next_addr$catch$5 0000000180044cb8     funcs.obj
 0004:00002cc4       $pdata$_wrap_func_item_iterator_t_next_addr$catch$4 0000000180044cc4     funcs.obj
 0004:00002cd0       $pdata$_wrap_func_item_iterator_t_next_addr$catch$3 0000000180044cd0     funcs.obj
 0004:00002cdc       $pdata$_wrap_func_item_iterator_t_next_addr$catch$2 0000000180044cdc     funcs.obj
 0004:00002ce8       $pdata$_wrap_func_item_iterator_t_next_addr$catch$1 0000000180044ce8     funcs.obj
 0004:00002cf4       $pdata$_wrap_func_item_iterator_t_next_addr$catch$0 0000000180044cf4     funcs.obj
 0004:00002d00       $pdata$_wrap_func_item_iterator_t_next_head 0000000180044d00     funcs.obj
 0004:00002d0c       $pdata$_wrap_func_item_iterator_t_next_head$catch$5 0000000180044d0c     funcs.obj
 0004:00002d18       $pdata$_wrap_func_item_iterator_t_next_head$catch$4 0000000180044d18     funcs.obj
 0004:00002d24       $pdata$_wrap_func_item_iterator_t_next_head$catch$3 0000000180044d24     funcs.obj
 0004:00002d30       $pdata$_wrap_func_item_iterator_t_next_head$catch$2 0000000180044d30     funcs.obj
 0004:00002d3c       $pdata$_wrap_func_item_iterator_t_next_head$catch$1 0000000180044d3c     funcs.obj
 0004:00002d48       $pdata$_wrap_func_item_iterator_t_next_head$catch$0 0000000180044d48     funcs.obj
 0004:00002d54       $pdata$_wrap_func_item_iterator_t_next_code 0000000180044d54     funcs.obj
 0004:00002d60       $pdata$_wrap_func_item_iterator_t_next_code$catch$5 0000000180044d60     funcs.obj
 0004:00002d6c       $pdata$_wrap_func_item_iterator_t_next_code$catch$4 0000000180044d6c     funcs.obj
 0004:00002d78       $pdata$_wrap_func_item_iterator_t_next_code$catch$3 0000000180044d78     funcs.obj
 0004:00002d84       $pdata$_wrap_func_item_iterator_t_next_code$catch$2 0000000180044d84     funcs.obj
 0004:00002d90       $pdata$_wrap_func_item_iterator_t_next_code$catch$1 0000000180044d90     funcs.obj
 0004:00002d9c       $pdata$_wrap_func_item_iterator_t_next_code$catch$0 0000000180044d9c     funcs.obj
 0004:00002da8       $pdata$_wrap_func_item_iterator_t_next_data 0000000180044da8     funcs.obj
 0004:00002db4       $pdata$_wrap_func_item_iterator_t_next_data$catch$5 0000000180044db4     funcs.obj
 0004:00002dc0       $pdata$_wrap_func_item_iterator_t_next_data$catch$4 0000000180044dc0     funcs.obj
 0004:00002dcc       $pdata$_wrap_func_item_iterator_t_next_data$catch$3 0000000180044dcc     funcs.obj
 0004:00002dd8       $pdata$_wrap_func_item_iterator_t_next_data$catch$2 0000000180044dd8     funcs.obj
 0004:00002de4       $pdata$_wrap_func_item_iterator_t_next_data$catch$1 0000000180044de4     funcs.obj
 0004:00002df0       $pdata$_wrap_func_item_iterator_t_next_data$catch$0 0000000180044df0     funcs.obj
 0004:00002dfc       $pdata$_wrap_func_item_iterator_t_next_not_tail 0000000180044dfc     funcs.obj
 0004:00002e08       $pdata$_wrap_func_item_iterator_t_next_not_tail$catch$5 0000000180044e08     funcs.obj
 0004:00002e14       $pdata$_wrap_func_item_iterator_t_next_not_tail$catch$4 0000000180044e14     funcs.obj
 0004:00002e20       $pdata$_wrap_func_item_iterator_t_next_not_tail$catch$3 0000000180044e20     funcs.obj
 0004:00002e2c       $pdata$_wrap_func_item_iterator_t_next_not_tail$catch$2 0000000180044e2c     funcs.obj
 0004:00002e38       $pdata$_wrap_func_item_iterator_t_next_not_tail$catch$1 0000000180044e38     funcs.obj
 0004:00002e44       $pdata$_wrap_func_item_iterator_t_next_not_tail$catch$0 0000000180044e44     funcs.obj
 0004:00002e50       $pdata$_wrap_func_item_iterator_t_prev_addr 0000000180044e50     funcs.obj
 0004:00002e5c       $pdata$_wrap_func_item_iterator_t_prev_addr$catch$5 0000000180044e5c     funcs.obj
 0004:00002e68       $pdata$_wrap_func_item_iterator_t_prev_addr$catch$4 0000000180044e68     funcs.obj
 0004:00002e74       $pdata$_wrap_func_item_iterator_t_prev_addr$catch$3 0000000180044e74     funcs.obj
 0004:00002e80       $pdata$_wrap_func_item_iterator_t_prev_addr$catch$2 0000000180044e80     funcs.obj
 0004:00002e8c       $pdata$_wrap_func_item_iterator_t_prev_addr$catch$1 0000000180044e8c     funcs.obj
 0004:00002e98       $pdata$_wrap_func_item_iterator_t_prev_addr$catch$0 0000000180044e98     funcs.obj
 0004:00002ea4       $pdata$_wrap_func_item_iterator_t_prev_head 0000000180044ea4     funcs.obj
 0004:00002eb0       $pdata$_wrap_func_item_iterator_t_prev_head$catch$5 0000000180044eb0     funcs.obj
 0004:00002ebc       $pdata$_wrap_func_item_iterator_t_prev_head$catch$4 0000000180044ebc     funcs.obj
 0004:00002ec8       $pdata$_wrap_func_item_iterator_t_prev_head$catch$3 0000000180044ec8     funcs.obj
 0004:00002ed4       $pdata$_wrap_func_item_iterator_t_prev_head$catch$2 0000000180044ed4     funcs.obj
 0004:00002ee0       $pdata$_wrap_func_item_iterator_t_prev_head$catch$1 0000000180044ee0     funcs.obj
 0004:00002eec       $pdata$_wrap_func_item_iterator_t_prev_head$catch$0 0000000180044eec     funcs.obj
 0004:00002ef8       $pdata$_wrap_func_item_iterator_t_prev_code 0000000180044ef8     funcs.obj
 0004:00002f04       $pdata$_wrap_func_item_iterator_t_prev_code$catch$5 0000000180044f04     funcs.obj
 0004:00002f10       $pdata$_wrap_func_item_iterator_t_prev_code$catch$4 0000000180044f10     funcs.obj
 0004:00002f1c       $pdata$_wrap_func_item_iterator_t_prev_code$catch$3 0000000180044f1c     funcs.obj
 0004:00002f28       $pdata$_wrap_func_item_iterator_t_prev_code$catch$2 0000000180044f28     funcs.obj
 0004:00002f34       $pdata$_wrap_func_item_iterator_t_prev_code$catch$1 0000000180044f34     funcs.obj
 0004:00002f40       $pdata$_wrap_func_item_iterator_t_prev_code$catch$0 0000000180044f40     funcs.obj
 0004:00002f4c       $pdata$_wrap_func_item_iterator_t_prev_data 0000000180044f4c     funcs.obj
 0004:00002f58       $pdata$_wrap_func_item_iterator_t_prev_data$catch$5 0000000180044f58     funcs.obj
 0004:00002f64       $pdata$_wrap_func_item_iterator_t_prev_data$catch$4 0000000180044f64     funcs.obj
 0004:00002f70       $pdata$_wrap_func_item_iterator_t_prev_data$catch$3 0000000180044f70     funcs.obj
 0004:00002f7c       $pdata$_wrap_func_item_iterator_t_prev_data$catch$2 0000000180044f7c     funcs.obj
 0004:00002f88       $pdata$_wrap_func_item_iterator_t_prev_data$catch$1 0000000180044f88     funcs.obj
 0004:00002f94       $pdata$_wrap_func_item_iterator_t_prev_data$catch$0 0000000180044f94     funcs.obj
 0004:00002fa0       $pdata$_wrap_func_item_iterator_t_prev_not_tail 0000000180044fa0     funcs.obj
 0004:00002fac       $pdata$_wrap_func_item_iterator_t_prev_not_tail$catch$5 0000000180044fac     funcs.obj
 0004:00002fb8       $pdata$_wrap_func_item_iterator_t_prev_not_tail$catch$4 0000000180044fb8     funcs.obj
 0004:00002fc4       $pdata$_wrap_func_item_iterator_t_prev_not_tail$catch$3 0000000180044fc4     funcs.obj
 0004:00002fd0       $pdata$_wrap_func_item_iterator_t_prev_not_tail$catch$2 0000000180044fd0     funcs.obj
 0004:00002fdc       $pdata$_wrap_func_item_iterator_t_prev_not_tail$catch$1 0000000180044fdc     funcs.obj
 0004:00002fe8       $pdata$_wrap_func_item_iterator_t_prev_not_tail$catch$0 0000000180044fe8     funcs.obj
 0004:00002ff4       $pdata$_wrap_func_item_iterator_t_decode_prev_insn 0000000180044ff4     funcs.obj
 0004:00003000       $pdata$_wrap_func_item_iterator_t_decode_prev_insn$catch$5 0000000180045000     funcs.obj
 0004:0000300c       $pdata$_wrap_func_item_iterator_t_decode_prev_insn$catch$4 000000018004500c     funcs.obj
 0004:00003018       $pdata$_wrap_func_item_iterator_t_decode_prev_insn$catch$3 0000000180045018     funcs.obj
 0004:00003024       $pdata$_wrap_func_item_iterator_t_decode_prev_insn$catch$2 0000000180045024     funcs.obj
 0004:00003030       $pdata$_wrap_func_item_iterator_t_decode_prev_insn$catch$1 0000000180045030     funcs.obj
 0004:0000303c       $pdata$_wrap_func_item_iterator_t_decode_prev_insn$catch$0 000000018004503c     funcs.obj
 0004:00003048       $pdata$_wrap_func_item_iterator_t_decode_preceding_insn 0000000180045048     funcs.obj
 0004:00003054       $pdata$_wrap_func_item_iterator_t_decode_preceding_insn$catch$6 0000000180045054     funcs.obj
 0004:00003060       $pdata$_wrap_func_item_iterator_t_decode_preceding_insn$catch$5 0000000180045060     funcs.obj
 0004:0000306c       $pdata$_wrap_func_item_iterator_t_decode_preceding_insn$catch$4 000000018004506c     funcs.obj
 0004:00003078       $pdata$_wrap_func_item_iterator_t_decode_preceding_insn$catch$3 0000000180045078     funcs.obj
 0004:00003084       $pdata$_wrap_func_item_iterator_t_decode_preceding_insn$catch$2 0000000180045084     funcs.obj
 0004:00003090       $pdata$_wrap_func_item_iterator_t_decode_preceding_insn$catch$1 0000000180045090     funcs.obj
 0004:0000309c       $pdata$_wrap_delete_func_item_iterator_t 000000018004509c     funcs.obj
 0004:000030a8       $pdata$_wrap_delete_func_item_iterator_t$catch$6 00000001800450a8     funcs.obj
 0004:000030b4       $pdata$_wrap_delete_func_item_iterator_t$catch$5 00000001800450b4     funcs.obj
 0004:000030c0       $pdata$_wrap_delete_func_item_iterator_t$catch$4 00000001800450c0     funcs.obj
 0004:000030cc       $pdata$_wrap_delete_func_item_iterator_t$catch$3 00000001800450cc     funcs.obj
 0004:000030d8       $pdata$_wrap_delete_func_item_iterator_t$catch$2 00000001800450d8     funcs.obj
 0004:000030e4       $pdata$_wrap_delete_func_item_iterator_t$catch$1 00000001800450e4     funcs.obj
 0004:000030f0       $pdata$func_item_iterator_t_swigregister 00000001800450f0     funcs.obj
 0004:000030fc       $pdata$_wrap_new_func_parent_iterator_t__SWIG_0 00000001800450fc     funcs.obj
 0004:00003108       $pdata$_wrap_new_func_parent_iterator_t__SWIG_0$catch$1 0000000180045108     funcs.obj
 0004:00003114       $pdata$_wrap_new_func_parent_iterator_t__SWIG_0$catch$2 0000000180045114     funcs.obj
 0004:00003120       $pdata$_wrap_new_func_parent_iterator_t__SWIG_0$catch$3 0000000180045120     funcs.obj
 0004:0000312c       $pdata$_wrap_new_func_parent_iterator_t__SWIG_0$catch$4 000000018004512c     funcs.obj
 0004:00003138       $pdata$_wrap_new_func_parent_iterator_t__SWIG_0$catch$5 0000000180045138     funcs.obj
 0004:00003144       $pdata$_wrap_new_func_parent_iterator_t__SWIG_0$catch$6 0000000180045144     funcs.obj
 0004:00003150       $pdata$_wrap_new_func_parent_iterator_t__SWIG_1 0000000180045150     funcs.obj
 0004:0000315c       $pdata$_wrap_new_func_parent_iterator_t__SWIG_1$catch$1 000000018004515c     funcs.obj
 0004:00003168       $pdata$_wrap_new_func_parent_iterator_t__SWIG_1$catch$2 0000000180045168     funcs.obj
 0004:00003174       $pdata$_wrap_new_func_parent_iterator_t__SWIG_1$catch$3 0000000180045174     funcs.obj
 0004:00003180       $pdata$_wrap_new_func_parent_iterator_t__SWIG_1$catch$4 0000000180045180     funcs.obj
 0004:0000318c       $pdata$_wrap_new_func_parent_iterator_t__SWIG_1$catch$5 000000018004518c     funcs.obj
 0004:00003198       $pdata$_wrap_new_func_parent_iterator_t__SWIG_1$catch$6 0000000180045198     funcs.obj
 0004:000031a4       $pdata$_wrap_new_func_parent_iterator_t 00000001800451a4     funcs.obj
 0004:000031b0       $pdata$_wrap_delete_func_parent_iterator_t 00000001800451b0     funcs.obj
 0004:000031bc       $pdata$_wrap_delete_func_parent_iterator_t$catch$5 00000001800451bc     funcs.obj
 0004:000031c8       $pdata$_wrap_delete_func_parent_iterator_t$catch$4 00000001800451c8     funcs.obj
 0004:000031d4       $pdata$_wrap_delete_func_parent_iterator_t$catch$3 00000001800451d4     funcs.obj
 0004:000031e0       $pdata$_wrap_delete_func_parent_iterator_t$catch$2 00000001800451e0     funcs.obj
 0004:000031ec       $pdata$_wrap_delete_func_parent_iterator_t$catch$1 00000001800451ec     funcs.obj
 0004:000031f8       $pdata$_wrap_delete_func_parent_iterator_t$catch$0 00000001800451f8     funcs.obj
 0004:00003204       $pdata$_wrap_func_parent_iterator_t_set 0000000180045204     funcs.obj
 0004:00003210       $pdata$_wrap_func_parent_iterator_t_set$catch$5 0000000180045210     funcs.obj
 0004:0000321c       $pdata$_wrap_func_parent_iterator_t_set$catch$4 000000018004521c     funcs.obj
 0004:00003228       $pdata$_wrap_func_parent_iterator_t_set$catch$3 0000000180045228     funcs.obj
 0004:00003234       $pdata$_wrap_func_parent_iterator_t_set$catch$2 0000000180045234     funcs.obj
 0004:00003240       $pdata$_wrap_func_parent_iterator_t_set$catch$1 0000000180045240     funcs.obj
 0004:0000324c       $pdata$_wrap_func_parent_iterator_t_set$catch$0 000000018004524c     funcs.obj
 0004:00003258       $pdata$_wrap_func_parent_iterator_t_parent 0000000180045258     funcs.obj
 0004:00003264       $pdata$_wrap_func_parent_iterator_t_parent$catch$5 0000000180045264     funcs.obj
 0004:00003270       $pdata$_wrap_func_parent_iterator_t_parent$catch$4 0000000180045270     funcs.obj
 0004:0000327c       $pdata$_wrap_func_parent_iterator_t_parent$catch$3 000000018004527c     funcs.obj
 0004:00003288       $pdata$_wrap_func_parent_iterator_t_parent$catch$2 0000000180045288     funcs.obj
 0004:00003294       $pdata$_wrap_func_parent_iterator_t_parent$catch$1 0000000180045294     funcs.obj
 0004:000032a0       $pdata$_wrap_func_parent_iterator_t_parent$catch$0 00000001800452a0     funcs.obj
 0004:000032ac       $pdata$_wrap_func_parent_iterator_t_first 00000001800452ac     funcs.obj
 0004:000032b8       $pdata$_wrap_func_parent_iterator_t_first$catch$5 00000001800452b8     funcs.obj
 0004:000032c4       $pdata$_wrap_func_parent_iterator_t_first$catch$4 00000001800452c4     funcs.obj
 0004:000032d0       $pdata$_wrap_func_parent_iterator_t_first$catch$3 00000001800452d0     funcs.obj
 0004:000032dc       $pdata$_wrap_func_parent_iterator_t_first$catch$2 00000001800452dc     funcs.obj
 0004:000032e8       $pdata$_wrap_func_parent_iterator_t_first$catch$1 00000001800452e8     funcs.obj
 0004:000032f4       $pdata$_wrap_func_parent_iterator_t_first$catch$0 00000001800452f4     funcs.obj
 0004:00003300       $pdata$_wrap_func_parent_iterator_t_last 0000000180045300     funcs.obj
 0004:0000330c       $pdata$_wrap_func_parent_iterator_t_last$catch$5 000000018004530c     funcs.obj
 0004:00003318       $pdata$_wrap_func_parent_iterator_t_last$catch$4 0000000180045318     funcs.obj
 0004:00003324       $pdata$_wrap_func_parent_iterator_t_last$catch$3 0000000180045324     funcs.obj
 0004:00003330       $pdata$_wrap_func_parent_iterator_t_last$catch$2 0000000180045330     funcs.obj
 0004:0000333c       $pdata$_wrap_func_parent_iterator_t_last$catch$1 000000018004533c     funcs.obj
 0004:00003348       $pdata$_wrap_func_parent_iterator_t_last$catch$0 0000000180045348     funcs.obj
 0004:00003354       $pdata$_wrap_func_parent_iterator_t_next 0000000180045354     funcs.obj
 0004:00003360       $pdata$_wrap_func_parent_iterator_t_next$catch$5 0000000180045360     funcs.obj
 0004:0000336c       $pdata$_wrap_func_parent_iterator_t_next$catch$4 000000018004536c     funcs.obj
 0004:00003378       $pdata$_wrap_func_parent_iterator_t_next$catch$3 0000000180045378     funcs.obj
 0004:00003384       $pdata$_wrap_func_parent_iterator_t_next$catch$2 0000000180045384     funcs.obj
 0004:00003390       $pdata$_wrap_func_parent_iterator_t_next$catch$1 0000000180045390     funcs.obj
 0004:0000339c       $pdata$_wrap_func_parent_iterator_t_next$catch$0 000000018004539c     funcs.obj
 0004:000033a8       $pdata$_wrap_func_parent_iterator_t_prev 00000001800453a8     funcs.obj
 0004:000033b4       $pdata$_wrap_func_parent_iterator_t_prev$catch$5 00000001800453b4     funcs.obj
 0004:000033c0       $pdata$_wrap_func_parent_iterator_t_prev$catch$4 00000001800453c0     funcs.obj
 0004:000033cc       $pdata$_wrap_func_parent_iterator_t_prev$catch$3 00000001800453cc     funcs.obj
 0004:000033d8       $pdata$_wrap_func_parent_iterator_t_prev$catch$2 00000001800453d8     funcs.obj
 0004:000033e4       $pdata$_wrap_func_parent_iterator_t_prev$catch$1 00000001800453e4     funcs.obj
 0004:000033f0       $pdata$_wrap_func_parent_iterator_t_prev$catch$0 00000001800453f0     funcs.obj
 0004:000033fc       $pdata$_wrap_func_parent_iterator_t_reset_fnt 00000001800453fc     funcs.obj
 0004:00003408       $pdata$_wrap_func_parent_iterator_t_reset_fnt$catch$5 0000000180045408     funcs.obj
 0004:00003414       $pdata$_wrap_func_parent_iterator_t_reset_fnt$catch$4 0000000180045414     funcs.obj
 0004:00003420       $pdata$_wrap_func_parent_iterator_t_reset_fnt$catch$3 0000000180045420     funcs.obj
 0004:0000342c       $pdata$_wrap_func_parent_iterator_t_reset_fnt$catch$2 000000018004542c     funcs.obj
 0004:00003438       $pdata$_wrap_func_parent_iterator_t_reset_fnt$catch$1 0000000180045438     funcs.obj
 0004:00003444       $pdata$_wrap_func_parent_iterator_t_reset_fnt$catch$0 0000000180045444     funcs.obj
 0004:00003450       $pdata$func_parent_iterator_t_swigregister 0000000180045450     funcs.obj
 0004:0000345c       $pdata$_wrap_get_prev_func_addr 000000018004545c     funcs.obj
 0004:00003468       $pdata$_wrap_get_prev_func_addr$catch$5 0000000180045468     funcs.obj
 0004:00003474       $pdata$_wrap_get_prev_func_addr$catch$4 0000000180045474     funcs.obj
 0004:00003480       $pdata$_wrap_get_prev_func_addr$catch$3 0000000180045480     funcs.obj
 0004:0000348c       $pdata$_wrap_get_prev_func_addr$catch$2 000000018004548c     funcs.obj
 0004:00003498       $pdata$_wrap_get_prev_func_addr$catch$1 0000000180045498     funcs.obj
 0004:000034a4       $pdata$_wrap_get_prev_func_addr$catch$0 00000001800454a4     funcs.obj
 0004:000034b0       $pdata$_wrap_get_next_func_addr 00000001800454b0     funcs.obj
 0004:000034bc       $pdata$_wrap_get_next_func_addr$catch$5 00000001800454bc     funcs.obj
 0004:000034c8       $pdata$_wrap_get_next_func_addr$catch$4 00000001800454c8     funcs.obj
 0004:000034d4       $pdata$_wrap_get_next_func_addr$catch$3 00000001800454d4     funcs.obj
 0004:000034e0       $pdata$_wrap_get_next_func_addr$catch$2 00000001800454e0     funcs.obj
 0004:000034ec       $pdata$_wrap_get_next_func_addr$catch$1 00000001800454ec     funcs.obj
 0004:000034f8       $pdata$_wrap_get_next_func_addr$catch$0 00000001800454f8     funcs.obj
 0004:00003504       $pdata$_wrap_read_regargs  0000000180045504     funcs.obj
 0004:00003510       $pdata$_wrap_read_regargs$catch$5 0000000180045510     funcs.obj
 0004:0000351c       $pdata$_wrap_read_regargs$catch$4 000000018004551c     funcs.obj
 0004:00003528       $pdata$_wrap_read_regargs$catch$3 0000000180045528     funcs.obj
 0004:00003534       $pdata$_wrap_read_regargs$catch$2 0000000180045534     funcs.obj
 0004:00003540       $pdata$_wrap_read_regargs$catch$1 0000000180045540     funcs.obj
 0004:0000354c       $pdata$_wrap_read_regargs$catch$0 000000018004554c     funcs.obj
 0004:00003558       $pdata$_wrap_add_regarg    0000000180045558     funcs.obj
 0004:00003564       $pdata$_wrap_add_regarg$catch$5 0000000180045564     funcs.obj
 0004:00003570       $pdata$_wrap_add_regarg$catch$4 0000000180045570     funcs.obj
 0004:0000357c       $pdata$_wrap_add_regarg$catch$3 000000018004557c     funcs.obj
 0004:00003588       $pdata$_wrap_add_regarg$catch$2 0000000180045588     funcs.obj
 0004:00003594       $pdata$_wrap_add_regarg$catch$1 0000000180045594     funcs.obj
 0004:000035a0       $pdata$_wrap_add_regarg$catch$0 00000001800455a0     funcs.obj
 0004:000035ac       $pdata$_wrap_plan_to_apply_idasgn 00000001800455ac     funcs.obj
 0004:000035b8       $pdata$_wrap_plan_to_apply_idasgn$catch$5 00000001800455b8     funcs.obj
 0004:000035c4       $pdata$_wrap_plan_to_apply_idasgn$catch$4 00000001800455c4     funcs.obj
 0004:000035d0       $pdata$_wrap_plan_to_apply_idasgn$catch$3 00000001800455d0     funcs.obj
 0004:000035dc       $pdata$_wrap_plan_to_apply_idasgn$catch$2 00000001800455dc     funcs.obj
 0004:000035e8       $pdata$_wrap_plan_to_apply_idasgn$catch$1 00000001800455e8     funcs.obj
 0004:000035f4       $pdata$_wrap_plan_to_apply_idasgn$catch$0 00000001800455f4     funcs.obj
 0004:00003600       $pdata$_wrap_apply_idasgn_to 0000000180045600     funcs.obj
 0004:0000360c       $pdata$_wrap_apply_idasgn_to$catch$5 000000018004560c     funcs.obj
 0004:00003618       $pdata$_wrap_apply_idasgn_to$catch$4 0000000180045618     funcs.obj
 0004:00003624       $pdata$_wrap_apply_idasgn_to$catch$3 0000000180045624     funcs.obj
 0004:00003630       $pdata$_wrap_apply_idasgn_to$catch$2 0000000180045630     funcs.obj
 0004:0000363c       $pdata$_wrap_apply_idasgn_to$catch$1 000000018004563c     funcs.obj
 0004:00003648       $pdata$_wrap_apply_idasgn_to$catch$0 0000000180045648     funcs.obj
 0004:00003654       $pdata$_wrap_get_idasgn_qty 0000000180045654     funcs.obj
 0004:00003660       $pdata$_wrap_get_idasgn_qty$catch$5 0000000180045660     funcs.obj
 0004:0000366c       $pdata$_wrap_get_idasgn_qty$catch$4 000000018004566c     funcs.obj
 0004:00003678       $pdata$_wrap_get_idasgn_qty$catch$3 0000000180045678     funcs.obj
 0004:00003684       $pdata$_wrap_get_idasgn_qty$catch$2 0000000180045684     funcs.obj
 0004:00003690       $pdata$_wrap_get_idasgn_qty$catch$1 0000000180045690     funcs.obj
 0004:0000369c       $pdata$_wrap_get_idasgn_qty$catch$0 000000018004569c     funcs.obj
 0004:000036a8       $pdata$_wrap_get_current_idasgn 00000001800456a8     funcs.obj
 0004:000036b4       $pdata$_wrap_get_current_idasgn$catch$5 00000001800456b4     funcs.obj
 0004:000036c0       $pdata$_wrap_get_current_idasgn$catch$4 00000001800456c0     funcs.obj
 0004:000036cc       $pdata$_wrap_get_current_idasgn$catch$3 00000001800456cc     funcs.obj
 0004:000036d8       $pdata$_wrap_get_current_idasgn$catch$2 00000001800456d8     funcs.obj
 0004:000036e4       $pdata$_wrap_get_current_idasgn$catch$1 00000001800456e4     funcs.obj
 0004:000036f0       $pdata$_wrap_get_current_idasgn$catch$0 00000001800456f0     funcs.obj
 0004:000036fc       $pdata$_wrap_calc_idasgn_state 00000001800456fc     funcs.obj
 0004:00003708       $pdata$_wrap_calc_idasgn_state$catch$5 0000000180045708     funcs.obj
 0004:00003714       $pdata$_wrap_calc_idasgn_state$catch$4 0000000180045714     funcs.obj
 0004:00003720       $pdata$_wrap_calc_idasgn_state$catch$3 0000000180045720     funcs.obj
 0004:0000372c       $pdata$_wrap_calc_idasgn_state$catch$2 000000018004572c     funcs.obj
 0004:00003738       $pdata$_wrap_calc_idasgn_state$catch$1 0000000180045738     funcs.obj
 0004:00003744       $pdata$_wrap_calc_idasgn_state$catch$0 0000000180045744     funcs.obj
 0004:00003750       $pdata$_wrap_del_idasgn    0000000180045750     funcs.obj
 0004:0000375c       $pdata$_wrap_del_idasgn$catch$5 000000018004575c     funcs.obj
 0004:00003768       $pdata$_wrap_del_idasgn$catch$4 0000000180045768     funcs.obj
 0004:00003774       $pdata$_wrap_del_idasgn$catch$3 0000000180045774     funcs.obj
 0004:00003780       $pdata$_wrap_del_idasgn$catch$2 0000000180045780     funcs.obj
 0004:0000378c       $pdata$_wrap_del_idasgn$catch$1 000000018004578c     funcs.obj
 0004:00003798       $pdata$_wrap_del_idasgn$catch$0 0000000180045798     funcs.obj
 0004:000037a4       $pdata$_wrap_get_idasgn_title 00000001800457a4     funcs.obj
 0004:000037b0       $pdata$_wrap_get_idasgn_title$catch$8 00000001800457b0     funcs.obj
 0004:000037bc       $pdata$_wrap_get_idasgn_title$catch$7 00000001800457bc     funcs.obj
 0004:000037c8       $pdata$_wrap_get_idasgn_title$catch$6 00000001800457c8     funcs.obj
 0004:000037d4       $pdata$_wrap_get_idasgn_title$catch$5 00000001800457d4     funcs.obj
 0004:000037e0       $pdata$_wrap_get_idasgn_title$catch$4 00000001800457e0     funcs.obj
 0004:000037ec       $pdata$_wrap_get_idasgn_title$catch$3 00000001800457ec     funcs.obj
 0004:000037f8       $pdata$_wrap_apply_startup_sig 00000001800457f8     funcs.obj
 0004:00003804       $pdata$_wrap_apply_startup_sig$catch$5 0000000180045804     funcs.obj
 0004:00003810       $pdata$_wrap_apply_startup_sig$catch$4 0000000180045810     funcs.obj
 0004:0000381c       $pdata$_wrap_apply_startup_sig$catch$3 000000018004581c     funcs.obj
 0004:00003828       $pdata$_wrap_apply_startup_sig$catch$2 0000000180045828     funcs.obj
 0004:00003834       $pdata$_wrap_apply_startup_sig$catch$1 0000000180045834     funcs.obj
 0004:00003840       $pdata$_wrap_apply_startup_sig$catch$0 0000000180045840     funcs.obj
 0004:0000384c       $pdata$_wrap_try_to_add_libfunc 000000018004584c     funcs.obj
 0004:00003858       $pdata$_wrap_try_to_add_libfunc$catch$5 0000000180045858     funcs.obj
 0004:00003864       $pdata$_wrap_try_to_add_libfunc$catch$4 0000000180045864     funcs.obj
 0004:00003870       $pdata$_wrap_try_to_add_libfunc$catch$3 0000000180045870     funcs.obj
 0004:0000387c       $pdata$_wrap_try_to_add_libfunc$catch$2 000000018004587c     funcs.obj
 0004:00003888       $pdata$_wrap_try_to_add_libfunc$catch$1 0000000180045888     funcs.obj
 0004:00003894       $pdata$_wrap_try_to_add_libfunc$catch$0 0000000180045894     funcs.obj
 0004:000038a0       $pdata$_wrap_get_fchunk_referer 00000001800458a0     funcs.obj
 0004:000038ac       $pdata$_wrap_get_fchunk_referer$catch$5 00000001800458ac     funcs.obj
 0004:000038b8       $pdata$_wrap_get_fchunk_referer$catch$4 00000001800458b8     funcs.obj
 0004:000038c4       $pdata$_wrap_get_fchunk_referer$catch$3 00000001800458c4     funcs.obj
 0004:000038d0       $pdata$_wrap_get_fchunk_referer$catch$2 00000001800458d0     funcs.obj
 0004:000038dc       $pdata$_wrap_get_fchunk_referer$catch$1 00000001800458dc     funcs.obj
 0004:000038e8       $pdata$_wrap_get_fchunk_referer$catch$0 00000001800458e8     funcs.obj
 0004:000038f4       $pdata$_wrap_get_idasgn_desc 00000001800458f4     funcs.obj
 0004:00003900       $pdata$_wrap_get_idasgn_desc$catch$11 0000000180045900     funcs.obj
 0004:0000390c       $pdata$_wrap_get_idasgn_desc$catch$10 000000018004590c     funcs.obj
 0004:00003918       $pdata$_wrap_get_idasgn_desc$catch$9 0000000180045918     funcs.obj
 0004:00003924       $pdata$_wrap_get_idasgn_desc$catch$8 0000000180045924     funcs.obj
 0004:00003930       $pdata$_wrap_get_idasgn_desc$catch$7 0000000180045930     funcs.obj
 0004:0000393c       $pdata$_wrap_get_idasgn_desc$catch$6 000000018004593c     funcs.obj
 0004:00003948       $pdata$_wrap_get_idasgn_desc_with_matches 0000000180045948     funcs.obj
 0004:00003954       $pdata$_wrap_get_idasgn_desc_with_matches$catch$11 0000000180045954     funcs.obj
 0004:00003960       $pdata$_wrap_get_idasgn_desc_with_matches$catch$10 0000000180045960     funcs.obj
 0004:0000396c       $pdata$_wrap_get_idasgn_desc_with_matches$catch$9 000000018004596c     funcs.obj
 0004:00003978       $pdata$_wrap_get_idasgn_desc_with_matches$catch$8 0000000180045978     funcs.obj
 0004:00003984       $pdata$_wrap_get_idasgn_desc_with_matches$catch$7 0000000180045984     funcs.obj
 0004:00003990       $pdata$_wrap_get_idasgn_desc_with_matches$catch$6 0000000180045990     funcs.obj
 0004:0000399c       $pdata$_wrap_func_t__from_ptrval__ 000000018004599c     funcs.obj
 0004:000039a8       $pdata$_wrap_func_t__from_ptrval__$catch$5 00000001800459a8     funcs.obj
 0004:000039b4       $pdata$_wrap_func_t__from_ptrval__$catch$4 00000001800459b4     funcs.obj
 0004:000039c0       $pdata$_wrap_func_t__from_ptrval__$catch$3 00000001800459c0     funcs.obj
 0004:000039cc       $pdata$_wrap_func_t__from_ptrval__$catch$2 00000001800459cc     funcs.obj
 0004:000039d8       $pdata$_wrap_func_t__from_ptrval__$catch$1 00000001800459d8     funcs.obj
 0004:000039e4       $pdata$_wrap_func_t__from_ptrval__$catch$0 00000001800459e4     funcs.obj
 0004:000039f0       $pdata$SWIG_InitializeModule 00000001800459f0     funcs.obj
 0004:000039fc       $pdata$1$SWIG_InitializeModule 00000001800459fc     funcs.obj
 0004:00003a08       $pdata$4$SWIG_InitializeModule 0000000180045a08     funcs.obj
 0004:00003a14       $pdata$5$SWIG_InitializeModule 0000000180045a14     funcs.obj
 0004:00003a20       $pdata$6$SWIG_InitializeModule 0000000180045a20     funcs.obj
 0004:00003a2c       $pdata$SWIG_Python_FixMethods 0000000180045a2c     funcs.obj
 0004:00003a38       $pdata$4$SWIG_Python_FixMethods 0000000180045a38     funcs.obj
 0004:00003a44       $pdata$5$SWIG_Python_FixMethods 0000000180045a44     funcs.obj
 0004:00003a50       $pdata$PyInit__ida_funcs   0000000180045a50     funcs.obj
 0004:00003a5c       $pdata$1$PyInit__ida_funcs 0000000180045a5c     funcs.obj
 0004:00003a68       $pdata$2$PyInit__ida_funcs 0000000180045a68     funcs.obj
 0004:00003a74       $pdata$3$PyInit__ida_funcs 0000000180045a74     funcs.obj
 0004:00003a80       $pdata$4$PyInit__ida_funcs 0000000180045a80     funcs.obj
 0004:00003a8c       $pdata$??2@YAPEAX_K@Z      0000000180045a8c     MSVCRT:new_scalar.obj
 0004:00003a98       $pdata$_Init_thread_header 0000000180045a98     MSVCRT:thread_safe_statics.obj
 0004:00003aa4       $pdata$_Init_thread_footer 0000000180045aa4     MSVCRT:thread_safe_statics.obj
 0004:00003ab0       $pdata$_Init_thread_wait   0000000180045ab0     MSVCRT:thread_safe_statics.obj
 0004:00003abc       $pdata$_Init_thread_notify 0000000180045abc     MSVCRT:thread_safe_statics.obj
 0004:00003ac8       $pdata$?__scrt_uninitialize_thread_safe_statics@@YAXXZ 0000000180045ac8     MSVCRT:thread_safe_statics.obj
 0004:00003ad4       $pdata$?__scrt_initialize_thread_safe_statics@@YAHXZ 0000000180045ad4     MSVCRT:thread_safe_statics.obj
 0004:00003ae0       $pdata$__GSHandlerCheckCommon 0000000180045ae0     MSVCRT:gshandler.obj
 0004:00003aec       $pdata$__GSHandlerCheck    0000000180045aec     MSVCRT:gshandler.obj
 0004:00003af8       $pdata$__GSHandlerCheck_EH 0000000180045af8     MSVCRT:gshandlereh.obj
 0004:00003b10       $pdata$??_Gtype_info@@UEAAPEAXI@Z 0000000180045b10     MSVCRT:std_type_info_static.obj
 0004:00003b1c       $pdata$?dllmain_crt_process_attach@@YAHQEAUHINSTANCE__@@QEAX@Z 0000000180045b1c     MSVCRT:dll_dllmain.obj
 0004:00003b28       $pdata$?fin$0@?0??dllmain_crt_process_attach@@YAHQEAUHINSTANCE__@@QEAX@Z@4HA 0000000180045b28     MSVCRT:dll_dllmain.obj
 0004:00003b34       $pdata$?dllmain_crt_process_detach@@YAH_N@Z 0000000180045b34     MSVCRT:dll_dllmain.obj
 0004:00003b40       $pdata$?fin$0@?0??dllmain_crt_process_detach@@YAH_N@Z@4HA 0000000180045b40     MSVCRT:dll_dllmain.obj
 0004:00003b4c       $pdata$?dllmain_crt_dispatch@@YAHQEAUHINSTANCE__@@KQEAX@Z 0000000180045b4c     MSVCRT:dll_dllmain.obj
 0004:00003b58       $pdata$?dllmain_dispatch@@YAHQEAUHINSTANCE__@@KQEAX@Z 0000000180045b58     MSVCRT:dll_dllmain.obj
 0004:00003b64       $pdata$?filt$0@?0??dllmain_dispatch@@YAHQEAUHINSTANCE__@@KQEAX@Z@4HA 0000000180045b64     MSVCRT:dll_dllmain.obj
 0004:00003b70       $pdata$_DllMainCRTStartup  0000000180045b70     MSVCRT:dll_dllmain.obj
 0004:00003b7c       $pdata$??0bad_alloc@std@@QEAA@AEBV01@@Z 0000000180045b7c     MSVCRT:throw_bad_alloc.obj
 0004:00003b88       $pdata$??0bad_array_new_length@std@@QEAA@AEBV01@@Z 0000000180045b88     MSVCRT:throw_bad_alloc.obj
 0004:00003b94       $pdata$?__scrt_throw_std_bad_alloc@@YAXXZ 0000000180045b94     MSVCRT:throw_bad_alloc.obj
 0004:00003ba0       $pdata$?__scrt_throw_std_bad_array_new_length@@YAXXZ 0000000180045ba0     MSVCRT:throw_bad_alloc.obj
 0004:00003bac       $pdata$atexit              0000000180045bac     MSVCRT:utility.obj
 0004:00003bb8       $pdata$_onexit             0000000180045bb8     MSVCRT:utility.obj
 0004:00003bc4       $pdata$__scrt_is_nonwritable_in_current_image 0000000180045bc4     MSVCRT:utility.obj
 0004:00003bd0       $pdata$__scrt_is_nonwritable_in_current_image$filt$0 0000000180045bd0     MSVCRT:utility.obj
 0004:00003bdc       $pdata$__scrt_acquire_startup_lock 0000000180045bdc     MSVCRT:utility.obj
 0004:00003be8       $pdata$__scrt_release_startup_lock 0000000180045be8     MSVCRT:utility.obj
 0004:00003bf4       $pdata$__scrt_initialize_crt 0000000180045bf4     MSVCRT:utility.obj
 0004:00003c00       $pdata$__scrt_uninitialize_crt 0000000180045c00     MSVCRT:utility.obj
 0004:00003c0c       $pdata$__scrt_initialize_onexit_tables 0000000180045c0c     MSVCRT:utility.obj
 0004:00003c18       $pdata$__scrt_dllmain_exception_filter 0000000180045c18     MSVCRT:utility.obj
 0004:00003c24       $pdata$__scrt_dllmain_before_initialize_c 0000000180045c24     MSVCRT:utility.obj
 0004:00003c30       $pdata$__scrt_dllmain_after_initialize_c 0000000180045c30     MSVCRT:utility.obj
 0004:00003c3c       $pdata$__scrt_dllmain_uninitialize_c 0000000180045c3c     MSVCRT:utility.obj
 0004:00003c48       $pdata$__scrt_dllmain_uninitialize_critical 0000000180045c48     MSVCRT:utility.obj
 0004:00003c54       $pdata$__scrt_dllmain_crt_thread_attach 0000000180045c54     MSVCRT:utility.obj
 0004:00003c60       $pdata$__scrt_dllmain_crt_thread_detach 0000000180045c60     MSVCRT:utility.obj
 0004:00003c6c       $pdata$__scrt_fastfail     0000000180045c6c     MSVCRT:utility_desktop.obj
 0004:00003c78       $pdata$__report_gsfailure  0000000180045c78     MSVCRT:gs_report.obj
 0004:00003c84       $pdata$capture_previous_context 0000000180045c84     MSVCRT:gs_report.obj
 0004:00003c90       $pdata$__raise_securityfailure 0000000180045c90     MSVCRT:gs_report.obj
 0004:00003c9c       $pdata$__security_init_cookie 0000000180045c9c     MSVCRT:gs_support.obj
 0004:00003ca8       $pdata$DllMain             0000000180045ca8     MSVCRT:dll_dllmain_stub.obj
 0004:00003cb4       $pdata$__scrt_initialize_default_local_stdio_options 0000000180045cb4     MSVCRT:default_local_stdio_options.obj
 0004:00003cc0       $pdata$_RTC_Initialize     0000000180045cc0     MSVCRT:initsect.obj
 0004:00003ccc       $pdata$_RTC_Terminate      0000000180045ccc     MSVCRT:initsect.obj
 0004:00003cd8       $pdata$__isa_available_init 0000000180045cd8     MSVCRT:cpu_disp.obj
