 _ida_ua

 Timestamp is 5e3da0c5 (Fri Feb  7 17:39:17 2020)

 Preferred load address is 0000000180000000

 Start         Length     Name                   Class
 0001:00000000 0001b8f0H .text$mn                CODE
 0001:0001b8f0 00000020H .text$mn$00             CODE
 0001:0001b910 0000a570H .text$x                 CODE
 0001:00025e80 0000008fH .text$yd                CODE
 0002:00000000 000005f0H .idata$5                DATA
 0002:000005f0 00000010H .00cfg                  DATA
 0002:00000600 00000008H .CRT$XCA                DATA
 0002:00000608 00000008H .CRT$XCZ                DATA
 0002:00000610 00000008H .CRT$XIA                DATA
 0002:00000618 00000008H .CRT$XIC                DATA
 0002:00000620 00000008H .CRT$XIZ                DATA
 0002:00000628 00000008H .CRT$XLA                DATA
 0002:00000630 00000008H .CRT$XLZ                DATA
 0002:00000638 00000008H .CRT$XPA                DATA
 0002:00000640 00000008H .CRT$XPZ                DATA
 0002:00000648 00000008H .CRT$XTA                DATA
 0002:00000650 00000010H .CRT$XTZ                DATA
 0002:00000658 00000000H .gfids$y                DATA
 0002:00000660 0000e7a0H .rdata                  DATA
 0002:0000ee00 00000028H .rdata$T                DATA
 0002:0000ee28 000002fcH .rdata$r                DATA
 0002:0000f124 00000324H .rdata$zzzdbg           DATA
 0002:0000f448 00000008H .rtc$IAA                DATA
 0002:0000f450 00000008H .rtc$IZZ                DATA
 0002:0000f458 00000008H .rtc$TAA                DATA
 0002:0000f460 00000008H .rtc$TZZ                DATA
 0002:0000f468 00000004H .tls                    DATA
 0002:0000f46c 00000004H .tls$                   DATA
 0002:0000f470 00000010H .tls$ZZZ                DATA
 0002:0000f480 00008b30H .xdata                  DATA
 0002:00017fb0 00000180H .xdata$x                DATA
 0002:00018130 00000050H .edata                  DATA
 0002:00018180 000000b4H .idata$2                DATA
 0002:00018234 00000014H .idata$3                DATA
 0002:00018248 000005f0H .idata$4                DATA
 0002:00018838 00000ebcH .idata$6                DATA
 0003:00000000 000041e8H .data                   DATA
 0003:000041e8 00000148H .data$r                 DATA
 0003:00004330 00000970H .bss                    DATA
 0004:00000000 00003e28H .pdata                  DATA

  Address         Publics by Value              Rva+Base               Lib:Object

 0000:00000000       ___safe_se_handler_count   0000000000000000     <absolute>
 0000:00000000       __enclave_config           0000000000000000     <absolute>
 0000:00000000       __hybrid_code_map_count    0000000000000000     <absolute>
 0000:00000000       __guard_iat_table          0000000000000000     <absolute>
 0000:00000000       __hybrid_code_map          0000000000000000     <absolute>
 0000:00000000       __guard_fids_count         0000000000000000     <absolute>
 0000:00000000       ___safe_se_handler_table   0000000000000000     <absolute>
 0000:00000000       __dynamic_value_reloc_table 0000000000000000     <absolute>
 0000:00000000       __guard_iat_count          0000000000000000     <absolute>
 0000:00000000       __guard_longjmp_table      0000000000000000     <absolute>
 0000:00000000       __guard_fids_table         0000000000000000     <absolute>
 0000:00000000       __volatile_metadata        0000000000000000     <absolute>
 0000:00000000       __guard_longjmp_count      0000000000000000     <absolute>
 0000:00000000       __hybrid_auxiliary_iat     0000000000000000     <absolute>
 0000:00000100       __guard_flags              0000000000000100     <absolute>
 0000:00000000       __ImageBase                0000000180000000     <linker-defined>
 0001:000150d0       ??0?$_qstring@D@@QEAA@PEBD_K@Z 00000001800160d0 f i ua.obj
 0001:00015160       ??0exception@std@@QEAA@AEBV01@@Z 0000000180016160 f i ua.obj
 0001:000151a0       ??0logic_error@std@@QEAA@AEBV01@@Z 00000001800161a0 f i ua.obj
 0001:000151e0       ??0out_of_range@std@@QEAA@AEBV01@@Z 00000001800161e0 f i ua.obj
 0001:00015220       ??0out_of_range@std@@QEAA@PEBD@Z 0000000180016220 f i ua.obj
 0001:00015270       ??1?$SwigValueWrapper@U?$wrapped_array_t@Vop_t@@$07@@@@QEAA@XZ 0000000180016270 f i ua.obj
 0001:00015280       ??1?$_qstring@D@@QEAA@XZ   0000000180016280 f i ua.obj
 0001:00015290       ??1bad_array_new_length@std@@UEAA@XZ 0000000180016290 f i MSVCRT:throw_bad_alloc.obj
 0001:00015290       ??1out_of_range@std@@UEAA@XZ 0000000180016290 f i ua.obj
 0001:00015290       ??1bad_alloc@std@@UEAA@XZ  0000000180016290 f i MSVCRT:throw_bad_alloc.obj
 0001:000152b0       ??4?$_qstring@D@@QEAAAEAV0@AEBV0@@Z 00000001800162b0 f i ua.obj
 0001:00015330       ??_Elogic_error@std@@UEAAPEAXI@Z 0000000180016330 f i ua.obj
 0001:00015330       ??_Glogic_error@std@@UEAAPEAXI@Z 0000000180016330 f i ua.obj
 0001:00015330       ??_Ebad_alloc@std@@UEAAPEAXI@Z 0000000180016330 f i MSVCRT:throw_bad_alloc.obj
 0001:00015330       ??_Eout_of_range@std@@UEAAPEAXI@Z 0000000180016330 f i ua.obj
 0001:00015330       ??_Gout_of_range@std@@UEAAPEAXI@Z 0000000180016330 f i ua.obj
 0001:00015330       ??_Gbad_alloc@std@@UEAAPEAXI@Z 0000000180016330 f i MSVCRT:throw_bad_alloc.obj
 0001:00015330       ??_Gbad_array_new_length@std@@UEAAPEAXI@Z 0000000180016330 f i MSVCRT:throw_bad_alloc.obj
 0001:00015330       ??_Gexception@std@@UEAAPEAXI@Z 0000000180016330 f i ua.obj
 0001:00015330       ??_Eexception@std@@UEAAPEAXI@Z 0000000180016330 f i ua.obj
 0001:00015330       ??_Ebad_array_new_length@std@@UEAAPEAXI@Z 0000000180016330 f i MSVCRT:throw_bad_alloc.obj
 0001:00015d40       ?gen_cmt_line@outctx_base_t@@QEAA_NPEBDZZ 0000000180016d40 f i ua.obj
 0001:00015d70       ?gen_collapsed_line@outctx_base_t@@QEAA_NPEBDZZ 0000000180016d70 f i ua.obj
 0001:00015da0       ?gen_printf@outctx_base_t@@QEAA_NHPEBDZZ 0000000180016da0 f i ua.obj
 0001:00015dd0       ?out_printf@outctx_base_t@@QEAAXPEBDZZ 0000000180016dd0 f i ua.obj
 0001:00015e00       ?py_construct_macro@@YA_NAEAVinsn_t@@_NPEAU_object@@@Z 0000000180016e00 f   ua.obj
 0001:00016060       ?resize@?$qvector@D@@QEAAX_K@Z 0000000180017060 f i ua.obj
 0001:000160c0       ?sprnt@?$_qstring@D@@QEAAAEAV1@PEBDZZ 00000001800170c0 f i ua.obj
 0001:00016180       ?what@exception@std@@UEBAPEBDXZ 0000000180017180 f i ua.obj
 0001:000161a0       PyInit__ida_ua             00000001800171a0 f   ua.obj
 0001:00018840       __local_stdio_printf_options 0000000180019840 f i ua.obj
 0001:0001a150       printf                     000000018001b150 f i ua.obj
 0001:0001a453       interr                     000000018001b453 f   ida:ida.dll
 0001:0001a459       qfree                      000000018001b459 f   ida:ida.dll
 0001:0001a45f       qvsnprintf                 000000018001b45f f   ida:ida.dll
 0001:0001a465       qvector_reserve            000000018001b465 f   ida:ida.dll
 0001:0001a46b       is_main_thread             000000018001b46b f   ida:ida.dll
 0001:0001a471       closing_comment            000000018001b471 f   ida:ida.dll
 0001:0001a477       get_flags_ex               000000018001b477 f   ida:ida.dll
 0001:0001a47d       get_byte                   000000018001b47d f   ida:ida.dll
 0001:0001a483       get_word                   000000018001b483 f   ida:ida.dll
 0001:0001a489       get_dword                  000000018001b489 f   ida:ida.dll
 0001:0001a48f       get_qword                  000000018001b48f f   ida:ida.dll
 0001:0001a495       insn_create_op_data        000000018001b495 f   ida:ida.dll
 0001:0001a49b       insn_add_cref              000000018001b49b f   ida:ida.dll
 0001:0001a4a1       insn_add_dref              000000018001b4a1 f   ida:ida.dll
 0001:0001a4a7       insn_add_off_drefs         000000018001b4a7 f   ida:ida.dll
 0001:0001a4ad       insn_create_stkvar         000000018001b4ad f   ida:ida.dll
 0001:0001a4b3       get_immvals                000000018001b4b3 f   ida:ida.dll
 0001:0001a4b9       get_lookback               000000018001b4b9 f   ida:ida.dll
 0001:0001a4bf       calc_dataseg               000000018001b4bf f   ida:ida.dll
 0001:0001a4c5       map_code_ea                000000018001b4c5 f   ida:ida.dll
 0001:0001a4cb       create_outctx              000000018001b4cb f   ida:ida.dll
 0001:0001a4d1       print_insn_mnem            000000018001b4d1 f   ida:ida.dll
 0001:0001a4d7       get_dtype_flag             000000018001b4d7 f   ida:ida.dll
 0001:0001a4dd       get_dtype_size             000000018001b4dd f   ida:ida.dll
 0001:0001a4e3       get_dtype_by_size          000000018001b4e3 f   ida:ida.dll
 0001:0001a4e9       create_insn                000000018001b4e9 f   ida:ida.dll
 0001:0001a4ef       decode_insn                000000018001b4ef f   ida:ida.dll
 0001:0001a4f5       print_operand              000000018001b4f5 f   ida:ida.dll
 0001:0001a4fb       decode_prev_insn           000000018001b4fb f   ida:ida.dll
 0001:0001a501       decode_preceding_insn      000000018001b501 f   ida:ida.dll
 0001:0001a507       construct_macro            000000018001b507 f   ida:ida.dll
 0001:0001a50d       guess_table_address        000000018001b50d f   ida:ida.dll
 0001:0001a513       guess_table_size           000000018001b513 f   ida:ida.dll
 0001:0001a519       PyW_TryImportModule        000000018001b519 f   python:python.dll
 0001:0001a51f       PyW_GetNumber              000000018001b51f f   python:python.dll
 0001:0001a525       PyW_ShowCbErr              000000018001b525 f   python:python.dll
 0001:0001a52b       PyW_UvalVecToPyList        000000018001b52b f   python:python.dll
 0001:0001a531       try_create_swig_wrapper    000000018001b531 f   python:python.dll
 0001:0001a538       ??2@YAPEAX_K@Z             000000018001b538 f   MSVCRT:new_scalar.obj
 0001:0001a574       ??3@YAXPEAX_K@Z            000000018001b574 f   MSVCRT:delete_scalar_size.obj
 0001:0001a574       ??_V@YAXPEAX@Z             000000018001b574 f   MSVCRT:delete_array.obj
 0001:0001a57c       ??_U@YAPEAX_K@Z            000000018001b57c f   MSVCRT:new_array.obj
 0001:0001a584       __scrt_acquire_startup_lock 000000018001b584 f   MSVCRT:utility.obj
 0001:0001a5c0       __scrt_dllmain_after_initialize_c 000000018001b5c0 f   MSVCRT:utility.obj
 0001:0001a5f4       __scrt_dllmain_before_initialize_c 000000018001b5f4 f   MSVCRT:utility.obj
 0001:0001a60c       __scrt_dllmain_crt_thread_attach 000000018001b60c f   MSVCRT:utility.obj
 0001:0001a634       __scrt_dllmain_crt_thread_detach 000000018001b634 f   MSVCRT:utility.obj
 0001:0001a64c       __scrt_dllmain_exception_filter 000000018001b64c f   MSVCRT:utility.obj
 0001:0001a6ac       __scrt_dllmain_uninitialize_c 000000018001b6ac f   MSVCRT:utility.obj
 0001:0001a6dc       __scrt_dllmain_uninitialize_critical 000000018001b6dc f   MSVCRT:utility.obj
 0001:0001a6f0       __scrt_initialize_crt      000000018001b6f0 f   MSVCRT:utility.obj
 0001:0001a73c       __scrt_initialize_onexit_tables 000000018001b73c f   MSVCRT:utility.obj
 0001:0001a814       __scrt_is_nonwritable_in_current_image 000000018001b814 f   MSVCRT:utility.obj
 0001:0001a8b0       __scrt_release_startup_lock 000000018001b8b0 f   MSVCRT:utility.obj
 0001:0001a8d4       __scrt_uninitialize_crt    000000018001b8d4 f   MSVCRT:utility.obj
 0001:0001a900       _onexit                    000000018001b900 f   MSVCRT:utility.obj
 0001:0001a950       atexit                     000000018001b950 f   MSVCRT:utility.obj
 0001:0001aaf0       _Init_thread_footer        000000018001baf0 f   MSVCRT:thread_safe_statics.obj
 0001:0001ab50       _Init_thread_header        000000018001bb50 f   MSVCRT:thread_safe_statics.obj
 0001:0001abb8       _Init_thread_notify        000000018001bbb8 f   MSVCRT:thread_safe_statics.obj
 0001:0001ac08       _Init_thread_wait          000000018001bc08 f   MSVCRT:thread_safe_statics.obj
 0001:0001ac80       __GSHandlerCheck           000000018001bc80 f   MSVCRT:gshandler.obj
 0001:0001aca0       __GSHandlerCheckCommon     000000018001bca0 f   MSVCRT:gshandler.obj
 0001:0001acfc       __GSHandlerCheck_EH        000000018001bcfc f   MSVCRT:gshandlereh.obj
 0001:0001ad90       __security_check_cookie    000000018001bd90 f   MSVCRT:amdsecgs.obj
 0001:0001adb4       ??_Gtype_info@@UEAAPEAXI@Z 000000018001bdb4 f i MSVCRT:std_type_info_static.obj
 0001:0001adb4       ??_Etype_info@@UEAAPEAXI@Z 000000018001bdb4 f i MSVCRT:std_type_info_static.obj
 0001:0001b110       _DllMainCRTStartup         000000018001c110 f   MSVCRT:dll_dllmain.obj
 0001:0001b150       ??0bad_alloc@std@@QEAA@AEBV01@@Z 000000018001c150 f i MSVCRT:throw_bad_alloc.obj
 0001:0001b190       ??0bad_alloc@std@@QEAA@XZ  000000018001c190 f i MSVCRT:throw_bad_alloc.obj
 0001:0001b1b0       ??0bad_array_new_length@std@@QEAA@AEBV01@@Z 000000018001c1b0 f i MSVCRT:throw_bad_alloc.obj
 0001:0001b1f0       ??0bad_array_new_length@std@@QEAA@XZ 000000018001c1f0 f i MSVCRT:throw_bad_alloc.obj
 0001:0001b210       ?__scrt_throw_std_bad_alloc@@YAXXZ 000000018001c210 f   MSVCRT:throw_bad_alloc.obj
 0001:0001b230       ?__scrt_throw_std_bad_array_new_length@@YAXXZ 000000018001c230 f   MSVCRT:throw_bad_alloc.obj
 0001:0001b250       ??3@YAXPEAX@Z              000000018001c250 f   MSVCRT:delete_scalar.obj
 0001:0001b258       __isa_available_init       000000018001c258 f   MSVCRT:cpu_disp.obj
 0001:0001b3d4       _get_startup_argv_mode     000000018001c3d4 f   MSVCRT:argv_mode.obj
 0001:0001b3dc       __scrt_is_ucrt_dll_in_use  000000018001c3dc f   MSVCRT:ucrt_detection.obj
 0001:0001b3e8       __crt_debugger_hook        000000018001c3e8 f   MSVCRT:utility_desktop.obj
 0001:0001b3f0       __scrt_fastfail            000000018001c3f0 f   MSVCRT:utility_desktop.obj
 0001:0001b53c       _guard_check_icall_nop     000000018001c53c f i MSVCRT:guard_support.obj
 0001:0001b540       __raise_securityfailure    000000018001c540 f   MSVCRT:gs_report.obj
 0001:0001b574       __report_gsfailure         000000018001c574 f   MSVCRT:gs_report.obj
 0001:0001b6bc       __security_init_cookie     000000018001c6bc f   MSVCRT:gs_support.obj
 0001:0001b768       DllMain                    000000018001c768 f   MSVCRT:dll_dllmain_stub.obj
 0001:0001b78c       ?__scrt_initialize_type_info@@YAXXZ 000000018001c78c f   MSVCRT:tncleanup.obj
 0001:0001b79c       ?__scrt_uninitialize_type_info@@YAXXZ 000000018001c79c f   MSVCRT:tncleanup.obj
 0001:0001b7a8       __local_stdio_scanf_options 000000018001c7a8 f i MSVCRT:default_local_stdio_options.obj
 0001:0001b7b0       __scrt_initialize_default_local_stdio_options 000000018001c7b0 f   MSVCRT:default_local_stdio_options.obj
 0001:0001b7cc       __scrt_get_dyn_tls_init_callback 000000018001c7cc f   MSVCRT:dyn_tls_init.obj
 0001:0001b7d4       _RTC_Initialize            000000018001c7d4 f   MSVCRT:initsect.obj
 0001:0001b810       _RTC_Terminate             000000018001c810 f   MSVCRT:initsect.obj
 0001:0001b850       IsProcessorFeaturePresent  000000018001c850 f   kernel32:KERNEL32.dll
 0001:0001b856       strstr                     000000018001c856 f   vcruntime:VCRUNTIME140.dll
 0001:0001b85c       __std_exception_copy       000000018001c85c f   vcruntime:VCRUNTIME140.dll
 0001:0001b862       __std_exception_destroy    000000018001c862 f   vcruntime:VCRUNTIME140.dll
 0001:0001b868       _CxxThrowException         000000018001c868 f   vcruntime:VCRUNTIME140.dll
 0001:0001b86e       __CxxFrameHandler3         000000018001c86e f   vcruntime:VCRUNTIME140.dll
 0001:0001b874       memcpy                     000000018001c874 f   vcruntime:VCRUNTIME140.dll
 0001:0001b87a       memmove                    000000018001c87a f   vcruntime:VCRUNTIME140.dll
 0001:0001b880       memset                     000000018001c880 f   vcruntime:VCRUNTIME140.dll
 0001:0001b886       __C_specific_handler       000000018001c886 f   vcruntime:VCRUNTIME140.dll
 0001:0001b88c       __std_terminate            000000018001c88c f   vcruntime:VCRUNTIME140.dll
 0001:0001b892       __std_type_info_destroy_list 000000018001c892 f   vcruntime:VCRUNTIME140.dll
 0001:0001b898       free                       000000018001c898 f   ucrt:api-ms-win-crt-heap-l1-1-0.dll
 0001:0001b89e       malloc                     000000018001c89e f   ucrt:api-ms-win-crt-heap-l1-1-0.dll
 0001:0001b8a4       _callnewh                  000000018001c8a4 f   ucrt:api-ms-win-crt-heap-l1-1-0.dll
 0001:0001b8aa       _seh_filter_dll            000000018001c8aa f   ucrt:api-ms-win-crt-runtime-l1-1-0.dll
 0001:0001b8b0       _configure_narrow_argv     000000018001c8b0 f   ucrt:api-ms-win-crt-runtime-l1-1-0.dll
 0001:0001b8b6       _initialize_narrow_environment 000000018001c8b6 f   ucrt:api-ms-win-crt-runtime-l1-1-0.dll
 0001:0001b8bc       _initialize_onexit_table   000000018001c8bc f   ucrt:api-ms-win-crt-runtime-l1-1-0.dll
 0001:0001b8c2       _register_onexit_function  000000018001c8c2 f   ucrt:api-ms-win-crt-runtime-l1-1-0.dll
 0001:0001b8c8       _execute_onexit_table      000000018001c8c8 f   ucrt:api-ms-win-crt-runtime-l1-1-0.dll
 0001:0001b8ce       _crt_atexit                000000018001c8ce f   ucrt:api-ms-win-crt-runtime-l1-1-0.dll
 0001:0001b8d4       _cexit                     000000018001c8d4 f   ucrt:api-ms-win-crt-runtime-l1-1-0.dll
 0001:0001b8da       _initterm                  000000018001c8da f   ucrt:api-ms-win-crt-runtime-l1-1-0.dll
 0001:0001b8e0       _initterm_e                000000018001c8e0 f   ucrt:api-ms-win-crt-runtime-l1-1-0.dll
 0001:0001b8e8       __scrt_stub_for_acrt_uninitialize_critical 000000018001c8e8 f   MSVCRT:ucrt_stubs.obj
 0001:0001b8e8       __scrt_stub_for_acrt_initialize 000000018001c8e8 f   MSVCRT:ucrt_stubs.obj
 0001:0001b8e8       __vcrt_initialize          000000018001c8e8 f   MSVCRT:ucrt_stubs.obj
 0001:0001b8e8       __scrt_stub_for_acrt_uninitialize 000000018001c8e8 f   MSVCRT:ucrt_stubs.obj
 0001:0001b8e8       __scrt_stub_for_acrt_thread_detach 000000018001c8e8 f   MSVCRT:ucrt_stubs.obj
 0001:0001b8e8       __acrt_thread_detach       000000018001c8e8 f   MSVCRT:ucrt_stubs.obj
 0001:0001b8e8       __vcrt_uninitialize        000000018001c8e8 f   MSVCRT:ucrt_stubs.obj
 0001:0001b8e8       __vcrt_thread_detach       000000018001c8e8 f   MSVCRT:ucrt_stubs.obj
 0001:0001b8e8       __acrt_uninitialize_critical 000000018001c8e8 f   MSVCRT:ucrt_stubs.obj
 0001:0001b8e8       __vcrt_thread_attach       000000018001c8e8 f   MSVCRT:ucrt_stubs.obj
 0001:0001b8e8       __acrt_initialize          000000018001c8e8 f   MSVCRT:ucrt_stubs.obj
 0001:0001b8e8       __vcrt_uninitialize_critical 000000018001c8e8 f   MSVCRT:ucrt_stubs.obj
 0001:0001b8e8       __acrt_uninitialize        000000018001c8e8 f   MSVCRT:ucrt_stubs.obj
 0001:0001b8e8       __scrt_stub_for_acrt_thread_attach 000000018001c8e8 f   MSVCRT:ucrt_stubs.obj
 0001:0001b8e8       __acrt_thread_attach       000000018001c8e8 f   MSVCRT:ucrt_stubs.obj
 0001:0001b8ec       _is_c_termination_complete 000000018001c8ec f   MSVCRT:ucrt_stubs.obj
 0001:0001b8ec       __scrt_stub_for_is_c_termination_complete 000000018001c8ec f   MSVCRT:ucrt_stubs.obj
 0001:0001b900       _guard_dispatch_icall_nop  000000018001c900 f   MSVCRT:guard_dispatch.obj
 0002:00000000       __imp_CloseHandle          0000000180027000     kernel32:KERNEL32.dll
 0002:00000008       __imp_EnterCriticalSection 0000000180027008     kernel32:KERNEL32.dll
 0002:00000010       __imp_LeaveCriticalSection 0000000180027010     kernel32:KERNEL32.dll
 0002:00000018       __imp_InitializeCriticalSectionAndSpinCount 0000000180027018     kernel32:KERNEL32.dll
 0002:00000020       __imp_DeleteCriticalSection 0000000180027020     kernel32:KERNEL32.dll
 0002:00000028       __imp_SetEvent             0000000180027028     kernel32:KERNEL32.dll
 0002:00000030       __imp_ResetEvent           0000000180027030     kernel32:KERNEL32.dll
 0002:00000038       __imp_WaitForSingleObjectEx 0000000180027038     kernel32:KERNEL32.dll
 0002:00000040       __imp_CreateEventW         0000000180027040     kernel32:KERNEL32.dll
 0002:00000048       __imp_GetModuleHandleW     0000000180027048     kernel32:KERNEL32.dll
 0002:00000050       __imp_GetProcAddress       0000000180027050     kernel32:KERNEL32.dll
 0002:00000058       __imp_RtlCaptureContext    0000000180027058     kernel32:KERNEL32.dll
 0002:00000060       __imp_RtlLookupFunctionEntry 0000000180027060     kernel32:KERNEL32.dll
 0002:00000068       __imp_RtlVirtualUnwind     0000000180027068     kernel32:KERNEL32.dll
 0002:00000070       __imp_IsDebuggerPresent    0000000180027070     kernel32:KERNEL32.dll
 0002:00000078       __imp_UnhandledExceptionFilter 0000000180027078     kernel32:KERNEL32.dll
 0002:00000080       __imp_SetUnhandledExceptionFilter 0000000180027080     kernel32:KERNEL32.dll
 0002:00000088       __imp_IsProcessorFeaturePresent 0000000180027088     kernel32:KERNEL32.dll
 0002:00000090       __imp_GetCurrentProcess    0000000180027090     kernel32:KERNEL32.dll
 0002:00000098       __imp_TerminateProcess     0000000180027098     kernel32:KERNEL32.dll
 0002:000000a0       __imp_QueryPerformanceCounter 00000001800270a0     kernel32:KERNEL32.dll
 0002:000000a8       __imp_GetCurrentProcessId  00000001800270a8     kernel32:KERNEL32.dll
 0002:000000b0       __imp_GetCurrentThreadId   00000001800270b0     kernel32:KERNEL32.dll
 0002:000000b8       __imp_GetSystemTimeAsFileTime 00000001800270b8     kernel32:KERNEL32.dll
 0002:000000c0       __imp_DisableThreadLibraryCalls 00000001800270c0     kernel32:KERNEL32.dll
 0002:000000c8       __imp_InitializeSListHead  00000001800270c8     kernel32:KERNEL32.dll
 0002:000000d0       \177KERNEL32_NULL_THUNK_DATA 00000001800270d0     kernel32:KERNEL32.dll
 0002:000000d8       __imp_strstr               00000001800270d8     vcruntime:VCRUNTIME140.dll
 0002:000000e0       __imp___std_exception_copy 00000001800270e0     vcruntime:VCRUNTIME140.dll
 0002:000000e8       __imp___std_exception_destroy 00000001800270e8     vcruntime:VCRUNTIME140.dll
 0002:000000f0       __imp__CxxThrowException   00000001800270f0     vcruntime:VCRUNTIME140.dll
 0002:000000f8       __imp___CxxFrameHandler3   00000001800270f8     vcruntime:VCRUNTIME140.dll
 0002:00000100       __imp_memcpy               0000000180027100     vcruntime:VCRUNTIME140.dll
 0002:00000108       __imp_memmove              0000000180027108     vcruntime:VCRUNTIME140.dll
 0002:00000110       __imp_memset               0000000180027110     vcruntime:VCRUNTIME140.dll
 0002:00000118       __imp___std_type_info_destroy_list 0000000180027118     vcruntime:VCRUNTIME140.dll
 0002:00000120       __imp___C_specific_handler 0000000180027120     vcruntime:VCRUNTIME140.dll
 0002:00000128       __imp___std_terminate      0000000180027128     vcruntime:VCRUNTIME140.dll
 0002:00000130       \177VCRUNTIME140_NULL_THUNK_DATA 0000000180027130     vcruntime:VCRUNTIME140.dll
 0002:00000138       __imp_malloc               0000000180027138     ucrt:api-ms-win-crt-heap-l1-1-0.dll
 0002:00000140       __imp__callnewh            0000000180027140     ucrt:api-ms-win-crt-heap-l1-1-0.dll
 0002:00000148       __imp_free                 0000000180027148     ucrt:api-ms-win-crt-heap-l1-1-0.dll
 0002:00000150       \177api-ms-win-crt-heap-l1-1-0_NULL_THUNK_DATA 0000000180027150     ucrt:api-ms-win-crt-heap-l1-1-0.dll
 0002:00000158       __imp__crt_atexit          0000000180027158     ucrt:api-ms-win-crt-runtime-l1-1-0.dll
 0002:00000160       __imp__execute_onexit_table 0000000180027160     ucrt:api-ms-win-crt-runtime-l1-1-0.dll
 0002:00000168       __imp__register_onexit_function 0000000180027168     ucrt:api-ms-win-crt-runtime-l1-1-0.dll
 0002:00000170       __imp__initialize_narrow_environment 0000000180027170     ucrt:api-ms-win-crt-runtime-l1-1-0.dll
 0002:00000178       __imp__configure_narrow_argv 0000000180027178     ucrt:api-ms-win-crt-runtime-l1-1-0.dll
 0002:00000180       __imp__seh_filter_dll      0000000180027180     ucrt:api-ms-win-crt-runtime-l1-1-0.dll
 0002:00000188       __imp__cexit               0000000180027188     ucrt:api-ms-win-crt-runtime-l1-1-0.dll
 0002:00000190       __imp__initterm            0000000180027190     ucrt:api-ms-win-crt-runtime-l1-1-0.dll
 0002:00000198       __imp__initterm_e          0000000180027198     ucrt:api-ms-win-crt-runtime-l1-1-0.dll
 0002:000001a0       __imp__initialize_onexit_table 00000001800271a0     ucrt:api-ms-win-crt-runtime-l1-1-0.dll
 0002:000001a8       \177api-ms-win-crt-runtime-l1-1-0_NULL_THUNK_DATA 00000001800271a8     ucrt:api-ms-win-crt-runtime-l1-1-0.dll
 0002:000001b0       __imp___acrt_iob_func      00000001800271b0     ucrt:api-ms-win-crt-stdio-l1-1-0.dll
 0002:000001b8       __imp___stdio_common_vfprintf 00000001800271b8     ucrt:api-ms-win-crt-stdio-l1-1-0.dll
 0002:000001c0       \177api-ms-win-crt-stdio-l1-1-0_NULL_THUNK_DATA 00000001800271c0     ucrt:api-ms-win-crt-stdio-l1-1-0.dll
 0002:000001c8       __imp_strncmp              00000001800271c8     ucrt:api-ms-win-crt-string-l1-1-0.dll
 0002:000001d0       \177api-ms-win-crt-string-l1-1-0_NULL_THUNK_DATA 00000001800271d0     ucrt:api-ms-win-crt-string-l1-1-0.dll
 0002:000001d8       __imp_under_debugger       00000001800271d8     ida:ida.dll
 0002:000001e0       __imp_guess_table_size     00000001800271e0     ida:ida.dll
 0002:000001e8       __imp_guess_table_address  00000001800271e8     ida:ida.dll
 0002:000001f0       __imp_construct_macro      00000001800271f0     ida:ida.dll
 0002:000001f8       __imp_ph                   00000001800271f8     ida:ida.dll
 0002:00000200       __imp_decode_prev_insn     0000000180027200     ida:ida.dll
 0002:00000208       __imp_print_operand        0000000180027208     ida:ida.dll
 0002:00000210       __imp_decode_insn          0000000180027210     ida:ida.dll
 0002:00000218       __imp_create_insn          0000000180027218     ida:ida.dll
 0002:00000220       __imp_get_dtype_by_size    0000000180027220     ida:ida.dll
 0002:00000228       __imp_get_dtype_size       0000000180027228     ida:ida.dll
 0002:00000230       __imp_get_dtype_flag       0000000180027230     ida:ida.dll
 0002:00000238       __imp_print_insn_mnem      0000000180027238     ida:ida.dll
 0002:00000240       __imp_decode_preceding_insn 0000000180027240     ida:ida.dll
 0002:00000248       __imp_map_code_ea          0000000180027248     ida:ida.dll
 0002:00000250       __imp_calc_dataseg         0000000180027250     ida:ida.dll
 0002:00000258       __imp_get_lookback         0000000180027258     ida:ida.dll
 0002:00000260       __imp_get_immvals          0000000180027260     ida:ida.dll
 0002:00000268       __imp_insn_create_stkvar   0000000180027268     ida:ida.dll
 0002:00000270       __imp_insn_add_off_drefs   0000000180027270     ida:ida.dll
 0002:00000278       __imp_insn_add_dref        0000000180027278     ida:ida.dll
 0002:00000280       __imp_insn_add_cref        0000000180027280     ida:ida.dll
 0002:00000288       __imp_insn_create_op_data  0000000180027288     ida:ida.dll
 0002:00000290       __imp_get_qword            0000000180027290     ida:ida.dll
 0002:00000298       __imp_get_dword            0000000180027298     ida:ida.dll
 0002:000002a0       __imp_get_word             00000001800272a0     ida:ida.dll
 0002:000002a8       __imp_get_byte             00000001800272a8     ida:ida.dll
 0002:000002b0       __imp_get_flags_ex         00000001800272b0     ida:ida.dll
 0002:000002b8       __imp_closing_comment      00000001800272b8     ida:ida.dll
 0002:000002c0       __imp_is_main_thread       00000001800272c0     ida:ida.dll
 0002:000002c8       __imp_qvector_reserve      00000001800272c8     ida:ida.dll
 0002:000002d0       __imp_qvsnprintf           00000001800272d0     ida:ida.dll
 0002:000002d8       __imp_qfree                00000001800272d8     ida:ida.dll
 0002:000002e0       __imp_create_outctx        00000001800272e0     ida:ida.dll
 0002:000002e8       __imp_interr               00000001800272e8     ida:ida.dll
 0002:000002f0       \177ida_NULL_THUNK_DATA    00000001800272f0     ida:ida.dll
 0002:000002f8       __imp_PyW_ShowCbErr        00000001800272f8     python:python.dll
 0002:00000300       __imp_PyW_GetNumber        0000000180027300     python:python.dll
 0002:00000308       __imp_PyW_TryImportModule  0000000180027308     python:python.dll
 0002:00000310       __imp_PyW_UvalVecToPyList  0000000180027310     python:python.dll
 0002:00000318       __imp_try_create_swig_wrapper 0000000180027318     python:python.dll
 0002:00000320       \177python_NULL_THUNK_DATA 0000000180027320     python:python.dll
 0002:00000328       __imp_PyObject_CallFunction 0000000180027328     python38:python38.dll
 0002:00000330       __imp_PyObject_CallFunctionObjArgs 0000000180027330     python38:python38.dll
 0002:00000338       __imp_PyObject_IsInstance  0000000180027338     python38:python38.dll
 0002:00000340       __imp_PyType_Type          0000000180027340     python38:python38.dll
 0002:00000348       __imp__Py_NoneStruct       0000000180027348     python38:python38.dll
 0002:00000350       __imp__Py_NotImplementedStruct 0000000180027350     python38:python38.dll
 0002:00000358       __imp_PyBool_Type          0000000180027358     python38:python38.dll
 0002:00000360       __imp__Py_FalseStruct      0000000180027360     python38:python38.dll
 0002:00000368       __imp__Py_TrueStruct       0000000180027368     python38:python38.dll
 0002:00000370       __imp_PyObject_Call        0000000180027370     python38:python38.dll
 0002:00000378       __imp_PyExc_IndexError     0000000180027378     python38:python38.dll
 0002:00000380       __imp_PyExc_MemoryError    0000000180027380     python38:python38.dll
 0002:00000388       __imp_PyExc_OverflowError  0000000180027388     python38:python38.dll
 0002:00000390       __imp_PyExc_RuntimeError   0000000180027390     python38:python38.dll
 0002:00000398       __imp_PyExc_SyntaxError    0000000180027398     python38:python38.dll
 0002:000003a0       __imp_PyExc_SystemError    00000001800273a0     python38:python38.dll
 0002:000003a8       __imp_PyExc_TypeError      00000001800273a8     python38:python38.dll
 0002:000003b0       __imp_PyExc_ValueError     00000001800273b0     python38:python38.dll
 0002:000003b8       __imp_PyExc_ZeroDivisionError 00000001800273b8     python38:python38.dll
 0002:000003c0       __imp_PyExc_IOError        00000001800273c0     python38:python38.dll
 0002:000003c8       __imp_PyImport_AddModule   00000001800273c8     python38:python38.dll
 0002:000003d0       __imp_PyEval_InitThreads   00000001800273d0     python38:python38.dll
 0002:000003d8       __imp_PyModule_Create2     00000001800273d8     python38:python38.dll
 0002:000003e0       __imp_PyModule_AddObject   00000001800273e0     python38:python38.dll
 0002:000003e8       __imp_Py_BuildValue        00000001800273e8     python38:python38.dll
 0002:000003f0       __imp_PyExc_AttributeError 00000001800273f0     python38:python38.dll
 0002:000003f8       __imp_PyArg_UnpackTuple    00000001800273f8     python38:python38.dll
 0002:00000400       __imp_PyGILState_Ensure    0000000180027400     python38:python38.dll
 0002:00000408       __imp_PyErr_WriteUnraisable 0000000180027408     python38:python38.dll
 0002:00000410       __imp_PyErr_Format         0000000180027410     python38:python38.dll
 0002:00000418       __imp_PyErr_GivenExceptionMatches 0000000180027418     python38:python38.dll
 0002:00000420       __imp_PyErr_Restore        0000000180027420     python38:python38.dll
 0002:00000428       __imp_PyErr_Fetch          0000000180027428     python38:python38.dll
 0002:00000430       __imp_PyErr_Clear          0000000180027430     python38:python38.dll
 0002:00000438       __imp_PyErr_Occurred       0000000180027438     python38:python38.dll
 0002:00000440       __imp_PyErr_SetString      0000000180027440     python38:python38.dll
 0002:00000448       __imp_PyErr_SetObject      0000000180027448     python38:python38.dll
 0002:00000450       __imp_PyCapsule_Import     0000000180027450     python38:python38.dll
 0002:00000458       __imp_PyCapsule_GetPointer 0000000180027458     python38:python38.dll
 0002:00000460       __imp_PyCapsule_New        0000000180027460     python38:python38.dll
 0002:00000468       __imp_PyModule_GetDict     0000000180027468     python38:python38.dll
 0002:00000470       __imp_PyCFunction_GetFlags 0000000180027470     python38:python38.dll
 0002:00000478       __imp_PyCFunction_GetSelf  0000000180027478     python38:python38.dll
 0002:00000480       __imp_PyCFunction_GetFunction 0000000180027480     python38:python38.dll
 0002:00000488       __imp_PyDict_SetItemString 0000000180027488     python38:python38.dll
 0002:00000490       __imp_PyDict_SetItem       0000000180027490     python38:python38.dll
 0002:00000498       __imp_PyDict_GetItem       0000000180027498     python38:python38.dll
 0002:000004a0       __imp_PyDict_New           00000001800274a0     python38:python38.dll
 0002:000004a8       __imp_PyTuple_GetSlice     00000001800274a8     python38:python38.dll
 0002:000004b0       __imp_PyTuple_SetItem      00000001800274b0     python38:python38.dll
 0002:000004b8       __imp_PyTuple_GetItem      00000001800274b8     python38:python38.dll
 0002:000004c0       __imp_PyTuple_Size         00000001800274c0     python38:python38.dll
 0002:000004c8       __imp_PyTuple_New          00000001800274c8     python38:python38.dll
 0002:000004d0       __imp_PyBool_FromLong      00000001800274d0     python38:python38.dll
 0002:000004d8       __imp_PyLong_AsUnsignedLongLong 00000001800274d8     python38:python38.dll
 0002:000004e0       __imp_PyLong_AsLongLong    00000001800274e0     python38:python38.dll
 0002:000004e8       __imp_PyLong_FromUnsignedLongLong 00000001800274e8     python38:python38.dll
 0002:000004f0       __imp_PyLong_FromLongLong  00000001800274f0     python38:python38.dll
 0002:000004f8       __imp_PyLong_FromVoidPtr   00000001800274f8     python38:python38.dll
 0002:00000500       __imp_PyLong_AsUnsignedLong 0000000180027500     python38:python38.dll
 0002:00000508       __imp_PyLong_AsLong        0000000180027508     python38:python38.dll
 0002:00000510       __imp_PyLong_FromSize_t    0000000180027510     python38:python38.dll
 0002:00000518       __imp_PyLong_FromLong      0000000180027518     python38:python38.dll
 0002:00000520       __imp_PyUnicode_CompareWithASCIIString 0000000180027520     python38:python38.dll
 0002:00000528       __imp_PyUnicode_Concat     0000000180027528     python38:python38.dll
 0002:00000530       __imp_PyUnicode_AsUTF8String 0000000180027530     python38:python38.dll
 0002:00000538       __imp_PyUnicode_DecodeUTF8 0000000180027538     python38:python38.dll
 0002:00000540       __imp_PyUnicode_InternFromString 0000000180027540     python38:python38.dll
 0002:00000548       __imp_PyUnicode_FromFormat 0000000180027548     python38:python38.dll
 0002:00000550       __imp_PyUnicode_FromString 0000000180027550     python38:python38.dll
 0002:00000558       __imp_PyUnicode_FromStringAndSize 0000000180027558     python38:python38.dll
 0002:00000560       __imp_PyBytes_AsStringAndSize 0000000180027560     python38:python38.dll
 0002:00000568       __imp_PyBytes_AsString     0000000180027568     python38:python38.dll
 0002:00000570       __imp__PyObject_New        0000000180027570     python38:python38.dll
 0002:00000578       __imp_PyObject_Free        0000000180027578     python38:python38.dll
 0002:00000580       __imp_Py_DecRef            0000000180027580     python38:python38.dll
 0002:00000588       __imp__Py_Dealloc          0000000180027588     python38:python38.dll
 0002:00000590       __imp_PyCallable_Check     0000000180027590     python38:python38.dll
 0002:00000598       __imp_PyObject_IsTrue      0000000180027598     python38:python38.dll
 0002:000005a0       __imp_PyObject_GenericGetAttr 00000001800275a0     python38:python38.dll
 0002:000005a8       __imp_PyObject_SetAttr     00000001800275a8     python38:python38.dll
 0002:000005b0       __imp_PyObject_GetAttr     00000001800275b0     python38:python38.dll
 0002:000005b8       __imp_PyObject_GetAttrString 00000001800275b8     python38:python38.dll
 0002:000005c0       __imp_PyType_Modified      00000001800275c0     python38:python38.dll
 0002:000005c8       __imp_PyType_GetFlags      00000001800275c8     python38:python38.dll
 0002:000005d0       __imp_PyType_GetSlot       00000001800275d0     python38:python38.dll
 0002:000005d8       __imp_PyType_FromSpec      00000001800275d8     python38:python38.dll
 0002:000005e0       __imp_PyGILState_Release   00000001800275e0     python38:python38.dll
 0002:000005e8       \177python38_NULL_THUNK_DATA 00000001800275e8     python38:python38.dll
 0002:000005f0       __guard_check_icall_fptr   00000001800275f0     MSVCRT:guard_support.obj
 0002:000005f8       __guard_dispatch_icall_fptr 00000001800275f8     MSVCRT:guard_support.obj
 0002:00000600       __xc_a                     0000000180027600     MSVCRT:initializers.obj
 0002:00000608       __xc_z                     0000000180027608     MSVCRT:initializers.obj
 0002:00000610       __xi_a                     0000000180027610     MSVCRT:initializers.obj
 0002:00000620       __xi_z                     0000000180027620     MSVCRT:initializers.obj
 0002:00000628       __xl_a                     0000000180027628     MSVCRT:tlssup.obj
 0002:00000630       __xl_z                     0000000180027630     MSVCRT:tlssup.obj
 0002:00000638       __xp_a                     0000000180027638     MSVCRT:initializers.obj
 0002:00000640       __xp_z                     0000000180027640     MSVCRT:initializers.obj
 0002:00000648       __xt_a                     0000000180027648     MSVCRT:initializers.obj
 0002:00000650       __xt_z                     0000000180027650     MSVCRT:initializers.obj
 0002:00000660       ??_C@_0BD@ENFEJFHM@insn_create_stkvar@ 0000000180027660     ua.obj
 0002:00000678       ??_C@_0L@NMDINLCD@new_insn_t@ 0000000180027678     ua.obj
 0002:00000688       ??_C@_0O@DBJEKLLF@insn_t_cs_set@ 0000000180027688     ua.obj
 0002:00000698       ??_C@_0O@BDHAIGFF@insn_t_ip_set@ 0000000180027698     ua.obj
 0002:000006a8       ??_C@_0O@BMFKDNBP@insn_t_ea_set@ 00000001800276a8     ua.obj
 0002:000006b8       ??_C@_0BB@MOGCCGKH@insn_t_itype_set@ 00000001800276b8     ua.obj
 0002:000006d0       ??_C@_0BA@KCAOKEIB@insn_t_size_set@ 00000001800276d0     ua.obj
 0002:000006e0       ??_C@_0BD@NJAELCNN@insn_t_segpref_set@ 00000001800276e0     ua.obj
 0002:000006f8       ??_C@_0BE@ENNICLIE@insn_t_insnpref_set@ 00000001800276f8     ua.obj
 0002:00000710       ??_C@_0BB@PANJPEBL@insn_t_flags_set@ 0000000180027710     ua.obj
 0002:00000728       ??_C@_0P@IKOHKGME@insn_t_ops_set@ 0000000180027728     ua.obj
 0002:00000738       ??_C@_0BG@FDLEPPMN@insn_t_create_op_data@ 0000000180027738     ua.obj
 0002:00000750       ??_C@_0BF@PONNDOEE@insn_t_create_stkvar@ 0000000180027750     ua.obj
 0002:00000768       ??_C@_0BA@INKEFKMO@insn_t_add_cref@ 0000000180027768     ua.obj
 0002:00000778       ??_C@_0BA@DPIEIGNO@insn_t_add_dref@ 0000000180027778     ua.obj
 0002:00000788       ??_C@_0BF@KOGKNKCC@insn_t_add_off_drefs@ 0000000180027788     ua.obj
 0002:000007a0       ??_C@_0BH@DMIMNNJP@insn_t___get_operand__@ 00000001800277a0     ua.obj
 0002:000007b8       ??_C@_0BH@DPHGKHGI@insn_t___set_auxpref__@ 00000001800277b8     ua.obj
 0002:000007d0       ??_C@_0O@CODHOBNH@insn_t_assign@ 00000001800277d0     ua.obj
 0002:000007e0       ??_C@_0N@DFLPPCLL@get_lookback@ 00000001800277e0     ua.obj
 0002:000007f0       ??_C@_0N@GNBLBJEC@calc_dataseg@ 00000001800277f0     ua.obj
 0002:00000800       ??_C@_0M@BEDKKCFC@map_data_ea@ 0000000180027800     ua.obj
 0002:00000810       ??_C@_0M@LIJGHEEN@map_code_ea@ 0000000180027810     ua.obj
 0002:0000081c       ??_C@_06BDBMHNEN@map_ea@   000000018002781c     ua.obj
 0002:00000828       ??_C@_0BK@DNPPKMIE@outctx_base_t_insn_ea_set@ 0000000180027828     ua.obj
 0002:00000848       ??_C@_0BJ@CGLKNAFF@outctx_base_t_outbuf_set@ 0000000180027848     ua.obj
 0002:00000868       ??_C@_0CA@DFNNPFMK@outctx_base_t_default_lnnum_set@ 0000000180027868     ua.obj
 0002:00000888       ??_C@_0BM@PEFBGNBI@outctx_base_t_set_gen_xrefs@ 0000000180027888     ua.obj
 0002:000008a8       ??_C@_0BK@NKBDBNIP@outctx_base_t_set_gen_cmt@ 00000001800278a8     ua.obj
 0002:000008c8       ??_C@_0BP@GJJEKMCE@outctx_base_t_set_comment_addr@ 00000001800278c8     ua.obj
 0002:000008e8       ??_C@_0BP@IHAABOAC@outctx_base_t_restore_ctxflags@ 00000001800278e8     ua.obj
 0002:00000908       ??_C@_0BJ@BLAPICCD@outctx_base_t_out_printf@ 0000000180027908     ua.obj
 0002:00000928       ??_C@_0BI@CPJLANME@outctx_base_t_out_value@ 0000000180027928     ua.obj
 0002:00000940       ??_C@_0BJ@BFOKNFBO@outctx_base_t_out_symbol@ 0000000180027940     ua.obj
 0002:00000960       ??_C@_0BI@JKCNIHBC@outctx_base_t_out_chars@ 0000000180027960     ua.obj
 0002:00000978       ??_C@_0BJ@IPGEIFPK@outctx_base_t_out_spaces@ 0000000180027978     ua.obj
 0002:00000998       ??_C@_0BH@GPALLHBI@outctx_base_t_out_line@ 0000000180027998     ua.obj
 0002:000009b0       ??_C@_0BK@NCFEHDDE@outctx_base_t_out_keyword@ 00000001800279b0     ua.obj
 0002:000009d0       ??_C@_0BL@LDIIIEII@outctx_base_t_out_register@ 00000001800279d0     ua.obj
 0002:000009f0       ??_C@_0BI@EHBHNEKD@outctx_base_t_out_tagon@ 00000001800279f0     ua.obj
 0002:00000a08       ??_C@_0BJ@HCCMHIBP@outctx_base_t_out_tagoff@ 0000000180027a08     ua.obj
 0002:00000a28       ??_C@_0BL@IGBLJOKK@outctx_base_t_out_addr_tag@ 0000000180027a28     ua.obj
 0002:00000a48       ??_C@_0CI@MFLONIBH@outctx_base_t_out_colored_regis@ 0000000180027a48     ua.obj
 0002:00000a70       ??_C@_0BH@FLDIIEAH@outctx_base_t_out_char@ 0000000180027a70     ua.obj
 0002:00000a88       ??_C@_0BH@BHOGCJAI@outctx_base_t_out_btoa@ 0000000180027a88     ua.obj
 0002:00000aa0       ??_C@_0BH@HIFGIKEG@outctx_base_t_out_long@ 0000000180027aa0     ua.obj
 0002:00000ab8       ??_C@_0BM@EENOPOGH@outctx_base_t_out_name_expr@ 0000000180027ab8     ua.obj
 0002:00000ad8       ??_C@_0BL@KOIBMODI@outctx_base_t_flush_outbuf@ 0000000180027ad8     ua.obj
 0002:00000af8       ??_C@_0BI@PLGFMAKO@outctx_base_t_flush_buf@ 0000000180027af8     ua.obj
 0002:00000b10       ??_C@_0BK@DBEIEACL@outctx_base_t_term_outctx@ 0000000180027b10     ua.obj
 0002:00000b30       ??_C@_0BJ@LPIMCKGB@outctx_base_t_gen_printf@ 0000000180027b30     ua.obj
 0002:00000b50       ??_C@_0BO@LBPJCDFN@outctx_base_t_gen_border_line@ 0000000180027b50     ua.obj
 0002:00000b70       ??_C@_0BL@MJEONFE@outctx_base_t_gen_cmt_line@ 0000000180027b70     ua.obj
 0002:00000b90       ??_C@_0CB@JPBAFICM@outctx_base_t_gen_collapsed_lin@ 0000000180027b90     ua.obj
 0002:00000bb8       ??_C@_0BM@FOOPNECP@outctx_base_t_gen_block_cmt@ 0000000180027bb8     ua.obj
 0002:00000bd8       ??_C@_0BL@CMLHJMAD@outctx_base_t_setup_outctx@ 0000000180027bd8     ua.obj
 0002:00000bf8       ??_C@_0BM@LJMECMOD@outctx_base_t_retrieve_name@ 0000000180027bf8     ua.obj
 0002:00000c18       ??_C@_0BP@DOMIPABO@outctx_base_t_init_lines_array@ 0000000180027c18     ua.obj
 0002:00000c38       ??_C@_0BJ@LKPNIBNA@outctx_base_t_get_stkvar@ 0000000180027c38     ua.obj
 0002:00000c58       ??_C@_0BE@GBLICEEE@outctx_t_bin_ea_set@ 0000000180027c58     ua.obj
 0002:00000c6c       ??_C@_03BHDOPPEK@own@      0000000180027c6c     ua.obj
 0002:00000c70       ??_C@_06EFGGFDFD@disown@   0000000180027c70     ua.obj
 0002:00000c78       ??_C@_0CC@CFIMIIPD@releases?5ownership?5of?5the?5point@ 0000000180027c78     ua.obj
 0002:00000ca0       ??_C@_07MEFPPMEF@acquire@  0000000180027ca0     ua.obj
 0002:00000ca8       ??_C@_0CC@BAIBAPCI@acquires?5ownership?5of?5the?5point@ 0000000180027ca8     ua.obj
 0002:00000cd0       ??_C@_0CG@GKPKGEFE@returns?1sets?5ownership?5of?5the?5p@ 0000000180027cd0     ua.obj
 0002:00000cf8       ??_C@_06PCICMFGG@append@   0000000180027cf8     ua.obj
 0002:00000d00       ??_C@_0BO@NCOOMDHM@appends?5another?5?8this?8?5object@ 0000000180027d00     ua.obj
 0002:00000d20       ??_C@_04CJGEDOF@next@      0000000180027d20     ua.obj
 0002:00000d28       ??_C@_0BP@IMIAEPNG@returns?5the?5next?5?8this?8?5object@ 0000000180027d28     ua.obj
 0002:00000d48       ??_C@_08HJPCHLLJ@__repr__@ 0000000180027d48     ua.obj
 0002:00000d58       ??_C@_0BO@PNCCHPAD@returns?5object?5representation@ 0000000180027d58     ua.obj
 0002:00000d78       ??_C@_0BH@BABCNCGL@outctx_t_bin_state_set@ 0000000180027d78     ua.obj
 0002:00000d90       ??_C@_0BH@OJGAMFEH@outctx_t_gl_bpsize_set@ 0000000180027d90     ua.obj
 0002:00000da8       ??_C@_0BH@LAAIMKIN@outctx_t_bin_width_set@ 0000000180027da8     ua.obj
 0002:00000dc0       ??_C@_0BC@GDIMHLE@outctx_t_insn_set@ 0000000180027dc0     ua.obj
 0002:00000dd8       ??_C@_0BG@FEDCILN@outctx_t_curlabel_set@ 0000000180027dd8     ua.obj
 0002:00000df0       ??_C@_0BB@BLEAONLN@outctx_t_wif_set@ 0000000180027df0     ua.obj
 0002:00000e08       ??_C@_0BG@PMNBNALI@outctx_t_setup_outctx@ 0000000180027e08     ua.obj
 0002:00000e20       ??_C@_0BH@OFKHCAKL@outctx_t_retrieve_name@ 0000000180027e20     ua.obj
 0002:00000e38       ??_C@_0BC@LMOALEHJ@outctx_t_out_mnem@ 0000000180027e38     ua.obj
 0002:00000e50       ??_C@_0BJ@PDIIGNIP@outctx_t_out_custom_mnem@ 0000000180027e50     ua.obj
 0002:00000e70       ??_C@_0BJ@JFONBDDI@outctx_t_out_one_operand@ 0000000180027e70     ua.obj
 0002:00000e90       ??_C@_0BJ@OHCNICGC@outctx_t_gen_func_header@ 0000000180027e90     ua.obj
 0002:00000eb0       ??_C@_0BJ@PJKADDKH@outctx_t_gen_func_footer@ 0000000180027eb0     ua.obj
 0002:00000ed0       ??_C@_0BC@FIMCEABF@outctx_t_out_data@ 0000000180027ed0     ua.obj
 0002:00000ee8       ??_C@_0BE@OOOJKJKM@outctx_t_out_specea@ 0000000180027ee8     ua.obj
 0002:00000f00       ??_C@_0BE@HFBAIFBJ@outctx_t_gen_header@ 0000000180027f00     ua.obj
 0002:00000f18       ??_C@_0O@PHGFDKGI@create_outctx@ 0000000180027f18     ua.obj
 0002:00000f28       ??_C@_0M@OPCAHFKP@create_insn@ 0000000180027f28     ua.obj
 0002:00000f38       ??_C@_0M@KFBCNHJG@decode_insn@ 0000000180027f38     ua.obj
 0002:00000f48       ??_C@_0O@FFJCLMF@print_operand@ 0000000180027f48     ua.obj
 0002:00000f58       ??_C@_07HDHHMDOH@_p_char@  0000000180027f58     ua.obj
 0002:00000f60       ??_C@_0BB@EJHHCCGO@decode_prev_insn@ 0000000180027f60     ua.obj
 0002:00000f78       ??_C@_0BB@HGNHCILC@guess_table_size@ 0000000180027f78     ua.obj
 0002:00000f90       ??_C@_0BG@PODBJFCK@decode_preceding_insn@ 0000000180027f90     ua.obj
 0002:00000fa8       ??_C@_0BA@NALDLELA@construct_macro@ 0000000180027fa8     ua.obj
 0002:00000fb8       ??_C@_0M@IKFCDKGB@get_immvals@ 0000000180027fb8     ua.obj
 0002:00000fc8       ??_C@_0BG@DFOFFENO@get_printable_immvals@ 0000000180027fc8     ua.obj
 0002:00000fe0       ??_C@_0BL@KNJGGKHK@operands_array___getitem__@ 0000000180027fe0     ua.obj
 0002:00001000       ??_C@_0BL@IDNDELOI@operands_array___setitem__@ 0000000180028000     ua.obj
 0002:00001020       ??_C@_0BI@HBGDNGE@operands_array_data_get@ 0000000180028020     ua.obj
 0002:00001038       ??_C@_0CN@MJHPKNPL@operands_array_data_get?$CIself?$CJ?5?9@ 0000000180028038     ua.obj
 0002:00001068       ??_C@_0BD@GCALILKH@new_operands_array@ 0000000180028068     ua.obj
 0002:00001080       ??_C@_0CL@LOABLMGN@new_operands_array?$CIdata?$CJ?5?9?$DO?5ope@ 0000000180028080     ua.obj
 0002:000010b0       ??_C@_0BH@FBCJIKKG@operands_array___len__@ 00000001800280b0     ua.obj
 0002:000010c8       ??_C@_0CH@GBPKAAA@operands_array___len__?$CIself?$CJ?5?9?$DO@ 00000001800280c8     ua.obj
 0002:000010f0       ??_C@_0CM@ONNFJDBH@operands_array___getitem__?$CIself@ 00000001800280f0     ua.obj
 0002:00001120       ??_C@_0CH@NBCAPIGO@operands_array___setitem__?$CIself@ 0000000180028120     ua.obj
 0002:00001148       ??_C@_0BG@LEAJILLJ@delete_operands_array@ 0000000180028148     ua.obj
 0002:00001160       ??_C@_0BM@BNHGEKBD@delete_operands_array?$CIself?$CJ@ 0000000180028160     ua.obj
 0002:00001180       ??_C@_0BM@EIFAPKHI@operands_array_swigregister@ 0000000180028180     ua.obj
 0002:000011a0       ??_C@_0BI@PPEAMPKL@operands_array_swiginit@ 00000001800281a0     ua.obj
 0002:000011b8       ??_C@_0BE@PCNPEPJD@op_t_n_set?$CIself?0?5n?$CJ@ 00000001800281b8     ua.obj
 0002:000011d0       ??_C@_0L@NKHCGNFF@op_t_n_get@ 00000001800281d0     ua.obj
 0002:000011e0       ??_C@_0BK@HDHEPFKC@op_t_n_get?$CIself?$CJ?5?9?$DO?5uchar@ 00000001800281e0     ua.obj
 0002:00001200       ??_C@_0BK@FDGOGIKK@op_t_type_set?$CIself?0?5type?$CJ@ 0000000180028200     ua.obj
 0002:00001220       ??_C@_0O@LFAOIMJD@op_t_type_get@ 0000000180028220     ua.obj
 0002:00001230       ??_C@_0CA@FCLLIL@op_t_type_get?$CIself?$CJ?5?9?$DO?5optype_t@ 0000000180028230     ua.obj
 0002:00001250       ??_C@_0BK@EOBDPMGH@op_t_offb_set?$CIself?0?5offb?$CJ@ 0000000180028250     ua.obj
 0002:00001270       ??_C@_0O@CHALOKPE@op_t_offb_get@ 0000000180028270     ua.obj
 0002:00001280       ??_C@_0BM@LFMCGKKE@op_t_offb_get?$CIself?$CJ?5?9?$DO?5char@ 0000000180028280     ua.obj
 0002:000012a0       ??_C@_0BK@LFGAKANP@op_t_offo_set?$CIself?0?5offo?$CJ@ 00000001800282a0     ua.obj
 0002:000012c0       ??_C@_0O@JLJFPJCK@op_t_offo_get@ 00000001800282c0     ua.obj
 0002:000012d0       ??_C@_0BM@DJDGMAJ@op_t_offo_get?$CIself?$CJ?5?9?$DO?5char@ 00000001800282d0     ua.obj
 0002:000012f0       ??_C@_0BM@HHHABGJA@op_t_flags_set?$CIself?0?5flags?$CJ@ 00000001800282f0     ua.obj
 0002:00001310       ??_C@_0P@JGLADBDB@op_t_flags_get@ 0000000180028310     ua.obj
 0002:00001320       ??_C@_0BO@POBKHEBE@op_t_flags_get?$CIself?$CJ?5?9?$DO?5uchar@ 0000000180028320     ua.obj
 0002:00001340       ??_C@_0P@CNHJNIAA@op_t_set_shown@ 0000000180028340     ua.obj
 0002:00001350       ??_C@_0BF@MGPNJOFG@op_t_set_shown?$CIself?$CJ@ 0000000180028350     ua.obj
 0002:00001368       ??_C@_0P@GABLOGDE@op_t_clr_shown@ 0000000180028368     ua.obj
 0002:00001378       ??_C@_0BF@KOGKPMBB@op_t_clr_shown?$CIself?$CJ@ 0000000180028378     ua.obj
 0002:00001390       ??_C@_0L@BMAALNKM@op_t_shown@ 0000000180028390     ua.obj
 0002:000013a0       ??_C@_0BJ@NBNIOFKM@op_t_shown?$CIself?$CJ?5?9?$DO?5bool@ 00000001800283a0     ua.obj
 0002:000013c0       ??_C@_0BM@JGLHHCHF@op_t_dtype_set?$CIself?0?5dtype?$CJ@ 00000001800283c0     ua.obj
 0002:000013e0       ??_C@_0P@FNPFGIDN@op_t_dtype_get@ 00000001800283e0     ua.obj
 0002:000013f0       ??_C@_0CD@KBKPGOOA@op_t_dtype_get?$CIself?$CJ?5?9?$DO?5op_dtyp@ 00000001800283f0     ua.obj
 0002:00001418       ??_C@_0BN@LPHLCANB@op_t_is_reg?$CIself?0?5r?$CJ?5?9?$DO?5bool@ 0000000180028418     ua.obj
 0002:00001438       ??_C@_0BN@PKGEAHOM@op_t_is_imm?$CIself?0?5v?$CJ?5?9?$DO?5bool@ 0000000180028438     ua.obj
 0002:00001458       ??_C@_0CE@EMNPAEAD@op_t_specflag1_set?$CIself?0?5specfl@ 0000000180028458     ua.obj
 0002:00001480       ??_C@_0BD@COEHJKCE@op_t_specflag1_get@ 0000000180028480     ua.obj
 0002:00001498       ??_C@_0CB@OFGKPGKL@op_t_specflag1_get?$CIself?$CJ?5?9?$DO?5cha@ 0000000180028498     ua.obj
 0002:000014c0       ??_C@_0CE@DIHMIDGH@op_t_specflag2_set?$CIself?0?5specfl@ 00000001800284c0     ua.obj
 0002:000014e8       ??_C@_0BD@KINDOIIK@op_t_specflag2_get@ 00000001800284e8     ua.obj
 0002:00001500       ??_C@_0CB@EKMDLLGB@op_t_specflag2_get?$CIself?$CJ?5?9?$DO?5cha@ 0000000180028500     ua.obj
 0002:00001528       ??_C@_0CE@KCMNADIE@op_t_specflag3_set?$CIself?0?5specfl@ 0000000180028528     ua.obj
 0002:00001550       ??_C@_0BD@GDIPDLCP@op_t_specflag3_get@ 0000000180028550     ua.obj
 0002:00001568       ??_C@_0CB@CPKEIACH@op_t_specflag3_get?$CIself?$CJ?5?9?$DO?5cha@ 0000000180028568     ua.obj
 0002:00001590       ??_C@_0CE@NBDLINKP@op_t_specflag4_set?$CIself?0?5specfl@ 0000000180028590     ua.obj
 0002:000015b8       ??_C@_0BD@HOIKALJH@op_t_specflag4_get@ 00000001800285b8     ua.obj
 0002:000015d0       ??_C@_0CB@MOOACGLE@op_t_specflag4_get?$CIself?$CJ?5?9?$DO?5cha@ 00000001800285d0     ua.obj
 0002:000015f8       ??_C@_0BI@CHIMPDKM@op_t___get_reg_phrase__@ 00000001800285f8     ua.obj
 0002:00001610       ??_C@_0CI@MMDEHCMO@op_t___get_reg_phrase__?$CIself?$CJ?5?9@ 0000000180028610     ua.obj
 0002:00001638       ??_C@_0CB@IOIJIMCM@op_t___set_reg_phrase__?$CIself?0?5r@ 0000000180028638     ua.obj
 0002:00001660       ??_C@_0BD@LGPLGACP@op_t___get_value__@ 0000000180028660     ua.obj
 0002:00001678       ??_C@_0CB@BCEECDLB@op_t___get_value__?$CIself?$CJ?5?9?$DO?5ea_@ 0000000180028678     ua.obj
 0002:000016a0       ??_C@_0BM@FBHJFLNK@op_t___set_value__?$CIself?0?5v?$CJ@ 00000001800286a0     ua.obj
 0002:000016c0       ??_C@_0BC@BAHGHOJH@op_t___get_addr__@ 00000001800286c0     ua.obj
 0002:000016d8       ??_C@_0CA@KAPJCCLO@op_t___get_addr__?$CIself?$CJ?5?9?$DO?5ea_t@ 00000001800286d8     ua.obj
 0002:000016f8       ??_C@_0BL@BKEGDFKM@op_t___set_addr__?$CIself?0?5v?$CJ@ 00000001800286f8     ua.obj
 0002:00001718       ??_C@_0BF@DKHDMJOM@op_t___get_specval__@ 0000000180028718     ua.obj
 0002:00001730       ??_C@_0CD@CDFOMEDF@op_t___get_specval__?$CIself?$CJ?5?9?$DO?5e@ 0000000180028730     ua.obj
 0002:00001758       ??_C@_0BO@OPIJNJEO@op_t___set_specval__?$CIself?0?5v?$CJ@ 0000000180028758     ua.obj
 0002:00001778       ??_C@_0BJ@KMCHPHEF@op_t_assign?$CIself?0?5other?$CJ@ 0000000180028778     ua.obj
 0002:00001798       ??_C@_0BD@OCEGJOPF@new_op_t?$CI?$CJ?5?9?$DO?5op_t@ 0000000180028798     ua.obj
 0002:000017b0       ??_C@_0M@DHAKHPN@delete_op_t@ 00000001800287b0     ua.obj
 0002:000017c0       ??_C@_0BC@FLKIMHOP@delete_op_t?$CIself?$CJ@ 00000001800287c0     ua.obj
 0002:000017d8       ??_C@_0BC@DHCIOEJI@op_t_swigregister@ 00000001800287d8     ua.obj
 0002:000017f0       ??_C@_0O@CBBIHALG@op_t_swiginit@ 00000001800287f0     ua.obj
 0002:00001800       ??_C@_0CF@BEEAAONA@insn_add_cref?$CIinsn?0?5to?0?5opoff?0?5@ 0000000180028800     ua.obj
 0002:00001828       ??_C@_0CF@BAEJPNID@insn_add_dref?$CIinsn?0?5to?0?5opoff?0?5@ 0000000180028828     ua.obj
 0002:00001850       ??_C@_0DA@BPLGNFHE@insn_add_off_drefs?$CIinsn?0?5x?0?5typ@ 0000000180028850     ua.obj
 0002:00001880       ??_C@_0CO@CNEKLMFG@insn_create_stkvar?$CIinsn?0?5x?0?5v?0?5@ 0000000180028880     ua.obj
 0002:000018b0       ??_C@_0BH@OAHBLJAK@new_insn_t?$CI?$CJ?5?9?$DO?5insn_t@ 00000001800288b0     ua.obj
 0002:000018c8       ??_C@_0BI@HJMKOLCO@insn_t_cs_set?$CIself?0?5cs?$CJ@ 00000001800288c8     ua.obj
 0002:000018e0       ??_C@_0O@OOOPGLHN@insn_t_cs_get@ 00000001800288e0     ua.obj
 0002:000018f0       ??_C@_0BM@POILHJMA@insn_t_cs_get?$CIself?$CJ?5?9?$DO?5ea_t@ 00000001800288f0     ua.obj
 0002:00001910       ??_C@_0BI@PNFNOLI@insn_t_ip_set?$CIself?0?5ip?$CJ@ 0000000180028910     ua.obj
 0002:00001928       ??_C@_0O@MMALEGJN@insn_t_ip_get@ 0000000180028928     ua.obj
 0002:00001938       ??_C@_0BM@JABEDMAB@insn_t_ip_get?$CIself?$CJ?5?9?$DO?5ea_t@ 0000000180028938     ua.obj
 0002:00001958       ??_C@_0BI@IFLAGPBJ@insn_t_ea_set?$CIself?0?5ea?$CJ@ 0000000180028958     ua.obj
 0002:00001970       ??_C@_0O@MDCBPNNH@insn_t_ea_get@ 0000000180028970     ua.obj
 0002:00001980       ??_C@_0BM@CCLOKBKP@insn_t_ea_get?$CIself?$CJ?5?9?$DO?5ea_t@ 0000000180028980     ua.obj
 0002:000019a0       ??_C@_0BO@LOOJPLDP@insn_t_itype_set?$CIself?0?5itype?$CJ@ 00000001800289a0     ua.obj
 0002:000019c0       ??_C@_0BB@BBBJOGGP@insn_t_itype_get@ 00000001800289c0     ua.obj
 0002:000019d8       ??_C@_0CB@CGGEHDOH@insn_t_itype_get?$CIself?$CJ?5?9?$DO?5uint1@ 00000001800289d8     ua.obj
 0002:00001a00       ??_C@_0BF@OMMLNDFK@insn_t_is_canon_insn@ 0000000180028a00     ua.obj
 0002:00001a18       ??_C@_0CD@BMOGDPCB@insn_t_is_canon_insn?$CIself?$CJ?5?9?$DO?5b@ 0000000180028a18     ua.obj
 0002:00001a40       ??_C@_0BJ@LIONEHPA@insn_t_get_canon_feature@ 0000000180028a40     ua.obj
 0002:00001a60       ??_C@_0CJ@OODEHEKG@insn_t_get_canon_feature?$CIself?$CJ?5@ 0000000180028a60     ua.obj
 0002:00001a90       ??_C@_0BG@CKJBCABL@insn_t_get_canon_mnem@ 0000000180028a90     ua.obj
 0002:00001aa8       ??_C@_0CM@CGJBHJBN@insn_t_get_canon_mnem?$CIself?$CJ?5?9?$DO?5@ 0000000180028aa8     ua.obj
 0002:00001ad8       ??_C@_0BM@GHPNGPKE@insn_t_size_set?$CIself?0?5size?$CJ@ 0000000180028ad8     ua.obj
 0002:00001af8       ??_C@_0BA@HNHFGEEJ@insn_t_size_get@ 0000000180028af8     ua.obj
 0002:00001b08       ??_C@_0CA@LGKKFNPF@insn_t_size_get?$CIself?$CJ?5?9?$DO?5uint16@ 0000000180028b08     ua.obj
 0002:00001b28       ??_C@_0CC@IMBJNPDJ@insn_t_segpref_set?$CIself?0?5segpre@ 0000000180028b28     ua.obj
 0002:00001b50       ??_C@_0BD@GHPHCBF@insn_t_segpref_get@ 0000000180028b50     ua.obj
 0002:00001b68       ??_C@_0CB@JFDFBCF@insn_t_segpref_get?$CIself?$CJ?5?9?$DO?5cha@ 0000000180028b68     ua.obj
 0002:00001b90       ??_C@_0CE@KDJBDECA@insn_t_insnpref_set?$CIself?0?5insnp@ 0000000180028b90     ua.obj
 0002:00001bb8       ??_C@_0BE@JCKDOLEM@insn_t_insnpref_get@ 0000000180028bb8     ua.obj
 0002:00001bd0       ??_C@_0CC@CDIOBGGG@insn_t_insnpref_get?$CIself?$CJ?5?9?$DO?5ch@ 0000000180028bd0     ua.obj
 0002:00001bf8       ??_C@_0BO@KFGPPGHL@insn_t_flags_set?$CIself?0?5flags?$CJ@ 0000000180028bf8     ua.obj
 0002:00001c18       ??_C@_0BB@CPKCDEND@insn_t_flags_get@ 0000000180028c18     ua.obj
 0002:00001c30       ??_C@_0CA@INHICEJD@insn_t_flags_get?$CIself?$CJ?5?9?$DO?5int16@ 0000000180028c30     ua.obj
 0002:00001c50       ??_C@_0BK@KGGHICCE@insn_t_ops_set?$CIself?0?5ops?$CJ@ 0000000180028c50     ua.obj
 0002:00001c70       ??_C@_0P@FFJMGGAM@insn_t_ops_get@ 0000000180028c70     ua.obj
 0002:00001c80       ??_C@_0BN@EDKMMJBF@insn_t_ops_get?$CIself?$CJ?5?9?$DO?5op_t@ 0000000180028c80     ua.obj
 0002:00001ca0       ??_C@_0BA@PJBKPKMM@insn_t_is_macro@ 0000000180028ca0     ua.obj
 0002:00001cb0       ??_C@_0BO@CNLGPHAO@insn_t_is_macro?$CIself?$CJ?5?9?$DO?5bool@ 0000000180028cb0     ua.obj
 0002:00001cd0       ??_C@_0BA@GOFJKCCN@insn_t_is_64bit@ 0000000180028cd0     ua.obj
 0002:00001ce0       ??_C@_0BO@FLEPBDHI@insn_t_is_64bit?$CIself?$CJ?5?9?$DO?5bool@ 0000000180028ce0     ua.obj
 0002:00001d00       ??_C@_0BF@OCEKPGGL@insn_t_get_next_byte@ 0000000180028d00     ua.obj
 0002:00001d18       ??_C@_0CE@MIKGFLLE@insn_t_get_next_byte?$CIself?$CJ?5?9?$DO?5u@ 0000000180028d18     ua.obj
 0002:00001d40       ??_C@_0BF@CCKOKLCJ@insn_t_get_next_word@ 0000000180028d40     ua.obj
 0002:00001d58       ??_C@_0CF@JKKFGFPP@insn_t_get_next_word?$CIself?$CJ?5?9?$DO?5u@ 0000000180028d58     ua.obj
 0002:00001d80       ??_C@_0BG@CMALGEJC@insn_t_get_next_dword@ 0000000180028d80     ua.obj
 0002:00001d98       ??_C@_0CG@OKNFEKID@insn_t_get_next_dword?$CIself?$CJ?5?9?$DO?5@ 0000000180028d98     ua.obj
 0002:00001dc0       ??_C@_0BG@HPBAPHLK@insn_t_get_next_qword@ 0000000180028dc0     ua.obj
 0002:00001dd8       ??_C@_0CG@FIDKJCGP@insn_t_get_next_qword?$CIself?$CJ?5?9?$DO?5@ 0000000180028dd8     ua.obj
 0002:00001e00       ??_C@_0GG@DMMDCBJG@?6insn_t_create_op_data?$CIself?0?5ea@ 0000000180028e00     ua.obj
 0002:00001e68       ??_C@_0DB@KBIEKCFP@insn_t_create_stkvar?$CIself?0?5x?0?5v@ 0000000180028e68     ua.obj
 0002:00001ea0       ??_C@_0CH@LFMGKHHG@insn_t_add_cref?$CIself?0?5to?0?5opoff@ 0000000180028ea0     ua.obj
 0002:00001ec8       ??_C@_0CH@LBMPFECF@insn_t_add_dref?$CIself?0?5to?0?5opoff@ 0000000180028ec8     ua.obj
 0002:00001ef0       ??_C@_0DC@EPDPBDCE@insn_t_add_off_drefs?$CIself?0?5x?0?5t@ 0000000180028ef0     ua.obj
 0002:00001f28       ??_C@_0BD@BJMDLHKL@insn_t___get_ops__@ 0000000180028f28     ua.obj
 0002:00001f40       ??_C@_0CL@HLMFMAHF@insn_t___get_ops__?$CIself?$CJ?5?9?$DO?5ope@ 0000000180028f40     ua.obj
 0002:00001f70       ??_C@_0CI@PCJGHGDN@insn_t___get_operand__?$CIself?0?5n?$CJ@ 0000000180028f70     ua.obj
 0002:00001f98       ??_C@_0BH@EAGIBEBP@insn_t___get_auxpref__@ 0000000180028f98     ua.obj
 0002:00001fb0       ??_C@_0CH@LKCDOHLP@insn_t___get_auxpref__?$CIself?$CJ?5?9?$DO@ 0000000180028fb0     ua.obj
 0002:00001fd8       ??_C@_0CA@BCIKKDEP@insn_t___set_auxpref__?$CIself?0?5v?$CJ@ 0000000180028fd8     ua.obj
 0002:00001ff8       ??_C@_0BL@FONEFDGD@insn_t_assign?$CIself?0?5other?$CJ@ 0000000180028ff8     ua.obj
 0002:00002018       ??_C@_0O@KEIKFMJL@delete_insn_t@ 0000000180029018     ua.obj
 0002:00002028       ??_C@_0BE@IPANPHMC@delete_insn_t?$CIself?$CJ@ 0000000180029028     ua.obj
 0002:00002040       ??_C@_0BE@BDIAGFOC@insn_t_swigregister@ 0000000180029040     ua.obj
 0002:00002058       ??_C@_0BA@FFMJJLMA@insn_t_swiginit@ 0000000180029058     ua.obj
 0002:00002068       ??_C@_0BG@GALEACHO@get_lookback?$CI?$CJ?5?9?$DO?5int@ 0000000180029068     ua.obj
 0002:00002080       ??_C@_0CL@JNDCJDJC@calc_dataseg?$CIinsn?0?5n?$DN?91?0?5rgnum?$DN@ 0000000180029080     ua.obj
 0002:000020b0       ??_C@_0EK@OIOFLLPG@?6map_data_ea?$CIinsn?0?5addr?0?5opnum?$DN@ 00000001800290b0     ua.obj
 0002:00002100       ??_C@_0EH@HHNLKHPO@?6map_code_ea?$CIinsn?0?5addr?0?5opnum?$CJ@ 0000000180029100     ua.obj
 0002:00002150       ??_C@_0EN@OBIENHGF@?6map_ea?$CIinsn?0?5op?0?5iscode?$CJ?5?9?$DO?5ea@ 0000000180029150     ua.obj
 0002:000021a0       ??_C@_0CJ@JNMIGJJA@outctx_base_t_insn_ea_set?$CIself?0@ 00000001800291a0     ua.obj
 0002:000021d0       ??_C@_0BK@OCIEGMEM@outctx_base_t_insn_ea_get@ 00000001800291d0     ua.obj
 0002:000021f0       ??_C@_0CI@OGPLIAJL@outctx_base_t_insn_ea_get?$CIself?$CJ@ 00000001800291f0     ua.obj
 0002:00002218       ??_C@_0CH@OKKIAMPE@outctx_base_t_outbuf_set?$CIself?0?5@ 0000000180029218     ua.obj
 0002:00002240       ??_C@_0BJ@PJMBBAJN@outctx_base_t_outbuf_get@ 0000000180029240     ua.obj
 0002:00002260       ??_C@_0CM@LKJHEEMB@outctx_base_t_outbuf_get?$CIself?$CJ?5@ 0000000180029260     ua.obj
 0002:00002290       ??_C@_0DF@PMDNCBBC@outctx_base_t_default_lnnum_set@ 0000000180029290     ua.obj
 0002:000022c8       ??_C@_0CA@OKKGDFAC@outctx_base_t_default_lnnum_get@ 00000001800292c8     ua.obj
 0002:000022e8       ??_C@_0CN@NDNAKBOC@outctx_base_t_default_lnnum_get@ 00000001800292e8     ua.obj
 0002:00002318       ??_C@_0BN@LPGBNCKO@outctx_base_t_only_main_line@ 0000000180029318     ua.obj
 0002:00002338       ??_C@_0CL@MCFNNCEE@outctx_base_t_only_main_line?$CIse@ 0000000180029338     ua.obj
 0002:00002368       ??_C@_0BI@GEDHFCFN@outctx_base_t_multiline@ 0000000180029368     ua.obj
 0002:00002380       ??_C@_0CG@IIHCBODM@outctx_base_t_multiline?$CIself?$CJ?5?9@ 0000000180029380     ua.obj
 0002:000023a8       ??_C@_0BJ@LKGFLIMJ@outctx_base_t_force_code@ 00000001800293a8     ua.obj
 0002:000023c8       ??_C@_0CH@GNLANMOI@outctx_base_t_force_code?$CIself?$CJ?5@ 00000001800293c8     ua.obj
 0002:000023f0       ??_C@_0BJ@ILKFPCHM@outctx_base_t_stack_view@ 00000001800293f0     ua.obj
 0002:00002410       ??_C@_0CH@PPCEKCJC@outctx_base_t_stack_view?$CIself?$CJ?5@ 0000000180029410     ua.obj
 0002:00002438       ??_C@_0BM@DEDCBLIN@outctx_base_t_display_voids@ 0000000180029438     ua.obj
 0002:00002458       ??_C@_0CK@PGAPALDE@outctx_base_t_display_voids?$CIsel@ 0000000180029458     ua.obj
 0002:00002488       ??_C@_0CL@FGMJBKF@outctx_base_t_set_gen_xrefs?$CIsel@ 0000000180029488     ua.obj
 0002:000024b8       ??_C@_0CJ@FCDGGOAI@outctx_base_t_set_gen_cmt?$CIself?0@ 00000001800294b8     ua.obj
 0002:000024e8       ??_C@_0BM@BHIHNLNN@outctx_base_t_clr_gen_label@ 00000001800294e8     ua.obj
 0002:00002508       ??_C@_0CC@GALIOKKF@outctx_base_t_clr_gen_label?$CIsel@ 0000000180029508     ua.obj
 0002:00002530       ??_C@_0BM@BJJNEILJ@outctx_base_t_set_gen_label@ 0000000180029530     ua.obj
 0002:00002550       ??_C@_0CC@FAEBGANI@outctx_base_t_set_gen_label?$CIsel@ 0000000180029550     ua.obj
 0002:00002578       ??_C@_0CG@DKPANEIH@outctx_base_t_set_gen_demangled@ 0000000180029578     ua.obj
 0002:000025a0       ??_C@_0CM@IJIABLHD@outctx_base_t_set_gen_demangled@ 00000001800295a0     ua.obj
 0002:000025d0       ??_C@_0CJ@BJDBOKCC@outctx_base_t_set_comment_addr?$CI@ 00000001800295d0     ua.obj
 0002:00002600       ??_C@_0BO@LNJKPEML@outctx_base_t_set_dlbind_opnd@ 0000000180029600     ua.obj
 0002:00002620       ??_C@_0CE@IADKOEAC@outctx_base_t_set_dlbind_opnd?$CIs@ 0000000180029620     ua.obj
 0002:00002648       ??_C@_0BO@FKOLCCMM@outctx_base_t_print_label_now@ 0000000180029648     ua.obj
 0002:00002668       ??_C@_0CM@GJOCEIDH@outctx_base_t_print_label_now?$CIs@ 0000000180029668     ua.obj
 0002:00002698       ??_C@_0CB@LCHNFHPN@outctx_base_t_forbid_annotation@ 0000000180029698     ua.obj
 0002:000026c0       ??_C@_0CO@KMOKHGJA@outctx_base_t_forbid_annotation@ 00000001800296c0     ua.obj
 0002:000026f0       ??_C@_0DC@KONCFJNO@outctx_base_t_restore_ctxflags?$CI@ 00000001800296f0     ua.obj
 0002:00002728       ??_C@_0CH@NGFBEFGD@outctx_base_t_out_printf?$CIself?0?5@ 0000000180029728     ua.obj
 0002:00002750       ??_C@_0DE@DAONIGFI@outctx_base_t_out_value?$CIself?0?5x@ 0000000180029750     ua.obj
 0002:00002788       ??_C@_0CC@OLPENEHO@outctx_base_t_out_symbol?$CIself?0?5@ 0000000180029788     ua.obj
 0002:000027b0       ??_C@_0CE@GJGBNJAC@outctx_base_t_out_chars?$CIself?0?5c@ 00000001800297b0     ua.obj
 0002:000027d8       ??_C@_0CE@FLLAIFFN@outctx_base_t_out_spaces?$CIself?0?5@ 00000001800297d8     ua.obj
 0002:00002800       ??_C@_0CL@JPCOGCGN@outctx_base_t_out_line?$CIself?0?5st@ 0000000180029800     ua.obj
 0002:00002830       ??_C@_0CF@EKAGDCIN@outctx_base_t_out_keyword?$CIself?0@ 0000000180029830     ua.obj
 0002:00002858       ??_C@_0CG@DHFFLCB@outctx_base_t_out_register?$CIself@ 0000000180029858     ua.obj
 0002:00002880       ??_C@_0CD@LONLFIID@outctx_base_t_out_tagon?$CIself?0?5t@ 0000000180029880     ua.obj
 0002:000028a8       ??_C@_0CE@DJGHFNIO@outctx_base_t_out_tagoff?$CIself?0?5@ 00000001800298a8     ua.obj
 0002:000028d0       ??_C@_0CF@JOMJHKEM@outctx_base_t_out_addr_tag?$CIself@ 00000001800298d0     ua.obj
 0002:000028f8       ??_C@_0DD@NNKGBJDK@outctx_base_t_out_colored_regis@ 00000001800298f8     ua.obj
 0002:00002930       ??_C@_0CA@HLBFKKHM@outctx_base_t_out_char?$CIself?0?5c?$CJ@ 0000000180029930     ua.obj
 0002:00002950       ??_C@_0CM@IKHMEKB@outctx_base_t_out_btoa?$CIself?0?5Wo@ 0000000180029950     ua.obj
 0002:00002980       ??_C@_0CH@FNOHIKHL@outctx_base_t_out_long?$CIself?0?5v?0@ 0000000180029980     ua.obj
 0002:000029a8       ??_C@_0DO@JBGOPHCO@outctx_base_t_out_name_expr?$CIsel@ 00000001800299a8     ua.obj
 0002:000029e8       ??_C@_0BM@JIAPHBII@outctx_base_t_close_comment@ 00000001800299e8     ua.obj
 0002:00002a08       ??_C@_0CC@MEOIDGLP@outctx_base_t_close_comment?$CIsel@ 0000000180029a08     ua.obj
 0002:00002a30       ??_C@_0DE@INIKJMNL@outctx_base_t_flush_outbuf?$CIself@ 0000000180029a30     ua.obj
 0002:00002a68       ??_C@_0DG@FJFNGLEI@outctx_base_t_flush_buf?$CIself?0?5b@ 0000000180029a68     ua.obj
 0002:00002aa0       ??_C@_0DE@HACHMNMD@outctx_base_t_term_outctx?$CIself?0@ 0000000180029aa0     ua.obj
 0002:00002ad8       ??_C@_0DH@GBLKHDHC@outctx_base_t_gen_printf?$CIself?0?5@ 0000000180029ad8     ua.obj
 0002:00002b10       ??_C@_0BN@JMDJCNIH@outctx_base_t_gen_empty_line@ 0000000180029b10     ua.obj
 0002:00002b30       ??_C@_0CL@LJIIBMFO@outctx_base_t_gen_empty_line?$CIse@ 0000000180029b30     ua.obj
 0002:00002b60       ??_C@_0DJ@NDFNCICL@outctx_base_t_gen_border_line?$CIs@ 0000000180029b60     ua.obj
 0002:00002ba0       ??_C@_0DB@NNMMALMM@outctx_base_t_gen_cmt_line?$CIself@ 0000000180029ba0     ua.obj
 0002:00002bd8       ??_C@_0DH@ODAMDFLN@outctx_base_t_gen_collapsed_lin@ 0000000180029bd8     ua.obj
 0002:00002c10       ??_C@_0DG@JGDBIPJD@outctx_base_t_gen_block_cmt?$CIsel@ 0000000180029c10     ua.obj
 0002:00002c48       ??_C@_0DJ@HHHDOHOF@outctx_base_t_setup_outctx?$CIself@ 0000000180029c48     ua.obj
 0002:00002c88       ??_C@_0BL@PPFAPHAA@outctx_base_t_retrieve_cmt@ 0000000180029c88     ua.obj
 0002:00002ca8       ??_C@_0CM@FEBCBBFD@outctx_base_t_retrieve_cmt?$CIself@ 0000000180029ca8     ua.obj
 0002:00002cd8       ??_C@_0DJ@JHFHMOJO@outctx_base_t_retrieve_name?$CIsel@ 0000000180029cd8     ua.obj
 0002:00002d18       ??_C@_0BN@JMEONLBM@outctx_base_t_gen_xref_lines@ 0000000180029d18     ua.obj
 0002:00002d38       ??_C@_0CL@PJNIBKAI@outctx_base_t_gen_xref_lines?$CIse@ 0000000180029d38     ua.obj
 0002:00002d68       ??_C@_0DH@GLHGGOLA@outctx_base_t_init_lines_array?$CI@ 0000000180029d68     ua.obj
 0002:00002da0       ??_C@_0EF@KKNACOND@outctx_base_t_get_stkvar?$CIself?0?5@ 0000000180029da0     ua.obj
 0002:00002de8       ??_C@_0L@FAJKNJN@op_t_n_set@ 0000000180029de8     ua.obj
 0002:00002df8       ??_C@_0DB@JBOJKJMH@outctx_base_t_gen_empty_line_wi@ 0000000180029df8     ua.obj
 0002:00002e30       ??_C@_0DH@HPKGJPPF@outctx_base_t_gen_empty_line_wi@ 0000000180029e30     ua.obj
 0002:00002e68       ??_C@_0BL@GPEIEODG@outctx_base_t_swigregister@ 0000000180029e68     ua.obj
 0002:00002e88       ??_C@_0CC@ENKLIPKD@outctx_t_bin_ea_set?$CIself?0?5bin_e@ 0000000180029e88     ua.obj
 0002:00002eb0       ??_C@_0BE@LOMDOEIM@outctx_t_bin_ea_get@ 0000000180029eb0     ua.obj
 0002:00002ec8       ??_C@_0CC@OIAHHPGO@outctx_t_bin_ea_get?$CIself?$CJ?5?9?$DO?5ea@ 0000000180029ec8     ua.obj
 0002:00002ef0       ??_C@_0CI@BJLGECAJ@outctx_t_bin_state_set?$CIself?0?5bi@ 0000000180029ef0     ua.obj
 0002:00002f18       ??_C@_0BH@MPGJBCKD@outctx_t_bin_state_get@ 0000000180029f18     ua.obj
 0002:00002f30       ??_C@_0CF@OOAGDBHC@outctx_t_bin_state_get?$CIself?$CJ?5?9?$DO@ 0000000180029f30     ua.obj
 0002:00002f58       ??_C@_0CI@JMPNPFHP@outctx_t_gl_bpsize_set?$CIself?0?5gl@ 0000000180029f58     ua.obj
 0002:00002f80       ??_C@_0BH@DGBLAFIP@outctx_t_gl_bpsize_get@ 0000000180029f80     ua.obj
 0002:00002f98       ??_C@_0CE@PBINIOMM@outctx_t_gl_bpsize_get?$CIself?$CJ?5?9?$DO@ 0000000180029f98     ua.obj
 0002:00002fc0       ??_C@_0CI@EJKJECA@outctx_t_bin_width_set?$CIself?0?5bi@ 0000000180029fc0     ua.obj
 0002:00002fe8       ??_C@_0BH@GPHDAKEF@outctx_t_bin_width_get@ 0000000180029fe8     ua.obj
 0002:00003000       ??_C@_0CE@LLHBJNI@outctx_t_bin_width_get?$CIself?$CJ?5?9?$DO@ 000000018002a000     ua.obj
 0002:00003028       ??_C@_0BO@JPNEKCJA@outctx_t_insn_set?$CIself?0?5insn?$CJ@ 000000018002a028     ua.obj
 0002:00003048       ??_C@_0BC@NJEDAHHM@outctx_t_insn_get@ 000000018002a048     ua.obj
 0002:00003060       ??_C@_0CC@HELIAIIL@outctx_t_insn_get?$CIself?$CJ?5?9?$DO?5insn@ 000000018002a060     ua.obj
 0002:00003088       ??_C@_0CG@BEIHCBHJ@outctx_t_curlabel_set?$CIself?0?5cur@ 000000018002a088     ua.obj
 0002:000030b0       ??_C@_0BG@NKDIOIHF@outctx_t_curlabel_get@ 000000018002a0b0     ua.obj
 0002:000030c8       ??_C@_0CJ@LDIAIJCE@outctx_t_curlabel_get?$CIself?$CJ?5?9?$DO?5@ 000000018002a0c8     ua.obj
 0002:000030f8       ??_C@_0BM@EBNBOMIC@outctx_t_wif_set?$CIself?0?5wif?$CJ@ 000000018002a0f8     ua.obj
 0002:00003118       ??_C@_0BB@MEDLCNHF@outctx_t_wif_get@ 000000018002a118     ua.obj
 0002:00003130       ??_C@_0CE@FNKJEIMK@outctx_t_wif_get?$CIself?$CJ?5?9?$DO?5print@ 000000018002a130     ua.obj
 0002:00003158       ??_C@_0CL@LIEOMCCC@outctx_t_setup_outctx?$CIself?0?5pre@ 000000018002a158     ua.obj
 0002:00003188       ??_C@_0BG@CPDGLLLL@outctx_t_retrieve_cmt@ 000000018002a188     ua.obj
 0002:000031a0       ??_C@_0CH@CPAGPFHK@outctx_t_retrieve_cmt?$CIself?$CJ?5?9?$DO?5@ 000000018002a1a0     ua.obj
 0002:000031c8       ??_C@_0DE@PIKJHODC@outctx_t_retrieve_name?$CIself?0?5ar@ 000000018002a1c8     ua.obj
 0002:00003200       ??_C@_0BI@OEBFHBLC@outctx_t_gen_xref_lines@ 000000018002a200     ua.obj
 0002:00003218       ??_C@_0CG@FMBHJNMC@outctx_t_gen_xref_lines?$CIself?$CJ?5?9@ 000000018002a218     ua.obj
 0002:00003240       ??_C@_0CP@BGBDEGKC@outctx_t_out_mnem?$CIself?0?5width?$DN8@ 000000018002a240     ua.obj
 0002:00003270       ??_C@_0DM@NFMBOMGO@outctx_t_out_custom_mnem?$CIself?0?5@ 000000018002a270     ua.obj
 0002:000032b0       ??_C@_0BG@IBIEBNPG@outctx_t_out_mnemonic@ 000000018002a2b0     ua.obj
 0002:000032c8       ??_C@_0BM@IAKNGJIH@outctx_t_out_mnemonic?$CIself?$CJ@ 000000018002a2c8     ua.obj
 0002:000032e8       ??_C@_0CK@FJDEBGAB@outctx_t_out_one_operand?$CIself?0?5@ 000000018002a2e8     ua.obj
 0002:00003318       ??_C@_0BK@IKJKEGEM@outctx_t_out_immchar_cmts@ 000000018002a318     ua.obj
 0002:00003338       ??_C@_0CA@MIKMGIAD@outctx_t_out_immchar_cmts?$CIself?$CJ@ 000000018002a338     ua.obj
 0002:00003358       ??_C@_0CE@BMCCFFAK@outctx_t_gen_func_header?$CIself?0?5@ 000000018002a358     ua.obj
 0002:00003380       ??_C@_0CE@FDMDPBDO@outctx_t_gen_func_footer?$CIself?0?5@ 000000018002a380     ua.obj
 0002:000033a8       ??_C@_0CG@DEJCIPFH@outctx_t_out_data?$CIself?0?5analyze@ 000000018002a3a8     ua.obj
 0002:000033d0       ??_C@_0CL@CHCLCCOJ@outctx_t_out_specea?$CIself?0?5segty@ 000000018002a3d0     ua.obj
 0002:00003400       ??_C@_0BK@NEDEOMDP@outctx_t_gen_header_extra@ 000000018002a400     ua.obj
 0002:00003420       ??_C@_0CA@LEBLPNNH@outctx_t_gen_header_extra?$CIself?$CJ@ 000000018002a420     ua.obj
 0002:00003440       ??_C@_0FI@FOOBNPD@outctx_t_gen_header?$CIself?0?5flags@ 000000018002a440     ua.obj
 0002:00003498       ??_C@_0BG@LPCOACIN@outctx_t_swigregister@ 000000018002a498     ua.obj
 0002:000034b0       ??_C@_0DC@KNIENCJC@create_outctx?$CIea?0?5F?$DN0?0?5suspop?$DN0@ 000000018002a4b0     ua.obj
 0002:000034e8       ??_C@_0BA@OBKFBIOI@print_insn_mnem@ 000000018002a4e8     ua.obj
 0002:000034f8       ??_C@_0BM@FGAIKDBE@print_insn_mnem?$CIea?$CJ?5?9?$DO?5bool@ 000000018002a4f8     ua.obj
 0002:00003518       ??_C@_0P@CENOPMN@get_dtype_flag@ 000000018002a518     ua.obj
 0002:00003528       ??_C@_0CB@MNNJKCEA@get_dtype_flag?$CIdtype?$CJ?5?9?$DO?5flags_@ 000000018002a528     ua.obj
 0002:00003550       ??_C@_0P@LPNGCJBO@get_dtype_size@ 000000018002a550     ua.obj
 0002:00003560       ??_C@_0CA@PKEGEPH@get_dtype_size?$CIdtype?$CJ?5?9?$DO?5size_t@ 000000018002a560     ua.obj
 0002:00003580       ??_C@_0CB@PLJNDGOO@create_insn?$CIea?0?5out?$DNNone?$CJ?5?9?$DO?5in@ 000000018002a580     ua.obj
 0002:000035a8       ??_C@_0BM@GFCLJCDF@decode_insn?$CIout?0?5ea?$CJ?5?9?$DO?5int@ 000000018002a5a8     ua.obj
 0002:000035c8       ??_C@_0L@LGIPIKPB@can_decode@ 000000018002a5c8     ua.obj
 0002:000035d8       ??_C@_0O@GKHFEMFL@op_t_type_set@ 000000018002a5d8     ua.obj
 0002:000035e8       ??_C@_0BH@IIOIDEK@can_decode?$CIea?$CJ?5?9?$DO?5bool@ 000000018002a5e8     ua.obj
 0002:00003600       ??_C@_0DJ@HMJEEBOH@print_operand?$CIea?0?5n?0?5getn_flags@ 000000018002a600     ua.obj
 0002:00003640       ??_C@_0CC@CBAGMEGF@decode_prev_insn?$CIout?0?5ea?$CJ?5?9?$DO?5ea@ 000000018002a640     ua.obj
 0002:00003668       ??_C@_0BE@GJDIEHDH@guess_table_address@ 000000018002a668     ua.obj
 0002:00003680       ??_C@_0CC@KFDMJAEH@guess_table_address?$CIinsn?$CJ?5?9?$DO?5ea@ 000000018002a680     ua.obj
 0002:000036a8       ??_C@_0CO@LOJEEEMH@guess_table_size?$CIinsn?0?5jump_tab@ 000000018002a6a8     ua.obj
 0002:000036d8       ??_C@_0CN@EFJHIILC@decode_preceding_insn?$CIout?0?5ea?$CJ?5@ 000000018002a6d8     ua.obj
 0002:00003708       ??_C@_0DD@BHGKFLFF@construct_macro?$CIinsn?0?5enable?0?5b@ 000000018002a708     ua.obj
 0002:00003740       ??_C@_0BC@FFICPHPO@get_dtype_by_size@ 000000018002a740     ua.obj
 0002:00003758       ??_C@_0BP@OKNNDOO@get_dtype_by_size?$CIsize?$CJ?5?9?$DO?5int@ 000000018002a758     ua.obj
 0002:00003778       ??_C@_0CG@PDLILKCA@get_immvals?$CIea?0?5n?0?5F?$DN0?$CJ?5?9?$DO?5PyOb@ 000000018002a778     ua.obj
 0002:000037a0       ??_C@_0DA@MGNMMFCG@get_printable_immvals?$CIea?0?5n?0?5F?$DN@ 000000018002a7a0     ua.obj
 0002:000037d0       ??_C@_0BG@KLCFBPKF@insn_t__from_ptrval__@ 000000018002a7d0     ua.obj
 0002:000037e8       ??_C@_0CI@HIBEOPHB@insn_t__from_ptrval__?$CIptrval?$CJ?5?9@ 000000018002a7e8     ua.obj
 0002:00003810       ??_C@_0BE@OEEKBJMH@op_t__from_ptrval__@ 000000018002a810     ua.obj
 0002:00003828       ??_C@_0CE@NDMMMBAN@op_t__from_ptrval__?$CIptrval?$CJ?5?9?$DO?5@ 000000018002a828     ua.obj
 0002:00003850       ??_C@_0BN@OCMNJKDG@outctx_base_t__from_ptrval__@ 000000018002a850     ua.obj
 0002:00003870       ??_C@_0DG@BDLMLFPA@outctx_base_t__from_ptrval__?$CIpt@ 000000018002a870     ua.obj
 0002:000038a8       ??_C@_0BI@JKJGDAJI@outctx_t__from_ptrval__@ 000000018002a8a8     ua.obj
 0002:000038c0       ??_C@_0CM@FNDLGAGJ@outctx_t__from_ptrval__?$CIptrval?$CJ@ 000000018002a8c0     ua.obj
 0002:000038f0       ??_C@_0BE@LADBKDLC@_p__qstringT_char_t@ 000000018002a8f0     ua.obj
 0002:00003908       ??_C@_0BN@OHJFNODI@_qstring?$DM?5char?5?$DO?5?$CK?$HMqstring?5?$CK@ 000000018002a908     ua.obj
 0002:00003928       ??_C@_0O@PIHACKDM@op_t_offb_set@ 000000018002a928     ua.obj
 0002:00003938       ??_C@_0BN@OGMFMNEO@_p__qstringT_unsigned_char_t@ 000000018002a938     ua.obj
 0002:00003958       ??_C@_0CE@FCOOCMMP@qtype?5?$CK?$HM_qstring?$DM?5unsigned?5char@ 000000018002a958     ua.obj
 0002:00003980       ??_C@_0BO@NPELMEMN@_p__qstringT_unsigned_short_t@ 000000018002a980     ua.obj
 0002:000039a0       ??_C@_0CI@MOGIECDE@_qstring?$DM?5unsigned?5short?5?$DO?5?$CK?$HMqw@ 000000018002a9a0     ua.obj
 0002:000039c8       ??_C@_0N@KADAOMAN@_p_a_8__op_t@ 000000018002a9c8     ua.obj
 0002:000039d8       ??_C@_0M@JDDNLGBM@op_t?5?$CI?$CK?$CJ?$FL8?$FN@ 000000018002a9d8     ua.obj
 0002:000039e8       ??_C@_0BF@FIODJLOI@_p_action_ctx_base_t@ 000000018002a9e8     ua.obj
 0002:00003a00       ??_C@_0EE@ODNBPOJC@action_ctx_base_t?5?$CK?$HMaction_upda@ 000000018002aa00     ua.obj
 0002:00003a48       ??_C@_0N@IODFCNBG@_p_biggest_t@ 000000018002aa48     ua.obj
 0002:00003a58       ??_C@_0M@LMODFOHJ@biggest_t?5?$CK@ 000000018002aa58     ua.obj
 0002:00003a68       ??_C@_0O@HOPHBKAL@char?5?$CK?$HMint8?5?$CK@ 000000018002aa68     ua.obj
 0002:00003a78       ??_C@_0BC@KJKOCNNG@_p_const_iterator@ 000000018002aa78     ua.obj
 0002:00003a90       ??_C@_0BB@LAJPCFIO@const_iterator?5?$CK@ 000000018002aa90     ua.obj
 0002:00003aa8       ??_C@_0CE@DHGPAIMI@_p_f_p_TWidget_int_int_p_void__@ 000000018002aaa8     ua.obj
 0002:00003ad0       ??_C@_0DN@DFPOHMBA@custom_viewer_keydown_t?5?$CK?$HMbool?5@ 000000018002aad0     ua.obj
 0002:00003b10       ??_C@_0DF@PENMGFJK@_p_f_p_TWidget_int_p_view_mouse@ 000000018002ab10     ua.obj
 0002:00003b50       ??_C@_0FC@NPHKCCPL@void?5?$CI?$CK?$CJ?$CITWidget?5?$CK?0int?0view_mou@ 000000018002ab50     ua.obj
 0002:00003ba8       ??_C@_0CA@IGCEDJID@_p_f_p_TWidget_int_p_void__bool@ 000000018002aba8     ua.obj
 0002:00003bd0       ??_C@_0FC@PJNOFHGN@custom_viewer_click_t?5?$CK?$HMcustom_@ 000000018002abd0     ua.obj
 0002:00003c28       ??_C@_0CO@MIHLPJDD@_p_f_p_TWidget_p_lochist_entry_@ 000000018002ac28     ua.obj
 0002:00003c60       ??_C@_0EM@HBPJNBB@custom_viewer_adjust_place_t?5?$CK?$HM@ 000000018002ac60     ua.obj
 0002:00003cb0       ??_C@_0GM@LBGPKCPI@_p_f_p_TWidget_p_q_const__lochi@ 000000018002acb0     ua.obj
 0002:00003d20       ??_C@_0IF@FKBGALIG@void?5?$CI?$CK?$CJ?$CITWidget?5?$CK?0lochist_entr@ 000000018002ad20     ua.obj
 0002:00003db0       ??_C@_0FA@DFBJAGBE@_p_f_p_TWidget_p_q_const__lochi@ 000000018002adb0     ua.obj
 0002:00003e00       ??_C@_0GI@FMPBFLEM@custom_viewer_can_navigate_t?5?$CK?$HM@ 000000018002ae00     ua.obj
 0002:00003e68       ??_C@_0DH@JJEDBLDE@_p_f_p_TWidget_p_q_const__place@ 000000018002ae68     ua.obj
 0002:00003ea0       ??_C@_0EP@PJDAMEBK@code_viewer_lines_click_t?5?$CK?$HMvoi@ 000000018002aea0     ua.obj
 0002:00003ef0       ??_C@_0O@EEOODJOC@op_t_offo_set@ 000000018002aef0     ua.obj
 0002:00003f00       ??_C@_0DE@PBNPHPNC@_p_f_p_TWidget_p_q_const__place@ 000000018002af00     ua.obj
 0002:00003f40       ??_C@_0EL@JKPIBDKO@code_viewer_lines_icon_t?5?$CK?$HMint?5@ 000000018002af40     ua.obj
 0002:00003f90       ??_C@_0EB@FDCGDBJI@_p_f_p_TWidget_p_q_const__place@ 000000018002af90     ua.obj
 0002:00003fe0       ??_C@_0FN@GGLCMJJK@custom_viewer_get_place_xcoord_@ 000000018002afe0     ua.obj
 0002:00004040       ??_C@_0DO@KLDLOPHE@_p_f_p_TWidget_p_q_const__place@ 000000018002b040     ua.obj
 0002:00004080       ??_C@_0FI@GOMHMLF@code_viewer_lines_linenum_t?5?$CK?$HMb@ 000000018002b080     ua.obj
 0002:000040d8       ??_C@_0BL@BMEJNHDD@_p_f_p_TWidget_p_void__int@ 000000018002b0d8     ua.obj
 0002:000040f8       ??_C@_0DB@GMPMLKDG@custom_viewer_help_t?5?$CK?$HMint?5?$CI?$CK?$CJ?$CI@ 000000018002b0f8     ua.obj
 0002:00004130       ??_C@_0BM@PAKPNBHH@_p_f_p_TWidget_p_void__void@ 000000018002b130     ua.obj
 0002:00004150       ??_C@_0GE@BLLNJKNN@custom_viewer_popup_t?5?$CK?$HMcustom_@ 000000018002b150     ua.obj
 0002:000041b8       ??_C@_0DM@PKHFKJJF@_p_f_p_chooser_multi_t_p_sizeve@ 000000018002b1b8     ua.obj
 0002:00004200       ??_C@_0FA@INGPHNGB@chooser_base_t?3?3cbres_t?5?$CI?$CK?$CJ?$CIcho@ 000000018002b200     ua.obj
 0002:00004250       ??_C@_0CN@LJCPBILN@_p_f_p_chooser_t_ssize_t__choos@ 000000018002b250     ua.obj
 0002:00004280       ??_C@_0DL@IKAMODJA@chooser_t?3?3cbret_t?5?$CI?$CK?$CJ?$CIchooser_@ 000000018002b280     ua.obj
 0002:000042c0       ??_C@_0EC@GIKOMIMG@_p_f_p_lochist_entry_t_r_q_cons@ 000000018002b2c0     ua.obj
 0002:00004310       ??_C@_0FE@OJIOMBOE@bool?5?$CI?$CK?$CJ?$CIlochist_entry_t?5?$CK?0loch@ 000000018002b310     ua.obj
 0002:00004368       ??_C@_0CC@HPECDOJE@_p_f_p_q_const__char_p_void__vo@ 000000018002b368     ua.obj
 0002:00004390       ??_C@_0DA@LKJNDOAC@void?5?$CI?$CK?$CJ?$CIchar?5const?5?$CK?0void?5?$CK?$CJ?$HMs@ 000000018002b390     ua.obj
 0002:000043c0       ??_C@_0GC@HKCHLFJ@_p_f_p_q_const__char_r_q_const_@ 000000018002b3c0     ua.obj
 0002:00004430       ??_C@_0GE@CDAMLIPA@h2ti_type_cb?5?$CK?$HMint?5?$CI?$CK?$CJ?$CIchar?5con@ 000000018002b430     ua.obj
 0002:00004498       ??_C@_0CB@PLKCNJF@_p_f_p_q_const__char_v_______in@ 000000018002b498     ua.obj
 0002:000044c0       ??_C@_0CG@EHKOJEHN@int?5?$CI?$CK?$CJ?$CIchar?5const?5?$CK?0?4?4?4?$CJ?$HMprint@ 000000018002b4c0     ua.obj
 0002:000044e8       ??_C@_0CB@PPFKEDBB@_p_f_p_void_int_va_list__ssize_@ 000000018002b4e8     ua.obj
 0002:00004510       ??_C@_0CM@ODIKDJIA@ssize_t?5?$CI?$CK?$CJ?$CIvoid?5?$CK?0int?0va_list?$CJ@ 000000018002b510     ua.obj
 0002:00004540       ??_C@_0CJ@KNMLBMOG@_p_f_r_q_const__insn_t_p_int_p_@ 000000018002b540     ua.obj
 0002:00004570       ??_C@_0DI@CGFAFNOI@bool?5?$CI?$CK?$CJ?$CIinsn_t?5const?5?$CG?0int?5?$CK?0i@ 000000018002b570     ua.obj
 0002:000045b0       ??_C@_0FA@JJBGCIIH@_p_f_r_q_const__insn_t_r_q_cons@ 000000018002b5b0     ua.obj
 0002:00004600       ??_C@_0FE@IBKJNBMI@bool?5?$CI?$CK?$CJ?$CIinsn_t?5const?5?$CG?0op_t?5co@ 000000018002b600     ua.obj
 0002:00004658       ??_C@_0P@EJMLPBPJ@op_t_flags_set@ 000000018002b658     ua.obj
 0002:00004668       ??_C@_0BI@PGCOIKGG@_p_f_unsigned_int__bool@ 000000018002b668     ua.obj
 0002:00004680       ??_C@_0DN@OGOBIPP@bool?5?$CI?$CK?$CJ?$CIunsigned?5int?$CJ?$HMhas_dela@ 000000018002b680     ua.obj
 0002:000046c0       ??_C@_0DL@FFEHDPON@_p_f_unsigned_int_p_q_const__ch@ 000000018002b6c0     ua.obj
 0002:00004700       ??_C@_0EK@MACPDLHN@int?5?$CI?$CK?$CJ?$CIunsigned?5int?0char?5const@ 000000018002b700     ua.obj
 0002:00004750       ??_C@_0BP@HNIFGGKH@_p_f_unsigned_int_p_void__bool@ 000000018002b750     ua.obj
 0002:00004770       ??_C@_0CI@PMEGIBIK@testf_t?5?$CK?$HMbool?5?$CI?$CK?$CJ?$CIunsigned?5int@ 000000018002b770     ua.obj
 0002:00004798       ??_C@_0DB@CEAPILAH@_p_f_unsigned_int_r_q_const__ti@ 000000018002b798     ua.obj
 0002:000047d0       ??_C@_0EH@MLDNCCKC@local_tinfo_predicate_t?5?$CK?$HMint?5?$CI@ 000000018002b7d0     ua.obj
 0002:00004818       ??_C@_0CN@BPIIPJKN@_p_f_unsigned_int_unsigned_int_@ 000000018002b818     ua.obj
 0002:00004848       ??_C@_0DO@CKIBBIPB@unsigned?5int?5?$CI?$CK?$CJ?$CIunsigned?5int?0u@ 000000018002b848     ua.obj
 0002:00004888       ??_C@_09LIGEMJOA@_p_func_t@ 000000018002b888     ua.obj
 0002:00004898       ??_C@_08IOOOCDNO@func_t?5?$CK@ 000000018002b898     ua.obj
 0002:000048a8       ??_C@_09ENCHMALP@_p_insn_t@ 000000018002b8a8     ua.obj
 0002:000048b8       ??_C@_08MKBBCPKC@insn_t?5?$CK@ 000000018002b8b8     ua.obj
 0002:000048c4       ??_C@_06EJFLAOFF@_p_int@   000000018002b8c4     ua.obj
 0002:000048d0       ??_C@_0IG@FDKJDHEK@adiff_t?5?$CK?$HMint?5?$CK?$HMint32?5?$CK?$HMsval_t?5@ 000000018002b8d0     ua.obj
 0002:00004958       ??_C@_0M@CFMLOKJJ@_p_iterator@ 000000018002b958     ua.obj
 0002:00004968       ??_C@_0L@IIMCJLIP@iterator?5?$CK@ 000000018002b968     ua.obj
 0002:00004978       ??_C@_0O@HDLJBJJF@_p_location_t@ 000000018002b978     ua.obj
 0002:00004988       ??_C@_0N@ONMECIKA@location_t?5?$CK@ 000000018002b988     ua.obj
 0002:00004998       ??_C@_0N@HIKGEFDH@_p_long_long@ 000000018002b998     ua.obj
 0002:000049a8       ??_C@_0BP@FECEFBLL@int64?5?$CK?$HMlonglong?5?$CK?$HMlong?5long?5?$CK@ 000000018002b9a8     ua.obj
 0002:000049c8       ??_C@_0M@FKNFHNNG@_p_member_t@ 000000018002b9c8     ua.obj
 0002:000049d8       ??_C@_0L@JBEILBLM@member_t?5?$CK@ 000000018002b9d8     ua.obj
 0002:000049e8       ??_C@_07FLIFDOIK@_p_op_t@  000000018002b9e8     ua.obj
 0002:000049f0       ??_C@_06BNHHPEFF@op_t?5?$CK@ 000000018002b9f0     ua.obj
 0002:000049f8       ??_C@_0BB@FFHNIHHF@_p_outctx_base_t@ 000000018002b9f8     ua.obj
 0002:00004a10       ??_C@_0BA@BICJNMEH@outctx_base_t?5?$CK@ 000000018002ba10     ua.obj
 0002:00004a20       ??_C@_0M@DLPDAJF@_p_outctx_t@ 000000018002ba20     ua.obj
 0002:00004a30       ??_C@_0L@ECHBMJDN@outctx_t?5?$CK@ 000000018002ba30     ua.obj
 0002:00004a40       ??_C@_0N@OBBBMLGE@_p_printop_t@ 000000018002ba40     ua.obj
 0002:00004a50       ??_C@_0M@OIIDGNGE@printop_t?5?$CK@ 000000018002ba50     ua.obj
 0002:00004a60       ??_C@_0BP@KKGOOMNJ@_p_qvectorT__qstringT_char_t_t@ 000000018002ba60     ua.obj
 0002:00004a80       ??_C@_0CK@FPLCNIKL@qvector?$DM?5_qstring?$DM?5char?5?$DO?5?$DO?5?$CK?$HMq@ 000000018002ba80     ua.obj
 0002:00004ab0       ??_C@_0CJ@KBPLCHCN@_p_qvectorT__qstringT_unsigned_@ 000000018002bab0     ua.obj
 0002:00004ae0       ??_C@_0DF@GOALPBDM@qvector?$DM?5_qstring?$DM?5unsigned?5sho@ 000000018002bae0     ua.obj
 0002:00004b18       ??_C@_0BH@EHIHPDFP@_p_qvectorT_argloc_t_t@ 000000018002bb18     ua.obj
 0002:00004b30       ??_C@_0CC@PMMGEEHP@qvector?$DM?5argloc_t?5?$DO?5?$CK?$HMarglocs_t@ 000000018002bb30     ua.obj
 0002:00004b58       ??_C@_0BD@IFPOLGLB@_p_qvectorT_bool_t@ 000000018002bb58     ua.obj
 0002:00004b70       ??_C@_0BO@JEOEHDBE@boolvec_t?5?$CK?$HMqvector?$DM?5bool?5?$DO?5?$CK@ 000000018002bb70     ua.obj
 0002:00004b90       ??_C@_0BO@BMBALGLA@_p_qvectorT_channel_redir_t_t@ 000000018002bb90     ua.obj
 0002:00004bb0       ??_C@_0DA@DFOFPPPA@qvector?$DM?5channel_redir_t?5?$DO?5?$CK?$HMch@ 000000018002bbb0     ua.obj
 0002:00004be0       ??_C@_0CA@KLOIFAIM@_p_qvectorT_compiled_binpat_t_t@ 000000018002bbe0     ua.obj
 0002:00004c00       ??_C@_0DH@JJMOBCIB@compiled_binpat_vec_t?5?$CK?$HMqvector@ 000000018002bc00     ua.obj
 0002:00004c38       ??_C@_0BI@HPPPANA@_p_qvectorT_funcarg_t_t@ 000000018002bc38     ua.obj
 0002:00004c50       ??_C@_0CG@BKJABKPP@funcargvec_t?5?$CK?$HMqvector?$DM?5funcarg@ 000000018002bc50     ua.obj
 0002:00004c78       ??_C@_0BC@EMAMHDDK@_p_qvectorT_int_t@ 000000018002bc78     ua.obj
 0002:00004c90       ??_C@_0CI@OEOLBAGE@svalvec_t?5?$CK?$HMintvec_t?5?$CK?$HMqvector?$DM@ 000000018002bc90     ua.obj
 0002:00004cb8       ??_C@_0BG@NGNJJEPD@_p_qvectorT_range_t_t@ 000000018002bcb8     ua.obj
 0002:00004cd0       ??_C@_0CH@CMPFLCHN@rangevec_base_t?5?$CK?$HMqvector?$DM?5rang@ 000000018002bcd0     ua.obj
 0002:00004cf8       ??_C@_0CB@DLEFICAI@_p_qvectorT_rangeset_t_const_p_@ 000000018002bcf8     ua.obj
 0002:00004d20       ??_C@_0DF@CPGECBJE@rangeset_crefvec_t?5?$CK?$HMqvector?$DM?5r@ 000000018002bd20     ua.obj
 0002:00004d58       ??_C@_0BJ@CBEEABAG@_p_qvectorT_rangeset_t_t@ 000000018002bd58     ua.obj
 0002:00004d78       ??_C@_0CN@NEPIOIFG@qvector?$DM?5rangeset_t?5?$DO?5?$CK?$HMarray_o@ 000000018002bd78     ua.obj
 0002:00004da8       ??_C@_0BN@HCIAELAH@_p_qvectorT_refinfo_desc_t_t@ 000000018002bda8     ua.obj
 0002:00004dc8       ??_C@_0DB@OEPGJFJL@refinfo_desc_vec_t?5?$CK?$HMqvector?$DM?5r@ 000000018002bdc8     ua.obj
 0002:00004e00       ??_C@_0BK@JBDFAIAF@_p_qvectorT_simd_info_t_t@ 000000018002be00     ua.obj
 0002:00004e20       ??_C@_0CL@IAEHADMA@simd_info_vec_t?5?$CK?$HMqvector?$DM?5simd@ 000000018002be20     ua.obj
 0002:00004e50       ??_C@_0BL@JOHIOMBL@_p_qvectorT_simpleline_t_t@ 000000018002be50     ua.obj
 0002:00004e70       ??_C@_0CF@LMLHENLN@strvec_t?5?$CK?$HMqvector?$DM?5simpleline_@ 000000018002be70     ua.obj
 0002:00004e98       ??_C@_0BF@JMFCGENF@_p_qvectorT_size_t_t@ 000000018002be98     ua.obj
 0002:00004eb0       ??_C@_0CA@PKGFIBKP@sizevec_t?5?$CK?$HMqvector?$DM?5size_t?5?$DO?5?$CK@ 000000018002beb0     ua.obj
 0002:00004ed0       ??_C@_0BG@GHPDGOHO@_p_qvectorT_tinfo_t_t@ 000000018002bed0     ua.obj
 0002:00004ee8       ??_C@_0CC@CEHAEEKI@tinfovec_t?5?$CK?$HMqvector?$DM?5tinfo_t?5?$DO@ 000000018002bee8     ua.obj
 0002:00004f10       ??_C@_0BK@KGMCEJE@_p_qvectorT_type_attr_t_t@ 000000018002bf10     ua.obj
 0002:00004f30       ??_C@_0CI@PENEDOEG@type_attrs_t?5?$CK?$HMqvector?$DM?5type_at@ 000000018002bf30     ua.obj
 0002:00004f58       ??_C@_0BL@MFAEBBAF@_p_qvectorT_udt_member_t_t@ 000000018002bf58     ua.obj
 0002:00004f78       ??_C@_0CL@HFANAPIM@udtmembervec_t?5?$CK?$HMqvector?$DM?5udt_m@ 000000018002bf78     ua.obj
 0002:00004fa8       ??_C@_0BM@DFOCNGNJ@_p_qvectorT_unsigned_char_t@ 000000018002bfa8     ua.obj
 0002:00004fc8       ??_C@_0CH@MCODNJGI@qvector?$DM?5unsigned?5char?5?$DO?5?$CK?$HMcomp@ 000000018002bfc8     ua.obj
 0002:00004ff0       ??_C@_0M@BEMIELHM@_p_relobj_t@ 000000018002bff0     ua.obj
 0002:00005000       ??_C@_0N@OAHCDFLH@_p_bytevec_t@ 000000018002c000     ua.obj
 0002:00005010       ??_C@_0BA@KOPDLMDG@_p_reloc_info_t@ 000000018002c010     ua.obj
 0002:00005020       ??_C@_0BL@POPMPLM@_p_qvectorT_unsigned_int_t@ 000000018002c020     ua.obj
 0002:00005040       ??_C@_0DL@HDEADPMO@eavec_t?5?$CK?$HMordvec_t?5?$CK?$HMuvalvec_t?5@ 000000018002c040     ua.obj
 0002:00005080       ??_C@_08JGEHMJEC@_p_short@ 000000018002c080     ua.obj
 0002:00005090       ??_C@_0BA@BBDCPKKI@int16?5?$CK?$HMshort?5?$CK@ 000000018002c090     ua.obj
 0002:000050a0       ??_C@_0P@ICIOKIPF@op_t_dtype_set@ 000000018002c0a0     ua.obj
 0002:000050b0       ??_C@_0P@IHEJCACJ@_p_signed_char@ 000000018002c0b0     ua.obj
 0002:000050c0       ??_C@_0BG@CGJIOBCI@signed?5char?5?$CK?$HMsint8?5?$CK@ 000000018002c0c0     ua.obj
 0002:000050d8       ??_C@_0BF@FCEOICKN@_p_std__out_of_range@ 000000018002c0d8     ua.obj
 0002:000050f0       ??_C@_0BE@JMJBMDHG@std?3?3out_of_range?5?$CK@ 000000018002c0f0     ua.obj
 0002:00005108       ??_C@_0BB@JEMKPEPB@_p_unsigned_char@ 000000018002c108     ua.obj
 0002:00005120       ??_C@_0ID@CCPGONCD@uchar?5?$CK?$HMunsigned?5char?5?$CK?$HMcm_t?5?$CK?$HM@ 000000018002c120     ua.obj
 0002:000051a8       ??_C@_0BA@EMEBBPFL@_p_unsigned_int@ 000000018002c1a8     ua.obj
 0002:000051c0       ??_C@_0JE@GCFOGLMK@bgcolor_t?5?$CK?$HMenum_t?5?$CK?$HMtid_t?5?$CK?$HMbm@ 000000018002c1c0     ua.obj
 0002:00005258       ??_C@_0BG@CGEDOPGF@_p_unsigned_long_long@ 000000018002c258     ua.obj
 0002:00005270       ??_C@_0CK@FCLCDGJM@uint64?5?$CK?$HMulonglong?5?$CK?$HMunsigned?5l@ 000000018002c270     ua.obj
 0002:000052a0       ??_C@_0BC@GCHEMBCE@_p_unsigned_short@ 000000018002c2a0     ua.obj
 0002:000052b8       ??_C@_0CP@HNCAPCKA@uint16?5?$CK?$HMunsigned?5short?5?$CK?$HMushor@ 000000018002c2b8     ua.obj
 0002:000052e8       ??_C@_0BN@DHNHGEMF@_p_wrapped_array_tT_op_t_8_t@ 000000018002c2e8     ua.obj
 0002:00005308       ??_C@_0BM@IJFAFGKE@wrapped_array_t?$DM?5op_t?08?5?$DO?5?$CK@ 000000018002c308     ua.obj
 0002:00005328       ??_C@_0M@MFNFIEJD@op_t_is_reg@ 000000018002c328     ua.obj
 0002:00005338       ??_C@_0M@LGDBONDP@op_t_is_imm@ 000000018002c338     ua.obj
 0002:00005348       ??_C@_0BD@PBDMFKOM@op_t_specflag1_set@ 000000018002c348     ua.obj
 0002:00005360       ??_C@_0BD@HHKICIEC@op_t_specflag2_set@ 000000018002c360     ua.obj
 0002:00005378       ??_C@_0BD@LMPEPLOH@op_t_specflag3_set@ 000000018002c378     ua.obj
 0002:00005390       ??_C@_0BD@KBPBMLFP@op_t_specflag4_set@ 000000018002c390     ua.obj
 0002:000053a8       ??_C@_0BI@EDNFENBO@op_t___set_reg_phrase__@ 000000018002c3a8     ua.obj
 0002:000053c0       ??_C@_0BD@LJOFLGKM@op_t___set_value__@ 000000018002c3c0     ua.obj
 0002:000053d8       ??_C@_0BC@OFJMJNO@op_t___set_addr__@ 000000018002c3d8     ua.obj
 0002:000053f0       ??_C@_0BF@EFGNHKJL@op_t___set_specval__@ 000000018002c3f0     ua.obj
 0002:00005408       ??_C@_0M@KHFFLHEI@op_t_assign@ 000000018002c408     ua.obj
 0002:00005418       ??_C@_08JNKFNOEA@new_op_t@ 000000018002c418     ua.obj
 0002:00005428       ??_C@_0O@BODEFKFC@insn_add_cref@ 000000018002c428     ua.obj
 0002:00005438       ??_C@_0O@KMBEIGEC@insn_add_dref@ 000000018002c438     ua.obj
 0002:00005448       ??_C@_0BD@BNODHBBK@insn_add_off_drefs@ 000000018002c448     ua.obj
 0002:00006a04       ??_C@_02DKCKIIND@?$CFs@    000000018002da04     ua.obj
 0002:00006a08       ??_C@_0BO@CMHFAAKD@?$CFS?6Additional?5information?3?6?$CFs@ 000000018002da08     ua.obj
 0002:00006a26       ??_C@_00CNPNBAHC@@         000000018002da26     ua.obj
 0002:00006a28       ??_C@_09HJOCAFJB@at?5least?5@ 000000018002da28     ua.obj
 0002:00006a38       ??_C@_0CF@KFFOGCID@?$CFs?5expected?5?$CFs?$CFd?5arguments?0?5got@ 000000018002da38     ua.obj
 0002:00006a60       ??_C@_0CL@NPJGKHAI@UnpackTuple?$CI?$CJ?5argument?5list?5is?5@ 000000018002da60     ua.obj
 0002:00006a90       ??_C@_0CD@DMIOPJCG@?$CFs?5expected?5?$CFs?$CFd?5arguments?0?5got@ 000000018002da90     ua.obj
 0002:00006ab8       ??_C@_08KFLHMPAE@at?5most?5@ 000000018002dab8     ua.obj
 0002:00006ac8       ??_C@_07MEBHOIG@__new__@   000000018002dac8     ua.obj
 0002:00006ad0       ??_C@_0BB@LPCDDCDP@__swig_destroy__@ 000000018002dad0     ua.obj
 0002:00006ae8       ??_C@_07CIFAGBMG@unknown@  000000018002dae8     ua.obj
 0002:00006af0       ??_C@_0CB@HIOLGNHE@?$DMSwig?5Object?5of?5type?5?8?$CFs?8?5at?5?$CFp@ 000000018002daf0     ua.obj
 0002:00006b18       ??_C@_08BHKDPDAA@__name__@ 000000018002db18     ua.obj
 0002:00006b28       ??_C@_0N@OEDBPMFH@SwigPyObject@ 000000018002db28     ua.obj
 0002:00006b40       ??_C@_0EH@KGGHIIII@swig?1python?5detected?5a?5memory?5l@ 000000018002db40     ua.obj
 0002:00006b88       ??_C@_0CF@NBDOMJMA@Attempt?5to?5append?5a?5non?5SwigPyO@ 000000018002db88     ua.obj
 0002:00006bb0       ??_C@_0BG@BEMBDPAG@?$DMSwig?5Packed?5at?5?$CFs?$CFs?$DO@ 000000018002dbb0     ua.obj
 0002:00006bc8       ??_C@_0BB@KEMDDLH@?$DMSwig?5Packed?5?$CFs?$DO@ 000000018002dbc8     ua.obj
 0002:00006bdc       ??_C@_04HDOCAJNK@?$CFs?$CFs@ 000000018002dbdc     ua.obj
 0002:00006be8       ??_C@_0N@FALDBJHP@SwigPyPacked@ 000000018002dbe8     ua.obj
 0002:00006bf8       ??_C@_04IIAJELJL@this@     000000018002dbf8     ua.obj
 0002:00006c00       ??_C@_0L@GCGAIEDO@swig_ptr?3?5@ 000000018002dc00     ua.obj
 0002:00006c10       ??_C@_08IBFKALI@__dict__@  000000018002dc10     ua.obj
 0002:00006c20       ??_C@_08DOBMGDEN@swiginit@ 000000018002dc20     ua.obj
 0002:00006c30       ??_C@_0CO@FOLKHJOC@swig_runtime_data4?4type_pointer@ 000000018002dc30     ua.obj
 0002:00006c60       ??_C@_0BD@BFIMCAOH@swig_runtime_data4@ 000000018002dc60     ua.obj
 0002:00006c78       ??_C@_0BL@LFDLKGPB@type_pointer_capsuleidaapi@ 000000018002dc78     ua.obj
 0002:00006ca0       ??_7exception@std@@6B@     000000018002dca0     ua.obj
 0002:00006cb0       ??_C@_0BC@EOODALEL@Unknown?5exception@ 000000018002dcb0     ua.obj
 0002:00006cd0       ??_7logic_error@std@@6B@   000000018002dcd0     ua.obj
 0002:00006ce8       ??_7out_of_range@std@@6B@  000000018002dce8     ua.obj
 0002:00006cf8       ??_C@_0BK@NPFFDHAP@Out?5of?5memory?5?$CIbad_alloc?$CJ@ 000000018002dcf8     ua.obj
 0002:00006d20       ??_C@_0BCP@OKJACFO@Internal?5error?5?$CFd?5occurred?5when@ 000000018002dd20     ua.obj
 0002:00006e50       ??_C@_0DB@OCJMLGAO@Function?5can?5be?5called?5from?5the@ 000000018002de50     ua.obj
 0002:00006e88       ??_C@_0BF@NPFMAGNK@out?5of?5bounds?5access@ 000000018002de88     ua.obj
 0002:00006ea0       ??_C@_0BA@GMJLDMKP@surrogateescape@ 000000018002dea0     ua.obj
 0002:00006eb0       ??_C@_04IHDJNMFP@?$CIKi?$CJ@ 000000018002deb0     ua.obj
 0002:00006eb8       ??_C@_07ICHADENC@_ida_ua@  000000018002deb8     ua.obj
 0002:00006ec0       ??_C@_06HHLIIMN@insn_t@    000000018002dec0     ua.obj
 0002:00006ec8       ??_C@_02MJJLPNK@OO@        000000018002dec8     ua.obj
 0002:00006ed0       ??_C@_0M@FFBEIOGB@build_macro@ 000000018002ded0     ua.obj
 0002:00006ee0       ??_C@_0FG@BCNNFFMG@in?5method?5?8operands_array_data_@ 000000018002dee0     ua.obj
 0002:00006f40       ??_C@_0EB@BJHNDLJO@in?5method?5?8new_operands_array?8?0@ 000000018002df40     ua.obj
 0002:00006f90       ??_C@_0FI@EMCMIMGN@invalid?5null?5reference?5in?5metho@ 000000018002df90     ua.obj
 0002:00006ff0       ??_C@_0FL@FNNCFIMH@in?5method?5?8operands_array___len@ 000000018002dff0     ua.obj
 0002:00007050       ??_C@_0FP@NJDNKBGJ@in?5method?5?8operands_array___get@ 000000018002e050     ua.obj
 0002:000070b0       ??_C@_0EE@BIKPINPD@in?5method?5?8operands_array___get@ 000000018002e0b0     ua.obj
 0002:00007100       ??_C@_0FJ@IELPNIIK@in?5method?5?8operands_array___set@ 000000018002e100     ua.obj
 0002:00007160       ??_C@_0EE@DMMJMNNC@in?5method?5?8operands_array___set@ 000000018002e160     ua.obj
 0002:000071b0       ??_C@_0EK@HEDCALIM@in?5method?5?8operands_array___set@ 000000018002e1b0     ua.obj
 0002:00007200       ??_C@_0GB@NOJLFACK@invalid?5null?5reference?5in?5metho@ 000000018002e200     ua.obj
 0002:00007270       ??_C@_0FE@IBPMEDNO@in?5method?5?8delete_operands_arra@ 000000018002e270     ua.obj
 0002:000072c8       ??_C@_0N@JBELKAOG@swigregister@ 000000018002e2c8     ua.obj
 0002:000072d8       ??_C@_0BO@IKOGEBAB@Variable?5o_void?5is?5read?9only?4@ 000000018002e2d8     ua.obj
 0002:000072f8       ??_C@_0BN@DHFMDBGN@Variable?5o_reg?5is?5read?9only?4@ 000000018002e2f8     ua.obj
 0002:00007318       ??_C@_0BN@BLDDHDDB@Variable?5o_mem?5is?5read?9only?4@ 000000018002e318     ua.obj
 0002:00007338       ??_C@_0CA@BEJDPKED@Variable?5o_phrase?5is?5read?9only?4@ 000000018002e338     ua.obj
 0002:00007358       ??_C@_0BP@OICOIICJ@Variable?5o_displ?5is?5read?9only?4@ 000000018002e358     ua.obj
 0002:00007378       ??_C@_0BN@PGILOLKJ@Variable?5o_imm?5is?5read?9only?4@ 000000018002e378     ua.obj
 0002:00007398       ??_C@_0BN@PNCBHODE@Variable?5o_far?5is?5read?9only?4@ 000000018002e398     ua.obj
 0002:000073b8       ??_C@_0BO@NBCGLKOF@Variable?5o_near?5is?5read?9only?4@ 000000018002e3b8     ua.obj
 0002:000073d8       ??_C@_0CC@HHMIANON@Variable?5o_idpspec0?5is?5read?9onl@ 000000018002e3d8     ua.obj
 0002:00007400       ??_C@_0CC@NJKAJMHM@Variable?5o_idpspec1?5is?5read?9onl@ 000000018002e400     ua.obj
 0002:00007428       ??_C@_0CC@PAGICIIO@Variable?5o_idpspec2?5is?5read?9onl@ 000000018002e428     ua.obj
 0002:00007450       ??_C@_0CC@FOAALJBP@Variable?5o_idpspec3?5is?5read?9onl@ 000000018002e450     ua.obj
 0002:00007478       ??_C@_0CC@KDPJEBGK@Variable?5o_idpspec4?5is?5read?9onl@ 000000018002e478     ua.obj
 0002:000074a0       ??_C@_0CC@NJBNAPL@Variable?5o_idpspec5?5is?5read?9onl@ 000000018002e4a0     ua.obj
 0002:000074c8       ??_C@_0DE@OMBIJLFL@in?5method?5?8op_t_n_set?8?0?5argumen@ 000000018002e4c8     ua.obj
 0002:00007500       ??_C@_0DD@NMFJOBNF@in?5method?5?8op_t_n_set?8?0?5argumen@ 000000018002e500     ua.obj
 0002:00007538       ??_C@_0DE@FLKHMGCA@in?5method?5?8op_t_n_get?8?0?5argumen@ 000000018002e538     ua.obj
 0002:00007570       ??_C@_0DH@MEAHEDEF@in?5method?5?8op_t_type_set?8?0?5argu@ 000000018002e570     ua.obj
 0002:000075a8       ??_C@_0DJ@CNJFMPLL@in?5method?5?8op_t_type_set?8?0?5argu@ 000000018002e5a8     ua.obj
 0002:000075e8       ??_C@_0DH@HDLIBODO@in?5method?5?8op_t_type_get?8?0?5argu@ 000000018002e5e8     ua.obj
 0002:00007620       ??_C@_0DH@KDDEFCOA@in?5method?5?8op_t_offb_set?8?0?5argu@ 000000018002e620     ua.obj
 0002:00007658       ??_C@_0DF@KOIFGPHC@in?5method?5?8op_t_offb_set?8?0?5argu@ 000000018002e658     ua.obj
 0002:00007690       ??_C@_0DH@BEILAPJL@in?5method?5?8op_t_offb_get?8?0?5argu@ 000000018002e690     ua.obj
 0002:000076c8       ??_C@_0DH@HOLEGPMM@in?5method?5?8op_t_offo_set?8?0?5argu@ 000000018002e6c8     ua.obj
 0002:00007700       ??_C@_0DF@OHGNPFGN@in?5method?5?8op_t_offo_set?8?0?5argu@ 000000018002e700     ua.obj
 0002:00007738       ??_C@_0DH@MJALDCLH@in?5method?5?8op_t_offo_get?8?0?5argu@ 000000018002e738     ua.obj
 0002:00007770       ??_C@_0DI@CJCAHPPA@in?5method?5?8op_t_flags_set?8?0?5arg@ 000000018002e770     ua.obj
 0002:000077a8       ??_C@_0DH@FOIGPEGN@in?5method?5?8op_t_flags_set?8?0?5arg@ 000000018002e7a8     ua.obj
 0002:000077e0       ??_C@_0DI@JOJPCCIL@in?5method?5?8op_t_flags_get?8?0?5arg@ 000000018002e7e0     ua.obj
 0002:00007818       ??_C@_0DI@FAFEMNJ@in?5method?5?8op_t_set_shown?8?0?5arg@ 000000018002e818     ua.obj
 0002:00007850       ??_C@_0DI@DNGABDML@in?5method?5?8op_t_clr_shown?8?0?5arg@ 000000018002e850     ua.obj
 0002:00007888       ??_C@_0DK@BCMGPIBE@in?5method?5?8op_t_shown?8?0?5argumen@ 000000018002e888     ua.obj
 0002:000078c8       ??_C@_0DI@PKOJAMJL@in?5method?5?8op_t_dtype_set?8?0?5arg@ 000000018002e8c8     ua.obj
 0002:00007900       ??_C@_0DM@PCPBBEFD@in?5method?5?8op_t_dtype_set?8?0?5arg@ 000000018002e900     ua.obj
 0002:00007940       ??_C@_0DI@ENFGFBOA@in?5method?5?8op_t_dtype_get?8?0?5arg@ 000000018002e940     ua.obj
 0002:00007978       ??_C@_0DL@PFJLHMN@in?5method?5?8op_t_is_reg?8?0?5argume@ 000000018002e978     ua.obj
 0002:000079b8       ??_C@_0DC@HNFOHJK@in?5method?5?8op_t_is_reg?8?0?5argume@ 000000018002e9b8     ua.obj
 0002:000079f0       ??_C@_0DL@MFKLNFNM@in?5method?5?8op_t_is_imm?8?0?5argume@ 000000018002e9f0     ua.obj
 0002:00007a30       ??_C@_0DF@OCLMCGB@in?5method?5?8op_t_is_imm?8?0?5argume@ 000000018002ea30     ua.obj
 0002:00007a68       ??_C@_0DM@FIGMHCLI@in?5method?5?8op_t_specflag1_set?8?0@ 000000018002ea68     ua.obj
 0002:00007aa8       ??_C@_0DK@BBMEMDCM@in?5method?5?8op_t_specflag1_set?8?0@ 000000018002eaa8     ua.obj
 0002:00007ae8       ??_C@_0DM@OPNDCPMD@in?5method?5?8op_t_specflag1_get?8?0@ 000000018002eae8     ua.obj
 0002:00007b28       ??_C@_0DM@DMIMAJEG@in?5method?5?8op_t_specflag2_set?8?0@ 000000018002eb28     ua.obj
 0002:00007b68       ??_C@_0DK@HMECDAHG@in?5method?5?8op_t_specflag2_set?8?0@ 000000018002eb68     ua.obj
 0002:00007ba8       ??_C@_0DM@ILDDFEDN@in?5method?5?8op_t_specflag2_get?8?0@ 000000018002eba8     ua.obj
 0002:00007be8       ??_C@_0DM@KJPMNNND@in?5method?5?8op_t_specflag3_set?8?0@ 000000018002ebe8     ua.obj
 0002:00007c28       ??_C@_0DK@FIMAGBEA@in?5method?5?8op_t_specflag3_set?8?0@ 000000018002ec28     ua.obj
 0002:00007c68       ??_C@_0DM@BOEDIAKI@in?5method?5?8op_t_specflag3_get?8?0@ 000000018002ec68     ua.obj
 0002:00007ca8       ??_C@_0DM@PFEMPOLK@in?5method?5?8op_t_specflag4_set?8?0@ 000000018002eca8     ua.obj
 0002:00007ce8       ??_C@_0DK@KHEPNGMC@in?5method?5?8op_t_specflag4_set?8?0@ 000000018002ece8     ua.obj
 0002:00007d28       ??_C@_0DM@ECPDKDMB@in?5method?5?8op_t_specflag4_get?8?0@ 000000018002ed28     ua.obj
 0002:00007d70       ??_C@_0EB@JHOKKCLB@in?5method?5?8op_t___get_reg_phras@ 000000018002ed70     ua.obj
 0002:00007dc0       ??_C@_0EB@MIFKCAHB@in?5method?5?8op_t___set_reg_phras@ 000000018002edc0     ua.obj
 0002:00007e10       ??_C@_0EB@EGIOOMMA@in?5method?5?8op_t___set_reg_phras@ 000000018002ee10     ua.obj
 0002:00007e58       ??_C@_0DM@MOIKHMNP@in?5method?5?8op_t___get_value__?8?0@ 000000018002ee58     ua.obj
 0002:00007e98       ??_C@_0DM@DEMJAMMK@in?5method?5?8op_t___set_value__?8?0@ 000000018002ee98     ua.obj
 0002:00007ed8       ??_C@_0DK@IJGLJBAC@in?5method?5?8op_t___set_value__?8?0@ 000000018002eed8     ua.obj
 0002:00007f18       ??_C@_0DL@GNECCCFC@in?5method?5?8op_t___get_addr__?8?0?5@ 000000018002ef18     ua.obj
 0002:00007f58       ??_C@_0DL@CBAPFEEM@in?5method?5?8op_t___set_addr__?8?0?5@ 000000018002ef58     ua.obj
 0002:00007f98       ??_C@_0DJ@JAMFKOFD@in?5method?5?8op_t___set_addr__?8?0?5@ 000000018002ef98     ua.obj
 0002:00007fd8       ??_C@_0DO@OBPDAAK@in?5method?5?8op_t___get_specval__@ 000000018002efd8     ua.obj
 0002:00008018       ??_C@_0DO@GJKPFNGB@in?5method?5?8op_t___set_specval__@ 000000018002f018     ua.obj
 0002:00008058       ??_C@_0DM@BIEKFJAK@in?5method?5?8op_t___set_specval__@ 000000018002f058     ua.obj
 0002:00008098       ??_C@_0DF@NBNKCKDA@in?5method?5?8op_t_assign?8?0?5argume@ 000000018002f098     ua.obj
 0002:000080d0       ??_C@_0DL@OLFHMFHE@in?5method?5?8op_t_assign?8?0?5argume@ 000000018002f0d0     ua.obj
 0002:00008110       ??_C@_0FC@GOAKCIJG@invalid?5null?5reference?5in?5metho@ 000000018002f110     ua.obj
 0002:00008168       ??_C@_0DF@EIAFKHME@in?5method?5?8delete_op_t?8?0?5argume@ 000000018002f168     ua.obj
 0002:000081a0       ??_C@_0DP@JOHODDBM@in?5method?5?8insn_add_cref?8?0?5argu@ 000000018002f1a0     ua.obj
 0002:000081e0       ??_C@_0FG@NBPFKNOK@invalid?5null?5reference?5in?5metho@ 000000018002f1e0     ua.obj
 0002:00008238       ??_C@_0DF@FBOEDAFP@in?5method?5?8insn_add_cref?8?0?5argu@ 000000018002f238     ua.obj
 0002:00008270       ??_C@_0DE@JEPBLAK@in?5method?5?8insn_add_cref?8?0?5argu@ 000000018002f270     ua.obj
 0002:000082a8       ??_C@_0DH@IOAILOKH@in?5method?5?8insn_add_cref?8?0?5argu@ 000000018002f2a8     ua.obj
 0002:000082e0       ??_C@_0DP@JAHEPFLM@in?5method?5?8insn_add_dref?8?0?5argu@ 000000018002f2e0     ua.obj
 0002:00008320       ??_C@_0FG@NPPPGLEK@invalid?5null?5reference?5in?5metho@ 000000018002f320     ua.obj
 0002:00008378       ??_C@_0DF@NBDJMCIG@in?5method?5?8insn_add_dref?8?0?5argu@ 000000018002f378     ua.obj
 0002:000083b0       ??_C@_0DE@LBNKAJJP@in?5method?5?8insn_add_dref?8?0?5argu@ 000000018002f3b0     ua.obj
 0002:000083e8       ??_C@_0DH@IHIENKAF@in?5method?5?8insn_add_dref?8?0?5argu@ 000000018002f3e8     ua.obj
 0002:00008420       ??_C@_0EE@MJHBJNL@in?5method?5?8insn_add_off_drefs?8?0@ 000000018002f420     ua.obj
 0002:00008470       ??_C@_0FL@MPNINBK@invalid?5null?5reference?5in?5metho@ 000000018002f470     ua.obj
 0002:000084d0       ??_C@_0EC@EPLKGHON@in?5method?5?8insn_add_off_drefs?8?0@ 000000018002f4d0     ua.obj
 0002:00008520       ??_C@_0FJ@GLFLJFPM@invalid?5null?5reference?5in?5metho@ 000000018002f520     ua.obj
 0002:00008580       ??_C@_0DM@GGFFJPLH@in?5method?5?8insn_add_off_drefs?8?0@ 000000018002f580     ua.obj
 0002:000085c0       ??_C@_0DJ@EJKALJGP@in?5method?5?8insn_add_off_drefs?8?0@ 000000018002f5c0     ua.obj
 0002:00008600       ??_C@_0EE@KKAPJHON@in?5method?5?8insn_create_stkvar?8?0@ 000000018002f600     ua.obj
 0002:00008650       ??_C@_0FL@KKGFADCM@invalid?5null?5reference?5in?5metho@ 000000018002f650     ua.obj
 0002:000086b0       ??_C@_0EC@CCEIGEBO@in?5method?5?8insn_create_stkvar?8?0@ 000000018002f6b0     ua.obj
 0002:00008700       ??_C@_0FJ@GKJJGAP@invalid?5null?5reference?5in?5metho@ 000000018002f700     ua.obj
 0002:00008760       ??_C@_0DN@CDGMHPBE@in?5method?5?8insn_create_stkvar?8?0@ 000000018002f760     ua.obj
 0002:000087a0       ??_C@_0DJ@KBJLBHN@in?5method?5?8insn_create_stkvar?8?0@ 000000018002f7a0     ua.obj
 0002:000087e0       ??_C@_0DJ@FHCMNEIK@in?5method?5?8insn_t_cs_set?8?0?5argu@ 000000018002f7e0     ua.obj
 0002:00008820       ??_C@_0DF@OLDCONNJ@in?5method?5?8insn_t_cs_set?8?0?5argu@ 000000018002f820     ua.obj
 0002:00008858       ??_C@_0DJ@IODNOOEB@in?5method?5?8insn_t_cs_get?8?0?5argu@ 000000018002f858     ua.obj
 0002:00008898       ??_C@_0DJ@JOANJEDE@in?5method?5?8insn_t_ip_set?8?0?5argu@ 000000018002f898     ua.obj
 0002:000088d8       ??_C@_0DF@ILMJGFH@in?5method?5?8insn_t_ip_set?8?0?5argu@ 000000018002f8d8     ua.obj
 0002:00008910       ??_C@_0DJ@EHBMKOPP@in?5method?5?8insn_t_ip_get?8?0?5argu@ 000000018002f910     ua.obj
 0002:00008950       ??_C@_0DJ@FOLJOFNF@in?5method?5?8insn_t_ea_set?8?0?5argu@ 000000018002f950     ua.obj
 0002:00008990       ??_C@_0DF@ELFHCMGF@in?5method?5?8insn_t_ea_set?8?0?5argu@ 000000018002f990     ua.obj
 0002:000089c8       ??_C@_0DJ@IHKINPBO@in?5method?5?8insn_t_ea_get?8?0?5argu@ 000000018002f9c8     ua.obj
 0002:00008a08       ??_C@_0DM@IMHDLAH@in?5method?5?8insn_t_itype_set?8?0?5a@ 000000018002fa08     ua.obj
 0002:00008a48       ??_C@_0DK@OIIGJGOD@in?5method?5?8insn_t_itype_set?8?0?5a@ 000000018002fa48     ua.obj
 0002:00008a88       ??_C@_0DM@NBNGABMM@in?5method?5?8insn_t_itype_get?8?0?5a@ 000000018002fa88     ua.obj
 0002:00008ad0       ??_C@_0EG@MNGBAFPF@in?5method?5?8insn_t_is_canon_insn@ 000000018002fad0     ua.obj
 0002:00008b20       ??_C@_0EK@IHGJFINA@in?5method?5?8insn_t_get_canon_fea@ 000000018002fb20     ua.obj
 0002:00008b70       ??_C@_0EH@HDKCNENA@in?5method?5?8insn_t_get_canon_mne@ 000000018002fb70     ua.obj
 0002:00008bb8       ??_C@_0DL@NNADIMGO@in?5method?5?8insn_t_size_set?8?0?5ar@ 000000018002fbb8     ua.obj
 0002:00008bf8       ??_C@_0DJ@MPMPNJIF@in?5method?5?8insn_t_size_set?8?0?5ar@ 000000018002fbf8     ua.obj
 0002:00008c38       ??_C@_0DL@EBCLGKF@in?5method?5?8insn_t_size_get?8?0?5ar@ 000000018002fc38     ua.obj
 0002:00008c78       ??_C@_0DO@PPDHJAHF@in?5method?5?8insn_t_segpref_set?8?0@ 000000018002fc78     ua.obj
 0002:00008cb8       ??_C@_0DK@JDOECMAB@in?5method?5?8insn_t_segpref_set?8?0@ 000000018002fcb8     ua.obj
 0002:00008cf8       ??_C@_0DO@CGCGKKLO@in?5method?5?8insn_t_segpref_get?8?0@ 000000018002fcf8     ua.obj
 0002:00008d38       ??_C@_0DP@OPOONMIH@in?5method?5?8insn_t_insnpref_set?8@ 000000018002fd38     ua.obj
 0002:00008d78       ??_C@_0DL@NNBDODN@in?5method?5?8insn_t_insnpref_set?8@ 000000018002fd78     ua.obj
 0002:00008db8       ??_C@_0DP@DGPPOGEM@in?5method?5?8insn_t_insnpref_get?8@ 000000018002fdb8     ua.obj
 0002:00008df8       ??_C@_0DM@GBFNDAG@in?5method?5?8insn_t_flags_set?8?0?5a@ 000000018002fdf8     ua.obj
 0002:00008e38       ??_C@_0DJ@FPLPFFDH@in?5method?5?8insn_t_flags_set?8?0?5a@ 000000018002fe38     ua.obj
 0002:00008e78       ??_C@_0DM@NPAEOJMN@in?5method?5?8insn_t_flags_get?8?0?5a@ 000000018002fe78     ua.obj
 0002:00008eb8       ??_C@_0DK@EEHKALGD@in?5method?5?8insn_t_ops_set?8?0?5arg@ 000000018002feb8     ua.obj
 0002:00008ef8       ??_C@_0DK@EGPJNCNJ@in?5method?5?8insn_t_ops_set?8?0?5arg@ 000000018002fef8     ua.obj
 0002:00008f38       ??_C@_0DM@OHHOEAPJ@invalid?5null?5reference?5in?5varia@ 000000018002ff38     ua.obj
 0002:00008f78       ??_C@_0DK@JNGLDBKI@in?5method?5?8insn_t_ops_get?8?0?5arg@ 000000018002ff78     ua.obj
 0002:00008fc0       ??_C@_0EB@PMDJLGIK@in?5method?5?8insn_t_is_macro?8?0?5ar@ 000000018002ffc0     ua.obj
 0002:00009010       ??_C@_0EB@DDNCJODK@in?5method?5?8insn_t_is_64bit?8?0?5ar@ 0000000180030010     ua.obj
 0002:00009060       ??_C@_0EA@BFADJGJC@in?5method?5?8insn_t_get_next_byte@ 0000000180030060     ua.obj
 0002:000090a0       ??_C@_0EA@FJEIDFGK@in?5method?5?8insn_t_get_next_word@ 00000001800300a0     ua.obj
 0002:000090e0       ??_C@_0EB@MDCAEKNN@in?5method?5?8insn_t_get_next_dwor@ 00000001800300e0     ua.obj
 0002:00009130       ??_C@_0EB@KAKKLJBJ@in?5method?5?8insn_t_get_next_qwor@ 0000000180030130     ua.obj
 0002:00009180       ??_C@_0EH@LAOOEOOO@in?5method?5?8insn_t_create_op_dat@ 0000000180030180     ua.obj
 0002:000091c8       ??_C@_0DN@LDNAMBO@in?5method?5?8insn_t_create_op_dat@ 00000001800301c8     ua.obj
 0002:00009208       ??_C@_0DM@NFKMEBPE@in?5method?5?8insn_t_create_op_dat@ 0000000180030208     ua.obj
 0002:00009250       ??_C@_0ED@NEIHHLCK@in?5method?5?8insn_t_create_op_dat@ 0000000180030250     ua.obj
 0002:000092a0       ??_C@_0EF@ONCLGEBL@in?5method?5?8insn_t_create_op_dat@ 00000001800302a0     ua.obj
 0002:000092f0       ??_C@_0FM@BEIPMKJ@invalid?5null?5reference?5in?5metho@ 00000001800302f0     ua.obj
 0002:00009350       ??_C@_0NP@PBFBIIMA@Wrong?5number?5or?5type?5of?5argumen@ 0000000180030350     ua.obj
 0002:00009430       ??_C@_0EG@HFKJDMIB@in?5method?5?8insn_t_create_stkvar@ 0000000180030430     ua.obj
 0002:00009480       ??_C@_0EE@GDIIDGAP@in?5method?5?8insn_t_create_stkvar@ 0000000180030480     ua.obj
 0002:000094d0       ??_C@_0FL@GDOCKCMO@invalid?5null?5reference?5in?5metho@ 00000001800304d0     ua.obj
 0002:00009530       ??_C@_0DP@HGFIBNDA@in?5method?5?8insn_t_create_stkvar@ 0000000180030530     ua.obj
 0002:00009570       ??_C@_0DL@KMGEHDPJ@in?5method?5?8insn_t_create_stkvar@ 0000000180030570     ua.obj
 0002:000095b0       ??_C@_0EB@MFDAHOJO@in?5method?5?8insn_t_add_cref?8?0?5ar@ 00000001800305b0     ua.obj
 0002:000095f8       ??_C@_0DH@IFKALCKE@in?5method?5?8insn_t_add_cref?8?0?5ar@ 00000001800305f8     ua.obj
 0002:00009630       ??_C@_0DG@PGPNACGJ@in?5method?5?8insn_t_add_cref?8?0?5ar@ 0000000180030630     ua.obj
 0002:00009668       ??_C@_0DJ@HKPGLAJJ@in?5method?5?8insn_t_add_cref?8?0?5ar@ 0000000180030668     ua.obj
 0002:000096b0       ??_C@_0EB@MLDKLIDO@in?5method?5?8insn_t_add_dref?8?0?5ar@ 00000001800306b0     ua.obj
 0002:000096f8       ??_C@_0DH@FHNEAHN@in?5method?5?8insn_t_add_dref?8?0?5ar@ 00000001800306f8     ua.obj
 0002:00009730       ??_C@_0DG@EOGIBAPM@in?5method?5?8insn_t_add_dref?8?0?5ar@ 0000000180030730     ua.obj
 0002:00009768       ??_C@_0DJ@HDHKNEDL@in?5method?5?8insn_t_add_dref?8?0?5ar@ 0000000180030768     ua.obj
 0002:000097b0       ??_C@_0EG@NDDBLCLH@in?5method?5?8insn_t_add_off_drefs@ 00000001800307b0     ua.obj
 0002:00009800       ??_C@_0EE@OHKDFPM@in?5method?5?8insn_t_add_off_drefs@ 0000000180030800     ua.obj
 0002:00009850       ??_C@_0FL@OBAKBDN@invalid?5null?5reference?5in?5metho@ 0000000180030850     ua.obj
 0002:000098b0       ??_C@_0DO@FHBBJEAA@in?5method?5?8insn_t_add_off_drefs@ 00000001800308b0     ua.obj
 0002:000098f0       ??_C@_0DL@OPNNHLOL@in?5method?5?8insn_t_add_off_drefs@ 00000001800308f0     ua.obj
 0002:00009930       ??_C@_0DO@NGDNDENK@in?5method?5?8insn_t___get_ops__?8?0@ 0000000180030930     ua.obj
 0002:00009970       ??_C@_0EC@NOGEABLI@in?5method?5?8insn_t___get_operand@ 0000000180030970     ua.obj
 0002:000099b8       ??_C@_0DN@HDBMDBGA@in?5method?5?8insn_t___get_operand@ 00000001800309b8     ua.obj
 0002:00009a00       ??_C@_0EC@LKGNHHPK@in?5method?5?8insn_t___get_auxpref@ 0000000180030a00     ua.obj
 0002:00009a50       ??_C@_0EC@PGHLPMD@in?5method?5?8insn_t___set_auxpref@ 0000000180030a50     ua.obj
 0002:00009aa0       ??_C@_0EA@HPFNABBG@in?5method?5?8insn_t___set_auxpref@ 0000000180030aa0     ua.obj
 0002:00009ae0       ??_C@_0DJ@LFOOAJF@in?5method?5?8insn_t_assign?8?0?5argu@ 0000000180030ae0     ua.obj
 0002:00009b20       ??_C@_0DP@GFHPLPEJ@in?5method?5?8insn_t_assign?8?0?5argu@ 0000000180030b20     ua.obj
 0002:00009b60       ??_C@_0FG@CKPECBLP@invalid?5null?5reference?5in?5metho@ 0000000180030b60     ua.obj
 0002:00009bb8       ??_C@_0DJ@IJLDELFO@in?5method?5?8delete_insn_t?8?0?5argu@ 0000000180030bb8     ua.obj
 0002:00009bf8       ??_C@_0DO@OHKJOCLN@in?5method?5?8calc_dataseg?8?0?5argum@ 0000000180030bf8     ua.obj
 0002:00009c40       ??_C@_0FF@LDMFEGBO@invalid?5null?5reference?5in?5metho@ 0000000180030c40     ua.obj
 0002:00009c98       ??_C@_0DD@NDFHNMLE@in?5method?5?8calc_dataseg?8?0?5argum@ 0000000180030c98     ua.obj
 0002:00009cd0       ??_C@_0DD@HNDPENCF@in?5method?5?8calc_dataseg?8?0?5argum@ 0000000180030cd0     ua.obj
 0002:00009d08       ??_C@_0DN@JFHIKINB@in?5method?5?8map_data_ea?8?0?5argume@ 0000000180030d08     ua.obj
 0002:00009d50       ??_C@_0FE@CHILCCCH@invalid?5null?5reference?5in?5metho@ 0000000180030d50     ua.obj
 0002:00009da8       ??_C@_0DD@OPHMJJDB@in?5method?5?8map_data_ea?8?0?5argume@ 0000000180030da8     ua.obj
 0002:00009de0       ??_C@_0DC@JKPGGFHI@in?5method?5?8map_data_ea?8?0?5argume@ 0000000180030de0     ua.obj
 0002:00009e18       ??_C@_0DL@MMFGGFKC@in?5method?5?8map_data_ea?8?0?5argume@ 0000000180030e18     ua.obj
 0002:00009e60       ??_C@_0FC@EJALIIEA@invalid?5null?5reference?5in?5metho@ 0000000180030e60     ua.obj
 0002:00009ec0       ??_C@_0MB@HMPAFGNP@Wrong?5number?5or?5type?5of?5argumen@ 0000000180030ec0     ua.obj
 0002:00009f88       ??_C@_0DN@FKCLJBKK@in?5method?5?8map_code_ea?8?0?5argume@ 0000000180030f88     ua.obj
 0002:00009fd0       ??_C@_0FE@OINIBLFM@invalid?5null?5reference?5in?5metho@ 0000000180030fd0     ua.obj
 0002:0000a028       ??_C@_0DD@ELCCDLEB@in?5method?5?8map_code_ea?8?0?5argume@ 0000000180031028     ua.obj
 0002:0000a060       ??_C@_0DC@BFJAHIBO@in?5method?5?8map_code_ea?8?0?5argume@ 0000000180031060     ua.obj
 0002:0000a098       ??_C@_0DL@DBBGGKE@in?5method?5?8map_code_ea?8?0?5argume@ 0000000180031098     ua.obj
 0002:0000a0e0       ??_C@_0FC@IGEMILEG@invalid?5null?5reference?5in?5metho@ 00000001800310e0     ua.obj
 0002:0000a140       ??_C@_0MB@PGPDMPCD@Wrong?5number?5or?5type?5of?5argumen@ 0000000180031140     ua.obj
 0002:0000a208       ??_C@_0DI@LMFAHKNF@in?5method?5?8map_ea?8?0?5argument?51?5@ 0000000180031208     ua.obj
 0002:0000a240       ??_C@_0EP@EEJBMLBC@invalid?5null?5reference?5in?5metho@ 0000000180031240     ua.obj
 0002:0000a290       ??_C@_0DG@DCIFOHD@in?5method?5?8map_ea?8?0?5argument?52?5@ 0000000180031290     ua.obj
 0002:0000a2d0       ??_C@_0EN@KAIGPHBB@invalid?5null?5reference?5in?5metho@ 00000001800312d0     ua.obj
 0002:0000a320       ??_C@_0CO@CHPGEAHF@in?5method?5?8map_ea?8?0?5argument?53?5@ 0000000180031320     ua.obj
 0002:0000a350       ??_C@_0CO@OAHLAPIG@in?5method?5?8map_ea?8?0?5argument?52?5@ 0000000180031350     ua.obj
 0002:0000a380       ??_C@_0CN@JNJJOGDB@in?5method?5?8map_ea?8?0?5argument?53?5@ 0000000180031380     ua.obj
 0002:0000a3b0       ??_C@_0CO@HGEDMDO@in?5method?5?8map_ea?8?0?5argument?54?5@ 00000001800313b0     ua.obj
 0002:0000a3e0       ??_C@_0LM@HMLGCBMM@Wrong?5number?5or?5type?5of?5argumen@ 00000001800313e0     ua.obj
 0002:0000a4a0       ??_C@_0EM@BDOKMEPN@in?5method?5?8outctx_base_t_insn_e@ 00000001800314a0     ua.obj
 0002:0000a4f0       ??_C@_0EB@EOHBINFO@in?5method?5?8outctx_base_t_insn_e@ 00000001800314f0     ua.obj
 0002:0000a540       ??_C@_0EM@HOMNGDGG@in?5method?5?8outctx_base_t_insn_e@ 0000000180031540     ua.obj
 0002:0000a590       ??_C@_0EL@OONHPCMI@in?5method?5?8outctx_base_t_outbuf@ 0000000180031590     ua.obj
 0002:0000a5e0       ??_C@_0EP@OEHMPELI@Expected?5string?5in?5method?5?8outc@ 00000001800315e0     ua.obj
 0002:0000a630       ??_C@_0EL@IDPAFFFD@in?5method?5?8outctx_base_t_outbuf@ 0000000180031630     ua.obj
 0002:0000a680       ??_C@_0FC@JFGMGCKD@in?5method?5?8outctx_base_t_defaul@ 0000000180031680     ua.obj
 0002:0000a6e0       ??_C@_0EG@JENCJJK@in?5method?5?8outctx_base_t_defaul@ 00000001800316e0     ua.obj
 0002:0000a730       ??_C@_0FC@PIELMFDI@in?5method?5?8outctx_base_t_defaul@ 0000000180031730     ua.obj
 0002:0000a790       ??_C@_0FF@BNHDGMLK@in?5method?5?8outctx_base_t_only_m@ 0000000180031790     ua.obj
 0002:0000a7f0       ??_C@_0FA@OOBKFDLJ@in?5method?5?8outctx_base_t_multil@ 00000001800317f0     ua.obj
 0002:0000a840       ??_C@_0FB@NCJCNBBP@in?5method?5?8outctx_base_t_force_@ 0000000180031840     ua.obj
 0002:0000a8a0       ??_C@_0FB@JIEHDOOI@in?5method?5?8outctx_base_t_stack_@ 00000001800318a0     ua.obj
 0002:0000a900       ??_C@_0FE@BEMKHGNF@in?5method?5?8outctx_base_t_displa@ 0000000180031900     ua.obj
 0002:0000a960       ??_C@_0EO@ELCJNAG@in?5method?5?8outctx_base_t_set_ge@ 0000000180031960     ua.obj
 0002:0000a9b0       ??_C@_0ED@GJBEMMKB@in?5method?5?8outctx_base_t_set_ge@ 00000001800319b0     ua.obj
 0002:0000aa00       ??_C@_0EM@GPCCFJNE@in?5method?5?8outctx_base_t_set_ge@ 0000000180031a00     ua.obj
 0002:0000aa50       ??_C@_0EB@BNACOMDN@in?5method?5?8outctx_base_t_set_ge@ 0000000180031a50     ua.obj
 0002:0000aaa0       ??_C@_0EO@BLIDGPMH@in?5method?5?8outctx_base_t_clr_ge@ 0000000180031aa0     ua.obj
 0002:0000aaf0       ??_C@_0EO@NLJAEBJN@in?5method?5?8outctx_base_t_set_ge@ 0000000180031af0     ua.obj
 0002:0000ab40       ??_C@_0FI@IHDMLJMF@in?5method?5?8outctx_base_t_set_ge@ 0000000180031b40     ua.obj
 0002:0000aba0       ??_C@_0FB@FGMKPDCP@in?5method?5?8outctx_base_t_set_co@ 0000000180031ba0     ua.obj
 0002:0000ac00       ??_C@_0EG@FEPFLCFC@in?5method?5?8outctx_base_t_set_co@ 0000000180031c00     ua.obj
 0002:0000ac50       ??_C@_0FA@LMDIAOJH@in?5method?5?8outctx_base_t_set_dl@ 0000000180031c50     ua.obj
 0002:0000aca0       ??_C@_0FG@PFAHEOGM@in?5method?5?8outctx_base_t_print_@ 0000000180031ca0     ua.obj
 0002:0000ad00       ??_C@_0FD@IIPGJLEL@in?5method?5?8outctx_base_t_forbid@ 0000000180031d00     ua.obj
 0002:0000ad60       ??_C@_0FB@HKDCBNDN@in?5method?5?8outctx_base_t_restor@ 0000000180031d60     ua.obj
 0002:0000adc0       ??_C@_0EF@CNEJDEPN@in?5method?5?8outctx_base_t_restor@ 0000000180031dc0     ua.obj
 0002:0000ae10       ??_C@_0EL@MMOJJAG@in?5method?5?8outctx_base_t_out_pr@ 0000000180031e10     ua.obj
 0002:0000ae60       ??_C@_0FN@DDNHLDCC@invalid?5null?5pointer?5in?5method?5@ 0000000180031e60     ua.obj
 0002:0000aec0       ??_C@_0EK@BAPABDIL@in?5method?5?8outctx_base_t_out_va@ 0000000180031ec0     ua.obj
 0002:0000af10       ??_C@_0EH@PHDMABAJ@in?5method?5?8outctx_base_t_out_va@ 0000000180031f10     ua.obj
 0002:0000af60       ??_C@_0FO@NPBLDKCG@invalid?5null?5reference?5in?5metho@ 0000000180031f60     ua.obj
 0002:0000afc0       ??_C@_0DO@CAOEPONE@in?5method?5?8outctx_base_t_out_va@ 0000000180031fc0     ua.obj
 0002:0000b000       ??_C@_0EL@JBJLPGBK@in?5method?5?8outctx_base_t_out_sy@ 0000000180032000     ua.obj
 0002:0000b050       ??_C@_0EA@EIAMGDLI@in?5method?5?8outctx_base_t_out_sy@ 0000000180032050     ua.obj
 0002:0000b090       ??_C@_0EK@IKAFJLBB@in?5method?5?8outctx_base_t_out_ch@ 0000000180032090     ua.obj
 0002:0000b0e0       ??_C@_0DP@IEOBMMJD@in?5method?5?8outctx_base_t_out_ch@ 00000001800320e0     ua.obj
 0002:0000b120       ??_C@_0DO@OGBFOGBO@in?5method?5?8outctx_base_t_out_ch@ 0000000180032120     ua.obj
 0002:0000b160       ??_C@_0EL@FJINDLEJ@in?5method?5?8outctx_base_t_out_sp@ 0000000180032160     ua.obj
 0002:0000b1b0       ??_C@_0ED@LOEKAHKC@in?5method?5?8outctx_base_t_out_sp@ 00000001800321b0     ua.obj
 0002:0000b200       ??_C@_0EJ@DBILJDJA@in?5method?5?8outctx_base_t_out_li@ 0000000180032200     ua.obj
 0002:0000b250       ??_C@_0EG@HFDDJKNJ@in?5method?5?8outctx_base_t_out_li@ 0000000180032250     ua.obj
 0002:0000b2a0       ??_C@_0EB@MHLPGIGI@in?5method?5?8outctx_base_t_out_li@ 00000001800322a0     ua.obj
 0002:0000b2f0       ??_C@_0EM@IHJCOMJP@in?5method?5?8outctx_base_t_out_ke@ 00000001800322f0     ua.obj
 0002:0000b340       ??_C@_0EJ@JCHFBCHL@in?5method?5?8outctx_base_t_out_ke@ 0000000180032340     ua.obj
 0002:0000b390       ??_C@_0EN@LKDDECFG@in?5method?5?8outctx_base_t_out_re@ 0000000180032390     ua.obj
 0002:0000b3e0       ??_C@_0EK@IMJJBMHF@in?5method?5?8outctx_base_t_out_re@ 00000001800323e0     ua.obj
 0002:0000b430       ??_C@_0EK@FNALJKKO@in?5method?5?8outctx_base_t_out_ta@ 0000000180032430     ua.obj
 0002:0000b480       ??_C@_0EC@DKKMOAPJ@in?5method?5?8outctx_base_t_out_ta@ 0000000180032480     ua.obj
 0002:0000b4d0       ??_C@_0EL@JFHJOIMF@in?5method?5?8outctx_base_t_out_ta@ 00000001800324d0     ua.obj
 0002:0000b520       ??_C@_0ED@MMIDAGKI@in?5method?5?8outctx_base_t_out_ta@ 0000000180032520     ua.obj
 0002:0000b570       ??_C@_0EN@EIDAFJEG@in?5method?5?8outctx_base_t_out_ad@ 0000000180032570     ua.obj
 0002:0000b5c0       ??_C@_0EC@NCIABBDJ@in?5method?5?8outctx_base_t_out_ad@ 00000001800325c0     ua.obj
 0002:0000b610       ??_C@_0FK@NKCNHNCG@in?5method?5?8outctx_base_t_out_co@ 0000000180032610     ua.obj
 0002:0000b670       ??_C@_0FH@PDMCCBOK@in?5method?5?8outctx_base_t_out_co@ 0000000180032670     ua.obj
 0002:0000b6d0       ??_C@_0EJ@FNKBGOBH@in?5method?5?8outctx_base_t_out_ch@ 00000001800326d0     ua.obj
 0002:0000b720       ??_C@_0DO@LADNLEJC@in?5method?5?8outctx_base_t_out_ch@ 0000000180032720     ua.obj
 0002:0000b760       ??_C@_0EJ@IPPGOBBO@in?5method?5?8outctx_base_t_out_bt@ 0000000180032760     ua.obj
 0002:0000b7b0       ??_C@_0EA@HDOGGDJB@in?5method?5?8outctx_base_t_out_bt@ 00000001800327b0     ua.obj
 0002:0000b7f0       ??_C@_0DO@OLIMICMB@in?5method?5?8outctx_base_t_out_bt@ 00000001800327f0     ua.obj
 0002:0000b830       ??_C@_0EJ@HDMMIEMI@in?5method?5?8outctx_base_t_out_lo@ 0000000180032830     ua.obj
 0002:0000b880       ??_C@_0EA@HLPFFDKE@in?5method?5?8outctx_base_t_out_lo@ 0000000180032880     ua.obj
 0002:0000b8c0       ??_C@_0DO@IBLBJBNB@in?5method?5?8outctx_base_t_out_lo@ 00000001800328c0     ua.obj
 0002:0000b900       ??_C@_0EO@DANFEONO@in?5method?5?8outctx_base_t_out_na@ 0000000180032900     ua.obj
 0002:0000b950       ??_C@_0EL@NJMMHMAN@in?5method?5?8outctx_base_t_out_na@ 0000000180032950     ua.obj
 0002:0000b9a0       ??_C@_0GC@OGNDNDIL@invalid?5null?5reference?5in?5metho@ 00000001800329a0     ua.obj
 0002:0000ba10       ??_C@_0ED@OEKLNLI@in?5method?5?8outctx_base_t_out_na@ 0000000180032a10     ua.obj
 0002:0000ba60       ??_C@_0ED@CONIMBPD@in?5method?5?8outctx_base_t_out_na@ 0000000180032a60     ua.obj
 0002:0000bab0       ??_C@_0EO@BDJPONFF@in?5method?5?8outctx_base_t_close_@ 0000000180032ab0     ua.obj
 0002:0000bb00       ??_C@_0EN@EOCOIOI@in?5method?5?8outctx_base_t_flush_@ 0000000180032b00     ua.obj
 0002:0000bb50       ??_C@_0EB@GNKLLJI@in?5method?5?8outctx_base_t_flush_@ 0000000180032b50     ua.obj
 0002:0000bba0       ??_C@_0EK@PNNGBLLK@in?5method?5?8outctx_base_t_flush_@ 0000000180032ba0     ua.obj
 0002:0000bbf0       ??_C@_0EH@HOEJBOON@in?5method?5?8outctx_base_t_flush_@ 0000000180032bf0     ua.obj
 0002:0000bc38       ??_C@_0DO@OLGNIDOG@in?5method?5?8outctx_base_t_flush_@ 0000000180032c38     ua.obj
 0002:0000bc80       ??_C@_0EM@COINKDOA@in?5method?5?8outctx_base_t_term_o@ 0000000180032c80     ua.obj
 0002:0000bcd0       ??_C@_0EJ@NGPGHCIB@in?5method?5?8outctx_base_t_term_o@ 0000000180032cd0     ua.obj
 0002:0000bd20       ??_C@_0EL@EOLOOHCO@in?5method?5?8outctx_base_t_gen_pr@ 0000000180032d20     ua.obj
 0002:0000bd70       ??_C@_0DP@BPDPFPII@in?5method?5?8outctx_base_t_gen_pr@ 0000000180032d70     ua.obj
 0002:0000bdb0       ??_C@_0FN@EDFMHAIC@invalid?5null?5pointer?5in?5method?5@ 0000000180032db0     ua.obj
 0002:0000be10       ??_C@_0EP@ODPJMNLK@in?5method?5?8outctx_base_t_gen_em@ 0000000180032e10     ua.obj
 0002:0000be60       ??_C@_0FA@IFBGLKEI@in?5method?5?8outctx_base_t_gen_bo@ 0000000180032e60     ua.obj
 0002:0000beb0       ??_C@_0EF@CKDLJBLC@in?5method?5?8outctx_base_t_gen_bo@ 0000000180032eb0     ua.obj
 0002:0000bf00       ??_C@_0EN@KLBEOOGF@in?5method?5?8outctx_base_t_gen_cm@ 0000000180032f00     ua.obj
 0002:0000bf50       ??_C@_0FP@EKPHDGOD@invalid?5null?5pointer?5in?5method?5@ 0000000180032f50     ua.obj
 0002:0000bfb0       ??_C@_0FD@LNGACECD@in?5method?5?8outctx_base_t_gen_co@ 0000000180032fb0     ua.obj
 0002:0000c010       ??_C@_0GF@BEDBNLKO@invalid?5null?5pointer?5in?5method?5@ 0000000180033010     ua.obj
 0002:0000c080       ??_C@_0EO@GGAEMMEE@in?5method?5?8outctx_base_t_gen_bl@ 0000000180033080     ua.obj
 0002:0000c0d0       ??_C@_0EL@MBKCKCGK@in?5method?5?8outctx_base_t_gen_bl@ 00000001800330d0     ua.obj
 0002:0000c120       ??_C@_0EG@IPHJIJGD@in?5method?5?8outctx_base_t_gen_bl@ 0000000180033120     ua.obj
 0002:0000c170       ??_C@_0EN@NACKKELF@in?5method?5?8outctx_base_t_setup_@ 0000000180033170     ua.obj
 0002:0000c1c0       ??_C@_0EK@FJIBFIPO@in?5method?5?8outctx_base_t_setup_@ 00000001800331c0     ua.obj
 0002:0000c210       ??_C@_0EB@FHJLGHPK@in?5method?5?8outctx_base_t_setup_@ 0000000180033210     ua.obj
 0002:0000c260       ??_C@_0EN@CHDHLPJN@in?5method?5?8outctx_base_t_retrie@ 0000000180033260     ua.obj
 0002:0000c2b0       ??_C@_0EO@OBBPJDNJ@in?5method?5?8outctx_base_t_retrie@ 00000001800332b0     ua.obj
 0002:0000c300       ??_C@_0FC@KIIBFFLD@Expected?5string?5in?5method?5?8outc@ 0000000180033300     ua.obj
 0002:0000c360       ??_C@_0EI@PDACOEAH@in?5method?5?8outctx_base_t_retrie@ 0000000180033360     ua.obj
 0002:0000c3b0       ??_C@_0EP@BFNDPDGA@in?5method?5?8outctx_base_t_gen_xr@ 00000001800333b0     ua.obj
 0002:0000c400       ??_C@_0FB@GJLMGGAF@in?5method?5?8outctx_base_t_init_l@ 0000000180033400     ua.obj
 0002:0000c460       ??_C@_0EN@NJHLBCL@in?5method?5?8outctx_base_t_init_l@ 0000000180033460     ua.obj
 0002:0000c4b0       ??_C@_0EF@KIILEICH@in?5method?5?8outctx_base_t_init_l@ 00000001800334b0     ua.obj
 0002:0000c500       ??_C@_0EL@CNGBPLOG@in?5method?5?8outctx_base_t_get_st@ 0000000180033500     ua.obj
 0002:0000c550       ??_C@_0EI@LEIKIBF@in?5method?5?8outctx_base_t_get_st@ 0000000180033550     ua.obj
 0002:0000c5a0       ??_C@_0FP@KALBLCHH@invalid?5null?5reference?5in?5metho@ 00000001800335a0     ua.obj
 0002:0000c600       ??_C@_0EC@EIKJPLOH@in?5method?5?8outctx_base_t_get_st@ 0000000180033600     ua.obj
 0002:0000c650       ??_C@_0EE@CNGBLJOD@in?5method?5?8outctx_base_t_get_st@ 0000000180033650     ua.obj
 0002:0000c6a0       ??_C@_0EB@EFCOIIFO@in?5method?5?8outctx_base_t_get_st@ 00000001800336a0     ua.obj
 0002:0000c6f0       ??_C@_0GD@EGABKJGN@in?5method?5?8outctx_base_t_gen_em@ 00000001800336f0     ua.obj
 0002:0000c760       ??_C@_0EB@GOCHLHPC@in?5method?5?8outctx_t_bin_ea_set?8@ 0000000180033760     ua.obj
 0002:0000c7a8       ??_C@_0DL@EJKAFFLP@in?5method?5?8outctx_t_bin_ea_set?8@ 00000001800337a8     ua.obj
 0002:0000c7f0       ??_C@_0EB@IACFLJNE@in?5method?5?8outctx_t_bin_ea_get?8@ 00000001800337f0     ua.obj
 0002:0000c840       ??_C@_0EE@CAFGDAKM@in?5method?5?8outctx_t_bin_state_s@ 0000000180033840     ua.obj
 0002:0000c888       ??_C@_0DO@MNHGHJBG@in?5method?5?8outctx_t_bin_state_s@ 0000000180033888     ua.obj
 0002:0000c8d0       ??_C@_0EE@MOFEDOIK@in?5method?5?8outctx_t_bin_state_g@ 00000001800338d0     ua.obj
 0002:0000c920       ??_C@_0EE@LEAPEKEM@in?5method?5?8outctx_t_gl_bpsize_s@ 0000000180033920     ua.obj
 0002:0000c968       ??_C@_0DN@KBLGHHEF@in?5method?5?8outctx_t_gl_bpsize_s@ 0000000180033968     ua.obj
 0002:0000c9b0       ??_C@_0EE@FKANEEGK@in?5method?5?8outctx_t_gl_bpsize_g@ 00000001800339b0     ua.obj
 0002:0000ca00       ??_C@_0EE@LKDEPAKN@in?5method?5?8outctx_t_bin_width_s@ 0000000180033a00     ua.obj
 0002:0000ca48       ??_C@_0DN@CCMEKACK@in?5method?5?8outctx_t_bin_width_s@ 0000000180033a48     ua.obj
 0002:0000ca90       ??_C@_0EE@FEDGPOIL@in?5method?5?8outctx_t_bin_width_g@ 0000000180033a90     ua.obj
 0002:0000cad8       ??_C@_0DP@MGMOLKDJ@in?5method?5?8outctx_t_insn_set?8?0?5@ 0000000180033ad8     ua.obj
 0002:0000cb18       ??_C@_0DN@OOOMCPNP@in?5method?5?8outctx_t_insn_set?8?0?5@ 0000000180033b18     ua.obj
 0002:0000cb58       ??_C@_0DP@CIMMLEBP@in?5method?5?8outctx_t_insn_get?8?0?5@ 0000000180033b58     ua.obj
 0002:0000cba0       ??_C@_0ED@HKIBKPDP@in?5method?5?8outctx_t_curlabel_se@ 0000000180033ba0     ua.obj
 0002:0000cbf0       ??_C@_0EM@PLGCPOGO@Expected?5string?5in?5method?5?8outc@ 0000000180033bf0     ua.obj
 0002:0000cc40       ??_C@_0ED@JEIDKBBJ@in?5method?5?8outctx_t_curlabel_ge@ 0000000180033c40     ua.obj
 0002:0000cc88       ??_C@_0DO@CGEJKFCM@in?5method?5?8outctx_t_wif_set?8?0?5a@ 0000000180033c88     ua.obj
 0002:0000ccd0       ??_C@_0EF@NGODJKLN@in?5method?5?8outctx_t_wif_set?8?0?5a@ 0000000180033cd0     ua.obj
 0002:0000cd18       ??_C@_0DO@MIELKLAK@in?5method?5?8outctx_t_wif_get?8?0?5a@ 0000000180033d18     ua.obj
 0002:0000cd60       ??_C@_0ED@PGLFFLNK@in?5method?5?8outctx_t_setup_outct@ 0000000180033d60     ua.obj
 0002:0000cdb0       ??_C@_0EF@DHGGBLBL@in?5method?5?8outctx_t_setup_outct@ 0000000180033db0     ua.obj
 0002:0000cdf8       ??_C@_0DM@JNCPIODI@in?5method?5?8outctx_t_setup_outct@ 0000000180033df8     ua.obj
 0002:0000ce40       ??_C@_0ED@OEBPGFKN@in?5method?5?8outctx_t_retrieve_cm@ 0000000180033e40     ua.obj
 0002:0000ce90       ??_C@_0EE@LFHHPGMG@in?5method?5?8outctx_t_retrieve_na@ 0000000180033e90     ua.obj
 0002:0000cee0       ??_C@_0EN@NFKLKCI@Expected?5string?5in?5method?5?8outc@ 0000000180033ee0     ua.obj
 0002:0000cf30       ??_C@_0ED@GFHMIAFJ@in?5method?5?8outctx_t_retrieve_na@ 0000000180033f30     ua.obj
 0002:0000cf80       ??_C@_0EF@IJCHNPHO@in?5method?5?8outctx_t_gen_xref_li@ 0000000180033f80     ua.obj
 0002:0000cfc8       ??_C@_0DP@CIBLNNLF@in?5method?5?8outctx_t_out_mnem?8?0?5@ 0000000180033fc8     ua.obj
 0002:0000d008       ??_C@_0DI@LHPPBPGH@in?5method?5?8outctx_t_out_mnem?8?0?5@ 0000000180034008     ua.obj
 0002:0000d040       ??_C@_0EB@HEFDAEMG@in?5method?5?8outctx_t_out_mnem?8?0?5@ 0000000180034040     ua.obj
 0002:0000d090       ??_C@_0EG@NPFLBIHH@in?5method?5?8outctx_t_out_custom_@ 0000000180034090     ua.obj
 0002:0000d0e0       ??_C@_0EI@MDBKOAHL@in?5method?5?8outctx_t_out_custom_@ 00000001800340e0     ua.obj
 0002:0000d128       ??_C@_0DP@DFIDOGCK@in?5method?5?8outctx_t_out_custom_@ 0000000180034128     ua.obj
 0002:0000d170       ??_C@_0EI@KIMBIMNN@in?5method?5?8outctx_t_out_custom_@ 0000000180034170     ua.obj
 0002:0000d1c0       ??_C@_0ED@CADMGIAJ@in?5method?5?8outctx_t_out_mnemoni@ 00000001800341c0     ua.obj
 0002:0000d210       ??_C@_0EG@ODKEICNE@in?5method?5?8outctx_t_out_one_ope@ 0000000180034210     ua.obj
 0002:0000d258       ??_C@_0DP@IDDNLJAB@in?5method?5?8outctx_t_out_one_ope@ 0000000180034258     ua.obj
 0002:0000d2a0       ??_C@_0EH@NOFBADKB@in?5method?5?8outctx_t_out_immchar@ 00000001800342a0     ua.obj
 0002:0000d2f0       ??_C@_0EG@BFPCPFAP@in?5method?5?8outctx_t_gen_func_he@ 00000001800342f0     ua.obj
 0002:0000d340       ??_C@_0EE@NJJBLDEA@in?5method?5?8outctx_t_gen_func_he@ 0000000180034340     ua.obj
 0002:0000d390       ??_C@_0EG@KMNDIGH@in?5method?5?8outctx_t_gen_func_fo@ 0000000180034390     ua.obj
 0002:0000d3e0       ??_C@_0EK@PAKBLBFB@in?5method?5?8outctx_t_gen_func_fo@ 00000001800343e0     ua.obj
 0002:0000d430       ??_C@_0DP@HEEMCEDG@in?5method?5?8outctx_t_out_data?8?0?5@ 0000000180034430     ua.obj
 0002:0000d470       ??_C@_0DJ@INCOBCEG@in?5method?5?8outctx_t_out_data?8?0?5@ 0000000180034470     ua.obj
 0002:0000d4b0       ??_C@_0EB@JLFPILHP@in?5method?5?8outctx_t_out_specea?8@ 00000001800344b0     ua.obj
 0002:0000d4f8       ??_C@_0DM@MLFNNOIF@in?5method?5?8outctx_t_out_specea?8@ 00000001800344f8     ua.obj
 0002:0000d540       ??_C@_0EH@JAPEBHBA@in?5method?5?8outctx_t_gen_header_@ 0000000180034540     ua.obj
 0002:0000d590       ??_C@_0EB@FENFHBFL@in?5method?5?8outctx_t_gen_header?8@ 0000000180034590     ua.obj
 0002:0000d5d8       ??_C@_0DK@HIPCGIBJ@in?5method?5?8outctx_t_gen_header?8@ 00000001800345d8     ua.obj
 0002:0000d620       ??_C@_0ED@GLMOEJKJ@in?5method?5?8outctx_t_gen_header?8@ 0000000180034620     ua.obj
 0002:0000d670       ??_C@_0ED@KFJOLFAB@in?5method?5?8outctx_t_gen_header?8@ 0000000180034670     ua.obj
 0002:0000d6b8       ??_C@_0DF@JJCMILCF@in?5method?5?8create_outctx?8?0?5argu@ 00000001800346b8     ua.obj
 0002:0000d6f0       ??_C@_0DI@HDNGGHAD@in?5method?5?8create_outctx?8?0?5argu@ 00000001800346f0     ua.obj
 0002:0000d728       ??_C@_0DE@DPGNFFMK@in?5method?5?8create_outctx?8?0?5argu@ 0000000180034728     ua.obj
 0002:0000d760       ??_C@_0DH@PCLACICD@in?5method?5?8print_insn_mnem?8?0?5ar@ 0000000180034760     ua.obj
 0002:0000d798       ??_C@_0DM@MDPMNDO@in?5method?5?8get_dtype_flag?8?0?5arg@ 0000000180034798     ua.obj
 0002:0000d7d8       ??_C@_0DM@FDAGCAAF@in?5method?5?8get_dtype_size?8?0?5arg@ 00000001800347d8     ua.obj
 0002:0000d818       ??_C@_0DD@JBJHFFJO@in?5method?5?8create_insn?8?0?5argume@ 0000000180034818     ua.obj
 0002:0000d850       ??_C@_0DH@PJACMLCI@in?5method?5?8create_insn?8?0?5argume@ 0000000180034850     ua.obj
 0002:0000d888       ??_C@_0DH@EENNLMGC@in?5method?5?8decode_insn?8?0?5argume@ 0000000180034888     ua.obj
 0002:0000d8c0       ??_C@_0DD@CLLNNHGJ@in?5method?5?8decode_insn?8?0?5argume@ 00000001800348c0     ua.obj
 0002:0000d8f8       ??_C@_0DC@JDNGLOBM@in?5method?5?8can_decode?8?0?5argumen@ 00000001800348f8     ua.obj
 0002:0000d930       ??_C@_0DF@CIKABJBK@in?5method?5?8print_operand?8?0?5argu@ 0000000180034930     ua.obj
 0002:0000d968       ??_C@_0DE@JBNOPKAD@in?5method?5?8print_operand?8?0?5argu@ 0000000180034968     ua.obj
 0002:0000d9a0       ??_C@_0DE@GMCHACHG@in?5method?5?8print_operand?8?0?5argu@ 00000001800349a0     ua.obj
 0002:0000d9d8       ??_C@_0DM@PBOIDIJH@in?5method?5?8print_operand?8?0?5argu@ 00000001800349d8     ua.obj
 0002:0000da18       ??_C@_0DM@BMDDECGI@in?5method?5?8decode_prev_insn?8?0?5a@ 0000000180034a18     ua.obj
 0002:0000da58       ??_C@_0DI@FKMPHLEK@in?5method?5?8decode_prev_insn?8?0?5a@ 0000000180034a58     ua.obj
 0002:0000da90       ??_C@_0EF@NFILGIJA@in?5method?5?8guess_table_address?8@ 0000000180034a90     ua.obj
 0002:0000dae0       ??_C@_0FM@DJOIPACC@invalid?5null?5reference?5in?5metho@ 0000000180034ae0     ua.obj
 0002:0000db40       ??_C@_0EC@ILNHDJIH@in?5method?5?8guess_table_size?8?0?5a@ 0000000180034b40     ua.obj
 0002:0000db90       ??_C@_0FJ@KPDGMLJG@invalid?5null?5reference?5in?5metho@ 0000000180034b90     ua.obj
 0002:0000dbf0       ??_C@_0DI@DFIBOBNF@in?5method?5?8guess_table_size?8?0?5a@ 0000000180034bf0     ua.obj
 0002:0000dc30       ??_C@_0EB@BBLOGKDP@in?5method?5?8decode_preceding_ins@ 0000000180034c30     ua.obj
 0002:0000dc78       ??_C@_0DN@HPKPEGPJ@in?5method?5?8decode_preceding_ins@ 0000000180034c78     ua.obj
 0002:0000dcb8       ??_C@_0DL@FJOCIKOH@in?5method?5?8construct_macro?8?0?5ar@ 0000000180034cb8     ua.obj
 0002:0000dd00       ??_C@_0FC@NMLPGHAF@invalid?5null?5reference?5in?5metho@ 0000000180034d00     ua.obj
 0002:0000dd58       ??_C@_0DH@JADGBGJA@in?5method?5?8construct_macro?8?0?5ar@ 0000000180034d58     ua.obj
 0002:0000dd90       ??_C@_0DM@PIGAJPCG@in?5method?5?8get_dtype_by_size?8?0?5@ 0000000180034d90     ua.obj
 0002:0000ddd0       ??_C@_0DD@DNNDIJLE@in?5method?5?8get_immvals?8?0?5argume@ 0000000180034dd0     ua.obj
 0002:0000de08       ??_C@_0DC@LPMDDIDN@in?5method?5?8get_immvals?8?0?5argume@ 0000000180034e08     ua.obj
 0002:0000de40       ??_C@_0DG@PFFEADCJ@in?5method?5?8get_immvals?8?0?5argume@ 0000000180034e40     ua.obj
 0002:0000de78       ??_C@_0DN@PLKCFPKK@in?5method?5?8get_printable_immval@ 0000000180034e78     ua.obj
 0002:0000deb8       ??_C@_0DM@MCMMJEAH@in?5method?5?8get_printable_immval@ 0000000180034eb8     ua.obj
 0002:0000df00       ??_C@_0EA@BDIMKOKG@in?5method?5?8get_printable_immval@ 0000000180034f00     ua.obj
 0002:0000df40       ??_C@_0BI@JNLIJMPE@?$DMSwig?5global?5variables?$DO@ 0000000180034f40     ua.obj
 0002:0000df58       ??_C@_01ODHLEDKK@?$CI@     0000000180034f58     ua.obj
 0002:0000df5c       ??_C@_02KEGNLNML@?0?5@     0000000180034f5c     ua.obj
 0002:0000df60       ??_C@_01PKGAHCOL@?$CJ@     0000000180034f60     ua.obj
 0002:0000df68       ??_C@_0BP@NDJOEMD@Unknown?5C?5global?5variable?5?8?$CFs?8@ 0000000180034f68     ua.obj
 0002:0000df88       ??_C@_0M@MKKPOLDM@swigvarlink@ 0000000180034f88     ua.obj
 0002:0000e4f0       ??_C@_0BA@DIFOJJHF@OF_NO_BASE_DISP@ 00000001800354f0     ua.obj
 0002:0000e500       ??_C@_0O@OIBMFENN@OF_OUTER_DISP@ 0000000180035500     ua.obj
 0002:0000e510       ??_C@_0O@LHCBFINN@PACK_FORM_DEF@ 0000000180035510     ua.obj
 0002:0000e520       ??_C@_09HFJPLLJA@OF_NUMBER@ 0000000180035520     ua.obj
 0002:0000e530       ??_C@_07BPEMMOBB@OF_SHOW@  0000000180035530     ua.obj
 0002:0000e538       ??_C@_07JFDEFEJI@dt_byte@  0000000180035538     ua.obj
 0002:0000e540       ??_C@_07FFNAAJNK@dt_word@  0000000180035540     ua.obj
 0002:0000e548       ??_C@_08IMILJJG@dt_dword@  0000000180035548     ua.obj
 0002:0000e558       ??_C@_08GJCLBHG@dt_float@  0000000180035558     ua.obj
 0002:0000e568       ??_C@_09JKDBGINI@dt_double@ 0000000180035568     ua.obj
 0002:0000e578       ??_C@_08MLPKOGEP@dt_tbyte@ 0000000180035578     ua.obj
 0002:0000e588       ??_C@_0M@JCKCGJGA@dt_packreal@ 0000000180035588     ua.obj
 0002:0000e598       ??_C@_08FLNDCKLO@dt_qword@ 0000000180035598     ua.obj
 0002:0000e5a8       ??_C@_09HJCLBOBJ@dt_byte16@ 00000001800355a8     ua.obj
 0002:0000e5b8       ??_C@_07MBAANGBL@dt_code@  00000001800355b8     ua.obj
 0002:0000e5c0       ??_C@_07HIMDGMPL@dt_void@  00000001800355c0     ua.obj
 0002:0000e5c8       ??_C@_08EFAABIJN@dt_fword@ 00000001800355c8     ua.obj
 0002:0000e5d8       ??_C@_0L@CKGPEHEI@dt_bitfild@ 00000001800355d8     ua.obj
 0002:0000e5e8       ??_C@_09FMKNFDN@dt_string@ 00000001800355e8     ua.obj
 0002:0000e5f8       ??_C@_0L@NMHNOAOE@dt_unicode@ 00000001800355f8     ua.obj
 0002:0000e608       ??_C@_07EBBOABDA@dt_ldbl@  0000000180035608     ua.obj
 0002:0000e610       ??_C@_09BOMDAPHD@dt_byte32@ 0000000180035610     ua.obj
 0002:0000e620       ??_C@_09EOFCGKBO@dt_byte64@ 0000000180035620     ua.obj
 0002:0000e630       ??_C@_0L@FMHGFMNE@INSN_MACRO@ 0000000180035630     ua.obj
 0002:0000e640       ??_C@_0M@NAHIKLPE@INSN_MODMAC@ 0000000180035640     ua.obj
 0002:0000e650       ??_C@_0L@NFICOAH@INSN_64BIT@ 0000000180035650     ua.obj
 0002:0000e660       ??_C@_0BC@CLALKNEH@STKVAR_VALID_SIZE@ 0000000180035660     ua.obj
 0002:0000e678       ??_C@_09IIPMFOCG@CTXF_MAIN@ 0000000180035678     ua.obj
 0002:0000e688       ??_C@_0L@EADBGKDJ@CTXF_MULTI@ 0000000180035688     ua.obj
 0002:0000e698       ??_C@_09DMDPNNOM@CTXF_CODE@ 0000000180035698     ua.obj
 0002:0000e6a8       ??_C@_0L@JNLICPMI@CTXF_STACK@ 00000001800356a8     ua.obj
 0002:0000e6b8       ??_C@_0P@EADACELP@CTXF_GEN_XREFS@ 00000001800356b8     ua.obj
 0002:0000e6c8       ??_C@_0BA@EKOEGBN@CTXF_XREF_STATE@ 00000001800356c8     ua.obj
 0002:0000e6d8       ??_C@_0P@KBNGMJGP@XREFSTATE_NONE@ 00000001800356d8     ua.obj
 0002:0000e6e8       ??_C@_0N@KJGAOPFJ@XREFSTATE_GO@ 00000001800356e8     ua.obj
 0002:0000e6f8       ??_C@_0P@OLGGNBMO@XREFSTATE_DONE@ 00000001800356f8     ua.obj
 0002:0000e708       ??_C@_0N@KGMNDDHG@CTXF_GEN_CMT@ 0000000180035708     ua.obj
 0002:0000e718       ??_C@_0P@HGKHFLMD@CTXF_CMT_STATE@ 0000000180035718     ua.obj
 0002:0000e728       ??_C@_0P@MBJJMLIK@COMMSTATE_NONE@ 0000000180035728     ua.obj
 0002:0000e738       ??_C@_0N@CKDKAAIA@COMMSTATE_GO@ 0000000180035738     ua.obj
 0002:0000e748       ??_C@_0P@ILCJNDCL@COMMSTATE_DONE@ 0000000180035748     ua.obj
 0002:0000e758       ??_C@_0L@JIKFLONL@CTXF_VOIDS@ 0000000180035758     ua.obj
 0002:0000e768       ??_C@_0BC@PJOBKBJE@CTXF_NORMAL_LABEL@ 0000000180035768     ua.obj
 0002:0000e780       ??_C@_0BF@BIFCJEMK@CTXF_DEMANGLED_LABEL@ 0000000180035780     ua.obj
 0002:0000e798       ??_C@_0O@KBIMBAAO@CTXF_LABEL_OK@ 0000000180035798     ua.obj
 0002:0000e7a8       ??_C@_0BC@NFBEOIGP@CTXF_DEMANGLED_OK@ 00000001800357a8     ua.obj
 0002:0000e7c0       ??_C@_0BC@MLDLAPLF@CTXF_OVSTORE_PRNT@ 00000001800357c0     ua.obj
 0002:0000e7d8       ??_C@_0O@KOJMBAOH@CTXF_OUTCTX_T@ 00000001800357d8     ua.obj
 0002:0000e7e8       ??_C@_0BB@DHPHGNNC@CTXF_DBLIND_OPND@ 00000001800357e8     ua.obj
 0002:0000e800       ??_C@_0N@GJCMPKBC@OOF_SIGNMASK@ 0000000180035800     ua.obj
 0002:0000e810       ??_C@_0M@FNACJFLP@OOFS_IFSIGN@ 0000000180035810     ua.obj
 0002:0000e820       ??_C@_0M@LPKKPKPJ@OOFS_NOSIGN@ 0000000180035820     ua.obj
 0002:0000e830       ??_C@_0O@KCNOKIIL@OOFS_NEEDSIGN@ 0000000180035830     ua.obj
 0002:0000e840       ??_C@_0L@NGMBKCAD@OOF_SIGNED@ 0000000180035840     ua.obj
 0002:0000e850       ??_C@_0L@LICCIPCD@OOF_NUMBER@ 0000000180035850     ua.obj
 0002:0000e860       ??_C@_0O@NJIPLOAL@OOF_WIDTHMASK@ 0000000180035860     ua.obj
 0002:0000e870       ??_C@_08LPPKOPLM@OOFW_IMM@ 0000000180035870     ua.obj
 0002:0000e87c       ??_C@_06NPMINCCM@OOFW_8@   000000018003587c     ua.obj
 0002:0000e888       ??_C@_07LEMKAOML@OOFW_16@  0000000180035888     ua.obj
 0002:0000e890       ??_C@_07IELKNCBA@OOFW_24@  0000000180035890     ua.obj
 0002:0000e898       ??_C@_07NDCCBPKB@OOFW_32@  0000000180035898     ua.obj
 0002:0000e8a0       ??_C@_07IDLDHKMM@OOFW_64@  00000001800358a0     ua.obj
 0002:0000e8a8       ??_C@_08LMJIKJPO@OOF_ADDR@ 00000001800358a8     ua.obj
 0002:0000e8b8       ??_C@_09PMMOEFEM@OOF_OUTER@ 00000001800358b8     ua.obj
 0002:0000e8c8       ??_C@_0M@KPHGJOIM@OOF_ZSTROFF@ 00000001800358c8     ua.obj
 0002:0000e8d8       ??_C@_0L@IJCEKEOH@OOF_NOBNOT@ 00000001800358d8     ua.obj
 0002:0000e8e8       ??_C@_0L@IKLBFILL@OOF_SPACES@ 00000001800358e8     ua.obj
 0002:0000e8f8       ??_C@_0O@HODOOCKC@OOF_ANYSERIAL@ 00000001800358f8     ua.obj
 0002:0000e908       ??_C@_0O@KMAHDIHH@MAKELINE_NONE@ 0000000180035908     ua.obj
 0002:0000e918       ??_C@_0BB@PFEMAPCH@MAKELINE_BINPREF@ 0000000180035918     ua.obj
 0002:0000e930       ??_C@_0O@OAMDMDPA@MAKELINE_VOID@ 0000000180035930     ua.obj
 0002:0000e940       ??_C@_0P@CJNGKOFL@MAKELINE_STACK@ 0000000180035940     ua.obj
 0002:0000e950       ??_C@_0O@PLOPBLDP@GH_PRINT_PROC@ 0000000180035950     ua.obj
 0002:0000e960       ??_C@_0N@PNDHCDK@GH_PRINT_ASM@ 0000000180035960     ua.obj
 0002:0000e970       ??_C@_0BB@LBPHMLEK@GH_PRINT_BYTESEX@ 0000000180035970     ua.obj
 0002:0000e988       ??_C@_0BA@EEGCAOJA@GH_PRINT_HEADER@ 0000000180035988     ua.obj
 0002:0000e998       ??_C@_0BI@POMEHLEF@GH_BYTESEX_HAS_HIGHBYTE@ 0000000180035998     ua.obj
 0002:0000e9b0       ??_C@_0BG@JLCFINJH@GH_PRINT_PROC_AND_ASM@ 00000001800359b0     ua.obj
 0002:0000e9c8       ??_C@_0BO@BIOHEGOL@GH_PRINT_PROC_ASM_AND_BYTESEX@ 00000001800359c8     ua.obj
 0002:0000e9e8       ??_C@_0N@BLCKHDG@GH_PRINT_ALL@ 00000001800359e8     ua.obj
 0002:0000e9f8       ??_C@_0BJ@FPAHKNKH@GH_PRINT_ALL_BUT_BYTESEX@ 00000001800359f8     ua.obj
 0002:0000ea18       ??_C@_09KBICLCDF@FCBF_CONT@ 0000000180035a18     ua.obj
 0002:0000ea28       ??_C@_0O@CJDPAKEO@FCBF_ERR_REPL@ 0000000180035a28     ua.obj
 0002:0000ea38       ??_C@_0M@JLNICAKG@FCBF_FF_LIT@ 0000000180035a38     ua.obj
 0002:0000ea48       ??_C@_0L@PKIHKHGI@FCBF_DELIM@ 0000000180035a48     ua.obj
 0002:0000ea58       ??_C@_0CA@CMAAGIH@Failure?5to?5create?5SWIG?5globals?4@ 0000000180035a58     ua.obj
 0002:0000ea78       ??_C@_04PNAHEAFM@cvar@     0000000180035a78     ua.obj
 0002:0000ea80       ??_C@_06LBPFAKJJ@o_void@   0000000180035a80     ua.obj
 0002:0000ea88       ??_C@_05KIEKCHHF@o_reg@    0000000180035a88     ua.obj
 0002:0000ea90       ??_C@_05FKNPIIDG@o_mem@    0000000180035a90     ua.obj
 0002:0000ea98       ??_C@_08FAFAHDHA@o_phrase@ 0000000180035a98     ua.obj
 0002:0000eaa8       ??_C@_07KFPPBACG@o_displ@  0000000180035aa8     ua.obj
 0002:0000eab0       ??_C@_05NLKOEONJ@o_imm@    0000000180035ab0     ua.obj
 0002:0000eab8       ??_C@_05EHINKJHF@o_far@    0000000180035ab8     ua.obj
 0002:0000eac0       ??_C@_06JMFDNCNB@o_near@   0000000180035ac0     ua.obj
 0002:0000eac8       ??_C@_0L@LKAJGDKG@o_idpspec0@ 0000000180035ac8     ua.obj
 0002:0000ead8       ??_C@_0L@KDBCFCOH@o_idpspec1@ 0000000180035ad8     ua.obj
 0002:0000eae8       ??_C@_0L@IIDPABCE@o_idpspec2@ 0000000180035ae8     ua.obj
 0002:0000eaf8       ??_C@_0L@JBCEDAGF@o_idpspec3@ 0000000180035af8     ua.obj
 0002:0000eb08       ??_C@_0L@NOGFKGKC@o_idpspec4@ 0000000180035b08     ua.obj
 0002:0000eb18       ??_C@_0L@MHHOJHOD@o_idpspec5@ 0000000180035b18     ua.obj
 0002:0000eb23       ?nullstr@?1??c_str@?$_qstring@D@@QEBAPEBDXZ@4QBDB 0000000180035b23     ua.obj
 0002:0000eb50       ??_C@_1EC@JIJBPKFM@?$AAa?$AAp?$AAi?$AA?9?$AAm?$AAs?$AA?9?$AAw?$AAi?$AAn?$AA?9?$AAc?$AAo?$AAr?$AAe@ 0000000180035b50     MSVCRT:thread_safe_statics.obj
 0002:0000eb98       ??_C@_1BK@MGMFAEKH@?$AAk?$AAe?$AAr?$AAn?$AAe?$AAl?$AA3?$AA2?$AA?4?$AAd?$AAl?$AAl@ 0000000180035b98     MSVCRT:thread_safe_statics.obj
 0002:0000ebb8       ??_C@_0BM@HLJJNPAH@InitializeConditionVariable@ 0000000180035bb8     MSVCRT:thread_safe_statics.obj
 0002:0000ebd8       ??_C@_0BJ@JEBJOJFJ@SleepConditionVariableCS@ 0000000180035bd8     MSVCRT:thread_safe_statics.obj
 0002:0000ebf8       ??_C@_0BJ@PGPPEPCC@WakeAllConditionVariable@ 0000000180035bf8     MSVCRT:thread_safe_statics.obj
 0002:0000ec20       ??_7type_info@@6B@         0000000180035c20     MSVCRT:std_type_info_static.obj
 0002:0000ec28       _pDefaultRawDllMain        0000000180035c28     MSVCRT:dll_dllmain.obj
 0002:0000ec28       _pRawDllMain               0000000180035c28     MSVCRT:dll_dllmain.obj
 0002:0000ec38       ??_7bad_alloc@std@@6B@     0000000180035c38     MSVCRT:throw_bad_alloc.obj
 0002:0000ec48       ??_C@_0P@GHFPNOJB@bad?5allocation@ 0000000180035c48     MSVCRT:throw_bad_alloc.obj
 0002:0000ec60       ??_7bad_array_new_length@std@@6B@ 0000000180035c60     MSVCRT:throw_bad_alloc.obj
 0002:0000ec70       ??_C@_0BF@KINCDENJ@bad?5array?5new?5length@ 0000000180035c70     MSVCRT:throw_bad_alloc.obj
 0002:0000ed00       _load_config_used          0000000180035d00     MSVCRT:loadcfg.obj
 0002:0000ee00       _tls_used                  0000000180035e00     MSVCRT:tlssup.obj
 0002:0000ee28       ??_R4exception@std@@6B@    0000000180035e28     ua.obj
 0002:0000ee50       ??_R3exception@std@@8      0000000180035e50     ua.obj
 0002:0000ee68       ??_R2exception@std@@8      0000000180035e68     ua.obj
 0002:0000ee78       ??_R1A@?0A@EA@exception@std@@8 0000000180035e78     ua.obj
 0002:0000eea0       ??_R4logic_error@std@@6B@  0000000180035ea0     ua.obj
 0002:0000eec8       ??_R3logic_error@std@@8    0000000180035ec8     ua.obj
 0002:0000eee0       ??_R2logic_error@std@@8    0000000180035ee0     ua.obj
 0002:0000eef8       ??_R1A@?0A@EA@logic_error@std@@8 0000000180035ef8     ua.obj
 0002:0000ef20       ??_R4out_of_range@std@@6B@ 0000000180035f20     ua.obj
 0002:0000ef48       ??_R3out_of_range@std@@8   0000000180035f48     ua.obj
 0002:0000ef60       ??_R2out_of_range@std@@8   0000000180035f60     ua.obj
 0002:0000ef80       ??_R1A@?0A@EA@out_of_range@std@@8 0000000180035f80     ua.obj
 0002:0000efa8       ??_R4type_info@@6B@        0000000180035fa8     MSVCRT:std_type_info_static.obj
 0002:0000efd0       ??_R3type_info@@8          0000000180035fd0     MSVCRT:std_type_info_static.obj
 0002:0000efe8       ??_R2type_info@@8          0000000180035fe8     MSVCRT:std_type_info_static.obj
 0002:0000eff8       ??_R1A@?0A@EA@type_info@@8 0000000180035ff8     MSVCRT:std_type_info_static.obj
 0002:0000f020       ??_R4bad_alloc@std@@6B@    0000000180036020     MSVCRT:throw_bad_alloc.obj
 0002:0000f048       ??_R3bad_alloc@std@@8      0000000180036048     MSVCRT:throw_bad_alloc.obj
 0002:0000f060       ??_R2bad_alloc@std@@8      0000000180036060     MSVCRT:throw_bad_alloc.obj
 0002:0000f078       ??_R1A@?0A@EA@bad_alloc@std@@8 0000000180036078     MSVCRT:throw_bad_alloc.obj
 0002:0000f0a0       ??_R4bad_array_new_length@std@@6B@ 00000001800360a0     MSVCRT:throw_bad_alloc.obj
 0002:0000f0c8       ??_R3bad_array_new_length@std@@8 00000001800360c8     MSVCRT:throw_bad_alloc.obj
 0002:0000f0e0       ??_R2bad_array_new_length@std@@8 00000001800360e0     MSVCRT:throw_bad_alloc.obj
 0002:0000f100       ??_R1A@?0A@EA@bad_array_new_length@std@@8 0000000180036100     MSVCRT:throw_bad_alloc.obj
 0002:0000f448       __rtc_iaa                  0000000180036448     MSVCRT:initsect.obj
 0002:0000f450       __rtc_izz                  0000000180036450     MSVCRT:initsect.obj
 0002:0000f458       __rtc_taa                  0000000180036458     MSVCRT:initsect.obj
 0002:0000f460       __rtc_tzz                  0000000180036460     MSVCRT:initsect.obj
 0002:0000f468       _tls_start                 0000000180036468     MSVCRT:tlssup.obj
 0002:0000f46c       _Init_thread_epoch         000000018003646c     MSVCRT:thread_safe_statics.obj
 0002:0000f470       _tls_end                   0000000180036470     MSVCRT:tlssup.obj
 0002:00017fb0       _CT??_R0?AVexception@std@@@8??0exception@std@@QEAA@AEBV01@@Z24 000000018003efb0     ua.obj
 0002:00017fd8       _TI3?AVout_of_range@std@@  000000018003efd8     ua.obj
 0002:00017ff8       _CTA3?AVout_of_range@std@@ 000000018003eff8     ua.obj
 0002:00018018       _CT??_R0?AVout_of_range@std@@@8??0out_of_range@std@@QEAA@AEBV01@@Z24 000000018003f018     ua.obj
 0002:00018040       _CT??_R0?AVlogic_error@std@@@8??0logic_error@std@@QEAA@AEBV01@@Z24 000000018003f040     ua.obj
 0002:00018068       _TI2?AVbad_alloc@std@@     000000018003f068     MSVCRT:throw_bad_alloc.obj
 0002:00018088       _CTA2?AVbad_alloc@std@@    000000018003f088     MSVCRT:throw_bad_alloc.obj
 0002:000180a0       _CT??_R0?AVbad_alloc@std@@@8??0bad_alloc@std@@QEAA@AEBV01@@Z24 000000018003f0a0     MSVCRT:throw_bad_alloc.obj
 0002:000180c8       _TI3?AVbad_array_new_length@std@@ 000000018003f0c8     MSVCRT:throw_bad_alloc.obj
 0002:000180e8       _CTA3?AVbad_array_new_length@std@@ 000000018003f0e8     MSVCRT:throw_bad_alloc.obj
 0002:00018108       _CT??_R0?AVbad_array_new_length@std@@@8??0bad_array_new_length@std@@QEAA@AEBV01@@Z24 000000018003f108     MSVCRT:throw_bad_alloc.obj
 0002:00018180       __IMPORT_DESCRIPTOR_ida    000000018003f180     ida:ida.dll
 0002:00018194       __IMPORT_DESCRIPTOR_python38 000000018003f194     python38:python38.dll
 0002:000181a8       __IMPORT_DESCRIPTOR_python 000000018003f1a8     python:python.dll
 0002:000181bc       __IMPORT_DESCRIPTOR_KERNEL32 000000018003f1bc     kernel32:KERNEL32.dll
 0002:000181d0       __IMPORT_DESCRIPTOR_VCRUNTIME140 000000018003f1d0     vcruntime:VCRUNTIME140.dll
 0002:000181e4       __IMPORT_DESCRIPTOR_api-ms-win-crt-stdio-l1-1-0 000000018003f1e4     ucrt:api-ms-win-crt-stdio-l1-1-0.dll
 0002:000181f8       __IMPORT_DESCRIPTOR_api-ms-win-crt-string-l1-1-0 000000018003f1f8     ucrt:api-ms-win-crt-string-l1-1-0.dll
 0002:0001820c       __IMPORT_DESCRIPTOR_api-ms-win-crt-heap-l1-1-0 000000018003f20c     ucrt:api-ms-win-crt-heap-l1-1-0.dll
 0002:00018220       __IMPORT_DESCRIPTOR_api-ms-win-crt-runtime-l1-1-0 000000018003f220     ucrt:api-ms-win-crt-runtime-l1-1-0.dll
 0002:00018234       __NULL_IMPORT_DESCRIPTOR   000000018003f234     ida:ida.dll
 0003:000041b8       __scrt_native_dllmain_reason 00000001800451b8     MSVCRT:utility.obj
 0003:000041bc       _Init_global_epoch         00000001800451bc     MSVCRT:thread_safe_statics.obj
 0003:000041c0       __security_cookie_complement 00000001800451c0     MSVCRT:gs_cookie.obj
 0003:000041c8       __security_cookie          00000001800451c8     MSVCRT:gs_cookie.obj
 0003:000041d0       __isa_available            00000001800451d0     MSVCRT:cpu_disp.obj
 0003:000041d4       __isa_enabled              00000001800451d4     MSVCRT:cpu_disp.obj
 0003:000041d8       __memcpy_nt_iters          00000001800451d8     MSVCRT:cpu_disp.obj
 0003:000041e0       __scrt_ucrt_dll_is_in_use  00000001800451e0     MSVCRT:ucrt_stubs.obj
 0003:000041e8       ??_R0?AVexception@std@@@8  00000001800451e8     ua.obj
 0003:00004210       ??_R0?AVDirectorException@Swig@@@8 0000000180045210     ua.obj
 0003:00004240       ??_R0?AVout_of_range@std@@@8 0000000180045240     ua.obj
 0003:00004268       ??_R0?AVlogic_error@std@@@8 0000000180045268     ua.obj
 0003:00004290       ??_R0?AVbad_alloc@std@@@8  0000000180045290     ua.obj
 0003:000042b8       ??_R0?AUinterr_exc_t@@@8   00000001800452b8     ua.obj
 0003:000042e0       ??_R0?AVtype_info@@@8      00000001800452e0     MSVCRT:std_type_info_static.obj
 0003:00004300       ??_R0?AVbad_array_new_length@std@@@8 0000000180045300     MSVCRT:throw_bad_alloc.obj
 0003:00004330       ?swig_mutex_own@Director@Swig@@0U_RTL_CRITICAL_SECTION@2@A 0000000180045330     ua.obj
 0003:00004600       ?_OptionsStorage@?1??__local_stdio_printf_options@@9@4_KA 0000000180045600     ua.obj
 0003:00004670       __scrt_current_native_startup_state 0000000180045670     MSVCRT:utility.obj
 0003:00004678       __scrt_native_startup_lock 0000000180045678     MSVCRT:utility.obj
 0003:00004700       _tls_index                 0000000180045700     MSVCRT:tlssup.obj
 0003:00004708       __favor                    0000000180045708     MSVCRT:cpu_disp.obj
 0003:0000470c       __scrt_debugger_hook_flag  000000018004570c     MSVCRT:utility_desktop.obj
 0003:00004c80       ?__type_info_root_node@@3U__type_info_node@@A 0000000180045c80     MSVCRT:tncleanup.obj
 0003:00004c90       ?_OptionsStorage@?1??__local_stdio_scanf_options@@9@4_KA 0000000180045c90     MSVCRT:default_local_stdio_options.obj
 0003:00004c98       __dyn_tls_init_callback    0000000180045c98     <common>

 entry point at        0001:0001b110

 Static symbols

 0000:fffb5000       .debug$S                   0000000180000000     ida:ida.dll
 0000:fffb5000       .debug$S                   0000000180000000     ida:ida.dll
 0000:fffb5000       .debug$S                   0000000180000000     ida:ida.dll
 0000:fffb5000       .debug$S                   0000000180000000     ida:ida.dll
 0000:fffb5000       .debug$S                   0000000180000000     ida:ida.dll
 0000:fffb5000       .debug$S                   0000000180000000     _ida_ua.exp
 0000:fffb5000       .debug$S                   0000000180000000     ida:ida.dll
 0000:fffb5000       .debug$S                   0000000180000000     ida:ida.dll
 0000:fffb5000       .debug$S                   0000000180000000     ida:ida.dll
 0000:fffb5000       .debug$S                   0000000180000000     ida:ida.dll
 0000:fffb5000       .debug$S                   0000000180000000     ida:ida.dll
 0000:fffb5000       .debug$S                   0000000180000000     ucrt:api-ms-win-crt-runtime-l1-1-0.dll
 0000:fffb5000       .debug$S                   0000000180000000     ucrt:api-ms-win-crt-runtime-l1-1-0.dll
 0000:fffb5000       .debug$S                   0000000180000000     ucrt:api-ms-win-crt-runtime-l1-1-0.dll
 0000:fffb5000       .debug$S                   0000000180000000     ucrt:api-ms-win-crt-runtime-l1-1-0.dll
 0000:fffb5000       .debug$S                   0000000180000000     ucrt:api-ms-win-crt-runtime-l1-1-0.dll
 0000:fffb5000       .debug$S                   0000000180000000     ucrt:api-ms-win-crt-runtime-l1-1-0.dll
 0000:fffb5000       .debug$S                   0000000180000000     ucrt:api-ms-win-crt-runtime-l1-1-0.dll
 0000:fffb5000       .debug$S                   0000000180000000     ucrt:api-ms-win-crt-runtime-l1-1-0.dll
 0000:fffb5000       .debug$S                   0000000180000000     ucrt:api-ms-win-crt-runtime-l1-1-0.dll
 0000:fffb5000       .debug$S                   0000000180000000     ucrt:api-ms-win-crt-runtime-l1-1-0.dll
 0000:fffb5000       .debug$S                   0000000180000000     ucrt:api-ms-win-crt-runtime-l1-1-0.dll
 0000:fffb5000       .debug$S                   0000000180000000     ucrt:api-ms-win-crt-runtime-l1-1-0.dll
 0000:fffb5000       .debug$S                   0000000180000000     ucrt:api-ms-win-crt-heap-l1-1-0.dll
 0000:fffb5000       .debug$S                   0000000180000000     ucrt:api-ms-win-crt-heap-l1-1-0.dll
 0000:fffb5000       .debug$S                   0000000180000000     ucrt:api-ms-win-crt-heap-l1-1-0.dll
 0000:fffb5000       .debug$S                   0000000180000000     ucrt:api-ms-win-crt-string-l1-1-0.dll
 0000:fffb5000       .debug$S                   0000000180000000     ucrt:api-ms-win-crt-string-l1-1-0.dll
 0000:fffb5000       .debug$S                   0000000180000000     ucrt:api-ms-win-crt-stdio-l1-1-0.dll
 0000:fffb5000       .debug$S                   0000000180000000     ucrt:api-ms-win-crt-stdio-l1-1-0.dll
 0000:fffb5000       .debug$S                   0000000180000000     python38:python38.dll
 0000:fffb5000       .debug$S                   0000000180000000     vcruntime:VCRUNTIME140.dll
 0000:fffb5000       .debug$S                   0000000180000000     vcruntime:VCRUNTIME140.dll
 0000:fffb5000       .debug$S                   0000000180000000     vcruntime:VCRUNTIME140.dll
 0000:fffb5000       .debug$S                   0000000180000000     vcruntime:VCRUNTIME140.dll
 0000:fffb5000       .debug$S                   0000000180000000     vcruntime:VCRUNTIME140.dll
 0000:fffb5000       .debug$S                   0000000180000000     vcruntime:VCRUNTIME140.dll
 0000:fffb5000       .debug$S                   0000000180000000     vcruntime:VCRUNTIME140.dll
 0000:fffb5000       .debug$S                   0000000180000000     vcruntime:VCRUNTIME140.dll
 0000:fffb5000       .debug$S                   0000000180000000     vcruntime:VCRUNTIME140.dll
 0000:fffb5000       .debug$S                   0000000180000000     vcruntime:VCRUNTIME140.dll
 0000:fffb5000       .debug$S                   0000000180000000     vcruntime:VCRUNTIME140.dll
 0000:fffb5000       .debug$S                   0000000180000000     python38:python38.dll
 0000:fffb5000       .debug$S                   0000000180000000     kernel32:KERNEL32.dll
 0000:fffb5000       .debug$S                   0000000180000000     kernel32:KERNEL32.dll
 0000:fffb5000       .debug$S                   0000000180000000     kernel32:KERNEL32.dll
 0000:fffb5000       .debug$S                   0000000180000000     kernel32:KERNEL32.dll
 0000:fffb5000       .debug$S                   0000000180000000     kernel32:KERNEL32.dll
 0000:fffb5000       .debug$S                   0000000180000000     kernel32:KERNEL32.dll
 0000:fffb5000       .debug$S                   0000000180000000     kernel32:KERNEL32.dll
 0000:fffb5000       .debug$S                   0000000180000000     kernel32:KERNEL32.dll
 0000:fffb5000       .debug$S                   0000000180000000     kernel32:KERNEL32.dll
 0000:fffb5000       .debug$S                   0000000180000000     kernel32:KERNEL32.dll
 0000:fffb5000       .debug$S                   0000000180000000     kernel32:KERNEL32.dll
 0000:fffb5000       .debug$S                   0000000180000000     kernel32:KERNEL32.dll
 0000:fffb5000       .debug$S                   0000000180000000     kernel32:KERNEL32.dll
 0000:fffb5000       .debug$S                   0000000180000000     kernel32:KERNEL32.dll
 0000:fffb5000       .debug$S                   0000000180000000     kernel32:KERNEL32.dll
 0000:fffb5000       .debug$S                   0000000180000000     kernel32:KERNEL32.dll
 0000:fffb5000       .debug$S                   0000000180000000     kernel32:KERNEL32.dll
 0000:fffb5000       .debug$S                   0000000180000000     kernel32:KERNEL32.dll
 0000:fffb5000       .debug$S                   0000000180000000     kernel32:KERNEL32.dll
 0000:fffb5000       .debug$S                   0000000180000000     kernel32:KERNEL32.dll
 0000:fffb5000       .debug$S                   0000000180000000     kernel32:KERNEL32.dll
 0000:fffb5000       .debug$S                   0000000180000000     kernel32:KERNEL32.dll
 0000:fffb5000       .debug$S                   0000000180000000     kernel32:KERNEL32.dll
 0000:fffb5000       .debug$S                   0000000180000000     kernel32:KERNEL32.dll
 0000:fffb5000       .debug$S                   0000000180000000     kernel32:KERNEL32.dll
 0000:fffb5000       .debug$S                   0000000180000000     kernel32:KERNEL32.dll
 0000:fffb5000       .debug$S                   0000000180000000     kernel32:KERNEL32.dll
 0000:fffb5000       .debug$S                   0000000180000000     python38:python38.dll
 0000:fffb5000       .debug$S                   0000000180000000     python38:python38.dll
 0000:fffb5000       .debug$S                   0000000180000000     python38:python38.dll
 0000:fffb5000       .debug$S                   0000000180000000     python38:python38.dll
 0000:fffb5000       .debug$S                   0000000180000000     python38:python38.dll
 0000:fffb5000       .debug$S                   0000000180000000     python38:python38.dll
 0000:fffb5000       .debug$S                   0000000180000000     python38:python38.dll
 0000:fffb5000       .debug$S                   0000000180000000     python38:python38.dll
 0000:fffb5000       .debug$S                   0000000180000000     python38:python38.dll
 0000:fffb5000       .debug$S                   0000000180000000     python38:python38.dll
 0000:fffb5000       .debug$S                   0000000180000000     python38:python38.dll
 0000:fffb5000       .debug$S                   0000000180000000     python38:python38.dll
 0000:fffb5000       .debug$S                   0000000180000000     python38:python38.dll
 0000:fffb5000       .debug$S                   0000000180000000     python38:python38.dll
 0000:fffb5000       .debug$S                   0000000180000000     python38:python38.dll
 0000:fffb5000       .debug$S                   0000000180000000     python38:python38.dll
 0000:fffb5000       .debug$S                   0000000180000000     python38:python38.dll
 0000:fffb5000       .debug$S                   0000000180000000     python38:python38.dll
 0000:fffb5000       .debug$S                   0000000180000000     python38:python38.dll
 0000:fffb5000       .debug$S                   0000000180000000     python38:python38.dll
 0000:fffb5000       .debug$S                   0000000180000000     python38:python38.dll
 0000:fffb5000       .debug$S                   0000000180000000     python38:python38.dll
 0000:fffb5000       .debug$S                   0000000180000000     python38:python38.dll
 0000:fffb5000       .debug$S                   0000000180000000     python38:python38.dll
 0000:fffb5000       .debug$S                   0000000180000000     python38:python38.dll
 0000:fffb5000       .debug$S                   0000000180000000     python38:python38.dll
 0000:fffb5000       .debug$S                   0000000180000000     python38:python38.dll
 0000:fffb5000       .debug$S                   0000000180000000     python38:python38.dll
 0000:fffb5000       .debug$S                   0000000180000000     python38:python38.dll
 0000:fffb5000       .debug$S                   0000000180000000     python38:python38.dll
 0000:fffb5000       .debug$S                   0000000180000000     python38:python38.dll
 0000:fffb5000       .debug$S                   0000000180000000     python38:python38.dll
 0000:fffb5000       .debug$S                   0000000180000000     python38:python38.dll
 0000:fffb5000       .debug$S                   0000000180000000     python38:python38.dll
 0000:fffb5000       .debug$S                   0000000180000000     python38:python38.dll
 0000:fffb5000       .debug$S                   0000000180000000     python38:python38.dll
 0000:fffb5000       .debug$S                   0000000180000000     python38:python38.dll
 0000:fffb5000       .debug$S                   0000000180000000     python38:python38.dll
 0000:fffb5000       .debug$S                   0000000180000000     python38:python38.dll
 0000:fffb5000       .debug$S                   0000000180000000     python38:python38.dll
 0000:fffb5000       .debug$S                   0000000180000000     python38:python38.dll
 0000:fffb5000       .debug$S                   0000000180000000     python38:python38.dll
 0000:fffb5000       .debug$S                   0000000180000000     python38:python38.dll
 0000:fffb5000       .debug$S                   0000000180000000     python38:python38.dll
 0000:fffb5000       .debug$S                   0000000180000000     python38:python38.dll
 0000:fffb5000       .debug$S                   0000000180000000     python38:python38.dll
 0000:fffb5000       .debug$S                   0000000180000000     python38:python38.dll
 0000:fffb5000       .debug$S                   0000000180000000     python38:python38.dll
 0000:fffb5000       .debug$S                   0000000180000000     python38:python38.dll
 0000:fffb5000       .debug$S                   0000000180000000     python38:python38.dll
 0000:fffb5000       .debug$S                   0000000180000000     python38:python38.dll
 0000:fffb5000       .debug$S                   0000000180000000     python38:python38.dll
 0000:fffb5000       .debug$S                   0000000180000000     python38:python38.dll
 0000:fffb5000       .debug$S                   0000000180000000     python38:python38.dll
 0000:fffb5000       .debug$S                   0000000180000000     python38:python38.dll
 0000:fffb5000       .debug$S                   0000000180000000     python38:python38.dll
 0000:fffb5000       .debug$S                   0000000180000000     python38:python38.dll
 0000:fffb5000       .debug$S                   0000000180000000     python38:python38.dll
 0000:fffb5000       .debug$S                   0000000180000000     python38:python38.dll
 0000:fffb5000       .debug$S                   0000000180000000     python38:python38.dll
 0000:fffb5000       .debug$S                   0000000180000000     python38:python38.dll
 0000:fffb5000       .debug$S                   0000000180000000     python38:python38.dll
 0000:fffb5000       .debug$S                   0000000180000000     python38:python38.dll
 0000:fffb5000       .debug$S                   0000000180000000     python38:python38.dll
 0000:fffb5000       .debug$S                   0000000180000000     python38:python38.dll
 0000:fffb5000       .debug$S                   0000000180000000     python38:python38.dll
 0000:fffb5000       .debug$S                   0000000180000000     python38:python38.dll
 0000:fffb5000       .debug$S                   0000000180000000     python38:python38.dll
 0000:fffb5000       .debug$S                   0000000180000000     python38:python38.dll
 0000:fffb5000       .debug$S                   0000000180000000     python38:python38.dll
 0000:fffb5000       .debug$S                   0000000180000000     python38:python38.dll
 0000:fffb5000       .debug$S                   0000000180000000     python38:python38.dll
 0000:fffb5000       .debug$S                   0000000180000000     python38:python38.dll
 0000:fffb5000       .debug$S                   0000000180000000     python38:python38.dll
 0000:fffb5000       .debug$S                   0000000180000000     python38:python38.dll
 0000:fffb5000       .debug$S                   0000000180000000     python38:python38.dll
 0000:fffb5000       .debug$S                   0000000180000000     python38:python38.dll
 0000:fffb5000       .debug$S                   0000000180000000     python38:python38.dll
 0000:fffb5000       .debug$S                   0000000180000000     python38:python38.dll
 0000:fffb5000       .debug$S                   0000000180000000     python38:python38.dll
 0000:fffb5000       .debug$S                   0000000180000000     python38:python38.dll
 0000:fffb5000       .debug$S                   0000000180000000     python38:python38.dll
 0000:fffb5000       .debug$S                   0000000180000000     python38:python38.dll
 0000:fffb5000       .debug$S                   0000000180000000     ida:ida.dll
 0000:fffb5000       .debug$S                   0000000180000000     python38:python38.dll
 0000:fffb5000       .debug$S                   0000000180000000     ida:ida.dll
 0000:fffb5000       .debug$S                   0000000180000000     python38:python38.dll
 0000:fffb5000       .debug$S                   0000000180000000     ida:ida.dll
 0000:fffb5000       .debug$S                   0000000180000000     python38:python38.dll
 0000:fffb5000       .debug$S                   0000000180000000     ida:ida.dll
 0000:fffb5000       .debug$S                   0000000180000000     python38:python38.dll
 0000:fffb5000       .debug$S                   0000000180000000     ida:ida.dll
 0000:fffb5000       .debug$S                   0000000180000000     ida:ida.dll
 0000:fffb5000       .debug$S                   0000000180000000     ida:ida.dll
 0000:fffb5000       .debug$S                   0000000180000000     ida:ida.dll
 0000:fffb5000       .debug$S                   0000000180000000     python:python.dll
 0000:fffb5000       .debug$S                   0000000180000000     python:python.dll
 0000:fffb5000       .debug$S                   0000000180000000     python:python.dll
 0000:fffb5000       .debug$S                   0000000180000000     python:python.dll
 0000:fffb5000       .debug$S                   0000000180000000     python:python.dll
 0000:fffb5000       .debug$S                   0000000180000000     ida:ida.dll
 0000:fffb5000       .debug$S                   0000000180000000     ida:ida.dll
 0000:fffb5000       .debug$S                   0000000180000000     ida:ida.dll
 0000:fffb5000       .debug$S                   0000000180000000     ida:ida.dll
 0000:fffb5000       .debug$S                   0000000180000000     ida:ida.dll
 0000:fffb5000       .debug$S                   0000000180000000     ida:ida.dll
 0000:fffb5000       .debug$S                   0000000180000000     ida:ida.dll
 0000:fffb5000       .debug$S                   0000000180000000     ida:ida.dll
 0000:fffb5000       .debug$S                   0000000180000000     ida:ida.dll
 0000:fffb5000       .debug$S                   0000000180000000     ida:ida.dll
 0000:fffb5000       .debug$S                   0000000180000000     ida:ida.dll
 0000:fffb5000       .debug$S                   0000000180000000     ida:ida.dll
 0000:fffb5000       .debug$S                   0000000180000000     ida:ida.dll
 0000:fffb5000       .debug$S                   0000000180000000     ida:ida.dll
 0000:fffb5000       .debug$S                   0000000180000000     ida:ida.dll
 0000:fffb5000       .debug$S                   0000000180000000     ida:ida.dll
 0000:fffb5000       .debug$S                   0000000180000000     ida:ida.dll
 0000:fffb5000       .debug$S                   0000000180000000     ida:ida.dll
 0001:00000000       _wrap_new_insn_t           0000000180001000 f   ua.obj
 0001:00000080       _wrap_insn_t_cs_set        0000000180001080 f   ua.obj
 0001:000001f0       _wrap_insn_t_cs_get        00000001800011f0 f   ua.obj
 0001:000002f0       _wrap_insn_t_ip_set        00000001800012f0 f   ua.obj
 0001:00000470       _wrap_insn_t_ip_get        0000000180001470 f   ua.obj
 0001:00000570       _wrap_insn_t_ea_set        0000000180001570 f   ua.obj
 0001:000006f0       _wrap_insn_t_ea_get        00000001800016f0 f   ua.obj
 0001:000007f0       _wrap_insn_t_itype_set     00000001800017f0 f   ua.obj
 0001:000009b0       _wrap_insn_t_itype_get     00000001800019b0 f   ua.obj
 0001:00000ab0       _wrap_insn_t_is_canon_insn 0000000180001ab0 f   ua.obj
 0001:00000bf0       _wrap_insn_t_get_canon_feature 0000000180001bf0 f   ua.obj
 0001:00000d40       _wrap_insn_t_get_canon_mnem 0000000180001d40 f   ua.obj
 0001:00000eb0       _wrap_insn_t_size_set      0000000180001eb0 f   ua.obj
 0001:00001070       _wrap_insn_t_size_get      0000000180002070 f   ua.obj
 0001:00001170       _wrap_insn_t_segpref_set   0000000180002170 f   ua.obj
 0001:00001350       _wrap_insn_t_segpref_get   0000000180002350 f   ua.obj
 0001:00001470       _wrap_insn_t_insnpref_set  0000000180002470 f   ua.obj
 0001:00001650       _wrap_insn_t_insnpref_get  0000000180002650 f   ua.obj
 0001:00001770       _wrap_insn_t_flags_set     0000000180002770 f   ua.obj
 0001:00001930       _wrap_insn_t_flags_get     0000000180002930 f   ua.obj
 0001:00001a30       _wrap_insn_t_ops_set       0000000180002a30 f   ua.obj
 0001:00001d20       _wrap_insn_t_ops_get       0000000180002d20 f   ua.obj
 0001:00001e30       _wrap_insn_t_is_macro      0000000180002e30 f   ua.obj
 0001:00001f50       _wrap_insn_t_is_64bit      0000000180002f50 f   ua.obj
 0001:00002050       _wrap_insn_t_get_next_byte 0000000180003050 f   ua.obj
 0001:00002170       _wrap_insn_t_get_next_word 0000000180003170 f   ua.obj
 0001:00002290       _wrap_insn_t_get_next_dword 0000000180003290 f   ua.obj
 0001:000023b0       _wrap_insn_t_get_next_qword 00000001800033b0 f   ua.obj
 0001:000024d0       _wrap_insn_t_create_op_data 00000001800034d0 f   ua.obj
 0001:000028a0       _wrap_insn_t_create_stkvar 00000001800038a0 f   ua.obj
 0001:00002bc0       _wrap_insn_t_add_cref      0000000180003bc0 f   ua.obj
 0001:00002e20       _wrap_insn_t_add_dref      0000000180003e20 f   ua.obj
 0001:00003080       _wrap_insn_t_add_off_drefs 0000000180004080 f   ua.obj
 0001:00003380       _wrap_insn_t___get_ops__   0000000180004380 f   ua.obj
 0001:00003530       _wrap_insn_t___get_operand__ 0000000180004530 f   ua.obj
 0001:000036f0       _wrap_insn_t___get_auxpref__ 00000001800046f0 f   ua.obj
 0001:00003810       _wrap_insn_t___set_auxpref__ 0000000180004810 f   ua.obj
 0001:000039e0       _wrap_insn_t_assign        00000001800049e0 f   ua.obj
 0001:00003ca0       _wrap_delete_insn_t        0000000180004ca0 f   ua.obj
 0001:00003dd0       insn_t_swigregister        0000000180004dd0 f   ua.obj
 0001:00003e60       operands_array_swiginit    0000000180004e60 f   ua.obj
 0001:00003e60       op_t_swiginit              0000000180004e60 f   ua.obj
 0001:00003e60       insn_t_swiginit            0000000180004e60 f   ua.obj
 0001:00003e70       _wrap_get_lookback         0000000180004e70 f   ua.obj
 0001:00003f00       _wrap_calc_dataseg         0000000180004f00 f   ua.obj
 0001:00004180       _wrap_map_data_ea          0000000180005180 f   ua.obj
 0001:000044f0       _wrap_map_code_ea          00000001800054f0 f   ua.obj
 0001:00004870       _wrap_map_ea               0000000180005870 f   ua.obj
 0001:00004c70       _wrap_outctx_base_t_insn_ea_set 0000000180005c70 f   ua.obj
 0001:00004df0       _wrap_outctx_base_t_insn_ea_get 0000000180005df0 f   ua.obj
 0001:00004ef0       _wrap_outctx_base_t_outbuf_set 0000000180005ef0 f   ua.obj
 0001:000050e0       _wrap_outctx_base_t_outbuf_get 00000001800060e0 f   ua.obj
 0001:00005200       _wrap_outctx_base_t_default_lnnum_set 0000000180006200 f   ua.obj
 0001:000053a0       _wrap_outctx_base_t_default_lnnum_get 00000001800063a0 f   ua.obj
 0001:000054a0       _wrap_outctx_base_t_only_main_line 00000001800064a0 f   ua.obj
 0001:000055c0       _wrap_outctx_base_t_multiline 00000001800065c0 f   ua.obj
 0001:000056e0       _wrap_outctx_base_t_force_code 00000001800066e0 f   ua.obj
 0001:00005800       _wrap_outctx_base_t_stack_view 0000000180006800 f   ua.obj
 0001:00005920       _wrap_outctx_base_t_display_voids 0000000180006920 f   ua.obj
 0001:00005a40       _wrap_outctx_base_t_set_gen_xrefs 0000000180006a40 f   ua.obj
 0001:00005bf0       _wrap_outctx_base_t_set_gen_cmt 0000000180006bf0 f   ua.obj
 0001:00005db0       _wrap_outctx_base_t_clr_gen_label 0000000180006db0 f   ua.obj
 0001:00005ed0       _wrap_outctx_base_t_set_gen_label 0000000180006ed0 f   ua.obj
 0001:00005ff0       _wrap_outctx_base_t_set_gen_demangled_label 0000000180006ff0 f   ua.obj
 0001:00006120       _wrap_outctx_base_t_set_comment_addr 0000000180007120 f   ua.obj
 0001:000062b0       _wrap_outctx_base_t_set_dlbind_opnd 00000001800072b0 f   ua.obj
 0001:000063d0       _wrap_outctx_base_t_print_label_now 00000001800073d0 f   ua.obj
 0001:00006510       _wrap_outctx_base_t_forbid_annotations 0000000180007510 f   ua.obj
 0001:00006640       _wrap_outctx_base_t_restore_ctxflags 0000000180007640 f   ua.obj
 0001:000067e0       _wrap_outctx_base_t_out_printf 00000001800077e0 f   ua.obj
 0001:00006870       _wrap_outctx_base_t_out_value 0000000180007870 f   ua.obj
 0001:00006b30       _wrap_outctx_base_t_out_symbol 0000000180007b30 f   ua.obj
 0001:00006d30       _wrap_outctx_base_t_out_chars 0000000180007d30 f   ua.obj
 0001:00006fa0       _wrap_outctx_base_t_out_spaces 0000000180007fa0 f   ua.obj
 0001:00007170       _wrap_outctx_base_t_out_line 0000000180008170 f   ua.obj
 0001:00007510       _wrap_outctx_base_t_out_keyword 0000000180008510 f   ua.obj
 0001:00007820       _wrap_outctx_base_t_out_register 0000000180008820 f   ua.obj
 0001:00007b30       _wrap_outctx_base_t_out_tagon 0000000180008b30 f   ua.obj
 0001:00007d10       _wrap_outctx_base_t_out_tagoff 0000000180008d10 f   ua.obj
 0001:00007ef0       _wrap_outctx_base_t_out_addr_tag 0000000180008ef0 f   ua.obj
 0001:00008080       _wrap_outctx_base_t_out_colored_register_line 0000000180009080 f   ua.obj
 0001:00008390       _wrap_outctx_base_t_out_char 0000000180009390 f   ua.obj
 0001:00008590       _wrap_outctx_base_t_out_btoa 0000000180009590 f   ua.obj
 0001:00008810       _wrap_outctx_base_t_out_long 0000000180009810 f   ua.obj
 0001:00008a60       _wrap_outctx_base_t_out_name_expr 0000000180009a60 f   ua.obj
 0001:00008d40       _wrap_outctx_base_t_close_comment 0000000180009d40 f   ua.obj
 0001:00008e70       _wrap_outctx_base_t_flush_outbuf 0000000180009e70 f   ua.obj
 0001:00009030       _wrap_outctx_base_t_flush_buf 000000018000a030 f   ua.obj
 0001:000093c0       _wrap_outctx_base_t_term_outctx 000000018000a3c0 f   ua.obj
 0001:000096e0       _wrap_outctx_base_t_gen_printf 000000018000a6e0 f   ua.obj
 0001:00009770       _wrap_outctx_base_t_gen_empty_line 000000018000a770 f   ua.obj
 0001:000098a0       _wrap_outctx_base_t_gen_border_line 000000018000a8a0 f   ua.obj
 0001:00009a50       _wrap_outctx_base_t_gen_cmt_line 000000018000aa50 f   ua.obj
 0001:00009ae0       _wrap_outctx_base_t_gen_collapsed_line 000000018000aae0 f   ua.obj
 0001:00009b70       _wrap_outctx_base_t_gen_block_cmt 000000018000ab70 f   ua.obj
 0001:00009f10       _wrap_outctx_base_t_setup_outctx 000000018000af10 f   ua.obj
 0001:0000a280       _wrap_outctx_base_t_retrieve_cmt 000000018000b280 f   ua.obj
 0001:0000a3c0       _wrap_outctx_base_t_retrieve_name 000000018000b3c0 f   ua.obj
 0001:0000a6f0       _wrap_outctx_base_t_gen_xref_lines 000000018000b6f0 f   ua.obj
 0001:0000a820       _wrap_outctx_base_t_init_lines_array 000000018000b820 f   ua.obj
 0001:0000aaa0       _wrap_outctx_base_t_get_stkvar 000000018000baa0 f   ua.obj
 0001:0000af30       SwigPyObject_repr2         000000018000bf30 f   ua.obj
 0001:0000af40       _wrap_outctx_base_t_gen_empty_line_without_annotations 000000018000bf40 f   ua.obj
 0001:0000b080       SwigPyObject_append        000000018000c080 f   ua.obj
 0001:0000b0e0       outctx_base_t_swigregister 000000018000c0e0 f   ua.obj
 0001:0000b170       SwigPyObject_next          000000018000c170 f   ua.obj
 0001:0000b190       _wrap_outctx_t_bin_ea_set  000000018000c190 f   ua.obj
 0001:0000b310       SwigPyObject_disown        000000018000c310 f   ua.obj
 0001:0000b330       SwigPyObject_acquire       000000018000c330 f   ua.obj
 0001:0000b350       SwigPyObject_own           000000018000c350 f   ua.obj
 0001:0000b400       _wrap_outctx_t_bin_ea_get  000000018000c400 f   ua.obj
 0001:0000b500       _wrap_outctx_t_bin_state_set 000000018000c500 f   ua.obj
 0001:0000b6e0       _wrap_outctx_t_bin_state_get 000000018000c6e0 f   ua.obj
 0001:0000b800       _wrap_outctx_t_gl_bpsize_set 000000018000c800 f   ua.obj
 0001:0000b9a0       _wrap_outctx_t_gl_bpsize_get 000000018000c9a0 f   ua.obj
 0001:0000baa0       _wrap_outctx_t_bin_width_set 000000018000caa0 f   ua.obj
 0001:0000bc40       _wrap_outctx_t_bin_width_get 000000018000cc40 f   ua.obj
 0001:0000bd40       _wrap_outctx_t_insn_set    000000018000cd40 f   ua.obj
 0001:0000bfc0       _wrap_outctx_t_insn_get    000000018000cfc0 f   ua.obj
 0001:0000c0d0       _wrap_outctx_t_curlabel_set 000000018000d0d0 f   ua.obj
 0001:0000c2c0       _wrap_outctx_t_curlabel_get 000000018000d2c0 f   ua.obj
 0001:0000c3e0       _wrap_outctx_t_wif_set     000000018000d3e0 f   ua.obj
 0001:0000c5f0       _wrap_outctx_t_wif_get     000000018000d5f0 f   ua.obj
 0001:0000c700       _wrap_outctx_t_setup_outctx 000000018000d700 f   ua.obj
 0001:0000ca70       _wrap_outctx_t_retrieve_cmt 000000018000da70 f   ua.obj
 0001:0000cbb0       _wrap_outctx_t_retrieve_name 000000018000dbb0 f   ua.obj
 0001:0000cee0       _wrap_outctx_t_gen_xref_lines 000000018000dee0 f   ua.obj
 0001:0000d010       _wrap_outctx_t_out_mnem    000000018000e010 f   ua.obj
 0001:0000d390       _wrap_outctx_t_out_custom_mnem 000000018000e390 f   ua.obj
 0001:0000d8b0       _wrap_outctx_t_out_mnemonic 000000018000e8b0 f   ua.obj
 0001:0000d9d0       _wrap_outctx_t_out_one_operand 000000018000e9d0 f   ua.obj
 0001:0000db90       _wrap_outctx_t_out_immchar_cmts 000000018000eb90 f   ua.obj
 0001:0000dcb0       _wrap_outctx_t_gen_func_header 000000018000ecb0 f   ua.obj
 0001:0000ded0       _wrap_outctx_t_gen_func_footer 000000018000eed0 f   ua.obj
 0001:0000e0f0       _wrap_outctx_t_out_data    000000018000f0f0 f   ua.obj
 0001:0000e280       _wrap_outctx_t_out_specea  000000018000f280 f   ua.obj
 0001:0000e460       _wrap_outctx_t_gen_header_extra 000000018000f460 f   ua.obj
 0001:0000e580       _wrap_outctx_t_gen_header  000000018000f580 f   ua.obj
 0001:0000eab0       outctx_t_swigregister      000000018000fab0 f   ua.obj
 0001:0000eb40       _wrap_create_outctx        000000018000fb40 f   ua.obj
 0001:0000ed20       _wrap_print_insn_mnem      000000018000fd20 f   ua.obj
 0001:0000ee80       _wrap_get_dtype_flag       000000018000fe80 f   ua.obj
 0001:0000ef90       _wrap_get_dtype_size       000000018000ff90 f   ua.obj
 0001:0000f0b0       _wrap_create_insn          00000001800100b0 f   ua.obj
 0001:0000f270       _wrap_decode_insn          0000000180010270 f   ua.obj
 0001:0000f420       _wrap_can_decode           0000000180010420 f   ua.obj
 0001:0000f510       _wrap_print_operand        0000000180010510 f   ua.obj
 0001:0000f840       _wrap_decode_prev_insn     0000000180010840 f   ua.obj
 0001:0000f9f0       _wrap_guess_table_address  00000001800109f0 f   ua.obj
 0001:0000fb50       _wrap_guess_table_size     0000000180010b50 f   ua.obj
 0001:0000fd20       _wrap_decode_preceding_insn 0000000180010d20 f   ua.obj
 0001:0000ff20       _wrap_construct_macro      0000000180010f20 f   ua.obj
 0001:00010120       _wrap_get_dtype_by_size    0000000180011120 f   ua.obj
 0001:00010210       _wrap_get_immvals          0000000180011210 f   ua.obj
 0001:00010520       _wrap_operands_array_data_get 0000000180011520 f   ua.obj
 0001:00010630       _wrap_new_operands_array   0000000180011630 f   ua.obj
 0001:00010780       _wrap_get_printable_immvals 0000000180011780 f   ua.obj
 0001:00010aa0       _wrap_operands_array___len__ 0000000180011aa0 f   ua.obj
 0001:00010bb0       _wrap_insn_t__from_ptrval__ 0000000180011bb0 f   ua.obj
 0001:00010c00       _wrap_operands_array___getitem__ 0000000180011c00 f   ua.obj
 0001:00010e00       _wrap_op_t__from_ptrval__  0000000180011e00 f   ua.obj
 0001:00010e50       _wrap_outctx_base_t__from_ptrval__ 0000000180011e50 f   ua.obj
 0001:00010ea0       _wrap_operands_array___setitem__ 0000000180011ea0 f   ua.obj
 0001:000111b0       _wrap_outctx_t__from_ptrval__ 00000001800121b0 f   ua.obj
 0001:00011200       _wrap_delete_operands_array 0000000180012200 f   ua.obj
 0001:00011330       operands_array_swigregister 0000000180012330 f   ua.obj
 0001:000113c0       _wrap_op_t_n_set           00000001800123c0 f   ua.obj
 0001:00011570       _wrap_op_t_n_get           0000000180012570 f   ua.obj
 0001:00011670       _wrap_op_t_type_set        0000000180012670 f   ua.obj
 0001:00011830       _wrap_op_t_type_get        0000000180012830 f   ua.obj
 0001:00011930       _p_bytevec_tTo_p_qvectorT_unsigned_char_t 0000000180012930 f   ua.obj
 0001:00011930       _p_relobj_tTo_p_qvectorT_unsigned_char_t 0000000180012930 f   ua.obj
 0001:00011930       _p_reloc_info_tTo_p_qvectorT_unsigned_char_t 0000000180012930 f   ua.obj
 0001:00011930       _p_outctx_tTo_p_outctx_base_t 0000000180012930 f   ua.obj
 0001:00011940       _wrap_op_t_offb_set        0000000180012940 f   ua.obj
 0001:00011b00       _wrap_op_t_offb_get        0000000180012b00 f   ua.obj
 0001:00011c00       _wrap_op_t_offo_set        0000000180012c00 f   ua.obj
 0001:00011dc0       _wrap_op_t_offo_get        0000000180012dc0 f   ua.obj
 0001:00011ec0       _wrap_op_t_flags_set       0000000180012ec0 f   ua.obj
 0001:00012080       _wrap_op_t_flags_get       0000000180013080 f   ua.obj
 0001:00012180       _wrap_op_t_set_shown       0000000180013180 f   ua.obj
 0001:000122a0       _wrap_op_t_clr_shown       00000001800132a0 f   ua.obj
 0001:000123c0       _wrap_op_t_shown           00000001800133c0 f   ua.obj
 0001:000124e0       _wrap_op_t_dtype_set       00000001800134e0 f   ua.obj
 0001:000126a0       _wrap_op_t_dtype_get       00000001800136a0 f   ua.obj
 0001:000127a0       _wrap_op_t_is_reg          00000001800137a0 f   ua.obj
 0001:00012960       _wrap_op_t_is_imm          0000000180013960 f   ua.obj
 0001:00012b10       _wrap_op_t_specflag1_set   0000000180013b10 f   ua.obj
 0001:00012cd0       _wrap_op_t_specflag1_get   0000000180013cd0 f   ua.obj
 0001:00012dd0       _wrap_op_t_specflag2_set   0000000180013dd0 f   ua.obj
 0001:00012f90       _wrap_op_t_specflag2_get   0000000180013f90 f   ua.obj
 0001:00013090       _wrap_op_t_specflag3_set   0000000180014090 f   ua.obj
 0001:00013250       _wrap_op_t_specflag3_get   0000000180014250 f   ua.obj
 0001:00013350       _wrap_op_t_specflag4_set   0000000180014350 f   ua.obj
 0001:00013510       _wrap_op_t_specflag4_get   0000000180014510 f   ua.obj
 0001:00013610       _wrap_op_t___get_reg_phrase__ 0000000180014610 f   ua.obj
 0001:00013730       _wrap_op_t___set_reg_phrase__ 0000000180014730 f   ua.obj
 0001:00013900       _wrap_op_t___get_value__   0000000180014900 f   ua.obj
 0001:00013a20       _wrap_op_t___set_value__   0000000180014a20 f   ua.obj
 0001:00013ba0       _wrap_op_t___get_addr__    0000000180014ba0 f   ua.obj
 0001:00013cc0       _wrap_op_t___set_addr__    0000000180014cc0 f   ua.obj
 0001:00013e40       _wrap_op_t___get_specval__ 0000000180014e40 f   ua.obj
 0001:00013f60       _wrap_op_t___set_specval__ 0000000180014f60 f   ua.obj
 0001:000140e0       _wrap_op_t_assign          00000001800150e0 f   ua.obj
 0001:00014320       _wrap_new_op_t             0000000180015320 f   ua.obj
 0001:000143a0       _wrap_delete_op_t          00000001800153a0 f   ua.obj
 0001:000144d0       op_t_swigregister          00000001800154d0 f   ua.obj
 0001:00014560       _wrap_insn_add_cref        0000000180015560 f   ua.obj
 0001:000147e0       _wrap_insn_add_dref        00000001800157e0 f   ua.obj
 0001:00014a60       _wrap_insn_add_off_drefs   0000000180015a60 f   ua.obj
 0001:00014d80       _wrap_insn_create_stkvar   0000000180015d80 f   ua.obj
 0001:00015380       ?SWIG_AsCharArray@@YAHPEAU_object@@PEAD_K@Z 0000000180016380 f   ua.obj
 0001:00015590       ?SWIG_AsVal_int@@YAHPEAU_object@@PEAH@Z 0000000180016590 f   ua.obj
 0001:00015600       ?SWIG_AsVal_unsigned_SS_char@@YAHPEAU_object@@PEAE@Z 0000000180016600 f   ua.obj
 0001:00015680       ?SWIG_AsVal_unsigned_SS_int@@YAHPEAU_object@@PEAI@Z 0000000180016680 f   ua.obj
 0001:000156f0       ?SWIG_FromCharPtrAndSize@@YAPEAU_object@@PEBD_K@Z 00000001800166f0 f   ua.obj
 0001:00015780       ?SWIG_Python_ErrorType@@YAPEAU_object@@H@Z 0000000180016780 f   ua.obj
 0001:0001581c       $LN17                      000000018001681c     ua.obj
 0001:00015850       ?SWIG_Python_RaiseOrModifyTypeError@@YAXPEBD@Z 0000000180016850 f   ua.obj
 0001:00015910       ?SWIG_Python_SetErrorObj@@YAXPEAU_object@@0@Z 0000000180016910 f   ua.obj
 0001:00015960       ?SWIG_Python_UnpackTuple@@YA_JPEAU_object@@PEBD_J2PEAPEAU1@@Z 0000000180016960 f   ua.obj
 0001:00015b30       ?__raise_e@@YAXAEBVexception@std@@@Z 0000000180016b30 f   ua.obj
 0001:00015b70       ?__raise_ie@@YAXAEBUinterr_exc_t@@@Z 0000000180016b70 f   ua.obj
 0001:00015bc0       ?call_build_macro@lambda_t@?1??py_construct_macro@@YA_NAEAVinsn_t@@_NPEAU_object@@@Z@SA_N01@Z 0000000180016bc0 f   ua.obj
 0001:00016aa0       SWIG_InitializeModule      0000000180017aa0 f   ua.obj
 0001:00016dc0       SWIG_MangledTypeQueryModule 0000000180017dc0 f   ua.obj
 0001:00016e90       SWIG_Python_DestroyModule  0000000180017e90 f   ua.obj
 0001:00016f80       SWIG_Python_FixMethods     0000000180017f80 f   ua.obj
 0001:000171c0       SWIG_Python_GetSwigThis    00000001800181c0 f   ua.obj
 0001:00017250       SWIG_Python_InitShadowInstance 0000000180018250 f   ua.obj
 0001:00017350       SWIG_Python_NewPointerObj  0000000180018350 f   ua.obj
 0001:00017570       SWIG_Python_TypeCache      0000000180018570 f   ua.obj
 0001:000175e0       SWIG_Python_TypeQuery      00000001800185e0 f   ua.obj
 0001:00017820       SWIG_This                  0000000180018820 f   ua.obj
 0001:00017850       SWIG_TypeCheck             0000000180018850 f   ua.obj
 0001:000178f0       SWIG_TypeClientData        00000001800188f0 f   ua.obj
 0001:00017940       SwigPyClientData_New       0000000180018940 f   ua.obj
 0001:00017a50       SwigPyObject_Check         0000000180018a50 f   ua.obj
 0001:00017ad0       SwigPyObject_New           0000000180018ad0 f   ua.obj
 0001:00017b20       SwigPyObject_dealloc       0000000180018b20 f   ua.obj
 0001:00017cb0       SwigPyObject_long          0000000180018cb0 f   ua.obj
 0001:00017cc0       SwigPyObject_repr          0000000180018cc0 f   ua.obj
 0001:00017d80       SwigPyObject_richcompare   0000000180018d80 f   ua.obj
 0001:00017dd0       SwigPyObject_type          0000000180018dd0 f   ua.obj
 0001:00017f10       SwigPyPacked_Check         0000000180018f10 f   ua.obj
 0001:00017f90       SwigPyPacked_dealloc       0000000180018f90 f   ua.obj
 0001:00017fc0       SwigPyPacked_repr          0000000180018fc0 f   ua.obj
 0001:000180c0       SwigPyPacked_str           00000001800190c0 f   ua.obj
 0001:000181c0       SwigPyPacked_type          00000001800191c0 f   ua.obj
 0001:00018300       Swig_var_o_displ_get       0000000180019300 f   ua.obj
 0001:00018310       Swig_var_o_displ_set       0000000180019310 f   ua.obj
 0001:00018360       Swig_var_o_far_get         0000000180019360 f   ua.obj
 0001:00018370       Swig_var_o_far_set         0000000180019370 f   ua.obj
 0001:000183c0       Swig_var_o_idpspec0_get    00000001800193c0 f   ua.obj
 0001:000183d0       Swig_var_o_idpspec0_set    00000001800193d0 f   ua.obj
 0001:00018420       Swig_var_o_idpspec1_get    0000000180019420 f   ua.obj
 0001:00018430       Swig_var_o_idpspec1_set    0000000180019430 f   ua.obj
 0001:00018480       Swig_var_o_idpspec2_get    0000000180019480 f   ua.obj
 0001:00018490       Swig_var_o_idpspec2_set    0000000180019490 f   ua.obj
 0001:000184e0       Swig_var_o_idpspec3_get    00000001800194e0 f   ua.obj
 0001:000184f0       Swig_var_o_idpspec3_set    00000001800194f0 f   ua.obj
 0001:00018540       Swig_var_o_idpspec4_get    0000000180019540 f   ua.obj
 0001:00018550       Swig_var_o_idpspec4_set    0000000180019550 f   ua.obj
 0001:000185a0       Swig_var_o_idpspec5_get    00000001800195a0 f   ua.obj
 0001:000185b0       Swig_var_o_idpspec5_set    00000001800195b0 f   ua.obj
 0001:00018600       Swig_var_o_imm_get         0000000180019600 f   ua.obj
 0001:00018610       Swig_var_o_imm_set         0000000180019610 f   ua.obj
 0001:00018660       Swig_var_o_mem_get         0000000180019660 f   ua.obj
 0001:00018670       Swig_var_o_mem_set         0000000180019670 f   ua.obj
 0001:000186c0       Swig_var_o_near_get        00000001800196c0 f   ua.obj
 0001:000186d0       Swig_var_o_near_set        00000001800196d0 f   ua.obj
 0001:00018720       Swig_var_o_phrase_get      0000000180019720 f   ua.obj
 0001:00018730       Swig_var_o_phrase_set      0000000180019730 f   ua.obj
 0001:00018780       Swig_var_o_reg_get         0000000180019780 f   ua.obj
 0001:00018790       Swig_var_o_reg_set         0000000180019790 f   ua.obj
 0001:000187e0       Swig_var_o_void_get        00000001800197e0 f   ua.obj
 0001:000187f0       Swig_var_o_void_set        00000001800197f0 f   ua.obj
 0001:00018850       _wrap_insn_t_create_op_data__SWIG_0 0000000180019850 f   ua.obj
 0001:00018aa0       _wrap_insn_t_create_op_data__SWIG_1 0000000180019aa0 f   ua.obj
 0001:00018d20       _wrap_map_code_ea__SWIG_0  0000000180019d20 f   ua.obj
 0001:00018f00       _wrap_map_code_ea__SWIG_1  0000000180019f00 f   ua.obj
 0001:00019140       _wrap_map_data_ea__SWIG_0  000000018001a140 f   ua.obj
 0001:00019340       _wrap_map_data_ea__SWIG_1  000000018001a340 f   ua.obj
 0001:00019580       _wrap_map_ea__SWIG_0       000000018001a580 f   ua.obj
 0001:00019810       _wrap_map_ea__SWIG_1       000000018001a810 f   ua.obj
 0001:00019a50       _wrap_outctx_base_t_gen_cmt_line__varargs__ 000000018001aa50 f   ua.obj
 0001:00019c00       _wrap_outctx_base_t_gen_collapsed_line__varargs__ 000000018001ac00 f   ua.obj
 0001:00019db0       _wrap_outctx_base_t_gen_printf__varargs__ 000000018001adb0 f   ua.obj
 0001:00019fc0       _wrap_outctx_base_t_out_printf__varargs__ 000000018001afc0 f   ua.obj
 0001:0001a1b0       swig_varlink_dealloc       000000018001b1b0 f   ua.obj
 0001:0001a200       swig_varlink_getattr       000000018001b200 f   ua.obj
 0001:0001a2a0       swig_varlink_repr          000000018001b2a0 f   ua.obj
 0001:0001a2b0       swig_varlink_setattr       000000018001b2b0 f   ua.obj
 0001:0001a350       swig_varlink_str           000000018001b350 f   ua.obj
 0001:0001a968       ?__scrt_initialize_thread_safe_statics@@YAHXZ 000000018001b968 f   MSVCRT:thread_safe_statics.obj
 0001:0001aac8       ?__scrt_uninitialize_thread_safe_statics@@YAXXZ 000000018001bac8 f   MSVCRT:thread_safe_statics.obj
 0001:0001ad80       $$000000                   000000018001bd80     MSVCRT:amdsecgs.obj
 0001:0001ade0       ?dllmain_crt_dispatch@@YAHQEAUHINSTANCE__@@KQEAX@Z 000000018001bde0 f   MSVCRT:dll_dllmain.obj
 0001:0001ae30       ?dllmain_crt_process_attach@@YAHQEAUHINSTANCE__@@QEAX@Z 000000018001be30 f   MSVCRT:dll_dllmain.obj
 0001:0001af4c       ?dllmain_crt_process_detach@@YAH_N@Z 000000018001bf4c f   MSVCRT:dll_dllmain.obj
 0001:0001afdc       ?dllmain_dispatch@@YAHQEAUHINSTANCE__@@KQEAX@Z 000000018001bfdc f   MSVCRT:dll_dllmain.obj
 0001:0001b648       capture_previous_context   000000018001c648 f   MSVCRT:gs_report.obj
 0001:0001b8f0       $$000000                   000000018001c8f0     MSVCRT:guard_dispatch.obj
 0001:0001b910       _wrap_calc_dataseg$catch$5 000000018001c910 f   ua.obj
 0001:0001b91d       __catch$_wrap_calc_dataseg$5 000000018001c91d f   ua.obj
 0001:0001b943       _wrap_calc_dataseg$catch$4 000000018001c943 f   ua.obj
 0001:0001b950       __catch$_wrap_calc_dataseg$7 000000018001c950 f   ua.obj
 0001:0001b97c       _wrap_calc_dataseg$catch$3 000000018001c97c f   ua.obj
 0001:0001b989       __catch$_wrap_calc_dataseg$9 000000018001c989 f   ua.obj
 0001:0001b9a1       _wrap_calc_dataseg$catch$2 000000018001c9a1 f   ua.obj
 0001:0001b9ae       __catch$_wrap_calc_dataseg$11 000000018001c9ae f   ua.obj
 0001:0001b9c6       _wrap_calc_dataseg$catch$1 000000018001c9c6 f   ua.obj
 0001:0001b9d3       __catch$_wrap_calc_dataseg$13 000000018001c9d3 f   ua.obj
 0001:0001b9ff       _wrap_calc_dataseg$catch$0 000000018001c9ff f   ua.obj
 0001:0001ba0c       __catch$_wrap_calc_dataseg$15 000000018001ca0c f   ua.obj
 0001:0001ba40       _wrap_can_decode$catch$5   000000018001ca40 f   ua.obj
 0001:0001ba4d       __catch$_wrap_can_decode$2 000000018001ca4d f   ua.obj
 0001:0001ba73       _wrap_can_decode$catch$4   000000018001ca73 f   ua.obj
 0001:0001ba80       __catch$_wrap_can_decode$4 000000018001ca80 f   ua.obj
 0001:0001baac       _wrap_can_decode$catch$3   000000018001caac f   ua.obj
 0001:0001bab9       __catch$_wrap_can_decode$6 000000018001cab9 f   ua.obj
 0001:0001bad1       _wrap_can_decode$catch$2   000000018001cad1 f   ua.obj
 0001:0001bade       __catch$_wrap_can_decode$8 000000018001cade f   ua.obj
 0001:0001baf6       _wrap_can_decode$catch$1   000000018001caf6 f   ua.obj
 0001:0001bb03       __catch$_wrap_can_decode$10 000000018001cb03 f   ua.obj
 0001:0001bb2f       _wrap_can_decode$catch$0   000000018001cb2f f   ua.obj
 0001:0001bb3c       __catch$_wrap_can_decode$12 000000018001cb3c f   ua.obj
 0001:0001bb70       _wrap_construct_macro$catch$0 000000018001cb70 f   ua.obj
 0001:0001bb7d       __catch$_wrap_construct_macro$4 000000018001cb7d f   ua.obj
 0001:0001bba3       _wrap_construct_macro$catch$1 000000018001cba3 f   ua.obj
 0001:0001bbb0       __catch$_wrap_construct_macro$6 000000018001cbb0 f   ua.obj
 0001:0001bbdc       _wrap_construct_macro$catch$2 000000018001cbdc f   ua.obj
 0001:0001bbe9       __catch$_wrap_construct_macro$8 000000018001cbe9 f   ua.obj
 0001:0001bc01       _wrap_construct_macro$catch$3 000000018001cc01 f   ua.obj
 0001:0001bc0e       __catch$_wrap_construct_macro$10 000000018001cc0e f   ua.obj
 0001:0001bc26       _wrap_construct_macro$catch$4 000000018001cc26 f   ua.obj
 0001:0001bc33       __catch$_wrap_construct_macro$12 000000018001cc33 f   ua.obj
 0001:0001bc5f       _wrap_construct_macro$catch$5 000000018001cc5f f   ua.obj
 0001:0001bc6c       __catch$_wrap_construct_macro$14 000000018001cc6c f   ua.obj
 0001:0001bca0       _wrap_create_insn$catch$5  000000018001cca0 f   ua.obj
 0001:0001bcad       __catch$_wrap_create_insn$3 000000018001ccad f   ua.obj
 0001:0001bcd3       _wrap_create_insn$catch$4  000000018001ccd3 f   ua.obj
 0001:0001bce0       __catch$_wrap_create_insn$5 000000018001cce0 f   ua.obj
 0001:0001bd0c       _wrap_create_insn$catch$3  000000018001cd0c f   ua.obj
 0001:0001bd19       __catch$_wrap_create_insn$7 000000018001cd19 f   ua.obj
 0001:0001bd31       _wrap_create_insn$catch$2  000000018001cd31 f   ua.obj
 0001:0001bd3e       __catch$_wrap_create_insn$9 000000018001cd3e f   ua.obj
 0001:0001bd56       _wrap_create_insn$catch$1  000000018001cd56 f   ua.obj
 0001:0001bd63       __catch$_wrap_create_insn$11 000000018001cd63 f   ua.obj
 0001:0001bd8f       _wrap_create_insn$catch$0  000000018001cd8f f   ua.obj
 0001:0001bd9c       __catch$_wrap_create_insn$13 000000018001cd9c f   ua.obj
 0001:0001bdd0       _wrap_create_outctx$catch$5 000000018001cdd0 f   ua.obj
 0001:0001bddd       __catch$_wrap_create_outctx$4 000000018001cddd f   ua.obj
 0001:0001be03       _wrap_create_outctx$catch$4 000000018001ce03 f   ua.obj
 0001:0001be10       __catch$_wrap_create_outctx$6 000000018001ce10 f   ua.obj
 0001:0001be3c       _wrap_create_outctx$catch$3 000000018001ce3c f   ua.obj
 0001:0001be49       __catch$_wrap_create_outctx$8 000000018001ce49 f   ua.obj
 0001:0001be61       _wrap_create_outctx$catch$2 000000018001ce61 f   ua.obj
 0001:0001be6e       __catch$_wrap_create_outctx$10 000000018001ce6e f   ua.obj
 0001:0001be86       _wrap_create_outctx$catch$1 000000018001ce86 f   ua.obj
 0001:0001be93       __catch$_wrap_create_outctx$12 000000018001ce93 f   ua.obj
 0001:0001bebf       _wrap_create_outctx$catch$0 000000018001cebf f   ua.obj
 0001:0001becc       __catch$_wrap_create_outctx$14 000000018001cecc f   ua.obj
 0001:0001bf00       _wrap_decode_insn$catch$5  000000018001cf00 f   ua.obj
 0001:0001bf0d       __catch$_wrap_decode_insn$3 000000018001cf0d f   ua.obj
 0001:0001bf33       _wrap_decode_insn$catch$4  000000018001cf33 f   ua.obj
 0001:0001bf40       __catch$_wrap_decode_insn$5 000000018001cf40 f   ua.obj
 0001:0001bf6c       _wrap_decode_insn$catch$3  000000018001cf6c f   ua.obj
 0001:0001bf79       __catch$_wrap_decode_insn$7 000000018001cf79 f   ua.obj
 0001:0001bf91       _wrap_decode_insn$catch$2  000000018001cf91 f   ua.obj
 0001:0001bf9e       __catch$_wrap_decode_insn$9 000000018001cf9e f   ua.obj
 0001:0001bfb6       _wrap_decode_insn$catch$1  000000018001cfb6 f   ua.obj
 0001:0001bfc3       __catch$_wrap_decode_insn$11 000000018001cfc3 f   ua.obj
 0001:0001bfef       _wrap_decode_insn$catch$0  000000018001cfef f   ua.obj
 0001:0001bffc       __catch$_wrap_decode_insn$13 000000018001cffc f   ua.obj
 0001:0001c030       _wrap_decode_preceding_insn$catch$5 000000018001d030 f   ua.obj
 0001:0001c03d       __catch$_wrap_decode_preceding_insn$3 000000018001d03d f   ua.obj
 0001:0001c063       _wrap_decode_preceding_insn$catch$4 000000018001d063 f   ua.obj
 0001:0001c070       __catch$_wrap_decode_preceding_insn$5 000000018001d070 f   ua.obj
 0001:0001c09c       _wrap_decode_preceding_insn$catch$3 000000018001d09c f   ua.obj
 0001:0001c0a9       __catch$_wrap_decode_preceding_insn$7 000000018001d0a9 f   ua.obj
 0001:0001c0c1       _wrap_decode_preceding_insn$catch$2 000000018001d0c1 f   ua.obj
 0001:0001c0ce       __catch$_wrap_decode_preceding_insn$9 000000018001d0ce f   ua.obj
 0001:0001c0e6       _wrap_decode_preceding_insn$catch$1 000000018001d0e6 f   ua.obj
 0001:0001c0f3       __catch$_wrap_decode_preceding_insn$11 000000018001d0f3 f   ua.obj
 0001:0001c11f       _wrap_decode_preceding_insn$catch$0 000000018001d11f f   ua.obj
 0001:0001c12c       __catch$_wrap_decode_preceding_insn$13 000000018001d12c f   ua.obj
 0001:0001c160       _wrap_decode_prev_insn$catch$5 000000018001d160 f   ua.obj
 0001:0001c16d       __catch$_wrap_decode_prev_insn$3 000000018001d16d f   ua.obj
 0001:0001c193       _wrap_decode_prev_insn$catch$4 000000018001d193 f   ua.obj
 0001:0001c1a0       __catch$_wrap_decode_prev_insn$5 000000018001d1a0 f   ua.obj
 0001:0001c1cc       _wrap_decode_prev_insn$catch$3 000000018001d1cc f   ua.obj
 0001:0001c1d9       __catch$_wrap_decode_prev_insn$7 000000018001d1d9 f   ua.obj
 0001:0001c1f1       _wrap_decode_prev_insn$catch$2 000000018001d1f1 f   ua.obj
 0001:0001c1fe       __catch$_wrap_decode_prev_insn$9 000000018001d1fe f   ua.obj
 0001:0001c216       _wrap_decode_prev_insn$catch$1 000000018001d216 f   ua.obj
 0001:0001c223       __catch$_wrap_decode_prev_insn$11 000000018001d223 f   ua.obj
 0001:0001c24f       _wrap_decode_prev_insn$catch$0 000000018001d24f f   ua.obj
 0001:0001c25c       __catch$_wrap_decode_prev_insn$13 000000018001d25c f   ua.obj
 0001:0001c290       _wrap_delete_insn_t$catch$5 000000018001d290 f   ua.obj
 0001:0001c29d       __catch$_wrap_delete_insn_t$2 000000018001d29d f   ua.obj
 0001:0001c2c3       _wrap_delete_insn_t$catch$4 000000018001d2c3 f   ua.obj
 0001:0001c2d0       __catch$_wrap_delete_insn_t$4 000000018001d2d0 f   ua.obj
 0001:0001c2fc       _wrap_delete_insn_t$catch$3 000000018001d2fc f   ua.obj
 0001:0001c309       __catch$_wrap_delete_insn_t$6 000000018001d309 f   ua.obj
 0001:0001c321       _wrap_delete_insn_t$catch$2 000000018001d321 f   ua.obj
 0001:0001c32e       __catch$_wrap_delete_insn_t$8 000000018001d32e f   ua.obj
 0001:0001c346       _wrap_delete_insn_t$catch$1 000000018001d346 f   ua.obj
 0001:0001c353       __catch$_wrap_delete_insn_t$10 000000018001d353 f   ua.obj
 0001:0001c37f       _wrap_delete_insn_t$catch$0 000000018001d37f f   ua.obj
 0001:0001c38c       __catch$_wrap_delete_insn_t$12 000000018001d38c f   ua.obj
 0001:0001c3c0       _wrap_delete_op_t$catch$5  000000018001d3c0 f   ua.obj
 0001:0001c3cd       __catch$_wrap_delete_op_t$2 000000018001d3cd f   ua.obj
 0001:0001c3f3       _wrap_delete_op_t$catch$4  000000018001d3f3 f   ua.obj
 0001:0001c400       __catch$_wrap_delete_op_t$4 000000018001d400 f   ua.obj
 0001:0001c42c       _wrap_delete_op_t$catch$3  000000018001d42c f   ua.obj
 0001:0001c439       __catch$_wrap_delete_op_t$6 000000018001d439 f   ua.obj
 0001:0001c451       _wrap_delete_op_t$catch$2  000000018001d451 f   ua.obj
 0001:0001c45e       __catch$_wrap_delete_op_t$8 000000018001d45e f   ua.obj
 0001:0001c476       _wrap_delete_op_t$catch$1  000000018001d476 f   ua.obj
 0001:0001c483       __catch$_wrap_delete_op_t$10 000000018001d483 f   ua.obj
 0001:0001c4af       _wrap_delete_op_t$catch$0  000000018001d4af f   ua.obj
 0001:0001c4bc       __catch$_wrap_delete_op_t$12 000000018001d4bc f   ua.obj
 0001:0001c4f0       _wrap_delete_operands_array$catch$5 000000018001d4f0 f   ua.obj
 0001:0001c4fd       __catch$_wrap_delete_operands_array$2 000000018001d4fd f   ua.obj
 0001:0001c523       _wrap_delete_operands_array$catch$4 000000018001d523 f   ua.obj
 0001:0001c530       __catch$_wrap_delete_operands_array$4 000000018001d530 f   ua.obj
 0001:0001c55c       _wrap_delete_operands_array$catch$3 000000018001d55c f   ua.obj
 0001:0001c569       __catch$_wrap_delete_operands_array$6 000000018001d569 f   ua.obj
 0001:0001c581       _wrap_delete_operands_array$catch$2 000000018001d581 f   ua.obj
 0001:0001c58e       __catch$_wrap_delete_operands_array$8 000000018001d58e f   ua.obj
 0001:0001c5a6       _wrap_delete_operands_array$catch$1 000000018001d5a6 f   ua.obj
 0001:0001c5b3       __catch$_wrap_delete_operands_array$10 000000018001d5b3 f   ua.obj
 0001:0001c5df       _wrap_delete_operands_array$catch$0 000000018001d5df f   ua.obj
 0001:0001c5ec       __catch$_wrap_delete_operands_array$12 000000018001d5ec f   ua.obj
 0001:0001c620       _wrap_get_dtype_by_size$catch$5 000000018001d620 f   ua.obj
 0001:0001c62d       __catch$_wrap_get_dtype_by_size$2 000000018001d62d f   ua.obj
 0001:0001c653       _wrap_get_dtype_by_size$catch$4 000000018001d653 f   ua.obj
 0001:0001c660       __catch$_wrap_get_dtype_by_size$4 000000018001d660 f   ua.obj
 0001:0001c68c       _wrap_get_dtype_by_size$catch$3 000000018001d68c f   ua.obj
 0001:0001c699       __catch$_wrap_get_dtype_by_size$6 000000018001d699 f   ua.obj
 0001:0001c6b1       _wrap_get_dtype_by_size$catch$2 000000018001d6b1 f   ua.obj
 0001:0001c6be       __catch$_wrap_get_dtype_by_size$8 000000018001d6be f   ua.obj
 0001:0001c6d6       _wrap_get_dtype_by_size$catch$1 000000018001d6d6 f   ua.obj
 0001:0001c6e3       __catch$_wrap_get_dtype_by_size$10 000000018001d6e3 f   ua.obj
 0001:0001c70f       _wrap_get_dtype_by_size$catch$0 000000018001d70f f   ua.obj
 0001:0001c71c       __catch$_wrap_get_dtype_by_size$12 000000018001d71c f   ua.obj
 0001:0001c750       _wrap_get_dtype_flag$catch$5 000000018001d750 f   ua.obj
 0001:0001c75d       __catch$_wrap_get_dtype_flag$2 000000018001d75d f   ua.obj
 0001:0001c783       _wrap_get_dtype_flag$catch$4 000000018001d783 f   ua.obj
 0001:0001c790       __catch$_wrap_get_dtype_flag$4 000000018001d790 f   ua.obj
 0001:0001c7bc       _wrap_get_dtype_flag$catch$3 000000018001d7bc f   ua.obj
 0001:0001c7c9       __catch$_wrap_get_dtype_flag$6 000000018001d7c9 f   ua.obj
 0001:0001c7e1       _wrap_get_dtype_flag$catch$2 000000018001d7e1 f   ua.obj
 0001:0001c7ee       __catch$_wrap_get_dtype_flag$8 000000018001d7ee f   ua.obj
 0001:0001c806       _wrap_get_dtype_flag$catch$1 000000018001d806 f   ua.obj
 0001:0001c813       __catch$_wrap_get_dtype_flag$10 000000018001d813 f   ua.obj
 0001:0001c83f       _wrap_get_dtype_flag$catch$0 000000018001d83f f   ua.obj
 0001:0001c84c       __catch$_wrap_get_dtype_flag$12 000000018001d84c f   ua.obj
 0001:0001c880       _wrap_get_dtype_size$catch$5 000000018001d880 f   ua.obj
 0001:0001c88d       __catch$_wrap_get_dtype_size$2 000000018001d88d f   ua.obj
 0001:0001c8b3       _wrap_get_dtype_size$catch$4 000000018001d8b3 f   ua.obj
 0001:0001c8c0       __catch$_wrap_get_dtype_size$4 000000018001d8c0 f   ua.obj
 0001:0001c8ec       _wrap_get_dtype_size$catch$3 000000018001d8ec f   ua.obj
 0001:0001c8f9       __catch$_wrap_get_dtype_size$6 000000018001d8f9 f   ua.obj
 0001:0001c911       _wrap_get_dtype_size$catch$2 000000018001d911 f   ua.obj
 0001:0001c91e       __catch$_wrap_get_dtype_size$8 000000018001d91e f   ua.obj
 0001:0001c936       _wrap_get_dtype_size$catch$1 000000018001d936 f   ua.obj
 0001:0001c943       __catch$_wrap_get_dtype_size$10 000000018001d943 f   ua.obj
 0001:0001c96f       _wrap_get_dtype_size$catch$0 000000018001d96f f   ua.obj
 0001:0001c97c       __catch$_wrap_get_dtype_size$12 000000018001d97c f   ua.obj
 0001:0001c9b0       _wrap_get_immvals$catch$5  000000018001d9b0 f   ua.obj
 0001:0001c9bd       __catch$_wrap_get_immvals$4 000000018001d9bd f   ua.obj
 0001:0001c9e3       _wrap_get_immvals$catch$4  000000018001d9e3 f   ua.obj
 0001:0001c9f0       __catch$_wrap_get_immvals$6 000000018001d9f0 f   ua.obj
 0001:0001ca1c       _wrap_get_immvals$catch$3  000000018001da1c f   ua.obj
 0001:0001ca29       __catch$_wrap_get_immvals$8 000000018001da29 f   ua.obj
 0001:0001ca41       _wrap_get_immvals$catch$2  000000018001da41 f   ua.obj
 0001:0001ca4e       __catch$_wrap_get_immvals$10 000000018001da4e f   ua.obj
 0001:0001ca66       _wrap_get_immvals$catch$1  000000018001da66 f   ua.obj
 0001:0001ca73       __catch$_wrap_get_immvals$12 000000018001da73 f   ua.obj
 0001:0001ca9f       _wrap_get_immvals$catch$0  000000018001da9f f   ua.obj
 0001:0001caac       __catch$_wrap_get_immvals$14 000000018001daac f   ua.obj
 0001:0001cae0       _wrap_get_lookback$catch$5 000000018001dae0 f   ua.obj
 0001:0001caed       __catch$_wrap_get_lookback$1 000000018001daed f   ua.obj
 0001:0001cb13       _wrap_get_lookback$catch$4 000000018001db13 f   ua.obj
 0001:0001cb20       __catch$_wrap_get_lookback$3 000000018001db20 f   ua.obj
 0001:0001cb4c       _wrap_get_lookback$catch$3 000000018001db4c f   ua.obj
 0001:0001cb59       __catch$_wrap_get_lookback$5 000000018001db59 f   ua.obj
 0001:0001cb71       _wrap_get_lookback$catch$2 000000018001db71 f   ua.obj
 0001:0001cb7e       __catch$_wrap_get_lookback$7 000000018001db7e f   ua.obj
 0001:0001cb96       _wrap_get_lookback$catch$1 000000018001db96 f   ua.obj
 0001:0001cba3       __catch$_wrap_get_lookback$9 000000018001dba3 f   ua.obj
 0001:0001cbcf       _wrap_get_lookback$catch$0 000000018001dbcf f   ua.obj
 0001:0001cbdc       __catch$_wrap_get_lookback$11 000000018001dbdc f   ua.obj
 0001:0001cc10       _wrap_get_printable_immvals$catch$5 000000018001dc10 f   ua.obj
 0001:0001cc1d       __catch$_wrap_get_printable_immvals$4 000000018001dc1d f   ua.obj
 0001:0001cc43       _wrap_get_printable_immvals$catch$4 000000018001dc43 f   ua.obj
 0001:0001cc50       __catch$_wrap_get_printable_immvals$6 000000018001dc50 f   ua.obj
 0001:0001cc7c       _wrap_get_printable_immvals$catch$3 000000018001dc7c f   ua.obj
 0001:0001cc89       __catch$_wrap_get_printable_immvals$8 000000018001dc89 f   ua.obj
 0001:0001cca1       _wrap_get_printable_immvals$catch$2 000000018001dca1 f   ua.obj
 0001:0001ccae       __catch$_wrap_get_printable_immvals$10 000000018001dcae f   ua.obj
 0001:0001ccc6       _wrap_get_printable_immvals$catch$1 000000018001dcc6 f   ua.obj
 0001:0001ccd3       __catch$_wrap_get_printable_immvals$12 000000018001dcd3 f   ua.obj
 0001:0001ccff       _wrap_get_printable_immvals$catch$0 000000018001dcff f   ua.obj
 0001:0001cd0c       __catch$_wrap_get_printable_immvals$14 000000018001dd0c f   ua.obj
 0001:0001cd40       _wrap_guess_table_address$catch$5 000000018001dd40 f   ua.obj
 0001:0001cd4d       __catch$_wrap_guess_table_address$3 000000018001dd4d f   ua.obj
 0001:0001cd73       _wrap_guess_table_address$catch$4 000000018001dd73 f   ua.obj
 0001:0001cd80       __catch$_wrap_guess_table_address$5 000000018001dd80 f   ua.obj
 0001:0001cdac       _wrap_guess_table_address$catch$3 000000018001ddac f   ua.obj
 0001:0001cdb9       __catch$_wrap_guess_table_address$7 000000018001ddb9 f   ua.obj
 0001:0001cdd1       _wrap_guess_table_address$catch$2 000000018001ddd1 f   ua.obj
 0001:0001cdde       __catch$_wrap_guess_table_address$9 000000018001ddde f   ua.obj
 0001:0001cdf6       _wrap_guess_table_address$catch$1 000000018001ddf6 f   ua.obj
 0001:0001ce03       __catch$_wrap_guess_table_address$11 000000018001de03 f   ua.obj
 0001:0001ce2f       _wrap_guess_table_address$catch$0 000000018001de2f f   ua.obj
 0001:0001ce3c       __catch$_wrap_guess_table_address$13 000000018001de3c f   ua.obj
 0001:0001ce70       _wrap_guess_table_size$catch$5 000000018001de70 f   ua.obj
 0001:0001ce7d       __catch$_wrap_guess_table_size$4 000000018001de7d f   ua.obj
 0001:0001cea3       _wrap_guess_table_size$catch$4 000000018001dea3 f   ua.obj
 0001:0001ceb0       __catch$_wrap_guess_table_size$6 000000018001deb0 f   ua.obj
 0001:0001cedc       _wrap_guess_table_size$catch$3 000000018001dedc f   ua.obj
 0001:0001cee9       __catch$_wrap_guess_table_size$8 000000018001dee9 f   ua.obj
 0001:0001cf01       _wrap_guess_table_size$catch$2 000000018001df01 f   ua.obj
 0001:0001cf0e       __catch$_wrap_guess_table_size$10 000000018001df0e f   ua.obj
 0001:0001cf26       _wrap_guess_table_size$catch$1 000000018001df26 f   ua.obj
 0001:0001cf33       __catch$_wrap_guess_table_size$12 000000018001df33 f   ua.obj
 0001:0001cf5f       _wrap_guess_table_size$catch$0 000000018001df5f f   ua.obj
 0001:0001cf6c       __catch$_wrap_guess_table_size$14 000000018001df6c f   ua.obj
 0001:0001cfa0       _wrap_insn_add_cref$catch$5 000000018001dfa0 f   ua.obj
 0001:0001cfad       __catch$_wrap_insn_add_cref$6 000000018001dfad f   ua.obj
 0001:0001cfd3       _wrap_insn_add_cref$catch$4 000000018001dfd3 f   ua.obj
 0001:0001cfe0       __catch$_wrap_insn_add_cref$8 000000018001dfe0 f   ua.obj
 0001:0001d00c       _wrap_insn_add_cref$catch$3 000000018001e00c f   ua.obj
 0001:0001d019       __catch$_wrap_insn_add_cref$10 000000018001e019 f   ua.obj
 0001:0001d031       _wrap_insn_add_cref$catch$2 000000018001e031 f   ua.obj
 0001:0001d03e       __catch$_wrap_insn_add_cref$12 000000018001e03e f   ua.obj
 0001:0001d056       _wrap_insn_add_cref$catch$1 000000018001e056 f   ua.obj
 0001:0001d063       __catch$_wrap_insn_add_cref$14 000000018001e063 f   ua.obj
 0001:0001d08f       _wrap_insn_add_cref$catch$0 000000018001e08f f   ua.obj
 0001:0001d09c       __catch$_wrap_insn_add_cref$16 000000018001e09c f   ua.obj
 0001:0001d0d0       _wrap_insn_add_dref$catch$5 000000018001e0d0 f   ua.obj
 0001:0001d0dd       __catch$_wrap_insn_add_dref$6 000000018001e0dd f   ua.obj
 0001:0001d103       _wrap_insn_add_dref$catch$4 000000018001e103 f   ua.obj
 0001:0001d110       __catch$_wrap_insn_add_dref$8 000000018001e110 f   ua.obj
 0001:0001d13c       _wrap_insn_add_dref$catch$3 000000018001e13c f   ua.obj
 0001:0001d149       __catch$_wrap_insn_add_dref$10 000000018001e149 f   ua.obj
 0001:0001d161       _wrap_insn_add_dref$catch$2 000000018001e161 f   ua.obj
 0001:0001d16e       __catch$_wrap_insn_add_dref$12 000000018001e16e f   ua.obj
 0001:0001d186       _wrap_insn_add_dref$catch$1 000000018001e186 f   ua.obj
 0001:0001d193       __catch$_wrap_insn_add_dref$14 000000018001e193 f   ua.obj
 0001:0001d1bf       _wrap_insn_add_dref$catch$0 000000018001e1bf f   ua.obj
 0001:0001d1cc       __catch$_wrap_insn_add_dref$16 000000018001e1cc f   ua.obj
 0001:0001d200       _wrap_insn_add_off_drefs$catch$5 000000018001e200 f   ua.obj
 0001:0001d20d       __catch$_wrap_insn_add_off_drefs$7 000000018001e20d f   ua.obj
 0001:0001d233       _wrap_insn_add_off_drefs$catch$4 000000018001e233 f   ua.obj
 0001:0001d240       __catch$_wrap_insn_add_off_drefs$9 000000018001e240 f   ua.obj
 0001:0001d26c       _wrap_insn_add_off_drefs$catch$3 000000018001e26c f   ua.obj
 0001:0001d279       __catch$_wrap_insn_add_off_drefs$11 000000018001e279 f   ua.obj
 0001:0001d291       _wrap_insn_add_off_drefs$catch$2 000000018001e291 f   ua.obj
 0001:0001d29e       __catch$_wrap_insn_add_off_drefs$13 000000018001e29e f   ua.obj
 0001:0001d2b6       _wrap_insn_add_off_drefs$catch$1 000000018001e2b6 f   ua.obj
 0001:0001d2c3       __catch$_wrap_insn_add_off_drefs$15 000000018001e2c3 f   ua.obj
 0001:0001d2ef       _wrap_insn_add_off_drefs$catch$0 000000018001e2ef f   ua.obj
 0001:0001d2fc       __catch$_wrap_insn_add_off_drefs$17 000000018001e2fc f   ua.obj
 0001:0001d330       _wrap_insn_create_stkvar$catch$5 000000018001e330 f   ua.obj
 0001:0001d33d       __catch$_wrap_insn_create_stkvar$7 000000018001e33d f   ua.obj
 0001:0001d363       _wrap_insn_create_stkvar$catch$4 000000018001e363 f   ua.obj
 0001:0001d370       __catch$_wrap_insn_create_stkvar$9 000000018001e370 f   ua.obj
 0001:0001d39c       _wrap_insn_create_stkvar$catch$3 000000018001e39c f   ua.obj
 0001:0001d3a9       __catch$_wrap_insn_create_stkvar$11 000000018001e3a9 f   ua.obj
 0001:0001d3c1       _wrap_insn_create_stkvar$catch$2 000000018001e3c1 f   ua.obj
 0001:0001d3ce       __catch$_wrap_insn_create_stkvar$13 000000018001e3ce f   ua.obj
 0001:0001d3e6       _wrap_insn_create_stkvar$catch$1 000000018001e3e6 f   ua.obj
 0001:0001d3f3       __catch$_wrap_insn_create_stkvar$15 000000018001e3f3 f   ua.obj
 0001:0001d41f       _wrap_insn_create_stkvar$catch$0 000000018001e41f f   ua.obj
 0001:0001d42c       __catch$_wrap_insn_create_stkvar$17 000000018001e42c f   ua.obj
 0001:0001d460       _wrap_insn_t___get_auxpref__$catch$5 000000018001e460 f   ua.obj
 0001:0001d46d       __catch$_wrap_insn_t___get_auxpref__$2 000000018001e46d f   ua.obj
 0001:0001d493       _wrap_insn_t___get_auxpref__$catch$4 000000018001e493 f   ua.obj
 0001:0001d4a0       __catch$_wrap_insn_t___get_auxpref__$4 000000018001e4a0 f   ua.obj
 0001:0001d4cc       _wrap_insn_t___get_auxpref__$catch$3 000000018001e4cc f   ua.obj
 0001:0001d4d9       __catch$_wrap_insn_t___get_auxpref__$6 000000018001e4d9 f   ua.obj
 0001:0001d4f1       _wrap_insn_t___get_auxpref__$catch$2 000000018001e4f1 f   ua.obj
 0001:0001d4fe       __catch$_wrap_insn_t___get_auxpref__$8 000000018001e4fe f   ua.obj
 0001:0001d516       _wrap_insn_t___get_auxpref__$catch$1 000000018001e516 f   ua.obj
 0001:0001d523       __catch$_wrap_insn_t___get_auxpref__$10 000000018001e523 f   ua.obj
 0001:0001d54f       _wrap_insn_t___get_auxpref__$catch$0 000000018001e54f f   ua.obj
 0001:0001d55c       __catch$_wrap_insn_t___get_auxpref__$12 000000018001e55c f   ua.obj
 0001:0001d590       _wrap_insn_t___get_operand__$catch$5 000000018001e590 f   ua.obj
 0001:0001d59d       __catch$_wrap_insn_t___get_operand__$3 000000018001e59d f   ua.obj
 0001:0001d5c3       _wrap_insn_t___get_operand__$catch$4 000000018001e5c3 f   ua.obj
 0001:0001d5d0       __catch$_wrap_insn_t___get_operand__$5 000000018001e5d0 f   ua.obj
 0001:0001d5fc       _wrap_insn_t___get_operand__$catch$3 000000018001e5fc f   ua.obj
 0001:0001d609       __catch$_wrap_insn_t___get_operand__$7 000000018001e609 f   ua.obj
 0001:0001d621       _wrap_insn_t___get_operand__$catch$2 000000018001e621 f   ua.obj
 0001:0001d62e       __catch$_wrap_insn_t___get_operand__$9 000000018001e62e f   ua.obj
 0001:0001d646       _wrap_insn_t___get_operand__$catch$1 000000018001e646 f   ua.obj
 0001:0001d653       __catch$_wrap_insn_t___get_operand__$11 000000018001e653 f   ua.obj
 0001:0001d67f       _wrap_insn_t___get_operand__$catch$0 000000018001e67f f   ua.obj
 0001:0001d68c       __catch$_wrap_insn_t___get_operand__$13 000000018001e68c f   ua.obj
 0001:0001d6c0       _wrap_insn_t___get_ops__$catch$5 000000018001e6c0 f   ua.obj
 0001:0001d6cd       __catch$_wrap_insn_t___get_ops__$2 000000018001e6cd f   ua.obj
 0001:0001d6f3       _wrap_insn_t___get_ops__$catch$6 000000018001e6f3 f   ua.obj
 0001:0001d700       __catch$_wrap_insn_t___get_ops__$4 000000018001e700 f   ua.obj
 0001:0001d72c       _wrap_insn_t___get_ops__$catch$7 000000018001e72c f   ua.obj
 0001:0001d739       __catch$_wrap_insn_t___get_ops__$6 000000018001e739 f   ua.obj
 0001:0001d751       _wrap_insn_t___get_ops__$catch$8 000000018001e751 f   ua.obj
 0001:0001d75e       __catch$_wrap_insn_t___get_ops__$8 000000018001e75e f   ua.obj
 0001:0001d776       _wrap_insn_t___get_ops__$catch$9 000000018001e776 f   ua.obj
 0001:0001d783       __catch$_wrap_insn_t___get_ops__$10 000000018001e783 f   ua.obj
 0001:0001d7af       _wrap_insn_t___get_ops__$catch$10 000000018001e7af f   ua.obj
 0001:0001d7bc       __catch$_wrap_insn_t___get_ops__$12 000000018001e7bc f   ua.obj
 0001:0001d7f0       _wrap_insn_t___get_ops__$dtor$0 000000018001e7f0 f   ua.obj
 0001:0001d800       _wrap_insn_t___set_auxpref__$catch$5 000000018001e800 f   ua.obj
 0001:0001d80d       __catch$_wrap_insn_t___set_auxpref__$3 000000018001e80d f   ua.obj
 0001:0001d833       _wrap_insn_t___set_auxpref__$catch$4 000000018001e833 f   ua.obj
 0001:0001d840       __catch$_wrap_insn_t___set_auxpref__$5 000000018001e840 f   ua.obj
 0001:0001d86c       _wrap_insn_t___set_auxpref__$catch$3 000000018001e86c f   ua.obj
 0001:0001d879       __catch$_wrap_insn_t___set_auxpref__$7 000000018001e879 f   ua.obj
 0001:0001d891       _wrap_insn_t___set_auxpref__$catch$2 000000018001e891 f   ua.obj
 0001:0001d89e       __catch$_wrap_insn_t___set_auxpref__$9 000000018001e89e f   ua.obj
 0001:0001d8b6       _wrap_insn_t___set_auxpref__$catch$1 000000018001e8b6 f   ua.obj
 0001:0001d8c3       __catch$_wrap_insn_t___set_auxpref__$11 000000018001e8c3 f   ua.obj
 0001:0001d8ef       _wrap_insn_t___set_auxpref__$catch$0 000000018001e8ef f   ua.obj
 0001:0001d8fc       __catch$_wrap_insn_t___set_auxpref__$13 000000018001e8fc f   ua.obj
 0001:0001d930       _wrap_insn_t__from_ptrval__$catch$5 000000018001e930 f   ua.obj
 0001:0001d93d       __catch$_wrap_insn_t__from_ptrval__$1 000000018001e93d f   ua.obj
 0001:0001d963       _wrap_insn_t__from_ptrval__$catch$4 000000018001e963 f   ua.obj
 0001:0001d970       __catch$_wrap_insn_t__from_ptrval__$3 000000018001e970 f   ua.obj
 0001:0001d99c       _wrap_insn_t__from_ptrval__$catch$3 000000018001e99c f   ua.obj
 0001:0001d9a9       __catch$_wrap_insn_t__from_ptrval__$5 000000018001e9a9 f   ua.obj
 0001:0001d9c1       _wrap_insn_t__from_ptrval__$catch$2 000000018001e9c1 f   ua.obj
 0001:0001d9ce       __catch$_wrap_insn_t__from_ptrval__$7 000000018001e9ce f   ua.obj
 0001:0001d9e6       _wrap_insn_t__from_ptrval__$catch$1 000000018001e9e6 f   ua.obj
 0001:0001d9f3       __catch$_wrap_insn_t__from_ptrval__$9 000000018001e9f3 f   ua.obj
 0001:0001da1f       _wrap_insn_t__from_ptrval__$catch$0 000000018001ea1f f   ua.obj
 0001:0001da2c       __catch$_wrap_insn_t__from_ptrval__$11 000000018001ea2c f   ua.obj
 0001:0001da60       _wrap_insn_t_add_cref$catch$5 000000018001ea60 f   ua.obj
 0001:0001da6d       __catch$_wrap_insn_t_add_cref$5 000000018001ea6d f   ua.obj
 0001:0001da93       _wrap_insn_t_add_cref$catch$4 000000018001ea93 f   ua.obj
 0001:0001daa0       __catch$_wrap_insn_t_add_cref$7 000000018001eaa0 f   ua.obj
 0001:0001dacc       _wrap_insn_t_add_cref$catch$3 000000018001eacc f   ua.obj
 0001:0001dad9       __catch$_wrap_insn_t_add_cref$9 000000018001ead9 f   ua.obj
 0001:0001daf1       _wrap_insn_t_add_cref$catch$2 000000018001eaf1 f   ua.obj
 0001:0001dafe       __catch$_wrap_insn_t_add_cref$11 000000018001eafe f   ua.obj
 0001:0001db16       _wrap_insn_t_add_cref$catch$1 000000018001eb16 f   ua.obj
 0001:0001db23       __catch$_wrap_insn_t_add_cref$13 000000018001eb23 f   ua.obj
 0001:0001db4f       _wrap_insn_t_add_cref$catch$0 000000018001eb4f f   ua.obj
 0001:0001db5c       __catch$_wrap_insn_t_add_cref$15 000000018001eb5c f   ua.obj
 0001:0001db90       _wrap_insn_t_add_dref$catch$5 000000018001eb90 f   ua.obj
 0001:0001db9d       __catch$_wrap_insn_t_add_dref$5 000000018001eb9d f   ua.obj
 0001:0001dbc3       _wrap_insn_t_add_dref$catch$4 000000018001ebc3 f   ua.obj
 0001:0001dbd0       __catch$_wrap_insn_t_add_dref$7 000000018001ebd0 f   ua.obj
 0001:0001dbfc       _wrap_insn_t_add_dref$catch$3 000000018001ebfc f   ua.obj
 0001:0001dc09       __catch$_wrap_insn_t_add_dref$9 000000018001ec09 f   ua.obj
 0001:0001dc21       _wrap_insn_t_add_dref$catch$2 000000018001ec21 f   ua.obj
 0001:0001dc2e       __catch$_wrap_insn_t_add_dref$11 000000018001ec2e f   ua.obj
 0001:0001dc46       _wrap_insn_t_add_dref$catch$1 000000018001ec46 f   ua.obj
 0001:0001dc53       __catch$_wrap_insn_t_add_dref$13 000000018001ec53 f   ua.obj
 0001:0001dc7f       _wrap_insn_t_add_dref$catch$0 000000018001ec7f f   ua.obj
 0001:0001dc8c       __catch$_wrap_insn_t_add_dref$15 000000018001ec8c f   ua.obj
 0001:0001dcc0       _wrap_insn_t_add_off_drefs$catch$5 000000018001ecc0 f   ua.obj
 0001:0001dccd       __catch$_wrap_insn_t_add_off_drefs$6 000000018001eccd f   ua.obj
 0001:0001dcf3       _wrap_insn_t_add_off_drefs$catch$4 000000018001ecf3 f   ua.obj
 0001:0001dd00       __catch$_wrap_insn_t_add_off_drefs$8 000000018001ed00 f   ua.obj
 0001:0001dd2c       _wrap_insn_t_add_off_drefs$catch$3 000000018001ed2c f   ua.obj
 0001:0001dd39       __catch$_wrap_insn_t_add_off_drefs$10 000000018001ed39 f   ua.obj
 0001:0001dd51       _wrap_insn_t_add_off_drefs$catch$2 000000018001ed51 f   ua.obj
 0001:0001dd5e       __catch$_wrap_insn_t_add_off_drefs$12 000000018001ed5e f   ua.obj
 0001:0001dd76       _wrap_insn_t_add_off_drefs$catch$1 000000018001ed76 f   ua.obj
 0001:0001dd83       __catch$_wrap_insn_t_add_off_drefs$14 000000018001ed83 f   ua.obj
 0001:0001ddaf       _wrap_insn_t_add_off_drefs$catch$0 000000018001edaf f   ua.obj
 0001:0001ddbc       __catch$_wrap_insn_t_add_off_drefs$16 000000018001edbc f   ua.obj
 0001:0001ddf0       _wrap_insn_t_assign$catch$5 000000018001edf0 f   ua.obj
 0001:0001ddfd       __catch$_wrap_insn_t_assign$4 000000018001edfd f   ua.obj
 0001:0001de23       _wrap_insn_t_assign$catch$4 000000018001ee23 f   ua.obj
 0001:0001de30       __catch$_wrap_insn_t_assign$6 000000018001ee30 f   ua.obj
 0001:0001de5c       _wrap_insn_t_assign$catch$3 000000018001ee5c f   ua.obj
 0001:0001de69       __catch$_wrap_insn_t_assign$8 000000018001ee69 f   ua.obj
 0001:0001de81       _wrap_insn_t_assign$catch$2 000000018001ee81 f   ua.obj
 0001:0001de8e       __catch$_wrap_insn_t_assign$10 000000018001ee8e f   ua.obj
 0001:0001dea6       _wrap_insn_t_assign$catch$1 000000018001eea6 f   ua.obj
 0001:0001deb3       __catch$_wrap_insn_t_assign$12 000000018001eeb3 f   ua.obj
 0001:0001dedf       _wrap_insn_t_assign$catch$0 000000018001eedf f   ua.obj
 0001:0001deec       __catch$_wrap_insn_t_assign$14 000000018001eeec f   ua.obj
 0001:0001df20       _wrap_insn_t_create_op_data__SWIG_0$catch$5 000000018001ef20 f   ua.obj
 0001:0001df2d       __catch$_wrap_insn_t_create_op_data__SWIG_0$5 000000018001ef2d f   ua.obj
 0001:0001df53       _wrap_insn_t_create_op_data__SWIG_0$catch$4 000000018001ef53 f   ua.obj
 0001:0001df60       __catch$_wrap_insn_t_create_op_data__SWIG_0$7 000000018001ef60 f   ua.obj
 0001:0001df8c       _wrap_insn_t_create_op_data__SWIG_0$catch$3 000000018001ef8c f   ua.obj
 0001:0001df99       __catch$_wrap_insn_t_create_op_data__SWIG_0$9 000000018001ef99 f   ua.obj
 0001:0001dfb1       _wrap_insn_t_create_op_data__SWIG_0$catch$2 000000018001efb1 f   ua.obj
 0001:0001dfbe       __catch$_wrap_insn_t_create_op_data__SWIG_0$11 000000018001efbe f   ua.obj
 0001:0001dfd6       _wrap_insn_t_create_op_data__SWIG_0$catch$1 000000018001efd6 f   ua.obj
 0001:0001dfe3       __catch$_wrap_insn_t_create_op_data__SWIG_0$13 000000018001efe3 f   ua.obj
 0001:0001e00f       _wrap_insn_t_create_op_data__SWIG_0$catch$0 000000018001f00f f   ua.obj
 0001:0001e01c       __catch$_wrap_insn_t_create_op_data__SWIG_0$15 000000018001f01c f   ua.obj
 0001:0001e050       _wrap_insn_t_create_op_data__SWIG_1$catch$5 000000018001f050 f   ua.obj
 0001:0001e05d       __catch$_wrap_insn_t_create_op_data__SWIG_1$5 000000018001f05d f   ua.obj
 0001:0001e083       _wrap_insn_t_create_op_data__SWIG_1$catch$4 000000018001f083 f   ua.obj
 0001:0001e090       __catch$_wrap_insn_t_create_op_data__SWIG_1$7 000000018001f090 f   ua.obj
 0001:0001e0bc       _wrap_insn_t_create_op_data__SWIG_1$catch$3 000000018001f0bc f   ua.obj
 0001:0001e0c9       __catch$_wrap_insn_t_create_op_data__SWIG_1$9 000000018001f0c9 f   ua.obj
 0001:0001e0e1       _wrap_insn_t_create_op_data__SWIG_1$catch$2 000000018001f0e1 f   ua.obj
 0001:0001e0ee       __catch$_wrap_insn_t_create_op_data__SWIG_1$11 000000018001f0ee f   ua.obj
 0001:0001e106       _wrap_insn_t_create_op_data__SWIG_1$catch$1 000000018001f106 f   ua.obj
 0001:0001e113       __catch$_wrap_insn_t_create_op_data__SWIG_1$13 000000018001f113 f   ua.obj
 0001:0001e13f       _wrap_insn_t_create_op_data__SWIG_1$catch$0 000000018001f13f f   ua.obj
 0001:0001e14c       __catch$_wrap_insn_t_create_op_data__SWIG_1$15 000000018001f14c f   ua.obj
 0001:0001e180       _wrap_insn_t_create_stkvar$catch$5 000000018001f180 f   ua.obj
 0001:0001e18d       __catch$_wrap_insn_t_create_stkvar$6 000000018001f18d f   ua.obj
 0001:0001e1b3       _wrap_insn_t_create_stkvar$catch$4 000000018001f1b3 f   ua.obj
 0001:0001e1c0       __catch$_wrap_insn_t_create_stkvar$8 000000018001f1c0 f   ua.obj
 0001:0001e1ec       _wrap_insn_t_create_stkvar$catch$3 000000018001f1ec f   ua.obj
 0001:0001e1f9       __catch$_wrap_insn_t_create_stkvar$10 000000018001f1f9 f   ua.obj
 0001:0001e211       _wrap_insn_t_create_stkvar$catch$2 000000018001f211 f   ua.obj
 0001:0001e21e       __catch$_wrap_insn_t_create_stkvar$12 000000018001f21e f   ua.obj
 0001:0001e236       _wrap_insn_t_create_stkvar$catch$1 000000018001f236 f   ua.obj
 0001:0001e243       __catch$_wrap_insn_t_create_stkvar$14 000000018001f243 f   ua.obj
 0001:0001e26f       _wrap_insn_t_create_stkvar$catch$0 000000018001f26f f   ua.obj
 0001:0001e27c       __catch$_wrap_insn_t_create_stkvar$16 000000018001f27c f   ua.obj
 0001:0001e2b0       _wrap_insn_t_get_canon_feature$catch$5 000000018001f2b0 f   ua.obj
 0001:0001e2bd       __catch$_wrap_insn_t_get_canon_feature$2 000000018001f2bd f   ua.obj
 0001:0001e2e3       _wrap_insn_t_get_canon_feature$catch$4 000000018001f2e3 f   ua.obj
 0001:0001e2f0       __catch$_wrap_insn_t_get_canon_feature$4 000000018001f2f0 f   ua.obj
 0001:0001e31c       _wrap_insn_t_get_canon_feature$catch$3 000000018001f31c f   ua.obj
 0001:0001e329       __catch$_wrap_insn_t_get_canon_feature$6 000000018001f329 f   ua.obj
 0001:0001e341       _wrap_insn_t_get_canon_feature$catch$2 000000018001f341 f   ua.obj
 0001:0001e34e       __catch$_wrap_insn_t_get_canon_feature$8 000000018001f34e f   ua.obj
 0001:0001e366       _wrap_insn_t_get_canon_feature$catch$1 000000018001f366 f   ua.obj
 0001:0001e373       __catch$_wrap_insn_t_get_canon_feature$10 000000018001f373 f   ua.obj
 0001:0001e39f       _wrap_insn_t_get_canon_feature$catch$0 000000018001f39f f   ua.obj
 0001:0001e3ac       __catch$_wrap_insn_t_get_canon_feature$12 000000018001f3ac f   ua.obj
 0001:0001e3e0       _wrap_insn_t_get_canon_mnem$catch$5 000000018001f3e0 f   ua.obj
 0001:0001e3ed       __catch$_wrap_insn_t_get_canon_mnem$2 000000018001f3ed f   ua.obj
 0001:0001e413       _wrap_insn_t_get_canon_mnem$catch$4 000000018001f413 f   ua.obj
 0001:0001e420       __catch$_wrap_insn_t_get_canon_mnem$4 000000018001f420 f   ua.obj
 0001:0001e44c       _wrap_insn_t_get_canon_mnem$catch$3 000000018001f44c f   ua.obj
 0001:0001e459       __catch$_wrap_insn_t_get_canon_mnem$6 000000018001f459 f   ua.obj
 0001:0001e471       _wrap_insn_t_get_canon_mnem$catch$2 000000018001f471 f   ua.obj
 0001:0001e47e       __catch$_wrap_insn_t_get_canon_mnem$8 000000018001f47e f   ua.obj
 0001:0001e496       _wrap_insn_t_get_canon_mnem$catch$1 000000018001f496 f   ua.obj
 0001:0001e4a3       __catch$_wrap_insn_t_get_canon_mnem$10 000000018001f4a3 f   ua.obj
 0001:0001e4cf       _wrap_insn_t_get_canon_mnem$catch$0 000000018001f4cf f   ua.obj
 0001:0001e4dc       __catch$_wrap_insn_t_get_canon_mnem$12 000000018001f4dc f   ua.obj
 0001:0001e510       _wrap_insn_t_get_next_byte$catch$5 000000018001f510 f   ua.obj
 0001:0001e51d       __catch$_wrap_insn_t_get_next_byte$2 000000018001f51d f   ua.obj
 0001:0001e543       _wrap_insn_t_get_next_byte$catch$4 000000018001f543 f   ua.obj
 0001:0001e550       __catch$_wrap_insn_t_get_next_byte$4 000000018001f550 f   ua.obj
 0001:0001e57c       _wrap_insn_t_get_next_byte$catch$3 000000018001f57c f   ua.obj
 0001:0001e589       __catch$_wrap_insn_t_get_next_byte$6 000000018001f589 f   ua.obj
 0001:0001e5a1       _wrap_insn_t_get_next_byte$catch$2 000000018001f5a1 f   ua.obj
 0001:0001e5ae       __catch$_wrap_insn_t_get_next_byte$8 000000018001f5ae f   ua.obj
 0001:0001e5c6       _wrap_insn_t_get_next_byte$catch$1 000000018001f5c6 f   ua.obj
 0001:0001e5d3       __catch$_wrap_insn_t_get_next_byte$10 000000018001f5d3 f   ua.obj
 0001:0001e5ff       _wrap_insn_t_get_next_byte$catch$0 000000018001f5ff f   ua.obj
 0001:0001e60c       __catch$_wrap_insn_t_get_next_byte$12 000000018001f60c f   ua.obj
 0001:0001e640       _wrap_insn_t_get_next_dword$catch$5 000000018001f640 f   ua.obj
 0001:0001e64d       __catch$_wrap_insn_t_get_next_dword$2 000000018001f64d f   ua.obj
 0001:0001e673       _wrap_insn_t_get_next_dword$catch$4 000000018001f673 f   ua.obj
 0001:0001e680       __catch$_wrap_insn_t_get_next_dword$4 000000018001f680 f   ua.obj
 0001:0001e6ac       _wrap_insn_t_get_next_dword$catch$3 000000018001f6ac f   ua.obj
 0001:0001e6b9       __catch$_wrap_insn_t_get_next_dword$6 000000018001f6b9 f   ua.obj
 0001:0001e6d1       _wrap_insn_t_get_next_dword$catch$2 000000018001f6d1 f   ua.obj
 0001:0001e6de       __catch$_wrap_insn_t_get_next_dword$8 000000018001f6de f   ua.obj
 0001:0001e6f6       _wrap_insn_t_get_next_dword$catch$1 000000018001f6f6 f   ua.obj
 0001:0001e703       __catch$_wrap_insn_t_get_next_dword$10 000000018001f703 f   ua.obj
 0001:0001e72f       _wrap_insn_t_get_next_dword$catch$0 000000018001f72f f   ua.obj
 0001:0001e73c       __catch$_wrap_insn_t_get_next_dword$12 000000018001f73c f   ua.obj
 0001:0001e770       _wrap_insn_t_get_next_qword$catch$5 000000018001f770 f   ua.obj
 0001:0001e77d       __catch$_wrap_insn_t_get_next_qword$2 000000018001f77d f   ua.obj
 0001:0001e7a3       _wrap_insn_t_get_next_qword$catch$4 000000018001f7a3 f   ua.obj
 0001:0001e7b0       __catch$_wrap_insn_t_get_next_qword$4 000000018001f7b0 f   ua.obj
 0001:0001e7dc       _wrap_insn_t_get_next_qword$catch$3 000000018001f7dc f   ua.obj
 0001:0001e7e9       __catch$_wrap_insn_t_get_next_qword$6 000000018001f7e9 f   ua.obj
 0001:0001e801       _wrap_insn_t_get_next_qword$catch$2 000000018001f801 f   ua.obj
 0001:0001e80e       __catch$_wrap_insn_t_get_next_qword$8 000000018001f80e f   ua.obj
 0001:0001e826       _wrap_insn_t_get_next_qword$catch$1 000000018001f826 f   ua.obj
 0001:0001e833       __catch$_wrap_insn_t_get_next_qword$10 000000018001f833 f   ua.obj
 0001:0001e85f       _wrap_insn_t_get_next_qword$catch$0 000000018001f85f f   ua.obj
 0001:0001e86c       __catch$_wrap_insn_t_get_next_qword$12 000000018001f86c f   ua.obj
 0001:0001e8a0       _wrap_insn_t_get_next_word$catch$5 000000018001f8a0 f   ua.obj
 0001:0001e8ad       __catch$_wrap_insn_t_get_next_word$2 000000018001f8ad f   ua.obj
 0001:0001e8d3       _wrap_insn_t_get_next_word$catch$4 000000018001f8d3 f   ua.obj
 0001:0001e8e0       __catch$_wrap_insn_t_get_next_word$4 000000018001f8e0 f   ua.obj
 0001:0001e90c       _wrap_insn_t_get_next_word$catch$3 000000018001f90c f   ua.obj
 0001:0001e919       __catch$_wrap_insn_t_get_next_word$6 000000018001f919 f   ua.obj
 0001:0001e931       _wrap_insn_t_get_next_word$catch$2 000000018001f931 f   ua.obj
 0001:0001e93e       __catch$_wrap_insn_t_get_next_word$8 000000018001f93e f   ua.obj
 0001:0001e956       _wrap_insn_t_get_next_word$catch$1 000000018001f956 f   ua.obj
 0001:0001e963       __catch$_wrap_insn_t_get_next_word$10 000000018001f963 f   ua.obj
 0001:0001e98f       _wrap_insn_t_get_next_word$catch$0 000000018001f98f f   ua.obj
 0001:0001e99c       __catch$_wrap_insn_t_get_next_word$12 000000018001f99c f   ua.obj
 0001:0001e9d0       _wrap_insn_t_is_64bit$catch$5 000000018001f9d0 f   ua.obj
 0001:0001e9dd       __catch$_wrap_insn_t_is_64bit$2 000000018001f9dd f   ua.obj
 0001:0001ea03       _wrap_insn_t_is_64bit$catch$4 000000018001fa03 f   ua.obj
 0001:0001ea10       __catch$_wrap_insn_t_is_64bit$4 000000018001fa10 f   ua.obj
 0001:0001ea3c       _wrap_insn_t_is_64bit$catch$3 000000018001fa3c f   ua.obj
 0001:0001ea49       __catch$_wrap_insn_t_is_64bit$6 000000018001fa49 f   ua.obj
 0001:0001ea61       _wrap_insn_t_is_64bit$catch$2 000000018001fa61 f   ua.obj
 0001:0001ea6e       __catch$_wrap_insn_t_is_64bit$8 000000018001fa6e f   ua.obj
 0001:0001ea86       _wrap_insn_t_is_64bit$catch$1 000000018001fa86 f   ua.obj
 0001:0001ea93       __catch$_wrap_insn_t_is_64bit$10 000000018001fa93 f   ua.obj
 0001:0001eabf       _wrap_insn_t_is_64bit$catch$0 000000018001fabf f   ua.obj
 0001:0001eacc       __catch$_wrap_insn_t_is_64bit$12 000000018001facc f   ua.obj
 0001:0001eb00       _wrap_insn_t_is_canon_insn$catch$5 000000018001fb00 f   ua.obj
 0001:0001eb0d       __catch$_wrap_insn_t_is_canon_insn$2 000000018001fb0d f   ua.obj
 0001:0001eb33       _wrap_insn_t_is_canon_insn$catch$4 000000018001fb33 f   ua.obj
 0001:0001eb40       __catch$_wrap_insn_t_is_canon_insn$4 000000018001fb40 f   ua.obj
 0001:0001eb6c       _wrap_insn_t_is_canon_insn$catch$3 000000018001fb6c f   ua.obj
 0001:0001eb79       __catch$_wrap_insn_t_is_canon_insn$6 000000018001fb79 f   ua.obj
 0001:0001eb91       _wrap_insn_t_is_canon_insn$catch$2 000000018001fb91 f   ua.obj
 0001:0001eb9e       __catch$_wrap_insn_t_is_canon_insn$8 000000018001fb9e f   ua.obj
 0001:0001ebb6       _wrap_insn_t_is_canon_insn$catch$1 000000018001fbb6 f   ua.obj
 0001:0001ebc3       __catch$_wrap_insn_t_is_canon_insn$10 000000018001fbc3 f   ua.obj
 0001:0001ebef       _wrap_insn_t_is_canon_insn$catch$0 000000018001fbef f   ua.obj
 0001:0001ebfc       __catch$_wrap_insn_t_is_canon_insn$12 000000018001fbfc f   ua.obj
 0001:0001ec30       _wrap_insn_t_is_macro$catch$5 000000018001fc30 f   ua.obj
 0001:0001ec3d       __catch$_wrap_insn_t_is_macro$2 000000018001fc3d f   ua.obj
 0001:0001ec63       _wrap_insn_t_is_macro$catch$4 000000018001fc63 f   ua.obj
 0001:0001ec70       __catch$_wrap_insn_t_is_macro$4 000000018001fc70 f   ua.obj
 0001:0001ec9c       _wrap_insn_t_is_macro$catch$3 000000018001fc9c f   ua.obj
 0001:0001eca9       __catch$_wrap_insn_t_is_macro$6 000000018001fca9 f   ua.obj
 0001:0001ecc1       _wrap_insn_t_is_macro$catch$2 000000018001fcc1 f   ua.obj
 0001:0001ecce       __catch$_wrap_insn_t_is_macro$8 000000018001fcce f   ua.obj
 0001:0001ece6       _wrap_insn_t_is_macro$catch$1 000000018001fce6 f   ua.obj
 0001:0001ecf3       __catch$_wrap_insn_t_is_macro$10 000000018001fcf3 f   ua.obj
 0001:0001ed1f       _wrap_insn_t_is_macro$catch$0 000000018001fd1f f   ua.obj
 0001:0001ed2c       __catch$_wrap_insn_t_is_macro$12 000000018001fd2c f   ua.obj
 0001:0001ed60       _wrap_map_code_ea__SWIG_0$catch$5 000000018001fd60 f   ua.obj
 0001:0001ed6d       __catch$_wrap_map_code_ea__SWIG_0$5 000000018001fd6d f   ua.obj
 0001:0001ed93       _wrap_map_code_ea__SWIG_0$catch$4 000000018001fd93 f   ua.obj
 0001:0001eda0       __catch$_wrap_map_code_ea__SWIG_0$7 000000018001fda0 f   ua.obj
 0001:0001edcc       _wrap_map_code_ea__SWIG_0$catch$3 000000018001fdcc f   ua.obj
 0001:0001edd9       __catch$_wrap_map_code_ea__SWIG_0$9 000000018001fdd9 f   ua.obj
 0001:0001edf1       _wrap_map_code_ea__SWIG_0$catch$2 000000018001fdf1 f   ua.obj
 0001:0001edfe       __catch$_wrap_map_code_ea__SWIG_0$11 000000018001fdfe f   ua.obj
 0001:0001ee16       _wrap_map_code_ea__SWIG_0$catch$1 000000018001fe16 f   ua.obj
 0001:0001ee23       __catch$_wrap_map_code_ea__SWIG_0$13 000000018001fe23 f   ua.obj
 0001:0001ee4f       _wrap_map_code_ea__SWIG_0$catch$0 000000018001fe4f f   ua.obj
 0001:0001ee5c       __catch$_wrap_map_code_ea__SWIG_0$15 000000018001fe5c f   ua.obj
 0001:0001ee90       _wrap_map_code_ea__SWIG_1$catch$5 000000018001fe90 f   ua.obj
 0001:0001ee9d       __catch$_wrap_map_code_ea__SWIG_1$5 000000018001fe9d f   ua.obj
 0001:0001eec3       _wrap_map_code_ea__SWIG_1$catch$4 000000018001fec3 f   ua.obj
 0001:0001eed0       __catch$_wrap_map_code_ea__SWIG_1$7 000000018001fed0 f   ua.obj
 0001:0001eefc       _wrap_map_code_ea__SWIG_1$catch$3 000000018001fefc f   ua.obj
 0001:0001ef09       __catch$_wrap_map_code_ea__SWIG_1$9 000000018001ff09 f   ua.obj
 0001:0001ef21       _wrap_map_code_ea__SWIG_1$catch$2 000000018001ff21 f   ua.obj
 0001:0001ef2e       __catch$_wrap_map_code_ea__SWIG_1$11 000000018001ff2e f   ua.obj
 0001:0001ef46       _wrap_map_code_ea__SWIG_1$catch$1 000000018001ff46 f   ua.obj
 0001:0001ef53       __catch$_wrap_map_code_ea__SWIG_1$13 000000018001ff53 f   ua.obj
 0001:0001ef7f       _wrap_map_code_ea__SWIG_1$catch$0 000000018001ff7f f   ua.obj
 0001:0001ef8c       __catch$_wrap_map_code_ea__SWIG_1$15 000000018001ff8c f   ua.obj
 0001:0001efc0       _wrap_map_data_ea__SWIG_0$catch$5 000000018001ffc0 f   ua.obj
 0001:0001efcd       __catch$_wrap_map_data_ea__SWIG_0$5 000000018001ffcd f   ua.obj
 0001:0001eff3       _wrap_map_data_ea__SWIG_0$catch$4 000000018001fff3 f   ua.obj
 0001:0001f000       __catch$_wrap_map_data_ea__SWIG_0$7 0000000180020000 f   ua.obj
 0001:0001f02c       _wrap_map_data_ea__SWIG_0$catch$3 000000018002002c f   ua.obj
 0001:0001f039       __catch$_wrap_map_data_ea__SWIG_0$9 0000000180020039 f   ua.obj
 0001:0001f051       _wrap_map_data_ea__SWIG_0$catch$2 0000000180020051 f   ua.obj
 0001:0001f05e       __catch$_wrap_map_data_ea__SWIG_0$11 000000018002005e f   ua.obj
 0001:0001f076       _wrap_map_data_ea__SWIG_0$catch$1 0000000180020076 f   ua.obj
 0001:0001f083       __catch$_wrap_map_data_ea__SWIG_0$13 0000000180020083 f   ua.obj
 0001:0001f0af       _wrap_map_data_ea__SWIG_0$catch$0 00000001800200af f   ua.obj
 0001:0001f0bc       __catch$_wrap_map_data_ea__SWIG_0$15 00000001800200bc f   ua.obj
 0001:0001f0f0       _wrap_map_data_ea__SWIG_1$catch$5 00000001800200f0 f   ua.obj
 0001:0001f0fd       __catch$_wrap_map_data_ea__SWIG_1$5 00000001800200fd f   ua.obj
 0001:0001f123       _wrap_map_data_ea__SWIG_1$catch$4 0000000180020123 f   ua.obj
 0001:0001f130       __catch$_wrap_map_data_ea__SWIG_1$7 0000000180020130 f   ua.obj
 0001:0001f15c       _wrap_map_data_ea__SWIG_1$catch$3 000000018002015c f   ua.obj
 0001:0001f169       __catch$_wrap_map_data_ea__SWIG_1$9 0000000180020169 f   ua.obj
 0001:0001f181       _wrap_map_data_ea__SWIG_1$catch$2 0000000180020181 f   ua.obj
 0001:0001f18e       __catch$_wrap_map_data_ea__SWIG_1$11 000000018002018e f   ua.obj
 0001:0001f1a6       _wrap_map_data_ea__SWIG_1$catch$1 00000001800201a6 f   ua.obj
 0001:0001f1b3       __catch$_wrap_map_data_ea__SWIG_1$13 00000001800201b3 f   ua.obj
 0001:0001f1df       _wrap_map_data_ea__SWIG_1$catch$0 00000001800201df f   ua.obj
 0001:0001f1ec       __catch$_wrap_map_data_ea__SWIG_1$15 00000001800201ec f   ua.obj
 0001:0001f220       _wrap_map_ea__SWIG_0$catch$5 0000000180020220 f   ua.obj
 0001:0001f22d       __catch$_wrap_map_ea__SWIG_0$6 000000018002022d f   ua.obj
 0001:0001f253       _wrap_map_ea__SWIG_0$catch$4 0000000180020253 f   ua.obj
 0001:0001f260       __catch$_wrap_map_ea__SWIG_0$8 0000000180020260 f   ua.obj
 0001:0001f28c       _wrap_map_ea__SWIG_0$catch$3 000000018002028c f   ua.obj
 0001:0001f299       __catch$_wrap_map_ea__SWIG_0$10 0000000180020299 f   ua.obj
 0001:0001f2b1       _wrap_map_ea__SWIG_0$catch$2 00000001800202b1 f   ua.obj
 0001:0001f2be       __catch$_wrap_map_ea__SWIG_0$12 00000001800202be f   ua.obj
 0001:0001f2d6       _wrap_map_ea__SWIG_0$catch$1 00000001800202d6 f   ua.obj
 0001:0001f2e3       __catch$_wrap_map_ea__SWIG_0$14 00000001800202e3 f   ua.obj
 0001:0001f30f       _wrap_map_ea__SWIG_0$catch$0 000000018002030f f   ua.obj
 0001:0001f31c       __catch$_wrap_map_ea__SWIG_0$16 000000018002031c f   ua.obj
 0001:0001f350       _wrap_map_ea__SWIG_1$catch$5 0000000180020350 f   ua.obj
 0001:0001f35d       __catch$_wrap_map_ea__SWIG_1$6 000000018002035d f   ua.obj
 0001:0001f383       _wrap_map_ea__SWIG_1$catch$4 0000000180020383 f   ua.obj
 0001:0001f390       __catch$_wrap_map_ea__SWIG_1$8 0000000180020390 f   ua.obj
 0001:0001f3bc       _wrap_map_ea__SWIG_1$catch$3 00000001800203bc f   ua.obj
 0001:0001f3c9       __catch$_wrap_map_ea__SWIG_1$10 00000001800203c9 f   ua.obj
 0001:0001f3e1       _wrap_map_ea__SWIG_1$catch$2 00000001800203e1 f   ua.obj
 0001:0001f3ee       __catch$_wrap_map_ea__SWIG_1$12 00000001800203ee f   ua.obj
 0001:0001f406       _wrap_map_ea__SWIG_1$catch$1 0000000180020406 f   ua.obj
 0001:0001f413       __catch$_wrap_map_ea__SWIG_1$14 0000000180020413 f   ua.obj
 0001:0001f43f       _wrap_map_ea__SWIG_1$catch$0 000000018002043f f   ua.obj
 0001:0001f44c       __catch$_wrap_map_ea__SWIG_1$16 000000018002044c f   ua.obj
 0001:0001f480       _wrap_new_insn_t$catch$1   0000000180020480 f   ua.obj
 0001:0001f48d       __catch$_wrap_new_insn_t$1 000000018002048d f   ua.obj
 0001:0001f4b3       _wrap_new_insn_t$catch$2   00000001800204b3 f   ua.obj
 0001:0001f4c0       __catch$_wrap_new_insn_t$3 00000001800204c0 f   ua.obj
 0001:0001f4ec       _wrap_new_insn_t$catch$3   00000001800204ec f   ua.obj
 0001:0001f4f9       __catch$_wrap_new_insn_t$5 00000001800204f9 f   ua.obj
 0001:0001f511       _wrap_new_insn_t$catch$4   0000000180020511 f   ua.obj
 0001:0001f51e       __catch$_wrap_new_insn_t$7 000000018002051e f   ua.obj
 0001:0001f536       _wrap_new_insn_t$catch$5   0000000180020536 f   ua.obj
 0001:0001f543       __catch$_wrap_new_insn_t$9 0000000180020543 f   ua.obj
 0001:0001f56f       _wrap_new_insn_t$catch$6   000000018002056f f   ua.obj
 0001:0001f57c       __catch$_wrap_new_insn_t$11 000000018002057c f   ua.obj
 0001:0001f5b0       _wrap_new_op_t$catch$0     00000001800205b0 f   ua.obj
 0001:0001f5bd       __catch$_wrap_new_op_t$1   00000001800205bd f   ua.obj
 0001:0001f5e3       _wrap_new_op_t$catch$1     00000001800205e3 f   ua.obj
 0001:0001f5f0       __catch$_wrap_new_op_t$3   00000001800205f0 f   ua.obj
 0001:0001f61c       _wrap_new_op_t$catch$2     000000018002061c f   ua.obj
 0001:0001f629       __catch$_wrap_new_op_t$5   0000000180020629 f   ua.obj
 0001:0001f641       _wrap_new_op_t$catch$3     0000000180020641 f   ua.obj
 0001:0001f64e       __catch$_wrap_new_op_t$7   000000018002064e f   ua.obj
 0001:0001f666       _wrap_new_op_t$catch$4     0000000180020666 f   ua.obj
 0001:0001f673       __catch$_wrap_new_op_t$9   0000000180020673 f   ua.obj
 0001:0001f69f       _wrap_new_op_t$catch$5     000000018002069f f   ua.obj
 0001:0001f6ac       __catch$_wrap_new_op_t$11  00000001800206ac f   ua.obj
 0001:0001f6e0       _wrap_new_operands_array$catch$1 00000001800206e0 f   ua.obj
 0001:0001f6ed       __catch$_wrap_new_operands_array$3 00000001800206ed f   ua.obj
 0001:0001f713       _wrap_new_operands_array$catch$2 0000000180020713 f   ua.obj
 0001:0001f720       __catch$_wrap_new_operands_array$5 0000000180020720 f   ua.obj
 0001:0001f74c       _wrap_new_operands_array$catch$3 000000018002074c f   ua.obj
 0001:0001f759       __catch$_wrap_new_operands_array$7 0000000180020759 f   ua.obj
 0001:0001f771       _wrap_new_operands_array$catch$4 0000000180020771 f   ua.obj
 0001:0001f77e       __catch$_wrap_new_operands_array$9 000000018002077e f   ua.obj
 0001:0001f796       _wrap_new_operands_array$catch$5 0000000180020796 f   ua.obj
 0001:0001f7a3       __catch$_wrap_new_operands_array$11 00000001800207a3 f   ua.obj
 0001:0001f7cf       _wrap_new_operands_array$catch$6 00000001800207cf f   ua.obj
 0001:0001f7dc       __catch$_wrap_new_operands_array$13 00000001800207dc f   ua.obj
 0001:0001f810       _wrap_op_t___get_addr__$catch$5 0000000180020810 f   ua.obj
 0001:0001f81d       __catch$_wrap_op_t___get_addr__$2 000000018002081d f   ua.obj
 0001:0001f843       _wrap_op_t___get_addr__$catch$4 0000000180020843 f   ua.obj
 0001:0001f850       __catch$_wrap_op_t___get_addr__$4 0000000180020850 f   ua.obj
 0001:0001f87c       _wrap_op_t___get_addr__$catch$3 000000018002087c f   ua.obj
 0001:0001f889       __catch$_wrap_op_t___get_addr__$6 0000000180020889 f   ua.obj
 0001:0001f8a1       _wrap_op_t___get_addr__$catch$2 00000001800208a1 f   ua.obj
 0001:0001f8ae       __catch$_wrap_op_t___get_addr__$8 00000001800208ae f   ua.obj
 0001:0001f8c6       _wrap_op_t___get_addr__$catch$1 00000001800208c6 f   ua.obj
 0001:0001f8d3       __catch$_wrap_op_t___get_addr__$10 00000001800208d3 f   ua.obj
 0001:0001f8ff       _wrap_op_t___get_addr__$catch$0 00000001800208ff f   ua.obj
 0001:0001f90c       __catch$_wrap_op_t___get_addr__$12 000000018002090c f   ua.obj
 0001:0001f940       _wrap_op_t___get_reg_phrase__$catch$5 0000000180020940 f   ua.obj
 0001:0001f94d       __catch$_wrap_op_t___get_reg_phrase__$2 000000018002094d f   ua.obj
 0001:0001f973       _wrap_op_t___get_reg_phrase__$catch$4 0000000180020973 f   ua.obj
 0001:0001f980       __catch$_wrap_op_t___get_reg_phrase__$4 0000000180020980 f   ua.obj
 0001:0001f9ac       _wrap_op_t___get_reg_phrase__$catch$3 00000001800209ac f   ua.obj
 0001:0001f9b9       __catch$_wrap_op_t___get_reg_phrase__$6 00000001800209b9 f   ua.obj
 0001:0001f9d1       _wrap_op_t___get_reg_phrase__$catch$2 00000001800209d1 f   ua.obj
 0001:0001f9de       __catch$_wrap_op_t___get_reg_phrase__$8 00000001800209de f   ua.obj
 0001:0001f9f6       _wrap_op_t___get_reg_phrase__$catch$1 00000001800209f6 f   ua.obj
 0001:0001fa03       __catch$_wrap_op_t___get_reg_phrase__$10 0000000180020a03 f   ua.obj
 0001:0001fa2f       _wrap_op_t___get_reg_phrase__$catch$0 0000000180020a2f f   ua.obj
 0001:0001fa3c       __catch$_wrap_op_t___get_reg_phrase__$12 0000000180020a3c f   ua.obj
 0001:0001fa70       _wrap_op_t___get_specval__$catch$5 0000000180020a70 f   ua.obj
 0001:0001fa7d       __catch$_wrap_op_t___get_specval__$2 0000000180020a7d f   ua.obj
 0001:0001faa3       _wrap_op_t___get_specval__$catch$4 0000000180020aa3 f   ua.obj
 0001:0001fab0       __catch$_wrap_op_t___get_specval__$4 0000000180020ab0 f   ua.obj
 0001:0001fadc       _wrap_op_t___get_specval__$catch$3 0000000180020adc f   ua.obj
 0001:0001fae9       __catch$_wrap_op_t___get_specval__$6 0000000180020ae9 f   ua.obj
 0001:0001fb01       _wrap_op_t___get_specval__$catch$2 0000000180020b01 f   ua.obj
 0001:0001fb0e       __catch$_wrap_op_t___get_specval__$8 0000000180020b0e f   ua.obj
 0001:0001fb26       _wrap_op_t___get_specval__$catch$1 0000000180020b26 f   ua.obj
 0001:0001fb33       __catch$_wrap_op_t___get_specval__$10 0000000180020b33 f   ua.obj
 0001:0001fb5f       _wrap_op_t___get_specval__$catch$0 0000000180020b5f f   ua.obj
 0001:0001fb6c       __catch$_wrap_op_t___get_specval__$12 0000000180020b6c f   ua.obj
 0001:0001fba0       _wrap_op_t___get_value__$catch$5 0000000180020ba0 f   ua.obj
 0001:0001fbad       __catch$_wrap_op_t___get_value__$2 0000000180020bad f   ua.obj
 0001:0001fbd3       _wrap_op_t___get_value__$catch$4 0000000180020bd3 f   ua.obj
 0001:0001fbe0       __catch$_wrap_op_t___get_value__$4 0000000180020be0 f   ua.obj
 0001:0001fc0c       _wrap_op_t___get_value__$catch$3 0000000180020c0c f   ua.obj
 0001:0001fc19       __catch$_wrap_op_t___get_value__$6 0000000180020c19 f   ua.obj
 0001:0001fc31       _wrap_op_t___get_value__$catch$2 0000000180020c31 f   ua.obj
 0001:0001fc3e       __catch$_wrap_op_t___get_value__$8 0000000180020c3e f   ua.obj
 0001:0001fc56       _wrap_op_t___get_value__$catch$1 0000000180020c56 f   ua.obj
 0001:0001fc63       __catch$_wrap_op_t___get_value__$10 0000000180020c63 f   ua.obj
 0001:0001fc8f       _wrap_op_t___get_value__$catch$0 0000000180020c8f f   ua.obj
 0001:0001fc9c       __catch$_wrap_op_t___get_value__$12 0000000180020c9c f   ua.obj
 0001:0001fcd0       _wrap_op_t___set_addr__$catch$5 0000000180020cd0 f   ua.obj
 0001:0001fcdd       __catch$_wrap_op_t___set_addr__$3 0000000180020cdd f   ua.obj
 0001:0001fd03       _wrap_op_t___set_addr__$catch$4 0000000180020d03 f   ua.obj
 0001:0001fd10       __catch$_wrap_op_t___set_addr__$5 0000000180020d10 f   ua.obj
 0001:0001fd3c       _wrap_op_t___set_addr__$catch$3 0000000180020d3c f   ua.obj
 0001:0001fd49       __catch$_wrap_op_t___set_addr__$7 0000000180020d49 f   ua.obj
 0001:0001fd61       _wrap_op_t___set_addr__$catch$2 0000000180020d61 f   ua.obj
 0001:0001fd6e       __catch$_wrap_op_t___set_addr__$9 0000000180020d6e f   ua.obj
 0001:0001fd86       _wrap_op_t___set_addr__$catch$1 0000000180020d86 f   ua.obj
 0001:0001fd93       __catch$_wrap_op_t___set_addr__$11 0000000180020d93 f   ua.obj
 0001:0001fdbf       _wrap_op_t___set_addr__$catch$0 0000000180020dbf f   ua.obj
 0001:0001fdcc       __catch$_wrap_op_t___set_addr__$13 0000000180020dcc f   ua.obj
 0001:0001fe00       _wrap_op_t___set_reg_phrase__$catch$5 0000000180020e00 f   ua.obj
 0001:0001fe0d       __catch$_wrap_op_t___set_reg_phrase__$3 0000000180020e0d f   ua.obj
 0001:0001fe33       _wrap_op_t___set_reg_phrase__$catch$4 0000000180020e33 f   ua.obj
 0001:0001fe40       __catch$_wrap_op_t___set_reg_phrase__$5 0000000180020e40 f   ua.obj
 0001:0001fe6c       _wrap_op_t___set_reg_phrase__$catch$3 0000000180020e6c f   ua.obj
 0001:0001fe79       __catch$_wrap_op_t___set_reg_phrase__$7 0000000180020e79 f   ua.obj
 0001:0001fe91       _wrap_op_t___set_reg_phrase__$catch$2 0000000180020e91 f   ua.obj
 0001:0001fe9e       __catch$_wrap_op_t___set_reg_phrase__$9 0000000180020e9e f   ua.obj
 0001:0001feb6       _wrap_op_t___set_reg_phrase__$catch$1 0000000180020eb6 f   ua.obj
 0001:0001fec3       __catch$_wrap_op_t___set_reg_phrase__$11 0000000180020ec3 f   ua.obj
 0001:0001feef       _wrap_op_t___set_reg_phrase__$catch$0 0000000180020eef f   ua.obj
 0001:0001fefc       __catch$_wrap_op_t___set_reg_phrase__$13 0000000180020efc f   ua.obj
 0001:0001ff30       _wrap_op_t___set_specval__$catch$5 0000000180020f30 f   ua.obj
 0001:0001ff3d       __catch$_wrap_op_t___set_specval__$3 0000000180020f3d f   ua.obj
 0001:0001ff63       _wrap_op_t___set_specval__$catch$4 0000000180020f63 f   ua.obj
 0001:0001ff70       __catch$_wrap_op_t___set_specval__$5 0000000180020f70 f   ua.obj
 0001:0001ff9c       _wrap_op_t___set_specval__$catch$3 0000000180020f9c f   ua.obj
 0001:0001ffa9       __catch$_wrap_op_t___set_specval__$7 0000000180020fa9 f   ua.obj
 0001:0001ffc1       _wrap_op_t___set_specval__$catch$2 0000000180020fc1 f   ua.obj
 0001:0001ffce       __catch$_wrap_op_t___set_specval__$9 0000000180020fce f   ua.obj
 0001:0001ffe6       _wrap_op_t___set_specval__$catch$1 0000000180020fe6 f   ua.obj
 0001:0001fff3       __catch$_wrap_op_t___set_specval__$11 0000000180020ff3 f   ua.obj
 0001:0002001f       _wrap_op_t___set_specval__$catch$0 000000018002101f f   ua.obj
 0001:0002002c       __catch$_wrap_op_t___set_specval__$13 000000018002102c f   ua.obj
 0001:00020060       _wrap_op_t___set_value__$catch$5 0000000180021060 f   ua.obj
 0001:0002006d       __catch$_wrap_op_t___set_value__$3 000000018002106d f   ua.obj
 0001:00020093       _wrap_op_t___set_value__$catch$4 0000000180021093 f   ua.obj
 0001:000200a0       __catch$_wrap_op_t___set_value__$5 00000001800210a0 f   ua.obj
 0001:000200cc       _wrap_op_t___set_value__$catch$3 00000001800210cc f   ua.obj
 0001:000200d9       __catch$_wrap_op_t___set_value__$7 00000001800210d9 f   ua.obj
 0001:000200f1       _wrap_op_t___set_value__$catch$2 00000001800210f1 f   ua.obj
 0001:000200fe       __catch$_wrap_op_t___set_value__$9 00000001800210fe f   ua.obj
 0001:00020116       _wrap_op_t___set_value__$catch$1 0000000180021116 f   ua.obj
 0001:00020123       __catch$_wrap_op_t___set_value__$11 0000000180021123 f   ua.obj
 0001:0002014f       _wrap_op_t___set_value__$catch$0 000000018002114f f   ua.obj
 0001:0002015c       __catch$_wrap_op_t___set_value__$13 000000018002115c f   ua.obj
 0001:00020190       _wrap_op_t__from_ptrval__$catch$5 0000000180021190 f   ua.obj
 0001:0002019d       __catch$_wrap_op_t__from_ptrval__$1 000000018002119d f   ua.obj
 0001:000201c3       _wrap_op_t__from_ptrval__$catch$4 00000001800211c3 f   ua.obj
 0001:000201d0       __catch$_wrap_op_t__from_ptrval__$3 00000001800211d0 f   ua.obj
 0001:000201fc       _wrap_op_t__from_ptrval__$catch$3 00000001800211fc f   ua.obj
 0001:00020209       __catch$_wrap_op_t__from_ptrval__$5 0000000180021209 f   ua.obj
 0001:00020221       _wrap_op_t__from_ptrval__$catch$2 0000000180021221 f   ua.obj
 0001:0002022e       __catch$_wrap_op_t__from_ptrval__$7 000000018002122e f   ua.obj
 0001:00020246       _wrap_op_t__from_ptrval__$catch$1 0000000180021246 f   ua.obj
 0001:00020253       __catch$_wrap_op_t__from_ptrval__$9 0000000180021253 f   ua.obj
 0001:0002027f       _wrap_op_t__from_ptrval__$catch$0 000000018002127f f   ua.obj
 0001:0002028c       __catch$_wrap_op_t__from_ptrval__$11 000000018002128c f   ua.obj
 0001:000202c0       _wrap_op_t_assign$catch$5  00000001800212c0 f   ua.obj
 0001:000202cd       __catch$_wrap_op_t_assign$4 00000001800212cd f   ua.obj
 0001:000202f3       _wrap_op_t_assign$catch$4  00000001800212f3 f   ua.obj
 0001:00020300       __catch$_wrap_op_t_assign$6 0000000180021300 f   ua.obj
 0001:0002032c       _wrap_op_t_assign$catch$3  000000018002132c f   ua.obj
 0001:00020339       __catch$_wrap_op_t_assign$8 0000000180021339 f   ua.obj
 0001:00020351       _wrap_op_t_assign$catch$2  0000000180021351 f   ua.obj
 0001:0002035e       __catch$_wrap_op_t_assign$10 000000018002135e f   ua.obj
 0001:00020376       _wrap_op_t_assign$catch$1  0000000180021376 f   ua.obj
 0001:00020383       __catch$_wrap_op_t_assign$12 0000000180021383 f   ua.obj
 0001:000203af       _wrap_op_t_assign$catch$0  00000001800213af f   ua.obj
 0001:000203bc       __catch$_wrap_op_t_assign$14 00000001800213bc f   ua.obj
 0001:000203f0       _wrap_op_t_clr_shown$catch$5 00000001800213f0 f   ua.obj
 0001:000203fd       __catch$_wrap_op_t_clr_shown$2 00000001800213fd f   ua.obj
 0001:00020423       _wrap_op_t_clr_shown$catch$4 0000000180021423 f   ua.obj
 0001:00020430       __catch$_wrap_op_t_clr_shown$4 0000000180021430 f   ua.obj
 0001:0002045c       _wrap_op_t_clr_shown$catch$3 000000018002145c f   ua.obj
 0001:00020469       __catch$_wrap_op_t_clr_shown$6 0000000180021469 f   ua.obj
 0001:00020481       _wrap_op_t_clr_shown$catch$2 0000000180021481 f   ua.obj
 0001:0002048e       __catch$_wrap_op_t_clr_shown$8 000000018002148e f   ua.obj
 0001:000204a6       _wrap_op_t_clr_shown$catch$1 00000001800214a6 f   ua.obj
 0001:000204b3       __catch$_wrap_op_t_clr_shown$10 00000001800214b3 f   ua.obj
 0001:000204df       _wrap_op_t_clr_shown$catch$0 00000001800214df f   ua.obj
 0001:000204ec       __catch$_wrap_op_t_clr_shown$12 00000001800214ec f   ua.obj
 0001:00020520       _wrap_op_t_is_imm$catch$5  0000000180021520 f   ua.obj
 0001:0002052d       __catch$_wrap_op_t_is_imm$3 000000018002152d f   ua.obj
 0001:00020553       _wrap_op_t_is_imm$catch$4  0000000180021553 f   ua.obj
 0001:00020560       __catch$_wrap_op_t_is_imm$5 0000000180021560 f   ua.obj
 0001:0002058c       _wrap_op_t_is_imm$catch$3  000000018002158c f   ua.obj
 0001:00020599       __catch$_wrap_op_t_is_imm$7 0000000180021599 f   ua.obj
 0001:000205b1       _wrap_op_t_is_imm$catch$2  00000001800215b1 f   ua.obj
 0001:000205be       __catch$_wrap_op_t_is_imm$9 00000001800215be f   ua.obj
 0001:000205d6       _wrap_op_t_is_imm$catch$1  00000001800215d6 f   ua.obj
 0001:000205e3       __catch$_wrap_op_t_is_imm$11 00000001800215e3 f   ua.obj
 0001:0002060f       _wrap_op_t_is_imm$catch$0  000000018002160f f   ua.obj
 0001:0002061c       __catch$_wrap_op_t_is_imm$13 000000018002161c f   ua.obj
 0001:00020650       _wrap_op_t_is_reg$catch$5  0000000180021650 f   ua.obj
 0001:0002065d       __catch$_wrap_op_t_is_reg$3 000000018002165d f   ua.obj
 0001:00020683       _wrap_op_t_is_reg$catch$4  0000000180021683 f   ua.obj
 0001:00020690       __catch$_wrap_op_t_is_reg$5 0000000180021690 f   ua.obj
 0001:000206bc       _wrap_op_t_is_reg$catch$3  00000001800216bc f   ua.obj
 0001:000206c9       __catch$_wrap_op_t_is_reg$7 00000001800216c9 f   ua.obj
 0001:000206e1       _wrap_op_t_is_reg$catch$2  00000001800216e1 f   ua.obj
 0001:000206ee       __catch$_wrap_op_t_is_reg$9 00000001800216ee f   ua.obj
 0001:00020706       _wrap_op_t_is_reg$catch$1  0000000180021706 f   ua.obj
 0001:00020713       __catch$_wrap_op_t_is_reg$11 0000000180021713 f   ua.obj
 0001:0002073f       _wrap_op_t_is_reg$catch$0  000000018002173f f   ua.obj
 0001:0002074c       __catch$_wrap_op_t_is_reg$13 000000018002174c f   ua.obj
 0001:00020780       _wrap_op_t_set_shown$catch$5 0000000180021780 f   ua.obj
 0001:0002078d       __catch$_wrap_op_t_set_shown$2 000000018002178d f   ua.obj
 0001:000207b3       _wrap_op_t_set_shown$catch$4 00000001800217b3 f   ua.obj
 0001:000207c0       __catch$_wrap_op_t_set_shown$4 00000001800217c0 f   ua.obj
 0001:000207ec       _wrap_op_t_set_shown$catch$3 00000001800217ec f   ua.obj
 0001:000207f9       __catch$_wrap_op_t_set_shown$6 00000001800217f9 f   ua.obj
 0001:00020811       _wrap_op_t_set_shown$catch$2 0000000180021811 f   ua.obj
 0001:0002081e       __catch$_wrap_op_t_set_shown$8 000000018002181e f   ua.obj
 0001:00020836       _wrap_op_t_set_shown$catch$1 0000000180021836 f   ua.obj
 0001:00020843       __catch$_wrap_op_t_set_shown$10 0000000180021843 f   ua.obj
 0001:0002086f       _wrap_op_t_set_shown$catch$0 000000018002186f f   ua.obj
 0001:0002087c       __catch$_wrap_op_t_set_shown$12 000000018002187c f   ua.obj
 0001:000208b0       _wrap_op_t_shown$catch$5   00000001800218b0 f   ua.obj
 0001:000208bd       __catch$_wrap_op_t_shown$2 00000001800218bd f   ua.obj
 0001:000208e3       _wrap_op_t_shown$catch$4   00000001800218e3 f   ua.obj
 0001:000208f0       __catch$_wrap_op_t_shown$4 00000001800218f0 f   ua.obj
 0001:0002091c       _wrap_op_t_shown$catch$3   000000018002191c f   ua.obj
 0001:00020929       __catch$_wrap_op_t_shown$6 0000000180021929 f   ua.obj
 0001:00020941       _wrap_op_t_shown$catch$2   0000000180021941 f   ua.obj
 0001:0002094e       __catch$_wrap_op_t_shown$8 000000018002194e f   ua.obj
 0001:00020966       _wrap_op_t_shown$catch$1   0000000180021966 f   ua.obj
 0001:00020973       __catch$_wrap_op_t_shown$10 0000000180021973 f   ua.obj
 0001:0002099f       _wrap_op_t_shown$catch$0   000000018002199f f   ua.obj
 0001:000209ac       __catch$_wrap_op_t_shown$12 00000001800219ac f   ua.obj
 0001:000209e0       _wrap_operands_array___getitem__$catch$0 00000001800219e0 f   ua.obj
 0001:000209ee       __catch$_wrap_operands_array___getitem__$3 00000001800219ee f   ua.obj
 0001:00020a5d       _wrap_operands_array___getitem__$catch$1 0000000180021a5d f   ua.obj
 0001:00020a6a       __catch$_wrap_operands_array___getitem__$6 0000000180021a6a f   ua.obj
 0001:00020a90       _wrap_operands_array___getitem__$catch$2 0000000180021a90 f   ua.obj
 0001:00020a9d       __catch$_wrap_operands_array___getitem__$8 0000000180021a9d f   ua.obj
 0001:00020ac9       _wrap_operands_array___getitem__$catch$3 0000000180021ac9 f   ua.obj
 0001:00020ad6       __catch$_wrap_operands_array___getitem__$10 0000000180021ad6 f   ua.obj
 0001:00020aee       _wrap_operands_array___getitem__$catch$4 0000000180021aee f   ua.obj
 0001:00020afb       __catch$_wrap_operands_array___getitem__$12 0000000180021afb f   ua.obj
 0001:00020b13       _wrap_operands_array___getitem__$catch$5 0000000180021b13 f   ua.obj
 0001:00020b20       __catch$_wrap_operands_array___getitem__$14 0000000180021b20 f   ua.obj
 0001:00020b4c       _wrap_operands_array___getitem__$catch$6 0000000180021b4c f   ua.obj
 0001:00020b59       __catch$_wrap_operands_array___getitem__$16 0000000180021b59 f   ua.obj
 0001:00020b80       _wrap_operands_array___len__$catch$5 0000000180021b80 f   ua.obj
 0001:00020b8d       __catch$_wrap_operands_array___len__$2 0000000180021b8d f   ua.obj
 0001:00020bb3       _wrap_operands_array___len__$catch$4 0000000180021bb3 f   ua.obj
 0001:00020bc0       __catch$_wrap_operands_array___len__$4 0000000180021bc0 f   ua.obj
 0001:00020bec       _wrap_operands_array___len__$catch$3 0000000180021bec f   ua.obj
 0001:00020bf9       __catch$_wrap_operands_array___len__$6 0000000180021bf9 f   ua.obj
 0001:00020c11       _wrap_operands_array___len__$catch$2 0000000180021c11 f   ua.obj
 0001:00020c1e       __catch$_wrap_operands_array___len__$8 0000000180021c1e f   ua.obj
 0001:00020c36       _wrap_operands_array___len__$catch$1 0000000180021c36 f   ua.obj
 0001:00020c43       __catch$_wrap_operands_array___len__$10 0000000180021c43 f   ua.obj
 0001:00020c6f       _wrap_operands_array___len__$catch$0 0000000180021c6f f   ua.obj
 0001:00020c7c       __catch$_wrap_operands_array___len__$12 0000000180021c7c f   ua.obj
 0001:00020cb0       _wrap_operands_array___setitem__$catch$0 0000000180021cb0 f   ua.obj
 0001:00020cbe       __catch$_wrap_operands_array___setitem__$5 0000000180021cbe f   ua.obj
 0001:00020d2d       _wrap_operands_array___setitem__$catch$1 0000000180021d2d f   ua.obj
 0001:00020d3a       __catch$_wrap_operands_array___setitem__$8 0000000180021d3a f   ua.obj
 0001:00020d60       _wrap_operands_array___setitem__$catch$2 0000000180021d60 f   ua.obj
 0001:00020d6d       __catch$_wrap_operands_array___setitem__$10 0000000180021d6d f   ua.obj
 0001:00020d99       _wrap_operands_array___setitem__$catch$3 0000000180021d99 f   ua.obj
 0001:00020da6       __catch$_wrap_operands_array___setitem__$12 0000000180021da6 f   ua.obj
 0001:00020dbe       _wrap_operands_array___setitem__$catch$4 0000000180021dbe f   ua.obj
 0001:00020dcb       __catch$_wrap_operands_array___setitem__$14 0000000180021dcb f   ua.obj
 0001:00020de3       _wrap_operands_array___setitem__$catch$5 0000000180021de3 f   ua.obj
 0001:00020df0       __catch$_wrap_operands_array___setitem__$16 0000000180021df0 f   ua.obj
 0001:00020e1c       _wrap_operands_array___setitem__$catch$6 0000000180021e1c f   ua.obj
 0001:00020e29       __catch$_wrap_operands_array___setitem__$18 0000000180021e29 f   ua.obj
 0001:00020e50       _wrap_outctx_base_t__from_ptrval__$catch$5 0000000180021e50 f   ua.obj
 0001:00020e5d       __catch$_wrap_outctx_base_t__from_ptrval__$1 0000000180021e5d f   ua.obj
 0001:00020e83       _wrap_outctx_base_t__from_ptrval__$catch$4 0000000180021e83 f   ua.obj
 0001:00020e90       __catch$_wrap_outctx_base_t__from_ptrval__$3 0000000180021e90 f   ua.obj
 0001:00020ebc       _wrap_outctx_base_t__from_ptrval__$catch$3 0000000180021ebc f   ua.obj
 0001:00020ec9       __catch$_wrap_outctx_base_t__from_ptrval__$5 0000000180021ec9 f   ua.obj
 0001:00020ee1       _wrap_outctx_base_t__from_ptrval__$catch$2 0000000180021ee1 f   ua.obj
 0001:00020eee       __catch$_wrap_outctx_base_t__from_ptrval__$7 0000000180021eee f   ua.obj
 0001:00020f06       _wrap_outctx_base_t__from_ptrval__$catch$1 0000000180021f06 f   ua.obj
 0001:00020f13       __catch$_wrap_outctx_base_t__from_ptrval__$9 0000000180021f13 f   ua.obj
 0001:00020f3f       _wrap_outctx_base_t__from_ptrval__$catch$0 0000000180021f3f f   ua.obj
 0001:00020f4c       __catch$_wrap_outctx_base_t__from_ptrval__$11 0000000180021f4c f   ua.obj
 0001:00020f80       _wrap_outctx_base_t_close_comment$catch$0 0000000180021f80 f   ua.obj
 0001:00020f8d       __catch$_wrap_outctx_base_t_close_comment$2 0000000180021f8d f   ua.obj
 0001:00020fb3       _wrap_outctx_base_t_close_comment$catch$1 0000000180021fb3 f   ua.obj
 0001:00020fc0       __catch$_wrap_outctx_base_t_close_comment$4 0000000180021fc0 f   ua.obj
 0001:00020fec       _wrap_outctx_base_t_close_comment$catch$2 0000000180021fec f   ua.obj
 0001:00020ff9       __catch$_wrap_outctx_base_t_close_comment$6 0000000180021ff9 f   ua.obj
 0001:00021011       _wrap_outctx_base_t_close_comment$catch$3 0000000180022011 f   ua.obj
 0001:0002101e       __catch$_wrap_outctx_base_t_close_comment$8 000000018002201e f   ua.obj
 0001:00021036       _wrap_outctx_base_t_close_comment$catch$4 0000000180022036 f   ua.obj
 0001:00021043       __catch$_wrap_outctx_base_t_close_comment$10 0000000180022043 f   ua.obj
 0001:0002106f       _wrap_outctx_base_t_close_comment$catch$5 000000018002206f f   ua.obj
 0001:0002107c       __catch$_wrap_outctx_base_t_close_comment$12 000000018002207c f   ua.obj
 0001:000210b0       _wrap_outctx_base_t_clr_gen_label$catch$5 00000001800220b0 f   ua.obj
 0001:000210bd       __catch$_wrap_outctx_base_t_clr_gen_label$2 00000001800220bd f   ua.obj
 0001:000210e3       _wrap_outctx_base_t_clr_gen_label$catch$4 00000001800220e3 f   ua.obj
 0001:000210f0       __catch$_wrap_outctx_base_t_clr_gen_label$4 00000001800220f0 f   ua.obj
 0001:0002111c       _wrap_outctx_base_t_clr_gen_label$catch$3 000000018002211c f   ua.obj
 0001:00021129       __catch$_wrap_outctx_base_t_clr_gen_label$6 0000000180022129 f   ua.obj
 0001:00021141       _wrap_outctx_base_t_clr_gen_label$catch$2 0000000180022141 f   ua.obj
 0001:0002114e       __catch$_wrap_outctx_base_t_clr_gen_label$8 000000018002214e f   ua.obj
 0001:00021166       _wrap_outctx_base_t_clr_gen_label$catch$1 0000000180022166 f   ua.obj
 0001:00021173       __catch$_wrap_outctx_base_t_clr_gen_label$10 0000000180022173 f   ua.obj
 0001:0002119f       _wrap_outctx_base_t_clr_gen_label$catch$0 000000018002219f f   ua.obj
 0001:000211ac       __catch$_wrap_outctx_base_t_clr_gen_label$12 00000001800221ac f   ua.obj
 0001:000211e0       _wrap_outctx_base_t_display_voids$catch$5 00000001800221e0 f   ua.obj
 0001:000211ed       __catch$_wrap_outctx_base_t_display_voids$2 00000001800221ed f   ua.obj
 0001:00021213       _wrap_outctx_base_t_display_voids$catch$4 0000000180022213 f   ua.obj
 0001:00021220       __catch$_wrap_outctx_base_t_display_voids$4 0000000180022220 f   ua.obj
 0001:0002124c       _wrap_outctx_base_t_display_voids$catch$3 000000018002224c f   ua.obj
 0001:00021259       __catch$_wrap_outctx_base_t_display_voids$6 0000000180022259 f   ua.obj
 0001:00021271       _wrap_outctx_base_t_display_voids$catch$2 0000000180022271 f   ua.obj
 0001:0002127e       __catch$_wrap_outctx_base_t_display_voids$8 000000018002227e f   ua.obj
 0001:00021296       _wrap_outctx_base_t_display_voids$catch$1 0000000180022296 f   ua.obj
 0001:000212a3       __catch$_wrap_outctx_base_t_display_voids$10 00000001800222a3 f   ua.obj
 0001:000212cf       _wrap_outctx_base_t_display_voids$catch$0 00000001800222cf f   ua.obj
 0001:000212dc       __catch$_wrap_outctx_base_t_display_voids$12 00000001800222dc f   ua.obj
 0001:00021310       _wrap_outctx_base_t_flush_buf$catch$0 0000000180022310 f   ua.obj
 0001:0002131d       __catch$_wrap_outctx_base_t_flush_buf$4 000000018002231d f   ua.obj
 0001:00021343       _wrap_outctx_base_t_flush_buf$catch$1 0000000180022343 f   ua.obj
 0001:00021350       __catch$_wrap_outctx_base_t_flush_buf$6 0000000180022350 f   ua.obj
 0001:0002137c       _wrap_outctx_base_t_flush_buf$catch$2 000000018002237c f   ua.obj
 0001:00021389       __catch$_wrap_outctx_base_t_flush_buf$8 0000000180022389 f   ua.obj
 0001:000213a1       _wrap_outctx_base_t_flush_buf$catch$3 00000001800223a1 f   ua.obj
 0001:000213ae       __catch$_wrap_outctx_base_t_flush_buf$10 00000001800223ae f   ua.obj
 0001:000213c6       _wrap_outctx_base_t_flush_buf$catch$4 00000001800223c6 f   ua.obj
 0001:000213d3       __catch$_wrap_outctx_base_t_flush_buf$12 00000001800223d3 f   ua.obj
 0001:000213ff       _wrap_outctx_base_t_flush_buf$catch$5 00000001800223ff f   ua.obj
 0001:0002140c       __catch$_wrap_outctx_base_t_flush_buf$14 000000018002240c f   ua.obj
 0001:00021440       _wrap_outctx_base_t_flush_outbuf$catch$0 0000000180022440 f   ua.obj
 0001:0002144d       __catch$_wrap_outctx_base_t_flush_outbuf$3 000000018002244d f   ua.obj
 0001:00021473       _wrap_outctx_base_t_flush_outbuf$catch$1 0000000180022473 f   ua.obj
 0001:00021480       __catch$_wrap_outctx_base_t_flush_outbuf$5 0000000180022480 f   ua.obj
 0001:000214ac       _wrap_outctx_base_t_flush_outbuf$catch$2 00000001800224ac f   ua.obj
 0001:000214b9       __catch$_wrap_outctx_base_t_flush_outbuf$7 00000001800224b9 f   ua.obj
 0001:000214d1       _wrap_outctx_base_t_flush_outbuf$catch$3 00000001800224d1 f   ua.obj
 0001:000214de       __catch$_wrap_outctx_base_t_flush_outbuf$9 00000001800224de f   ua.obj
 0001:000214f6       _wrap_outctx_base_t_flush_outbuf$catch$4 00000001800224f6 f   ua.obj
 0001:00021503       __catch$_wrap_outctx_base_t_flush_outbuf$11 0000000180022503 f   ua.obj
 0001:0002152f       _wrap_outctx_base_t_flush_outbuf$catch$5 000000018002252f f   ua.obj
 0001:0002153c       __catch$_wrap_outctx_base_t_flush_outbuf$13 000000018002253c f   ua.obj
 0001:00021570       _wrap_outctx_base_t_forbid_annotations$catch$5 0000000180022570 f   ua.obj
 0001:0002157d       __catch$_wrap_outctx_base_t_forbid_annotations$2 000000018002257d f   ua.obj
 0001:000215a3       _wrap_outctx_base_t_forbid_annotations$catch$4 00000001800225a3 f   ua.obj
 0001:000215b0       __catch$_wrap_outctx_base_t_forbid_annotations$4 00000001800225b0 f   ua.obj
 0001:000215dc       _wrap_outctx_base_t_forbid_annotations$catch$3 00000001800225dc f   ua.obj
 0001:000215e9       __catch$_wrap_outctx_base_t_forbid_annotations$6 00000001800225e9 f   ua.obj
 0001:00021601       _wrap_outctx_base_t_forbid_annotations$catch$2 0000000180022601 f   ua.obj
 0001:0002160e       __catch$_wrap_outctx_base_t_forbid_annotations$8 000000018002260e f   ua.obj
 0001:00021626       _wrap_outctx_base_t_forbid_annotations$catch$1 0000000180022626 f   ua.obj
 0001:00021633       __catch$_wrap_outctx_base_t_forbid_annotations$10 0000000180022633 f   ua.obj
 0001:0002165f       _wrap_outctx_base_t_forbid_annotations$catch$0 000000018002265f f   ua.obj
 0001:0002166c       __catch$_wrap_outctx_base_t_forbid_annotations$12 000000018002266c f   ua.obj
 0001:000216a0       _wrap_outctx_base_t_force_code$catch$5 00000001800226a0 f   ua.obj
 0001:000216ad       __catch$_wrap_outctx_base_t_force_code$2 00000001800226ad f   ua.obj
 0001:000216d3       _wrap_outctx_base_t_force_code$catch$4 00000001800226d3 f   ua.obj
 0001:000216e0       __catch$_wrap_outctx_base_t_force_code$4 00000001800226e0 f   ua.obj
 0001:0002170c       _wrap_outctx_base_t_force_code$catch$3 000000018002270c f   ua.obj
 0001:00021719       __catch$_wrap_outctx_base_t_force_code$6 0000000180022719 f   ua.obj
 0001:00021731       _wrap_outctx_base_t_force_code$catch$2 0000000180022731 f   ua.obj
 0001:0002173e       __catch$_wrap_outctx_base_t_force_code$8 000000018002273e f   ua.obj
 0001:00021756       _wrap_outctx_base_t_force_code$catch$1 0000000180022756 f   ua.obj
 0001:00021763       __catch$_wrap_outctx_base_t_force_code$10 0000000180022763 f   ua.obj
 0001:0002178f       _wrap_outctx_base_t_force_code$catch$0 000000018002278f f   ua.obj
 0001:0002179c       __catch$_wrap_outctx_base_t_force_code$12 000000018002279c f   ua.obj
 0001:000217d0       _wrap_outctx_base_t_gen_block_cmt$catch$0 00000001800227d0 f   ua.obj
 0001:000217dd       __catch$_wrap_outctx_base_t_gen_block_cmt$4 00000001800227dd f   ua.obj
 0001:00021803       _wrap_outctx_base_t_gen_block_cmt$catch$1 0000000180022803 f   ua.obj
 0001:00021810       __catch$_wrap_outctx_base_t_gen_block_cmt$6 0000000180022810 f   ua.obj
 0001:0002183c       _wrap_outctx_base_t_gen_block_cmt$catch$2 000000018002283c f   ua.obj
 0001:00021849       __catch$_wrap_outctx_base_t_gen_block_cmt$8 0000000180022849 f   ua.obj
 0001:00021861       _wrap_outctx_base_t_gen_block_cmt$catch$3 0000000180022861 f   ua.obj
 0001:0002186e       __catch$_wrap_outctx_base_t_gen_block_cmt$10 000000018002286e f   ua.obj
 0001:00021886       _wrap_outctx_base_t_gen_block_cmt$catch$4 0000000180022886 f   ua.obj
 0001:00021893       __catch$_wrap_outctx_base_t_gen_block_cmt$12 0000000180022893 f   ua.obj
 0001:000218bf       _wrap_outctx_base_t_gen_block_cmt$catch$5 00000001800228bf f   ua.obj
 0001:000218cc       __catch$_wrap_outctx_base_t_gen_block_cmt$14 00000001800228cc f   ua.obj
 0001:00021900       _wrap_outctx_base_t_gen_border_line$catch$0 0000000180022900 f   ua.obj
 0001:0002190d       __catch$_wrap_outctx_base_t_gen_border_line$3 000000018002290d f   ua.obj
 0001:00021933       _wrap_outctx_base_t_gen_border_line$catch$1 0000000180022933 f   ua.obj
 0001:00021940       __catch$_wrap_outctx_base_t_gen_border_line$5 0000000180022940 f   ua.obj
 0001:0002196c       _wrap_outctx_base_t_gen_border_line$catch$2 000000018002296c f   ua.obj
 0001:00021979       __catch$_wrap_outctx_base_t_gen_border_line$7 0000000180022979 f   ua.obj
 0001:00021991       _wrap_outctx_base_t_gen_border_line$catch$3 0000000180022991 f   ua.obj
 0001:0002199e       __catch$_wrap_outctx_base_t_gen_border_line$9 000000018002299e f   ua.obj
 0001:000219b6       _wrap_outctx_base_t_gen_border_line$catch$4 00000001800229b6 f   ua.obj
 0001:000219c3       __catch$_wrap_outctx_base_t_gen_border_line$11 00000001800229c3 f   ua.obj
 0001:000219ef       _wrap_outctx_base_t_gen_border_line$catch$5 00000001800229ef f   ua.obj
 0001:000219fc       __catch$_wrap_outctx_base_t_gen_border_line$13 00000001800229fc f   ua.obj
 0001:00021a30       _wrap_outctx_base_t_gen_cmt_line__varargs__$catch$0 0000000180022a30 f   ua.obj
 0001:00021a3d       __catch$_wrap_outctx_base_t_gen_cmt_line__varargs__$3 0000000180022a3d f   ua.obj
 0001:00021a63       _wrap_outctx_base_t_gen_cmt_line__varargs__$catch$1 0000000180022a63 f   ua.obj
 0001:00021a70       __catch$_wrap_outctx_base_t_gen_cmt_line__varargs__$5 0000000180022a70 f   ua.obj
 0001:00021a9c       _wrap_outctx_base_t_gen_cmt_line__varargs__$catch$2 0000000180022a9c f   ua.obj
 0001:00021aa9       __catch$_wrap_outctx_base_t_gen_cmt_line__varargs__$7 0000000180022aa9 f   ua.obj
 0001:00021ac1       _wrap_outctx_base_t_gen_cmt_line__varargs__$catch$3 0000000180022ac1 f   ua.obj
 0001:00021ace       __catch$_wrap_outctx_base_t_gen_cmt_line__varargs__$9 0000000180022ace f   ua.obj
 0001:00021ae6       _wrap_outctx_base_t_gen_cmt_line__varargs__$catch$4 0000000180022ae6 f   ua.obj
 0001:00021af3       __catch$_wrap_outctx_base_t_gen_cmt_line__varargs__$11 0000000180022af3 f   ua.obj
 0001:00021b1f       _wrap_outctx_base_t_gen_cmt_line__varargs__$catch$5 0000000180022b1f f   ua.obj
 0001:00021b2c       __catch$_wrap_outctx_base_t_gen_cmt_line__varargs__$13 0000000180022b2c f   ua.obj
 0001:00021b60       _wrap_outctx_base_t_gen_collapsed_line__varargs__$catch$0 0000000180022b60 f   ua.obj
 0001:00021b6d       __catch$_wrap_outctx_base_t_gen_collapsed_line__varargs__$3 0000000180022b6d f   ua.obj
 0001:00021b93       _wrap_outctx_base_t_gen_collapsed_line__varargs__$catch$1 0000000180022b93 f   ua.obj
 0001:00021ba0       __catch$_wrap_outctx_base_t_gen_collapsed_line__varargs__$5 0000000180022ba0 f   ua.obj
 0001:00021bcc       _wrap_outctx_base_t_gen_collapsed_line__varargs__$catch$2 0000000180022bcc f   ua.obj
 0001:00021bd9       __catch$_wrap_outctx_base_t_gen_collapsed_line__varargs__$7 0000000180022bd9 f   ua.obj
 0001:00021bf1       _wrap_outctx_base_t_gen_collapsed_line__varargs__$catch$3 0000000180022bf1 f   ua.obj
 0001:00021bfe       __catch$_wrap_outctx_base_t_gen_collapsed_line__varargs__$9 0000000180022bfe f   ua.obj
 0001:00021c16       _wrap_outctx_base_t_gen_collapsed_line__varargs__$catch$4 0000000180022c16 f   ua.obj
 0001:00021c23       __catch$_wrap_outctx_base_t_gen_collapsed_line__varargs__$11 0000000180022c23 f   ua.obj
 0001:00021c4f       _wrap_outctx_base_t_gen_collapsed_line__varargs__$catch$5 0000000180022c4f f   ua.obj
 0001:00021c5c       __catch$_wrap_outctx_base_t_gen_collapsed_line__varargs__$13 0000000180022c5c f   ua.obj
 0001:00021c90       _wrap_outctx_base_t_gen_empty_line$catch$0 0000000180022c90 f   ua.obj
 0001:00021c9d       __catch$_wrap_outctx_base_t_gen_empty_line$2 0000000180022c9d f   ua.obj
 0001:00021cc3       _wrap_outctx_base_t_gen_empty_line$catch$1 0000000180022cc3 f   ua.obj
 0001:00021cd0       __catch$_wrap_outctx_base_t_gen_empty_line$4 0000000180022cd0 f   ua.obj
 0001:00021cfc       _wrap_outctx_base_t_gen_empty_line$catch$2 0000000180022cfc f   ua.obj
 0001:00021d09       __catch$_wrap_outctx_base_t_gen_empty_line$6 0000000180022d09 f   ua.obj
 0001:00021d21       _wrap_outctx_base_t_gen_empty_line$catch$3 0000000180022d21 f   ua.obj
 0001:00021d2e       __catch$_wrap_outctx_base_t_gen_empty_line$8 0000000180022d2e f   ua.obj
 0001:00021d46       _wrap_outctx_base_t_gen_empty_line$catch$4 0000000180022d46 f   ua.obj
 0001:00021d53       __catch$_wrap_outctx_base_t_gen_empty_line$10 0000000180022d53 f   ua.obj
 0001:00021d7f       _wrap_outctx_base_t_gen_empty_line$catch$5 0000000180022d7f f   ua.obj
 0001:00021d8c       __catch$_wrap_outctx_base_t_gen_empty_line$12 0000000180022d8c f   ua.obj
 0001:00021dc0       _wrap_outctx_base_t_gen_empty_line_without_annotations$catch$0 0000000180022dc0 f   ua.obj
 0001:00021dcd       __catch$_wrap_outctx_base_t_gen_empty_line_without_annotations$2 0000000180022dcd f   ua.obj
 0001:00021df3       _wrap_outctx_base_t_gen_empty_line_without_annotations$catch$1 0000000180022df3 f   ua.obj
 0001:00021e00       __catch$_wrap_outctx_base_t_gen_empty_line_without_annotations$4 0000000180022e00 f   ua.obj
 0001:00021e2c       _wrap_outctx_base_t_gen_empty_line_without_annotations$catch$2 0000000180022e2c f   ua.obj
 0001:00021e39       __catch$_wrap_outctx_base_t_gen_empty_line_without_annotations$6 0000000180022e39 f   ua.obj
 0001:00021e51       _wrap_outctx_base_t_gen_empty_line_without_annotations$catch$3 0000000180022e51 f   ua.obj
 0001:00021e5e       __catch$_wrap_outctx_base_t_gen_empty_line_without_annotations$8 0000000180022e5e f   ua.obj
 0001:00021e76       _wrap_outctx_base_t_gen_empty_line_without_annotations$catch$4 0000000180022e76 f   ua.obj
 0001:00021e83       __catch$_wrap_outctx_base_t_gen_empty_line_without_annotations$10 0000000180022e83 f   ua.obj
 0001:00021eaf       _wrap_outctx_base_t_gen_empty_line_without_annotations$catch$5 0000000180022eaf f   ua.obj
 0001:00021ebc       __catch$_wrap_outctx_base_t_gen_empty_line_without_annotations$12 0000000180022ebc f   ua.obj
 0001:00021ef0       _wrap_outctx_base_t_gen_printf__varargs__$catch$0 0000000180022ef0 f   ua.obj
 0001:00021efd       __catch$_wrap_outctx_base_t_gen_printf__varargs__$4 0000000180022efd f   ua.obj
 0001:00021f23       _wrap_outctx_base_t_gen_printf__varargs__$catch$1 0000000180022f23 f   ua.obj
 0001:00021f30       __catch$_wrap_outctx_base_t_gen_printf__varargs__$6 0000000180022f30 f   ua.obj
 0001:00021f5c       _wrap_outctx_base_t_gen_printf__varargs__$catch$2 0000000180022f5c f   ua.obj
 0001:00021f69       __catch$_wrap_outctx_base_t_gen_printf__varargs__$8 0000000180022f69 f   ua.obj
 0001:00021f81       _wrap_outctx_base_t_gen_printf__varargs__$catch$3 0000000180022f81 f   ua.obj
 0001:00021f8e       __catch$_wrap_outctx_base_t_gen_printf__varargs__$10 0000000180022f8e f   ua.obj
 0001:00021fa6       _wrap_outctx_base_t_gen_printf__varargs__$catch$4 0000000180022fa6 f   ua.obj
 0001:00021fb3       __catch$_wrap_outctx_base_t_gen_printf__varargs__$12 0000000180022fb3 f   ua.obj
 0001:00021fdf       _wrap_outctx_base_t_gen_printf__varargs__$catch$5 0000000180022fdf f   ua.obj
 0001:00021fec       __catch$_wrap_outctx_base_t_gen_printf__varargs__$14 0000000180022fec f   ua.obj
 0001:00022020       _wrap_outctx_base_t_gen_xref_lines$catch$0 0000000180023020 f   ua.obj
 0001:0002202d       __catch$_wrap_outctx_base_t_gen_xref_lines$2 000000018002302d f   ua.obj
 0001:00022053       _wrap_outctx_base_t_gen_xref_lines$catch$1 0000000180023053 f   ua.obj
 0001:00022060       __catch$_wrap_outctx_base_t_gen_xref_lines$4 0000000180023060 f   ua.obj
 0001:0002208c       _wrap_outctx_base_t_gen_xref_lines$catch$2 000000018002308c f   ua.obj
 0001:00022099       __catch$_wrap_outctx_base_t_gen_xref_lines$6 0000000180023099 f   ua.obj
 0001:000220b1       _wrap_outctx_base_t_gen_xref_lines$catch$3 00000001800230b1 f   ua.obj
 0001:000220be       __catch$_wrap_outctx_base_t_gen_xref_lines$8 00000001800230be f   ua.obj
 0001:000220d6       _wrap_outctx_base_t_gen_xref_lines$catch$4 00000001800230d6 f   ua.obj
 0001:000220e3       __catch$_wrap_outctx_base_t_gen_xref_lines$10 00000001800230e3 f   ua.obj
 0001:0002210f       _wrap_outctx_base_t_gen_xref_lines$catch$5 000000018002310f f   ua.obj
 0001:0002211c       __catch$_wrap_outctx_base_t_gen_xref_lines$12 000000018002311c f   ua.obj
 0001:00022150       _wrap_outctx_base_t_get_stkvar$catch$0 0000000180023150 f   ua.obj
 0001:0002215d       __catch$_wrap_outctx_base_t_get_stkvar$7 000000018002315d f   ua.obj
 0001:00022183       _wrap_outctx_base_t_get_stkvar$catch$1 0000000180023183 f   ua.obj
 0001:00022190       __catch$_wrap_outctx_base_t_get_stkvar$9 0000000180023190 f   ua.obj
 0001:000221bc       _wrap_outctx_base_t_get_stkvar$catch$2 00000001800231bc f   ua.obj
 0001:000221c9       __catch$_wrap_outctx_base_t_get_stkvar$11 00000001800231c9 f   ua.obj
 0001:000221e1       _wrap_outctx_base_t_get_stkvar$catch$3 00000001800231e1 f   ua.obj
 0001:000221ee       __catch$_wrap_outctx_base_t_get_stkvar$13 00000001800231ee f   ua.obj
 0001:00022206       _wrap_outctx_base_t_get_stkvar$catch$4 0000000180023206 f   ua.obj
 0001:00022213       __catch$_wrap_outctx_base_t_get_stkvar$15 0000000180023213 f   ua.obj
 0001:0002223f       _wrap_outctx_base_t_get_stkvar$catch$5 000000018002323f f   ua.obj
 0001:0002224c       __catch$_wrap_outctx_base_t_get_stkvar$17 000000018002324c f   ua.obj
 0001:00022280       _wrap_outctx_base_t_init_lines_array$catch$0 0000000180023280 f   ua.obj
 0001:0002228d       __catch$_wrap_outctx_base_t_init_lines_array$4 000000018002328d f   ua.obj
 0001:000222b3       _wrap_outctx_base_t_init_lines_array$catch$1 00000001800232b3 f   ua.obj
 0001:000222c0       __catch$_wrap_outctx_base_t_init_lines_array$6 00000001800232c0 f   ua.obj
 0001:000222ec       _wrap_outctx_base_t_init_lines_array$catch$2 00000001800232ec f   ua.obj
 0001:000222f9       __catch$_wrap_outctx_base_t_init_lines_array$8 00000001800232f9 f   ua.obj
 0001:00022311       _wrap_outctx_base_t_init_lines_array$catch$3 0000000180023311 f   ua.obj
 0001:0002231e       __catch$_wrap_outctx_base_t_init_lines_array$10 000000018002331e f   ua.obj
 0001:00022336       _wrap_outctx_base_t_init_lines_array$catch$4 0000000180023336 f   ua.obj
 0001:00022343       __catch$_wrap_outctx_base_t_init_lines_array$12 0000000180023343 f   ua.obj
 0001:0002236f       _wrap_outctx_base_t_init_lines_array$catch$5 000000018002336f f   ua.obj
 0001:0002237c       __catch$_wrap_outctx_base_t_init_lines_array$14 000000018002337c f   ua.obj
 0001:000223b0       _wrap_outctx_base_t_multiline$catch$5 00000001800233b0 f   ua.obj
 0001:000223bd       __catch$_wrap_outctx_base_t_multiline$2 00000001800233bd f   ua.obj
 0001:000223e3       _wrap_outctx_base_t_multiline$catch$4 00000001800233e3 f   ua.obj
 0001:000223f0       __catch$_wrap_outctx_base_t_multiline$4 00000001800233f0 f   ua.obj
 0001:0002241c       _wrap_outctx_base_t_multiline$catch$3 000000018002341c f   ua.obj
 0001:00022429       __catch$_wrap_outctx_base_t_multiline$6 0000000180023429 f   ua.obj
 0001:00022441       _wrap_outctx_base_t_multiline$catch$2 0000000180023441 f   ua.obj
 0001:0002244e       __catch$_wrap_outctx_base_t_multiline$8 000000018002344e f   ua.obj
 0001:00022466       _wrap_outctx_base_t_multiline$catch$1 0000000180023466 f   ua.obj
 0001:00022473       __catch$_wrap_outctx_base_t_multiline$10 0000000180023473 f   ua.obj
 0001:0002249f       _wrap_outctx_base_t_multiline$catch$0 000000018002349f f   ua.obj
 0001:000224ac       __catch$_wrap_outctx_base_t_multiline$12 00000001800234ac f   ua.obj
 0001:000224e0       _wrap_outctx_base_t_only_main_line$catch$5 00000001800234e0 f   ua.obj
 0001:000224ed       __catch$_wrap_outctx_base_t_only_main_line$2 00000001800234ed f   ua.obj
 0001:00022513       _wrap_outctx_base_t_only_main_line$catch$4 0000000180023513 f   ua.obj
 0001:00022520       __catch$_wrap_outctx_base_t_only_main_line$4 0000000180023520 f   ua.obj
 0001:0002254c       _wrap_outctx_base_t_only_main_line$catch$3 000000018002354c f   ua.obj
 0001:00022559       __catch$_wrap_outctx_base_t_only_main_line$6 0000000180023559 f   ua.obj
 0001:00022571       _wrap_outctx_base_t_only_main_line$catch$2 0000000180023571 f   ua.obj
 0001:0002257e       __catch$_wrap_outctx_base_t_only_main_line$8 000000018002357e f   ua.obj
 0001:00022596       _wrap_outctx_base_t_only_main_line$catch$1 0000000180023596 f   ua.obj
 0001:000225a3       __catch$_wrap_outctx_base_t_only_main_line$10 00000001800235a3 f   ua.obj
 0001:000225cf       _wrap_outctx_base_t_only_main_line$catch$0 00000001800235cf f   ua.obj
 0001:000225dc       __catch$_wrap_outctx_base_t_only_main_line$12 00000001800235dc f   ua.obj
 0001:00022610       _wrap_outctx_base_t_out_addr_tag$catch$0 0000000180023610 f   ua.obj
 0001:0002261d       __catch$_wrap_outctx_base_t_out_addr_tag$3 000000018002361d f   ua.obj
 0001:00022643       _wrap_outctx_base_t_out_addr_tag$catch$1 0000000180023643 f   ua.obj
 0001:00022650       __catch$_wrap_outctx_base_t_out_addr_tag$5 0000000180023650 f   ua.obj
 0001:0002267c       _wrap_outctx_base_t_out_addr_tag$catch$2 000000018002367c f   ua.obj
 0001:00022689       __catch$_wrap_outctx_base_t_out_addr_tag$7 0000000180023689 f   ua.obj
 0001:000226a1       _wrap_outctx_base_t_out_addr_tag$catch$3 00000001800236a1 f   ua.obj
 0001:000226ae       __catch$_wrap_outctx_base_t_out_addr_tag$9 00000001800236ae f   ua.obj
 0001:000226c6       _wrap_outctx_base_t_out_addr_tag$catch$4 00000001800236c6 f   ua.obj
 0001:000226d3       __catch$_wrap_outctx_base_t_out_addr_tag$11 00000001800236d3 f   ua.obj
 0001:000226ff       _wrap_outctx_base_t_out_addr_tag$catch$5 00000001800236ff f   ua.obj
 0001:0002270c       __catch$_wrap_outctx_base_t_out_addr_tag$13 000000018002370c f   ua.obj
 0001:00022740       _wrap_outctx_base_t_out_btoa$catch$0 0000000180023740 f   ua.obj
 0001:0002274d       __catch$_wrap_outctx_base_t_out_btoa$4 000000018002374d f   ua.obj
 0001:00022773       _wrap_outctx_base_t_out_btoa$catch$1 0000000180023773 f   ua.obj
 0001:00022780       __catch$_wrap_outctx_base_t_out_btoa$6 0000000180023780 f   ua.obj
 0001:000227ac       _wrap_outctx_base_t_out_btoa$catch$2 00000001800237ac f   ua.obj
 0001:000227b9       __catch$_wrap_outctx_base_t_out_btoa$8 00000001800237b9 f   ua.obj
 0001:000227d1       _wrap_outctx_base_t_out_btoa$catch$3 00000001800237d1 f   ua.obj
 0001:000227de       __catch$_wrap_outctx_base_t_out_btoa$10 00000001800237de f   ua.obj
 0001:000227f6       _wrap_outctx_base_t_out_btoa$catch$4 00000001800237f6 f   ua.obj
 0001:00022803       __catch$_wrap_outctx_base_t_out_btoa$12 0000000180023803 f   ua.obj
 0001:0002282f       _wrap_outctx_base_t_out_btoa$catch$5 000000018002382f f   ua.obj
 0001:0002283c       __catch$_wrap_outctx_base_t_out_btoa$14 000000018002383c f   ua.obj
 0001:00022870       _wrap_outctx_base_t_out_char$catch$0 0000000180023870 f   ua.obj
 0001:0002287d       __catch$_wrap_outctx_base_t_out_char$3 000000018002387d f   ua.obj
 0001:000228a3       _wrap_outctx_base_t_out_char$catch$1 00000001800238a3 f   ua.obj
 0001:000228b0       __catch$_wrap_outctx_base_t_out_char$5 00000001800238b0 f   ua.obj
 0001:000228dc       _wrap_outctx_base_t_out_char$catch$2 00000001800238dc f   ua.obj
 0001:000228e9       __catch$_wrap_outctx_base_t_out_char$7 00000001800238e9 f   ua.obj
 0001:00022901       _wrap_outctx_base_t_out_char$catch$3 0000000180023901 f   ua.obj
 0001:0002290e       __catch$_wrap_outctx_base_t_out_char$9 000000018002390e f   ua.obj
 0001:00022926       _wrap_outctx_base_t_out_char$catch$4 0000000180023926 f   ua.obj
 0001:00022933       __catch$_wrap_outctx_base_t_out_char$11 0000000180023933 f   ua.obj
 0001:0002295f       _wrap_outctx_base_t_out_char$catch$5 000000018002395f f   ua.obj
 0001:0002296c       __catch$_wrap_outctx_base_t_out_char$13 000000018002396c f   ua.obj
 0001:000229a0       _wrap_outctx_base_t_out_chars$catch$0 00000001800239a0 f   ua.obj
 0001:000229ad       __catch$_wrap_outctx_base_t_out_chars$4 00000001800239ad f   ua.obj
 0001:000229d3       _wrap_outctx_base_t_out_chars$catch$1 00000001800239d3 f   ua.obj
 0001:000229e0       __catch$_wrap_outctx_base_t_out_chars$6 00000001800239e0 f   ua.obj
 0001:00022a0c       _wrap_outctx_base_t_out_chars$catch$2 0000000180023a0c f   ua.obj
 0001:00022a19       __catch$_wrap_outctx_base_t_out_chars$8 0000000180023a19 f   ua.obj
 0001:00022a31       _wrap_outctx_base_t_out_chars$catch$3 0000000180023a31 f   ua.obj
 0001:00022a3e       __catch$_wrap_outctx_base_t_out_chars$10 0000000180023a3e f   ua.obj
 0001:00022a56       _wrap_outctx_base_t_out_chars$catch$4 0000000180023a56 f   ua.obj
 0001:00022a63       __catch$_wrap_outctx_base_t_out_chars$12 0000000180023a63 f   ua.obj
 0001:00022a8f       _wrap_outctx_base_t_out_chars$catch$5 0000000180023a8f f   ua.obj
 0001:00022a9c       __catch$_wrap_outctx_base_t_out_chars$14 0000000180023a9c f   ua.obj
 0001:00022ad0       _wrap_outctx_base_t_out_colored_register_line$catch$0 0000000180023ad0 f   ua.obj
 0001:00022add       __catch$_wrap_outctx_base_t_out_colored_register_line$3 0000000180023add f   ua.obj
 0001:00022b03       _wrap_outctx_base_t_out_colored_register_line$catch$1 0000000180023b03 f   ua.obj
 0001:00022b10       __catch$_wrap_outctx_base_t_out_colored_register_line$5 0000000180023b10 f   ua.obj
 0001:00022b3c       _wrap_outctx_base_t_out_colored_register_line$catch$2 0000000180023b3c f   ua.obj
 0001:00022b49       __catch$_wrap_outctx_base_t_out_colored_register_line$7 0000000180023b49 f   ua.obj
 0001:00022b61       _wrap_outctx_base_t_out_colored_register_line$catch$3 0000000180023b61 f   ua.obj
 0001:00022b6e       __catch$_wrap_outctx_base_t_out_colored_register_line$9 0000000180023b6e f   ua.obj
 0001:00022b86       _wrap_outctx_base_t_out_colored_register_line$catch$4 0000000180023b86 f   ua.obj
 0001:00022b93       __catch$_wrap_outctx_base_t_out_colored_register_line$11 0000000180023b93 f   ua.obj
 0001:00022bbf       _wrap_outctx_base_t_out_colored_register_line$catch$5 0000000180023bbf f   ua.obj
 0001:00022bcc       __catch$_wrap_outctx_base_t_out_colored_register_line$13 0000000180023bcc f   ua.obj
 0001:00022c00       _wrap_outctx_base_t_out_keyword$catch$0 0000000180023c00 f   ua.obj
 0001:00022c0d       __catch$_wrap_outctx_base_t_out_keyword$3 0000000180023c0d f   ua.obj
 0001:00022c33       _wrap_outctx_base_t_out_keyword$catch$1 0000000180023c33 f   ua.obj
 0001:00022c40       __catch$_wrap_outctx_base_t_out_keyword$5 0000000180023c40 f   ua.obj
 0001:00022c6c       _wrap_outctx_base_t_out_keyword$catch$2 0000000180023c6c f   ua.obj
 0001:00022c79       __catch$_wrap_outctx_base_t_out_keyword$7 0000000180023c79 f   ua.obj
 0001:00022c91       _wrap_outctx_base_t_out_keyword$catch$3 0000000180023c91 f   ua.obj
 0001:00022c9e       __catch$_wrap_outctx_base_t_out_keyword$9 0000000180023c9e f   ua.obj
 0001:00022cb6       _wrap_outctx_base_t_out_keyword$catch$4 0000000180023cb6 f   ua.obj
 0001:00022cc3       __catch$_wrap_outctx_base_t_out_keyword$11 0000000180023cc3 f   ua.obj
 0001:00022cef       _wrap_outctx_base_t_out_keyword$catch$5 0000000180023cef f   ua.obj
 0001:00022cfc       __catch$_wrap_outctx_base_t_out_keyword$13 0000000180023cfc f   ua.obj
 0001:00022d30       _wrap_outctx_base_t_out_line$catch$0 0000000180023d30 f   ua.obj
 0001:00022d3d       __catch$_wrap_outctx_base_t_out_line$4 0000000180023d3d f   ua.obj
 0001:00022d63       _wrap_outctx_base_t_out_line$catch$1 0000000180023d63 f   ua.obj
 0001:00022d70       __catch$_wrap_outctx_base_t_out_line$6 0000000180023d70 f   ua.obj
 0001:00022d9c       _wrap_outctx_base_t_out_line$catch$2 0000000180023d9c f   ua.obj
 0001:00022da9       __catch$_wrap_outctx_base_t_out_line$8 0000000180023da9 f   ua.obj
 0001:00022dc1       _wrap_outctx_base_t_out_line$catch$3 0000000180023dc1 f   ua.obj
 0001:00022dce       __catch$_wrap_outctx_base_t_out_line$10 0000000180023dce f   ua.obj
 0001:00022de6       _wrap_outctx_base_t_out_line$catch$4 0000000180023de6 f   ua.obj
 0001:00022df3       __catch$_wrap_outctx_base_t_out_line$12 0000000180023df3 f   ua.obj
 0001:00022e1f       _wrap_outctx_base_t_out_line$catch$5 0000000180023e1f f   ua.obj
 0001:00022e2c       __catch$_wrap_outctx_base_t_out_line$14 0000000180023e2c f   ua.obj
 0001:00022e60       _wrap_outctx_base_t_out_long$catch$0 0000000180023e60 f   ua.obj
 0001:00022e6d       __catch$_wrap_outctx_base_t_out_long$4 0000000180023e6d f   ua.obj
 0001:00022e93       _wrap_outctx_base_t_out_long$catch$1 0000000180023e93 f   ua.obj
 0001:00022ea0       __catch$_wrap_outctx_base_t_out_long$6 0000000180023ea0 f   ua.obj
 0001:00022ecc       _wrap_outctx_base_t_out_long$catch$2 0000000180023ecc f   ua.obj
 0001:00022ed9       __catch$_wrap_outctx_base_t_out_long$8 0000000180023ed9 f   ua.obj
 0001:00022ef1       _wrap_outctx_base_t_out_long$catch$3 0000000180023ef1 f   ua.obj
 0001:00022efe       __catch$_wrap_outctx_base_t_out_long$10 0000000180023efe f   ua.obj
 0001:00022f16       _wrap_outctx_base_t_out_long$catch$4 0000000180023f16 f   ua.obj
 0001:00022f23       __catch$_wrap_outctx_base_t_out_long$12 0000000180023f23 f   ua.obj
 0001:00022f4f       _wrap_outctx_base_t_out_long$catch$5 0000000180023f4f f   ua.obj
 0001:00022f5c       __catch$_wrap_outctx_base_t_out_long$14 0000000180023f5c f   ua.obj
 0001:00022f90       _wrap_outctx_base_t_out_name_expr$catch$0 0000000180023f90 f   ua.obj
 0001:00022f9d       __catch$_wrap_outctx_base_t_out_name_expr$6 0000000180023f9d f   ua.obj
 0001:00022fc3       _wrap_outctx_base_t_out_name_expr$catch$1 0000000180023fc3 f   ua.obj
 0001:00022fd0       __catch$_wrap_outctx_base_t_out_name_expr$8 0000000180023fd0 f   ua.obj
 0001:00022ffc       _wrap_outctx_base_t_out_name_expr$catch$2 0000000180023ffc f   ua.obj
 0001:00023009       __catch$_wrap_outctx_base_t_out_name_expr$10 0000000180024009 f   ua.obj
 0001:00023021       _wrap_outctx_base_t_out_name_expr$catch$3 0000000180024021 f   ua.obj
 0001:0002302e       __catch$_wrap_outctx_base_t_out_name_expr$12 000000018002402e f   ua.obj
 0001:00023046       _wrap_outctx_base_t_out_name_expr$catch$4 0000000180024046 f   ua.obj
 0001:00023053       __catch$_wrap_outctx_base_t_out_name_expr$14 0000000180024053 f   ua.obj
 0001:0002307f       _wrap_outctx_base_t_out_name_expr$catch$5 000000018002407f f   ua.obj
 0001:0002308c       __catch$_wrap_outctx_base_t_out_name_expr$16 000000018002408c f   ua.obj
 0001:000230c0       _wrap_outctx_base_t_out_printf__varargs__$catch$0 00000001800240c0 f   ua.obj
 0001:000230cd       __catch$_wrap_outctx_base_t_out_printf__varargs__$3 00000001800240cd f   ua.obj
 0001:000230f3       _wrap_outctx_base_t_out_printf__varargs__$catch$1 00000001800240f3 f   ua.obj
 0001:00023100       __catch$_wrap_outctx_base_t_out_printf__varargs__$5 0000000180024100 f   ua.obj
 0001:0002312c       _wrap_outctx_base_t_out_printf__varargs__$catch$2 000000018002412c f   ua.obj
 0001:00023139       __catch$_wrap_outctx_base_t_out_printf__varargs__$7 0000000180024139 f   ua.obj
 0001:00023151       _wrap_outctx_base_t_out_printf__varargs__$catch$3 0000000180024151 f   ua.obj
 0001:0002315e       __catch$_wrap_outctx_base_t_out_printf__varargs__$9 000000018002415e f   ua.obj
 0001:00023176       _wrap_outctx_base_t_out_printf__varargs__$catch$4 0000000180024176 f   ua.obj
 0001:00023183       __catch$_wrap_outctx_base_t_out_printf__varargs__$11 0000000180024183 f   ua.obj
 0001:000231af       _wrap_outctx_base_t_out_printf__varargs__$catch$5 00000001800241af f   ua.obj
 0001:000231bc       __catch$_wrap_outctx_base_t_out_printf__varargs__$13 00000001800241bc f   ua.obj
 0001:000231f0       _wrap_outctx_base_t_out_register$catch$0 00000001800241f0 f   ua.obj
 0001:000231fd       __catch$_wrap_outctx_base_t_out_register$3 00000001800241fd f   ua.obj
 0001:00023223       _wrap_outctx_base_t_out_register$catch$1 0000000180024223 f   ua.obj
 0001:00023230       __catch$_wrap_outctx_base_t_out_register$5 0000000180024230 f   ua.obj
 0001:0002325c       _wrap_outctx_base_t_out_register$catch$2 000000018002425c f   ua.obj
 0001:00023269       __catch$_wrap_outctx_base_t_out_register$7 0000000180024269 f   ua.obj
 0001:00023281       _wrap_outctx_base_t_out_register$catch$3 0000000180024281 f   ua.obj
 0001:0002328e       __catch$_wrap_outctx_base_t_out_register$9 000000018002428e f   ua.obj
 0001:000232a6       _wrap_outctx_base_t_out_register$catch$4 00000001800242a6 f   ua.obj
 0001:000232b3       __catch$_wrap_outctx_base_t_out_register$11 00000001800242b3 f   ua.obj
 0001:000232df       _wrap_outctx_base_t_out_register$catch$5 00000001800242df f   ua.obj
 0001:000232ec       __catch$_wrap_outctx_base_t_out_register$13 00000001800242ec f   ua.obj
 0001:00023320       _wrap_outctx_base_t_out_spaces$catch$0 0000000180024320 f   ua.obj
 0001:0002332d       __catch$_wrap_outctx_base_t_out_spaces$3 000000018002432d f   ua.obj
 0001:00023353       _wrap_outctx_base_t_out_spaces$catch$1 0000000180024353 f   ua.obj
 0001:00023360       __catch$_wrap_outctx_base_t_out_spaces$5 0000000180024360 f   ua.obj
 0001:0002338c       _wrap_outctx_base_t_out_spaces$catch$2 000000018002438c f   ua.obj
 0001:00023399       __catch$_wrap_outctx_base_t_out_spaces$7 0000000180024399 f   ua.obj
 0001:000233b1       _wrap_outctx_base_t_out_spaces$catch$3 00000001800243b1 f   ua.obj
 0001:000233be       __catch$_wrap_outctx_base_t_out_spaces$9 00000001800243be f   ua.obj
 0001:000233d6       _wrap_outctx_base_t_out_spaces$catch$4 00000001800243d6 f   ua.obj
 0001:000233e3       __catch$_wrap_outctx_base_t_out_spaces$11 00000001800243e3 f   ua.obj
 0001:0002340f       _wrap_outctx_base_t_out_spaces$catch$5 000000018002440f f   ua.obj
 0001:0002341c       __catch$_wrap_outctx_base_t_out_spaces$13 000000018002441c f   ua.obj
 0001:00023450       _wrap_outctx_base_t_out_symbol$catch$0 0000000180024450 f   ua.obj
 0001:0002345d       __catch$_wrap_outctx_base_t_out_symbol$3 000000018002445d f   ua.obj
 0001:00023483       _wrap_outctx_base_t_out_symbol$catch$1 0000000180024483 f   ua.obj
 0001:00023490       __catch$_wrap_outctx_base_t_out_symbol$5 0000000180024490 f   ua.obj
 0001:000234bc       _wrap_outctx_base_t_out_symbol$catch$2 00000001800244bc f   ua.obj
 0001:000234c9       __catch$_wrap_outctx_base_t_out_symbol$7 00000001800244c9 f   ua.obj
 0001:000234e1       _wrap_outctx_base_t_out_symbol$catch$3 00000001800244e1 f   ua.obj
 0001:000234ee       __catch$_wrap_outctx_base_t_out_symbol$9 00000001800244ee f   ua.obj
 0001:00023506       _wrap_outctx_base_t_out_symbol$catch$4 0000000180024506 f   ua.obj
 0001:00023513       __catch$_wrap_outctx_base_t_out_symbol$11 0000000180024513 f   ua.obj
 0001:0002353f       _wrap_outctx_base_t_out_symbol$catch$5 000000018002453f f   ua.obj
 0001:0002354c       __catch$_wrap_outctx_base_t_out_symbol$13 000000018002454c f   ua.obj
 0001:00023580       _wrap_outctx_base_t_out_tagoff$catch$0 0000000180024580 f   ua.obj
 0001:0002358d       __catch$_wrap_outctx_base_t_out_tagoff$3 000000018002458d f   ua.obj
 0001:000235b3       _wrap_outctx_base_t_out_tagoff$catch$1 00000001800245b3 f   ua.obj
 0001:000235c0       __catch$_wrap_outctx_base_t_out_tagoff$5 00000001800245c0 f   ua.obj
 0001:000235ec       _wrap_outctx_base_t_out_tagoff$catch$2 00000001800245ec f   ua.obj
 0001:000235f9       __catch$_wrap_outctx_base_t_out_tagoff$7 00000001800245f9 f   ua.obj
 0001:00023611       _wrap_outctx_base_t_out_tagoff$catch$3 0000000180024611 f   ua.obj
 0001:0002361e       __catch$_wrap_outctx_base_t_out_tagoff$9 000000018002461e f   ua.obj
 0001:00023636       _wrap_outctx_base_t_out_tagoff$catch$4 0000000180024636 f   ua.obj
 0001:00023643       __catch$_wrap_outctx_base_t_out_tagoff$11 0000000180024643 f   ua.obj
 0001:0002366f       _wrap_outctx_base_t_out_tagoff$catch$5 000000018002466f f   ua.obj
 0001:0002367c       __catch$_wrap_outctx_base_t_out_tagoff$13 000000018002467c f   ua.obj
 0001:000236b0       _wrap_outctx_base_t_out_tagon$catch$0 00000001800246b0 f   ua.obj
 0001:000236bd       __catch$_wrap_outctx_base_t_out_tagon$3 00000001800246bd f   ua.obj
 0001:000236e3       _wrap_outctx_base_t_out_tagon$catch$1 00000001800246e3 f   ua.obj
 0001:000236f0       __catch$_wrap_outctx_base_t_out_tagon$5 00000001800246f0 f   ua.obj
 0001:0002371c       _wrap_outctx_base_t_out_tagon$catch$2 000000018002471c f   ua.obj
 0001:00023729       __catch$_wrap_outctx_base_t_out_tagon$7 0000000180024729 f   ua.obj
 0001:00023741       _wrap_outctx_base_t_out_tagon$catch$3 0000000180024741 f   ua.obj
 0001:0002374e       __catch$_wrap_outctx_base_t_out_tagon$9 000000018002474e f   ua.obj
 0001:00023766       _wrap_outctx_base_t_out_tagon$catch$4 0000000180024766 f   ua.obj
 0001:00023773       __catch$_wrap_outctx_base_t_out_tagon$11 0000000180024773 f   ua.obj
 0001:0002379f       _wrap_outctx_base_t_out_tagon$catch$5 000000018002479f f   ua.obj
 0001:000237ac       __catch$_wrap_outctx_base_t_out_tagon$13 00000001800247ac f   ua.obj
 0001:000237e0       _wrap_outctx_base_t_out_value$catch$0 00000001800247e0 f   ua.obj
 0001:000237ed       __catch$_wrap_outctx_base_t_out_value$5 00000001800247ed f   ua.obj
 0001:00023813       _wrap_outctx_base_t_out_value$catch$1 0000000180024813 f   ua.obj
 0001:00023820       __catch$_wrap_outctx_base_t_out_value$7 0000000180024820 f   ua.obj
 0001:0002384c       _wrap_outctx_base_t_out_value$catch$2 000000018002484c f   ua.obj
 0001:00023859       __catch$_wrap_outctx_base_t_out_value$9 0000000180024859 f   ua.obj
 0001:00023871       _wrap_outctx_base_t_out_value$catch$3 0000000180024871 f   ua.obj
 0001:0002387e       __catch$_wrap_outctx_base_t_out_value$11 000000018002487e f   ua.obj
 0001:00023896       _wrap_outctx_base_t_out_value$catch$4 0000000180024896 f   ua.obj
 0001:000238a3       __catch$_wrap_outctx_base_t_out_value$13 00000001800248a3 f   ua.obj
 0001:000238cf       _wrap_outctx_base_t_out_value$catch$5 00000001800248cf f   ua.obj
 0001:000238dc       __catch$_wrap_outctx_base_t_out_value$15 00000001800248dc f   ua.obj
 0001:00023910       _wrap_outctx_base_t_print_label_now$catch$5 0000000180024910 f   ua.obj
 0001:0002391d       __catch$_wrap_outctx_base_t_print_label_now$2 000000018002491d f   ua.obj
 0001:00023943       _wrap_outctx_base_t_print_label_now$catch$4 0000000180024943 f   ua.obj
 0001:00023950       __catch$_wrap_outctx_base_t_print_label_now$4 0000000180024950 f   ua.obj
 0001:0002397c       _wrap_outctx_base_t_print_label_now$catch$3 000000018002497c f   ua.obj
 0001:00023989       __catch$_wrap_outctx_base_t_print_label_now$6 0000000180024989 f   ua.obj
 0001:000239a1       _wrap_outctx_base_t_print_label_now$catch$2 00000001800249a1 f   ua.obj
 0001:000239ae       __catch$_wrap_outctx_base_t_print_label_now$8 00000001800249ae f   ua.obj
 0001:000239c6       _wrap_outctx_base_t_print_label_now$catch$1 00000001800249c6 f   ua.obj
 0001:000239d3       __catch$_wrap_outctx_base_t_print_label_now$10 00000001800249d3 f   ua.obj
 0001:000239ff       _wrap_outctx_base_t_print_label_now$catch$0 00000001800249ff f   ua.obj
 0001:00023a0c       __catch$_wrap_outctx_base_t_print_label_now$12 0000000180024a0c f   ua.obj
 0001:00023a40       _wrap_outctx_base_t_restore_ctxflags$catch$5 0000000180024a40 f   ua.obj
 0001:00023a4d       __catch$_wrap_outctx_base_t_restore_ctxflags$3 0000000180024a4d f   ua.obj
 0001:00023a73       _wrap_outctx_base_t_restore_ctxflags$catch$4 0000000180024a73 f   ua.obj
 0001:00023a80       __catch$_wrap_outctx_base_t_restore_ctxflags$5 0000000180024a80 f   ua.obj
 0001:00023aac       _wrap_outctx_base_t_restore_ctxflags$catch$3 0000000180024aac f   ua.obj
 0001:00023ab9       __catch$_wrap_outctx_base_t_restore_ctxflags$7 0000000180024ab9 f   ua.obj
 0001:00023ad1       _wrap_outctx_base_t_restore_ctxflags$catch$2 0000000180024ad1 f   ua.obj
 0001:00023ade       __catch$_wrap_outctx_base_t_restore_ctxflags$9 0000000180024ade f   ua.obj
 0001:00023af6       _wrap_outctx_base_t_restore_ctxflags$catch$1 0000000180024af6 f   ua.obj
 0001:00023b03       __catch$_wrap_outctx_base_t_restore_ctxflags$11 0000000180024b03 f   ua.obj
 0001:00023b2f       _wrap_outctx_base_t_restore_ctxflags$catch$0 0000000180024b2f f   ua.obj
 0001:00023b3c       __catch$_wrap_outctx_base_t_restore_ctxflags$13 0000000180024b3c f   ua.obj
 0001:00023b70       _wrap_outctx_base_t_retrieve_cmt$catch$0 0000000180024b70 f   ua.obj
 0001:00023b7d       __catch$_wrap_outctx_base_t_retrieve_cmt$2 0000000180024b7d f   ua.obj
 0001:00023ba3       _wrap_outctx_base_t_retrieve_cmt$catch$1 0000000180024ba3 f   ua.obj
 0001:00023bb0       __catch$_wrap_outctx_base_t_retrieve_cmt$4 0000000180024bb0 f   ua.obj
 0001:00023bdc       _wrap_outctx_base_t_retrieve_cmt$catch$2 0000000180024bdc f   ua.obj
 0001:00023be9       __catch$_wrap_outctx_base_t_retrieve_cmt$6 0000000180024be9 f   ua.obj
 0001:00023c01       _wrap_outctx_base_t_retrieve_cmt$catch$3 0000000180024c01 f   ua.obj
 0001:00023c0e       __catch$_wrap_outctx_base_t_retrieve_cmt$8 0000000180024c0e f   ua.obj
 0001:00023c26       _wrap_outctx_base_t_retrieve_cmt$catch$4 0000000180024c26 f   ua.obj
 0001:00023c33       __catch$_wrap_outctx_base_t_retrieve_cmt$10 0000000180024c33 f   ua.obj
 0001:00023c5f       _wrap_outctx_base_t_retrieve_cmt$catch$5 0000000180024c5f f   ua.obj
 0001:00023c6c       __catch$_wrap_outctx_base_t_retrieve_cmt$12 0000000180024c6c f   ua.obj
 0001:00023ca0       _wrap_outctx_base_t_retrieve_name$catch$3 0000000180024ca0 f   ua.obj
 0001:00023cad       __catch$_wrap_outctx_base_t_retrieve_name$4 0000000180024cad f   ua.obj
 0001:00023cd3       _wrap_outctx_base_t_retrieve_name$catch$4 0000000180024cd3 f   ua.obj
 0001:00023ce0       __catch$_wrap_outctx_base_t_retrieve_name$6 0000000180024ce0 f   ua.obj
 0001:00023d0c       _wrap_outctx_base_t_retrieve_name$catch$5 0000000180024d0c f   ua.obj
 0001:00023d19       __catch$_wrap_outctx_base_t_retrieve_name$8 0000000180024d19 f   ua.obj
 0001:00023d31       _wrap_outctx_base_t_retrieve_name$catch$6 0000000180024d31 f   ua.obj
 0001:00023d3e       __catch$_wrap_outctx_base_t_retrieve_name$10 0000000180024d3e f   ua.obj
 0001:00023d56       _wrap_outctx_base_t_retrieve_name$catch$7 0000000180024d56 f   ua.obj
 0001:00023d63       __catch$_wrap_outctx_base_t_retrieve_name$12 0000000180024d63 f   ua.obj
 0001:00023d8f       _wrap_outctx_base_t_retrieve_name$catch$8 0000000180024d8f f   ua.obj
 0001:00023d9c       __catch$_wrap_outctx_base_t_retrieve_name$14 0000000180024d9c f   ua.obj
 0001:00023dd0       _wrap_outctx_base_t_set_comment_addr$catch$5 0000000180024dd0 f   ua.obj
 0001:00023ddd       __catch$_wrap_outctx_base_t_set_comment_addr$3 0000000180024ddd f   ua.obj
 0001:00023e03       _wrap_outctx_base_t_set_comment_addr$catch$4 0000000180024e03 f   ua.obj
 0001:00023e10       __catch$_wrap_outctx_base_t_set_comment_addr$5 0000000180024e10 f   ua.obj
 0001:00023e3c       _wrap_outctx_base_t_set_comment_addr$catch$3 0000000180024e3c f   ua.obj
 0001:00023e49       __catch$_wrap_outctx_base_t_set_comment_addr$7 0000000180024e49 f   ua.obj
 0001:00023e61       _wrap_outctx_base_t_set_comment_addr$catch$2 0000000180024e61 f   ua.obj
 0001:00023e6e       __catch$_wrap_outctx_base_t_set_comment_addr$9 0000000180024e6e f   ua.obj
 0001:00023e86       _wrap_outctx_base_t_set_comment_addr$catch$1 0000000180024e86 f   ua.obj
 0001:00023e93       __catch$_wrap_outctx_base_t_set_comment_addr$11 0000000180024e93 f   ua.obj
 0001:00023ebf       _wrap_outctx_base_t_set_comment_addr$catch$0 0000000180024ebf f   ua.obj
 0001:00023ecc       __catch$_wrap_outctx_base_t_set_comment_addr$13 0000000180024ecc f   ua.obj
 0001:00023f00       _wrap_outctx_base_t_set_dlbind_opnd$catch$5 0000000180024f00 f   ua.obj
 0001:00023f0d       __catch$_wrap_outctx_base_t_set_dlbind_opnd$2 0000000180024f0d f   ua.obj
 0001:00023f33       _wrap_outctx_base_t_set_dlbind_opnd$catch$4 0000000180024f33 f   ua.obj
 0001:00023f40       __catch$_wrap_outctx_base_t_set_dlbind_opnd$4 0000000180024f40 f   ua.obj
 0001:00023f6c       _wrap_outctx_base_t_set_dlbind_opnd$catch$3 0000000180024f6c f   ua.obj
 0001:00023f79       __catch$_wrap_outctx_base_t_set_dlbind_opnd$6 0000000180024f79 f   ua.obj
 0001:00023f91       _wrap_outctx_base_t_set_dlbind_opnd$catch$2 0000000180024f91 f   ua.obj
 0001:00023f9e       __catch$_wrap_outctx_base_t_set_dlbind_opnd$8 0000000180024f9e f   ua.obj
 0001:00023fb6       _wrap_outctx_base_t_set_dlbind_opnd$catch$1 0000000180024fb6 f   ua.obj
 0001:00023fc3       __catch$_wrap_outctx_base_t_set_dlbind_opnd$10 0000000180024fc3 f   ua.obj
 0001:00023fef       _wrap_outctx_base_t_set_dlbind_opnd$catch$0 0000000180024fef f   ua.obj
 0001:00023ffc       __catch$_wrap_outctx_base_t_set_dlbind_opnd$12 0000000180024ffc f   ua.obj
 0001:00024030       _wrap_outctx_base_t_set_gen_cmt$catch$5 0000000180025030 f   ua.obj
 0001:0002403d       __catch$_wrap_outctx_base_t_set_gen_cmt$3 000000018002503d f   ua.obj
 0001:00024063       _wrap_outctx_base_t_set_gen_cmt$catch$4 0000000180025063 f   ua.obj
 0001:00024070       __catch$_wrap_outctx_base_t_set_gen_cmt$5 0000000180025070 f   ua.obj
 0001:0002409c       _wrap_outctx_base_t_set_gen_cmt$catch$3 000000018002509c f   ua.obj
 0001:000240a9       __catch$_wrap_outctx_base_t_set_gen_cmt$7 00000001800250a9 f   ua.obj
 0001:000240c1       _wrap_outctx_base_t_set_gen_cmt$catch$2 00000001800250c1 f   ua.obj
 0001:000240ce       __catch$_wrap_outctx_base_t_set_gen_cmt$9 00000001800250ce f   ua.obj
 0001:000240e6       _wrap_outctx_base_t_set_gen_cmt$catch$1 00000001800250e6 f   ua.obj
 0001:000240f3       __catch$_wrap_outctx_base_t_set_gen_cmt$11 00000001800250f3 f   ua.obj
 0001:0002411f       _wrap_outctx_base_t_set_gen_cmt$catch$0 000000018002511f f   ua.obj
 0001:0002412c       __catch$_wrap_outctx_base_t_set_gen_cmt$13 000000018002512c f   ua.obj
 0001:00024160       _wrap_outctx_base_t_set_gen_demangled_label$catch$5 0000000180025160 f   ua.obj
 0001:0002416d       __catch$_wrap_outctx_base_t_set_gen_demangled_label$2 000000018002516d f   ua.obj
 0001:00024193       _wrap_outctx_base_t_set_gen_demangled_label$catch$4 0000000180025193 f   ua.obj
 0001:000241a0       __catch$_wrap_outctx_base_t_set_gen_demangled_label$4 00000001800251a0 f   ua.obj
 0001:000241cc       _wrap_outctx_base_t_set_gen_demangled_label$catch$3 00000001800251cc f   ua.obj
 0001:000241d9       __catch$_wrap_outctx_base_t_set_gen_demangled_label$6 00000001800251d9 f   ua.obj
 0001:000241f1       _wrap_outctx_base_t_set_gen_demangled_label$catch$2 00000001800251f1 f   ua.obj
 0001:000241fe       __catch$_wrap_outctx_base_t_set_gen_demangled_label$8 00000001800251fe f   ua.obj
 0001:00024216       _wrap_outctx_base_t_set_gen_demangled_label$catch$1 0000000180025216 f   ua.obj
 0001:00024223       __catch$_wrap_outctx_base_t_set_gen_demangled_label$10 0000000180025223 f   ua.obj
 0001:0002424f       _wrap_outctx_base_t_set_gen_demangled_label$catch$0 000000018002524f f   ua.obj
 0001:0002425c       __catch$_wrap_outctx_base_t_set_gen_demangled_label$12 000000018002525c f   ua.obj
 0001:00024290       _wrap_outctx_base_t_set_gen_label$catch$5 0000000180025290 f   ua.obj
 0001:0002429d       __catch$_wrap_outctx_base_t_set_gen_label$2 000000018002529d f   ua.obj
 0001:000242c3       _wrap_outctx_base_t_set_gen_label$catch$4 00000001800252c3 f   ua.obj
 0001:000242d0       __catch$_wrap_outctx_base_t_set_gen_label$4 00000001800252d0 f   ua.obj
 0001:000242fc       _wrap_outctx_base_t_set_gen_label$catch$3 00000001800252fc f   ua.obj
 0001:00024309       __catch$_wrap_outctx_base_t_set_gen_label$6 0000000180025309 f   ua.obj
 0001:00024321       _wrap_outctx_base_t_set_gen_label$catch$2 0000000180025321 f   ua.obj
 0001:0002432e       __catch$_wrap_outctx_base_t_set_gen_label$8 000000018002532e f   ua.obj
 0001:00024346       _wrap_outctx_base_t_set_gen_label$catch$1 0000000180025346 f   ua.obj
 0001:00024353       __catch$_wrap_outctx_base_t_set_gen_label$10 0000000180025353 f   ua.obj
 0001:0002437f       _wrap_outctx_base_t_set_gen_label$catch$0 000000018002537f f   ua.obj
 0001:0002438c       __catch$_wrap_outctx_base_t_set_gen_label$12 000000018002538c f   ua.obj
 0001:000243c0       _wrap_outctx_base_t_set_gen_xrefs$catch$5 00000001800253c0 f   ua.obj
 0001:000243cd       __catch$_wrap_outctx_base_t_set_gen_xrefs$3 00000001800253cd f   ua.obj
 0001:000243f3       _wrap_outctx_base_t_set_gen_xrefs$catch$4 00000001800253f3 f   ua.obj
 0001:00024400       __catch$_wrap_outctx_base_t_set_gen_xrefs$5 0000000180025400 f   ua.obj
 0001:0002442c       _wrap_outctx_base_t_set_gen_xrefs$catch$3 000000018002542c f   ua.obj
 0001:00024439       __catch$_wrap_outctx_base_t_set_gen_xrefs$7 0000000180025439 f   ua.obj
 0001:00024451       _wrap_outctx_base_t_set_gen_xrefs$catch$2 0000000180025451 f   ua.obj
 0001:0002445e       __catch$_wrap_outctx_base_t_set_gen_xrefs$9 000000018002545e f   ua.obj
 0001:00024476       _wrap_outctx_base_t_set_gen_xrefs$catch$1 0000000180025476 f   ua.obj
 0001:00024483       __catch$_wrap_outctx_base_t_set_gen_xrefs$11 0000000180025483 f   ua.obj
 0001:000244af       _wrap_outctx_base_t_set_gen_xrefs$catch$0 00000001800254af f   ua.obj
 0001:000244bc       __catch$_wrap_outctx_base_t_set_gen_xrefs$13 00000001800254bc f   ua.obj
 0001:000244f0       _wrap_outctx_base_t_setup_outctx$catch$0 00000001800254f0 f   ua.obj
 0001:000244fd       __catch$_wrap_outctx_base_t_setup_outctx$4 00000001800254fd f   ua.obj
 0001:00024523       _wrap_outctx_base_t_setup_outctx$catch$1 0000000180025523 f   ua.obj
 0001:00024530       __catch$_wrap_outctx_base_t_setup_outctx$6 0000000180025530 f   ua.obj
 0001:0002455c       _wrap_outctx_base_t_setup_outctx$catch$2 000000018002555c f   ua.obj
 0001:00024569       __catch$_wrap_outctx_base_t_setup_outctx$8 0000000180025569 f   ua.obj
 0001:00024581       _wrap_outctx_base_t_setup_outctx$catch$3 0000000180025581 f   ua.obj
 0001:0002458e       __catch$_wrap_outctx_base_t_setup_outctx$10 000000018002558e f   ua.obj
 0001:000245a6       _wrap_outctx_base_t_setup_outctx$catch$4 00000001800255a6 f   ua.obj
 0001:000245b3       __catch$_wrap_outctx_base_t_setup_outctx$12 00000001800255b3 f   ua.obj
 0001:000245df       _wrap_outctx_base_t_setup_outctx$catch$5 00000001800255df f   ua.obj
 0001:000245ec       __catch$_wrap_outctx_base_t_setup_outctx$14 00000001800255ec f   ua.obj
 0001:00024620       _wrap_outctx_base_t_stack_view$catch$5 0000000180025620 f   ua.obj
 0001:0002462d       __catch$_wrap_outctx_base_t_stack_view$2 000000018002562d f   ua.obj
 0001:00024653       _wrap_outctx_base_t_stack_view$catch$4 0000000180025653 f   ua.obj
 0001:00024660       __catch$_wrap_outctx_base_t_stack_view$4 0000000180025660 f   ua.obj
 0001:0002468c       _wrap_outctx_base_t_stack_view$catch$3 000000018002568c f   ua.obj
 0001:00024699       __catch$_wrap_outctx_base_t_stack_view$6 0000000180025699 f   ua.obj
 0001:000246b1       _wrap_outctx_base_t_stack_view$catch$2 00000001800256b1 f   ua.obj
 0001:000246be       __catch$_wrap_outctx_base_t_stack_view$8 00000001800256be f   ua.obj
 0001:000246d6       _wrap_outctx_base_t_stack_view$catch$1 00000001800256d6 f   ua.obj
 0001:000246e3       __catch$_wrap_outctx_base_t_stack_view$10 00000001800256e3 f   ua.obj
 0001:0002470f       _wrap_outctx_base_t_stack_view$catch$0 000000018002570f f   ua.obj
 0001:0002471c       __catch$_wrap_outctx_base_t_stack_view$12 000000018002571c f   ua.obj
 0001:00024750       _wrap_outctx_base_t_term_outctx$catch$0 0000000180025750 f   ua.obj
 0001:0002475d       __catch$_wrap_outctx_base_t_term_outctx$3 000000018002575d f   ua.obj
 0001:00024783       _wrap_outctx_base_t_term_outctx$catch$1 0000000180025783 f   ua.obj
 0001:00024790       __catch$_wrap_outctx_base_t_term_outctx$5 0000000180025790 f   ua.obj
 0001:000247bc       _wrap_outctx_base_t_term_outctx$catch$2 00000001800257bc f   ua.obj
 0001:000247c9       __catch$_wrap_outctx_base_t_term_outctx$7 00000001800257c9 f   ua.obj
 0001:000247e1       _wrap_outctx_base_t_term_outctx$catch$3 00000001800257e1 f   ua.obj
 0001:000247ee       __catch$_wrap_outctx_base_t_term_outctx$9 00000001800257ee f   ua.obj
 0001:00024806       _wrap_outctx_base_t_term_outctx$catch$4 0000000180025806 f   ua.obj
 0001:00024813       __catch$_wrap_outctx_base_t_term_outctx$11 0000000180025813 f   ua.obj
 0001:0002483f       _wrap_outctx_base_t_term_outctx$catch$5 000000018002583f f   ua.obj
 0001:0002484c       __catch$_wrap_outctx_base_t_term_outctx$13 000000018002584c f   ua.obj
 0001:00024880       _wrap_outctx_t__from_ptrval__$catch$5 0000000180025880 f   ua.obj
 0001:0002488d       __catch$_wrap_outctx_t__from_ptrval__$1 000000018002588d f   ua.obj
 0001:000248b3       _wrap_outctx_t__from_ptrval__$catch$4 00000001800258b3 f   ua.obj
 0001:000248c0       __catch$_wrap_outctx_t__from_ptrval__$3 00000001800258c0 f   ua.obj
 0001:000248ec       _wrap_outctx_t__from_ptrval__$catch$3 00000001800258ec f   ua.obj
 0001:000248f9       __catch$_wrap_outctx_t__from_ptrval__$5 00000001800258f9 f   ua.obj
 0001:00024911       _wrap_outctx_t__from_ptrval__$catch$2 0000000180025911 f   ua.obj
 0001:0002491e       __catch$_wrap_outctx_t__from_ptrval__$7 000000018002591e f   ua.obj
 0001:00024936       _wrap_outctx_t__from_ptrval__$catch$1 0000000180025936 f   ua.obj
 0001:00024943       __catch$_wrap_outctx_t__from_ptrval__$9 0000000180025943 f   ua.obj
 0001:0002496f       _wrap_outctx_t__from_ptrval__$catch$0 000000018002596f f   ua.obj
 0001:0002497c       __catch$_wrap_outctx_t__from_ptrval__$11 000000018002597c f   ua.obj
 0001:000249b0       _wrap_outctx_t_gen_func_footer$catch$0 00000001800259b0 f   ua.obj
 0001:000249bd       __catch$_wrap_outctx_t_gen_func_footer$3 00000001800259bd f   ua.obj
 0001:000249e3       _wrap_outctx_t_gen_func_footer$catch$1 00000001800259e3 f   ua.obj
 0001:000249f0       __catch$_wrap_outctx_t_gen_func_footer$5 00000001800259f0 f   ua.obj
 0001:00024a1c       _wrap_outctx_t_gen_func_footer$catch$2 0000000180025a1c f   ua.obj
 0001:00024a29       __catch$_wrap_outctx_t_gen_func_footer$7 0000000180025a29 f   ua.obj
 0001:00024a41       _wrap_outctx_t_gen_func_footer$catch$3 0000000180025a41 f   ua.obj
 0001:00024a4e       __catch$_wrap_outctx_t_gen_func_footer$9 0000000180025a4e f   ua.obj
 0001:00024a66       _wrap_outctx_t_gen_func_footer$catch$4 0000000180025a66 f   ua.obj
 0001:00024a73       __catch$_wrap_outctx_t_gen_func_footer$11 0000000180025a73 f   ua.obj
 0001:00024a9f       _wrap_outctx_t_gen_func_footer$catch$5 0000000180025a9f f   ua.obj
 0001:00024aac       __catch$_wrap_outctx_t_gen_func_footer$13 0000000180025aac f   ua.obj
 0001:00024ae0       _wrap_outctx_t_gen_func_header$catch$0 0000000180025ae0 f   ua.obj
 0001:00024aed       __catch$_wrap_outctx_t_gen_func_header$3 0000000180025aed f   ua.obj
 0001:00024b13       _wrap_outctx_t_gen_func_header$catch$1 0000000180025b13 f   ua.obj
 0001:00024b20       __catch$_wrap_outctx_t_gen_func_header$5 0000000180025b20 f   ua.obj
 0001:00024b4c       _wrap_outctx_t_gen_func_header$catch$2 0000000180025b4c f   ua.obj
 0001:00024b59       __catch$_wrap_outctx_t_gen_func_header$7 0000000180025b59 f   ua.obj
 0001:00024b71       _wrap_outctx_t_gen_func_header$catch$3 0000000180025b71 f   ua.obj
 0001:00024b7e       __catch$_wrap_outctx_t_gen_func_header$9 0000000180025b7e f   ua.obj
 0001:00024b96       _wrap_outctx_t_gen_func_header$catch$4 0000000180025b96 f   ua.obj
 0001:00024ba3       __catch$_wrap_outctx_t_gen_func_header$11 0000000180025ba3 f   ua.obj
 0001:00024bcf       _wrap_outctx_t_gen_func_header$catch$5 0000000180025bcf f   ua.obj
 0001:00024bdc       __catch$_wrap_outctx_t_gen_func_header$13 0000000180025bdc f   ua.obj
 0001:00024c10       _wrap_outctx_t_gen_header$catch$0 0000000180025c10 f   ua.obj
 0001:00024c1d       __catch$_wrap_outctx_t_gen_header$5 0000000180025c1d f   ua.obj
 0001:00024c43       _wrap_outctx_t_gen_header$catch$1 0000000180025c43 f   ua.obj
 0001:00024c50       __catch$_wrap_outctx_t_gen_header$7 0000000180025c50 f   ua.obj
 0001:00024c7c       _wrap_outctx_t_gen_header$catch$2 0000000180025c7c f   ua.obj
 0001:00024c89       __catch$_wrap_outctx_t_gen_header$9 0000000180025c89 f   ua.obj
 0001:00024ca1       _wrap_outctx_t_gen_header$catch$3 0000000180025ca1 f   ua.obj
 0001:00024cae       __catch$_wrap_outctx_t_gen_header$11 0000000180025cae f   ua.obj
 0001:00024cc6       _wrap_outctx_t_gen_header$catch$4 0000000180025cc6 f   ua.obj
 0001:00024cd3       __catch$_wrap_outctx_t_gen_header$13 0000000180025cd3 f   ua.obj
 0001:00024cff       _wrap_outctx_t_gen_header$catch$5 0000000180025cff f   ua.obj
 0001:00024d0c       __catch$_wrap_outctx_t_gen_header$15 0000000180025d0c f   ua.obj
 0001:00024d40       _wrap_outctx_t_gen_header_extra$catch$0 0000000180025d40 f   ua.obj
 0001:00024d4d       __catch$_wrap_outctx_t_gen_header_extra$2 0000000180025d4d f   ua.obj
 0001:00024d73       _wrap_outctx_t_gen_header_extra$catch$1 0000000180025d73 f   ua.obj
 0001:00024d80       __catch$_wrap_outctx_t_gen_header_extra$4 0000000180025d80 f   ua.obj
 0001:00024dac       _wrap_outctx_t_gen_header_extra$catch$2 0000000180025dac f   ua.obj
 0001:00024db9       __catch$_wrap_outctx_t_gen_header_extra$6 0000000180025db9 f   ua.obj
 0001:00024dd1       _wrap_outctx_t_gen_header_extra$catch$3 0000000180025dd1 f   ua.obj
 0001:00024dde       __catch$_wrap_outctx_t_gen_header_extra$8 0000000180025dde f   ua.obj
 0001:00024df6       _wrap_outctx_t_gen_header_extra$catch$4 0000000180025df6 f   ua.obj
 0001:00024e03       __catch$_wrap_outctx_t_gen_header_extra$10 0000000180025e03 f   ua.obj
 0001:00024e2f       _wrap_outctx_t_gen_header_extra$catch$5 0000000180025e2f f   ua.obj
 0001:00024e3c       __catch$_wrap_outctx_t_gen_header_extra$12 0000000180025e3c f   ua.obj
 0001:00024e70       _wrap_outctx_t_gen_xref_lines$catch$0 0000000180025e70 f   ua.obj
 0001:00024e7d       __catch$_wrap_outctx_t_gen_xref_lines$2 0000000180025e7d f   ua.obj
 0001:00024ea3       _wrap_outctx_t_gen_xref_lines$catch$1 0000000180025ea3 f   ua.obj
 0001:00024eb0       __catch$_wrap_outctx_t_gen_xref_lines$4 0000000180025eb0 f   ua.obj
 0001:00024edc       _wrap_outctx_t_gen_xref_lines$catch$2 0000000180025edc f   ua.obj
 0001:00024ee9       __catch$_wrap_outctx_t_gen_xref_lines$6 0000000180025ee9 f   ua.obj
 0001:00024f01       _wrap_outctx_t_gen_xref_lines$catch$3 0000000180025f01 f   ua.obj
 0001:00024f0e       __catch$_wrap_outctx_t_gen_xref_lines$8 0000000180025f0e f   ua.obj
 0001:00024f26       _wrap_outctx_t_gen_xref_lines$catch$4 0000000180025f26 f   ua.obj
 0001:00024f33       __catch$_wrap_outctx_t_gen_xref_lines$10 0000000180025f33 f   ua.obj
 0001:00024f5f       _wrap_outctx_t_gen_xref_lines$catch$5 0000000180025f5f f   ua.obj
 0001:00024f6c       __catch$_wrap_outctx_t_gen_xref_lines$12 0000000180025f6c f   ua.obj
 0001:00024fa0       _wrap_outctx_t_out_custom_mnem$catch$0 0000000180025fa0 f   ua.obj
 0001:00024fad       __catch$_wrap_outctx_t_out_custom_mnem$5 0000000180025fad f   ua.obj
 0001:00024fd3       _wrap_outctx_t_out_custom_mnem$catch$1 0000000180025fd3 f   ua.obj
 0001:00024fe0       __catch$_wrap_outctx_t_out_custom_mnem$7 0000000180025fe0 f   ua.obj
 0001:0002500c       _wrap_outctx_t_out_custom_mnem$catch$2 000000018002600c f   ua.obj
 0001:00025019       __catch$_wrap_outctx_t_out_custom_mnem$9 0000000180026019 f   ua.obj
 0001:00025031       _wrap_outctx_t_out_custom_mnem$catch$3 0000000180026031 f   ua.obj
 0001:0002503e       __catch$_wrap_outctx_t_out_custom_mnem$11 000000018002603e f   ua.obj
 0001:00025056       _wrap_outctx_t_out_custom_mnem$catch$4 0000000180026056 f   ua.obj
 0001:00025063       __catch$_wrap_outctx_t_out_custom_mnem$13 0000000180026063 f   ua.obj
 0001:0002508f       _wrap_outctx_t_out_custom_mnem$catch$5 000000018002608f f   ua.obj
 0001:0002509c       __catch$_wrap_outctx_t_out_custom_mnem$15 000000018002609c f   ua.obj
 0001:000250d0       _wrap_outctx_t_out_data$catch$0 00000001800260d0 f   ua.obj
 0001:000250dd       __catch$_wrap_outctx_t_out_data$3 00000001800260dd f   ua.obj
 0001:00025103       _wrap_outctx_t_out_data$catch$1 0000000180026103 f   ua.obj
 0001:00025110       __catch$_wrap_outctx_t_out_data$5 0000000180026110 f   ua.obj
 0001:0002513c       _wrap_outctx_t_out_data$catch$2 000000018002613c f   ua.obj
 0001:00025149       __catch$_wrap_outctx_t_out_data$7 0000000180026149 f   ua.obj
 0001:00025161       _wrap_outctx_t_out_data$catch$3 0000000180026161 f   ua.obj
 0001:0002516e       __catch$_wrap_outctx_t_out_data$9 000000018002616e f   ua.obj
 0001:00025186       _wrap_outctx_t_out_data$catch$4 0000000180026186 f   ua.obj
 0001:00025193       __catch$_wrap_outctx_t_out_data$11 0000000180026193 f   ua.obj
 0001:000251bf       _wrap_outctx_t_out_data$catch$5 00000001800261bf f   ua.obj
 0001:000251cc       __catch$_wrap_outctx_t_out_data$13 00000001800261cc f   ua.obj
 0001:00025200       _wrap_outctx_t_out_immchar_cmts$catch$0 0000000180026200 f   ua.obj
 0001:0002520d       __catch$_wrap_outctx_t_out_immchar_cmts$2 000000018002620d f   ua.obj
 0001:00025233       _wrap_outctx_t_out_immchar_cmts$catch$1 0000000180026233 f   ua.obj
 0001:00025240       __catch$_wrap_outctx_t_out_immchar_cmts$4 0000000180026240 f   ua.obj
 0001:0002526c       _wrap_outctx_t_out_immchar_cmts$catch$2 000000018002626c f   ua.obj
 0001:00025279       __catch$_wrap_outctx_t_out_immchar_cmts$6 0000000180026279 f   ua.obj
 0001:00025291       _wrap_outctx_t_out_immchar_cmts$catch$3 0000000180026291 f   ua.obj
 0001:0002529e       __catch$_wrap_outctx_t_out_immchar_cmts$8 000000018002629e f   ua.obj
 0001:000252b6       _wrap_outctx_t_out_immchar_cmts$catch$4 00000001800262b6 f   ua.obj
 0001:000252c3       __catch$_wrap_outctx_t_out_immchar_cmts$10 00000001800262c3 f   ua.obj
 0001:000252ef       _wrap_outctx_t_out_immchar_cmts$catch$5 00000001800262ef f   ua.obj
 0001:000252fc       __catch$_wrap_outctx_t_out_immchar_cmts$12 00000001800262fc f   ua.obj
 0001:00025330       _wrap_outctx_t_out_mnem$catch$0 0000000180026330 f   ua.obj
 0001:0002533d       __catch$_wrap_outctx_t_out_mnem$4 000000018002633d f   ua.obj
 0001:00025363       _wrap_outctx_t_out_mnem$catch$1 0000000180026363 f   ua.obj
 0001:00025370       __catch$_wrap_outctx_t_out_mnem$6 0000000180026370 f   ua.obj
 0001:0002539c       _wrap_outctx_t_out_mnem$catch$2 000000018002639c f   ua.obj
 0001:000253a9       __catch$_wrap_outctx_t_out_mnem$8 00000001800263a9 f   ua.obj
 0001:000253c1       _wrap_outctx_t_out_mnem$catch$3 00000001800263c1 f   ua.obj
 0001:000253ce       __catch$_wrap_outctx_t_out_mnem$10 00000001800263ce f   ua.obj
 0001:000253e6       _wrap_outctx_t_out_mnem$catch$4 00000001800263e6 f   ua.obj
 0001:000253f3       __catch$_wrap_outctx_t_out_mnem$12 00000001800263f3 f   ua.obj
 0001:0002541f       _wrap_outctx_t_out_mnem$catch$5 000000018002641f f   ua.obj
 0001:0002542c       __catch$_wrap_outctx_t_out_mnem$14 000000018002642c f   ua.obj
 0001:00025460       _wrap_outctx_t_out_mnemonic$catch$0 0000000180026460 f   ua.obj
 0001:0002546d       __catch$_wrap_outctx_t_out_mnemonic$2 000000018002646d f   ua.obj
 0001:00025493       _wrap_outctx_t_out_mnemonic$catch$1 0000000180026493 f   ua.obj
 0001:000254a0       __catch$_wrap_outctx_t_out_mnemonic$4 00000001800264a0 f   ua.obj
 0001:000254cc       _wrap_outctx_t_out_mnemonic$catch$2 00000001800264cc f   ua.obj
 0001:000254d9       __catch$_wrap_outctx_t_out_mnemonic$6 00000001800264d9 f   ua.obj
 0001:000254f1       _wrap_outctx_t_out_mnemonic$catch$3 00000001800264f1 f   ua.obj
 0001:000254fe       __catch$_wrap_outctx_t_out_mnemonic$8 00000001800264fe f   ua.obj
 0001:00025516       _wrap_outctx_t_out_mnemonic$catch$4 0000000180026516 f   ua.obj
 0001:00025523       __catch$_wrap_outctx_t_out_mnemonic$10 0000000180026523 f   ua.obj
 0001:0002554f       _wrap_outctx_t_out_mnemonic$catch$5 000000018002654f f   ua.obj
 0001:0002555c       __catch$_wrap_outctx_t_out_mnemonic$12 000000018002655c f   ua.obj
 0001:00025590       _wrap_outctx_t_out_one_operand$catch$0 0000000180026590 f   ua.obj
 0001:0002559d       __catch$_wrap_outctx_t_out_one_operand$3 000000018002659d f   ua.obj
 0001:000255c3       _wrap_outctx_t_out_one_operand$catch$1 00000001800265c3 f   ua.obj
 0001:000255d0       __catch$_wrap_outctx_t_out_one_operand$5 00000001800265d0 f   ua.obj
 0001:000255fc       _wrap_outctx_t_out_one_operand$catch$2 00000001800265fc f   ua.obj
 0001:00025609       __catch$_wrap_outctx_t_out_one_operand$7 0000000180026609 f   ua.obj
 0001:00025621       _wrap_outctx_t_out_one_operand$catch$3 0000000180026621 f   ua.obj
 0001:0002562e       __catch$_wrap_outctx_t_out_one_operand$9 000000018002662e f   ua.obj
 0001:00025646       _wrap_outctx_t_out_one_operand$catch$4 0000000180026646 f   ua.obj
 0001:00025653       __catch$_wrap_outctx_t_out_one_operand$11 0000000180026653 f   ua.obj
 0001:0002567f       _wrap_outctx_t_out_one_operand$catch$5 000000018002667f f   ua.obj
 0001:0002568c       __catch$_wrap_outctx_t_out_one_operand$13 000000018002668c f   ua.obj
 0001:000256c0       _wrap_outctx_t_out_specea$catch$0 00000001800266c0 f   ua.obj
 0001:000256cd       __catch$_wrap_outctx_t_out_specea$3 00000001800266cd f   ua.obj
 0001:000256f3       _wrap_outctx_t_out_specea$catch$1 00000001800266f3 f   ua.obj
 0001:00025700       __catch$_wrap_outctx_t_out_specea$5 0000000180026700 f   ua.obj
 0001:0002572c       _wrap_outctx_t_out_specea$catch$2 000000018002672c f   ua.obj
 0001:00025739       __catch$_wrap_outctx_t_out_specea$7 0000000180026739 f   ua.obj
 0001:00025751       _wrap_outctx_t_out_specea$catch$3 0000000180026751 f   ua.obj
 0001:0002575e       __catch$_wrap_outctx_t_out_specea$9 000000018002675e f   ua.obj
 0001:00025776       _wrap_outctx_t_out_specea$catch$4 0000000180026776 f   ua.obj
 0001:00025783       __catch$_wrap_outctx_t_out_specea$11 0000000180026783 f   ua.obj
 0001:000257af       _wrap_outctx_t_out_specea$catch$5 00000001800267af f   ua.obj
 0001:000257bc       __catch$_wrap_outctx_t_out_specea$13 00000001800267bc f   ua.obj
 0001:000257f0       _wrap_outctx_t_retrieve_cmt$catch$0 00000001800267f0 f   ua.obj
 0001:000257fd       __catch$_wrap_outctx_t_retrieve_cmt$2 00000001800267fd f   ua.obj
 0001:00025823       _wrap_outctx_t_retrieve_cmt$catch$1 0000000180026823 f   ua.obj
 0001:00025830       __catch$_wrap_outctx_t_retrieve_cmt$4 0000000180026830 f   ua.obj
 0001:0002585c       _wrap_outctx_t_retrieve_cmt$catch$2 000000018002685c f   ua.obj
 0001:00025869       __catch$_wrap_outctx_t_retrieve_cmt$6 0000000180026869 f   ua.obj
 0001:00025881       _wrap_outctx_t_retrieve_cmt$catch$3 0000000180026881 f   ua.obj
 0001:0002588e       __catch$_wrap_outctx_t_retrieve_cmt$8 000000018002688e f   ua.obj
 0001:000258a6       _wrap_outctx_t_retrieve_cmt$catch$4 00000001800268a6 f   ua.obj
 0001:000258b3       __catch$_wrap_outctx_t_retrieve_cmt$10 00000001800268b3 f   ua.obj
 0001:000258df       _wrap_outctx_t_retrieve_cmt$catch$5 00000001800268df f   ua.obj
 0001:000258ec       __catch$_wrap_outctx_t_retrieve_cmt$12 00000001800268ec f   ua.obj
 0001:00025920       _wrap_outctx_t_retrieve_name$catch$3 0000000180026920 f   ua.obj
 0001:0002592d       __catch$_wrap_outctx_t_retrieve_name$4 000000018002692d f   ua.obj
 0001:00025953       _wrap_outctx_t_retrieve_name$catch$4 0000000180026953 f   ua.obj
 0001:00025960       __catch$_wrap_outctx_t_retrieve_name$6 0000000180026960 f   ua.obj
 0001:0002598c       _wrap_outctx_t_retrieve_name$catch$5 000000018002698c f   ua.obj
 0001:00025999       __catch$_wrap_outctx_t_retrieve_name$8 0000000180026999 f   ua.obj
 0001:000259b1       _wrap_outctx_t_retrieve_name$catch$6 00000001800269b1 f   ua.obj
 0001:000259be       __catch$_wrap_outctx_t_retrieve_name$10 00000001800269be f   ua.obj
 0001:000259d6       _wrap_outctx_t_retrieve_name$catch$7 00000001800269d6 f   ua.obj
 0001:000259e3       __catch$_wrap_outctx_t_retrieve_name$12 00000001800269e3 f   ua.obj
 0001:00025a0f       _wrap_outctx_t_retrieve_name$catch$8 0000000180026a0f f   ua.obj
 0001:00025a1c       __catch$_wrap_outctx_t_retrieve_name$14 0000000180026a1c f   ua.obj
 0001:00025a50       _wrap_outctx_t_setup_outctx$catch$0 0000000180026a50 f   ua.obj
 0001:00025a5d       __catch$_wrap_outctx_t_setup_outctx$4 0000000180026a5d f   ua.obj
 0001:00025a83       _wrap_outctx_t_setup_outctx$catch$1 0000000180026a83 f   ua.obj
 0001:00025a90       __catch$_wrap_outctx_t_setup_outctx$6 0000000180026a90 f   ua.obj
 0001:00025abc       _wrap_outctx_t_setup_outctx$catch$2 0000000180026abc f   ua.obj
 0001:00025ac9       __catch$_wrap_outctx_t_setup_outctx$8 0000000180026ac9 f   ua.obj
 0001:00025ae1       _wrap_outctx_t_setup_outctx$catch$3 0000000180026ae1 f   ua.obj
 0001:00025aee       __catch$_wrap_outctx_t_setup_outctx$10 0000000180026aee f   ua.obj
 0001:00025b06       _wrap_outctx_t_setup_outctx$catch$4 0000000180026b06 f   ua.obj
 0001:00025b13       __catch$_wrap_outctx_t_setup_outctx$12 0000000180026b13 f   ua.obj
 0001:00025b3f       _wrap_outctx_t_setup_outctx$catch$5 0000000180026b3f f   ua.obj
 0001:00025b4c       __catch$_wrap_outctx_t_setup_outctx$14 0000000180026b4c f   ua.obj
 0001:00025b80       _wrap_print_insn_mnem$catch$8 0000000180026b80 f   ua.obj
 0001:00025b8d       __catch$_wrap_print_insn_mnem$2 0000000180026b8d f   ua.obj
 0001:00025bb3       _wrap_print_insn_mnem$catch$7 0000000180026bb3 f   ua.obj
 0001:00025bc0       __catch$_wrap_print_insn_mnem$4 0000000180026bc0 f   ua.obj
 0001:00025bec       _wrap_print_insn_mnem$catch$6 0000000180026bec f   ua.obj
 0001:00025bf9       __catch$_wrap_print_insn_mnem$6 0000000180026bf9 f   ua.obj
 0001:00025c11       _wrap_print_insn_mnem$catch$5 0000000180026c11 f   ua.obj
 0001:00025c1e       __catch$_wrap_print_insn_mnem$8 0000000180026c1e f   ua.obj
 0001:00025c36       _wrap_print_insn_mnem$catch$4 0000000180026c36 f   ua.obj
 0001:00025c43       __catch$_wrap_print_insn_mnem$10 0000000180026c43 f   ua.obj
 0001:00025c6f       _wrap_print_insn_mnem$catch$3 0000000180026c6f f   ua.obj
 0001:00025c7c       __catch$_wrap_print_insn_mnem$12 0000000180026c7c f   ua.obj
 0001:00025cb0       _wrap_print_insn_mnem$dtor$0 0000000180026cb0 f   ua.obj
 0001:00025cc0       _wrap_print_operand$catch$8 0000000180026cc0 f   ua.obj
 0001:00025ccd       __catch$_wrap_print_operand$5 0000000180026ccd f   ua.obj
 0001:00025cf3       _wrap_print_operand$catch$7 0000000180026cf3 f   ua.obj
 0001:00025d00       __catch$_wrap_print_operand$7 0000000180026d00 f   ua.obj
 0001:00025d2c       _wrap_print_operand$catch$6 0000000180026d2c f   ua.obj
 0001:00025d39       __catch$_wrap_print_operand$9 0000000180026d39 f   ua.obj
 0001:00025d51       _wrap_print_operand$catch$5 0000000180026d51 f   ua.obj
 0001:00025d5e       __catch$_wrap_print_operand$11 0000000180026d5e f   ua.obj
 0001:00025d76       _wrap_print_operand$catch$4 0000000180026d76 f   ua.obj
 0001:00025d83       __catch$_wrap_print_operand$13 0000000180026d83 f   ua.obj
 0001:00025daf       _wrap_print_operand$catch$3 0000000180026daf f   ua.obj
 0001:00025dbc       __catch$_wrap_print_operand$15 0000000180026dbc f   ua.obj
 0001:00025df0       _wrap_print_operand$dtor$0 0000000180026df0 f   ua.obj
 0001:00025dfc       __scrt_is_nonwritable_in_current_image$filt$0 0000000180026dfc f   MSVCRT:utility.obj
 0001:00025e14       ?fin$0@?0??dllmain_crt_process_attach@@YAHQEAUHINSTANCE__@@QEAX@Z@4HA 0000000180026e14 f   MSVCRT:dll_dllmain.obj
 0001:00025e2b       ?fin$0@?0??dllmain_crt_process_detach@@YAH_N@Z@4HA 0000000180026e2b f   MSVCRT:dll_dllmain.obj
 0001:00025e47       ?filt$0@?0??dllmain_dispatch@@YAHQEAUHINSTANCE__@@KQEAX@Z@4HA 0000000180026e47 f   MSVCRT:dll_dllmain.obj
 0001:00025e80       ??__Fmacro_builders@?1??py_construct_macro@@YA_NAEAVinsn_t@@_NPEAU_object@@@Z@YAXXZ 0000000180026e80 f   ua.obj
 0002:00000618       ?__scrt_initialize_tss_var@@3P6AHXZEA 0000000180027618     MSVCRT:thread_safe_statics.obj
 0002:00005460       $cppxdata$_wrap_new_operands_array 000000018002c460     ua.obj
 0002:00005488       $cppxdata$_wrap_operands_array___len__ 000000018002c488     ua.obj
 0002:000054b0       $cppxdata$_wrap_operands_array___getitem__ 000000018002c4b0     ua.obj
 0002:000054d8       $cppxdata$_wrap_operands_array___setitem__ 000000018002c4d8     ua.obj
 0002:00005500       $cppxdata$_wrap_delete_operands_array 000000018002c500     ua.obj
 0002:00005528       $cppxdata$_wrap_op_t_set_shown 000000018002c528     ua.obj
 0002:00005550       $cppxdata$_wrap_op_t_clr_shown 000000018002c550     ua.obj
 0002:00005578       $cppxdata$_wrap_op_t_shown 000000018002c578     ua.obj
 0002:000055a0       $cppxdata$_wrap_op_t_is_reg 000000018002c5a0     ua.obj
 0002:000055c8       $cppxdata$_wrap_op_t_is_imm 000000018002c5c8     ua.obj
 0002:000055f0       $cppxdata$_wrap_op_t___get_reg_phrase__ 000000018002c5f0     ua.obj
 0002:00005618       $cppxdata$_wrap_op_t___set_reg_phrase__ 000000018002c618     ua.obj
 0002:00005640       $cppxdata$_wrap_op_t___get_value__ 000000018002c640     ua.obj
 0002:00005668       $cppxdata$_wrap_op_t___set_value__ 000000018002c668     ua.obj
 0002:00005690       $cppxdata$_wrap_op_t___get_addr__ 000000018002c690     ua.obj
 0002:000056b8       $cppxdata$_wrap_op_t___set_addr__ 000000018002c6b8     ua.obj
 0002:000056e0       $cppxdata$_wrap_op_t___get_specval__ 000000018002c6e0     ua.obj
 0002:00005708       $cppxdata$_wrap_op_t___set_specval__ 000000018002c708     ua.obj
 0002:00005730       $cppxdata$_wrap_op_t_assign 000000018002c730     ua.obj
 0002:00005758       $cppxdata$_wrap_new_op_t   000000018002c758     ua.obj
 0002:00005780       $cppxdata$_wrap_delete_op_t 000000018002c780     ua.obj
 0002:000057a8       $cppxdata$_wrap_insn_add_cref 000000018002c7a8     ua.obj
 0002:000057d0       $cppxdata$_wrap_insn_add_dref 000000018002c7d0     ua.obj
 0002:000057f8       $cppxdata$_wrap_insn_add_off_drefs 000000018002c7f8     ua.obj
 0002:00005820       $cppxdata$_wrap_insn_create_stkvar 000000018002c820     ua.obj
 0002:00005848       $cppxdata$_wrap_new_insn_t 000000018002c848     ua.obj
 0002:00005870       $cppxdata$_wrap_insn_t_is_canon_insn 000000018002c870     ua.obj
 0002:00005898       $cppxdata$_wrap_insn_t_get_canon_feature 000000018002c898     ua.obj
 0002:000058c0       $cppxdata$_wrap_insn_t_get_canon_mnem 000000018002c8c0     ua.obj
 0002:000058e8       $cppxdata$_wrap_insn_t_is_macro 000000018002c8e8     ua.obj
 0002:00005910       $cppxdata$_wrap_insn_t_is_64bit 000000018002c910     ua.obj
 0002:00005938       $cppxdata$_wrap_insn_t_get_next_byte 000000018002c938     ua.obj
 0002:00005960       $cppxdata$_wrap_insn_t_get_next_word 000000018002c960     ua.obj
 0002:00005988       $cppxdata$_wrap_insn_t_get_next_dword 000000018002c988     ua.obj
 0002:000059b0       $cppxdata$_wrap_insn_t_get_next_qword 000000018002c9b0     ua.obj
 0002:000059d8       $cppxdata$_wrap_insn_t_create_op_data__SWIG_0 000000018002c9d8     ua.obj
 0002:00005a00       $cppxdata$_wrap_insn_t_create_op_data__SWIG_1 000000018002ca00     ua.obj
 0002:00005a28       $cppxdata$_wrap_insn_t_create_stkvar 000000018002ca28     ua.obj
 0002:00005a50       $cppxdata$_wrap_insn_t_add_cref 000000018002ca50     ua.obj
 0002:00005a78       $cppxdata$_wrap_insn_t_add_dref 000000018002ca78     ua.obj
 0002:00005aa0       $cppxdata$_wrap_insn_t_add_off_drefs 000000018002caa0     ua.obj
 0002:00005ac8       $cppxdata$_wrap_insn_t___get_ops__ 000000018002cac8     ua.obj
 0002:00005af0       $cppxdata$_wrap_insn_t___get_operand__ 000000018002caf0     ua.obj
 0002:00005b18       $cppxdata$_wrap_insn_t___get_auxpref__ 000000018002cb18     ua.obj
 0002:00005b40       $cppxdata$_wrap_insn_t___set_auxpref__ 000000018002cb40     ua.obj
 0002:00005b68       $cppxdata$_wrap_insn_t_assign 000000018002cb68     ua.obj
 0002:00005b90       $cppxdata$_wrap_delete_insn_t 000000018002cb90     ua.obj
 0002:00005bb8       $cppxdata$_wrap_get_lookback 000000018002cbb8     ua.obj
 0002:00005be0       $cppxdata$_wrap_calc_dataseg 000000018002cbe0     ua.obj
 0002:00005c08       $cppxdata$_wrap_map_data_ea__SWIG_0 000000018002cc08     ua.obj
 0002:00005c30       $cppxdata$_wrap_map_data_ea__SWIG_1 000000018002cc30     ua.obj
 0002:00005c58       $cppxdata$_wrap_map_code_ea__SWIG_0 000000018002cc58     ua.obj
 0002:00005c80       $cppxdata$_wrap_map_code_ea__SWIG_1 000000018002cc80     ua.obj
 0002:00005ca8       $cppxdata$_wrap_map_ea__SWIG_0 000000018002cca8     ua.obj
 0002:00005cd0       $cppxdata$_wrap_map_ea__SWIG_1 000000018002ccd0     ua.obj
 0002:00005cf8       $cppxdata$_wrap_outctx_base_t_only_main_line 000000018002ccf8     ua.obj
 0002:00005d20       $cppxdata$_wrap_outctx_base_t_multiline 000000018002cd20     ua.obj
 0002:00005d48       $cppxdata$_wrap_outctx_base_t_force_code 000000018002cd48     ua.obj
 0002:00005d70       $cppxdata$_wrap_outctx_base_t_stack_view 000000018002cd70     ua.obj
 0002:00005d98       $cppxdata$_wrap_outctx_base_t_display_voids 000000018002cd98     ua.obj
 0002:00005dc0       $cppxdata$_wrap_outctx_base_t_set_gen_xrefs 000000018002cdc0     ua.obj
 0002:00005de8       $cppxdata$_wrap_outctx_base_t_set_gen_cmt 000000018002cde8     ua.obj
 0002:00005e10       $cppxdata$_wrap_outctx_base_t_clr_gen_label 000000018002ce10     ua.obj
 0002:00005e38       $cppxdata$_wrap_outctx_base_t_set_gen_label 000000018002ce38     ua.obj
 0002:00005e60       $cppxdata$_wrap_outctx_base_t_set_gen_demangled_label 000000018002ce60     ua.obj
 0002:00005e88       $cppxdata$_wrap_outctx_base_t_set_comment_addr 000000018002ce88     ua.obj
 0002:00005eb0       $cppxdata$_wrap_outctx_base_t_set_dlbind_opnd 000000018002ceb0     ua.obj
 0002:00005ed8       $cppxdata$_wrap_outctx_base_t_print_label_now 000000018002ced8     ua.obj
 0002:00005f00       $cppxdata$_wrap_outctx_base_t_forbid_annotations 000000018002cf00     ua.obj
 0002:00005f28       $cppxdata$_wrap_outctx_base_t_restore_ctxflags 000000018002cf28     ua.obj
 0002:00005f50       $cppxdata$_wrap_outctx_base_t_out_printf__varargs__ 000000018002cf50     ua.obj
 0002:00005f78       $cppxdata$_wrap_outctx_base_t_out_value 000000018002cf78     ua.obj
 0002:00005fa0       $cppxdata$_wrap_outctx_base_t_out_symbol 000000018002cfa0     ua.obj
 0002:00005fc8       $cppxdata$_wrap_outctx_base_t_out_chars 000000018002cfc8     ua.obj
 0002:00005ff0       $cppxdata$_wrap_outctx_base_t_out_spaces 000000018002cff0     ua.obj
 0002:00006018       $cppxdata$_wrap_outctx_base_t_out_line 000000018002d018     ua.obj
 0002:00006040       $cppxdata$_wrap_outctx_base_t_out_keyword 000000018002d040     ua.obj
 0002:00006068       $cppxdata$_wrap_outctx_base_t_out_register 000000018002d068     ua.obj
 0002:00006090       $cppxdata$_wrap_outctx_base_t_out_tagon 000000018002d090     ua.obj
 0002:000060b8       $cppxdata$_wrap_outctx_base_t_out_tagoff 000000018002d0b8     ua.obj
 0002:000060e0       $cppxdata$_wrap_outctx_base_t_out_addr_tag 000000018002d0e0     ua.obj
 0002:00006108       $cppxdata$_wrap_outctx_base_t_out_colored_register_line 000000018002d108     ua.obj
 0002:00006130       $cppxdata$_wrap_outctx_base_t_out_char 000000018002d130     ua.obj
 0002:00006158       $cppxdata$_wrap_outctx_base_t_out_btoa 000000018002d158     ua.obj
 0002:00006180       $cppxdata$_wrap_outctx_base_t_out_long 000000018002d180     ua.obj
 0002:000061a8       $cppxdata$_wrap_outctx_base_t_out_name_expr 000000018002d1a8     ua.obj
 0002:000061d0       $cppxdata$_wrap_outctx_base_t_close_comment 000000018002d1d0     ua.obj
 0002:000061f8       $cppxdata$_wrap_outctx_base_t_flush_outbuf 000000018002d1f8     ua.obj
 0002:00006220       $cppxdata$_wrap_outctx_base_t_flush_buf 000000018002d220     ua.obj
 0002:00006248       $cppxdata$_wrap_outctx_base_t_term_outctx 000000018002d248     ua.obj
 0002:00006270       $cppxdata$_wrap_outctx_base_t_gen_printf__varargs__ 000000018002d270     ua.obj
 0002:00006298       $cppxdata$_wrap_outctx_base_t_gen_empty_line 000000018002d298     ua.obj
 0002:000062c0       $cppxdata$_wrap_outctx_base_t_gen_border_line 000000018002d2c0     ua.obj
 0002:000062e8       $cppxdata$_wrap_outctx_base_t_gen_cmt_line__varargs__ 000000018002d2e8     ua.obj
 0002:00006310       $cppxdata$_wrap_outctx_base_t_gen_collapsed_line__varargs__ 000000018002d310     ua.obj
 0002:00006338       $cppxdata$_wrap_outctx_base_t_gen_block_cmt 000000018002d338     ua.obj
 0002:00006360       $cppxdata$_wrap_outctx_base_t_setup_outctx 000000018002d360     ua.obj
 0002:00006388       $cppxdata$_wrap_outctx_base_t_retrieve_cmt 000000018002d388     ua.obj
 0002:000063b0       $cppxdata$_wrap_outctx_base_t_retrieve_name 000000018002d3b0     ua.obj
 0002:000063d8       $cppxdata$_wrap_outctx_base_t_gen_xref_lines 000000018002d3d8     ua.obj
 0002:00006400       $cppxdata$_wrap_outctx_base_t_init_lines_array 000000018002d400     ua.obj
 0002:00006428       $cppxdata$_wrap_outctx_base_t_get_stkvar 000000018002d428     ua.obj
 0002:00006450       $cppxdata$_wrap_outctx_base_t_gen_empty_line_without_annotations 000000018002d450     ua.obj
 0002:00006478       $cppxdata$_wrap_outctx_t_setup_outctx 000000018002d478     ua.obj
 0002:000064a0       $cppxdata$_wrap_outctx_t_retrieve_cmt 000000018002d4a0     ua.obj
 0002:000064c8       $cppxdata$_wrap_outctx_t_retrieve_name 000000018002d4c8     ua.obj
 0002:000064f0       $cppxdata$_wrap_outctx_t_gen_xref_lines 000000018002d4f0     ua.obj
 0002:00006518       $cppxdata$_wrap_outctx_t_out_mnem 000000018002d518     ua.obj
 0002:00006540       $cppxdata$_wrap_outctx_t_out_custom_mnem 000000018002d540     ua.obj
 0002:00006568       $cppxdata$_wrap_outctx_t_out_mnemonic 000000018002d568     ua.obj
 0002:00006590       $cppxdata$_wrap_outctx_t_out_one_operand 000000018002d590     ua.obj
 0002:000065b8       $cppxdata$_wrap_outctx_t_out_immchar_cmts 000000018002d5b8     ua.obj
 0002:000065e0       $cppxdata$_wrap_outctx_t_gen_func_header 000000018002d5e0     ua.obj
 0002:00006608       $cppxdata$_wrap_outctx_t_gen_func_footer 000000018002d608     ua.obj
 0002:00006630       $cppxdata$_wrap_outctx_t_out_data 000000018002d630     ua.obj
 0002:00006658       $cppxdata$_wrap_outctx_t_out_specea 000000018002d658     ua.obj
 0002:00006680       $cppxdata$_wrap_outctx_t_gen_header_extra 000000018002d680     ua.obj
 0002:000066a8       $cppxdata$_wrap_outctx_t_gen_header 000000018002d6a8     ua.obj
 0002:000066d0       $cppxdata$_wrap_create_outctx 000000018002d6d0     ua.obj
 0002:000066f8       $cppxdata$_wrap_print_insn_mnem 000000018002d6f8     ua.obj
 0002:00006720       $cppxdata$_wrap_get_dtype_flag 000000018002d720     ua.obj
 0002:00006748       $cppxdata$_wrap_get_dtype_size 000000018002d748     ua.obj
 0002:00006770       $cppxdata$_wrap_create_insn 000000018002d770     ua.obj
 0002:00006798       $cppxdata$_wrap_decode_insn 000000018002d798     ua.obj
 0002:000067c0       $cppxdata$_wrap_can_decode 000000018002d7c0     ua.obj
 0002:000067e8       $cppxdata$_wrap_print_operand 000000018002d7e8     ua.obj
 0002:00006810       $cppxdata$_wrap_decode_prev_insn 000000018002d810     ua.obj
 0002:00006838       $cppxdata$_wrap_guess_table_address 000000018002d838     ua.obj
 0002:00006860       $cppxdata$_wrap_guess_table_size 000000018002d860     ua.obj
 0002:00006888       $cppxdata$_wrap_decode_preceding_insn 000000018002d888     ua.obj
 0002:000068b0       $cppxdata$_wrap_construct_macro 000000018002d8b0     ua.obj
 0002:000068d8       $cppxdata$_wrap_get_dtype_by_size 000000018002d8d8     ua.obj
 0002:00006900       $cppxdata$_wrap_get_immvals 000000018002d900     ua.obj
 0002:00006928       $cppxdata$_wrap_get_printable_immvals 000000018002d928     ua.obj
 0002:00006950       $cppxdata$_wrap_insn_t__from_ptrval__ 000000018002d950     ua.obj
 0002:00006978       $cppxdata$_wrap_op_t__from_ptrval__ 000000018002d978     ua.obj
 0002:000069a0       $cppxdata$_wrap_outctx_base_t__from_ptrval__ 000000018002d9a0     ua.obj
 0002:000069c8       $cppxdata$_wrap_outctx_t__from_ptrval__ 000000018002d9c8     ua.obj
 0002:000069f0       ?hex@?1??SWIG_PackData@@9@4QBDB 000000018002d9f0     ua.obj
 0002:0000dfa0       ?cis@?1??PyInit__ida_ua@@9@4QBUci_t@?1??1@YAPEAU_object@@XZ@B 0000000180034fa0     ua.obj
 0002:0000eb28       $cppxdata$?__scrt_initialize_thread_safe_statics@@YAHXZ 0000000180035b28     MSVCRT:thread_safe_statics.obj
 0002:0000ec88       GS_ExceptionPointers       0000000180035c88     MSVCRT:gs_report.obj
 0002:0000f480       $unwind$printf             0000000180036480     ua.obj
 0002:0000f48c       $unwind$??_Glogic_error@std@@UEAAPEAXI@Z 000000018003648c     ua.obj
 0002:0000f48c       $unwind$Swig_var_o_idpspec0_set 000000018003648c     ua.obj
 0002:0000f48c       $unwind$??_Gbad_alloc@std@@UEAAPEAXI@Z 000000018003648c     MSVCRT:throw_bad_alloc.obj
 0002:0000f48c       $unwind$?resize@?$qvector@D@@QEAAX_K@Z 000000018003648c     ua.obj
 0002:0000f48c       $unwind$?SWIG_AsVal_unsigned_SS_int@@YAHPEAU_object@@PEAI@Z 000000018003648c     ua.obj
 0002:0000f48c       $unwind$?SWIG_AsVal_int@@YAHPEAU_object@@PEAH@Z 000000018003648c     ua.obj
 0002:0000f48c       $unwind$Swig_var_o_idpspec1_set 000000018003648c     ua.obj
 0002:0000f48c       $unwind$??_Gbad_array_new_length@std@@UEAAPEAXI@Z 000000018003648c     MSVCRT:throw_bad_alloc.obj
 0002:0000f48c       $unwind$Swig_var_o_mem_set 000000018003648c     ua.obj
 0002:0000f48c       $unwind$?SWIG_AsVal_unsigned_SS_char@@YAHPEAU_object@@PEAE@Z 000000018003648c     ua.obj
 0002:0000f48c       $unwind$Swig_var_o_near_set 000000018003648c     ua.obj
 0002:0000f48c       $unwind$??_Gexception@std@@UEAAPEAXI@Z 000000018003648c     ua.obj
 0002:0000f48c       $unwind$Swig_var_o_idpspec2_set 000000018003648c     ua.obj
 0002:0000f48c       $unwind$Swig_var_o_idpspec3_set 000000018003648c     ua.obj
 0002:0000f48c       $unwind$swig_varlink_setattr 000000018003648c     ua.obj
 0002:0000f48c       $unwind$Swig_var_o_far_set 000000018003648c     ua.obj
 0002:0000f48c       $unwind$Swig_var_o_imm_set 000000018003648c     ua.obj
 0002:0000f48c       $unwind$Swig_var_o_displ_set 000000018003648c     ua.obj
 0002:0000f48c       $unwind$Swig_var_o_idpspec5_set 000000018003648c     ua.obj
 0002:0000f48c       $unwind$swig_varlink_getattr 000000018003648c     ua.obj
 0002:0000f48c       $unwind$_RTC_Initialize    000000018003648c     MSVCRT:initsect.obj
 0002:0000f48c       $unwind$_RTC_Terminate     000000018003648c     MSVCRT:initsect.obj
 0002:0000f48c       $unwind$SwigPyObject_append 000000018003648c     ua.obj
 0002:0000f48c       $unwind$Swig_var_o_reg_set 000000018003648c     ua.obj
 0002:0000f48c       $unwind$Swig_var_o_void_set 000000018003648c     ua.obj
 0002:0000f48c       $unwind$Swig_var_o_phrase_set 000000018003648c     ua.obj
 0002:0000f48c       $unwind$Swig_var_o_idpspec4_set 000000018003648c     ua.obj
 0002:0000f48c       $unwind$??_Gout_of_range@std@@UEAAPEAXI@Z 000000018003648c     ua.obj
 0002:0000f48c       $unwind$SWIG_TypeClientData 000000018003648c     ua.obj
 0002:0000f498       $unwind$SWIG_MangledTypeQueryModule 0000000180036498     ua.obj
 0002:0000f4a8       $unwind$__raise_securityfailure 00000001800364a8     MSVCRT:gs_report.obj
 0002:0000f4a8       $unwind$swig_varlink_dealloc 00000001800364a8     ua.obj
 0002:0000f4a8       $unwind$?SWIG_Python_RaiseOrModifyTypeError@@YAXPEBD@Z 00000001800364a8     ua.obj
 0002:0000f4a8       $unwind$SWIG_Python_GetSwigThis 00000001800364a8     ua.obj
 0002:0000f4a8       $unwind$??2@YAPEAX_K@Z     00000001800364a8     MSVCRT:new_scalar.obj
 0002:0000f4a8       $unwind$SwigPyPacked_dealloc 00000001800364a8     ua.obj
 0002:0000f4a8       $unwind$?SWIG_FromCharPtrAndSize@@YAPEAU_object@@PEBD_K@Z 00000001800364a8     ua.obj
 0002:0000f4a8       $unwind$_onexit            00000001800364a8     MSVCRT:utility.obj
 0002:0000f4a8       $unwind$__scrt_release_startup_lock 00000001800364a8     MSVCRT:utility.obj
 0002:0000f4a8       $unwind$??_Gtype_info@@UEAAPEAXI@Z 00000001800364a8     MSVCRT:std_type_info_static.obj
 0002:0000f4a8       $unwind$??0out_of_range@std@@QEAA@AEBV01@@Z 00000001800364a8     ua.obj
 0002:0000f4a8       $unwind$??0bad_alloc@std@@QEAA@AEBV01@@Z 00000001800364a8     MSVCRT:throw_bad_alloc.obj
 0002:0000f4a8       $unwind$__scrt_initialize_crt 00000001800364a8     MSVCRT:utility.obj
 0002:0000f4a8       $unwind$??0bad_array_new_length@std@@QEAA@AEBV01@@Z 00000001800364a8     MSVCRT:throw_bad_alloc.obj
 0002:0000f4a8       $unwind$??0exception@std@@QEAA@AEBV01@@Z 00000001800364a8     ua.obj
 0002:0000f4a8       $unwind$_Init_thread_header 00000001800364a8     MSVCRT:thread_safe_statics.obj
 0002:0000f4a8       $unwind$__scrt_uninitialize_crt 00000001800364a8     MSVCRT:utility.obj
 0002:0000f4a8       $unwind$??0logic_error@std@@QEAA@AEBV01@@Z 00000001800364a8     ua.obj
 0002:0000f4a8       $unwind$_Init_thread_footer 00000001800364a8     MSVCRT:thread_safe_statics.obj
 0002:0000f4a8       $unwind$_Init_thread_wait  00000001800364a8     MSVCRT:thread_safe_statics.obj
 0002:0000f4b0       $unwind$_DllMainCRTStartup 00000001800364b0     MSVCRT:dll_dllmain.obj
 0002:0000f4b0       $unwind$?SWIG_Python_SetErrorObj@@YAXPEAU_object@@0@Z 00000001800364b0     ua.obj
 0002:0000f4b0       $unwind$_wrap_outctx_base_t_gen_collapsed_line 00000001800364b0     ua.obj
 0002:0000f4b0       $unwind$_wrap_outctx_base_t_gen_cmt_line 00000001800364b0     ua.obj
 0002:0000f4b0       $unwind$SwigPyObject_New   00000001800364b0     ua.obj
 0002:0000f4b0       $unwind$_wrap_outctx_base_t_gen_printf 00000001800364b0     ua.obj
 0002:0000f4b0       $unwind$_wrap_outctx_base_t_out_printf 00000001800364b0     ua.obj
 0002:0000f4c0       $unwind$?SWIG_Python_UnpackTuple@@YA_JPEAU_object@@PEBD_J2PEAPEAU1@@Z 00000001800364c0     ua.obj
 0002:0000f4d4       $chain$0$?SWIG_Python_UnpackTuple@@YA_JPEAU_object@@PEBD_J2PEAPEAU1@@Z 00000001800364d4     ua.obj
 0002:0000f4e8       $chain$1$?SWIG_Python_UnpackTuple@@YA_JPEAU_object@@PEBD_J2PEAPEAU1@@Z 00000001800364e8     ua.obj
 0002:0000f4f8       $unwind$SwigPyClientData_New 00000001800364f8     ua.obj
 0002:0000f508       $chain$2$SwigPyClientData_New 0000000180036508     ua.obj
 0002:0000f51c       $chain$3$SwigPyClientData_New 000000018003651c     ua.obj
 0002:0000f52c       $unwind$??4?$_qstring@D@@QEAAAEAV0@AEBV0@@Z 000000018003652c     ua.obj
 0002:0000f52c       $unwind$SwigPyObject_repr  000000018003652c     ua.obj
 0002:0000f538       $chain$0$SwigPyObject_repr 0000000180036538     ua.obj
 0002:0000f54c       $chain$1$SwigPyObject_repr 000000018003654c     ua.obj
 0002:0000f55c       $unwind$SwigPyObject_type  000000018003655c     ua.obj
 0002:0000f570       $unwind$SwigPyPacked_Check 0000000180036570     ua.obj
 0002:0000f570       $unwind$SwigPyObject_Check 0000000180036570     ua.obj
 0002:0000f57c       $unwind$SwigPyObject_dealloc 000000018003657c     ua.obj
 0002:0000f588       $chain$2$SwigPyObject_dealloc 0000000180036588     ua.obj
 0002:0000f5a4       $chain$3$SwigPyObject_dealloc 00000001800365a4     ua.obj
 0002:0000f5b4       $unwind$??0out_of_range@std@@QEAA@PEBD@Z 00000001800365b4     ua.obj
 0002:0000f5b4       $unwind$SwigPyObject_own   00000001800365b4     ua.obj
 0002:0000f5bc       $chain$0$SwigPyObject_own  00000001800365bc     ua.obj
 0002:0000f5d0       $chain$2$SwigPyObject_own  00000001800365d0     ua.obj
 0002:0000f5e4       $unwind$SwigPyPacked_str   00000001800365e4     ua.obj
 0002:0000f5e4       $unwind$SwigPyPacked_repr  00000001800365e4     ua.obj
 0002:0000f5f4       $chain$0$SwigPyPacked_repr 00000001800365f4     ua.obj
 0002:0000f608       $chain$1$SwigPyPacked_repr 0000000180036608     ua.obj
 0002:0000f618       $chain$0$SwigPyPacked_str  0000000180036618     ua.obj
 0002:0000f62c       $chain$1$SwigPyPacked_str  000000018003662c     ua.obj
 0002:0000f63c       $unwind$SwigPyPacked_type  000000018003663c     ua.obj
 0002:0000f64c       $unwind$atexit             000000018003664c     MSVCRT:utility.obj
 0002:0000f64c       $unwind$__scrt_initialize_default_local_stdio_options 000000018003664c     MSVCRT:default_local_stdio_options.obj
 0002:0000f64c       $unwind$??__Fmacro_builders@?1??py_construct_macro@@YA_NAEAVinsn_t@@_NPEAU_object@@@Z@YAXXZ 000000018003664c     ua.obj
 0002:0000f64c       $unwind$__scrt_dllmain_after_initialize_c 000000018003664c     MSVCRT:utility.obj
 0002:0000f64c       $unwind$__scrt_dllmain_crt_thread_detach 000000018003664c     MSVCRT:utility.obj
 0002:0000f64c       $unwind$?__raise_e@@YAXAEBVexception@std@@@Z 000000018003664c     ua.obj
 0002:0000f64c       $unwind$__scrt_acquire_startup_lock 000000018003664c     MSVCRT:utility.obj
 0002:0000f64c       $unwind$SWIG_Python_DestroyModule 000000018003664c     ua.obj
 0002:0000f64c       $unwind$?dllmain_crt_dispatch@@YAHQEAUHINSTANCE__@@KQEAX@Z 000000018003664c     MSVCRT:dll_dllmain.obj
 0002:0000f64c       $unwind$SWIG_This          000000018003664c     ua.obj
 0002:0000f64c       $unwind$_Init_thread_notify 000000018003664c     MSVCRT:thread_safe_statics.obj
 0002:0000f64c       $unwind$__scrt_dllmain_uninitialize_c 000000018003664c     MSVCRT:utility.obj
 0002:0000f64c       $unwind$SWIG_Python_TypeCache 000000018003664c     ua.obj
 0002:0000f64c       $unwind$DllMain            000000018003664c     MSVCRT:dll_dllmain_stub.obj
 0002:0000f64c       $unwind$__GSHandlerCheck   000000018003664c     MSVCRT:gshandler.obj
 0002:0000f64c       $unwind$?__scrt_uninitialize_thread_safe_statics@@YAXXZ 000000018003664c     MSVCRT:thread_safe_statics.obj
 0002:0000f64c       $unwind$__scrt_dllmain_crt_thread_attach 000000018003664c     MSVCRT:utility.obj
 0002:0000f64c       $unwind$__scrt_dllmain_before_initialize_c 000000018003664c     MSVCRT:utility.obj
 0002:0000f64c       $unwind$__scrt_dllmain_uninitialize_critical 000000018003664c     MSVCRT:utility.obj
 0002:0000f654       $unwind$SWIG_Python_InitShadowInstance 0000000180036654     ua.obj
 0002:0000f664       $unwind$SWIG_Python_NewPointerObj 0000000180036664     ua.obj
 0002:0000f680       $chain$2$SWIG_Python_DestroyModule 0000000180036680     ua.obj
 0002:0000f69c       $chain$3$SWIG_Python_DestroyModule 000000018003669c     ua.obj
 0002:0000f6b0       $chain$4$SWIG_Python_DestroyModule 00000001800366b0     ua.obj
 0002:0000f6c0       $chain$5$SWIG_Python_DestroyModule 00000001800366c0     ua.obj
 0002:0000f6d0       $unwind$SWIG_Python_TypeQuery 00000001800366d0     ua.obj
 0002:0000f6dc       $chain$1$SWIG_Python_TypeQuery 00000001800366dc     ua.obj
 0002:0000f6f4       $chain$5$SWIG_Python_TypeQuery 00000001800366f4     ua.obj
 0002:0000f714       $chain$6$SWIG_Python_TypeQuery 0000000180036714     ua.obj
 0002:0000f724       $chain$7$SWIG_Python_TypeQuery 0000000180036724     ua.obj
 0002:0000f734       $unwind$??0?$_qstring@D@@QEAA@PEBD_K@Z 0000000180036734     ua.obj
 0002:0000f744       $chain$0$??0?$_qstring@D@@QEAA@PEBD_K@Z 0000000180036744     ua.obj
 0002:0000f758       $chain$1$??0?$_qstring@D@@QEAA@PEBD_K@Z 0000000180036758     ua.obj
 0002:0000f768       $chain$0$??4?$_qstring@D@@QEAAAEAV0@AEBV0@@Z 0000000180036768     ua.obj
 0002:0000f77c       $chain$2$??4?$_qstring@D@@QEAAAEAV0@AEBV0@@Z 000000018003677c     ua.obj
 0002:0000f790       $chain$3$??4?$_qstring@D@@QEAAAEAV0@AEBV0@@Z 0000000180036790     ua.obj
 0002:0000f7a0       $unwind$?sprnt@?$_qstring@D@@QEAAAEAV1@PEBDZZ 00000001800367a0     ua.obj
 0002:0000f7b0       $unwind$?__raise_ie@@YAXAEBUinterr_exc_t@@@Z 00000001800367b0     ua.obj
 0002:0000f7b0       $unwind$?__scrt_throw_std_bad_alloc@@YAXXZ 00000001800367b0     MSVCRT:throw_bad_alloc.obj
 0002:0000f7b0       $unwind$?__scrt_throw_std_bad_array_new_length@@YAXXZ 00000001800367b0     MSVCRT:throw_bad_alloc.obj
 0002:0000f7b8       $unwind$?gen_collapsed_line@outctx_base_t@@QEAA_NPEBDZZ 00000001800367b8     ua.obj
 0002:0000f7b8       $unwind$?out_printf@outctx_base_t@@QEAAXPEBDZZ 00000001800367b8     ua.obj
 0002:0000f7b8       $unwind$?gen_cmt_line@outctx_base_t@@QEAA_NPEBDZZ 00000001800367b8     ua.obj
 0002:0000f7c0       $unwind$?gen_printf@outctx_base_t@@QEAA_NHPEBDZZ 00000001800367c0     ua.obj
 0002:0000f7c8       $unwind$?SWIG_AsCharArray@@YAHPEAU_object@@PEAD_K@Z 00000001800367c8     ua.obj
 0002:0000f7e0       $unwind$?py_construct_macro@@YA_NAEAVinsn_t@@_NPEAU_object@@@Z 00000001800367e0     ua.obj
 0002:0000f7ec       $chain$4$?py_construct_macro@@YA_NAEAVinsn_t@@_NPEAU_object@@@Z 00000001800367ec     ua.obj
 0002:0000f810       $chain$6$?py_construct_macro@@YA_NAEAVinsn_t@@_NPEAU_object@@@Z 0000000180036810     ua.obj
 0002:0000f834       $chain$7$?py_construct_macro@@YA_NAEAVinsn_t@@_NPEAU_object@@@Z 0000000180036834     ua.obj
 0002:0000f848       $unwind$?call_build_macro@lambda_t@?1??py_construct_macro@@YA_NAEAVinsn_t@@_NPEAU_object@@@Z@SA_N01@Z 0000000180036848     ua.obj
 0002:0000f858       $unwind$_wrap_op_t_offo_get 0000000180036858     ua.obj
 0002:0000f858       $unwind$_wrap_insn_t_ea_get 0000000180036858     ua.obj
 0002:0000f858       $unwind$_wrap_insn_t_ops_get 0000000180036858     ua.obj
 0002:0000f858       $unwind$_wrap_op_t_offb_get 0000000180036858     ua.obj
 0002:0000f858       $unwind$_wrap_insn_t_ip_get 0000000180036858     ua.obj
 0002:0000f858       $unwind$_wrap_insn_t_itype_get 0000000180036858     ua.obj
 0002:0000f858       $unwind$_wrap_insn_t_cs_get 0000000180036858     ua.obj
 0002:0000f858       $unwind$_wrap_outctx_t_bin_state_get 0000000180036858     ua.obj
 0002:0000f858       $unwind$_wrap_insn_t_size_get 0000000180036858     ua.obj
 0002:0000f858       $unwind$_wrap_op_t_n_get   0000000180036858     ua.obj
 0002:0000f858       $unwind$_wrap_op_t_specflag2_get 0000000180036858     ua.obj
 0002:0000f858       $unwind$_wrap_op_t_dtype_get 0000000180036858     ua.obj
 0002:0000f858       $unwind$_wrap_insn_t_insnpref_get 0000000180036858     ua.obj
 0002:0000f858       $unwind$_wrap_op_t_specflag4_get 0000000180036858     ua.obj
 0002:0000f858       $unwind$_wrap_outctx_t_gl_bpsize_get 0000000180036858     ua.obj
 0002:0000f858       $unwind$_wrap_outctx_t_bin_width_get 0000000180036858     ua.obj
 0002:0000f858       $unwind$_wrap_outctx_t_insn_get 0000000180036858     ua.obj
 0002:0000f858       $unwind$_wrap_op_t_flags_get 0000000180036858     ua.obj
 0002:0000f858       $unwind$_wrap_op_t_specflag3_get 0000000180036858     ua.obj
 0002:0000f858       $unwind$_wrap_outctx_t_bin_ea_get 0000000180036858     ua.obj
 0002:0000f858       $unwind$_wrap_op_t_specflag1_get 0000000180036858     ua.obj
 0002:0000f858       $unwind$_wrap_outctx_t_wif_get 0000000180036858     ua.obj
 0002:0000f858       $unwind$_wrap_insn_t_flags_get 0000000180036858     ua.obj
 0002:0000f858       $unwind$_wrap_outctx_base_t_default_lnnum_get 0000000180036858     ua.obj
 0002:0000f858       $unwind$_wrap_operands_array_data_get 0000000180036858     ua.obj
 0002:0000f858       $unwind$_wrap_outctx_base_t_insn_ea_get 0000000180036858     ua.obj
 0002:0000f858       $unwind$_wrap_op_t_type_get 0000000180036858     ua.obj
 0002:0000f858       $unwind$_wrap_insn_t_segpref_get 0000000180036858     ua.obj
 0002:0000f868       $chain$0$_wrap_operands_array_data_get 0000000180036868     ua.obj
 0002:0000f87c       $chain$1$_wrap_operands_array_data_get 000000018003687c     ua.obj
 0002:0000f88c       $unwind$_wrap_new_operands_array 000000018003688c     ua.obj
 0002:0000f8a8       $stateUnwindMap$_wrap_outctx_t_gen_header_extra 00000001800368a8     ua.obj
 0002:0000f8a8       $stateUnwindMap$_wrap_new_insn_t 00000001800368a8     ua.obj
 0002:0000f8a8       $stateUnwindMap$_wrap_outctx_base_t_force_code 00000001800368a8     ua.obj
 0002:0000f8a8       $stateUnwindMap$_wrap_op_t_is_reg 00000001800368a8     ua.obj
 0002:0000f8a8       $stateUnwindMap$_wrap_insn_t_assign 00000001800368a8     ua.obj
 0002:0000f8a8       $stateUnwindMap$_wrap_outctx_base_t_close_comment 00000001800368a8     ua.obj
 0002:0000f8a8       $stateUnwindMap$_wrap_insn_t_create_stkvar 00000001800368a8     ua.obj
 0002:0000f8a8       $stateUnwindMap$_wrap_outctx_base_t_forbid_annotations 00000001800368a8     ua.obj
 0002:0000f8a8       $stateUnwindMap$_wrap_outctx_base_t_out_name_expr 00000001800368a8     ua.obj
 0002:0000f8a8       $stateUnwindMap$_wrap_outctx_t_gen_func_header 00000001800368a8     ua.obj
 0002:0000f8a8       $stateUnwindMap$_wrap_map_code_ea__SWIG_0 00000001800368a8     ua.obj
 0002:0000f8a8       $stateUnwindMap$_wrap_op_t_clr_shown 00000001800368a8     ua.obj
 0002:0000f8a8       $stateUnwindMap$_wrap_outctx_base_t_out_printf__varargs__ 00000001800368a8     ua.obj
 0002:0000f8a8       $stateUnwindMap$_wrap_outctx_t__from_ptrval__ 00000001800368a8     ua.obj
 0002:0000f8a8       $stateUnwindMap$_wrap_outctx_base_t__from_ptrval__ 00000001800368a8     ua.obj
 0002:0000f8a8       $stateUnwindMap$_wrap_outctx_t_out_immchar_cmts 00000001800368a8     ua.obj
 0002:0000f8a8       $stateUnwindMap$_wrap_op_t__from_ptrval__ 00000001800368a8     ua.obj
 0002:0000f8a8       $stateUnwindMap$_wrap_outctx_base_t_out_long 00000001800368a8     ua.obj
 0002:0000f8a8       $stateUnwindMap$_wrap_insn_add_cref 00000001800368a8     ua.obj
 0002:0000f8a8       $stateUnwindMap$_wrap_op_t___get_reg_phrase__ 00000001800368a8     ua.obj
 0002:0000f8a8       $stateUnwindMap$_wrap_insn_t_add_cref 00000001800368a8     ua.obj
 0002:0000f8a8       $stateUnwindMap$_wrap_outctx_base_t_out_btoa 00000001800368a8     ua.obj
 0002:0000f8a8       $stateUnwindMap$_wrap_insn_t___set_auxpref__ 00000001800368a8     ua.obj
 0002:0000f8a8       $stateUnwindMap$_wrap_outctx_base_t_print_label_now 00000001800368a8     ua.obj
 0002:0000f8a8       $stateUnwindMap$_wrap_map_data_ea__SWIG_1 00000001800368a8     ua.obj
 0002:0000f8a8       $stateUnwindMap$_wrap_outctx_base_t_flush_buf 00000001800368a8     ua.obj
 0002:0000f8a8       $stateUnwindMap$_wrap_outctx_base_t_out_char 00000001800368a8     ua.obj
 0002:0000f8a8       $stateUnwindMap$_wrap_outctx_base_t_set_gen_cmt 00000001800368a8     ua.obj
 0002:0000f8a8       $stateUnwindMap$_wrap_outctx_base_t_out_value 00000001800368a8     ua.obj
 0002:0000f8a8       $stateUnwindMap$_wrap_insn_t__from_ptrval__ 00000001800368a8     ua.obj
 0002:0000f8a8       $stateUnwindMap$_wrap_outctx_base_t_out_symbol 00000001800368a8     ua.obj
 0002:0000f8a8       $stateUnwindMap$_wrap_op_t_assign 00000001800368a8     ua.obj
 0002:0000f8a8       $stateUnwindMap$_wrap_op_t___set_reg_phrase__ 00000001800368a8     ua.obj
 0002:0000f8a8       $stateUnwindMap$_wrap_op_t_is_imm 00000001800368a8     ua.obj
 0002:0000f8a8       $stateUnwindMap$_wrap_insn_t_create_op_data__SWIG_0 00000001800368a8     ua.obj
 0002:0000f8a8       $stateUnwindMap$_wrap_outctx_base_t_multiline 00000001800368a8     ua.obj
 0002:0000f8a8       $stateUnwindMap$_wrap_delete_insn_t 00000001800368a8     ua.obj
 0002:0000f8a8       $stateUnwindMap$_wrap_outctx_base_t_term_outctx 00000001800368a8     ua.obj
 0002:0000f8a8       $stateUnwindMap$_wrap_outctx_base_t_restore_ctxflags 00000001800368a8     ua.obj
 0002:0000f8a8       $stateUnwindMap$_wrap_outctx_base_t_gen_printf__varargs__ 00000001800368a8     ua.obj
 0002:0000f8a8       $stateUnwindMap$_wrap_outctx_base_t_flush_outbuf 00000001800368a8     ua.obj
 0002:0000f8a8       $stateUnwindMap$_wrap_delete_op_t 00000001800368a8     ua.obj
 0002:0000f8a8       $stateUnwindMap$_wrap_outctx_base_t_gen_empty_line 00000001800368a8     ua.obj
 0002:0000f8a8       $stateUnwindMap$_wrap_outctx_base_t_set_dlbind_opnd 00000001800368a8     ua.obj
 0002:0000f8a8       $stateUnwindMap$_wrap_outctx_base_t_gen_border_line 00000001800368a8     ua.obj
 0002:0000f8a8       $stateUnwindMap$_wrap_outctx_base_t_out_colored_register_line 00000001800368a8     ua.obj
 0002:0000f8a8       $stateUnwindMap$_wrap_outctx_base_t_gen_cmt_line__varargs__ 00000001800368a8     ua.obj
 0002:0000f8a8       $stateUnwindMap$_wrap_construct_macro 00000001800368a8     ua.obj
 0002:0000f8a8       $stateUnwindMap$_wrap_get_immvals 00000001800368a8     ua.obj
 0002:0000f8a8       $stateUnwindMap$_wrap_op_t_set_shown 00000001800368a8     ua.obj
 0002:0000f8a8       $stateUnwindMap$_wrap_new_operands_array 00000001800368a8     ua.obj
 0002:0000f8a8       $stateUnwindMap$_wrap_outctx_base_t_gen_collapsed_line__varargs__ 00000001800368a8     ua.obj
 0002:0000f8a8       $stateUnwindMap$_wrap_insn_t___get_auxpref__ 00000001800368a8     ua.obj
 0002:0000f8a8       $stateUnwindMap$_wrap_insn_t_get_next_qword 00000001800368a8     ua.obj
 0002:0000f8a8       $stateUnwindMap$_wrap_insn_t_add_dref 00000001800368a8     ua.obj
 0002:0000f8a8       $stateUnwindMap$_wrap_decode_preceding_insn 00000001800368a8     ua.obj
 0002:0000f8a8       $stateUnwindMap$_wrap_insn_t_is_macro 00000001800368a8     ua.obj
 0002:0000f8a8       $stateUnwindMap$_wrap_outctx_t_out_one_operand 00000001800368a8     ua.obj
 0002:0000f8a8       $stateUnwindMap$_wrap_map_ea__SWIG_1 00000001800368a8     ua.obj
 0002:0000f8a8       $stateUnwindMap$_wrap_outctx_base_t_gen_block_cmt 00000001800368a8     ua.obj
 0002:0000f8a8       $stateUnwindMap$_wrap_insn_create_stkvar 00000001800368a8     ua.obj
 0002:0000f8a8       $stateUnwindMap$_wrap_outctx_base_t_setup_outctx 00000001800368a8     ua.obj
 0002:0000f8a8       $stateUnwindMap$_wrap_guess_table_size 00000001800368a8     ua.obj
 0002:0000f8a8       $stateUnwindMap$_wrap_outctx_base_t_set_comment_addr 00000001800368a8     ua.obj
 0002:0000f8a8       $stateUnwindMap$_wrap_outctx_base_t_clr_gen_label 00000001800368a8     ua.obj
 0002:0000f8a8       $stateUnwindMap$_wrap_outctx_base_t_retrieve_cmt 00000001800368a8     ua.obj
 0002:0000f8a8       $stateUnwindMap$_wrap_map_ea__SWIG_0 00000001800368a8     ua.obj
 0002:0000f8a8       $stateUnwindMap$_wrap_outctx_base_t_retrieve_name 00000001800368a8     ua.obj
 0002:0000f8a8       $stateUnwindMap$_wrap_outctx_base_t_out_chars 00000001800368a8     ua.obj
 0002:0000f8a8       $stateUnwindMap$_wrap_guess_table_address 00000001800368a8     ua.obj
 0002:0000f8a8       $stateUnwindMap$_wrap_op_t___set_specval__ 00000001800368a8     ua.obj
 0002:0000f8a8       $stateUnwindMap$_wrap_get_lookback 00000001800368a8     ua.obj
 0002:0000f8a8       $stateUnwindMap$_wrap_insn_t_get_next_dword 00000001800368a8     ua.obj
 0002:0000f8a8       $stateUnwindMap$_wrap_outctx_t_gen_header 00000001800368a8     ua.obj
 0002:0000f8a8       $stateUnwindMap$_wrap_outctx_base_t_gen_xref_lines 00000001800368a8     ua.obj
 0002:0000f8a8       $stateUnwindMap$_wrap_decode_prev_insn 00000001800368a8     ua.obj
 0002:0000f8a8       $stateUnwindMap$_wrap_operands_array___len__ 00000001800368a8     ua.obj
 0002:0000f8a8       $stateUnwindMap$_wrap_outctx_t_gen_func_footer 00000001800368a8     ua.obj
 0002:0000f8a8       $stateUnwindMap$_wrap_outctx_base_t_init_lines_array 00000001800368a8     ua.obj
 0002:0000f8a8       $stateUnwindMap$_wrap_outctx_base_t_out_addr_tag 00000001800368a8     ua.obj
 0002:0000f8a8       $stateUnwindMap$_wrap_outctx_base_t_get_stkvar 00000001800368a8     ua.obj
 0002:0000f8a8       $stateUnwindMap$_wrap_insn_add_dref 00000001800368a8     ua.obj
 0002:0000f8a8       $stateUnwindMap$_wrap_outctx_base_t_set_gen_demangled_label 00000001800368a8     ua.obj
 0002:0000f8a8       $stateUnwindMap$_wrap_map_data_ea__SWIG_0 00000001800368a8     ua.obj
 0002:0000f8a8       $stateUnwindMap$_wrap_outctx_base_t_gen_empty_line_without_annotations 00000001800368a8     ua.obj
 0002:0000f8a8       $stateUnwindMap$_wrap_can_decode 00000001800368a8     ua.obj
 0002:0000f8a8       $stateUnwindMap$_wrap_new_op_t 00000001800368a8     ua.obj
 0002:0000f8a8       $stateUnwindMap$_wrap_outctx_base_t_out_tagoff 00000001800368a8     ua.obj
 0002:0000f8a8       $stateUnwindMap$_wrap_op_t___get_value__ 00000001800368a8     ua.obj
 0002:0000f8a8       $stateUnwindMap$_wrap_map_code_ea__SWIG_1 00000001800368a8     ua.obj
 0002:0000f8a8       $stateUnwindMap$_wrap_insn_t_is_canon_insn 00000001800368a8     ua.obj
 0002:0000f8a8       $stateUnwindMap$_wrap_insn_t_get_next_word 00000001800368a8     ua.obj
 0002:0000f8a8       $stateUnwindMap$_wrap_outctx_base_t_only_main_line 00000001800368a8     ua.obj
 0002:0000f8a8       $stateUnwindMap$_wrap_outctx_base_t_stack_view 00000001800368a8     ua.obj
 0002:0000f8a8       $stateUnwindMap$_wrap_insn_t_add_off_drefs 00000001800368a8     ua.obj
 0002:0000f8a8       $stateUnwindMap$_wrap_decode_insn 00000001800368a8     ua.obj
 0002:0000f8a8       $stateUnwindMap$_wrap_get_printable_immvals 00000001800368a8     ua.obj
 0002:0000f8a8       $stateUnwindMap$_wrap_outctx_base_t_out_tagon 00000001800368a8     ua.obj
 0002:0000f8a8       $stateUnwindMap$_wrap_outctx_base_t_out_register 00000001800368a8     ua.obj
 0002:0000f8a8       $stateUnwindMap$_wrap_outctx_t_out_mnemonic 00000001800368a8     ua.obj
 0002:0000f8a8       $stateUnwindMap$_wrap_create_insn 00000001800368a8     ua.obj
 0002:0000f8a8       $stateUnwindMap$_wrap_outctx_base_t_display_voids 00000001800368a8     ua.obj
 0002:0000f8a8       $stateUnwindMap$_wrap_insn_add_off_drefs 00000001800368a8     ua.obj
 0002:0000f8a8       $stateUnwindMap$_wrap_op_t___set_value__ 00000001800368a8     ua.obj
 0002:0000f8a8       $stateUnwindMap$_wrap_get_dtype_size 00000001800368a8     ua.obj
 0002:0000f8a8       $stateUnwindMap$_wrap_outctx_base_t_out_spaces 00000001800368a8     ua.obj
 0002:0000f8a8       $stateUnwindMap$_wrap_outctx_base_t_out_keyword 00000001800368a8     ua.obj
 0002:0000f8a8       $stateUnwindMap$_wrap_get_dtype_by_size 00000001800368a8     ua.obj
 0002:0000f8a8       $stateUnwindMap$_wrap_insn_t_get_canon_feature 00000001800368a8     ua.obj
 0002:0000f8a8       $stateUnwindMap$_wrap_outctx_t_setup_outctx 00000001800368a8     ua.obj
 0002:0000f8a8       $stateUnwindMap$_wrap_insn_t_get_next_byte 00000001800368a8     ua.obj
 0002:0000f8a8       $stateUnwindMap$_wrap_op_t___get_addr__ 00000001800368a8     ua.obj
 0002:0000f8a8       $stateUnwindMap$_wrap_calc_dataseg 00000001800368a8     ua.obj
 0002:0000f8a8       $stateUnwindMap$_wrap_outctx_t_retrieve_cmt 00000001800368a8     ua.obj
 0002:0000f8a8       $stateUnwindMap$_wrap_get_dtype_flag 00000001800368a8     ua.obj
 0002:0000f8a8       $stateUnwindMap$_wrap_op_t_shown 00000001800368a8     ua.obj
 0002:0000f8a8       $stateUnwindMap$_wrap_outctx_base_t_set_gen_xrefs 00000001800368a8     ua.obj
 0002:0000f8a8       $stateUnwindMap$_wrap_outctx_t_retrieve_name 00000001800368a8     ua.obj
 0002:0000f8a8       $stateUnwindMap$_wrap_outctx_t_out_specea 00000001800368a8     ua.obj
 0002:0000f8a8       $stateUnwindMap$_wrap_outctx_t_gen_xref_lines 00000001800368a8     ua.obj
 0002:0000f8a8       $stateUnwindMap$_wrap_outctx_base_t_out_line 00000001800368a8     ua.obj
 0002:0000f8a8       $stateUnwindMap$_wrap_delete_operands_array 00000001800368a8     ua.obj
 0002:0000f8a8       $stateUnwindMap$_wrap_outctx_base_t_set_gen_label 00000001800368a8     ua.obj
 0002:0000f8a8       $stateUnwindMap$_wrap_outctx_t_out_mnem 00000001800368a8     ua.obj
 0002:0000f8a8       $stateUnwindMap$_wrap_outctx_t_out_data 00000001800368a8     ua.obj
 0002:0000f8a8       $stateUnwindMap$_wrap_insn_t___get_operand__ 00000001800368a8     ua.obj
 0002:0000f8a8       $stateUnwindMap$_wrap_insn_t_get_canon_mnem 00000001800368a8     ua.obj
 0002:0000f8a8       $stateUnwindMap$_wrap_outctx_t_out_custom_mnem 00000001800368a8     ua.obj
 0002:0000f8a8       $stateUnwindMap$_wrap_create_outctx 00000001800368a8     ua.obj
 0002:0000f8a8       $stateUnwindMap$_wrap_insn_t_is_64bit 00000001800368a8     ua.obj
 0002:0000f8a8       $stateUnwindMap$_wrap_op_t___set_addr__ 00000001800368a8     ua.obj
 0002:0000f8a8       $stateUnwindMap$_wrap_insn_t_create_op_data__SWIG_1 00000001800368a8     ua.obj
 0002:0000f8a8       $stateUnwindMap$_wrap_op_t___get_specval__ 00000001800368a8     ua.obj
 0002:0000f8b8       $tryMap$_wrap_new_operands_array 00000001800368b8     ua.obj
 0002:0000f8cc       $handlerMap$0$_wrap_new_operands_array 00000001800368cc     ua.obj
 0002:0000f948       $ip2state$_wrap_new_operands_array 0000000180036948     ua.obj
 0002:0000f970       $unwind$_wrap_new_operands_array$catch$1 0000000180036970     ua.obj
 0002:0000f970       $unwind$_wrap_new_operands_array$catch$3 0000000180036970     ua.obj
 0002:0000f970       $unwind$_wrap_new_operands_array$catch$4 0000000180036970     ua.obj
 0002:0000f970       $unwind$_wrap_new_operands_array$catch$5 0000000180036970     ua.obj
 0002:0000f970       $unwind$_wrap_new_operands_array$catch$6 0000000180036970     ua.obj
 0002:0000f970       $unwind$_wrap_new_operands_array$catch$2 0000000180036970     ua.obj
 0002:0000f980       $unwind$_wrap_operands_array___len__ 0000000180036980     ua.obj
 0002:0000f99c       $tryMap$_wrap_operands_array___len__ 000000018003699c     ua.obj
 0002:0000f9b0       $handlerMap$0$_wrap_operands_array___len__ 00000001800369b0     ua.obj
 0002:0000fa28       $ip2state$_wrap_operands_array___len__ 0000000180036a28     ua.obj
 0002:0000fa48       $unwind$_wrap_operands_array___len__$catch$0 0000000180036a48     ua.obj
 0002:0000fa48       $unwind$_wrap_operands_array___len__$catch$5 0000000180036a48     ua.obj
 0002:0000fa48       $unwind$_wrap_operands_array___len__$catch$3 0000000180036a48     ua.obj
 0002:0000fa48       $unwind$_wrap_operands_array___len__$catch$4 0000000180036a48     ua.obj
 0002:0000fa48       $unwind$_wrap_operands_array___len__$catch$1 0000000180036a48     ua.obj
 0002:0000fa48       $unwind$_wrap_operands_array___len__$catch$2 0000000180036a48     ua.obj
 0002:0000fa58       $unwind$_wrap_operands_array___getitem__ 0000000180036a58     ua.obj
 0002:0000fa78       $stateUnwindMap$_wrap_operands_array___getitem__ 0000000180036a78     ua.obj
 0002:0000fa78       $stateUnwindMap$_wrap_operands_array___setitem__ 0000000180036a78     ua.obj
 0002:0000fa98       $tryMap$_wrap_operands_array___getitem__ 0000000180036a98     ua.obj
 0002:0000fac0       $handlerMap$0$_wrap_operands_array___getitem__ 0000000180036ac0     ua.obj
 0002:0000fad4       $handlerMap$1$_wrap_operands_array___getitem__ 0000000180036ad4     ua.obj
 0002:0000fb50       $ip2state$_wrap_operands_array___getitem__ 0000000180036b50     ua.obj
 0002:0000fb80       $unwind$_wrap_operands_array___getitem__$catch$0 0000000180036b80     ua.obj
 0002:0000fb94       $unwind$_wrap_operands_array___getitem__$catch$1 0000000180036b94     ua.obj
 0002:0000fb94       $unwind$_wrap_operands_array___getitem__$catch$5 0000000180036b94     ua.obj
 0002:0000fb94       $unwind$_wrap_operands_array___getitem__$catch$2 0000000180036b94     ua.obj
 0002:0000fb94       $unwind$_wrap_operands_array___getitem__$catch$3 0000000180036b94     ua.obj
 0002:0000fb94       $unwind$_wrap_operands_array___getitem__$catch$6 0000000180036b94     ua.obj
 0002:0000fb94       $unwind$_wrap_operands_array___getitem__$catch$4 0000000180036b94     ua.obj
 0002:0000fba4       $unwind$_wrap_operands_array___setitem__ 0000000180036ba4     ua.obj
 0002:0000fbcc       $tryMap$_wrap_operands_array___setitem__ 0000000180036bcc     ua.obj
 0002:0000fbf4       $handlerMap$0$_wrap_operands_array___setitem__ 0000000180036bf4     ua.obj
 0002:0000fc08       $handlerMap$1$_wrap_operands_array___setitem__ 0000000180036c08     ua.obj
 0002:0000fc80       $ip2state$_wrap_operands_array___setitem__ 0000000180036c80     ua.obj
 0002:0000fcc0       $unwind$_wrap_operands_array___setitem__$catch$0 0000000180036cc0     ua.obj
 0002:0000fcd4       $unwind$_wrap_operands_array___setitem__$catch$1 0000000180036cd4     ua.obj
 0002:0000fcd4       $unwind$_wrap_operands_array___setitem__$catch$2 0000000180036cd4     ua.obj
 0002:0000fcd4       $unwind$_wrap_operands_array___setitem__$catch$3 0000000180036cd4     ua.obj
 0002:0000fcd4       $unwind$_wrap_operands_array___setitem__$catch$4 0000000180036cd4     ua.obj
 0002:0000fcd4       $unwind$_wrap_operands_array___setitem__$catch$5 0000000180036cd4     ua.obj
 0002:0000fcd4       $unwind$_wrap_operands_array___setitem__$catch$6 0000000180036cd4     ua.obj
 0002:0000fce4       $unwind$_wrap_delete_operands_array 0000000180036ce4     ua.obj
 0002:0000fd00       $tryMap$_wrap_delete_operands_array 0000000180036d00     ua.obj
 0002:0000fd14       $handlerMap$0$_wrap_delete_operands_array 0000000180036d14     ua.obj
 0002:0000fd90       $ip2state$_wrap_delete_operands_array 0000000180036d90     ua.obj
 0002:0000fdb0       $unwind$_wrap_delete_operands_array$catch$5 0000000180036db0     ua.obj
 0002:0000fdb0       $unwind$_wrap_delete_operands_array$catch$4 0000000180036db0     ua.obj
 0002:0000fdb0       $unwind$_wrap_delete_operands_array$catch$2 0000000180036db0     ua.obj
 0002:0000fdb0       $unwind$_wrap_delete_operands_array$catch$1 0000000180036db0     ua.obj
 0002:0000fdb0       $unwind$_wrap_delete_operands_array$catch$3 0000000180036db0     ua.obj
 0002:0000fdb0       $unwind$_wrap_delete_operands_array$catch$0 0000000180036db0     ua.obj
 0002:0000fdc0       $unwind$operands_array_swigregister 0000000180036dc0     ua.obj
 0002:0000fdc0       $unwind$outctx_t_swigregister 0000000180036dc0     ua.obj
 0002:0000fdc0       $unwind$insn_t_swigregister 0000000180036dc0     ua.obj
 0002:0000fdc0       $unwind$op_t_swigregister  0000000180036dc0     ua.obj
 0002:0000fdc0       $unwind$outctx_base_t_swigregister 0000000180036dc0     ua.obj
 0002:0000fdc8       $unwind$_wrap_op_t_offo_set 0000000180036dc8     ua.obj
 0002:0000fdc8       $unwind$_wrap_op_t_type_set 0000000180036dc8     ua.obj
 0002:0000fdc8       $unwind$_wrap_op_t_n_set   0000000180036dc8     ua.obj
 0002:0000fdc8       $unwind$_wrap_op_t_flags_set 0000000180036dc8     ua.obj
 0002:0000fdc8       $unwind$_wrap_insn_t_flags_set 0000000180036dc8     ua.obj
 0002:0000fdc8       $unwind$_wrap_op_t_offb_set 0000000180036dc8     ua.obj
 0002:0000fdc8       $unwind$_wrap_insn_t_size_set 0000000180036dc8     ua.obj
 0002:0000fdc8       $unwind$_wrap_op_t_specflag1_set 0000000180036dc8     ua.obj
 0002:0000fdc8       $unwind$_wrap_op_t_dtype_set 0000000180036dc8     ua.obj
 0002:0000fdc8       $unwind$_wrap_insn_t_itype_set 0000000180036dc8     ua.obj
 0002:0000fdc8       $unwind$_wrap_op_t_specflag3_set 0000000180036dc8     ua.obj
 0002:0000fdc8       $unwind$_wrap_op_t_specflag2_set 0000000180036dc8     ua.obj
 0002:0000fdc8       $unwind$_wrap_op_t_specflag4_set 0000000180036dc8     ua.obj
 0002:0000fddc       $chain$0$_wrap_op_t_n_set  0000000180036ddc     ua.obj
 0002:0000fdf0       $chain$1$_wrap_op_t_n_set  0000000180036df0     ua.obj
 0002:0000fe00       $chain$0$_wrap_op_t_n_get  0000000180036e00     ua.obj
 0002:0000fe14       $chain$1$_wrap_op_t_n_get  0000000180036e14     ua.obj
 0002:0000fe24       $chain$0$_wrap_op_t_type_set 0000000180036e24     ua.obj
 0002:0000fe38       $chain$1$_wrap_op_t_type_set 0000000180036e38     ua.obj
 0002:0000fe48       $chain$0$_wrap_op_t_type_get 0000000180036e48     ua.obj
 0002:0000fe5c       $chain$1$_wrap_op_t_type_get 0000000180036e5c     ua.obj
 0002:0000fe6c       $chain$0$_wrap_op_t_offb_set 0000000180036e6c     ua.obj
 0002:0000fe80       $chain$1$_wrap_op_t_offb_set 0000000180036e80     ua.obj
 0002:0000fe90       $chain$0$_wrap_op_t_offb_get 0000000180036e90     ua.obj
 0002:0000fea4       $chain$1$_wrap_op_t_offb_get 0000000180036ea4     ua.obj
 0002:0000feb4       $chain$0$_wrap_op_t_offo_set 0000000180036eb4     ua.obj
 0002:0000fec8       $chain$1$_wrap_op_t_offo_set 0000000180036ec8     ua.obj
 0002:0000fed8       $chain$0$_wrap_op_t_offo_get 0000000180036ed8     ua.obj
 0002:0000feec       $chain$1$_wrap_op_t_offo_get 0000000180036eec     ua.obj
 0002:0000fefc       $chain$0$_wrap_op_t_flags_set 0000000180036efc     ua.obj
 0002:0000ff10       $chain$1$_wrap_op_t_flags_set 0000000180036f10     ua.obj
 0002:0000ff20       $chain$0$_wrap_op_t_flags_get 0000000180036f20     ua.obj
 0002:0000ff34       $chain$1$_wrap_op_t_flags_get 0000000180036f34     ua.obj
 0002:0000ff44       $unwind$_wrap_op_t_set_shown 0000000180036f44     ua.obj
 0002:0000ff60       $tryMap$_wrap_op_t_set_shown 0000000180036f60     ua.obj
 0002:0000ff74       $handlerMap$0$_wrap_op_t_set_shown 0000000180036f74     ua.obj
 0002:0000fff0       $ip2state$_wrap_op_t_set_shown 0000000180036ff0     ua.obj
 0002:00010010       $unwind$_wrap_op_t_set_shown$catch$1 0000000180037010     ua.obj
 0002:00010010       $unwind$_wrap_op_t_set_shown$catch$2 0000000180037010     ua.obj
 0002:00010010       $unwind$_wrap_op_t_set_shown$catch$5 0000000180037010     ua.obj
 0002:00010010       $unwind$_wrap_op_t_set_shown$catch$3 0000000180037010     ua.obj
 0002:00010010       $unwind$_wrap_op_t_set_shown$catch$4 0000000180037010     ua.obj
 0002:00010010       $unwind$_wrap_op_t_set_shown$catch$0 0000000180037010     ua.obj
 0002:00010020       $unwind$_wrap_op_t_clr_shown 0000000180037020     ua.obj
 0002:0001003c       $tryMap$_wrap_op_t_clr_shown 000000018003703c     ua.obj
 0002:00010050       $handlerMap$0$_wrap_op_t_clr_shown 0000000180037050     ua.obj
 0002:000100c8       $ip2state$_wrap_op_t_clr_shown 00000001800370c8     ua.obj
 0002:000100e8       $unwind$_wrap_op_t_clr_shown$catch$0 00000001800370e8     ua.obj
 0002:000100e8       $unwind$_wrap_op_t_clr_shown$catch$3 00000001800370e8     ua.obj
 0002:000100e8       $unwind$_wrap_op_t_clr_shown$catch$1 00000001800370e8     ua.obj
 0002:000100e8       $unwind$_wrap_op_t_clr_shown$catch$5 00000001800370e8     ua.obj
 0002:000100e8       $unwind$_wrap_op_t_clr_shown$catch$4 00000001800370e8     ua.obj
 0002:000100e8       $unwind$_wrap_op_t_clr_shown$catch$2 00000001800370e8     ua.obj
 0002:000100f8       $unwind$_wrap_op_t_shown   00000001800370f8     ua.obj
 0002:00010114       $tryMap$_wrap_op_t_shown   0000000180037114     ua.obj
 0002:00010128       $handlerMap$0$_wrap_op_t_shown 0000000180037128     ua.obj
 0002:000101a0       $ip2state$_wrap_op_t_shown 00000001800371a0     ua.obj
 0002:000101c0       $unwind$_wrap_op_t_shown$catch$2 00000001800371c0     ua.obj
 0002:000101c0       $unwind$_wrap_op_t_shown$catch$1 00000001800371c0     ua.obj
 0002:000101c0       $unwind$_wrap_op_t_shown$catch$0 00000001800371c0     ua.obj
 0002:000101c0       $unwind$_wrap_op_t_shown$catch$3 00000001800371c0     ua.obj
 0002:000101c0       $unwind$_wrap_op_t_shown$catch$5 00000001800371c0     ua.obj
 0002:000101c0       $unwind$_wrap_op_t_shown$catch$4 00000001800371c0     ua.obj
 0002:000101d0       $chain$0$_wrap_op_t_dtype_set 00000001800371d0     ua.obj
 0002:000101e4       $chain$1$_wrap_op_t_dtype_set 00000001800371e4     ua.obj
 0002:000101f4       $chain$0$_wrap_op_t_dtype_get 00000001800371f4     ua.obj
 0002:00010208       $chain$1$_wrap_op_t_dtype_get 0000000180037208     ua.obj
 0002:00010218       $unwind$_wrap_op_t_is_reg  0000000180037218     ua.obj
 0002:00010238       $tryMap$_wrap_op_t_is_reg  0000000180037238     ua.obj
 0002:0001024c       $handlerMap$0$_wrap_op_t_is_reg 000000018003724c     ua.obj
 0002:000102c8       $ip2state$_wrap_op_t_is_reg 00000001800372c8     ua.obj
 0002:000102e8       $unwind$_wrap_op_t_is_reg$catch$1 00000001800372e8     ua.obj
 0002:000102e8       $unwind$_wrap_op_t_is_reg$catch$5 00000001800372e8     ua.obj
 0002:000102e8       $unwind$_wrap_op_t_is_reg$catch$0 00000001800372e8     ua.obj
 0002:000102e8       $unwind$_wrap_op_t_is_reg$catch$2 00000001800372e8     ua.obj
 0002:000102e8       $unwind$_wrap_op_t_is_reg$catch$4 00000001800372e8     ua.obj
 0002:000102e8       $unwind$_wrap_op_t_is_reg$catch$3 00000001800372e8     ua.obj
 0002:000102f8       $unwind$_wrap_op_t_is_imm  00000001800372f8     ua.obj
 0002:00010318       $tryMap$_wrap_op_t_is_imm  0000000180037318     ua.obj
 0002:0001032c       $handlerMap$0$_wrap_op_t_is_imm 000000018003732c     ua.obj
 0002:000103a8       $ip2state$_wrap_op_t_is_imm 00000001800373a8     ua.obj
 0002:000103c8       $unwind$_wrap_op_t_is_imm$catch$1 00000001800373c8     ua.obj
 0002:000103c8       $unwind$_wrap_op_t_is_imm$catch$5 00000001800373c8     ua.obj
 0002:000103c8       $unwind$_wrap_op_t_is_imm$catch$3 00000001800373c8     ua.obj
 0002:000103c8       $unwind$_wrap_op_t_is_imm$catch$2 00000001800373c8     ua.obj
 0002:000103c8       $unwind$_wrap_op_t_is_imm$catch$4 00000001800373c8     ua.obj
 0002:000103c8       $unwind$_wrap_op_t_is_imm$catch$0 00000001800373c8     ua.obj
 0002:000103d8       $chain$0$_wrap_op_t_specflag1_set 00000001800373d8     ua.obj
 0002:000103ec       $chain$1$_wrap_op_t_specflag1_set 00000001800373ec     ua.obj
 0002:000103fc       $chain$0$_wrap_op_t_specflag1_get 00000001800373fc     ua.obj
 0002:00010410       $chain$1$_wrap_op_t_specflag1_get 0000000180037410     ua.obj
 0002:00010420       $chain$0$_wrap_op_t_specflag2_set 0000000180037420     ua.obj
 0002:00010434       $chain$1$_wrap_op_t_specflag2_set 0000000180037434     ua.obj
 0002:00010444       $chain$0$_wrap_op_t_specflag2_get 0000000180037444     ua.obj
 0002:00010458       $chain$1$_wrap_op_t_specflag2_get 0000000180037458     ua.obj
 0002:00010468       $chain$0$_wrap_op_t_specflag3_set 0000000180037468     ua.obj
 0002:0001047c       $chain$1$_wrap_op_t_specflag3_set 000000018003747c     ua.obj
 0002:0001048c       $chain$0$_wrap_op_t_specflag3_get 000000018003748c     ua.obj
 0002:000104a0       $chain$1$_wrap_op_t_specflag3_get 00000001800374a0     ua.obj
 0002:000104b0       $chain$0$_wrap_op_t_specflag4_set 00000001800374b0     ua.obj
 0002:000104c4       $chain$1$_wrap_op_t_specflag4_set 00000001800374c4     ua.obj
 0002:000104d4       $chain$0$_wrap_op_t_specflag4_get 00000001800374d4     ua.obj
 0002:000104e8       $chain$1$_wrap_op_t_specflag4_get 00000001800374e8     ua.obj
 0002:000104f8       $unwind$_wrap_op_t___get_reg_phrase__ 00000001800374f8     ua.obj
 0002:00010514       $tryMap$_wrap_op_t___get_reg_phrase__ 0000000180037514     ua.obj
 0002:00010528       $handlerMap$0$_wrap_op_t___get_reg_phrase__ 0000000180037528     ua.obj
 0002:000105a0       $ip2state$_wrap_op_t___get_reg_phrase__ 00000001800375a0     ua.obj
 0002:000105c0       $unwind$_wrap_op_t___get_reg_phrase__$catch$5 00000001800375c0     ua.obj
 0002:000105c0       $unwind$_wrap_op_t___get_reg_phrase__$catch$1 00000001800375c0     ua.obj
 0002:000105c0       $unwind$_wrap_op_t___get_reg_phrase__$catch$2 00000001800375c0     ua.obj
 0002:000105c0       $unwind$_wrap_op_t___get_reg_phrase__$catch$0 00000001800375c0     ua.obj
 0002:000105c0       $unwind$_wrap_op_t___get_reg_phrase__$catch$4 00000001800375c0     ua.obj
 0002:000105c0       $unwind$_wrap_op_t___get_reg_phrase__$catch$3 00000001800375c0     ua.obj
 0002:000105d0       $unwind$_wrap_op_t___set_reg_phrase__ 00000001800375d0     ua.obj
 0002:000105f0       $tryMap$_wrap_op_t___set_reg_phrase__ 00000001800375f0     ua.obj
 0002:00010604       $handlerMap$0$_wrap_op_t___set_reg_phrase__ 0000000180037604     ua.obj
 0002:00010680       $ip2state$_wrap_op_t___set_reg_phrase__ 0000000180037680     ua.obj
 0002:000106a0       $unwind$_wrap_op_t___set_reg_phrase__$catch$4 00000001800376a0     ua.obj
 0002:000106a0       $unwind$_wrap_op_t___set_reg_phrase__$catch$1 00000001800376a0     ua.obj
 0002:000106a0       $unwind$_wrap_op_t___set_reg_phrase__$catch$5 00000001800376a0     ua.obj
 0002:000106a0       $unwind$_wrap_op_t___set_reg_phrase__$catch$0 00000001800376a0     ua.obj
 0002:000106a0       $unwind$_wrap_op_t___set_reg_phrase__$catch$2 00000001800376a0     ua.obj
 0002:000106a0       $unwind$_wrap_op_t___set_reg_phrase__$catch$3 00000001800376a0     ua.obj
 0002:000106b0       $unwind$_wrap_op_t___get_value__ 00000001800376b0     ua.obj
 0002:000106cc       $tryMap$_wrap_op_t___get_value__ 00000001800376cc     ua.obj
 0002:000106e0       $handlerMap$0$_wrap_op_t___get_value__ 00000001800376e0     ua.obj
 0002:00010758       $ip2state$_wrap_op_t___get_value__ 0000000180037758     ua.obj
 0002:00010778       $unwind$_wrap_op_t___get_value__$catch$2 0000000180037778     ua.obj
 0002:00010778       $unwind$_wrap_op_t___get_value__$catch$3 0000000180037778     ua.obj
 0002:00010778       $unwind$_wrap_op_t___get_value__$catch$1 0000000180037778     ua.obj
 0002:00010778       $unwind$_wrap_op_t___get_value__$catch$0 0000000180037778     ua.obj
 0002:00010778       $unwind$_wrap_op_t___get_value__$catch$4 0000000180037778     ua.obj
 0002:00010778       $unwind$_wrap_op_t___get_value__$catch$5 0000000180037778     ua.obj
 0002:00010788       $unwind$_wrap_op_t___set_value__ 0000000180037788     ua.obj
 0002:000107a4       $tryMap$_wrap_op_t___set_value__ 00000001800377a4     ua.obj
 0002:000107b8       $handlerMap$0$_wrap_op_t___set_value__ 00000001800377b8     ua.obj
 0002:00010830       $ip2state$_wrap_op_t___set_value__ 0000000180037830     ua.obj
 0002:00010850       $unwind$_wrap_op_t___set_value__$catch$2 0000000180037850     ua.obj
 0002:00010850       $unwind$_wrap_op_t___set_value__$catch$4 0000000180037850     ua.obj
 0002:00010850       $unwind$_wrap_op_t___set_value__$catch$1 0000000180037850     ua.obj
 0002:00010850       $unwind$_wrap_op_t___set_value__$catch$5 0000000180037850     ua.obj
 0002:00010850       $unwind$_wrap_op_t___set_value__$catch$0 0000000180037850     ua.obj
 0002:00010850       $unwind$_wrap_op_t___set_value__$catch$3 0000000180037850     ua.obj
 0002:00010860       $unwind$_wrap_op_t___get_addr__ 0000000180037860     ua.obj
 0002:0001087c       $tryMap$_wrap_op_t___get_addr__ 000000018003787c     ua.obj
 0002:00010890       $handlerMap$0$_wrap_op_t___get_addr__ 0000000180037890     ua.obj
 0002:00010908       $ip2state$_wrap_op_t___get_addr__ 0000000180037908     ua.obj
 0002:00010928       $unwind$_wrap_op_t___get_addr__$catch$3 0000000180037928     ua.obj
 0002:00010928       $unwind$_wrap_op_t___get_addr__$catch$5 0000000180037928     ua.obj
 0002:00010928       $unwind$_wrap_op_t___get_addr__$catch$0 0000000180037928     ua.obj
 0002:00010928       $unwind$_wrap_op_t___get_addr__$catch$1 0000000180037928     ua.obj
 0002:00010928       $unwind$_wrap_op_t___get_addr__$catch$4 0000000180037928     ua.obj
 0002:00010928       $unwind$_wrap_op_t___get_addr__$catch$2 0000000180037928     ua.obj
 0002:00010938       $unwind$_wrap_op_t___set_addr__ 0000000180037938     ua.obj
 0002:00010954       $tryMap$_wrap_op_t___set_addr__ 0000000180037954     ua.obj
 0002:00010968       $handlerMap$0$_wrap_op_t___set_addr__ 0000000180037968     ua.obj
 0002:000109e0       $ip2state$_wrap_op_t___set_addr__ 00000001800379e0     ua.obj
 0002:00010a00       $unwind$_wrap_op_t___set_addr__$catch$5 0000000180037a00     ua.obj
 0002:00010a00       $unwind$_wrap_op_t___set_addr__$catch$2 0000000180037a00     ua.obj
 0002:00010a00       $unwind$_wrap_op_t___set_addr__$catch$4 0000000180037a00     ua.obj
 0002:00010a00       $unwind$_wrap_op_t___set_addr__$catch$0 0000000180037a00     ua.obj
 0002:00010a00       $unwind$_wrap_op_t___set_addr__$catch$1 0000000180037a00     ua.obj
 0002:00010a00       $unwind$_wrap_op_t___set_addr__$catch$3 0000000180037a00     ua.obj
 0002:00010a10       $unwind$_wrap_op_t___get_specval__ 0000000180037a10     ua.obj
 0002:00010a2c       $tryMap$_wrap_op_t___get_specval__ 0000000180037a2c     ua.obj
 0002:00010a40       $handlerMap$0$_wrap_op_t___get_specval__ 0000000180037a40     ua.obj
 0002:00010ab8       $ip2state$_wrap_op_t___get_specval__ 0000000180037ab8     ua.obj
 0002:00010ad8       $unwind$_wrap_op_t___get_specval__$catch$3 0000000180037ad8     ua.obj
 0002:00010ad8       $unwind$_wrap_op_t___get_specval__$catch$4 0000000180037ad8     ua.obj
 0002:00010ad8       $unwind$_wrap_op_t___get_specval__$catch$1 0000000180037ad8     ua.obj
 0002:00010ad8       $unwind$_wrap_op_t___get_specval__$catch$5 0000000180037ad8     ua.obj
 0002:00010ad8       $unwind$_wrap_op_t___get_specval__$catch$2 0000000180037ad8     ua.obj
 0002:00010ad8       $unwind$_wrap_op_t___get_specval__$catch$0 0000000180037ad8     ua.obj
 0002:00010ae8       $unwind$_wrap_op_t___set_specval__ 0000000180037ae8     ua.obj
 0002:00010b04       $tryMap$_wrap_op_t___set_specval__ 0000000180037b04     ua.obj
 0002:00010b18       $handlerMap$0$_wrap_op_t___set_specval__ 0000000180037b18     ua.obj
 0002:00010b90       $ip2state$_wrap_op_t___set_specval__ 0000000180037b90     ua.obj
 0002:00010bb0       $unwind$_wrap_op_t___set_specval__$catch$3 0000000180037bb0     ua.obj
 0002:00010bb0       $unwind$_wrap_op_t___set_specval__$catch$1 0000000180037bb0     ua.obj
 0002:00010bb0       $unwind$_wrap_op_t___set_specval__$catch$0 0000000180037bb0     ua.obj
 0002:00010bb0       $unwind$_wrap_op_t___set_specval__$catch$4 0000000180037bb0     ua.obj
 0002:00010bb0       $unwind$_wrap_op_t___set_specval__$catch$5 0000000180037bb0     ua.obj
 0002:00010bb0       $unwind$_wrap_op_t___set_specval__$catch$2 0000000180037bb0     ua.obj
 0002:00010bc0       $unwind$_wrap_op_t_assign  0000000180037bc0     ua.obj
 0002:00010be0       $tryMap$_wrap_op_t_assign  0000000180037be0     ua.obj
 0002:00010bf4       $handlerMap$0$_wrap_op_t_assign 0000000180037bf4     ua.obj
 0002:00010c70       $ip2state$_wrap_op_t_assign 0000000180037c70     ua.obj
 0002:00010c98       $unwind$_wrap_op_t_assign$catch$4 0000000180037c98     ua.obj
 0002:00010c98       $unwind$_wrap_op_t_assign$catch$5 0000000180037c98     ua.obj
 0002:00010c98       $unwind$_wrap_op_t_assign$catch$0 0000000180037c98     ua.obj
 0002:00010c98       $unwind$_wrap_op_t_assign$catch$1 0000000180037c98     ua.obj
 0002:00010c98       $unwind$_wrap_op_t_assign$catch$3 0000000180037c98     ua.obj
 0002:00010c98       $unwind$_wrap_op_t_assign$catch$2 0000000180037c98     ua.obj
 0002:00010ca8       $unwind$_wrap_new_op_t     0000000180037ca8     ua.obj
 0002:00010cb8       $tryMap$_wrap_new_op_t     0000000180037cb8     ua.obj
 0002:00010ccc       $handlerMap$0$_wrap_new_op_t 0000000180037ccc     ua.obj
 0002:00010d48       $ip2state$_wrap_new_op_t   0000000180037d48     ua.obj
 0002:00010d68       $unwind$_wrap_new_op_t$catch$0 0000000180037d68     ua.obj
 0002:00010d68       $unwind$_wrap_new_op_t$catch$4 0000000180037d68     ua.obj
 0002:00010d68       $unwind$_wrap_new_op_t$catch$2 0000000180037d68     ua.obj
 0002:00010d68       $unwind$_wrap_new_op_t$catch$5 0000000180037d68     ua.obj
 0002:00010d68       $unwind$_wrap_new_op_t$catch$3 0000000180037d68     ua.obj
 0002:00010d68       $unwind$_wrap_new_op_t$catch$1 0000000180037d68     ua.obj
 0002:00010d78       $unwind$_wrap_delete_op_t  0000000180037d78     ua.obj
 0002:00010d94       $tryMap$_wrap_delete_op_t  0000000180037d94     ua.obj
 0002:00010da8       $handlerMap$0$_wrap_delete_op_t 0000000180037da8     ua.obj
 0002:00010e20       $ip2state$_wrap_delete_op_t 0000000180037e20     ua.obj
 0002:00010e40       $unwind$_wrap_delete_op_t$catch$5 0000000180037e40     ua.obj
 0002:00010e40       $unwind$_wrap_delete_op_t$catch$2 0000000180037e40     ua.obj
 0002:00010e40       $unwind$_wrap_delete_op_t$catch$4 0000000180037e40     ua.obj
 0002:00010e40       $unwind$_wrap_delete_op_t$catch$0 0000000180037e40     ua.obj
 0002:00010e40       $unwind$_wrap_delete_op_t$catch$3 0000000180037e40     ua.obj
 0002:00010e40       $unwind$_wrap_delete_op_t$catch$1 0000000180037e40     ua.obj
 0002:00010e50       $unwind$_wrap_insn_add_cref 0000000180037e50     ua.obj
 0002:00010e74       $tryMap$_wrap_insn_add_cref 0000000180037e74     ua.obj
 0002:00010e88       $handlerMap$0$_wrap_insn_add_cref 0000000180037e88     ua.obj
 0002:00010f00       $ip2state$_wrap_insn_add_cref 0000000180037f00     ua.obj
 0002:00010f20       $unwind$_wrap_insn_add_cref$catch$2 0000000180037f20     ua.obj
 0002:00010f20       $unwind$_wrap_insn_add_cref$catch$5 0000000180037f20     ua.obj
 0002:00010f20       $unwind$_wrap_insn_add_cref$catch$3 0000000180037f20     ua.obj
 0002:00010f20       $unwind$_wrap_insn_add_cref$catch$4 0000000180037f20     ua.obj
 0002:00010f20       $unwind$_wrap_insn_add_cref$catch$1 0000000180037f20     ua.obj
 0002:00010f20       $unwind$_wrap_insn_add_cref$catch$0 0000000180037f20     ua.obj
 0002:00010f30       $unwind$_wrap_insn_add_dref 0000000180037f30     ua.obj
 0002:00010f54       $tryMap$_wrap_insn_add_dref 0000000180037f54     ua.obj
 0002:00010f68       $handlerMap$0$_wrap_insn_add_dref 0000000180037f68     ua.obj
 0002:00010fe0       $ip2state$_wrap_insn_add_dref 0000000180037fe0     ua.obj
 0002:00011000       $unwind$_wrap_insn_add_dref$catch$1 0000000180038000     ua.obj
 0002:00011000       $unwind$_wrap_insn_add_dref$catch$5 0000000180038000     ua.obj
 0002:00011000       $unwind$_wrap_insn_add_dref$catch$4 0000000180038000     ua.obj
 0002:00011000       $unwind$_wrap_insn_add_dref$catch$3 0000000180038000     ua.obj
 0002:00011000       $unwind$_wrap_insn_add_dref$catch$2 0000000180038000     ua.obj
 0002:00011000       $unwind$_wrap_insn_add_dref$catch$0 0000000180038000     ua.obj
 0002:00011010       $unwind$_wrap_insn_add_off_drefs 0000000180038010     ua.obj
 0002:00011038       $tryMap$_wrap_insn_add_off_drefs 0000000180038038     ua.obj
 0002:0001104c       $handlerMap$0$_wrap_insn_add_off_drefs 000000018003804c     ua.obj
 0002:000110c8       $ip2state$_wrap_insn_add_off_drefs 00000001800380c8     ua.obj
 0002:000110f8       $unwind$_wrap_insn_add_off_drefs$catch$1 00000001800380f8     ua.obj
 0002:000110f8       $unwind$_wrap_insn_add_off_drefs$catch$5 00000001800380f8     ua.obj
 0002:000110f8       $unwind$_wrap_insn_add_off_drefs$catch$4 00000001800380f8     ua.obj
 0002:000110f8       $unwind$_wrap_insn_add_off_drefs$catch$3 00000001800380f8     ua.obj
 0002:000110f8       $unwind$_wrap_insn_add_off_drefs$catch$2 00000001800380f8     ua.obj
 0002:000110f8       $unwind$_wrap_insn_add_off_drefs$catch$0 00000001800380f8     ua.obj
 0002:00011108       $unwind$_wrap_insn_create_stkvar 0000000180038108     ua.obj
 0002:00011130       $tryMap$_wrap_insn_create_stkvar 0000000180038130     ua.obj
 0002:00011144       $handlerMap$0$_wrap_insn_create_stkvar 0000000180038144     ua.obj
 0002:000111c0       $ip2state$_wrap_insn_create_stkvar 00000001800381c0     ua.obj
 0002:000111f0       $unwind$_wrap_insn_create_stkvar$catch$3 00000001800381f0     ua.obj
 0002:000111f0       $unwind$_wrap_insn_create_stkvar$catch$5 00000001800381f0     ua.obj
 0002:000111f0       $unwind$_wrap_insn_create_stkvar$catch$4 00000001800381f0     ua.obj
 0002:000111f0       $unwind$_wrap_insn_create_stkvar$catch$0 00000001800381f0     ua.obj
 0002:000111f0       $unwind$_wrap_insn_create_stkvar$catch$2 00000001800381f0     ua.obj
 0002:000111f0       $unwind$_wrap_insn_create_stkvar$catch$1 00000001800381f0     ua.obj
 0002:00011200       $unwind$_wrap_new_insn_t   0000000180038200     ua.obj
 0002:00011210       $tryMap$_wrap_new_insn_t   0000000180038210     ua.obj
 0002:00011224       $handlerMap$0$_wrap_new_insn_t 0000000180038224     ua.obj
 0002:000112a0       $ip2state$_wrap_new_insn_t 00000001800382a0     ua.obj
 0002:000112c0       $unwind$_wrap_new_insn_t$catch$2 00000001800382c0     ua.obj
 0002:000112c0       $unwind$_wrap_new_insn_t$catch$1 00000001800382c0     ua.obj
 0002:000112c0       $unwind$_wrap_new_insn_t$catch$3 00000001800382c0     ua.obj
 0002:000112c0       $unwind$_wrap_new_insn_t$catch$4 00000001800382c0     ua.obj
 0002:000112c0       $unwind$_wrap_new_insn_t$catch$5 00000001800382c0     ua.obj
 0002:000112c0       $unwind$_wrap_new_insn_t$catch$6 00000001800382c0     ua.obj
 0002:000112d0       $unwind$_wrap_insn_t_cs_set 00000001800382d0     ua.obj
 0002:000112d0       $unwind$_wrap_insn_t_ip_set 00000001800382d0     ua.obj
 0002:000112d0       $unwind$_wrap_insn_t_ea_set 00000001800382d0     ua.obj
 0002:000112d0       $unwind$_wrap_outctx_base_t_default_lnnum_set 00000001800382d0     ua.obj
 0002:000112d0       $unwind$_wrap_insn_t_segpref_set 00000001800382d0     ua.obj
 0002:000112d0       $unwind$_wrap_outctx_t_bin_ea_set 00000001800382d0     ua.obj
 0002:000112d0       $unwind$_wrap_outctx_t_bin_state_set 00000001800382d0     ua.obj
 0002:000112d0       $unwind$_wrap_outctx_t_gl_bpsize_set 00000001800382d0     ua.obj
 0002:000112d0       $unwind$_wrap_outctx_t_bin_width_set 00000001800382d0     ua.obj
 0002:000112d0       $unwind$_wrap_insn_t_insnpref_set 00000001800382d0     ua.obj
 0002:000112d0       $unwind$_wrap_outctx_base_t_insn_ea_set 00000001800382d0     ua.obj
 0002:000112e0       $chain$0$_wrap_insn_t_cs_set 00000001800382e0     ua.obj
 0002:000112f4       $chain$1$_wrap_insn_t_cs_set 00000001800382f4     ua.obj
 0002:00011304       $chain$0$_wrap_insn_t_cs_get 0000000180038304     ua.obj
 0002:00011318       $chain$1$_wrap_insn_t_cs_get 0000000180038318     ua.obj
 0002:00011328       $chain$0$_wrap_insn_t_ip_set 0000000180038328     ua.obj
 0002:0001133c       $chain$1$_wrap_insn_t_ip_set 000000018003833c     ua.obj
 0002:0001134c       $chain$0$_wrap_insn_t_ip_get 000000018003834c     ua.obj
 0002:00011360       $chain$1$_wrap_insn_t_ip_get 0000000180038360     ua.obj
 0002:00011370       $chain$0$_wrap_insn_t_ea_set 0000000180038370     ua.obj
 0002:00011384       $chain$1$_wrap_insn_t_ea_set 0000000180038384     ua.obj
 0002:00011394       $chain$0$_wrap_insn_t_ea_get 0000000180038394     ua.obj
 0002:000113a8       $chain$1$_wrap_insn_t_ea_get 00000001800383a8     ua.obj
 0002:000113b8       $chain$0$_wrap_insn_t_itype_set 00000001800383b8     ua.obj
 0002:000113cc       $chain$1$_wrap_insn_t_itype_set 00000001800383cc     ua.obj
 0002:000113dc       $chain$0$_wrap_insn_t_itype_get 00000001800383dc     ua.obj
 0002:000113f0       $chain$1$_wrap_insn_t_itype_get 00000001800383f0     ua.obj
 0002:00011400       $unwind$_wrap_insn_t_is_canon_insn 0000000180038400     ua.obj
 0002:00011420       $tryMap$_wrap_insn_t_is_canon_insn 0000000180038420     ua.obj
 0002:00011434       $handlerMap$0$_wrap_insn_t_is_canon_insn 0000000180038434     ua.obj
 0002:000114b0       $ip2state$_wrap_insn_t_is_canon_insn 00000001800384b0     ua.obj
 0002:000114d0       $unwind$_wrap_insn_t_is_canon_insn$catch$5 00000001800384d0     ua.obj
 0002:000114d0       $unwind$_wrap_insn_t_is_canon_insn$catch$4 00000001800384d0     ua.obj
 0002:000114d0       $unwind$_wrap_insn_t_is_canon_insn$catch$3 00000001800384d0     ua.obj
 0002:000114d0       $unwind$_wrap_insn_t_is_canon_insn$catch$0 00000001800384d0     ua.obj
 0002:000114d0       $unwind$_wrap_insn_t_is_canon_insn$catch$2 00000001800384d0     ua.obj
 0002:000114d0       $unwind$_wrap_insn_t_is_canon_insn$catch$1 00000001800384d0     ua.obj
 0002:000114e0       $unwind$_wrap_insn_t_get_canon_feature 00000001800384e0     ua.obj
 0002:00011500       $tryMap$_wrap_insn_t_get_canon_feature 0000000180038500     ua.obj
 0002:00011514       $handlerMap$0$_wrap_insn_t_get_canon_feature 0000000180038514     ua.obj
 0002:00011590       $ip2state$_wrap_insn_t_get_canon_feature 0000000180038590     ua.obj
 0002:000115b0       $unwind$_wrap_insn_t_get_canon_feature$catch$0 00000001800385b0     ua.obj
 0002:000115b0       $unwind$_wrap_insn_t_get_canon_feature$catch$2 00000001800385b0     ua.obj
 0002:000115b0       $unwind$_wrap_insn_t_get_canon_feature$catch$5 00000001800385b0     ua.obj
 0002:000115b0       $unwind$_wrap_insn_t_get_canon_feature$catch$3 00000001800385b0     ua.obj
 0002:000115b0       $unwind$_wrap_insn_t_get_canon_feature$catch$1 00000001800385b0     ua.obj
 0002:000115b0       $unwind$_wrap_insn_t_get_canon_feature$catch$4 00000001800385b0     ua.obj
 0002:000115c0       $unwind$_wrap_insn_t_get_canon_mnem 00000001800385c0     ua.obj
 0002:000115e0       $tryMap$_wrap_insn_t_get_canon_mnem 00000001800385e0     ua.obj
 0002:000115f4       $handlerMap$0$_wrap_insn_t_get_canon_mnem 00000001800385f4     ua.obj
 0002:00011670       $ip2state$_wrap_insn_t_get_canon_mnem 0000000180038670     ua.obj
 0002:00011690       $unwind$_wrap_insn_t_get_canon_mnem$catch$4 0000000180038690     ua.obj
 0002:00011690       $unwind$_wrap_insn_t_get_canon_mnem$catch$0 0000000180038690     ua.obj
 0002:00011690       $unwind$_wrap_insn_t_get_canon_mnem$catch$3 0000000180038690     ua.obj
 0002:00011690       $unwind$_wrap_insn_t_get_canon_mnem$catch$2 0000000180038690     ua.obj
 0002:00011690       $unwind$_wrap_insn_t_get_canon_mnem$catch$5 0000000180038690     ua.obj
 0002:00011690       $unwind$_wrap_insn_t_get_canon_mnem$catch$1 0000000180038690     ua.obj
 0002:000116a0       $chain$0$_wrap_insn_t_size_set 00000001800386a0     ua.obj
 0002:000116b4       $chain$1$_wrap_insn_t_size_set 00000001800386b4     ua.obj
 0002:000116c4       $chain$0$_wrap_insn_t_size_get 00000001800386c4     ua.obj
 0002:000116d8       $chain$1$_wrap_insn_t_size_get 00000001800386d8     ua.obj
 0002:000116e8       $chain$0$_wrap_insn_t_segpref_set 00000001800386e8     ua.obj
 0002:000116fc       $chain$1$_wrap_insn_t_segpref_set 00000001800386fc     ua.obj
 0002:0001170c       $chain$0$_wrap_insn_t_segpref_get 000000018003870c     ua.obj
 0002:00011720       $chain$1$_wrap_insn_t_segpref_get 0000000180038720     ua.obj
 0002:00011730       $chain$0$_wrap_insn_t_insnpref_set 0000000180038730     ua.obj
 0002:00011744       $chain$1$_wrap_insn_t_insnpref_set 0000000180038744     ua.obj
 0002:00011754       $chain$0$_wrap_insn_t_insnpref_get 0000000180038754     ua.obj
 0002:00011768       $chain$1$_wrap_insn_t_insnpref_get 0000000180038768     ua.obj
 0002:00011778       $chain$0$_wrap_insn_t_flags_set 0000000180038778     ua.obj
 0002:0001178c       $chain$1$_wrap_insn_t_flags_set 000000018003878c     ua.obj
 0002:0001179c       $chain$0$_wrap_insn_t_flags_get 000000018003879c     ua.obj
 0002:000117b0       $chain$1$_wrap_insn_t_flags_get 00000001800387b0     ua.obj
 0002:000117c0       $unwind$_wrap_insn_t_ops_set 00000001800387c0     ua.obj
 0002:000117c0       $unwind$_wrap_outctx_t_wif_set 00000001800387c0     ua.obj
 0002:000117d8       $chain$0$_wrap_insn_t_ops_get 00000001800387d8     ua.obj
 0002:000117ec       $chain$1$_wrap_insn_t_ops_get 00000001800387ec     ua.obj
 0002:000117fc       $unwind$_wrap_insn_t_is_macro 00000001800387fc     ua.obj
 0002:00011818       $tryMap$_wrap_insn_t_is_macro 0000000180038818     ua.obj
 0002:0001182c       $handlerMap$0$_wrap_insn_t_is_macro 000000018003882c     ua.obj
 0002:000118a8       $ip2state$_wrap_insn_t_is_macro 00000001800388a8     ua.obj
 0002:000118c8       $unwind$_wrap_insn_t_is_macro$catch$2 00000001800388c8     ua.obj
 0002:000118c8       $unwind$_wrap_insn_t_is_macro$catch$3 00000001800388c8     ua.obj
 0002:000118c8       $unwind$_wrap_insn_t_is_macro$catch$4 00000001800388c8     ua.obj
 0002:000118c8       $unwind$_wrap_insn_t_is_macro$catch$5 00000001800388c8     ua.obj
 0002:000118c8       $unwind$_wrap_insn_t_is_macro$catch$1 00000001800388c8     ua.obj
 0002:000118c8       $unwind$_wrap_insn_t_is_macro$catch$0 00000001800388c8     ua.obj
 0002:000118d8       $unwind$_wrap_insn_t_is_64bit 00000001800388d8     ua.obj
 0002:000118f4       $tryMap$_wrap_insn_t_is_64bit 00000001800388f4     ua.obj
 0002:00011908       $handlerMap$0$_wrap_insn_t_is_64bit 0000000180038908     ua.obj
 0002:00011980       $ip2state$_wrap_insn_t_is_64bit 0000000180038980     ua.obj
 0002:000119a0       $unwind$_wrap_insn_t_is_64bit$catch$4 00000001800389a0     ua.obj
 0002:000119a0       $unwind$_wrap_insn_t_is_64bit$catch$1 00000001800389a0     ua.obj
 0002:000119a0       $unwind$_wrap_insn_t_is_64bit$catch$5 00000001800389a0     ua.obj
 0002:000119a0       $unwind$_wrap_insn_t_is_64bit$catch$0 00000001800389a0     ua.obj
 0002:000119a0       $unwind$_wrap_insn_t_is_64bit$catch$2 00000001800389a0     ua.obj
 0002:000119a0       $unwind$_wrap_insn_t_is_64bit$catch$3 00000001800389a0     ua.obj
 0002:000119b0       $unwind$_wrap_insn_t_get_next_byte 00000001800389b0     ua.obj
 0002:000119cc       $tryMap$_wrap_insn_t_get_next_byte 00000001800389cc     ua.obj
 0002:000119e0       $handlerMap$0$_wrap_insn_t_get_next_byte 00000001800389e0     ua.obj
 0002:00011a58       $ip2state$_wrap_insn_t_get_next_byte 0000000180038a58     ua.obj
 0002:00011a78       $unwind$_wrap_insn_t_get_next_byte$catch$1 0000000180038a78     ua.obj
 0002:00011a78       $unwind$_wrap_insn_t_get_next_byte$catch$0 0000000180038a78     ua.obj
 0002:00011a78       $unwind$_wrap_insn_t_get_next_byte$catch$5 0000000180038a78     ua.obj
 0002:00011a78       $unwind$_wrap_insn_t_get_next_byte$catch$2 0000000180038a78     ua.obj
 0002:00011a78       $unwind$_wrap_insn_t_get_next_byte$catch$4 0000000180038a78     ua.obj
 0002:00011a78       $unwind$_wrap_insn_t_get_next_byte$catch$3 0000000180038a78     ua.obj
 0002:00011a88       $unwind$_wrap_insn_t_get_next_word 0000000180038a88     ua.obj
 0002:00011aa4       $tryMap$_wrap_insn_t_get_next_word 0000000180038aa4     ua.obj
 0002:00011ab8       $handlerMap$0$_wrap_insn_t_get_next_word 0000000180038ab8     ua.obj
 0002:00011b30       $ip2state$_wrap_insn_t_get_next_word 0000000180038b30     ua.obj
 0002:00011b50       $unwind$_wrap_insn_t_get_next_word$catch$5 0000000180038b50     ua.obj
 0002:00011b50       $unwind$_wrap_insn_t_get_next_word$catch$3 0000000180038b50     ua.obj
 0002:00011b50       $unwind$_wrap_insn_t_get_next_word$catch$4 0000000180038b50     ua.obj
 0002:00011b50       $unwind$_wrap_insn_t_get_next_word$catch$0 0000000180038b50     ua.obj
 0002:00011b50       $unwind$_wrap_insn_t_get_next_word$catch$1 0000000180038b50     ua.obj
 0002:00011b50       $unwind$_wrap_insn_t_get_next_word$catch$2 0000000180038b50     ua.obj
 0002:00011b60       $unwind$_wrap_insn_t_get_next_dword 0000000180038b60     ua.obj
 0002:00011b7c       $tryMap$_wrap_insn_t_get_next_dword 0000000180038b7c     ua.obj
 0002:00011b90       $handlerMap$0$_wrap_insn_t_get_next_dword 0000000180038b90     ua.obj
 0002:00011c08       $ip2state$_wrap_insn_t_get_next_dword 0000000180038c08     ua.obj
 0002:00011c28       $unwind$_wrap_insn_t_get_next_dword$catch$5 0000000180038c28     ua.obj
 0002:00011c28       $unwind$_wrap_insn_t_get_next_dword$catch$4 0000000180038c28     ua.obj
 0002:00011c28       $unwind$_wrap_insn_t_get_next_dword$catch$1 0000000180038c28     ua.obj
 0002:00011c28       $unwind$_wrap_insn_t_get_next_dword$catch$3 0000000180038c28     ua.obj
 0002:00011c28       $unwind$_wrap_insn_t_get_next_dword$catch$0 0000000180038c28     ua.obj
 0002:00011c28       $unwind$_wrap_insn_t_get_next_dword$catch$2 0000000180038c28     ua.obj
 0002:00011c38       $unwind$_wrap_insn_t_get_next_qword 0000000180038c38     ua.obj
 0002:00011c54       $tryMap$_wrap_insn_t_get_next_qword 0000000180038c54     ua.obj
 0002:00011c68       $handlerMap$0$_wrap_insn_t_get_next_qword 0000000180038c68     ua.obj
 0002:00011ce0       $ip2state$_wrap_insn_t_get_next_qword 0000000180038ce0     ua.obj
 0002:00011d00       $unwind$_wrap_insn_t_get_next_qword$catch$2 0000000180038d00     ua.obj
 0002:00011d00       $unwind$_wrap_insn_t_get_next_qword$catch$5 0000000180038d00     ua.obj
 0002:00011d00       $unwind$_wrap_insn_t_get_next_qword$catch$4 0000000180038d00     ua.obj
 0002:00011d00       $unwind$_wrap_insn_t_get_next_qword$catch$3 0000000180038d00     ua.obj
 0002:00011d00       $unwind$_wrap_insn_t_get_next_qword$catch$0 0000000180038d00     ua.obj
 0002:00011d00       $unwind$_wrap_insn_t_get_next_qword$catch$1 0000000180038d00     ua.obj
 0002:00011d10       $unwind$_wrap_insn_t_create_op_data__SWIG_0 0000000180038d10     ua.obj
 0002:00011d30       $tryMap$_wrap_insn_t_create_op_data__SWIG_0 0000000180038d30     ua.obj
 0002:00011d44       $handlerMap$0$_wrap_insn_t_create_op_data__SWIG_0 0000000180038d44     ua.obj
 0002:00011dc0       $ip2state$_wrap_insn_t_create_op_data__SWIG_0 0000000180038dc0     ua.obj
 0002:00011de0       $unwind$_wrap_insn_t_create_op_data__SWIG_0$catch$5 0000000180038de0     ua.obj
 0002:00011de0       $unwind$_wrap_insn_t_create_op_data__SWIG_0$catch$4 0000000180038de0     ua.obj
 0002:00011de0       $unwind$_wrap_insn_t_create_op_data__SWIG_0$catch$0 0000000180038de0     ua.obj
 0002:00011de0       $unwind$_wrap_insn_t_create_op_data__SWIG_0$catch$1 0000000180038de0     ua.obj
 0002:00011de0       $unwind$_wrap_insn_t_create_op_data__SWIG_0$catch$2 0000000180038de0     ua.obj
 0002:00011de0       $unwind$_wrap_insn_t_create_op_data__SWIG_0$catch$3 0000000180038de0     ua.obj
 0002:00011df0       $unwind$_wrap_insn_t_create_op_data__SWIG_1 0000000180038df0     ua.obj
 0002:00011e0c       $tryMap$_wrap_insn_t_create_op_data__SWIG_1 0000000180038e0c     ua.obj
 0002:00011e20       $handlerMap$0$_wrap_insn_t_create_op_data__SWIG_1 0000000180038e20     ua.obj
 0002:00011e98       $ip2state$_wrap_insn_t_create_op_data__SWIG_1 0000000180038e98     ua.obj
 0002:00011ec0       $unwind$_wrap_insn_t_create_op_data__SWIG_1$catch$0 0000000180038ec0     ua.obj
 0002:00011ec0       $unwind$_wrap_insn_t_create_op_data__SWIG_1$catch$1 0000000180038ec0     ua.obj
 0002:00011ec0       $unwind$_wrap_insn_t_create_op_data__SWIG_1$catch$5 0000000180038ec0     ua.obj
 0002:00011ec0       $unwind$_wrap_insn_t_create_op_data__SWIG_1$catch$4 0000000180038ec0     ua.obj
 0002:00011ec0       $unwind$_wrap_insn_t_create_op_data__SWIG_1$catch$3 0000000180038ec0     ua.obj
 0002:00011ec0       $unwind$_wrap_insn_t_create_op_data__SWIG_1$catch$2 0000000180038ec0     ua.obj
 0002:00011ed0       $unwind$_wrap_insn_t_create_op_data 0000000180038ed0     ua.obj
 0002:00011ef0       $unwind$_wrap_insn_t_create_stkvar 0000000180038ef0     ua.obj
 0002:00011f18       $tryMap$_wrap_insn_t_create_stkvar 0000000180038f18     ua.obj
 0002:00011f2c       $handlerMap$0$_wrap_insn_t_create_stkvar 0000000180038f2c     ua.obj
 0002:00011fa8       $ip2state$_wrap_insn_t_create_stkvar 0000000180038fa8     ua.obj
 0002:00011fd8       $unwind$_wrap_insn_t_create_stkvar$catch$0 0000000180038fd8     ua.obj
 0002:00011fd8       $unwind$_wrap_insn_t_create_stkvar$catch$4 0000000180038fd8     ua.obj
 0002:00011fd8       $unwind$_wrap_insn_t_create_stkvar$catch$5 0000000180038fd8     ua.obj
 0002:00011fd8       $unwind$_wrap_insn_t_create_stkvar$catch$1 0000000180038fd8     ua.obj
 0002:00011fd8       $unwind$_wrap_insn_t_create_stkvar$catch$3 0000000180038fd8     ua.obj
 0002:00011fd8       $unwind$_wrap_insn_t_create_stkvar$catch$2 0000000180038fd8     ua.obj
 0002:00011fe8       $unwind$_wrap_insn_t_add_cref 0000000180038fe8     ua.obj
 0002:0001200c       $tryMap$_wrap_insn_t_add_cref 000000018003900c     ua.obj
 0002:00012020       $handlerMap$0$_wrap_insn_t_add_cref 0000000180039020     ua.obj
 0002:00012098       $ip2state$_wrap_insn_t_add_cref 0000000180039098     ua.obj
 0002:000120b8       $unwind$_wrap_insn_t_add_cref$catch$3 00000001800390b8     ua.obj
 0002:000120b8       $unwind$_wrap_insn_t_add_cref$catch$0 00000001800390b8     ua.obj
 0002:000120b8       $unwind$_wrap_insn_t_add_cref$catch$5 00000001800390b8     ua.obj
 0002:000120b8       $unwind$_wrap_insn_t_add_cref$catch$4 00000001800390b8     ua.obj
 0002:000120b8       $unwind$_wrap_insn_t_add_cref$catch$1 00000001800390b8     ua.obj
 0002:000120b8       $unwind$_wrap_insn_t_add_cref$catch$2 00000001800390b8     ua.obj
 0002:000120c8       $unwind$_wrap_insn_t_add_dref 00000001800390c8     ua.obj
 0002:000120ec       $tryMap$_wrap_insn_t_add_dref 00000001800390ec     ua.obj
 0002:00012100       $handlerMap$0$_wrap_insn_t_add_dref 0000000180039100     ua.obj
 0002:00012178       $ip2state$_wrap_insn_t_add_dref 0000000180039178     ua.obj
 0002:00012198       $unwind$_wrap_insn_t_add_dref$catch$1 0000000180039198     ua.obj
 0002:00012198       $unwind$_wrap_insn_t_add_dref$catch$0 0000000180039198     ua.obj
 0002:00012198       $unwind$_wrap_insn_t_add_dref$catch$5 0000000180039198     ua.obj
 0002:00012198       $unwind$_wrap_insn_t_add_dref$catch$4 0000000180039198     ua.obj
 0002:00012198       $unwind$_wrap_insn_t_add_dref$catch$3 0000000180039198     ua.obj
 0002:00012198       $unwind$_wrap_insn_t_add_dref$catch$2 0000000180039198     ua.obj
 0002:000121a8       $unwind$_wrap_insn_t_add_off_drefs 00000001800391a8     ua.obj
 0002:000121d0       $tryMap$_wrap_insn_t_add_off_drefs 00000001800391d0     ua.obj
 0002:000121e4       $handlerMap$0$_wrap_insn_t_add_off_drefs 00000001800391e4     ua.obj
 0002:00012260       $ip2state$_wrap_insn_t_add_off_drefs 0000000180039260     ua.obj
 0002:00012290       $unwind$_wrap_insn_t_add_off_drefs$catch$0 0000000180039290     ua.obj
 0002:00012290       $unwind$_wrap_insn_t_add_off_drefs$catch$2 0000000180039290     ua.obj
 0002:00012290       $unwind$_wrap_insn_t_add_off_drefs$catch$5 0000000180039290     ua.obj
 0002:00012290       $unwind$_wrap_insn_t_add_off_drefs$catch$4 0000000180039290     ua.obj
 0002:00012290       $unwind$_wrap_insn_t_add_off_drefs$catch$3 0000000180039290     ua.obj
 0002:00012290       $unwind$_wrap_insn_t_add_off_drefs$catch$1 0000000180039290     ua.obj
 0002:000122a0       $unwind$_wrap_insn_t___get_ops__ 00000001800392a0     ua.obj
 0002:000122bc       $stateUnwindMap$_wrap_insn_t___get_ops__ 00000001800392bc     ua.obj
 0002:000122d4       $tryMap$_wrap_insn_t___get_ops__ 00000001800392d4     ua.obj
 0002:000122e8       $handlerMap$0$_wrap_insn_t___get_ops__ 00000001800392e8     ua.obj
 0002:00012360       $ip2state$_wrap_insn_t___get_ops__ 0000000180039360     ua.obj
 0002:00012390       $unwind$_wrap_insn_t___get_ops__$catch$8 0000000180039390     ua.obj
 0002:00012390       $unwind$_wrap_insn_t___get_ops__$catch$7 0000000180039390     ua.obj
 0002:00012390       $unwind$_wrap_insn_t___get_ops__$catch$9 0000000180039390     ua.obj
 0002:00012390       $unwind$_wrap_insn_t___get_ops__$catch$10 0000000180039390     ua.obj
 0002:00012390       $unwind$_wrap_insn_t___get_ops__$catch$5 0000000180039390     ua.obj
 0002:00012390       $unwind$_wrap_insn_t___get_ops__$catch$6 0000000180039390     ua.obj
 0002:000123a0       $unwind$_wrap_insn_t___get_operand__ 00000001800393a0     ua.obj
 0002:000123bc       $tryMap$_wrap_insn_t___get_operand__ 00000001800393bc     ua.obj
 0002:000123d0       $handlerMap$0$_wrap_insn_t___get_operand__ 00000001800393d0     ua.obj
 0002:00012448       $ip2state$_wrap_insn_t___get_operand__ 0000000180039448     ua.obj
 0002:00012468       $unwind$_wrap_insn_t___get_operand__$catch$1 0000000180039468     ua.obj
 0002:00012468       $unwind$_wrap_insn_t___get_operand__$catch$3 0000000180039468     ua.obj
 0002:00012468       $unwind$_wrap_insn_t___get_operand__$catch$4 0000000180039468     ua.obj
 0002:00012468       $unwind$_wrap_insn_t___get_operand__$catch$5 0000000180039468     ua.obj
 0002:00012468       $unwind$_wrap_insn_t___get_operand__$catch$2 0000000180039468     ua.obj
 0002:00012468       $unwind$_wrap_insn_t___get_operand__$catch$0 0000000180039468     ua.obj
 0002:00012478       $unwind$_wrap_insn_t___get_auxpref__ 0000000180039478     ua.obj
 0002:00012494       $tryMap$_wrap_insn_t___get_auxpref__ 0000000180039494     ua.obj
 0002:000124a8       $handlerMap$0$_wrap_insn_t___get_auxpref__ 00000001800394a8     ua.obj
 0002:00012520       $ip2state$_wrap_insn_t___get_auxpref__ 0000000180039520     ua.obj
 0002:00012540       $unwind$_wrap_insn_t___get_auxpref__$catch$1 0000000180039540     ua.obj
 0002:00012540       $unwind$_wrap_insn_t___get_auxpref__$catch$5 0000000180039540     ua.obj
 0002:00012540       $unwind$_wrap_insn_t___get_auxpref__$catch$3 0000000180039540     ua.obj
 0002:00012540       $unwind$_wrap_insn_t___get_auxpref__$catch$4 0000000180039540     ua.obj
 0002:00012540       $unwind$_wrap_insn_t___get_auxpref__$catch$0 0000000180039540     ua.obj
 0002:00012540       $unwind$_wrap_insn_t___get_auxpref__$catch$2 0000000180039540     ua.obj
 0002:00012550       $unwind$_wrap_insn_t___set_auxpref__ 0000000180039550     ua.obj
 0002:00012570       $tryMap$_wrap_insn_t___set_auxpref__ 0000000180039570     ua.obj
 0002:00012584       $handlerMap$0$_wrap_insn_t___set_auxpref__ 0000000180039584     ua.obj
 0002:00012600       $ip2state$_wrap_insn_t___set_auxpref__ 0000000180039600     ua.obj
 0002:00012620       $unwind$_wrap_insn_t___set_auxpref__$catch$5 0000000180039620     ua.obj
 0002:00012620       $unwind$_wrap_insn_t___set_auxpref__$catch$4 0000000180039620     ua.obj
 0002:00012620       $unwind$_wrap_insn_t___set_auxpref__$catch$1 0000000180039620     ua.obj
 0002:00012620       $unwind$_wrap_insn_t___set_auxpref__$catch$3 0000000180039620     ua.obj
 0002:00012620       $unwind$_wrap_insn_t___set_auxpref__$catch$0 0000000180039620     ua.obj
 0002:00012620       $unwind$_wrap_insn_t___set_auxpref__$catch$2 0000000180039620     ua.obj
 0002:00012630       $unwind$_wrap_insn_t_assign 0000000180039630     ua.obj
 0002:00012650       $tryMap$_wrap_insn_t_assign 0000000180039650     ua.obj
 0002:00012664       $handlerMap$0$_wrap_insn_t_assign 0000000180039664     ua.obj
 0002:000126e0       $ip2state$_wrap_insn_t_assign 00000001800396e0     ua.obj
 0002:00012708       $unwind$_wrap_insn_t_assign$catch$1 0000000180039708     ua.obj
 0002:00012708       $unwind$_wrap_insn_t_assign$catch$2 0000000180039708     ua.obj
 0002:00012708       $unwind$_wrap_insn_t_assign$catch$3 0000000180039708     ua.obj
 0002:00012708       $unwind$_wrap_insn_t_assign$catch$4 0000000180039708     ua.obj
 0002:00012708       $unwind$_wrap_insn_t_assign$catch$5 0000000180039708     ua.obj
 0002:00012708       $unwind$_wrap_insn_t_assign$catch$0 0000000180039708     ua.obj
 0002:00012718       $unwind$_wrap_delete_insn_t 0000000180039718     ua.obj
 0002:00012734       $tryMap$_wrap_delete_insn_t 0000000180039734     ua.obj
 0002:00012748       $handlerMap$0$_wrap_delete_insn_t 0000000180039748     ua.obj
 0002:000127c0       $ip2state$_wrap_delete_insn_t 00000001800397c0     ua.obj
 0002:000127e0       $unwind$_wrap_delete_insn_t$catch$4 00000001800397e0     ua.obj
 0002:000127e0       $unwind$_wrap_delete_insn_t$catch$3 00000001800397e0     ua.obj
 0002:000127e0       $unwind$_wrap_delete_insn_t$catch$2 00000001800397e0     ua.obj
 0002:000127e0       $unwind$_wrap_delete_insn_t$catch$1 00000001800397e0     ua.obj
 0002:000127e0       $unwind$_wrap_delete_insn_t$catch$0 00000001800397e0     ua.obj
 0002:000127e0       $unwind$_wrap_delete_insn_t$catch$5 00000001800397e0     ua.obj
 0002:000127f0       $unwind$_wrap_get_lookback 00000001800397f0     ua.obj
 0002:00012800       $tryMap$_wrap_get_lookback 0000000180039800     ua.obj
 0002:00012814       $handlerMap$0$_wrap_get_lookback 0000000180039814     ua.obj
 0002:00012890       $ip2state$_wrap_get_lookback 0000000180039890     ua.obj
 0002:000128a8       $unwind$_wrap_get_lookback$catch$0 00000001800398a8     ua.obj
 0002:000128a8       $unwind$_wrap_get_lookback$catch$1 00000001800398a8     ua.obj
 0002:000128a8       $unwind$_wrap_get_lookback$catch$5 00000001800398a8     ua.obj
 0002:000128a8       $unwind$_wrap_get_lookback$catch$4 00000001800398a8     ua.obj
 0002:000128a8       $unwind$_wrap_get_lookback$catch$3 00000001800398a8     ua.obj
 0002:000128a8       $unwind$_wrap_get_lookback$catch$2 00000001800398a8     ua.obj
 0002:000128b8       $unwind$_wrap_calc_dataseg 00000001800398b8     ua.obj
 0002:000128e0       $tryMap$_wrap_calc_dataseg 00000001800398e0     ua.obj
 0002:000128f4       $handlerMap$0$_wrap_calc_dataseg 00000001800398f4     ua.obj
 0002:00012970       $ip2state$_wrap_calc_dataseg 0000000180039970     ua.obj
 0002:00012990       $unwind$_wrap_calc_dataseg$catch$4 0000000180039990     ua.obj
 0002:00012990       $unwind$_wrap_calc_dataseg$catch$5 0000000180039990     ua.obj
 0002:00012990       $unwind$_wrap_calc_dataseg$catch$0 0000000180039990     ua.obj
 0002:00012990       $unwind$_wrap_calc_dataseg$catch$1 0000000180039990     ua.obj
 0002:00012990       $unwind$_wrap_calc_dataseg$catch$2 0000000180039990     ua.obj
 0002:00012990       $unwind$_wrap_calc_dataseg$catch$3 0000000180039990     ua.obj
 0002:000129a0       $unwind$_wrap_map_data_ea__SWIG_0 00000001800399a0     ua.obj
 0002:000129c0       $tryMap$_wrap_map_data_ea__SWIG_0 00000001800399c0     ua.obj
 0002:000129d4       $handlerMap$0$_wrap_map_data_ea__SWIG_0 00000001800399d4     ua.obj
 0002:00012a50       $ip2state$_wrap_map_data_ea__SWIG_0 0000000180039a50     ua.obj
 0002:00012a70       $unwind$_wrap_map_data_ea__SWIG_0$catch$5 0000000180039a70     ua.obj
 0002:00012a70       $unwind$_wrap_map_data_ea__SWIG_0$catch$3 0000000180039a70     ua.obj
 0002:00012a70       $unwind$_wrap_map_data_ea__SWIG_0$catch$4 0000000180039a70     ua.obj
 0002:00012a70       $unwind$_wrap_map_data_ea__SWIG_0$catch$0 0000000180039a70     ua.obj
 0002:00012a70       $unwind$_wrap_map_data_ea__SWIG_0$catch$1 0000000180039a70     ua.obj
 0002:00012a70       $unwind$_wrap_map_data_ea__SWIG_0$catch$2 0000000180039a70     ua.obj
 0002:00012a80       $unwind$_wrap_map_data_ea__SWIG_1 0000000180039a80     ua.obj
 0002:00012aa0       $tryMap$_wrap_map_data_ea__SWIG_1 0000000180039aa0     ua.obj
 0002:00012ab4       $handlerMap$0$_wrap_map_data_ea__SWIG_1 0000000180039ab4     ua.obj
 0002:00012b30       $ip2state$_wrap_map_data_ea__SWIG_1 0000000180039b30     ua.obj
 0002:00012b58       $unwind$_wrap_map_data_ea__SWIG_1$catch$4 0000000180039b58     ua.obj
 0002:00012b58       $unwind$_wrap_map_data_ea__SWIG_1$catch$3 0000000180039b58     ua.obj
 0002:00012b58       $unwind$_wrap_map_data_ea__SWIG_1$catch$1 0000000180039b58     ua.obj
 0002:00012b58       $unwind$_wrap_map_data_ea__SWIG_1$catch$0 0000000180039b58     ua.obj
 0002:00012b58       $unwind$_wrap_map_data_ea__SWIG_1$catch$2 0000000180039b58     ua.obj
 0002:00012b58       $unwind$_wrap_map_data_ea__SWIG_1$catch$5 0000000180039b58     ua.obj
 0002:00012b68       $unwind$_wrap_map_data_ea  0000000180039b68     ua.obj
 0002:00012b7c       $chain$3$_wrap_map_data_ea 0000000180039b7c     ua.obj
 0002:00012b9c       $chain$4$_wrap_map_data_ea 0000000180039b9c     ua.obj
 0002:00012bac       $chain$5$_wrap_map_data_ea 0000000180039bac     ua.obj
 0002:00012bcc       $unwind$_wrap_map_code_ea__SWIG_0 0000000180039bcc     ua.obj
 0002:00012bec       $tryMap$_wrap_map_code_ea__SWIG_0 0000000180039bec     ua.obj
 0002:00012c00       $handlerMap$0$_wrap_map_code_ea__SWIG_0 0000000180039c00     ua.obj
 0002:00012c78       $ip2state$_wrap_map_code_ea__SWIG_0 0000000180039c78     ua.obj
 0002:00012c98       $unwind$_wrap_map_code_ea__SWIG_0$catch$2 0000000180039c98     ua.obj
 0002:00012c98       $unwind$_wrap_map_code_ea__SWIG_0$catch$5 0000000180039c98     ua.obj
 0002:00012c98       $unwind$_wrap_map_code_ea__SWIG_0$catch$1 0000000180039c98     ua.obj
 0002:00012c98       $unwind$_wrap_map_code_ea__SWIG_0$catch$0 0000000180039c98     ua.obj
 0002:00012c98       $unwind$_wrap_map_code_ea__SWIG_0$catch$4 0000000180039c98     ua.obj
 0002:00012c98       $unwind$_wrap_map_code_ea__SWIG_0$catch$3 0000000180039c98     ua.obj
 0002:00012ca8       $unwind$_wrap_map_code_ea__SWIG_1 0000000180039ca8     ua.obj
 0002:00012cc8       $tryMap$_wrap_map_code_ea__SWIG_1 0000000180039cc8     ua.obj
 0002:00012cdc       $handlerMap$0$_wrap_map_code_ea__SWIG_1 0000000180039cdc     ua.obj
 0002:00012d58       $ip2state$_wrap_map_code_ea__SWIG_1 0000000180039d58     ua.obj
 0002:00012d80       $unwind$_wrap_map_code_ea__SWIG_1$catch$1 0000000180039d80     ua.obj
 0002:00012d80       $unwind$_wrap_map_code_ea__SWIG_1$catch$0 0000000180039d80     ua.obj
 0002:00012d80       $unwind$_wrap_map_code_ea__SWIG_1$catch$5 0000000180039d80     ua.obj
 0002:00012d80       $unwind$_wrap_map_code_ea__SWIG_1$catch$2 0000000180039d80     ua.obj
 0002:00012d80       $unwind$_wrap_map_code_ea__SWIG_1$catch$3 0000000180039d80     ua.obj
 0002:00012d80       $unwind$_wrap_map_code_ea__SWIG_1$catch$4 0000000180039d80     ua.obj
 0002:00012d90       $unwind$_wrap_map_code_ea  0000000180039d90     ua.obj
 0002:00012da4       $chain$3$_wrap_map_code_ea 0000000180039da4     ua.obj
 0002:00012dc4       $chain$4$_wrap_map_code_ea 0000000180039dc4     ua.obj
 0002:00012dd4       $chain$5$_wrap_map_code_ea 0000000180039dd4     ua.obj
 0002:00012df4       $unwind$_wrap_map_ea__SWIG_0 0000000180039df4     ua.obj
 0002:00012e14       $tryMap$_wrap_map_ea__SWIG_0 0000000180039e14     ua.obj
 0002:00012e28       $handlerMap$0$_wrap_map_ea__SWIG_0 0000000180039e28     ua.obj
 0002:00012ea0       $ip2state$_wrap_map_ea__SWIG_0 0000000180039ea0     ua.obj
 0002:00012ec8       $unwind$_wrap_map_ea__SWIG_0$catch$1 0000000180039ec8     ua.obj
 0002:00012ec8       $unwind$_wrap_map_ea__SWIG_0$catch$0 0000000180039ec8     ua.obj
 0002:00012ec8       $unwind$_wrap_map_ea__SWIG_0$catch$3 0000000180039ec8     ua.obj
 0002:00012ec8       $unwind$_wrap_map_ea__SWIG_0$catch$4 0000000180039ec8     ua.obj
 0002:00012ec8       $unwind$_wrap_map_ea__SWIG_0$catch$5 0000000180039ec8     ua.obj
 0002:00012ec8       $unwind$_wrap_map_ea__SWIG_0$catch$2 0000000180039ec8     ua.obj
 0002:00012ed8       $unwind$_wrap_map_ea__SWIG_1 0000000180039ed8     ua.obj
 0002:00012ef8       $tryMap$_wrap_map_ea__SWIG_1 0000000180039ef8     ua.obj
 0002:00012f0c       $handlerMap$0$_wrap_map_ea__SWIG_1 0000000180039f0c     ua.obj
 0002:00012f88       $ip2state$_wrap_map_ea__SWIG_1 0000000180039f88     ua.obj
 0002:00012fa8       $unwind$_wrap_map_ea__SWIG_1$catch$4 0000000180039fa8     ua.obj
 0002:00012fa8       $unwind$_wrap_map_ea__SWIG_1$catch$3 0000000180039fa8     ua.obj
 0002:00012fa8       $unwind$_wrap_map_ea__SWIG_1$catch$2 0000000180039fa8     ua.obj
 0002:00012fa8       $unwind$_wrap_map_ea__SWIG_1$catch$1 0000000180039fa8     ua.obj
 0002:00012fa8       $unwind$_wrap_map_ea__SWIG_1$catch$0 0000000180039fa8     ua.obj
 0002:00012fa8       $unwind$_wrap_map_ea__SWIG_1$catch$5 0000000180039fa8     ua.obj
 0002:00012fb8       $unwind$_wrap_map_ea       0000000180039fb8     ua.obj
 0002:00012fcc       $chain$5$_wrap_map_ea      0000000180039fcc     ua.obj
 0002:00012ff4       $chain$6$_wrap_map_ea      0000000180039ff4     ua.obj
 0002:00013004       $chain$7$_wrap_map_ea      000000018003a004     ua.obj
 0002:0001302c       $chain$0$_wrap_outctx_base_t_insn_ea_set 000000018003a02c     ua.obj
 0002:00013040       $chain$1$_wrap_outctx_base_t_insn_ea_set 000000018003a040     ua.obj
 0002:00013050       $chain$0$_wrap_outctx_base_t_insn_ea_get 000000018003a050     ua.obj
 0002:00013064       $chain$1$_wrap_outctx_base_t_insn_ea_get 000000018003a064     ua.obj
 0002:00013074       $unwind$_wrap_outctx_base_t_outbuf_set 000000018003a074     ua.obj
 0002:00013074       $unwind$_wrap_outctx_t_curlabel_set 000000018003a074     ua.obj
 0002:00013084       $chain$0$_wrap_outctx_base_t_outbuf_set 000000018003a084     ua.obj
 0002:00013098       $chain$1$_wrap_outctx_base_t_outbuf_set 000000018003a098     ua.obj
 0002:000130a8       $unwind$_wrap_outctx_base_t_outbuf_get 000000018003a0a8     ua.obj
 0002:000130a8       $unwind$_wrap_outctx_t_curlabel_get 000000018003a0a8     ua.obj
 0002:000130bc       $chain$0$_wrap_outctx_base_t_outbuf_get 000000018003a0bc     ua.obj
 0002:000130d0       $chain$1$_wrap_outctx_base_t_outbuf_get 000000018003a0d0     ua.obj
 0002:000130e0       $chain$0$_wrap_outctx_base_t_default_lnnum_set 000000018003a0e0     ua.obj
 0002:000130f4       $chain$1$_wrap_outctx_base_t_default_lnnum_set 000000018003a0f4     ua.obj
 0002:00013104       $chain$0$_wrap_outctx_base_t_default_lnnum_get 000000018003a104     ua.obj
 0002:00013118       $chain$1$_wrap_outctx_base_t_default_lnnum_get 000000018003a118     ua.obj
 0002:00013128       $unwind$_wrap_outctx_base_t_only_main_line 000000018003a128     ua.obj
 0002:00013144       $tryMap$_wrap_outctx_base_t_only_main_line 000000018003a144     ua.obj
 0002:00013158       $handlerMap$0$_wrap_outctx_base_t_only_main_line 000000018003a158     ua.obj
 0002:000131d0       $ip2state$_wrap_outctx_base_t_only_main_line 000000018003a1d0     ua.obj
 0002:000131f0       $unwind$_wrap_outctx_base_t_only_main_line$catch$1 000000018003a1f0     ua.obj
 0002:000131f0       $unwind$_wrap_outctx_base_t_only_main_line$catch$0 000000018003a1f0     ua.obj
 0002:000131f0       $unwind$_wrap_outctx_base_t_only_main_line$catch$4 000000018003a1f0     ua.obj
 0002:000131f0       $unwind$_wrap_outctx_base_t_only_main_line$catch$5 000000018003a1f0     ua.obj
 0002:000131f0       $unwind$_wrap_outctx_base_t_only_main_line$catch$2 000000018003a1f0     ua.obj
 0002:000131f0       $unwind$_wrap_outctx_base_t_only_main_line$catch$3 000000018003a1f0     ua.obj
 0002:00013200       $unwind$_wrap_outctx_base_t_multiline 000000018003a200     ua.obj
 0002:0001321c       $tryMap$_wrap_outctx_base_t_multiline 000000018003a21c     ua.obj
 0002:00013230       $handlerMap$0$_wrap_outctx_base_t_multiline 000000018003a230     ua.obj
 0002:000132a8       $ip2state$_wrap_outctx_base_t_multiline 000000018003a2a8     ua.obj
 0002:000132c8       $unwind$_wrap_outctx_base_t_multiline$catch$2 000000018003a2c8     ua.obj
 0002:000132c8       $unwind$_wrap_outctx_base_t_multiline$catch$3 000000018003a2c8     ua.obj
 0002:000132c8       $unwind$_wrap_outctx_base_t_multiline$catch$1 000000018003a2c8     ua.obj
 0002:000132c8       $unwind$_wrap_outctx_base_t_multiline$catch$0 000000018003a2c8     ua.obj
 0002:000132c8       $unwind$_wrap_outctx_base_t_multiline$catch$5 000000018003a2c8     ua.obj
 0002:000132c8       $unwind$_wrap_outctx_base_t_multiline$catch$4 000000018003a2c8     ua.obj
 0002:000132d8       $unwind$_wrap_outctx_base_t_force_code 000000018003a2d8     ua.obj
 0002:000132f4       $tryMap$_wrap_outctx_base_t_force_code 000000018003a2f4     ua.obj
 0002:00013308       $handlerMap$0$_wrap_outctx_base_t_force_code 000000018003a308     ua.obj
 0002:00013380       $ip2state$_wrap_outctx_base_t_force_code 000000018003a380     ua.obj
 0002:000133a0       $unwind$_wrap_outctx_base_t_force_code$catch$2 000000018003a3a0     ua.obj
 0002:000133a0       $unwind$_wrap_outctx_base_t_force_code$catch$0 000000018003a3a0     ua.obj
 0002:000133a0       $unwind$_wrap_outctx_base_t_force_code$catch$1 000000018003a3a0     ua.obj
 0002:000133a0       $unwind$_wrap_outctx_base_t_force_code$catch$3 000000018003a3a0     ua.obj
 0002:000133a0       $unwind$_wrap_outctx_base_t_force_code$catch$4 000000018003a3a0     ua.obj
 0002:000133a0       $unwind$_wrap_outctx_base_t_force_code$catch$5 000000018003a3a0     ua.obj
 0002:000133b0       $unwind$_wrap_outctx_base_t_stack_view 000000018003a3b0     ua.obj
 0002:000133cc       $tryMap$_wrap_outctx_base_t_stack_view 000000018003a3cc     ua.obj
 0002:000133e0       $handlerMap$0$_wrap_outctx_base_t_stack_view 000000018003a3e0     ua.obj
 0002:00013458       $ip2state$_wrap_outctx_base_t_stack_view 000000018003a458     ua.obj
 0002:00013478       $unwind$_wrap_outctx_base_t_stack_view$catch$0 000000018003a478     ua.obj
 0002:00013478       $unwind$_wrap_outctx_base_t_stack_view$catch$1 000000018003a478     ua.obj
 0002:00013478       $unwind$_wrap_outctx_base_t_stack_view$catch$3 000000018003a478     ua.obj
 0002:00013478       $unwind$_wrap_outctx_base_t_stack_view$catch$2 000000018003a478     ua.obj
 0002:00013478       $unwind$_wrap_outctx_base_t_stack_view$catch$4 000000018003a478     ua.obj
 0002:00013478       $unwind$_wrap_outctx_base_t_stack_view$catch$5 000000018003a478     ua.obj
 0002:00013488       $unwind$_wrap_outctx_base_t_display_voids 000000018003a488     ua.obj
 0002:000134a4       $tryMap$_wrap_outctx_base_t_display_voids 000000018003a4a4     ua.obj
 0002:000134b8       $handlerMap$0$_wrap_outctx_base_t_display_voids 000000018003a4b8     ua.obj
 0002:00013530       $ip2state$_wrap_outctx_base_t_display_voids 000000018003a530     ua.obj
 0002:00013550       $unwind$_wrap_outctx_base_t_display_voids$catch$1 000000018003a550     ua.obj
 0002:00013550       $unwind$_wrap_outctx_base_t_display_voids$catch$2 000000018003a550     ua.obj
 0002:00013550       $unwind$_wrap_outctx_base_t_display_voids$catch$4 000000018003a550     ua.obj
 0002:00013550       $unwind$_wrap_outctx_base_t_display_voids$catch$5 000000018003a550     ua.obj
 0002:00013550       $unwind$_wrap_outctx_base_t_display_voids$catch$0 000000018003a550     ua.obj
 0002:00013550       $unwind$_wrap_outctx_base_t_display_voids$catch$3 000000018003a550     ua.obj
 0002:00013560       $unwind$_wrap_outctx_base_t_set_gen_xrefs 000000018003a560     ua.obj
 0002:00013580       $tryMap$_wrap_outctx_base_t_set_gen_xrefs 000000018003a580     ua.obj
 0002:00013594       $handlerMap$0$_wrap_outctx_base_t_set_gen_xrefs 000000018003a594     ua.obj
 0002:00013610       $ip2state$_wrap_outctx_base_t_set_gen_xrefs 000000018003a610     ua.obj
 0002:00013630       $unwind$_wrap_outctx_base_t_set_gen_xrefs$catch$3 000000018003a630     ua.obj
 0002:00013630       $unwind$_wrap_outctx_base_t_set_gen_xrefs$catch$4 000000018003a630     ua.obj
 0002:00013630       $unwind$_wrap_outctx_base_t_set_gen_xrefs$catch$2 000000018003a630     ua.obj
 0002:00013630       $unwind$_wrap_outctx_base_t_set_gen_xrefs$catch$1 000000018003a630     ua.obj
 0002:00013630       $unwind$_wrap_outctx_base_t_set_gen_xrefs$catch$0 000000018003a630     ua.obj
 0002:00013630       $unwind$_wrap_outctx_base_t_set_gen_xrefs$catch$5 000000018003a630     ua.obj
 0002:00013640       $unwind$_wrap_outctx_base_t_set_gen_cmt 000000018003a640     ua.obj
 0002:00013660       $tryMap$_wrap_outctx_base_t_set_gen_cmt 000000018003a660     ua.obj
 0002:00013674       $handlerMap$0$_wrap_outctx_base_t_set_gen_cmt 000000018003a674     ua.obj
 0002:000136f0       $ip2state$_wrap_outctx_base_t_set_gen_cmt 000000018003a6f0     ua.obj
 0002:00013710       $unwind$_wrap_outctx_base_t_set_gen_cmt$catch$0 000000018003a710     ua.obj
 0002:00013710       $unwind$_wrap_outctx_base_t_set_gen_cmt$catch$1 000000018003a710     ua.obj
 0002:00013710       $unwind$_wrap_outctx_base_t_set_gen_cmt$catch$5 000000018003a710     ua.obj
 0002:00013710       $unwind$_wrap_outctx_base_t_set_gen_cmt$catch$2 000000018003a710     ua.obj
 0002:00013710       $unwind$_wrap_outctx_base_t_set_gen_cmt$catch$3 000000018003a710     ua.obj
 0002:00013710       $unwind$_wrap_outctx_base_t_set_gen_cmt$catch$4 000000018003a710     ua.obj
 0002:00013720       $unwind$_wrap_outctx_base_t_clr_gen_label 000000018003a720     ua.obj
 0002:0001373c       $tryMap$_wrap_outctx_base_t_clr_gen_label 000000018003a73c     ua.obj
 0002:00013750       $handlerMap$0$_wrap_outctx_base_t_clr_gen_label 000000018003a750     ua.obj
 0002:000137c8       $ip2state$_wrap_outctx_base_t_clr_gen_label 000000018003a7c8     ua.obj
 0002:000137e8       $unwind$_wrap_outctx_base_t_clr_gen_label$catch$0 000000018003a7e8     ua.obj
 0002:000137e8       $unwind$_wrap_outctx_base_t_clr_gen_label$catch$5 000000018003a7e8     ua.obj
 0002:000137e8       $unwind$_wrap_outctx_base_t_clr_gen_label$catch$3 000000018003a7e8     ua.obj
 0002:000137e8       $unwind$_wrap_outctx_base_t_clr_gen_label$catch$2 000000018003a7e8     ua.obj
 0002:000137e8       $unwind$_wrap_outctx_base_t_clr_gen_label$catch$1 000000018003a7e8     ua.obj
 0002:000137e8       $unwind$_wrap_outctx_base_t_clr_gen_label$catch$4 000000018003a7e8     ua.obj
 0002:000137f8       $unwind$_wrap_outctx_base_t_set_gen_label 000000018003a7f8     ua.obj
 0002:00013814       $tryMap$_wrap_outctx_base_t_set_gen_label 000000018003a814     ua.obj
 0002:00013828       $handlerMap$0$_wrap_outctx_base_t_set_gen_label 000000018003a828     ua.obj
 0002:000138a0       $ip2state$_wrap_outctx_base_t_set_gen_label 000000018003a8a0     ua.obj
 0002:000138c0       $unwind$_wrap_outctx_base_t_set_gen_label$catch$0 000000018003a8c0     ua.obj
 0002:000138c0       $unwind$_wrap_outctx_base_t_set_gen_label$catch$5 000000018003a8c0     ua.obj
 0002:000138c0       $unwind$_wrap_outctx_base_t_set_gen_label$catch$1 000000018003a8c0     ua.obj
 0002:000138c0       $unwind$_wrap_outctx_base_t_set_gen_label$catch$2 000000018003a8c0     ua.obj
 0002:000138c0       $unwind$_wrap_outctx_base_t_set_gen_label$catch$4 000000018003a8c0     ua.obj
 0002:000138c0       $unwind$_wrap_outctx_base_t_set_gen_label$catch$3 000000018003a8c0     ua.obj
 0002:000138d0       $unwind$_wrap_outctx_base_t_set_gen_demangled_label 000000018003a8d0     ua.obj
 0002:000138ec       $tryMap$_wrap_outctx_base_t_set_gen_demangled_label 000000018003a8ec     ua.obj
 0002:00013900       $handlerMap$0$_wrap_outctx_base_t_set_gen_demangled_label 000000018003a900     ua.obj
 0002:00013978       $ip2state$_wrap_outctx_base_t_set_gen_demangled_label 000000018003a978     ua.obj
 0002:00013998       $unwind$_wrap_outctx_base_t_set_gen_demangled_label$catch$1 000000018003a998     ua.obj
 0002:00013998       $unwind$_wrap_outctx_base_t_set_gen_demangled_label$catch$0 000000018003a998     ua.obj
 0002:00013998       $unwind$_wrap_outctx_base_t_set_gen_demangled_label$catch$4 000000018003a998     ua.obj
 0002:00013998       $unwind$_wrap_outctx_base_t_set_gen_demangled_label$catch$2 000000018003a998     ua.obj
 0002:00013998       $unwind$_wrap_outctx_base_t_set_gen_demangled_label$catch$5 000000018003a998     ua.obj
 0002:00013998       $unwind$_wrap_outctx_base_t_set_gen_demangled_label$catch$3 000000018003a998     ua.obj
 0002:000139a8       $unwind$_wrap_outctx_base_t_set_comment_addr 000000018003a9a8     ua.obj
 0002:000139c4       $tryMap$_wrap_outctx_base_t_set_comment_addr 000000018003a9c4     ua.obj
 0002:000139d8       $handlerMap$0$_wrap_outctx_base_t_set_comment_addr 000000018003a9d8     ua.obj
 0002:00013a50       $ip2state$_wrap_outctx_base_t_set_comment_addr 000000018003aa50     ua.obj
 0002:00013a70       $unwind$_wrap_outctx_base_t_set_comment_addr$catch$5 000000018003aa70     ua.obj
 0002:00013a70       $unwind$_wrap_outctx_base_t_set_comment_addr$catch$4 000000018003aa70     ua.obj
 0002:00013a70       $unwind$_wrap_outctx_base_t_set_comment_addr$catch$1 000000018003aa70     ua.obj
 0002:00013a70       $unwind$_wrap_outctx_base_t_set_comment_addr$catch$2 000000018003aa70     ua.obj
 0002:00013a70       $unwind$_wrap_outctx_base_t_set_comment_addr$catch$3 000000018003aa70     ua.obj
 0002:00013a70       $unwind$_wrap_outctx_base_t_set_comment_addr$catch$0 000000018003aa70     ua.obj
 0002:00013a80       $unwind$_wrap_outctx_base_t_set_dlbind_opnd 000000018003aa80     ua.obj
 0002:00013a9c       $tryMap$_wrap_outctx_base_t_set_dlbind_opnd 000000018003aa9c     ua.obj
 0002:00013ab0       $handlerMap$0$_wrap_outctx_base_t_set_dlbind_opnd 000000018003aab0     ua.obj
 0002:00013b28       $ip2state$_wrap_outctx_base_t_set_dlbind_opnd 000000018003ab28     ua.obj
 0002:00013b48       $unwind$_wrap_outctx_base_t_set_dlbind_opnd$catch$5 000000018003ab48     ua.obj
 0002:00013b48       $unwind$_wrap_outctx_base_t_set_dlbind_opnd$catch$4 000000018003ab48     ua.obj
 0002:00013b48       $unwind$_wrap_outctx_base_t_set_dlbind_opnd$catch$3 000000018003ab48     ua.obj
 0002:00013b48       $unwind$_wrap_outctx_base_t_set_dlbind_opnd$catch$2 000000018003ab48     ua.obj
 0002:00013b48       $unwind$_wrap_outctx_base_t_set_dlbind_opnd$catch$1 000000018003ab48     ua.obj
 0002:00013b48       $unwind$_wrap_outctx_base_t_set_dlbind_opnd$catch$0 000000018003ab48     ua.obj
 0002:00013b58       $unwind$_wrap_outctx_base_t_print_label_now 000000018003ab58     ua.obj
 0002:00013b78       $tryMap$_wrap_outctx_base_t_print_label_now 000000018003ab78     ua.obj
 0002:00013b8c       $handlerMap$0$_wrap_outctx_base_t_print_label_now 000000018003ab8c     ua.obj
 0002:00013c08       $ip2state$_wrap_outctx_base_t_print_label_now 000000018003ac08     ua.obj
 0002:00013c28       $unwind$_wrap_outctx_base_t_print_label_now$catch$5 000000018003ac28     ua.obj
 0002:00013c28       $unwind$_wrap_outctx_base_t_print_label_now$catch$4 000000018003ac28     ua.obj
 0002:00013c28       $unwind$_wrap_outctx_base_t_print_label_now$catch$0 000000018003ac28     ua.obj
 0002:00013c28       $unwind$_wrap_outctx_base_t_print_label_now$catch$3 000000018003ac28     ua.obj
 0002:00013c28       $unwind$_wrap_outctx_base_t_print_label_now$catch$1 000000018003ac28     ua.obj
 0002:00013c28       $unwind$_wrap_outctx_base_t_print_label_now$catch$2 000000018003ac28     ua.obj
 0002:00013c38       $unwind$_wrap_outctx_base_t_forbid_annotations 000000018003ac38     ua.obj
 0002:00013c54       $tryMap$_wrap_outctx_base_t_forbid_annotations 000000018003ac54     ua.obj
 0002:00013c68       $handlerMap$0$_wrap_outctx_base_t_forbid_annotations 000000018003ac68     ua.obj
 0002:00013ce0       $ip2state$_wrap_outctx_base_t_forbid_annotations 000000018003ace0     ua.obj
 0002:00013d00       $unwind$_wrap_outctx_base_t_forbid_annotations$catch$4 000000018003ad00     ua.obj
 0002:00013d00       $unwind$_wrap_outctx_base_t_forbid_annotations$catch$5 000000018003ad00     ua.obj
 0002:00013d00       $unwind$_wrap_outctx_base_t_forbid_annotations$catch$1 000000018003ad00     ua.obj
 0002:00013d00       $unwind$_wrap_outctx_base_t_forbid_annotations$catch$2 000000018003ad00     ua.obj
 0002:00013d00       $unwind$_wrap_outctx_base_t_forbid_annotations$catch$3 000000018003ad00     ua.obj
 0002:00013d00       $unwind$_wrap_outctx_base_t_forbid_annotations$catch$0 000000018003ad00     ua.obj
 0002:00013d10       $unwind$_wrap_outctx_base_t_restore_ctxflags 000000018003ad10     ua.obj
 0002:00013d2c       $tryMap$_wrap_outctx_base_t_restore_ctxflags 000000018003ad2c     ua.obj
 0002:00013d40       $handlerMap$0$_wrap_outctx_base_t_restore_ctxflags 000000018003ad40     ua.obj
 0002:00013db8       $ip2state$_wrap_outctx_base_t_restore_ctxflags 000000018003adb8     ua.obj
 0002:00013dd8       $unwind$_wrap_outctx_base_t_restore_ctxflags$catch$5 000000018003add8     ua.obj
 0002:00013dd8       $unwind$_wrap_outctx_base_t_restore_ctxflags$catch$4 000000018003add8     ua.obj
 0002:00013dd8       $unwind$_wrap_outctx_base_t_restore_ctxflags$catch$3 000000018003add8     ua.obj
 0002:00013dd8       $unwind$_wrap_outctx_base_t_restore_ctxflags$catch$2 000000018003add8     ua.obj
 0002:00013dd8       $unwind$_wrap_outctx_base_t_restore_ctxflags$catch$0 000000018003add8     ua.obj
 0002:00013dd8       $unwind$_wrap_outctx_base_t_restore_ctxflags$catch$1 000000018003add8     ua.obj
 0002:00013de8       $unwind$_wrap_outctx_base_t_out_printf__varargs__ 000000018003ade8     ua.obj
 0002:00013e04       $tryMap$_wrap_outctx_base_t_out_printf__varargs__ 000000018003ae04     ua.obj
 0002:00013e18       $handlerMap$0$_wrap_outctx_base_t_out_printf__varargs__ 000000018003ae18     ua.obj
 0002:00013e90       $ip2state$_wrap_outctx_base_t_out_printf__varargs__ 000000018003ae90     ua.obj
 0002:00013eb8       $unwind$_wrap_outctx_base_t_out_printf__varargs__$catch$0 000000018003aeb8     ua.obj
 0002:00013eb8       $unwind$_wrap_outctx_base_t_out_printf__varargs__$catch$1 000000018003aeb8     ua.obj
 0002:00013eb8       $unwind$_wrap_outctx_base_t_out_printf__varargs__$catch$2 000000018003aeb8     ua.obj
 0002:00013eb8       $unwind$_wrap_outctx_base_t_out_printf__varargs__$catch$3 000000018003aeb8     ua.obj
 0002:00013eb8       $unwind$_wrap_outctx_base_t_out_printf__varargs__$catch$4 000000018003aeb8     ua.obj
 0002:00013eb8       $unwind$_wrap_outctx_base_t_out_printf__varargs__$catch$5 000000018003aeb8     ua.obj
 0002:00013ec8       $unwind$_wrap_outctx_base_t_out_value 000000018003aec8     ua.obj
 0002:00013ef0       $tryMap$_wrap_outctx_base_t_out_value 000000018003aef0     ua.obj
 0002:00013f04       $handlerMap$0$_wrap_outctx_base_t_out_value 000000018003af04     ua.obj
 0002:00013f80       $ip2state$_wrap_outctx_base_t_out_value 000000018003af80     ua.obj
 0002:00013fb0       $unwind$_wrap_outctx_base_t_out_value$catch$1 000000018003afb0     ua.obj
 0002:00013fb0       $unwind$_wrap_outctx_base_t_out_value$catch$2 000000018003afb0     ua.obj
 0002:00013fb0       $unwind$_wrap_outctx_base_t_out_value$catch$3 000000018003afb0     ua.obj
 0002:00013fb0       $unwind$_wrap_outctx_base_t_out_value$catch$4 000000018003afb0     ua.obj
 0002:00013fb0       $unwind$_wrap_outctx_base_t_out_value$catch$5 000000018003afb0     ua.obj
 0002:00013fb0       $unwind$_wrap_outctx_base_t_out_value$catch$0 000000018003afb0     ua.obj
 0002:00013fc0       $unwind$_wrap_outctx_base_t_out_symbol 000000018003afc0     ua.obj
 0002:00013fdc       $tryMap$_wrap_outctx_base_t_out_symbol 000000018003afdc     ua.obj
 0002:00013ff0       $handlerMap$0$_wrap_outctx_base_t_out_symbol 000000018003aff0     ua.obj
 0002:00014068       $ip2state$_wrap_outctx_base_t_out_symbol 000000018003b068     ua.obj
 0002:00014098       $unwind$_wrap_outctx_base_t_out_symbol$catch$5 000000018003b098     ua.obj
 0002:00014098       $unwind$_wrap_outctx_base_t_out_symbol$catch$4 000000018003b098     ua.obj
 0002:00014098       $unwind$_wrap_outctx_base_t_out_symbol$catch$3 000000018003b098     ua.obj
 0002:00014098       $unwind$_wrap_outctx_base_t_out_symbol$catch$2 000000018003b098     ua.obj
 0002:00014098       $unwind$_wrap_outctx_base_t_out_symbol$catch$1 000000018003b098     ua.obj
 0002:00014098       $unwind$_wrap_outctx_base_t_out_symbol$catch$0 000000018003b098     ua.obj
 0002:000140a8       $unwind$_wrap_outctx_base_t_out_chars 000000018003b0a8     ua.obj
 0002:000140cc       $tryMap$_wrap_outctx_base_t_out_chars 000000018003b0cc     ua.obj
 0002:000140e0       $handlerMap$0$_wrap_outctx_base_t_out_chars 000000018003b0e0     ua.obj
 0002:00014158       $ip2state$_wrap_outctx_base_t_out_chars 000000018003b158     ua.obj
 0002:00014188       $unwind$_wrap_outctx_base_t_out_chars$catch$2 000000018003b188     ua.obj
 0002:00014188       $unwind$_wrap_outctx_base_t_out_chars$catch$3 000000018003b188     ua.obj
 0002:00014188       $unwind$_wrap_outctx_base_t_out_chars$catch$4 000000018003b188     ua.obj
 0002:00014188       $unwind$_wrap_outctx_base_t_out_chars$catch$5 000000018003b188     ua.obj
 0002:00014188       $unwind$_wrap_outctx_base_t_out_chars$catch$1 000000018003b188     ua.obj
 0002:00014188       $unwind$_wrap_outctx_base_t_out_chars$catch$0 000000018003b188     ua.obj
 0002:00014198       $unwind$_wrap_outctx_base_t_out_spaces 000000018003b198     ua.obj
 0002:000141b4       $tryMap$_wrap_outctx_base_t_out_spaces 000000018003b1b4     ua.obj
 0002:000141c8       $handlerMap$0$_wrap_outctx_base_t_out_spaces 000000018003b1c8     ua.obj
 0002:00014240       $ip2state$_wrap_outctx_base_t_out_spaces 000000018003b240     ua.obj
 0002:00014268       $unwind$_wrap_outctx_base_t_out_spaces$catch$0 000000018003b268     ua.obj
 0002:00014268       $unwind$_wrap_outctx_base_t_out_spaces$catch$1 000000018003b268     ua.obj
 0002:00014268       $unwind$_wrap_outctx_base_t_out_spaces$catch$2 000000018003b268     ua.obj
 0002:00014268       $unwind$_wrap_outctx_base_t_out_spaces$catch$3 000000018003b268     ua.obj
 0002:00014268       $unwind$_wrap_outctx_base_t_out_spaces$catch$4 000000018003b268     ua.obj
 0002:00014268       $unwind$_wrap_outctx_base_t_out_spaces$catch$5 000000018003b268     ua.obj
 0002:00014278       $unwind$_wrap_outctx_base_t_out_line 000000018003b278     ua.obj
 0002:000142a0       $tryMap$_wrap_outctx_base_t_out_line 000000018003b2a0     ua.obj
 0002:000142b4       $handlerMap$0$_wrap_outctx_base_t_out_line 000000018003b2b4     ua.obj
 0002:00014330       $ip2state$_wrap_outctx_base_t_out_line 000000018003b330     ua.obj
 0002:00014360       $unwind$_wrap_outctx_base_t_out_line$catch$0 000000018003b360     ua.obj
 0002:00014360       $unwind$_wrap_outctx_base_t_out_line$catch$1 000000018003b360     ua.obj
 0002:00014360       $unwind$_wrap_outctx_base_t_out_line$catch$2 000000018003b360     ua.obj
 0002:00014360       $unwind$_wrap_outctx_base_t_out_line$catch$4 000000018003b360     ua.obj
 0002:00014360       $unwind$_wrap_outctx_base_t_out_line$catch$5 000000018003b360     ua.obj
 0002:00014360       $unwind$_wrap_outctx_base_t_out_line$catch$3 000000018003b360     ua.obj
 0002:00014370       $unwind$_wrap_outctx_base_t_out_keyword 000000018003b370     ua.obj
 0002:0001438c       $tryMap$_wrap_outctx_base_t_out_keyword 000000018003b38c     ua.obj
 0002:000143a0       $handlerMap$0$_wrap_outctx_base_t_out_keyword 000000018003b3a0     ua.obj
 0002:00014418       $ip2state$_wrap_outctx_base_t_out_keyword 000000018003b418     ua.obj
 0002:00014448       $unwind$_wrap_outctx_base_t_out_keyword$catch$4 000000018003b448     ua.obj
 0002:00014448       $unwind$_wrap_outctx_base_t_out_keyword$catch$5 000000018003b448     ua.obj
 0002:00014448       $unwind$_wrap_outctx_base_t_out_keyword$catch$0 000000018003b448     ua.obj
 0002:00014448       $unwind$_wrap_outctx_base_t_out_keyword$catch$1 000000018003b448     ua.obj
 0002:00014448       $unwind$_wrap_outctx_base_t_out_keyword$catch$2 000000018003b448     ua.obj
 0002:00014448       $unwind$_wrap_outctx_base_t_out_keyword$catch$3 000000018003b448     ua.obj
 0002:00014458       $unwind$_wrap_outctx_base_t_out_register 000000018003b458     ua.obj
 0002:00014474       $tryMap$_wrap_outctx_base_t_out_register 000000018003b474     ua.obj
 0002:00014488       $handlerMap$0$_wrap_outctx_base_t_out_register 000000018003b488     ua.obj
 0002:00014500       $ip2state$_wrap_outctx_base_t_out_register 000000018003b500     ua.obj
 0002:00014530       $unwind$_wrap_outctx_base_t_out_register$catch$1 000000018003b530     ua.obj
 0002:00014530       $unwind$_wrap_outctx_base_t_out_register$catch$4 000000018003b530     ua.obj
 0002:00014530       $unwind$_wrap_outctx_base_t_out_register$catch$2 000000018003b530     ua.obj
 0002:00014530       $unwind$_wrap_outctx_base_t_out_register$catch$5 000000018003b530     ua.obj
 0002:00014530       $unwind$_wrap_outctx_base_t_out_register$catch$3 000000018003b530     ua.obj
 0002:00014530       $unwind$_wrap_outctx_base_t_out_register$catch$0 000000018003b530     ua.obj
 0002:00014540       $unwind$_wrap_outctx_base_t_out_tagon 000000018003b540     ua.obj
 0002:00014560       $tryMap$_wrap_outctx_base_t_out_tagon 000000018003b560     ua.obj
 0002:00014574       $handlerMap$0$_wrap_outctx_base_t_out_tagon 000000018003b574     ua.obj
 0002:000145f0       $ip2state$_wrap_outctx_base_t_out_tagon 000000018003b5f0     ua.obj
 0002:00014618       $unwind$_wrap_outctx_base_t_out_tagon$catch$5 000000018003b618     ua.obj
 0002:00014618       $unwind$_wrap_outctx_base_t_out_tagon$catch$0 000000018003b618     ua.obj
 0002:00014618       $unwind$_wrap_outctx_base_t_out_tagon$catch$1 000000018003b618     ua.obj
 0002:00014618       $unwind$_wrap_outctx_base_t_out_tagon$catch$2 000000018003b618     ua.obj
 0002:00014618       $unwind$_wrap_outctx_base_t_out_tagon$catch$3 000000018003b618     ua.obj
 0002:00014618       $unwind$_wrap_outctx_base_t_out_tagon$catch$4 000000018003b618     ua.obj
 0002:00014628       $unwind$_wrap_outctx_base_t_out_tagoff 000000018003b628     ua.obj
 0002:00014648       $tryMap$_wrap_outctx_base_t_out_tagoff 000000018003b648     ua.obj
 0002:0001465c       $handlerMap$0$_wrap_outctx_base_t_out_tagoff 000000018003b65c     ua.obj
 0002:000146d8       $ip2state$_wrap_outctx_base_t_out_tagoff 000000018003b6d8     ua.obj
 0002:00014700       $unwind$_wrap_outctx_base_t_out_tagoff$catch$0 000000018003b700     ua.obj
 0002:00014700       $unwind$_wrap_outctx_base_t_out_tagoff$catch$1 000000018003b700     ua.obj
 0002:00014700       $unwind$_wrap_outctx_base_t_out_tagoff$catch$2 000000018003b700     ua.obj
 0002:00014700       $unwind$_wrap_outctx_base_t_out_tagoff$catch$3 000000018003b700     ua.obj
 0002:00014700       $unwind$_wrap_outctx_base_t_out_tagoff$catch$4 000000018003b700     ua.obj
 0002:00014700       $unwind$_wrap_outctx_base_t_out_tagoff$catch$5 000000018003b700     ua.obj
 0002:00014710       $unwind$_wrap_outctx_base_t_out_addr_tag 000000018003b710     ua.obj
 0002:0001472c       $tryMap$_wrap_outctx_base_t_out_addr_tag 000000018003b72c     ua.obj
 0002:00014740       $handlerMap$0$_wrap_outctx_base_t_out_addr_tag 000000018003b740     ua.obj
 0002:000147b8       $ip2state$_wrap_outctx_base_t_out_addr_tag 000000018003b7b8     ua.obj
 0002:000147e0       $unwind$_wrap_outctx_base_t_out_addr_tag$catch$4 000000018003b7e0     ua.obj
 0002:000147e0       $unwind$_wrap_outctx_base_t_out_addr_tag$catch$2 000000018003b7e0     ua.obj
 0002:000147e0       $unwind$_wrap_outctx_base_t_out_addr_tag$catch$3 000000018003b7e0     ua.obj
 0002:000147e0       $unwind$_wrap_outctx_base_t_out_addr_tag$catch$0 000000018003b7e0     ua.obj
 0002:000147e0       $unwind$_wrap_outctx_base_t_out_addr_tag$catch$1 000000018003b7e0     ua.obj
 0002:000147e0       $unwind$_wrap_outctx_base_t_out_addr_tag$catch$5 000000018003b7e0     ua.obj
 0002:000147f0       $unwind$_wrap_outctx_base_t_out_colored_register_line 000000018003b7f0     ua.obj
 0002:0001480c       $tryMap$_wrap_outctx_base_t_out_colored_register_line 000000018003b80c     ua.obj
 0002:00014820       $handlerMap$0$_wrap_outctx_base_t_out_colored_register_line 000000018003b820     ua.obj
 0002:00014898       $ip2state$_wrap_outctx_base_t_out_colored_register_line 000000018003b898     ua.obj
 0002:000148c8       $unwind$_wrap_outctx_base_t_out_colored_register_line$catch$1 000000018003b8c8     ua.obj
 0002:000148c8       $unwind$_wrap_outctx_base_t_out_colored_register_line$catch$2 000000018003b8c8     ua.obj
 0002:000148c8       $unwind$_wrap_outctx_base_t_out_colored_register_line$catch$3 000000018003b8c8     ua.obj
 0002:000148c8       $unwind$_wrap_outctx_base_t_out_colored_register_line$catch$4 000000018003b8c8     ua.obj
 0002:000148c8       $unwind$_wrap_outctx_base_t_out_colored_register_line$catch$5 000000018003b8c8     ua.obj
 0002:000148c8       $unwind$_wrap_outctx_base_t_out_colored_register_line$catch$0 000000018003b8c8     ua.obj
 0002:000148d8       $unwind$_wrap_outctx_base_t_out_char 000000018003b8d8     ua.obj
 0002:000148f4       $tryMap$_wrap_outctx_base_t_out_char 000000018003b8f4     ua.obj
 0002:00014908       $handlerMap$0$_wrap_outctx_base_t_out_char 000000018003b908     ua.obj
 0002:00014980       $ip2state$_wrap_outctx_base_t_out_char 000000018003b980     ua.obj
 0002:000149b0       $unwind$_wrap_outctx_base_t_out_char$catch$0 000000018003b9b0     ua.obj
 0002:000149b0       $unwind$_wrap_outctx_base_t_out_char$catch$1 000000018003b9b0     ua.obj
 0002:000149b0       $unwind$_wrap_outctx_base_t_out_char$catch$2 000000018003b9b0     ua.obj
 0002:000149b0       $unwind$_wrap_outctx_base_t_out_char$catch$3 000000018003b9b0     ua.obj
 0002:000149b0       $unwind$_wrap_outctx_base_t_out_char$catch$4 000000018003b9b0     ua.obj
 0002:000149b0       $unwind$_wrap_outctx_base_t_out_char$catch$5 000000018003b9b0     ua.obj
 0002:000149c0       $unwind$_wrap_outctx_base_t_out_btoa 000000018003b9c0     ua.obj
 0002:000149e8       $tryMap$_wrap_outctx_base_t_out_btoa 000000018003b9e8     ua.obj
 0002:000149fc       $handlerMap$0$_wrap_outctx_base_t_out_btoa 000000018003b9fc     ua.obj
 0002:00014a78       $ip2state$_wrap_outctx_base_t_out_btoa 000000018003ba78     ua.obj
 0002:00014aa8       $unwind$_wrap_outctx_base_t_out_btoa$catch$0 000000018003baa8     ua.obj
 0002:00014aa8       $unwind$_wrap_outctx_base_t_out_btoa$catch$4 000000018003baa8     ua.obj
 0002:00014aa8       $unwind$_wrap_outctx_base_t_out_btoa$catch$2 000000018003baa8     ua.obj
 0002:00014aa8       $unwind$_wrap_outctx_base_t_out_btoa$catch$1 000000018003baa8     ua.obj
 0002:00014aa8       $unwind$_wrap_outctx_base_t_out_btoa$catch$3 000000018003baa8     ua.obj
 0002:00014aa8       $unwind$_wrap_outctx_base_t_out_btoa$catch$5 000000018003baa8     ua.obj
 0002:00014ab8       $unwind$_wrap_outctx_base_t_out_long 000000018003bab8     ua.obj
 0002:00014adc       $tryMap$_wrap_outctx_base_t_out_long 000000018003badc     ua.obj
 0002:00014af0       $handlerMap$0$_wrap_outctx_base_t_out_long 000000018003baf0     ua.obj
 0002:00014b68       $ip2state$_wrap_outctx_base_t_out_long 000000018003bb68     ua.obj
 0002:00014b98       $unwind$_wrap_outctx_base_t_out_long$catch$0 000000018003bb98     ua.obj
 0002:00014b98       $unwind$_wrap_outctx_base_t_out_long$catch$1 000000018003bb98     ua.obj
 0002:00014b98       $unwind$_wrap_outctx_base_t_out_long$catch$2 000000018003bb98     ua.obj
 0002:00014b98       $unwind$_wrap_outctx_base_t_out_long$catch$3 000000018003bb98     ua.obj
 0002:00014b98       $unwind$_wrap_outctx_base_t_out_long$catch$4 000000018003bb98     ua.obj
 0002:00014b98       $unwind$_wrap_outctx_base_t_out_long$catch$5 000000018003bb98     ua.obj
 0002:00014ba8       $unwind$_wrap_outctx_base_t_out_name_expr 000000018003bba8     ua.obj
 0002:00014bd0       $tryMap$_wrap_outctx_base_t_out_name_expr 000000018003bbd0     ua.obj
 0002:00014be4       $handlerMap$0$_wrap_outctx_base_t_out_name_expr 000000018003bbe4     ua.obj
 0002:00014c60       $ip2state$_wrap_outctx_base_t_out_name_expr 000000018003bc60     ua.obj
 0002:00014c90       $unwind$_wrap_outctx_base_t_out_name_expr$catch$5 000000018003bc90     ua.obj
 0002:00014c90       $unwind$_wrap_outctx_base_t_out_name_expr$catch$4 000000018003bc90     ua.obj
 0002:00014c90       $unwind$_wrap_outctx_base_t_out_name_expr$catch$3 000000018003bc90     ua.obj
 0002:00014c90       $unwind$_wrap_outctx_base_t_out_name_expr$catch$0 000000018003bc90     ua.obj
 0002:00014c90       $unwind$_wrap_outctx_base_t_out_name_expr$catch$1 000000018003bc90     ua.obj
 0002:00014c90       $unwind$_wrap_outctx_base_t_out_name_expr$catch$2 000000018003bc90     ua.obj
 0002:00014ca0       $unwind$_wrap_outctx_base_t_close_comment 000000018003bca0     ua.obj
 0002:00014cbc       $tryMap$_wrap_outctx_base_t_close_comment 000000018003bcbc     ua.obj
 0002:00014cd0       $handlerMap$0$_wrap_outctx_base_t_close_comment 000000018003bcd0     ua.obj
 0002:00014d48       $ip2state$_wrap_outctx_base_t_close_comment 000000018003bd48     ua.obj
 0002:00014d70       $unwind$_wrap_outctx_base_t_close_comment$catch$0 000000018003bd70     ua.obj
 0002:00014d70       $unwind$_wrap_outctx_base_t_close_comment$catch$5 000000018003bd70     ua.obj
 0002:00014d70       $unwind$_wrap_outctx_base_t_close_comment$catch$2 000000018003bd70     ua.obj
 0002:00014d70       $unwind$_wrap_outctx_base_t_close_comment$catch$3 000000018003bd70     ua.obj
 0002:00014d70       $unwind$_wrap_outctx_base_t_close_comment$catch$4 000000018003bd70     ua.obj
 0002:00014d70       $unwind$_wrap_outctx_base_t_close_comment$catch$1 000000018003bd70     ua.obj
 0002:00014d80       $unwind$_wrap_outctx_base_t_flush_outbuf 000000018003bd80     ua.obj
 0002:00014da0       $tryMap$_wrap_outctx_base_t_flush_outbuf 000000018003bda0     ua.obj
 0002:00014db4       $handlerMap$0$_wrap_outctx_base_t_flush_outbuf 000000018003bdb4     ua.obj
 0002:00014e30       $ip2state$_wrap_outctx_base_t_flush_outbuf 000000018003be30     ua.obj
 0002:00014e58       $unwind$_wrap_outctx_base_t_flush_outbuf$catch$0 000000018003be58     ua.obj
 0002:00014e58       $unwind$_wrap_outctx_base_t_flush_outbuf$catch$1 000000018003be58     ua.obj
 0002:00014e58       $unwind$_wrap_outctx_base_t_flush_outbuf$catch$2 000000018003be58     ua.obj
 0002:00014e58       $unwind$_wrap_outctx_base_t_flush_outbuf$catch$5 000000018003be58     ua.obj
 0002:00014e58       $unwind$_wrap_outctx_base_t_flush_outbuf$catch$4 000000018003be58     ua.obj
 0002:00014e58       $unwind$_wrap_outctx_base_t_flush_outbuf$catch$3 000000018003be58     ua.obj
 0002:00014e68       $unwind$_wrap_outctx_base_t_flush_buf 000000018003be68     ua.obj
 0002:00014e90       $tryMap$_wrap_outctx_base_t_flush_buf 000000018003be90     ua.obj
 0002:00014ea4       $handlerMap$0$_wrap_outctx_base_t_flush_buf 000000018003bea4     ua.obj
 0002:00014f20       $ip2state$_wrap_outctx_base_t_flush_buf 000000018003bf20     ua.obj
 0002:00014f50       $unwind$_wrap_outctx_base_t_flush_buf$catch$0 000000018003bf50     ua.obj
 0002:00014f50       $unwind$_wrap_outctx_base_t_flush_buf$catch$5 000000018003bf50     ua.obj
 0002:00014f50       $unwind$_wrap_outctx_base_t_flush_buf$catch$4 000000018003bf50     ua.obj
 0002:00014f50       $unwind$_wrap_outctx_base_t_flush_buf$catch$3 000000018003bf50     ua.obj
 0002:00014f50       $unwind$_wrap_outctx_base_t_flush_buf$catch$1 000000018003bf50     ua.obj
 0002:00014f50       $unwind$_wrap_outctx_base_t_flush_buf$catch$2 000000018003bf50     ua.obj
 0002:00014f60       $unwind$_wrap_outctx_base_t_term_outctx 000000018003bf60     ua.obj
 0002:00014f80       $tryMap$_wrap_outctx_base_t_term_outctx 000000018003bf80     ua.obj
 0002:00014f94       $handlerMap$0$_wrap_outctx_base_t_term_outctx 000000018003bf94     ua.obj
 0002:00015010       $ip2state$_wrap_outctx_base_t_term_outctx 000000018003c010     ua.obj
 0002:00015040       $unwind$_wrap_outctx_base_t_term_outctx$catch$4 000000018003c040     ua.obj
 0002:00015040       $unwind$_wrap_outctx_base_t_term_outctx$catch$2 000000018003c040     ua.obj
 0002:00015040       $unwind$_wrap_outctx_base_t_term_outctx$catch$3 000000018003c040     ua.obj
 0002:00015040       $unwind$_wrap_outctx_base_t_term_outctx$catch$1 000000018003c040     ua.obj
 0002:00015040       $unwind$_wrap_outctx_base_t_term_outctx$catch$0 000000018003c040     ua.obj
 0002:00015040       $unwind$_wrap_outctx_base_t_term_outctx$catch$5 000000018003c040     ua.obj
 0002:00015050       $unwind$_wrap_outctx_base_t_gen_printf__varargs__ 000000018003c050     ua.obj
 0002:00015074       $tryMap$_wrap_outctx_base_t_gen_printf__varargs__ 000000018003c074     ua.obj
 0002:00015088       $handlerMap$0$_wrap_outctx_base_t_gen_printf__varargs__ 000000018003c088     ua.obj
 0002:00015100       $ip2state$_wrap_outctx_base_t_gen_printf__varargs__ 000000018003c100     ua.obj
 0002:00015128       $unwind$_wrap_outctx_base_t_gen_printf__varargs__$catch$0 000000018003c128     ua.obj
 0002:00015128       $unwind$_wrap_outctx_base_t_gen_printf__varargs__$catch$1 000000018003c128     ua.obj
 0002:00015128       $unwind$_wrap_outctx_base_t_gen_printf__varargs__$catch$2 000000018003c128     ua.obj
 0002:00015128       $unwind$_wrap_outctx_base_t_gen_printf__varargs__$catch$3 000000018003c128     ua.obj
 0002:00015128       $unwind$_wrap_outctx_base_t_gen_printf__varargs__$catch$4 000000018003c128     ua.obj
 0002:00015128       $unwind$_wrap_outctx_base_t_gen_printf__varargs__$catch$5 000000018003c128     ua.obj
 0002:00015138       $unwind$_wrap_outctx_base_t_gen_empty_line 000000018003c138     ua.obj
 0002:00015158       $tryMap$_wrap_outctx_base_t_gen_empty_line 000000018003c158     ua.obj
 0002:0001516c       $handlerMap$0$_wrap_outctx_base_t_gen_empty_line 000000018003c16c     ua.obj
 0002:000151e8       $ip2state$_wrap_outctx_base_t_gen_empty_line 000000018003c1e8     ua.obj
 0002:00015210       $unwind$_wrap_outctx_base_t_gen_empty_line$catch$0 000000018003c210     ua.obj
 0002:00015210       $unwind$_wrap_outctx_base_t_gen_empty_line$catch$1 000000018003c210     ua.obj
 0002:00015210       $unwind$_wrap_outctx_base_t_gen_empty_line$catch$2 000000018003c210     ua.obj
 0002:00015210       $unwind$_wrap_outctx_base_t_gen_empty_line$catch$5 000000018003c210     ua.obj
 0002:00015210       $unwind$_wrap_outctx_base_t_gen_empty_line$catch$4 000000018003c210     ua.obj
 0002:00015210       $unwind$_wrap_outctx_base_t_gen_empty_line$catch$3 000000018003c210     ua.obj
 0002:00015220       $unwind$_wrap_outctx_base_t_gen_border_line 000000018003c220     ua.obj
 0002:00015240       $tryMap$_wrap_outctx_base_t_gen_border_line 000000018003c240     ua.obj
 0002:00015254       $handlerMap$0$_wrap_outctx_base_t_gen_border_line 000000018003c254     ua.obj
 0002:000152d0       $ip2state$_wrap_outctx_base_t_gen_border_line 000000018003c2d0     ua.obj
 0002:000152f8       $unwind$_wrap_outctx_base_t_gen_border_line$catch$4 000000018003c2f8     ua.obj
 0002:000152f8       $unwind$_wrap_outctx_base_t_gen_border_line$catch$2 000000018003c2f8     ua.obj
 0002:000152f8       $unwind$_wrap_outctx_base_t_gen_border_line$catch$5 000000018003c2f8     ua.obj
 0002:000152f8       $unwind$_wrap_outctx_base_t_gen_border_line$catch$0 000000018003c2f8     ua.obj
 0002:000152f8       $unwind$_wrap_outctx_base_t_gen_border_line$catch$3 000000018003c2f8     ua.obj
 0002:000152f8       $unwind$_wrap_outctx_base_t_gen_border_line$catch$1 000000018003c2f8     ua.obj
 0002:00015308       $unwind$_wrap_outctx_base_t_gen_cmt_line__varargs__ 000000018003c308     ua.obj
 0002:00015328       $tryMap$_wrap_outctx_base_t_gen_cmt_line__varargs__ 000000018003c328     ua.obj
 0002:0001533c       $handlerMap$0$_wrap_outctx_base_t_gen_cmt_line__varargs__ 000000018003c33c     ua.obj
 0002:000153b8       $ip2state$_wrap_outctx_base_t_gen_cmt_line__varargs__ 000000018003c3b8     ua.obj
 0002:000153e0       $unwind$_wrap_outctx_base_t_gen_cmt_line__varargs__$catch$0 000000018003c3e0     ua.obj
 0002:000153e0       $unwind$_wrap_outctx_base_t_gen_cmt_line__varargs__$catch$1 000000018003c3e0     ua.obj
 0002:000153e0       $unwind$_wrap_outctx_base_t_gen_cmt_line__varargs__$catch$2 000000018003c3e0     ua.obj
 0002:000153e0       $unwind$_wrap_outctx_base_t_gen_cmt_line__varargs__$catch$3 000000018003c3e0     ua.obj
 0002:000153e0       $unwind$_wrap_outctx_base_t_gen_cmt_line__varargs__$catch$4 000000018003c3e0     ua.obj
 0002:000153e0       $unwind$_wrap_outctx_base_t_gen_cmt_line__varargs__$catch$5 000000018003c3e0     ua.obj
 0002:000153f0       $unwind$_wrap_outctx_base_t_gen_collapsed_line__varargs__ 000000018003c3f0     ua.obj
 0002:00015410       $tryMap$_wrap_outctx_base_t_gen_collapsed_line__varargs__ 000000018003c410     ua.obj
 0002:00015424       $handlerMap$0$_wrap_outctx_base_t_gen_collapsed_line__varargs__ 000000018003c424     ua.obj
 0002:000154a0       $ip2state$_wrap_outctx_base_t_gen_collapsed_line__varargs__ 000000018003c4a0     ua.obj
 0002:000154c8       $unwind$_wrap_outctx_base_t_gen_collapsed_line__varargs__$catch$1 000000018003c4c8     ua.obj
 0002:000154c8       $unwind$_wrap_outctx_base_t_gen_collapsed_line__varargs__$catch$2 000000018003c4c8     ua.obj
 0002:000154c8       $unwind$_wrap_outctx_base_t_gen_collapsed_line__varargs__$catch$4 000000018003c4c8     ua.obj
 0002:000154c8       $unwind$_wrap_outctx_base_t_gen_collapsed_line__varargs__$catch$3 000000018003c4c8     ua.obj
 0002:000154c8       $unwind$_wrap_outctx_base_t_gen_collapsed_line__varargs__$catch$5 000000018003c4c8     ua.obj
 0002:000154c8       $unwind$_wrap_outctx_base_t_gen_collapsed_line__varargs__$catch$0 000000018003c4c8     ua.obj
 0002:000154d8       $unwind$_wrap_outctx_base_t_gen_block_cmt 000000018003c4d8     ua.obj
 0002:00015500       $tryMap$_wrap_outctx_base_t_gen_block_cmt 000000018003c500     ua.obj
 0002:00015514       $handlerMap$0$_wrap_outctx_base_t_gen_block_cmt 000000018003c514     ua.obj
 0002:00015590       $ip2state$_wrap_outctx_base_t_gen_block_cmt 000000018003c590     ua.obj
 0002:000155c0       $unwind$_wrap_outctx_base_t_gen_block_cmt$catch$1 000000018003c5c0     ua.obj
 0002:000155c0       $unwind$_wrap_outctx_base_t_gen_block_cmt$catch$2 000000018003c5c0     ua.obj
 0002:000155c0       $unwind$_wrap_outctx_base_t_gen_block_cmt$catch$3 000000018003c5c0     ua.obj
 0002:000155c0       $unwind$_wrap_outctx_base_t_gen_block_cmt$catch$4 000000018003c5c0     ua.obj
 0002:000155c0       $unwind$_wrap_outctx_base_t_gen_block_cmt$catch$5 000000018003c5c0     ua.obj
 0002:000155c0       $unwind$_wrap_outctx_base_t_gen_block_cmt$catch$0 000000018003c5c0     ua.obj
 0002:000155d0       $unwind$_wrap_outctx_base_t_setup_outctx 000000018003c5d0     ua.obj
 0002:000155f4       $tryMap$_wrap_outctx_base_t_setup_outctx 000000018003c5f4     ua.obj
 0002:00015608       $handlerMap$0$_wrap_outctx_base_t_setup_outctx 000000018003c608     ua.obj
 0002:00015680       $ip2state$_wrap_outctx_base_t_setup_outctx 000000018003c680     ua.obj
 0002:000156b0       $unwind$_wrap_outctx_base_t_setup_outctx$catch$1 000000018003c6b0     ua.obj
 0002:000156b0       $unwind$_wrap_outctx_base_t_setup_outctx$catch$2 000000018003c6b0     ua.obj
 0002:000156b0       $unwind$_wrap_outctx_base_t_setup_outctx$catch$3 000000018003c6b0     ua.obj
 0002:000156b0       $unwind$_wrap_outctx_base_t_setup_outctx$catch$4 000000018003c6b0     ua.obj
 0002:000156b0       $unwind$_wrap_outctx_base_t_setup_outctx$catch$5 000000018003c6b0     ua.obj
 0002:000156b0       $unwind$_wrap_outctx_base_t_setup_outctx$catch$0 000000018003c6b0     ua.obj
 0002:000156c0       $unwind$_wrap_outctx_base_t_retrieve_cmt 000000018003c6c0     ua.obj
 0002:000156dc       $tryMap$_wrap_outctx_base_t_retrieve_cmt 000000018003c6dc     ua.obj
 0002:000156f0       $handlerMap$0$_wrap_outctx_base_t_retrieve_cmt 000000018003c6f0     ua.obj
 0002:00015768       $ip2state$_wrap_outctx_base_t_retrieve_cmt 000000018003c768     ua.obj
 0002:00015790       $unwind$_wrap_outctx_base_t_retrieve_cmt$catch$2 000000018003c790     ua.obj
 0002:00015790       $unwind$_wrap_outctx_base_t_retrieve_cmt$catch$1 000000018003c790     ua.obj
 0002:00015790       $unwind$_wrap_outctx_base_t_retrieve_cmt$catch$0 000000018003c790     ua.obj
 0002:00015790       $unwind$_wrap_outctx_base_t_retrieve_cmt$catch$4 000000018003c790     ua.obj
 0002:00015790       $unwind$_wrap_outctx_base_t_retrieve_cmt$catch$5 000000018003c790     ua.obj
 0002:00015790       $unwind$_wrap_outctx_base_t_retrieve_cmt$catch$3 000000018003c790     ua.obj
 0002:000157a0       $unwind$_wrap_outctx_base_t_retrieve_name 000000018003c7a0     ua.obj
 0002:000157c8       $tryMap$_wrap_outctx_base_t_retrieve_name 000000018003c7c8     ua.obj
 0002:000157dc       $handlerMap$0$_wrap_outctx_base_t_retrieve_name 000000018003c7dc     ua.obj
 0002:00015858       $ip2state$_wrap_outctx_base_t_retrieve_name 000000018003c858     ua.obj
 0002:00015888       $unwind$_wrap_outctx_base_t_retrieve_name$catch$5 000000018003c888     ua.obj
 0002:00015888       $unwind$_wrap_outctx_base_t_retrieve_name$catch$4 000000018003c888     ua.obj
 0002:00015888       $unwind$_wrap_outctx_base_t_retrieve_name$catch$3 000000018003c888     ua.obj
 0002:00015888       $unwind$_wrap_outctx_base_t_retrieve_name$catch$7 000000018003c888     ua.obj
 0002:00015888       $unwind$_wrap_outctx_base_t_retrieve_name$catch$8 000000018003c888     ua.obj
 0002:00015888       $unwind$_wrap_outctx_base_t_retrieve_name$catch$6 000000018003c888     ua.obj
 0002:00015898       $unwind$_wrap_outctx_base_t_gen_xref_lines 000000018003c898     ua.obj
 0002:000158b8       $tryMap$_wrap_outctx_base_t_gen_xref_lines 000000018003c8b8     ua.obj
 0002:000158cc       $handlerMap$0$_wrap_outctx_base_t_gen_xref_lines 000000018003c8cc     ua.obj
 0002:00015948       $ip2state$_wrap_outctx_base_t_gen_xref_lines 000000018003c948     ua.obj
 0002:00015970       $unwind$_wrap_outctx_base_t_gen_xref_lines$catch$2 000000018003c970     ua.obj
 0002:00015970       $unwind$_wrap_outctx_base_t_gen_xref_lines$catch$1 000000018003c970     ua.obj
 0002:00015970       $unwind$_wrap_outctx_base_t_gen_xref_lines$catch$0 000000018003c970     ua.obj
 0002:00015970       $unwind$_wrap_outctx_base_t_gen_xref_lines$catch$3 000000018003c970     ua.obj
 0002:00015970       $unwind$_wrap_outctx_base_t_gen_xref_lines$catch$4 000000018003c970     ua.obj
 0002:00015970       $unwind$_wrap_outctx_base_t_gen_xref_lines$catch$5 000000018003c970     ua.obj
 0002:00015980       $unwind$_wrap_outctx_base_t_init_lines_array 000000018003c980     ua.obj
 0002:000159a8       $tryMap$_wrap_outctx_base_t_init_lines_array 000000018003c9a8     ua.obj
 0002:000159bc       $handlerMap$0$_wrap_outctx_base_t_init_lines_array 000000018003c9bc     ua.obj
 0002:00015a38       $ip2state$_wrap_outctx_base_t_init_lines_array 000000018003ca38     ua.obj
 0002:00015a68       $unwind$_wrap_outctx_base_t_init_lines_array$catch$0 000000018003ca68     ua.obj
 0002:00015a68       $unwind$_wrap_outctx_base_t_init_lines_array$catch$1 000000018003ca68     ua.obj
 0002:00015a68       $unwind$_wrap_outctx_base_t_init_lines_array$catch$2 000000018003ca68     ua.obj
 0002:00015a68       $unwind$_wrap_outctx_base_t_init_lines_array$catch$3 000000018003ca68     ua.obj
 0002:00015a68       $unwind$_wrap_outctx_base_t_init_lines_array$catch$4 000000018003ca68     ua.obj
 0002:00015a68       $unwind$_wrap_outctx_base_t_init_lines_array$catch$5 000000018003ca68     ua.obj
 0002:00015a78       $unwind$_wrap_outctx_base_t_get_stkvar 000000018003ca78     ua.obj
 0002:00015aa0       $tryMap$_wrap_outctx_base_t_get_stkvar 000000018003caa0     ua.obj
 0002:00015ab4       $handlerMap$0$_wrap_outctx_base_t_get_stkvar 000000018003cab4     ua.obj
 0002:00015b30       $ip2state$_wrap_outctx_base_t_get_stkvar 000000018003cb30     ua.obj
 0002:00015b60       $unwind$_wrap_outctx_base_t_get_stkvar$catch$0 000000018003cb60     ua.obj
 0002:00015b60       $unwind$_wrap_outctx_base_t_get_stkvar$catch$1 000000018003cb60     ua.obj
 0002:00015b60       $unwind$_wrap_outctx_base_t_get_stkvar$catch$5 000000018003cb60     ua.obj
 0002:00015b60       $unwind$_wrap_outctx_base_t_get_stkvar$catch$3 000000018003cb60     ua.obj
 0002:00015b60       $unwind$_wrap_outctx_base_t_get_stkvar$catch$4 000000018003cb60     ua.obj
 0002:00015b60       $unwind$_wrap_outctx_base_t_get_stkvar$catch$2 000000018003cb60     ua.obj
 0002:00015b70       $unwind$_wrap_outctx_base_t_gen_empty_line_without_annotations 000000018003cb70     ua.obj
 0002:00015b8c       $tryMap$_wrap_outctx_base_t_gen_empty_line_without_annotations 000000018003cb8c     ua.obj
 0002:00015ba0       $handlerMap$0$_wrap_outctx_base_t_gen_empty_line_without_annotations 000000018003cba0     ua.obj
 0002:00015c18       $ip2state$_wrap_outctx_base_t_gen_empty_line_without_annotations 000000018003cc18     ua.obj
 0002:00015c40       $unwind$_wrap_outctx_base_t_gen_empty_line_without_annotations$catch$2 000000018003cc40     ua.obj
 0002:00015c40       $unwind$_wrap_outctx_base_t_gen_empty_line_without_annotations$catch$5 000000018003cc40     ua.obj
 0002:00015c40       $unwind$_wrap_outctx_base_t_gen_empty_line_without_annotations$catch$1 000000018003cc40     ua.obj
 0002:00015c40       $unwind$_wrap_outctx_base_t_gen_empty_line_without_annotations$catch$0 000000018003cc40     ua.obj
 0002:00015c40       $unwind$_wrap_outctx_base_t_gen_empty_line_without_annotations$catch$4 000000018003cc40     ua.obj
 0002:00015c40       $unwind$_wrap_outctx_base_t_gen_empty_line_without_annotations$catch$3 000000018003cc40     ua.obj
 0002:00015c50       $chain$0$_wrap_outctx_t_bin_ea_set 000000018003cc50     ua.obj
 0002:00015c64       $chain$1$_wrap_outctx_t_bin_ea_set 000000018003cc64     ua.obj
 0002:00015c74       $chain$0$_wrap_outctx_t_bin_ea_get 000000018003cc74     ua.obj
 0002:00015c88       $chain$1$_wrap_outctx_t_bin_ea_get 000000018003cc88     ua.obj
 0002:00015c98       $chain$0$_wrap_outctx_t_bin_state_set 000000018003cc98     ua.obj
 0002:00015cac       $chain$1$_wrap_outctx_t_bin_state_set 000000018003ccac     ua.obj
 0002:00015cbc       $chain$0$_wrap_outctx_t_bin_state_get 000000018003ccbc     ua.obj
 0002:00015cd0       $chain$1$_wrap_outctx_t_bin_state_get 000000018003ccd0     ua.obj
 0002:00015ce0       $chain$0$_wrap_outctx_t_gl_bpsize_set 000000018003cce0     ua.obj
 0002:00015cf4       $chain$1$_wrap_outctx_t_gl_bpsize_set 000000018003ccf4     ua.obj
 0002:00015d04       $chain$0$_wrap_outctx_t_gl_bpsize_get 000000018003cd04     ua.obj
 0002:00015d18       $chain$1$_wrap_outctx_t_gl_bpsize_get 000000018003cd18     ua.obj
 0002:00015d28       $chain$0$_wrap_outctx_t_bin_width_set 000000018003cd28     ua.obj
 0002:00015d3c       $chain$1$_wrap_outctx_t_bin_width_set 000000018003cd3c     ua.obj
 0002:00015d4c       $chain$0$_wrap_outctx_t_bin_width_get 000000018003cd4c     ua.obj
 0002:00015d60       $chain$1$_wrap_outctx_t_bin_width_get 000000018003cd60     ua.obj
 0002:00015d70       $unwind$_wrap_outctx_t_insn_set 000000018003cd70     ua.obj
 0002:00015d88       $chain$0$_wrap_outctx_t_insn_get 000000018003cd88     ua.obj
 0002:00015d9c       $chain$1$_wrap_outctx_t_insn_get 000000018003cd9c     ua.obj
 0002:00015dac       $chain$0$_wrap_outctx_t_curlabel_set 000000018003cdac     ua.obj
 0002:00015dc0       $chain$1$_wrap_outctx_t_curlabel_set 000000018003cdc0     ua.obj
 0002:00015dd0       $chain$0$_wrap_outctx_t_curlabel_get 000000018003cdd0     ua.obj
 0002:00015de4       $chain$1$_wrap_outctx_t_curlabel_get 000000018003cde4     ua.obj
 0002:00015df4       $chain$0$_wrap_outctx_t_wif_get 000000018003cdf4     ua.obj
 0002:00015e08       $chain$1$_wrap_outctx_t_wif_get 000000018003ce08     ua.obj
 0002:00015e18       $unwind$_wrap_outctx_t_setup_outctx 000000018003ce18     ua.obj
 0002:00015e3c       $tryMap$_wrap_outctx_t_setup_outctx 000000018003ce3c     ua.obj
 0002:00015e50       $handlerMap$0$_wrap_outctx_t_setup_outctx 000000018003ce50     ua.obj
 0002:00015ec8       $ip2state$_wrap_outctx_t_setup_outctx 000000018003cec8     ua.obj
 0002:00015ef8       $unwind$_wrap_outctx_t_setup_outctx$catch$1 000000018003cef8     ua.obj
 0002:00015ef8       $unwind$_wrap_outctx_t_setup_outctx$catch$5 000000018003cef8     ua.obj
 0002:00015ef8       $unwind$_wrap_outctx_t_setup_outctx$catch$2 000000018003cef8     ua.obj
 0002:00015ef8       $unwind$_wrap_outctx_t_setup_outctx$catch$3 000000018003cef8     ua.obj
 0002:00015ef8       $unwind$_wrap_outctx_t_setup_outctx$catch$4 000000018003cef8     ua.obj
 0002:00015ef8       $unwind$_wrap_outctx_t_setup_outctx$catch$0 000000018003cef8     ua.obj
 0002:00015f08       $unwind$_wrap_outctx_t_retrieve_cmt 000000018003cf08     ua.obj
 0002:00015f24       $tryMap$_wrap_outctx_t_retrieve_cmt 000000018003cf24     ua.obj
 0002:00015f38       $handlerMap$0$_wrap_outctx_t_retrieve_cmt 000000018003cf38     ua.obj
 0002:00015fb0       $ip2state$_wrap_outctx_t_retrieve_cmt 000000018003cfb0     ua.obj
 0002:00015fd8       $unwind$_wrap_outctx_t_retrieve_cmt$catch$5 000000018003cfd8     ua.obj
 0002:00015fd8       $unwind$_wrap_outctx_t_retrieve_cmt$catch$1 000000018003cfd8     ua.obj
 0002:00015fd8       $unwind$_wrap_outctx_t_retrieve_cmt$catch$2 000000018003cfd8     ua.obj
 0002:00015fd8       $unwind$_wrap_outctx_t_retrieve_cmt$catch$3 000000018003cfd8     ua.obj
 0002:00015fd8       $unwind$_wrap_outctx_t_retrieve_cmt$catch$4 000000018003cfd8     ua.obj
 0002:00015fd8       $unwind$_wrap_outctx_t_retrieve_cmt$catch$0 000000018003cfd8     ua.obj
 0002:00015fe8       $unwind$_wrap_outctx_t_retrieve_name 000000018003cfe8     ua.obj
 0002:00016010       $tryMap$_wrap_outctx_t_retrieve_name 000000018003d010     ua.obj
 0002:00016024       $handlerMap$0$_wrap_outctx_t_retrieve_name 000000018003d024     ua.obj
 0002:000160a0       $ip2state$_wrap_outctx_t_retrieve_name 000000018003d0a0     ua.obj
 0002:000160d0       $unwind$_wrap_outctx_t_retrieve_name$catch$5 000000018003d0d0     ua.obj
 0002:000160d0       $unwind$_wrap_outctx_t_retrieve_name$catch$7 000000018003d0d0     ua.obj
 0002:000160d0       $unwind$_wrap_outctx_t_retrieve_name$catch$4 000000018003d0d0     ua.obj
 0002:000160d0       $unwind$_wrap_outctx_t_retrieve_name$catch$3 000000018003d0d0     ua.obj
 0002:000160d0       $unwind$_wrap_outctx_t_retrieve_name$catch$8 000000018003d0d0     ua.obj
 0002:000160d0       $unwind$_wrap_outctx_t_retrieve_name$catch$6 000000018003d0d0     ua.obj
 0002:000160e0       $unwind$_wrap_outctx_t_gen_xref_lines 000000018003d0e0     ua.obj
 0002:00016100       $tryMap$_wrap_outctx_t_gen_xref_lines 000000018003d100     ua.obj
 0002:00016114       $handlerMap$0$_wrap_outctx_t_gen_xref_lines 000000018003d114     ua.obj
 0002:00016190       $ip2state$_wrap_outctx_t_gen_xref_lines 000000018003d190     ua.obj
 0002:000161b8       $unwind$_wrap_outctx_t_gen_xref_lines$catch$2 000000018003d1b8     ua.obj
 0002:000161b8       $unwind$_wrap_outctx_t_gen_xref_lines$catch$3 000000018003d1b8     ua.obj
 0002:000161b8       $unwind$_wrap_outctx_t_gen_xref_lines$catch$1 000000018003d1b8     ua.obj
 0002:000161b8       $unwind$_wrap_outctx_t_gen_xref_lines$catch$4 000000018003d1b8     ua.obj
 0002:000161b8       $unwind$_wrap_outctx_t_gen_xref_lines$catch$5 000000018003d1b8     ua.obj
 0002:000161b8       $unwind$_wrap_outctx_t_gen_xref_lines$catch$0 000000018003d1b8     ua.obj
 0002:000161c8       $unwind$_wrap_outctx_t_out_mnem 000000018003d1c8     ua.obj
 0002:000161f0       $tryMap$_wrap_outctx_t_out_mnem 000000018003d1f0     ua.obj
 0002:00016204       $handlerMap$0$_wrap_outctx_t_out_mnem 000000018003d204     ua.obj
 0002:00016280       $ip2state$_wrap_outctx_t_out_mnem 000000018003d280     ua.obj
 0002:000162b0       $unwind$_wrap_outctx_t_out_mnem$catch$5 000000018003d2b0     ua.obj
 0002:000162b0       $unwind$_wrap_outctx_t_out_mnem$catch$0 000000018003d2b0     ua.obj
 0002:000162b0       $unwind$_wrap_outctx_t_out_mnem$catch$1 000000018003d2b0     ua.obj
 0002:000162b0       $unwind$_wrap_outctx_t_out_mnem$catch$2 000000018003d2b0     ua.obj
 0002:000162b0       $unwind$_wrap_outctx_t_out_mnem$catch$3 000000018003d2b0     ua.obj
 0002:000162b0       $unwind$_wrap_outctx_t_out_mnem$catch$4 000000018003d2b0     ua.obj
 0002:000162c0       $unwind$_wrap_outctx_t_out_custom_mnem 000000018003d2c0     ua.obj
 0002:000162e8       $tryMap$_wrap_outctx_t_out_custom_mnem 000000018003d2e8     ua.obj
 0002:000162fc       $handlerMap$0$_wrap_outctx_t_out_custom_mnem 000000018003d2fc     ua.obj
 0002:00016378       $ip2state$_wrap_outctx_t_out_custom_mnem 000000018003d378     ua.obj
 0002:000163a8       $unwind$_wrap_outctx_t_out_custom_mnem$catch$0 000000018003d3a8     ua.obj
 0002:000163a8       $unwind$_wrap_outctx_t_out_custom_mnem$catch$3 000000018003d3a8     ua.obj
 0002:000163a8       $unwind$_wrap_outctx_t_out_custom_mnem$catch$4 000000018003d3a8     ua.obj
 0002:000163a8       $unwind$_wrap_outctx_t_out_custom_mnem$catch$2 000000018003d3a8     ua.obj
 0002:000163a8       $unwind$_wrap_outctx_t_out_custom_mnem$catch$1 000000018003d3a8     ua.obj
 0002:000163a8       $unwind$_wrap_outctx_t_out_custom_mnem$catch$5 000000018003d3a8     ua.obj
 0002:000163b8       $unwind$_wrap_outctx_t_out_mnemonic 000000018003d3b8     ua.obj
 0002:000163d4       $tryMap$_wrap_outctx_t_out_mnemonic 000000018003d3d4     ua.obj
 0002:000163e8       $handlerMap$0$_wrap_outctx_t_out_mnemonic 000000018003d3e8     ua.obj
 0002:00016460       $ip2state$_wrap_outctx_t_out_mnemonic 000000018003d460     ua.obj
 0002:00016488       $unwind$_wrap_outctx_t_out_mnemonic$catch$0 000000018003d488     ua.obj
 0002:00016488       $unwind$_wrap_outctx_t_out_mnemonic$catch$1 000000018003d488     ua.obj
 0002:00016488       $unwind$_wrap_outctx_t_out_mnemonic$catch$2 000000018003d488     ua.obj
 0002:00016488       $unwind$_wrap_outctx_t_out_mnemonic$catch$3 000000018003d488     ua.obj
 0002:00016488       $unwind$_wrap_outctx_t_out_mnemonic$catch$4 000000018003d488     ua.obj
 0002:00016488       $unwind$_wrap_outctx_t_out_mnemonic$catch$5 000000018003d488     ua.obj
 0002:00016498       $unwind$_wrap_outctx_t_out_one_operand 000000018003d498     ua.obj
 0002:000164b8       $tryMap$_wrap_outctx_t_out_one_operand 000000018003d4b8     ua.obj
 0002:000164cc       $handlerMap$0$_wrap_outctx_t_out_one_operand 000000018003d4cc     ua.obj
 0002:00016548       $ip2state$_wrap_outctx_t_out_one_operand 000000018003d548     ua.obj
 0002:00016570       $unwind$_wrap_outctx_t_out_one_operand$catch$0 000000018003d570     ua.obj
 0002:00016570       $unwind$_wrap_outctx_t_out_one_operand$catch$2 000000018003d570     ua.obj
 0002:00016570       $unwind$_wrap_outctx_t_out_one_operand$catch$4 000000018003d570     ua.obj
 0002:00016570       $unwind$_wrap_outctx_t_out_one_operand$catch$3 000000018003d570     ua.obj
 0002:00016570       $unwind$_wrap_outctx_t_out_one_operand$catch$5 000000018003d570     ua.obj
 0002:00016570       $unwind$_wrap_outctx_t_out_one_operand$catch$1 000000018003d570     ua.obj
 0002:00016580       $unwind$_wrap_outctx_t_out_immchar_cmts 000000018003d580     ua.obj
 0002:0001659c       $tryMap$_wrap_outctx_t_out_immchar_cmts 000000018003d59c     ua.obj
 0002:000165b0       $handlerMap$0$_wrap_outctx_t_out_immchar_cmts 000000018003d5b0     ua.obj
 0002:00016628       $ip2state$_wrap_outctx_t_out_immchar_cmts 000000018003d628     ua.obj
 0002:00016650       $unwind$_wrap_outctx_t_out_immchar_cmts$catch$0 000000018003d650     ua.obj
 0002:00016650       $unwind$_wrap_outctx_t_out_immchar_cmts$catch$2 000000018003d650     ua.obj
 0002:00016650       $unwind$_wrap_outctx_t_out_immchar_cmts$catch$5 000000018003d650     ua.obj
 0002:00016650       $unwind$_wrap_outctx_t_out_immchar_cmts$catch$3 000000018003d650     ua.obj
 0002:00016650       $unwind$_wrap_outctx_t_out_immchar_cmts$catch$1 000000018003d650     ua.obj
 0002:00016650       $unwind$_wrap_outctx_t_out_immchar_cmts$catch$4 000000018003d650     ua.obj
 0002:00016660       $unwind$_wrap_outctx_t_gen_func_header 000000018003d660     ua.obj
 0002:00016680       $tryMap$_wrap_outctx_t_gen_func_header 000000018003d680     ua.obj
 0002:00016694       $handlerMap$0$_wrap_outctx_t_gen_func_header 000000018003d694     ua.obj
 0002:00016710       $ip2state$_wrap_outctx_t_gen_func_header 000000018003d710     ua.obj
 0002:00016740       $unwind$_wrap_outctx_t_gen_func_header$catch$2 000000018003d740     ua.obj
 0002:00016740       $unwind$_wrap_outctx_t_gen_func_header$catch$5 000000018003d740     ua.obj
 0002:00016740       $unwind$_wrap_outctx_t_gen_func_header$catch$1 000000018003d740     ua.obj
 0002:00016740       $unwind$_wrap_outctx_t_gen_func_header$catch$4 000000018003d740     ua.obj
 0002:00016740       $unwind$_wrap_outctx_t_gen_func_header$catch$0 000000018003d740     ua.obj
 0002:00016740       $unwind$_wrap_outctx_t_gen_func_header$catch$3 000000018003d740     ua.obj
 0002:00016750       $unwind$_wrap_outctx_t_gen_func_footer 000000018003d750     ua.obj
 0002:00016770       $tryMap$_wrap_outctx_t_gen_func_footer 000000018003d770     ua.obj
 0002:00016784       $handlerMap$0$_wrap_outctx_t_gen_func_footer 000000018003d784     ua.obj
 0002:00016800       $ip2state$_wrap_outctx_t_gen_func_footer 000000018003d800     ua.obj
 0002:00016830       $unwind$_wrap_outctx_t_gen_func_footer$catch$5 000000018003d830     ua.obj
 0002:00016830       $unwind$_wrap_outctx_t_gen_func_footer$catch$2 000000018003d830     ua.obj
 0002:00016830       $unwind$_wrap_outctx_t_gen_func_footer$catch$3 000000018003d830     ua.obj
 0002:00016830       $unwind$_wrap_outctx_t_gen_func_footer$catch$4 000000018003d830     ua.obj
 0002:00016830       $unwind$_wrap_outctx_t_gen_func_footer$catch$1 000000018003d830     ua.obj
 0002:00016830       $unwind$_wrap_outctx_t_gen_func_footer$catch$0 000000018003d830     ua.obj
 0002:00016840       $unwind$_wrap_outctx_t_out_data 000000018003d840     ua.obj
 0002:0001685c       $tryMap$_wrap_outctx_t_out_data 000000018003d85c     ua.obj
 0002:00016870       $handlerMap$0$_wrap_outctx_t_out_data 000000018003d870     ua.obj
 0002:000168e8       $ip2state$_wrap_outctx_t_out_data 000000018003d8e8     ua.obj
 0002:00016910       $unwind$_wrap_outctx_t_out_data$catch$4 000000018003d910     ua.obj
 0002:00016910       $unwind$_wrap_outctx_t_out_data$catch$1 000000018003d910     ua.obj
 0002:00016910       $unwind$_wrap_outctx_t_out_data$catch$5 000000018003d910     ua.obj
 0002:00016910       $unwind$_wrap_outctx_t_out_data$catch$3 000000018003d910     ua.obj
 0002:00016910       $unwind$_wrap_outctx_t_out_data$catch$0 000000018003d910     ua.obj
 0002:00016910       $unwind$_wrap_outctx_t_out_data$catch$2 000000018003d910     ua.obj
 0002:00016920       $unwind$_wrap_outctx_t_out_specea 000000018003d920     ua.obj
 0002:00016940       $tryMap$_wrap_outctx_t_out_specea 000000018003d940     ua.obj
 0002:00016954       $handlerMap$0$_wrap_outctx_t_out_specea 000000018003d954     ua.obj
 0002:000169d0       $ip2state$_wrap_outctx_t_out_specea 000000018003d9d0     ua.obj
 0002:000169f8       $unwind$_wrap_outctx_t_out_specea$catch$0 000000018003d9f8     ua.obj
 0002:000169f8       $unwind$_wrap_outctx_t_out_specea$catch$1 000000018003d9f8     ua.obj
 0002:000169f8       $unwind$_wrap_outctx_t_out_specea$catch$2 000000018003d9f8     ua.obj
 0002:000169f8       $unwind$_wrap_outctx_t_out_specea$catch$3 000000018003d9f8     ua.obj
 0002:000169f8       $unwind$_wrap_outctx_t_out_specea$catch$4 000000018003d9f8     ua.obj
 0002:000169f8       $unwind$_wrap_outctx_t_out_specea$catch$5 000000018003d9f8     ua.obj
 0002:00016a08       $unwind$_wrap_outctx_t_gen_header_extra 000000018003da08     ua.obj
 0002:00016a24       $tryMap$_wrap_outctx_t_gen_header_extra 000000018003da24     ua.obj
 0002:00016a38       $handlerMap$0$_wrap_outctx_t_gen_header_extra 000000018003da38     ua.obj
 0002:00016ab0       $ip2state$_wrap_outctx_t_gen_header_extra 000000018003dab0     ua.obj
 0002:00016ad8       $unwind$_wrap_outctx_t_gen_header_extra$catch$2 000000018003dad8     ua.obj
 0002:00016ad8       $unwind$_wrap_outctx_t_gen_header_extra$catch$0 000000018003dad8     ua.obj
 0002:00016ad8       $unwind$_wrap_outctx_t_gen_header_extra$catch$5 000000018003dad8     ua.obj
 0002:00016ad8       $unwind$_wrap_outctx_t_gen_header_extra$catch$1 000000018003dad8     ua.obj
 0002:00016ad8       $unwind$_wrap_outctx_t_gen_header_extra$catch$4 000000018003dad8     ua.obj
 0002:00016ad8       $unwind$_wrap_outctx_t_gen_header_extra$catch$3 000000018003dad8     ua.obj
 0002:00016ae8       $unwind$_wrap_outctx_t_gen_header 000000018003dae8     ua.obj
 0002:00016b10       $tryMap$_wrap_outctx_t_gen_header 000000018003db10     ua.obj
 0002:00016b24       $handlerMap$0$_wrap_outctx_t_gen_header 000000018003db24     ua.obj
 0002:00016ba0       $ip2state$_wrap_outctx_t_gen_header 000000018003dba0     ua.obj
 0002:00016bd0       $unwind$_wrap_outctx_t_gen_header$catch$4 000000018003dbd0     ua.obj
 0002:00016bd0       $unwind$_wrap_outctx_t_gen_header$catch$0 000000018003dbd0     ua.obj
 0002:00016bd0       $unwind$_wrap_outctx_t_gen_header$catch$5 000000018003dbd0     ua.obj
 0002:00016bd0       $unwind$_wrap_outctx_t_gen_header$catch$1 000000018003dbd0     ua.obj
 0002:00016bd0       $unwind$_wrap_outctx_t_gen_header$catch$3 000000018003dbd0     ua.obj
 0002:00016bd0       $unwind$_wrap_outctx_t_gen_header$catch$2 000000018003dbd0     ua.obj
 0002:00016be0       $unwind$_wrap_create_outctx 000000018003dbe0     ua.obj
 0002:00016c00       $tryMap$_wrap_create_outctx 000000018003dc00     ua.obj
 0002:00016c14       $handlerMap$0$_wrap_create_outctx 000000018003dc14     ua.obj
 0002:00016c90       $ip2state$_wrap_create_outctx 000000018003dc90     ua.obj
 0002:00016cb0       $unwind$_wrap_create_outctx$catch$2 000000018003dcb0     ua.obj
 0002:00016cb0       $unwind$_wrap_create_outctx$catch$1 000000018003dcb0     ua.obj
 0002:00016cb0       $unwind$_wrap_create_outctx$catch$0 000000018003dcb0     ua.obj
 0002:00016cb0       $unwind$_wrap_create_outctx$catch$3 000000018003dcb0     ua.obj
 0002:00016cb0       $unwind$_wrap_create_outctx$catch$5 000000018003dcb0     ua.obj
 0002:00016cb0       $unwind$_wrap_create_outctx$catch$4 000000018003dcb0     ua.obj
 0002:00016cc0       $unwind$_wrap_print_insn_mnem 000000018003dcc0     ua.obj
 0002:00016cd4       $stateUnwindMap$_wrap_print_insn_mnem 000000018003dcd4     ua.obj
 0002:00016cec       $tryMap$_wrap_print_insn_mnem 000000018003dcec     ua.obj
 0002:00016d00       $handlerMap$0$_wrap_print_insn_mnem 000000018003dd00     ua.obj
 0002:00016d78       $ip2state$_wrap_print_insn_mnem 000000018003dd78     ua.obj
 0002:00016d90       $unwind$_wrap_print_insn_mnem$catch$3 000000018003dd90     ua.obj
 0002:00016d90       $unwind$_wrap_print_insn_mnem$catch$8 000000018003dd90     ua.obj
 0002:00016d90       $unwind$_wrap_print_insn_mnem$catch$5 000000018003dd90     ua.obj
 0002:00016d90       $unwind$_wrap_print_insn_mnem$catch$6 000000018003dd90     ua.obj
 0002:00016d90       $unwind$_wrap_print_insn_mnem$catch$7 000000018003dd90     ua.obj
 0002:00016d90       $unwind$_wrap_print_insn_mnem$catch$4 000000018003dd90     ua.obj
 0002:00016da0       $unwind$_wrap_get_dtype_flag 000000018003dda0     ua.obj
 0002:00016db4       $tryMap$_wrap_get_dtype_flag 000000018003ddb4     ua.obj
 0002:00016dc8       $handlerMap$0$_wrap_get_dtype_flag 000000018003ddc8     ua.obj
 0002:00016e40       $ip2state$_wrap_get_dtype_flag 000000018003de40     ua.obj
 0002:00016e58       $unwind$_wrap_get_dtype_flag$catch$2 000000018003de58     ua.obj
 0002:00016e58       $unwind$_wrap_get_dtype_flag$catch$3 000000018003de58     ua.obj
 0002:00016e58       $unwind$_wrap_get_dtype_flag$catch$4 000000018003de58     ua.obj
 0002:00016e58       $unwind$_wrap_get_dtype_flag$catch$5 000000018003de58     ua.obj
 0002:00016e58       $unwind$_wrap_get_dtype_flag$catch$0 000000018003de58     ua.obj
 0002:00016e58       $unwind$_wrap_get_dtype_flag$catch$1 000000018003de58     ua.obj
 0002:00016e68       $unwind$_wrap_get_dtype_size 000000018003de68     ua.obj
 0002:00016e7c       $tryMap$_wrap_get_dtype_size 000000018003de7c     ua.obj
 0002:00016e90       $handlerMap$0$_wrap_get_dtype_size 000000018003de90     ua.obj
 0002:00016f08       $ip2state$_wrap_get_dtype_size 000000018003df08     ua.obj
 0002:00016f20       $unwind$_wrap_get_dtype_size$catch$4 000000018003df20     ua.obj
 0002:00016f20       $unwind$_wrap_get_dtype_size$catch$1 000000018003df20     ua.obj
 0002:00016f20       $unwind$_wrap_get_dtype_size$catch$5 000000018003df20     ua.obj
 0002:00016f20       $unwind$_wrap_get_dtype_size$catch$0 000000018003df20     ua.obj
 0002:00016f20       $unwind$_wrap_get_dtype_size$catch$3 000000018003df20     ua.obj
 0002:00016f20       $unwind$_wrap_get_dtype_size$catch$2 000000018003df20     ua.obj
 0002:00016f30       $unwind$_wrap_create_insn  000000018003df30     ua.obj
 0002:00016f4c       $tryMap$_wrap_create_insn  000000018003df4c     ua.obj
 0002:00016f60       $handlerMap$0$_wrap_create_insn 000000018003df60     ua.obj
 0002:00016fd8       $ip2state$_wrap_create_insn 000000018003dfd8     ua.obj
 0002:00016ff8       $unwind$_wrap_create_insn$catch$2 000000018003dff8     ua.obj
 0002:00016ff8       $unwind$_wrap_create_insn$catch$1 000000018003dff8     ua.obj
 0002:00016ff8       $unwind$_wrap_create_insn$catch$3 000000018003dff8     ua.obj
 0002:00016ff8       $unwind$_wrap_create_insn$catch$4 000000018003dff8     ua.obj
 0002:00016ff8       $unwind$_wrap_create_insn$catch$5 000000018003dff8     ua.obj
 0002:00016ff8       $unwind$_wrap_create_insn$catch$0 000000018003dff8     ua.obj
 0002:00017008       $unwind$_wrap_decode_insn  000000018003e008     ua.obj
 0002:00017024       $tryMap$_wrap_decode_insn  000000018003e024     ua.obj
 0002:00017038       $handlerMap$0$_wrap_decode_insn 000000018003e038     ua.obj
 0002:000170b0       $ip2state$_wrap_decode_insn 000000018003e0b0     ua.obj
 0002:000170d0       $unwind$_wrap_decode_insn$catch$4 000000018003e0d0     ua.obj
 0002:000170d0       $unwind$_wrap_decode_insn$catch$3 000000018003e0d0     ua.obj
 0002:000170d0       $unwind$_wrap_decode_insn$catch$0 000000018003e0d0     ua.obj
 0002:000170d0       $unwind$_wrap_decode_insn$catch$2 000000018003e0d0     ua.obj
 0002:000170d0       $unwind$_wrap_decode_insn$catch$5 000000018003e0d0     ua.obj
 0002:000170d0       $unwind$_wrap_decode_insn$catch$1 000000018003e0d0     ua.obj
 0002:000170e0       $unwind$_wrap_can_decode   000000018003e0e0     ua.obj
 0002:000170fc       $tryMap$_wrap_can_decode   000000018003e0fc     ua.obj
 0002:00017110       $handlerMap$0$_wrap_can_decode 000000018003e110     ua.obj
 0002:00017188       $ip2state$_wrap_can_decode 000000018003e188     ua.obj
 0002:000171a8       $unwind$_wrap_can_decode$catch$4 000000018003e1a8     ua.obj
 0002:000171a8       $unwind$_wrap_can_decode$catch$1 000000018003e1a8     ua.obj
 0002:000171a8       $unwind$_wrap_can_decode$catch$2 000000018003e1a8     ua.obj
 0002:000171a8       $unwind$_wrap_can_decode$catch$3 000000018003e1a8     ua.obj
 0002:000171a8       $unwind$_wrap_can_decode$catch$0 000000018003e1a8     ua.obj
 0002:000171a8       $unwind$_wrap_can_decode$catch$5 000000018003e1a8     ua.obj
 0002:000171b8       $unwind$_wrap_print_operand 000000018003e1b8     ua.obj
 0002:000171e0       $stateUnwindMap$_wrap_print_operand 000000018003e1e0     ua.obj
 0002:000171f8       $tryMap$_wrap_print_operand 000000018003e1f8     ua.obj
 0002:0001720c       $handlerMap$0$_wrap_print_operand 000000018003e20c     ua.obj
 0002:00017288       $ip2state$_wrap_print_operand 000000018003e288     ua.obj
 0002:000172b0       $unwind$_wrap_print_operand$catch$6 000000018003e2b0     ua.obj
 0002:000172b0       $unwind$_wrap_print_operand$catch$7 000000018003e2b0     ua.obj
 0002:000172b0       $unwind$_wrap_print_operand$catch$8 000000018003e2b0     ua.obj
 0002:000172b0       $unwind$_wrap_print_operand$catch$5 000000018003e2b0     ua.obj
 0002:000172b0       $unwind$_wrap_print_operand$catch$4 000000018003e2b0     ua.obj
 0002:000172b0       $unwind$_wrap_print_operand$catch$3 000000018003e2b0     ua.obj
 0002:000172c0       $unwind$_wrap_decode_prev_insn 000000018003e2c0     ua.obj
 0002:000172dc       $tryMap$_wrap_decode_prev_insn 000000018003e2dc     ua.obj
 0002:000172f0       $handlerMap$0$_wrap_decode_prev_insn 000000018003e2f0     ua.obj
 0002:00017368       $ip2state$_wrap_decode_prev_insn 000000018003e368     ua.obj
 0002:00017388       $unwind$_wrap_decode_prev_insn$catch$1 000000018003e388     ua.obj
 0002:00017388       $unwind$_wrap_decode_prev_insn$catch$2 000000018003e388     ua.obj
 0002:00017388       $unwind$_wrap_decode_prev_insn$catch$5 000000018003e388     ua.obj
 0002:00017388       $unwind$_wrap_decode_prev_insn$catch$3 000000018003e388     ua.obj
 0002:00017388       $unwind$_wrap_decode_prev_insn$catch$0 000000018003e388     ua.obj
 0002:00017388       $unwind$_wrap_decode_prev_insn$catch$4 000000018003e388     ua.obj
 0002:00017398       $unwind$_wrap_guess_table_address 000000018003e398     ua.obj
 0002:000173b4       $tryMap$_wrap_guess_table_address 000000018003e3b4     ua.obj
 0002:000173c8       $handlerMap$0$_wrap_guess_table_address 000000018003e3c8     ua.obj
 0002:00017440       $ip2state$_wrap_guess_table_address 000000018003e440     ua.obj
 0002:00017460       $unwind$_wrap_guess_table_address$catch$0 000000018003e460     ua.obj
 0002:00017460       $unwind$_wrap_guess_table_address$catch$5 000000018003e460     ua.obj
 0002:00017460       $unwind$_wrap_guess_table_address$catch$1 000000018003e460     ua.obj
 0002:00017460       $unwind$_wrap_guess_table_address$catch$2 000000018003e460     ua.obj
 0002:00017460       $unwind$_wrap_guess_table_address$catch$3 000000018003e460     ua.obj
 0002:00017460       $unwind$_wrap_guess_table_address$catch$4 000000018003e460     ua.obj
 0002:00017470       $unwind$_wrap_guess_table_size 000000018003e470     ua.obj
 0002:0001748c       $tryMap$_wrap_guess_table_size 000000018003e48c     ua.obj
 0002:000174a0       $handlerMap$0$_wrap_guess_table_size 000000018003e4a0     ua.obj
 0002:00017518       $ip2state$_wrap_guess_table_size 000000018003e518     ua.obj
 0002:00017538       $unwind$_wrap_guess_table_size$catch$2 000000018003e538     ua.obj
 0002:00017538       $unwind$_wrap_guess_table_size$catch$3 000000018003e538     ua.obj
 0002:00017538       $unwind$_wrap_guess_table_size$catch$1 000000018003e538     ua.obj
 0002:00017538       $unwind$_wrap_guess_table_size$catch$0 000000018003e538     ua.obj
 0002:00017538       $unwind$_wrap_guess_table_size$catch$4 000000018003e538     ua.obj
 0002:00017538       $unwind$_wrap_guess_table_size$catch$5 000000018003e538     ua.obj
 0002:00017548       $unwind$_wrap_decode_preceding_insn 000000018003e548     ua.obj
 0002:00017564       $tryMap$_wrap_decode_preceding_insn 000000018003e564     ua.obj
 0002:00017578       $handlerMap$0$_wrap_decode_preceding_insn 000000018003e578     ua.obj
 0002:000175f0       $ip2state$_wrap_decode_preceding_insn 000000018003e5f0     ua.obj
 0002:00017610       $unwind$_wrap_decode_preceding_insn$catch$4 000000018003e610     ua.obj
 0002:00017610       $unwind$_wrap_decode_preceding_insn$catch$2 000000018003e610     ua.obj
 0002:00017610       $unwind$_wrap_decode_preceding_insn$catch$1 000000018003e610     ua.obj
 0002:00017610       $unwind$_wrap_decode_preceding_insn$catch$0 000000018003e610     ua.obj
 0002:00017610       $unwind$_wrap_decode_preceding_insn$catch$3 000000018003e610     ua.obj
 0002:00017610       $unwind$_wrap_decode_preceding_insn$catch$5 000000018003e610     ua.obj
 0002:00017620       $unwind$_wrap_construct_macro 000000018003e620     ua.obj
 0002:00017648       $tryMap$_wrap_construct_macro 000000018003e648     ua.obj
 0002:0001765c       $handlerMap$0$_wrap_construct_macro 000000018003e65c     ua.obj
 0002:000176d8       $ip2state$_wrap_construct_macro 000000018003e6d8     ua.obj
 0002:00017708       $unwind$_wrap_construct_macro$catch$5 000000018003e708     ua.obj
 0002:00017708       $unwind$_wrap_construct_macro$catch$4 000000018003e708     ua.obj
 0002:00017708       $unwind$_wrap_construct_macro$catch$3 000000018003e708     ua.obj
 0002:00017708       $unwind$_wrap_construct_macro$catch$0 000000018003e708     ua.obj
 0002:00017708       $unwind$_wrap_construct_macro$catch$2 000000018003e708     ua.obj
 0002:00017708       $unwind$_wrap_construct_macro$catch$1 000000018003e708     ua.obj
 0002:00017718       $unwind$_wrap_get_dtype_by_size 000000018003e718     ua.obj
 0002:0001772c       $tryMap$_wrap_get_dtype_by_size 000000018003e72c     ua.obj
 0002:00017740       $handlerMap$0$_wrap_get_dtype_by_size 000000018003e740     ua.obj
 0002:000177b8       $ip2state$_wrap_get_dtype_by_size 000000018003e7b8     ua.obj
 0002:000177d0       $unwind$_wrap_get_dtype_by_size$catch$5 000000018003e7d0     ua.obj
 0002:000177d0       $unwind$_wrap_get_dtype_by_size$catch$4 000000018003e7d0     ua.obj
 0002:000177d0       $unwind$_wrap_get_dtype_by_size$catch$3 000000018003e7d0     ua.obj
 0002:000177d0       $unwind$_wrap_get_dtype_by_size$catch$2 000000018003e7d0     ua.obj
 0002:000177d0       $unwind$_wrap_get_dtype_by_size$catch$1 000000018003e7d0     ua.obj
 0002:000177d0       $unwind$_wrap_get_dtype_by_size$catch$0 000000018003e7d0     ua.obj
 0002:000177e0       $unwind$_wrap_get_immvals  000000018003e7e0     ua.obj
 0002:00017804       $tryMap$_wrap_get_immvals  000000018003e804     ua.obj
 0002:00017818       $handlerMap$0$_wrap_get_immvals 000000018003e818     ua.obj
 0002:00017890       $ip2state$_wrap_get_immvals 000000018003e890     ua.obj
 0002:000178b0       $unwind$_wrap_get_immvals$catch$0 000000018003e8b0     ua.obj
 0002:000178b0       $unwind$_wrap_get_immvals$catch$1 000000018003e8b0     ua.obj
 0002:000178b0       $unwind$_wrap_get_immvals$catch$2 000000018003e8b0     ua.obj
 0002:000178b0       $unwind$_wrap_get_immvals$catch$5 000000018003e8b0     ua.obj
 0002:000178b0       $unwind$_wrap_get_immvals$catch$3 000000018003e8b0     ua.obj
 0002:000178b0       $unwind$_wrap_get_immvals$catch$4 000000018003e8b0     ua.obj
 0002:000178c0       $unwind$_wrap_get_printable_immvals 000000018003e8c0     ua.obj
 0002:000178e4       $tryMap$_wrap_get_printable_immvals 000000018003e8e4     ua.obj
 0002:000178f8       $handlerMap$0$_wrap_get_printable_immvals 000000018003e8f8     ua.obj
 0002:00017970       $ip2state$_wrap_get_printable_immvals 000000018003e970     ua.obj
 0002:00017990       $unwind$_wrap_get_printable_immvals$catch$5 000000018003e990     ua.obj
 0002:00017990       $unwind$_wrap_get_printable_immvals$catch$1 000000018003e990     ua.obj
 0002:00017990       $unwind$_wrap_get_printable_immvals$catch$3 000000018003e990     ua.obj
 0002:00017990       $unwind$_wrap_get_printable_immvals$catch$2 000000018003e990     ua.obj
 0002:00017990       $unwind$_wrap_get_printable_immvals$catch$4 000000018003e990     ua.obj
 0002:00017990       $unwind$_wrap_get_printable_immvals$catch$0 000000018003e990     ua.obj
 0002:000179a0       $unwind$_wrap_insn_t__from_ptrval__ 000000018003e9a0     ua.obj
 0002:000179b0       $tryMap$_wrap_insn_t__from_ptrval__ 000000018003e9b0     ua.obj
 0002:000179c4       $handlerMap$0$_wrap_insn_t__from_ptrval__ 000000018003e9c4     ua.obj
 0002:00017a40       $ip2state$_wrap_insn_t__from_ptrval__ 000000018003ea40     ua.obj
 0002:00017a58       $unwind$_wrap_insn_t__from_ptrval__$catch$0 000000018003ea58     ua.obj
 0002:00017a58       $unwind$_wrap_insn_t__from_ptrval__$catch$1 000000018003ea58     ua.obj
 0002:00017a58       $unwind$_wrap_insn_t__from_ptrval__$catch$2 000000018003ea58     ua.obj
 0002:00017a58       $unwind$_wrap_insn_t__from_ptrval__$catch$3 000000018003ea58     ua.obj
 0002:00017a58       $unwind$_wrap_insn_t__from_ptrval__$catch$4 000000018003ea58     ua.obj
 0002:00017a58       $unwind$_wrap_insn_t__from_ptrval__$catch$5 000000018003ea58     ua.obj
 0002:00017a68       $unwind$_wrap_op_t__from_ptrval__ 000000018003ea68     ua.obj
 0002:00017a78       $tryMap$_wrap_op_t__from_ptrval__ 000000018003ea78     ua.obj
 0002:00017a8c       $handlerMap$0$_wrap_op_t__from_ptrval__ 000000018003ea8c     ua.obj
 0002:00017b08       $ip2state$_wrap_op_t__from_ptrval__ 000000018003eb08     ua.obj
 0002:00017b20       $unwind$_wrap_op_t__from_ptrval__$catch$0 000000018003eb20     ua.obj
 0002:00017b20       $unwind$_wrap_op_t__from_ptrval__$catch$5 000000018003eb20     ua.obj
 0002:00017b20       $unwind$_wrap_op_t__from_ptrval__$catch$1 000000018003eb20     ua.obj
 0002:00017b20       $unwind$_wrap_op_t__from_ptrval__$catch$2 000000018003eb20     ua.obj
 0002:00017b20       $unwind$_wrap_op_t__from_ptrval__$catch$4 000000018003eb20     ua.obj
 0002:00017b20       $unwind$_wrap_op_t__from_ptrval__$catch$3 000000018003eb20     ua.obj
 0002:00017b30       $unwind$_wrap_outctx_base_t__from_ptrval__ 000000018003eb30     ua.obj
 0002:00017b40       $tryMap$_wrap_outctx_base_t__from_ptrval__ 000000018003eb40     ua.obj
 0002:00017b54       $handlerMap$0$_wrap_outctx_base_t__from_ptrval__ 000000018003eb54     ua.obj
 0002:00017bd0       $ip2state$_wrap_outctx_base_t__from_ptrval__ 000000018003ebd0     ua.obj
 0002:00017be8       $unwind$_wrap_outctx_base_t__from_ptrval__$catch$5 000000018003ebe8     ua.obj
 0002:00017be8       $unwind$_wrap_outctx_base_t__from_ptrval__$catch$4 000000018003ebe8     ua.obj
 0002:00017be8       $unwind$_wrap_outctx_base_t__from_ptrval__$catch$1 000000018003ebe8     ua.obj
 0002:00017be8       $unwind$_wrap_outctx_base_t__from_ptrval__$catch$2 000000018003ebe8     ua.obj
 0002:00017be8       $unwind$_wrap_outctx_base_t__from_ptrval__$catch$0 000000018003ebe8     ua.obj
 0002:00017be8       $unwind$_wrap_outctx_base_t__from_ptrval__$catch$3 000000018003ebe8     ua.obj
 0002:00017bf8       $unwind$_wrap_outctx_t__from_ptrval__ 000000018003ebf8     ua.obj
 0002:00017c08       $tryMap$_wrap_outctx_t__from_ptrval__ 000000018003ec08     ua.obj
 0002:00017c1c       $handlerMap$0$_wrap_outctx_t__from_ptrval__ 000000018003ec1c     ua.obj
 0002:00017c98       $ip2state$_wrap_outctx_t__from_ptrval__ 000000018003ec98     ua.obj
 0002:00017cb0       $unwind$_wrap_outctx_t__from_ptrval__$catch$1 000000018003ecb0     ua.obj
 0002:00017cb0       $unwind$_wrap_outctx_t__from_ptrval__$catch$4 000000018003ecb0     ua.obj
 0002:00017cb0       $unwind$_wrap_outctx_t__from_ptrval__$catch$3 000000018003ecb0     ua.obj
 0002:00017cb0       $unwind$_wrap_outctx_t__from_ptrval__$catch$0 000000018003ecb0     ua.obj
 0002:00017cb0       $unwind$_wrap_outctx_t__from_ptrval__$catch$5 000000018003ecb0     ua.obj
 0002:00017cb0       $unwind$_wrap_outctx_t__from_ptrval__$catch$2 000000018003ecb0     ua.obj
 0002:00017cc0       $unwind$SWIG_InitializeModule 000000018003ecc0     ua.obj
 0002:00017cd0       $chain$1$SWIG_InitializeModule 000000018003ecd0     ua.obj
 0002:00017ce4       $chain$4$SWIG_InitializeModule 000000018003ece4     ua.obj
 0002:00017d00       $chain$5$SWIG_InitializeModule 000000018003ed00     ua.obj
 0002:00017d10       $chain$6$SWIG_InitializeModule 000000018003ed10     ua.obj
 0002:00017d20       $unwind$swig_varlink_str   000000018003ed20     ua.obj
 0002:00017d30       $chain$1$swig_varlink_str  000000018003ed30     ua.obj
 0002:00017d48       $chain$2$swig_varlink_str  000000018003ed48     ua.obj
 0002:00017d58       $chain$0$swig_varlink_dealloc 000000018003ed58     ua.obj
 0002:00017d6c       $chain$1$swig_varlink_dealloc 000000018003ed6c     ua.obj
 0002:00017d7c       $unwind$SWIG_Python_FixMethods 000000018003ed7c     ua.obj
 0002:00017d88       $chain$4$SWIG_Python_FixMethods 000000018003ed88     ua.obj
 0002:00017dac       $chain$5$SWIG_Python_FixMethods 000000018003edac     ua.obj
 0002:00017dbc       $unwind$PyInit__ida_ua     000000018003edbc     ua.obj
 0002:00017dd4       $chain$2$PyInit__ida_ua    000000018003edd4     ua.obj
 0002:00017df0       $chain$3$PyInit__ida_ua    000000018003edf0     ua.obj
 0002:00017e04       $chain$4$PyInit__ida_ua    000000018003ee04     ua.obj
 0002:00017e14       $chain$5$PyInit__ida_ua    000000018003ee14     ua.obj
 0002:00017e28       $unwind$__scrt_is_nonwritable_in_current_image 000000018003ee28     MSVCRT:utility.obj
 0002:00017e48       $unwind$__scrt_is_nonwritable_in_current_image$filt$0 000000018003ee48     MSVCRT:utility.obj
 0002:00017e50       $unwind$__scrt_initialize_onexit_tables 000000018003ee50     MSVCRT:utility.obj
 0002:00017e58       $unwind$__scrt_dllmain_exception_filter 000000018003ee58     MSVCRT:utility.obj
 0002:00017e6c       $unwind$?__scrt_initialize_thread_safe_statics@@YAHXZ 000000018003ee6c     MSVCRT:thread_safe_statics.obj
 0002:00017e84       $stateUnwindMap$?__scrt_initialize_thread_safe_statics@@YAHXZ 000000018003ee84     MSVCRT:thread_safe_statics.obj
 0002:00017e90       $ip2state$?__scrt_initialize_thread_safe_statics@@YAHXZ 000000018003ee90     MSVCRT:thread_safe_statics.obj
 0002:00017e98       $unwind$__GSHandlerCheckCommon 000000018003ee98     MSVCRT:gshandler.obj
 0002:00017ea0       $unwind$__GSHandlerCheck_EH 000000018003eea0     MSVCRT:gshandlereh.obj
 0002:00017eb8       $xdatasym                  000000018003eeb8     MSVCRT:amdsecgs.obj
 0002:00017ebc       $unwind$?dllmain_crt_process_attach@@YAHQEAUHINSTANCE__@@QEAX@Z 000000018003eebc     MSVCRT:dll_dllmain.obj
 0002:00017ef8       $unwind$?fin$0@?0??dllmain_crt_process_detach@@YAH_N@Z@4HA 000000018003eef8     MSVCRT:dll_dllmain.obj
 0002:00017ef8       $unwind$?fin$0@?0??dllmain_crt_process_attach@@YAHQEAUHINSTANCE__@@QEAX@Z@4HA 000000018003eef8     MSVCRT:dll_dllmain.obj
 0002:00017f00       $unwind$?dllmain_crt_process_detach@@YAH_N@Z 000000018003ef00     MSVCRT:dll_dllmain.obj
 0002:00017f38       $unwind$?dllmain_dispatch@@YAHQEAUHINSTANCE__@@KQEAX@Z 000000018003ef38     MSVCRT:dll_dllmain.obj
 0002:00017f60       $unwind$?filt$0@?0??dllmain_dispatch@@YAHQEAUHINSTANCE__@@KQEAX@Z@4HA 000000018003ef60     MSVCRT:dll_dllmain.obj
 0002:00017f68       $unwind$__isa_available_init 000000018003ef68     MSVCRT:cpu_disp.obj
 0002:00017f78       $unwind$__scrt_fastfail    000000018003ef78     MSVCRT:utility_desktop.obj
 0002:00017f88       $unwind$__report_gsfailure 000000018003ef88     MSVCRT:gs_report.obj
 0002:00017f90       $unwind$capture_previous_context 000000018003ef90     MSVCRT:gs_report.obj
 0002:00017f9c       $unwind$__security_init_cookie 000000018003ef9c     MSVCRT:gs_support.obj
 0002:00017fa8       $xdatasym                  000000018003efa8     MSVCRT:guard_dispatch.obj
 0002:00018130       .edata                     000000018003f130     _ida_ua.exp
 0002:00018158       rgpv                       000000018003f158     _ida_ua.exp
 0002:0001815c       rgszName                   000000018003f15c     _ida_ua.exp
 0002:00018160       rgwOrd                     000000018003f160     _ida_ua.exp
 0002:00018162       szName                     000000018003f162     _ida_ua.exp
 0002:0001816e       $N00001                    000000018003f16e     _ida_ua.exp
 0002:00018a72       .idata$6                   000000018003fa72     ida:ida.dll
 0002:00019190       .idata$6                   0000000180040190     python38:python38.dll
 0002:00019204       .idata$6                   0000000180040204     python:python.dll
 0002:0001945c       .idata$6                   000000018004045c     kernel32:KERNEL32.dll
 0002:0001953a       .idata$6                   000000018004053a     vcruntime:VCRUNTIME140.dll
 0002:00019670       .idata$6                   0000000180040670     ucrt:api-ms-win-crt-stdio-l1-1-0.dll
 0002:00019690       .idata$6                   0000000180040690     ucrt:api-ms-win-crt-string-l1-1-0.dll
 0002:000196b2       .idata$6                   00000001800406b2     ucrt:api-ms-win-crt-heap-l1-1-0.dll
 0002:000196d2       .idata$6                   00000001800406d2     ucrt:api-ms-win-crt-runtime-l1-1-0.dll
 0003:00000000       ?swig_module@@3Uswig_module_info@@A 0000000180041000     ua.obj
 0003:00000030       swigobject_methods         0000000180041030     ua.obj
 0003:00000110       SwigMethods                0000000180041110     ua.obj
 0003:00001a50       _swigt__p__qstringT_char_t 0000000180042a50     ua.obj
 0003:00001a80       _swigt__p__qstringT_unsigned_char_t 0000000180042a80     ua.obj
 0003:00001ab0       _swigt__p__qstringT_unsigned_short_t 0000000180042ab0     ua.obj
 0003:00001ae0       _swigt__p_a_8__op_t        0000000180042ae0     ua.obj
 0003:00001b10       _swigt__p_action_ctx_base_t 0000000180042b10     ua.obj
 0003:00001b40       _swigt__p_biggest_t        0000000180042b40     ua.obj
 0003:00001b70       _swigt__p_char             0000000180042b70     ua.obj
 0003:00001ba0       _swigt__p_const_iterator   0000000180042ba0     ua.obj
 0003:00001bd0       _swigt__p_f_p_TWidget_int_int_p_void__bool 0000000180042bd0     ua.obj
 0003:00001c00       _swigt__p_f_p_TWidget_int_p_view_mouse_event_t_p_void__void 0000000180042c00     ua.obj
 0003:00001c30       _swigt__p_f_p_TWidget_int_p_void__bool 0000000180042c30     ua.obj
 0003:00001c60       _swigt__p_f_p_TWidget_p_lochist_entry_t_p_void__void 0000000180042c60     ua.obj
 0003:00001c90       _swigt__p_f_p_TWidget_p_q_const__lochist_entry_t_p_q_const__lochist_entry_t_r_q_const__locchange_md_t_p_void__void 0000000180042c90     ua.obj
 0003:00001cc0       _swigt__p_f_p_TWidget_p_q_const__lochist_entry_t_r_q_const__locchange_md_t_p_void__int 0000000180042cc0     ua.obj
 0003:00001cf0       _swigt__p_f_p_TWidget_p_q_const__place_t_int_int_p_void__void 0000000180042cf0     ua.obj
 0003:00001d20       _swigt__p_f_p_TWidget_p_q_const__place_t_p_int_p_void__int 0000000180042d20     ua.obj
 0003:00001d50       _swigt__p_f_p_TWidget_p_q_const__place_t_p_q_const__place_t_p_void__int 0000000180042d50     ua.obj
 0003:00001d80       _swigt__p_f_p_TWidget_p_q_const__place_t_p_unsigned_int_p_void__bool 0000000180042d80     ua.obj
 0003:00001db0       _swigt__p_f_p_TWidget_p_void__int 0000000180042db0     ua.obj
 0003:00001de0       _swigt__p_f_p_TWidget_p_void__void 0000000180042de0     ua.obj
 0003:00001e10       _swigt__p_f_p_chooser_multi_t_p_sizevec_t__chooser_base_t__cbres_t 0000000180042e10     ua.obj
 0003:00001e40       _swigt__p_f_p_chooser_t_ssize_t__chooser_t__cbret_t 0000000180042e40     ua.obj
 0003:00001e70       _swigt__p_f_p_lochist_entry_t_r_q_const__lochist_entry_t_p_TWidget__bool 0000000180042e70     ua.obj
 0003:00001ea0       _swigt__p_f_p_q_const__char_p_void__void 0000000180042ea0     ua.obj
 0003:00001ed0       _swigt__p_f_p_q_const__char_r_q_const__tinfo_t_p_q_const__char_p_q_const__unsigned_long_long_p_void__int 0000000180042ed0     ua.obj
 0003:00001f00       _swigt__p_f_p_q_const__char_v_______int 0000000180042f00     ua.obj
 0003:00001f30       _swigt__p_f_p_void_int_va_list__ssize_t 0000000180042f30     ua.obj
 0003:00001f60       _swigt__p_f_r_q_const__insn_t_p_int_p_int__bool 0000000180042f60     ua.obj
 0003:00001f90       _swigt__p_f_r_q_const__insn_t_r_q_const__op_t_r_q_const__tinfo_t_p_q_const__char__bool 0000000180042f90     ua.obj
 0003:00001fc0       _swigt__p_f_unsigned_int__bool 0000000180042fc0     ua.obj
 0003:00001ff0       _swigt__p_f_unsigned_int_p_q_const__char_unsigned_int_p_void__int 0000000180042ff0     ua.obj
 0003:00002020       _swigt__p_f_unsigned_int_p_void__bool 0000000180043020     ua.obj
 0003:00002050       _swigt__p_f_unsigned_int_r_q_const__tinfo_t_p_void__int 0000000180043050     ua.obj
 0003:00002080       _swigt__p_f_unsigned_int_unsigned_int__unsigned_int 0000000180043080     ua.obj
 0003:000020b0       _swigt__p_func_t           00000001800430b0     ua.obj
 0003:000020e0       _swigt__p_insn_t           00000001800430e0     ua.obj
 0003:00002110       _swigt__p_int              0000000180043110     ua.obj
 0003:00002140       _swigt__p_iterator         0000000180043140     ua.obj
 0003:00002170       _swigt__p_location_t       0000000180043170     ua.obj
 0003:000021a0       _swigt__p_long_long        00000001800431a0     ua.obj
 0003:000021d0       _swigt__p_member_t         00000001800431d0     ua.obj
 0003:00002200       _swigt__p_op_t             0000000180043200     ua.obj
 0003:00002230       _swigt__p_outctx_base_t    0000000180043230     ua.obj
 0003:00002260       _swigt__p_outctx_t         0000000180043260     ua.obj
 0003:00002290       _swigt__p_printop_t        0000000180043290     ua.obj
 0003:000022c0       _swigt__p_qvectorT__qstringT_char_t_t 00000001800432c0     ua.obj
 0003:000022f0       _swigt__p_qvectorT__qstringT_unsigned_short_t_t 00000001800432f0     ua.obj
 0003:00002320       _swigt__p_qvectorT_argloc_t_t 0000000180043320     ua.obj
 0003:00002350       _swigt__p_qvectorT_bool_t  0000000180043350     ua.obj
 0003:00002380       _swigt__p_qvectorT_channel_redir_t_t 0000000180043380     ua.obj
 0003:000023b0       _swigt__p_qvectorT_compiled_binpat_t_t 00000001800433b0     ua.obj
 0003:000023e0       _swigt__p_qvectorT_funcarg_t_t 00000001800433e0     ua.obj
 0003:00002410       _swigt__p_qvectorT_int_t   0000000180043410     ua.obj
 0003:00002440       _swigt__p_qvectorT_range_t_t 0000000180043440     ua.obj
 0003:00002470       _swigt__p_qvectorT_rangeset_t_const_p_t 0000000180043470     ua.obj
 0003:000024a0       _swigt__p_qvectorT_rangeset_t_t 00000001800434a0     ua.obj
 0003:000024d0       _swigt__p_qvectorT_refinfo_desc_t_t 00000001800434d0     ua.obj
 0003:00002500       _swigt__p_qvectorT_simd_info_t_t 0000000180043500     ua.obj
 0003:00002530       _swigt__p_qvectorT_simpleline_t_t 0000000180043530     ua.obj
 0003:00002560       _swigt__p_qvectorT_size_t_t 0000000180043560     ua.obj
 0003:00002590       _swigt__p_qvectorT_tinfo_t_t 0000000180043590     ua.obj
 0003:000025c0       _swigt__p_qvectorT_type_attr_t_t 00000001800435c0     ua.obj
 0003:000025f0       _swigt__p_qvectorT_udt_member_t_t 00000001800435f0     ua.obj
 0003:00002620       _swigt__p_qvectorT_unsigned_char_t 0000000180043620     ua.obj
 0003:00002650       _swigt__p_relobj_t         0000000180043650     ua.obj
 0003:00002680       _swigt__p_bytevec_t        0000000180043680     ua.obj
 0003:000026b0       _swigt__p_reloc_info_t     00000001800436b0     ua.obj
 0003:000026e0       _swigt__p_qvectorT_unsigned_int_t 00000001800436e0     ua.obj
 0003:00002710       _swigt__p_short            0000000180043710     ua.obj
 0003:00002740       _swigt__p_signed_char      0000000180043740     ua.obj
 0003:00002770       _swigt__p_std__out_of_range 0000000180043770     ua.obj
 0003:000027a0       _swigt__p_unsigned_char    00000001800437a0     ua.obj
 0003:000027d0       _swigt__p_unsigned_int     00000001800437d0     ua.obj
 0003:00002800       _swigt__p_unsigned_long_long 0000000180043800     ua.obj
 0003:00002830       _swigt__p_unsigned_short   0000000180043830     ua.obj
 0003:00002860       _swigt__p_wrapped_array_tT_op_t_8_t 0000000180043860     ua.obj
 0003:00002890       swig_type_initial          0000000180043890     ua.obj
 0003:00002af0       _swigc__p__qstringT_char_t 0000000180043af0     ua.obj
 0003:00002b30       _swigc__p__qstringT_unsigned_char_t 0000000180043b30     ua.obj
 0003:00002b70       _swigc__p__qstringT_unsigned_short_t 0000000180043b70     ua.obj
 0003:00002bb0       _swigc__p_a_8__op_t        0000000180043bb0     ua.obj
 0003:00002bf0       _swigc__p_action_ctx_base_t 0000000180043bf0     ua.obj
 0003:00002c30       _swigc__p_biggest_t        0000000180043c30     ua.obj
 0003:00002c70       _swigc__p_char             0000000180043c70     ua.obj
 0003:00002cb0       _swigc__p_const_iterator   0000000180043cb0     ua.obj
 0003:00002cf0       _swigc__p_f_p_TWidget_int_int_p_void__bool 0000000180043cf0     ua.obj
 0003:00002d30       _swigc__p_f_p_TWidget_int_p_view_mouse_event_t_p_void__void 0000000180043d30     ua.obj
 0003:00002d70       _swigc__p_f_p_TWidget_int_p_void__bool 0000000180043d70     ua.obj
 0003:00002db0       _swigc__p_f_p_TWidget_p_lochist_entry_t_p_void__void 0000000180043db0     ua.obj
 0003:00002df0       _swigc__p_f_p_TWidget_p_q_const__lochist_entry_t_p_q_const__lochist_entry_t_r_q_const__locchange_md_t_p_void__void 0000000180043df0     ua.obj
 0003:00002e30       _swigc__p_f_p_TWidget_p_q_const__lochist_entry_t_r_q_const__locchange_md_t_p_void__int 0000000180043e30     ua.obj
 0003:00002e70       _swigc__p_f_p_TWidget_p_q_const__place_t_int_int_p_void__void 0000000180043e70     ua.obj
 0003:00002eb0       _swigc__p_f_p_TWidget_p_q_const__place_t_p_int_p_void__int 0000000180043eb0     ua.obj
 0003:00002ef0       _swigc__p_f_p_TWidget_p_q_const__place_t_p_q_const__place_t_p_void__int 0000000180043ef0     ua.obj
 0003:00002f30       _swigc__p_f_p_TWidget_p_q_const__place_t_p_unsigned_int_p_void__bool 0000000180043f30     ua.obj
 0003:00002f70       _swigc__p_f_p_TWidget_p_void__int 0000000180043f70     ua.obj
 0003:00002fb0       _swigc__p_f_p_TWidget_p_void__void 0000000180043fb0     ua.obj
 0003:00002ff0       _swigc__p_f_p_chooser_multi_t_p_sizevec_t__chooser_base_t__cbres_t 0000000180043ff0     ua.obj
 0003:00003030       _swigc__p_f_p_chooser_t_ssize_t__chooser_t__cbret_t 0000000180044030     ua.obj
 0003:00003070       _swigc__p_f_p_lochist_entry_t_r_q_const__lochist_entry_t_p_TWidget__bool 0000000180044070     ua.obj
 0003:000030b0       _swigc__p_f_p_q_const__char_p_void__void 00000001800440b0     ua.obj
 0003:000030f0       _swigc__p_f_p_q_const__char_r_q_const__tinfo_t_p_q_const__char_p_q_const__unsigned_long_long_p_void__int 00000001800440f0     ua.obj
 0003:00003130       _swigc__p_f_p_q_const__char_v_______int 0000000180044130     ua.obj
 0003:00003170       _swigc__p_f_p_void_int_va_list__ssize_t 0000000180044170     ua.obj
 0003:000031b0       _swigc__p_f_r_q_const__insn_t_p_int_p_int__bool 00000001800441b0     ua.obj
 0003:000031f0       _swigc__p_f_r_q_const__insn_t_r_q_const__op_t_r_q_const__tinfo_t_p_q_const__char__bool 00000001800441f0     ua.obj
 0003:00003230       _swigc__p_f_unsigned_int__bool 0000000180044230     ua.obj
 0003:00003270       _swigc__p_f_unsigned_int_p_q_const__char_unsigned_int_p_void__int 0000000180044270     ua.obj
 0003:000032b0       _swigc__p_f_unsigned_int_p_void__bool 00000001800442b0     ua.obj
 0003:000032f0       _swigc__p_f_unsigned_int_r_q_const__tinfo_t_p_void__int 00000001800442f0     ua.obj
 0003:00003330       _swigc__p_f_unsigned_int_unsigned_int__unsigned_int 0000000180044330     ua.obj
 0003:00003370       _swigc__p_func_t           0000000180044370     ua.obj
 0003:000033b0       _swigc__p_insn_t           00000001800443b0     ua.obj
 0003:000033f0       _swigc__p_int              00000001800443f0     ua.obj
 0003:00003430       _swigc__p_iterator         0000000180044430     ua.obj
 0003:00003470       _swigc__p_location_t       0000000180044470     ua.obj
 0003:000034b0       _swigc__p_long_long        00000001800444b0     ua.obj
 0003:000034f0       _swigc__p_member_t         00000001800444f0     ua.obj
 0003:00003530       _swigc__p_op_t             0000000180044530     ua.obj
 0003:00003570       _swigc__p_outctx_base_t    0000000180044570     ua.obj
 0003:000035d0       _swigc__p_outctx_t         00000001800445d0     ua.obj
 0003:00003610       _swigc__p_printop_t        0000000180044610     ua.obj
 0003:00003650       _swigc__p_qvectorT__qstringT_char_t_t 0000000180044650     ua.obj
 0003:00003690       _swigc__p_qvectorT__qstringT_unsigned_short_t_t 0000000180044690     ua.obj
 0003:000036d0       _swigc__p_qvectorT_argloc_t_t 00000001800446d0     ua.obj
 0003:00003710       _swigc__p_qvectorT_bool_t  0000000180044710     ua.obj
 0003:00003750       _swigc__p_qvectorT_channel_redir_t_t 0000000180044750     ua.obj
 0003:00003790       _swigc__p_qvectorT_compiled_binpat_t_t 0000000180044790     ua.obj
 0003:000037d0       _swigc__p_qvectorT_funcarg_t_t 00000001800447d0     ua.obj
 0003:00003810       _swigc__p_qvectorT_int_t   0000000180044810     ua.obj
 0003:00003850       _swigc__p_qvectorT_range_t_t 0000000180044850     ua.obj
 0003:00003890       _swigc__p_qvectorT_rangeset_t_const_p_t 0000000180044890     ua.obj
 0003:000038d0       _swigc__p_qvectorT_rangeset_t_t 00000001800448d0     ua.obj
 0003:00003910       _swigc__p_qvectorT_refinfo_desc_t_t 0000000180044910     ua.obj
 0003:00003950       _swigc__p_qvectorT_simd_info_t_t 0000000180044950     ua.obj
 0003:00003990       _swigc__p_qvectorT_simpleline_t_t 0000000180044990     ua.obj
 0003:000039d0       _swigc__p_qvectorT_size_t_t 00000001800449d0     ua.obj
 0003:00003a10       _swigc__p_qvectorT_tinfo_t_t 0000000180044a10     ua.obj
 0003:00003a50       _swigc__p_qvectorT_type_attr_t_t 0000000180044a50     ua.obj
 0003:00003a90       _swigc__p_qvectorT_udt_member_t_t 0000000180044a90     ua.obj
 0003:00003ad0       _swigc__p_relobj_t         0000000180044ad0     ua.obj
 0003:00003b10       _swigc__p_bytevec_t        0000000180044b10     ua.obj
 0003:00003b50       _swigc__p_reloc_info_t     0000000180044b50     ua.obj
 0003:00003b90       _swigc__p_qvectorT_unsigned_char_t 0000000180044b90     ua.obj
 0003:00003c30       _swigc__p_qvectorT_unsigned_int_t 0000000180044c30     ua.obj
 0003:00003c70       _swigc__p_short            0000000180044c70     ua.obj
 0003:00003cb0       _swigc__p_signed_char      0000000180044cb0     ua.obj
 0003:00003cf0       _swigc__p_std__out_of_range 0000000180044cf0     ua.obj
 0003:00003d30       _swigc__p_unsigned_char    0000000180044d30     ua.obj
 0003:00003d70       _swigc__p_unsigned_int     0000000180044d70     ua.obj
 0003:00003db0       _swigc__p_unsigned_long_long 0000000180044db0     ua.obj
 0003:00003df0       _swigc__p_unsigned_short   0000000180044df0     ua.obj
 0003:00003e30       _swigc__p_wrapped_array_tT_op_t_8_t 0000000180044e30     ua.obj
 0003:00003e70       swig_cast_initial          0000000180044e70     ua.obj
 0003:000040d0       ?swigobject_doc@?1??SwigPyObject_TypeOnce@@9@4PADA 00000001800450d0     ua.obj
 0003:00004100       ?swigpacked_doc@?1??SwigPyPacked_TypeOnce@@9@4PADA 0000000180045100     ua.obj
 0003:00004130       ?varlink__doc__@?1??swig_varlink_type@@9@4PADA 0000000180045130     ua.obj
 0003:00004150       ?SWIG_module@?1??PyInit__ida_ua@@9@4UPyModuleDef@@A 0000000180045150     ua.obj
 0003:00004360       ?swig_types@@3PAPEAUswig_type_info@@A 0000000180045360     ua.obj
 0003:000045c8       Swig_This_global           00000001800455c8     ua.obj
 0003:000045d0       swig_const_table           00000001800455d0     ua.obj
 0003:00004608       ?type@?1??SwigPyObject_type@@9@4PEAU_typeobject@@EA 0000000180045608     ua.obj
 0003:00004610       ?$TSS0@?1??SwigPyObject_type@@9@4HA 0000000180045610     ua.obj
 0003:00004618       ?type@?1??SwigPyPacked_type@@9@4PEAU_typeobject@@EA 0000000180045618     ua.obj
 0003:00004620       ?$TSS0@?1??SwigPyPacked_type@@9@4HA 0000000180045620     ua.obj
 0003:00004628       ?type_pointer@?1??SWIG_Python_GetModule@@9@4PEAXEA 0000000180045628     ua.obj
 0003:00004630       ?cache@?1??SWIG_Python_TypeCache@@9@4PEAU_object@@EA 0000000180045630     ua.obj
 0003:00004638       ?$TSS0@?1??SWIG_Python_TypeCache@@9@4HA 0000000180045638     ua.obj
 0003:0000463c       ?init@?1??SWIG_pchar_descriptor@@YAPEAUswig_type_info@@XZ@4HA 000000018004563c     ua.obj
 0003:00004640       ?info@?1??SWIG_pchar_descriptor@@YAPEAUswig_type_info@@XZ@4PEAU2@EA 0000000180045640     ua.obj
 0003:00004648       ?macro_builders@?1??py_construct_macro@@YA_NAEAVinsn_t@@_NPEAU_object@@@Z@4V?$qstack@Uref_t@@@@A 0000000180045648     ua.obj
 0003:00004660       ?$TSS0@?1??py_construct_macro@@YA_NAEAVinsn_t@@_NPEAU_object@@@Z@4HA 0000000180045660     ua.obj
 0003:00004668       ?globals@?1??SWIG_globals@@9@4PEAU_object@@EA 0000000180045668     ua.obj
 0003:00004680       ?is_initialized_as_dll@@3_NA 0000000180045680     MSVCRT:utility.obj
 0003:00004681       ?module_local_atexit_table_initialized@@3_NA 0000000180045681     MSVCRT:utility.obj
 0003:00004688       ?module_local_atexit_table@@3U_onexit_table_t@@A 0000000180045688     MSVCRT:utility.obj
 0003:000046a0       ?module_local_at_quick_exit_table@@3U_onexit_table_t@@A 00000001800456a0     MSVCRT:utility.obj
 0003:000046b8       ?_Tss_mutex@@3U_RTL_CRITICAL_SECTION@@A 00000001800456b8     MSVCRT:thread_safe_statics.obj
 0003:000046e0       ?_Tss_cv@@3U_RTL_CONDITION_VARIABLE@@A 00000001800456e0     MSVCRT:thread_safe_statics.obj
 0003:000046e8       ?_Tss_event@@3PEAXEA       00000001800456e8     MSVCRT:thread_safe_statics.obj
 0003:000046f0       ?encoded_sleep_condition_variable_cs@@3P6AHPEAU_RTL_CONDITION_VARIABLE@@PEAU_RTL_CRITICAL_SECTION@@K@ZEA 00000001800456f0     MSVCRT:thread_safe_statics.obj
 0003:000046f8       ?encoded_wake_all_condition_variable@@3P6AXPEAU_RTL_CONDITION_VARIABLE@@@ZEA 00000001800456f8     MSVCRT:thread_safe_statics.obj
 0003:00004704       ?__proc_attached@@3HA      0000000180045704     MSVCRT:dll_dllmain.obj
 0003:00004710       GS_ExceptionRecord         0000000180045710     MSVCRT:gs_report.obj
 0003:000047b0       GS_ContextRecord           00000001800457b0     MSVCRT:gs_report.obj
 0004:00000000       $pdata$printf              0000000180046000     ua.obj
 0004:0000000c       $pdata$SWIG_TypeClientData 000000018004600c     ua.obj
 0004:00000018       $pdata$SWIG_MangledTypeQueryModule 0000000180046018     ua.obj
 0004:00000024       $pdata$?SWIG_Python_RaiseOrModifyTypeError@@YAXPEBD@Z 0000000180046024     ua.obj
 0004:00000030       $pdata$?SWIG_Python_SetErrorObj@@YAXPEAU_object@@0@Z 0000000180046030     ua.obj
 0004:0000003c       $pdata$?SWIG_Python_UnpackTuple@@YA_JPEAU_object@@PEBD_J2PEAPEAU1@@Z 000000018004603c     ua.obj
 0004:00000048       $pdata$0$?SWIG_Python_UnpackTuple@@YA_JPEAU_object@@PEBD_J2PEAPEAU1@@Z 0000000180046048     ua.obj
 0004:00000054       $pdata$1$?SWIG_Python_UnpackTuple@@YA_JPEAU_object@@PEBD_J2PEAPEAU1@@Z 0000000180046054     ua.obj
 0004:00000060       $pdata$SwigPyClientData_New 0000000180046060     ua.obj
 0004:0000006c       $pdata$2$SwigPyClientData_New 000000018004606c     ua.obj
 0004:00000078       $pdata$3$SwigPyClientData_New 0000000180046078     ua.obj
 0004:00000084       $pdata$SwigPyObject_repr   0000000180046084     ua.obj
 0004:00000090       $pdata$0$SwigPyObject_repr 0000000180046090     ua.obj
 0004:0000009c       $pdata$1$SwigPyObject_repr 000000018004609c     ua.obj
 0004:000000a8       $pdata$SwigPyObject_type   00000001800460a8     ua.obj
 0004:000000b4       $pdata$SwigPyObject_Check  00000001800460b4     ua.obj
 0004:000000c0       $pdata$SwigPyObject_New    00000001800460c0     ua.obj
 0004:000000cc       $pdata$SwigPyObject_dealloc 00000001800460cc     ua.obj
 0004:000000d8       $pdata$2$SwigPyObject_dealloc 00000001800460d8     ua.obj
 0004:000000e4       $pdata$3$SwigPyObject_dealloc 00000001800460e4     ua.obj
 0004:000000f0       $pdata$SwigPyObject_append 00000001800460f0     ua.obj
 0004:000000fc       $pdata$SwigPyObject_own    00000001800460fc     ua.obj
 0004:00000108       $pdata$0$SwigPyObject_own  0000000180046108     ua.obj
 0004:00000114       $pdata$2$SwigPyObject_own  0000000180046114     ua.obj
 0004:00000120       $pdata$SwigPyPacked_repr   0000000180046120     ua.obj
 0004:0000012c       $pdata$0$SwigPyPacked_repr 000000018004612c     ua.obj
 0004:00000138       $pdata$1$SwigPyPacked_repr 0000000180046138     ua.obj
 0004:00000144       $pdata$SwigPyPacked_str    0000000180046144     ua.obj
 0004:00000150       $pdata$0$SwigPyPacked_str  0000000180046150     ua.obj
 0004:0000015c       $pdata$1$SwigPyPacked_str  000000018004615c     ua.obj
 0004:00000168       $pdata$SwigPyPacked_type   0000000180046168     ua.obj
 0004:00000174       $pdata$SwigPyPacked_Check  0000000180046174     ua.obj
 0004:00000180       $pdata$SwigPyPacked_dealloc 0000000180046180     ua.obj
 0004:0000018c       $pdata$SWIG_This           000000018004618c     ua.obj
 0004:00000198       $pdata$SWIG_Python_GetSwigThis 0000000180046198     ua.obj
 0004:000001a4       $pdata$SWIG_Python_InitShadowInstance 00000001800461a4     ua.obj
 0004:000001b0       $pdata$SWIG_Python_NewPointerObj 00000001800461b0     ua.obj
 0004:000001bc       $pdata$SWIG_Python_DestroyModule 00000001800461bc     ua.obj
 0004:000001c8       $pdata$2$SWIG_Python_DestroyModule 00000001800461c8     ua.obj
 0004:000001d4       $pdata$3$SWIG_Python_DestroyModule 00000001800461d4     ua.obj
 0004:000001e0       $pdata$4$SWIG_Python_DestroyModule 00000001800461e0     ua.obj
 0004:000001ec       $pdata$5$SWIG_Python_DestroyModule 00000001800461ec     ua.obj
 0004:000001f8       $pdata$SWIG_Python_TypeCache 00000001800461f8     ua.obj
 0004:00000204       $pdata$SWIG_Python_TypeQuery 0000000180046204     ua.obj
 0004:00000210       $pdata$1$SWIG_Python_TypeQuery 0000000180046210     ua.obj
 0004:0000021c       $pdata$5$SWIG_Python_TypeQuery 000000018004621c     ua.obj
 0004:00000228       $pdata$6$SWIG_Python_TypeQuery 0000000180046228     ua.obj
 0004:00000234       $pdata$7$SWIG_Python_TypeQuery 0000000180046234     ua.obj
 0004:00000240       $pdata$??0exception@std@@QEAA@AEBV01@@Z 0000000180046240     ua.obj
 0004:0000024c       $pdata$??_Gbad_alloc@std@@UEAAPEAXI@Z 000000018004624c     MSVCRT:throw_bad_alloc.obj
 0004:0000024c       $pdata$??_Gexception@std@@UEAAPEAXI@Z 000000018004624c     ua.obj
 0004:0000024c       $pdata$??_Gbad_array_new_length@std@@UEAAPEAXI@Z 000000018004624c     MSVCRT:throw_bad_alloc.obj
 0004:0000024c       $pdata$??_Glogic_error@std@@UEAAPEAXI@Z 000000018004624c     ua.obj
 0004:0000024c       $pdata$??_Gout_of_range@std@@UEAAPEAXI@Z 000000018004624c     ua.obj
 0004:00000258       $pdata$??0logic_error@std@@QEAA@AEBV01@@Z 0000000180046258     ua.obj
 0004:00000264       $pdata$??0out_of_range@std@@QEAA@PEBD@Z 0000000180046264     ua.obj
 0004:00000270       $pdata$??0out_of_range@std@@QEAA@AEBV01@@Z 0000000180046270     ua.obj
 0004:0000027c       $pdata$?resize@?$qvector@D@@QEAAX_K@Z 000000018004627c     ua.obj
 0004:00000288       $pdata$??0?$_qstring@D@@QEAA@PEBD_K@Z 0000000180046288     ua.obj
 0004:00000294       $pdata$0$??0?$_qstring@D@@QEAA@PEBD_K@Z 0000000180046294     ua.obj
 0004:000002a0       $pdata$1$??0?$_qstring@D@@QEAA@PEBD_K@Z 00000001800462a0     ua.obj
 0004:000002ac       $pdata$??4?$_qstring@D@@QEAAAEAV0@AEBV0@@Z 00000001800462ac     ua.obj
 0004:000002b8       $pdata$0$??4?$_qstring@D@@QEAAAEAV0@AEBV0@@Z 00000001800462b8     ua.obj
 0004:000002c4       $pdata$2$??4?$_qstring@D@@QEAAAEAV0@AEBV0@@Z 00000001800462c4     ua.obj
 0004:000002d0       $pdata$3$??4?$_qstring@D@@QEAAAEAV0@AEBV0@@Z 00000001800462d0     ua.obj
 0004:000002dc       $pdata$?sprnt@?$_qstring@D@@QEAAAEAV1@PEBDZZ 00000001800462dc     ua.obj
 0004:000002e8       $pdata$?__raise_e@@YAXAEBVexception@std@@@Z 00000001800462e8     ua.obj
 0004:000002f4       $pdata$?__raise_ie@@YAXAEBUinterr_exc_t@@@Z 00000001800462f4     ua.obj
 0004:00000300       $pdata$?out_printf@outctx_base_t@@QEAAXPEBDZZ 0000000180046300     ua.obj
 0004:0000030c       $pdata$?gen_printf@outctx_base_t@@QEAA_NHPEBDZZ 000000018004630c     ua.obj
 0004:00000318       $pdata$?gen_cmt_line@outctx_base_t@@QEAA_NPEBDZZ 0000000180046318     ua.obj
 0004:00000324       $pdata$?gen_collapsed_line@outctx_base_t@@QEAA_NPEBDZZ 0000000180046324     ua.obj
 0004:00000330       $pdata$?SWIG_AsVal_unsigned_SS_char@@YAHPEAU_object@@PEAE@Z 0000000180046330     ua.obj
 0004:0000033c       $pdata$?SWIG_AsVal_int@@YAHPEAU_object@@PEAH@Z 000000018004633c     ua.obj
 0004:00000348       $pdata$?SWIG_AsVal_unsigned_SS_int@@YAHPEAU_object@@PEAI@Z 0000000180046348     ua.obj
 0004:00000354       $pdata$?SWIG_FromCharPtrAndSize@@YAPEAU_object@@PEBD_K@Z 0000000180046354     ua.obj
 0004:00000360       $pdata$?SWIG_AsCharArray@@YAHPEAU_object@@PEAD_K@Z 0000000180046360     ua.obj
 0004:0000036c       $pdata$?py_construct_macro@@YA_NAEAVinsn_t@@_NPEAU_object@@@Z 000000018004636c     ua.obj
 0004:00000378       $pdata$4$?py_construct_macro@@YA_NAEAVinsn_t@@_NPEAU_object@@@Z 0000000180046378     ua.obj
 0004:00000384       $pdata$6$?py_construct_macro@@YA_NAEAVinsn_t@@_NPEAU_object@@@Z 0000000180046384     ua.obj
 0004:00000390       $pdata$7$?py_construct_macro@@YA_NAEAVinsn_t@@_NPEAU_object@@@Z 0000000180046390     ua.obj
 0004:0000039c       $pdata$??__Fmacro_builders@?1??py_construct_macro@@YA_NAEAVinsn_t@@_NPEAU_object@@@Z@YAXXZ 000000018004639c     ua.obj
 0004:000003a8       $pdata$?call_build_macro@lambda_t@?1??py_construct_macro@@YA_NAEAVinsn_t@@_NPEAU_object@@@Z@SA_N01@Z 00000001800463a8     ua.obj
 0004:000003b4       $pdata$_wrap_operands_array_data_get 00000001800463b4     ua.obj
 0004:000003c0       $pdata$0$_wrap_operands_array_data_get 00000001800463c0     ua.obj
 0004:000003cc       $pdata$1$_wrap_operands_array_data_get 00000001800463cc     ua.obj
 0004:000003d8       $pdata$_wrap_new_operands_array 00000001800463d8     ua.obj
 0004:000003e4       $pdata$_wrap_new_operands_array$catch$1 00000001800463e4     ua.obj
 0004:000003f0       $pdata$_wrap_new_operands_array$catch$2 00000001800463f0     ua.obj
 0004:000003fc       $pdata$_wrap_new_operands_array$catch$3 00000001800463fc     ua.obj
 0004:00000408       $pdata$_wrap_new_operands_array$catch$4 0000000180046408     ua.obj
 0004:00000414       $pdata$_wrap_new_operands_array$catch$5 0000000180046414     ua.obj
 0004:00000420       $pdata$_wrap_new_operands_array$catch$6 0000000180046420     ua.obj
 0004:0000042c       $pdata$_wrap_operands_array___len__ 000000018004642c     ua.obj
 0004:00000438       $pdata$_wrap_operands_array___len__$catch$5 0000000180046438     ua.obj
 0004:00000444       $pdata$_wrap_operands_array___len__$catch$4 0000000180046444     ua.obj
 0004:00000450       $pdata$_wrap_operands_array___len__$catch$3 0000000180046450     ua.obj
 0004:0000045c       $pdata$_wrap_operands_array___len__$catch$2 000000018004645c     ua.obj
 0004:00000468       $pdata$_wrap_operands_array___len__$catch$1 0000000180046468     ua.obj
 0004:00000474       $pdata$_wrap_operands_array___len__$catch$0 0000000180046474     ua.obj
 0004:00000480       $pdata$_wrap_operands_array___getitem__ 0000000180046480     ua.obj
 0004:0000048c       $pdata$_wrap_operands_array___getitem__$catch$0 000000018004648c     ua.obj
 0004:00000498       $pdata$_wrap_operands_array___getitem__$catch$1 0000000180046498     ua.obj
 0004:000004a4       $pdata$_wrap_operands_array___getitem__$catch$2 00000001800464a4     ua.obj
 0004:000004b0       $pdata$_wrap_operands_array___getitem__$catch$3 00000001800464b0     ua.obj
 0004:000004bc       $pdata$_wrap_operands_array___getitem__$catch$4 00000001800464bc     ua.obj
 0004:000004c8       $pdata$_wrap_operands_array___getitem__$catch$5 00000001800464c8     ua.obj
 0004:000004d4       $pdata$_wrap_operands_array___getitem__$catch$6 00000001800464d4     ua.obj
 0004:000004e0       $pdata$_wrap_operands_array___setitem__ 00000001800464e0     ua.obj
 0004:000004ec       $pdata$_wrap_operands_array___setitem__$catch$0 00000001800464ec     ua.obj
 0004:000004f8       $pdata$_wrap_operands_array___setitem__$catch$1 00000001800464f8     ua.obj
 0004:00000504       $pdata$_wrap_operands_array___setitem__$catch$2 0000000180046504     ua.obj
 0004:00000510       $pdata$_wrap_operands_array___setitem__$catch$3 0000000180046510     ua.obj
 0004:0000051c       $pdata$_wrap_operands_array___setitem__$catch$4 000000018004651c     ua.obj
 0004:00000528       $pdata$_wrap_operands_array___setitem__$catch$5 0000000180046528     ua.obj
 0004:00000534       $pdata$_wrap_operands_array___setitem__$catch$6 0000000180046534     ua.obj
 0004:00000540       $pdata$_wrap_delete_operands_array 0000000180046540     ua.obj
 0004:0000054c       $pdata$_wrap_delete_operands_array$catch$5 000000018004654c     ua.obj
 0004:00000558       $pdata$_wrap_delete_operands_array$catch$4 0000000180046558     ua.obj
 0004:00000564       $pdata$_wrap_delete_operands_array$catch$3 0000000180046564     ua.obj
 0004:00000570       $pdata$_wrap_delete_operands_array$catch$2 0000000180046570     ua.obj
 0004:0000057c       $pdata$_wrap_delete_operands_array$catch$1 000000018004657c     ua.obj
 0004:00000588       $pdata$_wrap_delete_operands_array$catch$0 0000000180046588     ua.obj
 0004:00000594       $pdata$operands_array_swigregister 0000000180046594     ua.obj
 0004:000005a0       $pdata$Swig_var_o_void_set 00000001800465a0     ua.obj
 0004:000005ac       $pdata$Swig_var_o_reg_set  00000001800465ac     ua.obj
 0004:000005b8       $pdata$Swig_var_o_mem_set  00000001800465b8     ua.obj
 0004:000005c4       $pdata$Swig_var_o_phrase_set 00000001800465c4     ua.obj
 0004:000005d0       $pdata$Swig_var_o_displ_set 00000001800465d0     ua.obj
 0004:000005dc       $pdata$Swig_var_o_imm_set  00000001800465dc     ua.obj
 0004:000005e8       $pdata$Swig_var_o_far_set  00000001800465e8     ua.obj
 0004:000005f4       $pdata$Swig_var_o_near_set 00000001800465f4     ua.obj
 0004:00000600       $pdata$Swig_var_o_idpspec0_set 0000000180046600     ua.obj
 0004:0000060c       $pdata$Swig_var_o_idpspec1_set 000000018004660c     ua.obj
 0004:00000618       $pdata$Swig_var_o_idpspec2_set 0000000180046618     ua.obj
 0004:00000624       $pdata$Swig_var_o_idpspec3_set 0000000180046624     ua.obj
 0004:00000630       $pdata$Swig_var_o_idpspec4_set 0000000180046630     ua.obj
 0004:0000063c       $pdata$Swig_var_o_idpspec5_set 000000018004663c     ua.obj
 0004:00000648       $pdata$_wrap_op_t_n_set    0000000180046648     ua.obj
 0004:00000654       $pdata$0$_wrap_op_t_n_set  0000000180046654     ua.obj
 0004:00000660       $pdata$1$_wrap_op_t_n_set  0000000180046660     ua.obj
 0004:0000066c       $pdata$_wrap_op_t_n_get    000000018004666c     ua.obj
 0004:00000678       $pdata$0$_wrap_op_t_n_get  0000000180046678     ua.obj
 0004:00000684       $pdata$1$_wrap_op_t_n_get  0000000180046684     ua.obj
 0004:00000690       $pdata$_wrap_op_t_type_set 0000000180046690     ua.obj
 0004:0000069c       $pdata$0$_wrap_op_t_type_set 000000018004669c     ua.obj
 0004:000006a8       $pdata$1$_wrap_op_t_type_set 00000001800466a8     ua.obj
 0004:000006b4       $pdata$_wrap_op_t_type_get 00000001800466b4     ua.obj
 0004:000006c0       $pdata$0$_wrap_op_t_type_get 00000001800466c0     ua.obj
 0004:000006cc       $pdata$1$_wrap_op_t_type_get 00000001800466cc     ua.obj
 0004:000006d8       $pdata$_wrap_op_t_offb_set 00000001800466d8     ua.obj
 0004:000006e4       $pdata$0$_wrap_op_t_offb_set 00000001800466e4     ua.obj
 0004:000006f0       $pdata$1$_wrap_op_t_offb_set 00000001800466f0     ua.obj
 0004:000006fc       $pdata$_wrap_op_t_offb_get 00000001800466fc     ua.obj
 0004:00000708       $pdata$0$_wrap_op_t_offb_get 0000000180046708     ua.obj
 0004:00000714       $pdata$1$_wrap_op_t_offb_get 0000000180046714     ua.obj
 0004:00000720       $pdata$_wrap_op_t_offo_set 0000000180046720     ua.obj
 0004:0000072c       $pdata$0$_wrap_op_t_offo_set 000000018004672c     ua.obj
 0004:00000738       $pdata$1$_wrap_op_t_offo_set 0000000180046738     ua.obj
 0004:00000744       $pdata$_wrap_op_t_offo_get 0000000180046744     ua.obj
 0004:00000750       $pdata$0$_wrap_op_t_offo_get 0000000180046750     ua.obj
 0004:0000075c       $pdata$1$_wrap_op_t_offo_get 000000018004675c     ua.obj
 0004:00000768       $pdata$_wrap_op_t_flags_set 0000000180046768     ua.obj
 0004:00000774       $pdata$0$_wrap_op_t_flags_set 0000000180046774     ua.obj
 0004:00000780       $pdata$1$_wrap_op_t_flags_set 0000000180046780     ua.obj
 0004:0000078c       $pdata$_wrap_op_t_flags_get 000000018004678c     ua.obj
 0004:00000798       $pdata$0$_wrap_op_t_flags_get 0000000180046798     ua.obj
 0004:000007a4       $pdata$1$_wrap_op_t_flags_get 00000001800467a4     ua.obj
 0004:000007b0       $pdata$_wrap_op_t_set_shown 00000001800467b0     ua.obj
 0004:000007bc       $pdata$_wrap_op_t_set_shown$catch$5 00000001800467bc     ua.obj
 0004:000007c8       $pdata$_wrap_op_t_set_shown$catch$4 00000001800467c8     ua.obj
 0004:000007d4       $pdata$_wrap_op_t_set_shown$catch$3 00000001800467d4     ua.obj
 0004:000007e0       $pdata$_wrap_op_t_set_shown$catch$2 00000001800467e0     ua.obj
 0004:000007ec       $pdata$_wrap_op_t_set_shown$catch$1 00000001800467ec     ua.obj
 0004:000007f8       $pdata$_wrap_op_t_set_shown$catch$0 00000001800467f8     ua.obj
 0004:00000804       $pdata$_wrap_op_t_clr_shown 0000000180046804     ua.obj
 0004:00000810       $pdata$_wrap_op_t_clr_shown$catch$5 0000000180046810     ua.obj
 0004:0000081c       $pdata$_wrap_op_t_clr_shown$catch$4 000000018004681c     ua.obj
 0004:00000828       $pdata$_wrap_op_t_clr_shown$catch$3 0000000180046828     ua.obj
 0004:00000834       $pdata$_wrap_op_t_clr_shown$catch$2 0000000180046834     ua.obj
 0004:00000840       $pdata$_wrap_op_t_clr_shown$catch$1 0000000180046840     ua.obj
 0004:0000084c       $pdata$_wrap_op_t_clr_shown$catch$0 000000018004684c     ua.obj
 0004:00000858       $pdata$_wrap_op_t_shown    0000000180046858     ua.obj
 0004:00000864       $pdata$_wrap_op_t_shown$catch$5 0000000180046864     ua.obj
 0004:00000870       $pdata$_wrap_op_t_shown$catch$4 0000000180046870     ua.obj
 0004:0000087c       $pdata$_wrap_op_t_shown$catch$3 000000018004687c     ua.obj
 0004:00000888       $pdata$_wrap_op_t_shown$catch$2 0000000180046888     ua.obj
 0004:00000894       $pdata$_wrap_op_t_shown$catch$1 0000000180046894     ua.obj
 0004:000008a0       $pdata$_wrap_op_t_shown$catch$0 00000001800468a0     ua.obj
 0004:000008ac       $pdata$_wrap_op_t_dtype_set 00000001800468ac     ua.obj
 0004:000008b8       $pdata$0$_wrap_op_t_dtype_set 00000001800468b8     ua.obj
 0004:000008c4       $pdata$1$_wrap_op_t_dtype_set 00000001800468c4     ua.obj
 0004:000008d0       $pdata$_wrap_op_t_dtype_get 00000001800468d0     ua.obj
 0004:000008dc       $pdata$0$_wrap_op_t_dtype_get 00000001800468dc     ua.obj
 0004:000008e8       $pdata$1$_wrap_op_t_dtype_get 00000001800468e8     ua.obj
 0004:000008f4       $pdata$_wrap_op_t_is_reg   00000001800468f4     ua.obj
 0004:00000900       $pdata$_wrap_op_t_is_reg$catch$5 0000000180046900     ua.obj
 0004:0000090c       $pdata$_wrap_op_t_is_reg$catch$4 000000018004690c     ua.obj
 0004:00000918       $pdata$_wrap_op_t_is_reg$catch$3 0000000180046918     ua.obj
 0004:00000924       $pdata$_wrap_op_t_is_reg$catch$2 0000000180046924     ua.obj
 0004:00000930       $pdata$_wrap_op_t_is_reg$catch$1 0000000180046930     ua.obj
 0004:0000093c       $pdata$_wrap_op_t_is_reg$catch$0 000000018004693c     ua.obj
 0004:00000948       $pdata$_wrap_op_t_is_imm   0000000180046948     ua.obj
 0004:00000954       $pdata$_wrap_op_t_is_imm$catch$5 0000000180046954     ua.obj
 0004:00000960       $pdata$_wrap_op_t_is_imm$catch$4 0000000180046960     ua.obj
 0004:0000096c       $pdata$_wrap_op_t_is_imm$catch$3 000000018004696c     ua.obj
 0004:00000978       $pdata$_wrap_op_t_is_imm$catch$2 0000000180046978     ua.obj
 0004:00000984       $pdata$_wrap_op_t_is_imm$catch$1 0000000180046984     ua.obj
 0004:00000990       $pdata$_wrap_op_t_is_imm$catch$0 0000000180046990     ua.obj
 0004:0000099c       $pdata$_wrap_op_t_specflag1_set 000000018004699c     ua.obj
 0004:000009a8       $pdata$0$_wrap_op_t_specflag1_set 00000001800469a8     ua.obj
 0004:000009b4       $pdata$1$_wrap_op_t_specflag1_set 00000001800469b4     ua.obj
 0004:000009c0       $pdata$_wrap_op_t_specflag1_get 00000001800469c0     ua.obj
 0004:000009cc       $pdata$0$_wrap_op_t_specflag1_get 00000001800469cc     ua.obj
 0004:000009d8       $pdata$1$_wrap_op_t_specflag1_get 00000001800469d8     ua.obj
 0004:000009e4       $pdata$_wrap_op_t_specflag2_set 00000001800469e4     ua.obj
 0004:000009f0       $pdata$0$_wrap_op_t_specflag2_set 00000001800469f0     ua.obj
 0004:000009fc       $pdata$1$_wrap_op_t_specflag2_set 00000001800469fc     ua.obj
 0004:00000a08       $pdata$_wrap_op_t_specflag2_get 0000000180046a08     ua.obj
 0004:00000a14       $pdata$0$_wrap_op_t_specflag2_get 0000000180046a14     ua.obj
 0004:00000a20       $pdata$1$_wrap_op_t_specflag2_get 0000000180046a20     ua.obj
 0004:00000a2c       $pdata$_wrap_op_t_specflag3_set 0000000180046a2c     ua.obj
 0004:00000a38       $pdata$0$_wrap_op_t_specflag3_set 0000000180046a38     ua.obj
 0004:00000a44       $pdata$1$_wrap_op_t_specflag3_set 0000000180046a44     ua.obj
 0004:00000a50       $pdata$_wrap_op_t_specflag3_get 0000000180046a50     ua.obj
 0004:00000a5c       $pdata$0$_wrap_op_t_specflag3_get 0000000180046a5c     ua.obj
 0004:00000a68       $pdata$1$_wrap_op_t_specflag3_get 0000000180046a68     ua.obj
 0004:00000a74       $pdata$_wrap_op_t_specflag4_set 0000000180046a74     ua.obj
 0004:00000a80       $pdata$0$_wrap_op_t_specflag4_set 0000000180046a80     ua.obj
 0004:00000a8c       $pdata$1$_wrap_op_t_specflag4_set 0000000180046a8c     ua.obj
 0004:00000a98       $pdata$_wrap_op_t_specflag4_get 0000000180046a98     ua.obj
 0004:00000aa4       $pdata$0$_wrap_op_t_specflag4_get 0000000180046aa4     ua.obj
 0004:00000ab0       $pdata$1$_wrap_op_t_specflag4_get 0000000180046ab0     ua.obj
 0004:00000abc       $pdata$_wrap_op_t___get_reg_phrase__ 0000000180046abc     ua.obj
 0004:00000ac8       $pdata$_wrap_op_t___get_reg_phrase__$catch$5 0000000180046ac8     ua.obj
 0004:00000ad4       $pdata$_wrap_op_t___get_reg_phrase__$catch$4 0000000180046ad4     ua.obj
 0004:00000ae0       $pdata$_wrap_op_t___get_reg_phrase__$catch$3 0000000180046ae0     ua.obj
 0004:00000aec       $pdata$_wrap_op_t___get_reg_phrase__$catch$2 0000000180046aec     ua.obj
 0004:00000af8       $pdata$_wrap_op_t___get_reg_phrase__$catch$1 0000000180046af8     ua.obj
 0004:00000b04       $pdata$_wrap_op_t___get_reg_phrase__$catch$0 0000000180046b04     ua.obj
 0004:00000b10       $pdata$_wrap_op_t___set_reg_phrase__ 0000000180046b10     ua.obj
 0004:00000b1c       $pdata$_wrap_op_t___set_reg_phrase__$catch$5 0000000180046b1c     ua.obj
 0004:00000b28       $pdata$_wrap_op_t___set_reg_phrase__$catch$4 0000000180046b28     ua.obj
 0004:00000b34       $pdata$_wrap_op_t___set_reg_phrase__$catch$3 0000000180046b34     ua.obj
 0004:00000b40       $pdata$_wrap_op_t___set_reg_phrase__$catch$2 0000000180046b40     ua.obj
 0004:00000b4c       $pdata$_wrap_op_t___set_reg_phrase__$catch$1 0000000180046b4c     ua.obj
 0004:00000b58       $pdata$_wrap_op_t___set_reg_phrase__$catch$0 0000000180046b58     ua.obj
 0004:00000b64       $pdata$_wrap_op_t___get_value__ 0000000180046b64     ua.obj
 0004:00000b70       $pdata$_wrap_op_t___get_value__$catch$5 0000000180046b70     ua.obj
 0004:00000b7c       $pdata$_wrap_op_t___get_value__$catch$4 0000000180046b7c     ua.obj
 0004:00000b88       $pdata$_wrap_op_t___get_value__$catch$3 0000000180046b88     ua.obj
 0004:00000b94       $pdata$_wrap_op_t___get_value__$catch$2 0000000180046b94     ua.obj
 0004:00000ba0       $pdata$_wrap_op_t___get_value__$catch$1 0000000180046ba0     ua.obj
 0004:00000bac       $pdata$_wrap_op_t___get_value__$catch$0 0000000180046bac     ua.obj
 0004:00000bb8       $pdata$_wrap_op_t___set_value__ 0000000180046bb8     ua.obj
 0004:00000bc4       $pdata$_wrap_op_t___set_value__$catch$5 0000000180046bc4     ua.obj
 0004:00000bd0       $pdata$_wrap_op_t___set_value__$catch$4 0000000180046bd0     ua.obj
 0004:00000bdc       $pdata$_wrap_op_t___set_value__$catch$3 0000000180046bdc     ua.obj
 0004:00000be8       $pdata$_wrap_op_t___set_value__$catch$2 0000000180046be8     ua.obj
 0004:00000bf4       $pdata$_wrap_op_t___set_value__$catch$1 0000000180046bf4     ua.obj
 0004:00000c00       $pdata$_wrap_op_t___set_value__$catch$0 0000000180046c00     ua.obj
 0004:00000c0c       $pdata$_wrap_op_t___get_addr__ 0000000180046c0c     ua.obj
 0004:00000c18       $pdata$_wrap_op_t___get_addr__$catch$5 0000000180046c18     ua.obj
 0004:00000c24       $pdata$_wrap_op_t___get_addr__$catch$4 0000000180046c24     ua.obj
 0004:00000c30       $pdata$_wrap_op_t___get_addr__$catch$3 0000000180046c30     ua.obj
 0004:00000c3c       $pdata$_wrap_op_t___get_addr__$catch$2 0000000180046c3c     ua.obj
 0004:00000c48       $pdata$_wrap_op_t___get_addr__$catch$1 0000000180046c48     ua.obj
 0004:00000c54       $pdata$_wrap_op_t___get_addr__$catch$0 0000000180046c54     ua.obj
 0004:00000c60       $pdata$_wrap_op_t___set_addr__ 0000000180046c60     ua.obj
 0004:00000c6c       $pdata$_wrap_op_t___set_addr__$catch$5 0000000180046c6c     ua.obj
 0004:00000c78       $pdata$_wrap_op_t___set_addr__$catch$4 0000000180046c78     ua.obj
 0004:00000c84       $pdata$_wrap_op_t___set_addr__$catch$3 0000000180046c84     ua.obj
 0004:00000c90       $pdata$_wrap_op_t___set_addr__$catch$2 0000000180046c90     ua.obj
 0004:00000c9c       $pdata$_wrap_op_t___set_addr__$catch$1 0000000180046c9c     ua.obj
 0004:00000ca8       $pdata$_wrap_op_t___set_addr__$catch$0 0000000180046ca8     ua.obj
 0004:00000cb4       $pdata$_wrap_op_t___get_specval__ 0000000180046cb4     ua.obj
 0004:00000cc0       $pdata$_wrap_op_t___get_specval__$catch$5 0000000180046cc0     ua.obj
 0004:00000ccc       $pdata$_wrap_op_t___get_specval__$catch$4 0000000180046ccc     ua.obj
 0004:00000cd8       $pdata$_wrap_op_t___get_specval__$catch$3 0000000180046cd8     ua.obj
 0004:00000ce4       $pdata$_wrap_op_t___get_specval__$catch$2 0000000180046ce4     ua.obj
 0004:00000cf0       $pdata$_wrap_op_t___get_specval__$catch$1 0000000180046cf0     ua.obj
 0004:00000cfc       $pdata$_wrap_op_t___get_specval__$catch$0 0000000180046cfc     ua.obj
 0004:00000d08       $pdata$_wrap_op_t___set_specval__ 0000000180046d08     ua.obj
 0004:00000d14       $pdata$_wrap_op_t___set_specval__$catch$5 0000000180046d14     ua.obj
 0004:00000d20       $pdata$_wrap_op_t___set_specval__$catch$4 0000000180046d20     ua.obj
 0004:00000d2c       $pdata$_wrap_op_t___set_specval__$catch$3 0000000180046d2c     ua.obj
 0004:00000d38       $pdata$_wrap_op_t___set_specval__$catch$2 0000000180046d38     ua.obj
 0004:00000d44       $pdata$_wrap_op_t___set_specval__$catch$1 0000000180046d44     ua.obj
 0004:00000d50       $pdata$_wrap_op_t___set_specval__$catch$0 0000000180046d50     ua.obj
 0004:00000d5c       $pdata$_wrap_op_t_assign   0000000180046d5c     ua.obj
 0004:00000d68       $pdata$_wrap_op_t_assign$catch$5 0000000180046d68     ua.obj
 0004:00000d74       $pdata$_wrap_op_t_assign$catch$4 0000000180046d74     ua.obj
 0004:00000d80       $pdata$_wrap_op_t_assign$catch$3 0000000180046d80     ua.obj
 0004:00000d8c       $pdata$_wrap_op_t_assign$catch$2 0000000180046d8c     ua.obj
 0004:00000d98       $pdata$_wrap_op_t_assign$catch$1 0000000180046d98     ua.obj
 0004:00000da4       $pdata$_wrap_op_t_assign$catch$0 0000000180046da4     ua.obj
 0004:00000db0       $pdata$_wrap_new_op_t      0000000180046db0     ua.obj
 0004:00000dbc       $pdata$_wrap_new_op_t$catch$0 0000000180046dbc     ua.obj
 0004:00000dc8       $pdata$_wrap_new_op_t$catch$1 0000000180046dc8     ua.obj
 0004:00000dd4       $pdata$_wrap_new_op_t$catch$2 0000000180046dd4     ua.obj
 0004:00000de0       $pdata$_wrap_new_op_t$catch$3 0000000180046de0     ua.obj
 0004:00000dec       $pdata$_wrap_new_op_t$catch$4 0000000180046dec     ua.obj
 0004:00000df8       $pdata$_wrap_new_op_t$catch$5 0000000180046df8     ua.obj
 0004:00000e04       $pdata$_wrap_delete_op_t   0000000180046e04     ua.obj
 0004:00000e10       $pdata$_wrap_delete_op_t$catch$5 0000000180046e10     ua.obj
 0004:00000e1c       $pdata$_wrap_delete_op_t$catch$4 0000000180046e1c     ua.obj
 0004:00000e28       $pdata$_wrap_delete_op_t$catch$3 0000000180046e28     ua.obj
 0004:00000e34       $pdata$_wrap_delete_op_t$catch$2 0000000180046e34     ua.obj
 0004:00000e40       $pdata$_wrap_delete_op_t$catch$1 0000000180046e40     ua.obj
 0004:00000e4c       $pdata$_wrap_delete_op_t$catch$0 0000000180046e4c     ua.obj
 0004:00000e58       $pdata$op_t_swigregister   0000000180046e58     ua.obj
 0004:00000e64       $pdata$_wrap_insn_add_cref 0000000180046e64     ua.obj
 0004:00000e70       $pdata$_wrap_insn_add_cref$catch$5 0000000180046e70     ua.obj
 0004:00000e7c       $pdata$_wrap_insn_add_cref$catch$4 0000000180046e7c     ua.obj
 0004:00000e88       $pdata$_wrap_insn_add_cref$catch$3 0000000180046e88     ua.obj
 0004:00000e94       $pdata$_wrap_insn_add_cref$catch$2 0000000180046e94     ua.obj
 0004:00000ea0       $pdata$_wrap_insn_add_cref$catch$1 0000000180046ea0     ua.obj
 0004:00000eac       $pdata$_wrap_insn_add_cref$catch$0 0000000180046eac     ua.obj
 0004:00000eb8       $pdata$_wrap_insn_add_dref 0000000180046eb8     ua.obj
 0004:00000ec4       $pdata$_wrap_insn_add_dref$catch$5 0000000180046ec4     ua.obj
 0004:00000ed0       $pdata$_wrap_insn_add_dref$catch$4 0000000180046ed0     ua.obj
 0004:00000edc       $pdata$_wrap_insn_add_dref$catch$3 0000000180046edc     ua.obj
 0004:00000ee8       $pdata$_wrap_insn_add_dref$catch$2 0000000180046ee8     ua.obj
 0004:00000ef4       $pdata$_wrap_insn_add_dref$catch$1 0000000180046ef4     ua.obj
 0004:00000f00       $pdata$_wrap_insn_add_dref$catch$0 0000000180046f00     ua.obj
 0004:00000f0c       $pdata$_wrap_insn_add_off_drefs 0000000180046f0c     ua.obj
 0004:00000f18       $pdata$_wrap_insn_add_off_drefs$catch$5 0000000180046f18     ua.obj
 0004:00000f24       $pdata$_wrap_insn_add_off_drefs$catch$4 0000000180046f24     ua.obj
 0004:00000f30       $pdata$_wrap_insn_add_off_drefs$catch$3 0000000180046f30     ua.obj
 0004:00000f3c       $pdata$_wrap_insn_add_off_drefs$catch$2 0000000180046f3c     ua.obj
 0004:00000f48       $pdata$_wrap_insn_add_off_drefs$catch$1 0000000180046f48     ua.obj
 0004:00000f54       $pdata$_wrap_insn_add_off_drefs$catch$0 0000000180046f54     ua.obj
 0004:00000f60       $pdata$_wrap_insn_create_stkvar 0000000180046f60     ua.obj
 0004:00000f6c       $pdata$_wrap_insn_create_stkvar$catch$5 0000000180046f6c     ua.obj
 0004:00000f78       $pdata$_wrap_insn_create_stkvar$catch$4 0000000180046f78     ua.obj
 0004:00000f84       $pdata$_wrap_insn_create_stkvar$catch$3 0000000180046f84     ua.obj
 0004:00000f90       $pdata$_wrap_insn_create_stkvar$catch$2 0000000180046f90     ua.obj
 0004:00000f9c       $pdata$_wrap_insn_create_stkvar$catch$1 0000000180046f9c     ua.obj
 0004:00000fa8       $pdata$_wrap_insn_create_stkvar$catch$0 0000000180046fa8     ua.obj
 0004:00000fb4       $pdata$_wrap_new_insn_t    0000000180046fb4     ua.obj
 0004:00000fc0       $pdata$_wrap_new_insn_t$catch$1 0000000180046fc0     ua.obj
 0004:00000fcc       $pdata$_wrap_new_insn_t$catch$2 0000000180046fcc     ua.obj
 0004:00000fd8       $pdata$_wrap_new_insn_t$catch$3 0000000180046fd8     ua.obj
 0004:00000fe4       $pdata$_wrap_new_insn_t$catch$4 0000000180046fe4     ua.obj
 0004:00000ff0       $pdata$_wrap_new_insn_t$catch$5 0000000180046ff0     ua.obj
 0004:00000ffc       $pdata$_wrap_new_insn_t$catch$6 0000000180046ffc     ua.obj
 0004:00001008       $pdata$_wrap_insn_t_cs_set 0000000180047008     ua.obj
 0004:00001014       $pdata$0$_wrap_insn_t_cs_set 0000000180047014     ua.obj
 0004:00001020       $pdata$1$_wrap_insn_t_cs_set 0000000180047020     ua.obj
 0004:0000102c       $pdata$_wrap_insn_t_cs_get 000000018004702c     ua.obj
 0004:00001038       $pdata$0$_wrap_insn_t_cs_get 0000000180047038     ua.obj
 0004:00001044       $pdata$1$_wrap_insn_t_cs_get 0000000180047044     ua.obj
 0004:00001050       $pdata$_wrap_insn_t_ip_set 0000000180047050     ua.obj
 0004:0000105c       $pdata$0$_wrap_insn_t_ip_set 000000018004705c     ua.obj
 0004:00001068       $pdata$1$_wrap_insn_t_ip_set 0000000180047068     ua.obj
 0004:00001074       $pdata$_wrap_insn_t_ip_get 0000000180047074     ua.obj
 0004:00001080       $pdata$0$_wrap_insn_t_ip_get 0000000180047080     ua.obj
 0004:0000108c       $pdata$1$_wrap_insn_t_ip_get 000000018004708c     ua.obj
 0004:00001098       $pdata$_wrap_insn_t_ea_set 0000000180047098     ua.obj
 0004:000010a4       $pdata$0$_wrap_insn_t_ea_set 00000001800470a4     ua.obj
 0004:000010b0       $pdata$1$_wrap_insn_t_ea_set 00000001800470b0     ua.obj
 0004:000010bc       $pdata$_wrap_insn_t_ea_get 00000001800470bc     ua.obj
 0004:000010c8       $pdata$0$_wrap_insn_t_ea_get 00000001800470c8     ua.obj
 0004:000010d4       $pdata$1$_wrap_insn_t_ea_get 00000001800470d4     ua.obj
 0004:000010e0       $pdata$_wrap_insn_t_itype_set 00000001800470e0     ua.obj
 0004:000010ec       $pdata$0$_wrap_insn_t_itype_set 00000001800470ec     ua.obj
 0004:000010f8       $pdata$1$_wrap_insn_t_itype_set 00000001800470f8     ua.obj
 0004:00001104       $pdata$_wrap_insn_t_itype_get 0000000180047104     ua.obj
 0004:00001110       $pdata$0$_wrap_insn_t_itype_get 0000000180047110     ua.obj
 0004:0000111c       $pdata$1$_wrap_insn_t_itype_get 000000018004711c     ua.obj
 0004:00001128       $pdata$_wrap_insn_t_is_canon_insn 0000000180047128     ua.obj
 0004:00001134       $pdata$_wrap_insn_t_is_canon_insn$catch$5 0000000180047134     ua.obj
 0004:00001140       $pdata$_wrap_insn_t_is_canon_insn$catch$4 0000000180047140     ua.obj
 0004:0000114c       $pdata$_wrap_insn_t_is_canon_insn$catch$3 000000018004714c     ua.obj
 0004:00001158       $pdata$_wrap_insn_t_is_canon_insn$catch$2 0000000180047158     ua.obj
 0004:00001164       $pdata$_wrap_insn_t_is_canon_insn$catch$1 0000000180047164     ua.obj
 0004:00001170       $pdata$_wrap_insn_t_is_canon_insn$catch$0 0000000180047170     ua.obj
 0004:0000117c       $pdata$_wrap_insn_t_get_canon_feature 000000018004717c     ua.obj
 0004:00001188       $pdata$_wrap_insn_t_get_canon_feature$catch$5 0000000180047188     ua.obj
 0004:00001194       $pdata$_wrap_insn_t_get_canon_feature$catch$4 0000000180047194     ua.obj
 0004:000011a0       $pdata$_wrap_insn_t_get_canon_feature$catch$3 00000001800471a0     ua.obj
 0004:000011ac       $pdata$_wrap_insn_t_get_canon_feature$catch$2 00000001800471ac     ua.obj
 0004:000011b8       $pdata$_wrap_insn_t_get_canon_feature$catch$1 00000001800471b8     ua.obj
 0004:000011c4       $pdata$_wrap_insn_t_get_canon_feature$catch$0 00000001800471c4     ua.obj
 0004:000011d0       $pdata$_wrap_insn_t_get_canon_mnem 00000001800471d0     ua.obj
 0004:000011dc       $pdata$_wrap_insn_t_get_canon_mnem$catch$5 00000001800471dc     ua.obj
 0004:000011e8       $pdata$_wrap_insn_t_get_canon_mnem$catch$4 00000001800471e8     ua.obj
 0004:000011f4       $pdata$_wrap_insn_t_get_canon_mnem$catch$3 00000001800471f4     ua.obj
 0004:00001200       $pdata$_wrap_insn_t_get_canon_mnem$catch$2 0000000180047200     ua.obj
 0004:0000120c       $pdata$_wrap_insn_t_get_canon_mnem$catch$1 000000018004720c     ua.obj
 0004:00001218       $pdata$_wrap_insn_t_get_canon_mnem$catch$0 0000000180047218     ua.obj
 0004:00001224       $pdata$_wrap_insn_t_size_set 0000000180047224     ua.obj
 0004:00001230       $pdata$0$_wrap_insn_t_size_set 0000000180047230     ua.obj
 0004:0000123c       $pdata$1$_wrap_insn_t_size_set 000000018004723c     ua.obj
 0004:00001248       $pdata$_wrap_insn_t_size_get 0000000180047248     ua.obj
 0004:00001254       $pdata$0$_wrap_insn_t_size_get 0000000180047254     ua.obj
 0004:00001260       $pdata$1$_wrap_insn_t_size_get 0000000180047260     ua.obj
 0004:0000126c       $pdata$_wrap_insn_t_segpref_set 000000018004726c     ua.obj
 0004:00001278       $pdata$0$_wrap_insn_t_segpref_set 0000000180047278     ua.obj
 0004:00001284       $pdata$1$_wrap_insn_t_segpref_set 0000000180047284     ua.obj
 0004:00001290       $pdata$_wrap_insn_t_segpref_get 0000000180047290     ua.obj
 0004:0000129c       $pdata$0$_wrap_insn_t_segpref_get 000000018004729c     ua.obj
 0004:000012a8       $pdata$1$_wrap_insn_t_segpref_get 00000001800472a8     ua.obj
 0004:000012b4       $pdata$_wrap_insn_t_insnpref_set 00000001800472b4     ua.obj
 0004:000012c0       $pdata$0$_wrap_insn_t_insnpref_set 00000001800472c0     ua.obj
 0004:000012cc       $pdata$1$_wrap_insn_t_insnpref_set 00000001800472cc     ua.obj
 0004:000012d8       $pdata$_wrap_insn_t_insnpref_get 00000001800472d8     ua.obj
 0004:000012e4       $pdata$0$_wrap_insn_t_insnpref_get 00000001800472e4     ua.obj
 0004:000012f0       $pdata$1$_wrap_insn_t_insnpref_get 00000001800472f0     ua.obj
 0004:000012fc       $pdata$_wrap_insn_t_flags_set 00000001800472fc     ua.obj
 0004:00001308       $pdata$0$_wrap_insn_t_flags_set 0000000180047308     ua.obj
 0004:00001314       $pdata$1$_wrap_insn_t_flags_set 0000000180047314     ua.obj
 0004:00001320       $pdata$_wrap_insn_t_flags_get 0000000180047320     ua.obj
 0004:0000132c       $pdata$0$_wrap_insn_t_flags_get 000000018004732c     ua.obj
 0004:00001338       $pdata$1$_wrap_insn_t_flags_get 0000000180047338     ua.obj
 0004:00001344       $pdata$_wrap_insn_t_ops_set 0000000180047344     ua.obj
 0004:00001350       $pdata$_wrap_insn_t_ops_get 0000000180047350     ua.obj
 0004:0000135c       $pdata$0$_wrap_insn_t_ops_get 000000018004735c     ua.obj
 0004:00001368       $pdata$1$_wrap_insn_t_ops_get 0000000180047368     ua.obj
 0004:00001374       $pdata$_wrap_insn_t_is_macro 0000000180047374     ua.obj
 0004:00001380       $pdata$_wrap_insn_t_is_macro$catch$5 0000000180047380     ua.obj
 0004:0000138c       $pdata$_wrap_insn_t_is_macro$catch$4 000000018004738c     ua.obj
 0004:00001398       $pdata$_wrap_insn_t_is_macro$catch$3 0000000180047398     ua.obj
 0004:000013a4       $pdata$_wrap_insn_t_is_macro$catch$2 00000001800473a4     ua.obj
 0004:000013b0       $pdata$_wrap_insn_t_is_macro$catch$1 00000001800473b0     ua.obj
 0004:000013bc       $pdata$_wrap_insn_t_is_macro$catch$0 00000001800473bc     ua.obj
 0004:000013c8       $pdata$_wrap_insn_t_is_64bit 00000001800473c8     ua.obj
 0004:000013d4       $pdata$_wrap_insn_t_is_64bit$catch$5 00000001800473d4     ua.obj
 0004:000013e0       $pdata$_wrap_insn_t_is_64bit$catch$4 00000001800473e0     ua.obj
 0004:000013ec       $pdata$_wrap_insn_t_is_64bit$catch$3 00000001800473ec     ua.obj
 0004:000013f8       $pdata$_wrap_insn_t_is_64bit$catch$2 00000001800473f8     ua.obj
 0004:00001404       $pdata$_wrap_insn_t_is_64bit$catch$1 0000000180047404     ua.obj
 0004:00001410       $pdata$_wrap_insn_t_is_64bit$catch$0 0000000180047410     ua.obj
 0004:0000141c       $pdata$_wrap_insn_t_get_next_byte 000000018004741c     ua.obj
 0004:00001428       $pdata$_wrap_insn_t_get_next_byte$catch$5 0000000180047428     ua.obj
 0004:00001434       $pdata$_wrap_insn_t_get_next_byte$catch$4 0000000180047434     ua.obj
 0004:00001440       $pdata$_wrap_insn_t_get_next_byte$catch$3 0000000180047440     ua.obj
 0004:0000144c       $pdata$_wrap_insn_t_get_next_byte$catch$2 000000018004744c     ua.obj
 0004:00001458       $pdata$_wrap_insn_t_get_next_byte$catch$1 0000000180047458     ua.obj
 0004:00001464       $pdata$_wrap_insn_t_get_next_byte$catch$0 0000000180047464     ua.obj
 0004:00001470       $pdata$_wrap_insn_t_get_next_word 0000000180047470     ua.obj
 0004:0000147c       $pdata$_wrap_insn_t_get_next_word$catch$5 000000018004747c     ua.obj
 0004:00001488       $pdata$_wrap_insn_t_get_next_word$catch$4 0000000180047488     ua.obj
 0004:00001494       $pdata$_wrap_insn_t_get_next_word$catch$3 0000000180047494     ua.obj
 0004:000014a0       $pdata$_wrap_insn_t_get_next_word$catch$2 00000001800474a0     ua.obj
 0004:000014ac       $pdata$_wrap_insn_t_get_next_word$catch$1 00000001800474ac     ua.obj
 0004:000014b8       $pdata$_wrap_insn_t_get_next_word$catch$0 00000001800474b8     ua.obj
 0004:000014c4       $pdata$_wrap_insn_t_get_next_dword 00000001800474c4     ua.obj
 0004:000014d0       $pdata$_wrap_insn_t_get_next_dword$catch$5 00000001800474d0     ua.obj
 0004:000014dc       $pdata$_wrap_insn_t_get_next_dword$catch$4 00000001800474dc     ua.obj
 0004:000014e8       $pdata$_wrap_insn_t_get_next_dword$catch$3 00000001800474e8     ua.obj
 0004:000014f4       $pdata$_wrap_insn_t_get_next_dword$catch$2 00000001800474f4     ua.obj
 0004:00001500       $pdata$_wrap_insn_t_get_next_dword$catch$1 0000000180047500     ua.obj
 0004:0000150c       $pdata$_wrap_insn_t_get_next_dword$catch$0 000000018004750c     ua.obj
 0004:00001518       $pdata$_wrap_insn_t_get_next_qword 0000000180047518     ua.obj
 0004:00001524       $pdata$_wrap_insn_t_get_next_qword$catch$5 0000000180047524     ua.obj
 0004:00001530       $pdata$_wrap_insn_t_get_next_qword$catch$4 0000000180047530     ua.obj
 0004:0000153c       $pdata$_wrap_insn_t_get_next_qword$catch$3 000000018004753c     ua.obj
 0004:00001548       $pdata$_wrap_insn_t_get_next_qword$catch$2 0000000180047548     ua.obj
 0004:00001554       $pdata$_wrap_insn_t_get_next_qword$catch$1 0000000180047554     ua.obj
 0004:00001560       $pdata$_wrap_insn_t_get_next_qword$catch$0 0000000180047560     ua.obj
 0004:0000156c       $pdata$_wrap_insn_t_create_op_data__SWIG_0 000000018004756c     ua.obj
 0004:00001578       $pdata$_wrap_insn_t_create_op_data__SWIG_0$catch$5 0000000180047578     ua.obj
 0004:00001584       $pdata$_wrap_insn_t_create_op_data__SWIG_0$catch$4 0000000180047584     ua.obj
 0004:00001590       $pdata$_wrap_insn_t_create_op_data__SWIG_0$catch$3 0000000180047590     ua.obj
 0004:0000159c       $pdata$_wrap_insn_t_create_op_data__SWIG_0$catch$2 000000018004759c     ua.obj
 0004:000015a8       $pdata$_wrap_insn_t_create_op_data__SWIG_0$catch$1 00000001800475a8     ua.obj
 0004:000015b4       $pdata$_wrap_insn_t_create_op_data__SWIG_0$catch$0 00000001800475b4     ua.obj
 0004:000015c0       $pdata$_wrap_insn_t_create_op_data__SWIG_1 00000001800475c0     ua.obj
 0004:000015cc       $pdata$_wrap_insn_t_create_op_data__SWIG_1$catch$5 00000001800475cc     ua.obj
 0004:000015d8       $pdata$_wrap_insn_t_create_op_data__SWIG_1$catch$4 00000001800475d8     ua.obj
 0004:000015e4       $pdata$_wrap_insn_t_create_op_data__SWIG_1$catch$3 00000001800475e4     ua.obj
 0004:000015f0       $pdata$_wrap_insn_t_create_op_data__SWIG_1$catch$2 00000001800475f0     ua.obj
 0004:000015fc       $pdata$_wrap_insn_t_create_op_data__SWIG_1$catch$1 00000001800475fc     ua.obj
 0004:00001608       $pdata$_wrap_insn_t_create_op_data__SWIG_1$catch$0 0000000180047608     ua.obj
 0004:00001614       $pdata$_wrap_insn_t_create_op_data 0000000180047614     ua.obj
 0004:00001620       $pdata$_wrap_insn_t_create_stkvar 0000000180047620     ua.obj
 0004:0000162c       $pdata$_wrap_insn_t_create_stkvar$catch$5 000000018004762c     ua.obj
 0004:00001638       $pdata$_wrap_insn_t_create_stkvar$catch$4 0000000180047638     ua.obj
 0004:00001644       $pdata$_wrap_insn_t_create_stkvar$catch$3 0000000180047644     ua.obj
 0004:00001650       $pdata$_wrap_insn_t_create_stkvar$catch$2 0000000180047650     ua.obj
 0004:0000165c       $pdata$_wrap_insn_t_create_stkvar$catch$1 000000018004765c     ua.obj
 0004:00001668       $pdata$_wrap_insn_t_create_stkvar$catch$0 0000000180047668     ua.obj
 0004:00001674       $pdata$_wrap_insn_t_add_cref 0000000180047674     ua.obj
 0004:00001680       $pdata$_wrap_insn_t_add_cref$catch$5 0000000180047680     ua.obj
 0004:0000168c       $pdata$_wrap_insn_t_add_cref$catch$4 000000018004768c     ua.obj
 0004:00001698       $pdata$_wrap_insn_t_add_cref$catch$3 0000000180047698     ua.obj
 0004:000016a4       $pdata$_wrap_insn_t_add_cref$catch$2 00000001800476a4     ua.obj
 0004:000016b0       $pdata$_wrap_insn_t_add_cref$catch$1 00000001800476b0     ua.obj
 0004:000016bc       $pdata$_wrap_insn_t_add_cref$catch$0 00000001800476bc     ua.obj
 0004:000016c8       $pdata$_wrap_insn_t_add_dref 00000001800476c8     ua.obj
 0004:000016d4       $pdata$_wrap_insn_t_add_dref$catch$5 00000001800476d4     ua.obj
 0004:000016e0       $pdata$_wrap_insn_t_add_dref$catch$4 00000001800476e0     ua.obj
 0004:000016ec       $pdata$_wrap_insn_t_add_dref$catch$3 00000001800476ec     ua.obj
 0004:000016f8       $pdata$_wrap_insn_t_add_dref$catch$2 00000001800476f8     ua.obj
 0004:00001704       $pdata$_wrap_insn_t_add_dref$catch$1 0000000180047704     ua.obj
 0004:00001710       $pdata$_wrap_insn_t_add_dref$catch$0 0000000180047710     ua.obj
 0004:0000171c       $pdata$_wrap_insn_t_add_off_drefs 000000018004771c     ua.obj
 0004:00001728       $pdata$_wrap_insn_t_add_off_drefs$catch$5 0000000180047728     ua.obj
 0004:00001734       $pdata$_wrap_insn_t_add_off_drefs$catch$4 0000000180047734     ua.obj
 0004:00001740       $pdata$_wrap_insn_t_add_off_drefs$catch$3 0000000180047740     ua.obj
 0004:0000174c       $pdata$_wrap_insn_t_add_off_drefs$catch$2 000000018004774c     ua.obj
 0004:00001758       $pdata$_wrap_insn_t_add_off_drefs$catch$1 0000000180047758     ua.obj
 0004:00001764       $pdata$_wrap_insn_t_add_off_drefs$catch$0 0000000180047764     ua.obj
 0004:00001770       $pdata$_wrap_insn_t___get_ops__ 0000000180047770     ua.obj
 0004:0000177c       $pdata$_wrap_insn_t___get_ops__$catch$5 000000018004777c     ua.obj
 0004:00001788       $pdata$_wrap_insn_t___get_ops__$catch$6 0000000180047788     ua.obj
 0004:00001794       $pdata$_wrap_insn_t___get_ops__$catch$7 0000000180047794     ua.obj
 0004:000017a0       $pdata$_wrap_insn_t___get_ops__$catch$8 00000001800477a0     ua.obj
 0004:000017ac       $pdata$_wrap_insn_t___get_ops__$catch$9 00000001800477ac     ua.obj
 0004:000017b8       $pdata$_wrap_insn_t___get_ops__$catch$10 00000001800477b8     ua.obj
 0004:000017c4       $pdata$_wrap_insn_t___get_operand__ 00000001800477c4     ua.obj
 0004:000017d0       $pdata$_wrap_insn_t___get_operand__$catch$5 00000001800477d0     ua.obj
 0004:000017dc       $pdata$_wrap_insn_t___get_operand__$catch$4 00000001800477dc     ua.obj
 0004:000017e8       $pdata$_wrap_insn_t___get_operand__$catch$3 00000001800477e8     ua.obj
 0004:000017f4       $pdata$_wrap_insn_t___get_operand__$catch$2 00000001800477f4     ua.obj
 0004:00001800       $pdata$_wrap_insn_t___get_operand__$catch$1 0000000180047800     ua.obj
 0004:0000180c       $pdata$_wrap_insn_t___get_operand__$catch$0 000000018004780c     ua.obj
 0004:00001818       $pdata$_wrap_insn_t___get_auxpref__ 0000000180047818     ua.obj
 0004:00001824       $pdata$_wrap_insn_t___get_auxpref__$catch$5 0000000180047824     ua.obj
 0004:00001830       $pdata$_wrap_insn_t___get_auxpref__$catch$4 0000000180047830     ua.obj
 0004:0000183c       $pdata$_wrap_insn_t___get_auxpref__$catch$3 000000018004783c     ua.obj
 0004:00001848       $pdata$_wrap_insn_t___get_auxpref__$catch$2 0000000180047848     ua.obj
 0004:00001854       $pdata$_wrap_insn_t___get_auxpref__$catch$1 0000000180047854     ua.obj
 0004:00001860       $pdata$_wrap_insn_t___get_auxpref__$catch$0 0000000180047860     ua.obj
 0004:0000186c       $pdata$_wrap_insn_t___set_auxpref__ 000000018004786c     ua.obj
 0004:00001878       $pdata$_wrap_insn_t___set_auxpref__$catch$5 0000000180047878     ua.obj
 0004:00001884       $pdata$_wrap_insn_t___set_auxpref__$catch$4 0000000180047884     ua.obj
 0004:00001890       $pdata$_wrap_insn_t___set_auxpref__$catch$3 0000000180047890     ua.obj
 0004:0000189c       $pdata$_wrap_insn_t___set_auxpref__$catch$2 000000018004789c     ua.obj
 0004:000018a8       $pdata$_wrap_insn_t___set_auxpref__$catch$1 00000001800478a8     ua.obj
 0004:000018b4       $pdata$_wrap_insn_t___set_auxpref__$catch$0 00000001800478b4     ua.obj
 0004:000018c0       $pdata$_wrap_insn_t_assign 00000001800478c0     ua.obj
 0004:000018cc       $pdata$_wrap_insn_t_assign$catch$5 00000001800478cc     ua.obj
 0004:000018d8       $pdata$_wrap_insn_t_assign$catch$4 00000001800478d8     ua.obj
 0004:000018e4       $pdata$_wrap_insn_t_assign$catch$3 00000001800478e4     ua.obj
 0004:000018f0       $pdata$_wrap_insn_t_assign$catch$2 00000001800478f0     ua.obj
 0004:000018fc       $pdata$_wrap_insn_t_assign$catch$1 00000001800478fc     ua.obj
 0004:00001908       $pdata$_wrap_insn_t_assign$catch$0 0000000180047908     ua.obj
 0004:00001914       $pdata$_wrap_delete_insn_t 0000000180047914     ua.obj
 0004:00001920       $pdata$_wrap_delete_insn_t$catch$5 0000000180047920     ua.obj
 0004:0000192c       $pdata$_wrap_delete_insn_t$catch$4 000000018004792c     ua.obj
 0004:00001938       $pdata$_wrap_delete_insn_t$catch$3 0000000180047938     ua.obj
 0004:00001944       $pdata$_wrap_delete_insn_t$catch$2 0000000180047944     ua.obj
 0004:00001950       $pdata$_wrap_delete_insn_t$catch$1 0000000180047950     ua.obj
 0004:0000195c       $pdata$_wrap_delete_insn_t$catch$0 000000018004795c     ua.obj
 0004:00001968       $pdata$insn_t_swigregister 0000000180047968     ua.obj
 0004:00001974       $pdata$_wrap_get_lookback  0000000180047974     ua.obj
 0004:00001980       $pdata$_wrap_get_lookback$catch$5 0000000180047980     ua.obj
 0004:0000198c       $pdata$_wrap_get_lookback$catch$4 000000018004798c     ua.obj
 0004:00001998       $pdata$_wrap_get_lookback$catch$3 0000000180047998     ua.obj
 0004:000019a4       $pdata$_wrap_get_lookback$catch$2 00000001800479a4     ua.obj
 0004:000019b0       $pdata$_wrap_get_lookback$catch$1 00000001800479b0     ua.obj
 0004:000019bc       $pdata$_wrap_get_lookback$catch$0 00000001800479bc     ua.obj
 0004:000019c8       $pdata$_wrap_calc_dataseg  00000001800479c8     ua.obj
 0004:000019d4       $pdata$_wrap_calc_dataseg$catch$5 00000001800479d4     ua.obj
 0004:000019e0       $pdata$_wrap_calc_dataseg$catch$4 00000001800479e0     ua.obj
 0004:000019ec       $pdata$_wrap_calc_dataseg$catch$3 00000001800479ec     ua.obj
 0004:000019f8       $pdata$_wrap_calc_dataseg$catch$2 00000001800479f8     ua.obj
 0004:00001a04       $pdata$_wrap_calc_dataseg$catch$1 0000000180047a04     ua.obj
 0004:00001a10       $pdata$_wrap_calc_dataseg$catch$0 0000000180047a10     ua.obj
 0004:00001a1c       $pdata$_wrap_map_data_ea__SWIG_0 0000000180047a1c     ua.obj
 0004:00001a28       $pdata$_wrap_map_data_ea__SWIG_0$catch$5 0000000180047a28     ua.obj
 0004:00001a34       $pdata$_wrap_map_data_ea__SWIG_0$catch$4 0000000180047a34     ua.obj
 0004:00001a40       $pdata$_wrap_map_data_ea__SWIG_0$catch$3 0000000180047a40     ua.obj
 0004:00001a4c       $pdata$_wrap_map_data_ea__SWIG_0$catch$2 0000000180047a4c     ua.obj
 0004:00001a58       $pdata$_wrap_map_data_ea__SWIG_0$catch$1 0000000180047a58     ua.obj
 0004:00001a64       $pdata$_wrap_map_data_ea__SWIG_0$catch$0 0000000180047a64     ua.obj
 0004:00001a70       $pdata$_wrap_map_data_ea__SWIG_1 0000000180047a70     ua.obj
 0004:00001a7c       $pdata$_wrap_map_data_ea__SWIG_1$catch$5 0000000180047a7c     ua.obj
 0004:00001a88       $pdata$_wrap_map_data_ea__SWIG_1$catch$4 0000000180047a88     ua.obj
 0004:00001a94       $pdata$_wrap_map_data_ea__SWIG_1$catch$3 0000000180047a94     ua.obj
 0004:00001aa0       $pdata$_wrap_map_data_ea__SWIG_1$catch$2 0000000180047aa0     ua.obj
 0004:00001aac       $pdata$_wrap_map_data_ea__SWIG_1$catch$1 0000000180047aac     ua.obj
 0004:00001ab8       $pdata$_wrap_map_data_ea__SWIG_1$catch$0 0000000180047ab8     ua.obj
 0004:00001ac4       $pdata$_wrap_map_data_ea   0000000180047ac4     ua.obj
 0004:00001ad0       $pdata$3$_wrap_map_data_ea 0000000180047ad0     ua.obj
 0004:00001adc       $pdata$4$_wrap_map_data_ea 0000000180047adc     ua.obj
 0004:00001ae8       $pdata$5$_wrap_map_data_ea 0000000180047ae8     ua.obj
 0004:00001af4       $pdata$_wrap_map_code_ea__SWIG_0 0000000180047af4     ua.obj
 0004:00001b00       $pdata$_wrap_map_code_ea__SWIG_0$catch$5 0000000180047b00     ua.obj
 0004:00001b0c       $pdata$_wrap_map_code_ea__SWIG_0$catch$4 0000000180047b0c     ua.obj
 0004:00001b18       $pdata$_wrap_map_code_ea__SWIG_0$catch$3 0000000180047b18     ua.obj
 0004:00001b24       $pdata$_wrap_map_code_ea__SWIG_0$catch$2 0000000180047b24     ua.obj
 0004:00001b30       $pdata$_wrap_map_code_ea__SWIG_0$catch$1 0000000180047b30     ua.obj
 0004:00001b3c       $pdata$_wrap_map_code_ea__SWIG_0$catch$0 0000000180047b3c     ua.obj
 0004:00001b48       $pdata$_wrap_map_code_ea__SWIG_1 0000000180047b48     ua.obj
 0004:00001b54       $pdata$_wrap_map_code_ea__SWIG_1$catch$5 0000000180047b54     ua.obj
 0004:00001b60       $pdata$_wrap_map_code_ea__SWIG_1$catch$4 0000000180047b60     ua.obj
 0004:00001b6c       $pdata$_wrap_map_code_ea__SWIG_1$catch$3 0000000180047b6c     ua.obj
 0004:00001b78       $pdata$_wrap_map_code_ea__SWIG_1$catch$2 0000000180047b78     ua.obj
 0004:00001b84       $pdata$_wrap_map_code_ea__SWIG_1$catch$1 0000000180047b84     ua.obj
 0004:00001b90       $pdata$_wrap_map_code_ea__SWIG_1$catch$0 0000000180047b90     ua.obj
 0004:00001b9c       $pdata$_wrap_map_code_ea   0000000180047b9c     ua.obj
 0004:00001ba8       $pdata$3$_wrap_map_code_ea 0000000180047ba8     ua.obj
 0004:00001bb4       $pdata$4$_wrap_map_code_ea 0000000180047bb4     ua.obj
 0004:00001bc0       $pdata$5$_wrap_map_code_ea 0000000180047bc0     ua.obj
 0004:00001bcc       $pdata$_wrap_map_ea__SWIG_0 0000000180047bcc     ua.obj
 0004:00001bd8       $pdata$_wrap_map_ea__SWIG_0$catch$5 0000000180047bd8     ua.obj
 0004:00001be4       $pdata$_wrap_map_ea__SWIG_0$catch$4 0000000180047be4     ua.obj
 0004:00001bf0       $pdata$_wrap_map_ea__SWIG_0$catch$3 0000000180047bf0     ua.obj
 0004:00001bfc       $pdata$_wrap_map_ea__SWIG_0$catch$2 0000000180047bfc     ua.obj
 0004:00001c08       $pdata$_wrap_map_ea__SWIG_0$catch$1 0000000180047c08     ua.obj
 0004:00001c14       $pdata$_wrap_map_ea__SWIG_0$catch$0 0000000180047c14     ua.obj
 0004:00001c20       $pdata$_wrap_map_ea__SWIG_1 0000000180047c20     ua.obj
 0004:00001c2c       $pdata$_wrap_map_ea__SWIG_1$catch$5 0000000180047c2c     ua.obj
 0004:00001c38       $pdata$_wrap_map_ea__SWIG_1$catch$4 0000000180047c38     ua.obj
 0004:00001c44       $pdata$_wrap_map_ea__SWIG_1$catch$3 0000000180047c44     ua.obj
 0004:00001c50       $pdata$_wrap_map_ea__SWIG_1$catch$2 0000000180047c50     ua.obj
 0004:00001c5c       $pdata$_wrap_map_ea__SWIG_1$catch$1 0000000180047c5c     ua.obj
 0004:00001c68       $pdata$_wrap_map_ea__SWIG_1$catch$0 0000000180047c68     ua.obj
 0004:00001c74       $pdata$_wrap_map_ea        0000000180047c74     ua.obj
 0004:00001c80       $pdata$5$_wrap_map_ea      0000000180047c80     ua.obj
 0004:00001c8c       $pdata$6$_wrap_map_ea      0000000180047c8c     ua.obj
 0004:00001c98       $pdata$7$_wrap_map_ea      0000000180047c98     ua.obj
 0004:00001ca4       $pdata$_wrap_outctx_base_t_insn_ea_set 0000000180047ca4     ua.obj
 0004:00001cb0       $pdata$0$_wrap_outctx_base_t_insn_ea_set 0000000180047cb0     ua.obj
 0004:00001cbc       $pdata$1$_wrap_outctx_base_t_insn_ea_set 0000000180047cbc     ua.obj
 0004:00001cc8       $pdata$_wrap_outctx_base_t_insn_ea_get 0000000180047cc8     ua.obj
 0004:00001cd4       $pdata$0$_wrap_outctx_base_t_insn_ea_get 0000000180047cd4     ua.obj
 0004:00001ce0       $pdata$1$_wrap_outctx_base_t_insn_ea_get 0000000180047ce0     ua.obj
 0004:00001cec       $pdata$_wrap_outctx_base_t_outbuf_set 0000000180047cec     ua.obj
 0004:00001cf8       $pdata$0$_wrap_outctx_base_t_outbuf_set 0000000180047cf8     ua.obj
 0004:00001d04       $pdata$1$_wrap_outctx_base_t_outbuf_set 0000000180047d04     ua.obj
 0004:00001d10       $pdata$_wrap_outctx_base_t_outbuf_get 0000000180047d10     ua.obj
 0004:00001d1c       $pdata$0$_wrap_outctx_base_t_outbuf_get 0000000180047d1c     ua.obj
 0004:00001d28       $pdata$1$_wrap_outctx_base_t_outbuf_get 0000000180047d28     ua.obj
 0004:00001d34       $pdata$_wrap_outctx_base_t_default_lnnum_set 0000000180047d34     ua.obj
 0004:00001d40       $pdata$0$_wrap_outctx_base_t_default_lnnum_set 0000000180047d40     ua.obj
 0004:00001d4c       $pdata$1$_wrap_outctx_base_t_default_lnnum_set 0000000180047d4c     ua.obj
 0004:00001d58       $pdata$_wrap_outctx_base_t_default_lnnum_get 0000000180047d58     ua.obj
 0004:00001d64       $pdata$0$_wrap_outctx_base_t_default_lnnum_get 0000000180047d64     ua.obj
 0004:00001d70       $pdata$1$_wrap_outctx_base_t_default_lnnum_get 0000000180047d70     ua.obj
 0004:00001d7c       $pdata$_wrap_outctx_base_t_only_main_line 0000000180047d7c     ua.obj
 0004:00001d88       $pdata$_wrap_outctx_base_t_only_main_line$catch$5 0000000180047d88     ua.obj
 0004:00001d94       $pdata$_wrap_outctx_base_t_only_main_line$catch$4 0000000180047d94     ua.obj
 0004:00001da0       $pdata$_wrap_outctx_base_t_only_main_line$catch$3 0000000180047da0     ua.obj
 0004:00001dac       $pdata$_wrap_outctx_base_t_only_main_line$catch$2 0000000180047dac     ua.obj
 0004:00001db8       $pdata$_wrap_outctx_base_t_only_main_line$catch$1 0000000180047db8     ua.obj
 0004:00001dc4       $pdata$_wrap_outctx_base_t_only_main_line$catch$0 0000000180047dc4     ua.obj
 0004:00001dd0       $pdata$_wrap_outctx_base_t_multiline 0000000180047dd0     ua.obj
 0004:00001ddc       $pdata$_wrap_outctx_base_t_multiline$catch$5 0000000180047ddc     ua.obj
 0004:00001de8       $pdata$_wrap_outctx_base_t_multiline$catch$4 0000000180047de8     ua.obj
 0004:00001df4       $pdata$_wrap_outctx_base_t_multiline$catch$3 0000000180047df4     ua.obj
 0004:00001e00       $pdata$_wrap_outctx_base_t_multiline$catch$2 0000000180047e00     ua.obj
 0004:00001e0c       $pdata$_wrap_outctx_base_t_multiline$catch$1 0000000180047e0c     ua.obj
 0004:00001e18       $pdata$_wrap_outctx_base_t_multiline$catch$0 0000000180047e18     ua.obj
 0004:00001e24       $pdata$_wrap_outctx_base_t_force_code 0000000180047e24     ua.obj
 0004:00001e30       $pdata$_wrap_outctx_base_t_force_code$catch$5 0000000180047e30     ua.obj
 0004:00001e3c       $pdata$_wrap_outctx_base_t_force_code$catch$4 0000000180047e3c     ua.obj
 0004:00001e48       $pdata$_wrap_outctx_base_t_force_code$catch$3 0000000180047e48     ua.obj
 0004:00001e54       $pdata$_wrap_outctx_base_t_force_code$catch$2 0000000180047e54     ua.obj
 0004:00001e60       $pdata$_wrap_outctx_base_t_force_code$catch$1 0000000180047e60     ua.obj
 0004:00001e6c       $pdata$_wrap_outctx_base_t_force_code$catch$0 0000000180047e6c     ua.obj
 0004:00001e78       $pdata$_wrap_outctx_base_t_stack_view 0000000180047e78     ua.obj
 0004:00001e84       $pdata$_wrap_outctx_base_t_stack_view$catch$5 0000000180047e84     ua.obj
 0004:00001e90       $pdata$_wrap_outctx_base_t_stack_view$catch$4 0000000180047e90     ua.obj
 0004:00001e9c       $pdata$_wrap_outctx_base_t_stack_view$catch$3 0000000180047e9c     ua.obj
 0004:00001ea8       $pdata$_wrap_outctx_base_t_stack_view$catch$2 0000000180047ea8     ua.obj
 0004:00001eb4       $pdata$_wrap_outctx_base_t_stack_view$catch$1 0000000180047eb4     ua.obj
 0004:00001ec0       $pdata$_wrap_outctx_base_t_stack_view$catch$0 0000000180047ec0     ua.obj
 0004:00001ecc       $pdata$_wrap_outctx_base_t_display_voids 0000000180047ecc     ua.obj
 0004:00001ed8       $pdata$_wrap_outctx_base_t_display_voids$catch$5 0000000180047ed8     ua.obj
 0004:00001ee4       $pdata$_wrap_outctx_base_t_display_voids$catch$4 0000000180047ee4     ua.obj
 0004:00001ef0       $pdata$_wrap_outctx_base_t_display_voids$catch$3 0000000180047ef0     ua.obj
 0004:00001efc       $pdata$_wrap_outctx_base_t_display_voids$catch$2 0000000180047efc     ua.obj
 0004:00001f08       $pdata$_wrap_outctx_base_t_display_voids$catch$1 0000000180047f08     ua.obj
 0004:00001f14       $pdata$_wrap_outctx_base_t_display_voids$catch$0 0000000180047f14     ua.obj
 0004:00001f20       $pdata$_wrap_outctx_base_t_set_gen_xrefs 0000000180047f20     ua.obj
 0004:00001f2c       $pdata$_wrap_outctx_base_t_set_gen_xrefs$catch$5 0000000180047f2c     ua.obj
 0004:00001f38       $pdata$_wrap_outctx_base_t_set_gen_xrefs$catch$4 0000000180047f38     ua.obj
 0004:00001f44       $pdata$_wrap_outctx_base_t_set_gen_xrefs$catch$3 0000000180047f44     ua.obj
 0004:00001f50       $pdata$_wrap_outctx_base_t_set_gen_xrefs$catch$2 0000000180047f50     ua.obj
 0004:00001f5c       $pdata$_wrap_outctx_base_t_set_gen_xrefs$catch$1 0000000180047f5c     ua.obj
 0004:00001f68       $pdata$_wrap_outctx_base_t_set_gen_xrefs$catch$0 0000000180047f68     ua.obj
 0004:00001f74       $pdata$_wrap_outctx_base_t_set_gen_cmt 0000000180047f74     ua.obj
 0004:00001f80       $pdata$_wrap_outctx_base_t_set_gen_cmt$catch$5 0000000180047f80     ua.obj
 0004:00001f8c       $pdata$_wrap_outctx_base_t_set_gen_cmt$catch$4 0000000180047f8c     ua.obj
 0004:00001f98       $pdata$_wrap_outctx_base_t_set_gen_cmt$catch$3 0000000180047f98     ua.obj
 0004:00001fa4       $pdata$_wrap_outctx_base_t_set_gen_cmt$catch$2 0000000180047fa4     ua.obj
 0004:00001fb0       $pdata$_wrap_outctx_base_t_set_gen_cmt$catch$1 0000000180047fb0     ua.obj
 0004:00001fbc       $pdata$_wrap_outctx_base_t_set_gen_cmt$catch$0 0000000180047fbc     ua.obj
 0004:00001fc8       $pdata$_wrap_outctx_base_t_clr_gen_label 0000000180047fc8     ua.obj
 0004:00001fd4       $pdata$_wrap_outctx_base_t_clr_gen_label$catch$5 0000000180047fd4     ua.obj
 0004:00001fe0       $pdata$_wrap_outctx_base_t_clr_gen_label$catch$4 0000000180047fe0     ua.obj
 0004:00001fec       $pdata$_wrap_outctx_base_t_clr_gen_label$catch$3 0000000180047fec     ua.obj
 0004:00001ff8       $pdata$_wrap_outctx_base_t_clr_gen_label$catch$2 0000000180047ff8     ua.obj
 0004:00002004       $pdata$_wrap_outctx_base_t_clr_gen_label$catch$1 0000000180048004     ua.obj
 0004:00002010       $pdata$_wrap_outctx_base_t_clr_gen_label$catch$0 0000000180048010     ua.obj
 0004:0000201c       $pdata$_wrap_outctx_base_t_set_gen_label 000000018004801c     ua.obj
 0004:00002028       $pdata$_wrap_outctx_base_t_set_gen_label$catch$5 0000000180048028     ua.obj
 0004:00002034       $pdata$_wrap_outctx_base_t_set_gen_label$catch$4 0000000180048034     ua.obj
 0004:00002040       $pdata$_wrap_outctx_base_t_set_gen_label$catch$3 0000000180048040     ua.obj
 0004:0000204c       $pdata$_wrap_outctx_base_t_set_gen_label$catch$2 000000018004804c     ua.obj
 0004:00002058       $pdata$_wrap_outctx_base_t_set_gen_label$catch$1 0000000180048058     ua.obj
 0004:00002064       $pdata$_wrap_outctx_base_t_set_gen_label$catch$0 0000000180048064     ua.obj
 0004:00002070       $pdata$_wrap_outctx_base_t_set_gen_demangled_label 0000000180048070     ua.obj
 0004:0000207c       $pdata$_wrap_outctx_base_t_set_gen_demangled_label$catch$5 000000018004807c     ua.obj
 0004:00002088       $pdata$_wrap_outctx_base_t_set_gen_demangled_label$catch$4 0000000180048088     ua.obj
 0004:00002094       $pdata$_wrap_outctx_base_t_set_gen_demangled_label$catch$3 0000000180048094     ua.obj
 0004:000020a0       $pdata$_wrap_outctx_base_t_set_gen_demangled_label$catch$2 00000001800480a0     ua.obj
 0004:000020ac       $pdata$_wrap_outctx_base_t_set_gen_demangled_label$catch$1 00000001800480ac     ua.obj
 0004:000020b8       $pdata$_wrap_outctx_base_t_set_gen_demangled_label$catch$0 00000001800480b8     ua.obj
 0004:000020c4       $pdata$_wrap_outctx_base_t_set_comment_addr 00000001800480c4     ua.obj
 0004:000020d0       $pdata$_wrap_outctx_base_t_set_comment_addr$catch$5 00000001800480d0     ua.obj
 0004:000020dc       $pdata$_wrap_outctx_base_t_set_comment_addr$catch$4 00000001800480dc     ua.obj
 0004:000020e8       $pdata$_wrap_outctx_base_t_set_comment_addr$catch$3 00000001800480e8     ua.obj
 0004:000020f4       $pdata$_wrap_outctx_base_t_set_comment_addr$catch$2 00000001800480f4     ua.obj
 0004:00002100       $pdata$_wrap_outctx_base_t_set_comment_addr$catch$1 0000000180048100     ua.obj
 0004:0000210c       $pdata$_wrap_outctx_base_t_set_comment_addr$catch$0 000000018004810c     ua.obj
 0004:00002118       $pdata$_wrap_outctx_base_t_set_dlbind_opnd 0000000180048118     ua.obj
 0004:00002124       $pdata$_wrap_outctx_base_t_set_dlbind_opnd$catch$5 0000000180048124     ua.obj
 0004:00002130       $pdata$_wrap_outctx_base_t_set_dlbind_opnd$catch$4 0000000180048130     ua.obj
 0004:0000213c       $pdata$_wrap_outctx_base_t_set_dlbind_opnd$catch$3 000000018004813c     ua.obj
 0004:00002148       $pdata$_wrap_outctx_base_t_set_dlbind_opnd$catch$2 0000000180048148     ua.obj
 0004:00002154       $pdata$_wrap_outctx_base_t_set_dlbind_opnd$catch$1 0000000180048154     ua.obj
 0004:00002160       $pdata$_wrap_outctx_base_t_set_dlbind_opnd$catch$0 0000000180048160     ua.obj
 0004:0000216c       $pdata$_wrap_outctx_base_t_print_label_now 000000018004816c     ua.obj
 0004:00002178       $pdata$_wrap_outctx_base_t_print_label_now$catch$5 0000000180048178     ua.obj
 0004:00002184       $pdata$_wrap_outctx_base_t_print_label_now$catch$4 0000000180048184     ua.obj
 0004:00002190       $pdata$_wrap_outctx_base_t_print_label_now$catch$3 0000000180048190     ua.obj
 0004:0000219c       $pdata$_wrap_outctx_base_t_print_label_now$catch$2 000000018004819c     ua.obj
 0004:000021a8       $pdata$_wrap_outctx_base_t_print_label_now$catch$1 00000001800481a8     ua.obj
 0004:000021b4       $pdata$_wrap_outctx_base_t_print_label_now$catch$0 00000001800481b4     ua.obj
 0004:000021c0       $pdata$_wrap_outctx_base_t_forbid_annotations 00000001800481c0     ua.obj
 0004:000021cc       $pdata$_wrap_outctx_base_t_forbid_annotations$catch$5 00000001800481cc     ua.obj
 0004:000021d8       $pdata$_wrap_outctx_base_t_forbid_annotations$catch$4 00000001800481d8     ua.obj
 0004:000021e4       $pdata$_wrap_outctx_base_t_forbid_annotations$catch$3 00000001800481e4     ua.obj
 0004:000021f0       $pdata$_wrap_outctx_base_t_forbid_annotations$catch$2 00000001800481f0     ua.obj
 0004:000021fc       $pdata$_wrap_outctx_base_t_forbid_annotations$catch$1 00000001800481fc     ua.obj
 0004:00002208       $pdata$_wrap_outctx_base_t_forbid_annotations$catch$0 0000000180048208     ua.obj
 0004:00002214       $pdata$_wrap_outctx_base_t_restore_ctxflags 0000000180048214     ua.obj
 0004:00002220       $pdata$_wrap_outctx_base_t_restore_ctxflags$catch$5 0000000180048220     ua.obj
 0004:0000222c       $pdata$_wrap_outctx_base_t_restore_ctxflags$catch$4 000000018004822c     ua.obj
 0004:00002238       $pdata$_wrap_outctx_base_t_restore_ctxflags$catch$3 0000000180048238     ua.obj
 0004:00002244       $pdata$_wrap_outctx_base_t_restore_ctxflags$catch$2 0000000180048244     ua.obj
 0004:00002250       $pdata$_wrap_outctx_base_t_restore_ctxflags$catch$1 0000000180048250     ua.obj
 0004:0000225c       $pdata$_wrap_outctx_base_t_restore_ctxflags$catch$0 000000018004825c     ua.obj
 0004:00002268       $pdata$_wrap_outctx_base_t_out_printf__varargs__ 0000000180048268     ua.obj
 0004:00002274       $pdata$_wrap_outctx_base_t_out_printf__varargs__$catch$0 0000000180048274     ua.obj
 0004:00002280       $pdata$_wrap_outctx_base_t_out_printf__varargs__$catch$1 0000000180048280     ua.obj
 0004:0000228c       $pdata$_wrap_outctx_base_t_out_printf__varargs__$catch$2 000000018004828c     ua.obj
 0004:00002298       $pdata$_wrap_outctx_base_t_out_printf__varargs__$catch$3 0000000180048298     ua.obj
 0004:000022a4       $pdata$_wrap_outctx_base_t_out_printf__varargs__$catch$4 00000001800482a4     ua.obj
 0004:000022b0       $pdata$_wrap_outctx_base_t_out_printf__varargs__$catch$5 00000001800482b0     ua.obj
 0004:000022bc       $pdata$_wrap_outctx_base_t_out_printf 00000001800482bc     ua.obj
 0004:000022c8       $pdata$_wrap_outctx_base_t_out_value 00000001800482c8     ua.obj
 0004:000022d4       $pdata$_wrap_outctx_base_t_out_value$catch$0 00000001800482d4     ua.obj
 0004:000022e0       $pdata$_wrap_outctx_base_t_out_value$catch$1 00000001800482e0     ua.obj
 0004:000022ec       $pdata$_wrap_outctx_base_t_out_value$catch$2 00000001800482ec     ua.obj
 0004:000022f8       $pdata$_wrap_outctx_base_t_out_value$catch$3 00000001800482f8     ua.obj
 0004:00002304       $pdata$_wrap_outctx_base_t_out_value$catch$4 0000000180048304     ua.obj
 0004:00002310       $pdata$_wrap_outctx_base_t_out_value$catch$5 0000000180048310     ua.obj
 0004:0000231c       $pdata$_wrap_outctx_base_t_out_symbol 000000018004831c     ua.obj
 0004:00002328       $pdata$_wrap_outctx_base_t_out_symbol$catch$0 0000000180048328     ua.obj
 0004:00002334       $pdata$_wrap_outctx_base_t_out_symbol$catch$1 0000000180048334     ua.obj
 0004:00002340       $pdata$_wrap_outctx_base_t_out_symbol$catch$2 0000000180048340     ua.obj
 0004:0000234c       $pdata$_wrap_outctx_base_t_out_symbol$catch$3 000000018004834c     ua.obj
 0004:00002358       $pdata$_wrap_outctx_base_t_out_symbol$catch$4 0000000180048358     ua.obj
 0004:00002364       $pdata$_wrap_outctx_base_t_out_symbol$catch$5 0000000180048364     ua.obj
 0004:00002370       $pdata$_wrap_outctx_base_t_out_chars 0000000180048370     ua.obj
 0004:0000237c       $pdata$_wrap_outctx_base_t_out_chars$catch$0 000000018004837c     ua.obj
 0004:00002388       $pdata$_wrap_outctx_base_t_out_chars$catch$1 0000000180048388     ua.obj
 0004:00002394       $pdata$_wrap_outctx_base_t_out_chars$catch$2 0000000180048394     ua.obj
 0004:000023a0       $pdata$_wrap_outctx_base_t_out_chars$catch$3 00000001800483a0     ua.obj
 0004:000023ac       $pdata$_wrap_outctx_base_t_out_chars$catch$4 00000001800483ac     ua.obj
 0004:000023b8       $pdata$_wrap_outctx_base_t_out_chars$catch$5 00000001800483b8     ua.obj
 0004:000023c4       $pdata$_wrap_outctx_base_t_out_spaces 00000001800483c4     ua.obj
 0004:000023d0       $pdata$_wrap_outctx_base_t_out_spaces$catch$0 00000001800483d0     ua.obj
 0004:000023dc       $pdata$_wrap_outctx_base_t_out_spaces$catch$1 00000001800483dc     ua.obj
 0004:000023e8       $pdata$_wrap_outctx_base_t_out_spaces$catch$2 00000001800483e8     ua.obj
 0004:000023f4       $pdata$_wrap_outctx_base_t_out_spaces$catch$3 00000001800483f4     ua.obj
 0004:00002400       $pdata$_wrap_outctx_base_t_out_spaces$catch$4 0000000180048400     ua.obj
 0004:0000240c       $pdata$_wrap_outctx_base_t_out_spaces$catch$5 000000018004840c     ua.obj
 0004:00002418       $pdata$_wrap_outctx_base_t_out_line 0000000180048418     ua.obj
 0004:00002424       $pdata$_wrap_outctx_base_t_out_line$catch$0 0000000180048424     ua.obj
 0004:00002430       $pdata$_wrap_outctx_base_t_out_line$catch$1 0000000180048430     ua.obj
 0004:0000243c       $pdata$_wrap_outctx_base_t_out_line$catch$2 000000018004843c     ua.obj
 0004:00002448       $pdata$_wrap_outctx_base_t_out_line$catch$3 0000000180048448     ua.obj
 0004:00002454       $pdata$_wrap_outctx_base_t_out_line$catch$4 0000000180048454     ua.obj
 0004:00002460       $pdata$_wrap_outctx_base_t_out_line$catch$5 0000000180048460     ua.obj
 0004:0000246c       $pdata$_wrap_outctx_base_t_out_keyword 000000018004846c     ua.obj
 0004:00002478       $pdata$_wrap_outctx_base_t_out_keyword$catch$0 0000000180048478     ua.obj
 0004:00002484       $pdata$_wrap_outctx_base_t_out_keyword$catch$1 0000000180048484     ua.obj
 0004:00002490       $pdata$_wrap_outctx_base_t_out_keyword$catch$2 0000000180048490     ua.obj
 0004:0000249c       $pdata$_wrap_outctx_base_t_out_keyword$catch$3 000000018004849c     ua.obj
 0004:000024a8       $pdata$_wrap_outctx_base_t_out_keyword$catch$4 00000001800484a8     ua.obj
 0004:000024b4       $pdata$_wrap_outctx_base_t_out_keyword$catch$5 00000001800484b4     ua.obj
 0004:000024c0       $pdata$_wrap_outctx_base_t_out_register 00000001800484c0     ua.obj
 0004:000024cc       $pdata$_wrap_outctx_base_t_out_register$catch$0 00000001800484cc     ua.obj
 0004:000024d8       $pdata$_wrap_outctx_base_t_out_register$catch$1 00000001800484d8     ua.obj
 0004:000024e4       $pdata$_wrap_outctx_base_t_out_register$catch$2 00000001800484e4     ua.obj
 0004:000024f0       $pdata$_wrap_outctx_base_t_out_register$catch$3 00000001800484f0     ua.obj
 0004:000024fc       $pdata$_wrap_outctx_base_t_out_register$catch$4 00000001800484fc     ua.obj
 0004:00002508       $pdata$_wrap_outctx_base_t_out_register$catch$5 0000000180048508     ua.obj
 0004:00002514       $pdata$_wrap_outctx_base_t_out_tagon 0000000180048514     ua.obj
 0004:00002520       $pdata$_wrap_outctx_base_t_out_tagon$catch$0 0000000180048520     ua.obj
 0004:0000252c       $pdata$_wrap_outctx_base_t_out_tagon$catch$1 000000018004852c     ua.obj
 0004:00002538       $pdata$_wrap_outctx_base_t_out_tagon$catch$2 0000000180048538     ua.obj
 0004:00002544       $pdata$_wrap_outctx_base_t_out_tagon$catch$3 0000000180048544     ua.obj
 0004:00002550       $pdata$_wrap_outctx_base_t_out_tagon$catch$4 0000000180048550     ua.obj
 0004:0000255c       $pdata$_wrap_outctx_base_t_out_tagon$catch$5 000000018004855c     ua.obj
 0004:00002568       $pdata$_wrap_outctx_base_t_out_tagoff 0000000180048568     ua.obj
 0004:00002574       $pdata$_wrap_outctx_base_t_out_tagoff$catch$0 0000000180048574     ua.obj
 0004:00002580       $pdata$_wrap_outctx_base_t_out_tagoff$catch$1 0000000180048580     ua.obj
 0004:0000258c       $pdata$_wrap_outctx_base_t_out_tagoff$catch$2 000000018004858c     ua.obj
 0004:00002598       $pdata$_wrap_outctx_base_t_out_tagoff$catch$3 0000000180048598     ua.obj
 0004:000025a4       $pdata$_wrap_outctx_base_t_out_tagoff$catch$4 00000001800485a4     ua.obj
 0004:000025b0       $pdata$_wrap_outctx_base_t_out_tagoff$catch$5 00000001800485b0     ua.obj
 0004:000025bc       $pdata$_wrap_outctx_base_t_out_addr_tag 00000001800485bc     ua.obj
 0004:000025c8       $pdata$_wrap_outctx_base_t_out_addr_tag$catch$0 00000001800485c8     ua.obj
 0004:000025d4       $pdata$_wrap_outctx_base_t_out_addr_tag$catch$1 00000001800485d4     ua.obj
 0004:000025e0       $pdata$_wrap_outctx_base_t_out_addr_tag$catch$2 00000001800485e0     ua.obj
 0004:000025ec       $pdata$_wrap_outctx_base_t_out_addr_tag$catch$3 00000001800485ec     ua.obj
 0004:000025f8       $pdata$_wrap_outctx_base_t_out_addr_tag$catch$4 00000001800485f8     ua.obj
 0004:00002604       $pdata$_wrap_outctx_base_t_out_addr_tag$catch$5 0000000180048604     ua.obj
 0004:00002610       $pdata$_wrap_outctx_base_t_out_colored_register_line 0000000180048610     ua.obj
 0004:0000261c       $pdata$_wrap_outctx_base_t_out_colored_register_line$catch$0 000000018004861c     ua.obj
 0004:00002628       $pdata$_wrap_outctx_base_t_out_colored_register_line$catch$1 0000000180048628     ua.obj
 0004:00002634       $pdata$_wrap_outctx_base_t_out_colored_register_line$catch$2 0000000180048634     ua.obj
 0004:00002640       $pdata$_wrap_outctx_base_t_out_colored_register_line$catch$3 0000000180048640     ua.obj
 0004:0000264c       $pdata$_wrap_outctx_base_t_out_colored_register_line$catch$4 000000018004864c     ua.obj
 0004:00002658       $pdata$_wrap_outctx_base_t_out_colored_register_line$catch$5 0000000180048658     ua.obj
 0004:00002664       $pdata$_wrap_outctx_base_t_out_char 0000000180048664     ua.obj
 0004:00002670       $pdata$_wrap_outctx_base_t_out_char$catch$0 0000000180048670     ua.obj
 0004:0000267c       $pdata$_wrap_outctx_base_t_out_char$catch$1 000000018004867c     ua.obj
 0004:00002688       $pdata$_wrap_outctx_base_t_out_char$catch$2 0000000180048688     ua.obj
 0004:00002694       $pdata$_wrap_outctx_base_t_out_char$catch$3 0000000180048694     ua.obj
 0004:000026a0       $pdata$_wrap_outctx_base_t_out_char$catch$4 00000001800486a0     ua.obj
 0004:000026ac       $pdata$_wrap_outctx_base_t_out_char$catch$5 00000001800486ac     ua.obj
 0004:000026b8       $pdata$_wrap_outctx_base_t_out_btoa 00000001800486b8     ua.obj
 0004:000026c4       $pdata$_wrap_outctx_base_t_out_btoa$catch$0 00000001800486c4     ua.obj
 0004:000026d0       $pdata$_wrap_outctx_base_t_out_btoa$catch$1 00000001800486d0     ua.obj
 0004:000026dc       $pdata$_wrap_outctx_base_t_out_btoa$catch$2 00000001800486dc     ua.obj
 0004:000026e8       $pdata$_wrap_outctx_base_t_out_btoa$catch$3 00000001800486e8     ua.obj
 0004:000026f4       $pdata$_wrap_outctx_base_t_out_btoa$catch$4 00000001800486f4     ua.obj
 0004:00002700       $pdata$_wrap_outctx_base_t_out_btoa$catch$5 0000000180048700     ua.obj
 0004:0000270c       $pdata$_wrap_outctx_base_t_out_long 000000018004870c     ua.obj
 0004:00002718       $pdata$_wrap_outctx_base_t_out_long$catch$0 0000000180048718     ua.obj
 0004:00002724       $pdata$_wrap_outctx_base_t_out_long$catch$1 0000000180048724     ua.obj
 0004:00002730       $pdata$_wrap_outctx_base_t_out_long$catch$2 0000000180048730     ua.obj
 0004:0000273c       $pdata$_wrap_outctx_base_t_out_long$catch$3 000000018004873c     ua.obj
 0004:00002748       $pdata$_wrap_outctx_base_t_out_long$catch$4 0000000180048748     ua.obj
 0004:00002754       $pdata$_wrap_outctx_base_t_out_long$catch$5 0000000180048754     ua.obj
 0004:00002760       $pdata$_wrap_outctx_base_t_out_name_expr 0000000180048760     ua.obj
 0004:0000276c       $pdata$_wrap_outctx_base_t_out_name_expr$catch$0 000000018004876c     ua.obj
 0004:00002778       $pdata$_wrap_outctx_base_t_out_name_expr$catch$1 0000000180048778     ua.obj
 0004:00002784       $pdata$_wrap_outctx_base_t_out_name_expr$catch$2 0000000180048784     ua.obj
 0004:00002790       $pdata$_wrap_outctx_base_t_out_name_expr$catch$3 0000000180048790     ua.obj
 0004:0000279c       $pdata$_wrap_outctx_base_t_out_name_expr$catch$4 000000018004879c     ua.obj
 0004:000027a8       $pdata$_wrap_outctx_base_t_out_name_expr$catch$5 00000001800487a8     ua.obj
 0004:000027b4       $pdata$_wrap_outctx_base_t_close_comment 00000001800487b4     ua.obj
 0004:000027c0       $pdata$_wrap_outctx_base_t_close_comment$catch$0 00000001800487c0     ua.obj
 0004:000027cc       $pdata$_wrap_outctx_base_t_close_comment$catch$1 00000001800487cc     ua.obj
 0004:000027d8       $pdata$_wrap_outctx_base_t_close_comment$catch$2 00000001800487d8     ua.obj
 0004:000027e4       $pdata$_wrap_outctx_base_t_close_comment$catch$3 00000001800487e4     ua.obj
 0004:000027f0       $pdata$_wrap_outctx_base_t_close_comment$catch$4 00000001800487f0     ua.obj
 0004:000027fc       $pdata$_wrap_outctx_base_t_close_comment$catch$5 00000001800487fc     ua.obj
 0004:00002808       $pdata$_wrap_outctx_base_t_flush_outbuf 0000000180048808     ua.obj
 0004:00002814       $pdata$_wrap_outctx_base_t_flush_outbuf$catch$0 0000000180048814     ua.obj
 0004:00002820       $pdata$_wrap_outctx_base_t_flush_outbuf$catch$1 0000000180048820     ua.obj
 0004:0000282c       $pdata$_wrap_outctx_base_t_flush_outbuf$catch$2 000000018004882c     ua.obj
 0004:00002838       $pdata$_wrap_outctx_base_t_flush_outbuf$catch$3 0000000180048838     ua.obj
 0004:00002844       $pdata$_wrap_outctx_base_t_flush_outbuf$catch$4 0000000180048844     ua.obj
 0004:00002850       $pdata$_wrap_outctx_base_t_flush_outbuf$catch$5 0000000180048850     ua.obj
 0004:0000285c       $pdata$_wrap_outctx_base_t_flush_buf 000000018004885c     ua.obj
 0004:00002868       $pdata$_wrap_outctx_base_t_flush_buf$catch$0 0000000180048868     ua.obj
 0004:00002874       $pdata$_wrap_outctx_base_t_flush_buf$catch$1 0000000180048874     ua.obj
 0004:00002880       $pdata$_wrap_outctx_base_t_flush_buf$catch$2 0000000180048880     ua.obj
 0004:0000288c       $pdata$_wrap_outctx_base_t_flush_buf$catch$3 000000018004888c     ua.obj
 0004:00002898       $pdata$_wrap_outctx_base_t_flush_buf$catch$4 0000000180048898     ua.obj
 0004:000028a4       $pdata$_wrap_outctx_base_t_flush_buf$catch$5 00000001800488a4     ua.obj
 0004:000028b0       $pdata$_wrap_outctx_base_t_term_outctx 00000001800488b0     ua.obj
 0004:000028bc       $pdata$_wrap_outctx_base_t_term_outctx$catch$0 00000001800488bc     ua.obj
 0004:000028c8       $pdata$_wrap_outctx_base_t_term_outctx$catch$1 00000001800488c8     ua.obj
 0004:000028d4       $pdata$_wrap_outctx_base_t_term_outctx$catch$2 00000001800488d4     ua.obj
 0004:000028e0       $pdata$_wrap_outctx_base_t_term_outctx$catch$3 00000001800488e0     ua.obj
 0004:000028ec       $pdata$_wrap_outctx_base_t_term_outctx$catch$4 00000001800488ec     ua.obj
 0004:000028f8       $pdata$_wrap_outctx_base_t_term_outctx$catch$5 00000001800488f8     ua.obj
 0004:00002904       $pdata$_wrap_outctx_base_t_gen_printf__varargs__ 0000000180048904     ua.obj
 0004:00002910       $pdata$_wrap_outctx_base_t_gen_printf__varargs__$catch$0 0000000180048910     ua.obj
 0004:0000291c       $pdata$_wrap_outctx_base_t_gen_printf__varargs__$catch$1 000000018004891c     ua.obj
 0004:00002928       $pdata$_wrap_outctx_base_t_gen_printf__varargs__$catch$2 0000000180048928     ua.obj
 0004:00002934       $pdata$_wrap_outctx_base_t_gen_printf__varargs__$catch$3 0000000180048934     ua.obj
 0004:00002940       $pdata$_wrap_outctx_base_t_gen_printf__varargs__$catch$4 0000000180048940     ua.obj
 0004:0000294c       $pdata$_wrap_outctx_base_t_gen_printf__varargs__$catch$5 000000018004894c     ua.obj
 0004:00002958       $pdata$_wrap_outctx_base_t_gen_printf 0000000180048958     ua.obj
 0004:00002964       $pdata$_wrap_outctx_base_t_gen_empty_line 0000000180048964     ua.obj
 0004:00002970       $pdata$_wrap_outctx_base_t_gen_empty_line$catch$0 0000000180048970     ua.obj
 0004:0000297c       $pdata$_wrap_outctx_base_t_gen_empty_line$catch$1 000000018004897c     ua.obj
 0004:00002988       $pdata$_wrap_outctx_base_t_gen_empty_line$catch$2 0000000180048988     ua.obj
 0004:00002994       $pdata$_wrap_outctx_base_t_gen_empty_line$catch$3 0000000180048994     ua.obj
 0004:000029a0       $pdata$_wrap_outctx_base_t_gen_empty_line$catch$4 00000001800489a0     ua.obj
 0004:000029ac       $pdata$_wrap_outctx_base_t_gen_empty_line$catch$5 00000001800489ac     ua.obj
 0004:000029b8       $pdata$_wrap_outctx_base_t_gen_border_line 00000001800489b8     ua.obj
 0004:000029c4       $pdata$_wrap_outctx_base_t_gen_border_line$catch$0 00000001800489c4     ua.obj
 0004:000029d0       $pdata$_wrap_outctx_base_t_gen_border_line$catch$1 00000001800489d0     ua.obj
 0004:000029dc       $pdata$_wrap_outctx_base_t_gen_border_line$catch$2 00000001800489dc     ua.obj
 0004:000029e8       $pdata$_wrap_outctx_base_t_gen_border_line$catch$3 00000001800489e8     ua.obj
 0004:000029f4       $pdata$_wrap_outctx_base_t_gen_border_line$catch$4 00000001800489f4     ua.obj
 0004:00002a00       $pdata$_wrap_outctx_base_t_gen_border_line$catch$5 0000000180048a00     ua.obj
 0004:00002a0c       $pdata$_wrap_outctx_base_t_gen_cmt_line__varargs__ 0000000180048a0c     ua.obj
 0004:00002a18       $pdata$_wrap_outctx_base_t_gen_cmt_line__varargs__$catch$0 0000000180048a18     ua.obj
 0004:00002a24       $pdata$_wrap_outctx_base_t_gen_cmt_line__varargs__$catch$1 0000000180048a24     ua.obj
 0004:00002a30       $pdata$_wrap_outctx_base_t_gen_cmt_line__varargs__$catch$2 0000000180048a30     ua.obj
 0004:00002a3c       $pdata$_wrap_outctx_base_t_gen_cmt_line__varargs__$catch$3 0000000180048a3c     ua.obj
 0004:00002a48       $pdata$_wrap_outctx_base_t_gen_cmt_line__varargs__$catch$4 0000000180048a48     ua.obj
 0004:00002a54       $pdata$_wrap_outctx_base_t_gen_cmt_line__varargs__$catch$5 0000000180048a54     ua.obj
 0004:00002a60       $pdata$_wrap_outctx_base_t_gen_cmt_line 0000000180048a60     ua.obj
 0004:00002a6c       $pdata$_wrap_outctx_base_t_gen_collapsed_line__varargs__ 0000000180048a6c     ua.obj
 0004:00002a78       $pdata$_wrap_outctx_base_t_gen_collapsed_line__varargs__$catch$0 0000000180048a78     ua.obj
 0004:00002a84       $pdata$_wrap_outctx_base_t_gen_collapsed_line__varargs__$catch$1 0000000180048a84     ua.obj
 0004:00002a90       $pdata$_wrap_outctx_base_t_gen_collapsed_line__varargs__$catch$2 0000000180048a90     ua.obj
 0004:00002a9c       $pdata$_wrap_outctx_base_t_gen_collapsed_line__varargs__$catch$3 0000000180048a9c     ua.obj
 0004:00002aa8       $pdata$_wrap_outctx_base_t_gen_collapsed_line__varargs__$catch$4 0000000180048aa8     ua.obj
 0004:00002ab4       $pdata$_wrap_outctx_base_t_gen_collapsed_line__varargs__$catch$5 0000000180048ab4     ua.obj
 0004:00002ac0       $pdata$_wrap_outctx_base_t_gen_collapsed_line 0000000180048ac0     ua.obj
 0004:00002acc       $pdata$_wrap_outctx_base_t_gen_block_cmt 0000000180048acc     ua.obj
 0004:00002ad8       $pdata$_wrap_outctx_base_t_gen_block_cmt$catch$0 0000000180048ad8     ua.obj
 0004:00002ae4       $pdata$_wrap_outctx_base_t_gen_block_cmt$catch$1 0000000180048ae4     ua.obj
 0004:00002af0       $pdata$_wrap_outctx_base_t_gen_block_cmt$catch$2 0000000180048af0     ua.obj
 0004:00002afc       $pdata$_wrap_outctx_base_t_gen_block_cmt$catch$3 0000000180048afc     ua.obj
 0004:00002b08       $pdata$_wrap_outctx_base_t_gen_block_cmt$catch$4 0000000180048b08     ua.obj
 0004:00002b14       $pdata$_wrap_outctx_base_t_gen_block_cmt$catch$5 0000000180048b14     ua.obj
 0004:00002b20       $pdata$_wrap_outctx_base_t_setup_outctx 0000000180048b20     ua.obj
 0004:00002b2c       $pdata$_wrap_outctx_base_t_setup_outctx$catch$0 0000000180048b2c     ua.obj
 0004:00002b38       $pdata$_wrap_outctx_base_t_setup_outctx$catch$1 0000000180048b38     ua.obj
 0004:00002b44       $pdata$_wrap_outctx_base_t_setup_outctx$catch$2 0000000180048b44     ua.obj
 0004:00002b50       $pdata$_wrap_outctx_base_t_setup_outctx$catch$3 0000000180048b50     ua.obj
 0004:00002b5c       $pdata$_wrap_outctx_base_t_setup_outctx$catch$4 0000000180048b5c     ua.obj
 0004:00002b68       $pdata$_wrap_outctx_base_t_setup_outctx$catch$5 0000000180048b68     ua.obj
 0004:00002b74       $pdata$_wrap_outctx_base_t_retrieve_cmt 0000000180048b74     ua.obj
 0004:00002b80       $pdata$_wrap_outctx_base_t_retrieve_cmt$catch$0 0000000180048b80     ua.obj
 0004:00002b8c       $pdata$_wrap_outctx_base_t_retrieve_cmt$catch$1 0000000180048b8c     ua.obj
 0004:00002b98       $pdata$_wrap_outctx_base_t_retrieve_cmt$catch$2 0000000180048b98     ua.obj
 0004:00002ba4       $pdata$_wrap_outctx_base_t_retrieve_cmt$catch$3 0000000180048ba4     ua.obj
 0004:00002bb0       $pdata$_wrap_outctx_base_t_retrieve_cmt$catch$4 0000000180048bb0     ua.obj
 0004:00002bbc       $pdata$_wrap_outctx_base_t_retrieve_cmt$catch$5 0000000180048bbc     ua.obj
 0004:00002bc8       $pdata$_wrap_outctx_base_t_retrieve_name 0000000180048bc8     ua.obj
 0004:00002bd4       $pdata$_wrap_outctx_base_t_retrieve_name$catch$3 0000000180048bd4     ua.obj
 0004:00002be0       $pdata$_wrap_outctx_base_t_retrieve_name$catch$4 0000000180048be0     ua.obj
 0004:00002bec       $pdata$_wrap_outctx_base_t_retrieve_name$catch$5 0000000180048bec     ua.obj
 0004:00002bf8       $pdata$_wrap_outctx_base_t_retrieve_name$catch$6 0000000180048bf8     ua.obj
 0004:00002c04       $pdata$_wrap_outctx_base_t_retrieve_name$catch$7 0000000180048c04     ua.obj
 0004:00002c10       $pdata$_wrap_outctx_base_t_retrieve_name$catch$8 0000000180048c10     ua.obj
 0004:00002c1c       $pdata$_wrap_outctx_base_t_gen_xref_lines 0000000180048c1c     ua.obj
 0004:00002c28       $pdata$_wrap_outctx_base_t_gen_xref_lines$catch$0 0000000180048c28     ua.obj
 0004:00002c34       $pdata$_wrap_outctx_base_t_gen_xref_lines$catch$1 0000000180048c34     ua.obj
 0004:00002c40       $pdata$_wrap_outctx_base_t_gen_xref_lines$catch$2 0000000180048c40     ua.obj
 0004:00002c4c       $pdata$_wrap_outctx_base_t_gen_xref_lines$catch$3 0000000180048c4c     ua.obj
 0004:00002c58       $pdata$_wrap_outctx_base_t_gen_xref_lines$catch$4 0000000180048c58     ua.obj
 0004:00002c64       $pdata$_wrap_outctx_base_t_gen_xref_lines$catch$5 0000000180048c64     ua.obj
 0004:00002c70       $pdata$_wrap_outctx_base_t_init_lines_array 0000000180048c70     ua.obj
 0004:00002c7c       $pdata$_wrap_outctx_base_t_init_lines_array$catch$0 0000000180048c7c     ua.obj
 0004:00002c88       $pdata$_wrap_outctx_base_t_init_lines_array$catch$1 0000000180048c88     ua.obj
 0004:00002c94       $pdata$_wrap_outctx_base_t_init_lines_array$catch$2 0000000180048c94     ua.obj
 0004:00002ca0       $pdata$_wrap_outctx_base_t_init_lines_array$catch$3 0000000180048ca0     ua.obj
 0004:00002cac       $pdata$_wrap_outctx_base_t_init_lines_array$catch$4 0000000180048cac     ua.obj
 0004:00002cb8       $pdata$_wrap_outctx_base_t_init_lines_array$catch$5 0000000180048cb8     ua.obj
 0004:00002cc4       $pdata$_wrap_outctx_base_t_get_stkvar 0000000180048cc4     ua.obj
 0004:00002cd0       $pdata$_wrap_outctx_base_t_get_stkvar$catch$0 0000000180048cd0     ua.obj
 0004:00002cdc       $pdata$_wrap_outctx_base_t_get_stkvar$catch$1 0000000180048cdc     ua.obj
 0004:00002ce8       $pdata$_wrap_outctx_base_t_get_stkvar$catch$2 0000000180048ce8     ua.obj
 0004:00002cf4       $pdata$_wrap_outctx_base_t_get_stkvar$catch$3 0000000180048cf4     ua.obj
 0004:00002d00       $pdata$_wrap_outctx_base_t_get_stkvar$catch$4 0000000180048d00     ua.obj
 0004:00002d0c       $pdata$_wrap_outctx_base_t_get_stkvar$catch$5 0000000180048d0c     ua.obj
 0004:00002d18       $pdata$_wrap_outctx_base_t_gen_empty_line_without_annotations 0000000180048d18     ua.obj
 0004:00002d24       $pdata$_wrap_outctx_base_t_gen_empty_line_without_annotations$catch$0 0000000180048d24     ua.obj
 0004:00002d30       $pdata$_wrap_outctx_base_t_gen_empty_line_without_annotations$catch$1 0000000180048d30     ua.obj
 0004:00002d3c       $pdata$_wrap_outctx_base_t_gen_empty_line_without_annotations$catch$2 0000000180048d3c     ua.obj
 0004:00002d48       $pdata$_wrap_outctx_base_t_gen_empty_line_without_annotations$catch$3 0000000180048d48     ua.obj
 0004:00002d54       $pdata$_wrap_outctx_base_t_gen_empty_line_without_annotations$catch$4 0000000180048d54     ua.obj
 0004:00002d60       $pdata$_wrap_outctx_base_t_gen_empty_line_without_annotations$catch$5 0000000180048d60     ua.obj
 0004:00002d6c       $pdata$outctx_base_t_swigregister 0000000180048d6c     ua.obj
 0004:00002d78       $pdata$_wrap_outctx_t_bin_ea_set 0000000180048d78     ua.obj
 0004:00002d84       $pdata$0$_wrap_outctx_t_bin_ea_set 0000000180048d84     ua.obj
 0004:00002d90       $pdata$1$_wrap_outctx_t_bin_ea_set 0000000180048d90     ua.obj
 0004:00002d9c       $pdata$_wrap_outctx_t_bin_ea_get 0000000180048d9c     ua.obj
 0004:00002da8       $pdata$0$_wrap_outctx_t_bin_ea_get 0000000180048da8     ua.obj
 0004:00002db4       $pdata$1$_wrap_outctx_t_bin_ea_get 0000000180048db4     ua.obj
 0004:00002dc0       $pdata$_wrap_outctx_t_bin_state_set 0000000180048dc0     ua.obj
 0004:00002dcc       $pdata$0$_wrap_outctx_t_bin_state_set 0000000180048dcc     ua.obj
 0004:00002dd8       $pdata$1$_wrap_outctx_t_bin_state_set 0000000180048dd8     ua.obj
 0004:00002de4       $pdata$_wrap_outctx_t_bin_state_get 0000000180048de4     ua.obj
 0004:00002df0       $pdata$0$_wrap_outctx_t_bin_state_get 0000000180048df0     ua.obj
 0004:00002dfc       $pdata$1$_wrap_outctx_t_bin_state_get 0000000180048dfc     ua.obj
 0004:00002e08       $pdata$_wrap_outctx_t_gl_bpsize_set 0000000180048e08     ua.obj
 0004:00002e14       $pdata$0$_wrap_outctx_t_gl_bpsize_set 0000000180048e14     ua.obj
 0004:00002e20       $pdata$1$_wrap_outctx_t_gl_bpsize_set 0000000180048e20     ua.obj
 0004:00002e2c       $pdata$_wrap_outctx_t_gl_bpsize_get 0000000180048e2c     ua.obj
 0004:00002e38       $pdata$0$_wrap_outctx_t_gl_bpsize_get 0000000180048e38     ua.obj
 0004:00002e44       $pdata$1$_wrap_outctx_t_gl_bpsize_get 0000000180048e44     ua.obj
 0004:00002e50       $pdata$_wrap_outctx_t_bin_width_set 0000000180048e50     ua.obj
 0004:00002e5c       $pdata$0$_wrap_outctx_t_bin_width_set 0000000180048e5c     ua.obj
 0004:00002e68       $pdata$1$_wrap_outctx_t_bin_width_set 0000000180048e68     ua.obj
 0004:00002e74       $pdata$_wrap_outctx_t_bin_width_get 0000000180048e74     ua.obj
 0004:00002e80       $pdata$0$_wrap_outctx_t_bin_width_get 0000000180048e80     ua.obj
 0004:00002e8c       $pdata$1$_wrap_outctx_t_bin_width_get 0000000180048e8c     ua.obj
 0004:00002e98       $pdata$_wrap_outctx_t_insn_set 0000000180048e98     ua.obj
 0004:00002ea4       $pdata$_wrap_outctx_t_insn_get 0000000180048ea4     ua.obj
 0004:00002eb0       $pdata$0$_wrap_outctx_t_insn_get 0000000180048eb0     ua.obj
 0004:00002ebc       $pdata$1$_wrap_outctx_t_insn_get 0000000180048ebc     ua.obj
 0004:00002ec8       $pdata$_wrap_outctx_t_curlabel_set 0000000180048ec8     ua.obj
 0004:00002ed4       $pdata$0$_wrap_outctx_t_curlabel_set 0000000180048ed4     ua.obj
 0004:00002ee0       $pdata$1$_wrap_outctx_t_curlabel_set 0000000180048ee0     ua.obj
 0004:00002eec       $pdata$_wrap_outctx_t_curlabel_get 0000000180048eec     ua.obj
 0004:00002ef8       $pdata$0$_wrap_outctx_t_curlabel_get 0000000180048ef8     ua.obj
 0004:00002f04       $pdata$1$_wrap_outctx_t_curlabel_get 0000000180048f04     ua.obj
 0004:00002f10       $pdata$_wrap_outctx_t_wif_set 0000000180048f10     ua.obj
 0004:00002f1c       $pdata$_wrap_outctx_t_wif_get 0000000180048f1c     ua.obj
 0004:00002f28       $pdata$0$_wrap_outctx_t_wif_get 0000000180048f28     ua.obj
 0004:00002f34       $pdata$1$_wrap_outctx_t_wif_get 0000000180048f34     ua.obj
 0004:00002f40       $pdata$_wrap_outctx_t_setup_outctx 0000000180048f40     ua.obj
 0004:00002f4c       $pdata$_wrap_outctx_t_setup_outctx$catch$0 0000000180048f4c     ua.obj
 0004:00002f58       $pdata$_wrap_outctx_t_setup_outctx$catch$1 0000000180048f58     ua.obj
 0004:00002f64       $pdata$_wrap_outctx_t_setup_outctx$catch$2 0000000180048f64     ua.obj
 0004:00002f70       $pdata$_wrap_outctx_t_setup_outctx$catch$3 0000000180048f70     ua.obj
 0004:00002f7c       $pdata$_wrap_outctx_t_setup_outctx$catch$4 0000000180048f7c     ua.obj
 0004:00002f88       $pdata$_wrap_outctx_t_setup_outctx$catch$5 0000000180048f88     ua.obj
 0004:00002f94       $pdata$_wrap_outctx_t_retrieve_cmt 0000000180048f94     ua.obj
 0004:00002fa0       $pdata$_wrap_outctx_t_retrieve_cmt$catch$0 0000000180048fa0     ua.obj
 0004:00002fac       $pdata$_wrap_outctx_t_retrieve_cmt$catch$1 0000000180048fac     ua.obj
 0004:00002fb8       $pdata$_wrap_outctx_t_retrieve_cmt$catch$2 0000000180048fb8     ua.obj
 0004:00002fc4       $pdata$_wrap_outctx_t_retrieve_cmt$catch$3 0000000180048fc4     ua.obj
 0004:00002fd0       $pdata$_wrap_outctx_t_retrieve_cmt$catch$4 0000000180048fd0     ua.obj
 0004:00002fdc       $pdata$_wrap_outctx_t_retrieve_cmt$catch$5 0000000180048fdc     ua.obj
 0004:00002fe8       $pdata$_wrap_outctx_t_retrieve_name 0000000180048fe8     ua.obj
 0004:00002ff4       $pdata$_wrap_outctx_t_retrieve_name$catch$3 0000000180048ff4     ua.obj
 0004:00003000       $pdata$_wrap_outctx_t_retrieve_name$catch$4 0000000180049000     ua.obj
 0004:0000300c       $pdata$_wrap_outctx_t_retrieve_name$catch$5 000000018004900c     ua.obj
 0004:00003018       $pdata$_wrap_outctx_t_retrieve_name$catch$6 0000000180049018     ua.obj
 0004:00003024       $pdata$_wrap_outctx_t_retrieve_name$catch$7 0000000180049024     ua.obj
 0004:00003030       $pdata$_wrap_outctx_t_retrieve_name$catch$8 0000000180049030     ua.obj
 0004:0000303c       $pdata$_wrap_outctx_t_gen_xref_lines 000000018004903c     ua.obj
 0004:00003048       $pdata$_wrap_outctx_t_gen_xref_lines$catch$0 0000000180049048     ua.obj
 0004:00003054       $pdata$_wrap_outctx_t_gen_xref_lines$catch$1 0000000180049054     ua.obj
 0004:00003060       $pdata$_wrap_outctx_t_gen_xref_lines$catch$2 0000000180049060     ua.obj
 0004:0000306c       $pdata$_wrap_outctx_t_gen_xref_lines$catch$3 000000018004906c     ua.obj
 0004:00003078       $pdata$_wrap_outctx_t_gen_xref_lines$catch$4 0000000180049078     ua.obj
 0004:00003084       $pdata$_wrap_outctx_t_gen_xref_lines$catch$5 0000000180049084     ua.obj
 0004:00003090       $pdata$_wrap_outctx_t_out_mnem 0000000180049090     ua.obj
 0004:0000309c       $pdata$_wrap_outctx_t_out_mnem$catch$0 000000018004909c     ua.obj
 0004:000030a8       $pdata$_wrap_outctx_t_out_mnem$catch$1 00000001800490a8     ua.obj
 0004:000030b4       $pdata$_wrap_outctx_t_out_mnem$catch$2 00000001800490b4     ua.obj
 0004:000030c0       $pdata$_wrap_outctx_t_out_mnem$catch$3 00000001800490c0     ua.obj
 0004:000030cc       $pdata$_wrap_outctx_t_out_mnem$catch$4 00000001800490cc     ua.obj
 0004:000030d8       $pdata$_wrap_outctx_t_out_mnem$catch$5 00000001800490d8     ua.obj
 0004:000030e4       $pdata$_wrap_outctx_t_out_custom_mnem 00000001800490e4     ua.obj
 0004:000030f0       $pdata$_wrap_outctx_t_out_custom_mnem$catch$0 00000001800490f0     ua.obj
 0004:000030fc       $pdata$_wrap_outctx_t_out_custom_mnem$catch$1 00000001800490fc     ua.obj
 0004:00003108       $pdata$_wrap_outctx_t_out_custom_mnem$catch$2 0000000180049108     ua.obj
 0004:00003114       $pdata$_wrap_outctx_t_out_custom_mnem$catch$3 0000000180049114     ua.obj
 0004:00003120       $pdata$_wrap_outctx_t_out_custom_mnem$catch$4 0000000180049120     ua.obj
 0004:0000312c       $pdata$_wrap_outctx_t_out_custom_mnem$catch$5 000000018004912c     ua.obj
 0004:00003138       $pdata$_wrap_outctx_t_out_mnemonic 0000000180049138     ua.obj
 0004:00003144       $pdata$_wrap_outctx_t_out_mnemonic$catch$0 0000000180049144     ua.obj
 0004:00003150       $pdata$_wrap_outctx_t_out_mnemonic$catch$1 0000000180049150     ua.obj
 0004:0000315c       $pdata$_wrap_outctx_t_out_mnemonic$catch$2 000000018004915c     ua.obj
 0004:00003168       $pdata$_wrap_outctx_t_out_mnemonic$catch$3 0000000180049168     ua.obj
 0004:00003174       $pdata$_wrap_outctx_t_out_mnemonic$catch$4 0000000180049174     ua.obj
 0004:00003180       $pdata$_wrap_outctx_t_out_mnemonic$catch$5 0000000180049180     ua.obj
 0004:0000318c       $pdata$_wrap_outctx_t_out_one_operand 000000018004918c     ua.obj
 0004:00003198       $pdata$_wrap_outctx_t_out_one_operand$catch$0 0000000180049198     ua.obj
 0004:000031a4       $pdata$_wrap_outctx_t_out_one_operand$catch$1 00000001800491a4     ua.obj
 0004:000031b0       $pdata$_wrap_outctx_t_out_one_operand$catch$2 00000001800491b0     ua.obj
 0004:000031bc       $pdata$_wrap_outctx_t_out_one_operand$catch$3 00000001800491bc     ua.obj
 0004:000031c8       $pdata$_wrap_outctx_t_out_one_operand$catch$4 00000001800491c8     ua.obj
 0004:000031d4       $pdata$_wrap_outctx_t_out_one_operand$catch$5 00000001800491d4     ua.obj
 0004:000031e0       $pdata$_wrap_outctx_t_out_immchar_cmts 00000001800491e0     ua.obj
 0004:000031ec       $pdata$_wrap_outctx_t_out_immchar_cmts$catch$0 00000001800491ec     ua.obj
 0004:000031f8       $pdata$_wrap_outctx_t_out_immchar_cmts$catch$1 00000001800491f8     ua.obj
 0004:00003204       $pdata$_wrap_outctx_t_out_immchar_cmts$catch$2 0000000180049204     ua.obj
 0004:00003210       $pdata$_wrap_outctx_t_out_immchar_cmts$catch$3 0000000180049210     ua.obj
 0004:0000321c       $pdata$_wrap_outctx_t_out_immchar_cmts$catch$4 000000018004921c     ua.obj
 0004:00003228       $pdata$_wrap_outctx_t_out_immchar_cmts$catch$5 0000000180049228     ua.obj
 0004:00003234       $pdata$_wrap_outctx_t_gen_func_header 0000000180049234     ua.obj
 0004:00003240       $pdata$_wrap_outctx_t_gen_func_header$catch$0 0000000180049240     ua.obj
 0004:0000324c       $pdata$_wrap_outctx_t_gen_func_header$catch$1 000000018004924c     ua.obj
 0004:00003258       $pdata$_wrap_outctx_t_gen_func_header$catch$2 0000000180049258     ua.obj
 0004:00003264       $pdata$_wrap_outctx_t_gen_func_header$catch$3 0000000180049264     ua.obj
 0004:00003270       $pdata$_wrap_outctx_t_gen_func_header$catch$4 0000000180049270     ua.obj
 0004:0000327c       $pdata$_wrap_outctx_t_gen_func_header$catch$5 000000018004927c     ua.obj
 0004:00003288       $pdata$_wrap_outctx_t_gen_func_footer 0000000180049288     ua.obj
 0004:00003294       $pdata$_wrap_outctx_t_gen_func_footer$catch$0 0000000180049294     ua.obj
 0004:000032a0       $pdata$_wrap_outctx_t_gen_func_footer$catch$1 00000001800492a0     ua.obj
 0004:000032ac       $pdata$_wrap_outctx_t_gen_func_footer$catch$2 00000001800492ac     ua.obj
 0004:000032b8       $pdata$_wrap_outctx_t_gen_func_footer$catch$3 00000001800492b8     ua.obj
 0004:000032c4       $pdata$_wrap_outctx_t_gen_func_footer$catch$4 00000001800492c4     ua.obj
 0004:000032d0       $pdata$_wrap_outctx_t_gen_func_footer$catch$5 00000001800492d0     ua.obj
 0004:000032dc       $pdata$_wrap_outctx_t_out_data 00000001800492dc     ua.obj
 0004:000032e8       $pdata$_wrap_outctx_t_out_data$catch$0 00000001800492e8     ua.obj
 0004:000032f4       $pdata$_wrap_outctx_t_out_data$catch$1 00000001800492f4     ua.obj
 0004:00003300       $pdata$_wrap_outctx_t_out_data$catch$2 0000000180049300     ua.obj
 0004:0000330c       $pdata$_wrap_outctx_t_out_data$catch$3 000000018004930c     ua.obj
 0004:00003318       $pdata$_wrap_outctx_t_out_data$catch$4 0000000180049318     ua.obj
 0004:00003324       $pdata$_wrap_outctx_t_out_data$catch$5 0000000180049324     ua.obj
 0004:00003330       $pdata$_wrap_outctx_t_out_specea 0000000180049330     ua.obj
 0004:0000333c       $pdata$_wrap_outctx_t_out_specea$catch$0 000000018004933c     ua.obj
 0004:00003348       $pdata$_wrap_outctx_t_out_specea$catch$1 0000000180049348     ua.obj
 0004:00003354       $pdata$_wrap_outctx_t_out_specea$catch$2 0000000180049354     ua.obj
 0004:00003360       $pdata$_wrap_outctx_t_out_specea$catch$3 0000000180049360     ua.obj
 0004:0000336c       $pdata$_wrap_outctx_t_out_specea$catch$4 000000018004936c     ua.obj
 0004:00003378       $pdata$_wrap_outctx_t_out_specea$catch$5 0000000180049378     ua.obj
 0004:00003384       $pdata$_wrap_outctx_t_gen_header_extra 0000000180049384     ua.obj
 0004:00003390       $pdata$_wrap_outctx_t_gen_header_extra$catch$0 0000000180049390     ua.obj
 0004:0000339c       $pdata$_wrap_outctx_t_gen_header_extra$catch$1 000000018004939c     ua.obj
 0004:000033a8       $pdata$_wrap_outctx_t_gen_header_extra$catch$2 00000001800493a8     ua.obj
 0004:000033b4       $pdata$_wrap_outctx_t_gen_header_extra$catch$3 00000001800493b4     ua.obj
 0004:000033c0       $pdata$_wrap_outctx_t_gen_header_extra$catch$4 00000001800493c0     ua.obj
 0004:000033cc       $pdata$_wrap_outctx_t_gen_header_extra$catch$5 00000001800493cc     ua.obj
 0004:000033d8       $pdata$_wrap_outctx_t_gen_header 00000001800493d8     ua.obj
 0004:000033e4       $pdata$_wrap_outctx_t_gen_header$catch$0 00000001800493e4     ua.obj
 0004:000033f0       $pdata$_wrap_outctx_t_gen_header$catch$1 00000001800493f0     ua.obj
 0004:000033fc       $pdata$_wrap_outctx_t_gen_header$catch$2 00000001800493fc     ua.obj
 0004:00003408       $pdata$_wrap_outctx_t_gen_header$catch$3 0000000180049408     ua.obj
 0004:00003414       $pdata$_wrap_outctx_t_gen_header$catch$4 0000000180049414     ua.obj
 0004:00003420       $pdata$_wrap_outctx_t_gen_header$catch$5 0000000180049420     ua.obj
 0004:0000342c       $pdata$outctx_t_swigregister 000000018004942c     ua.obj
 0004:00003438       $pdata$_wrap_create_outctx 0000000180049438     ua.obj
 0004:00003444       $pdata$_wrap_create_outctx$catch$5 0000000180049444     ua.obj
 0004:00003450       $pdata$_wrap_create_outctx$catch$4 0000000180049450     ua.obj
 0004:0000345c       $pdata$_wrap_create_outctx$catch$3 000000018004945c     ua.obj
 0004:00003468       $pdata$_wrap_create_outctx$catch$2 0000000180049468     ua.obj
 0004:00003474       $pdata$_wrap_create_outctx$catch$1 0000000180049474     ua.obj
 0004:00003480       $pdata$_wrap_create_outctx$catch$0 0000000180049480     ua.obj
 0004:0000348c       $pdata$_wrap_print_insn_mnem 000000018004948c     ua.obj
 0004:00003498       $pdata$_wrap_print_insn_mnem$catch$8 0000000180049498     ua.obj
 0004:000034a4       $pdata$_wrap_print_insn_mnem$catch$7 00000001800494a4     ua.obj
 0004:000034b0       $pdata$_wrap_print_insn_mnem$catch$6 00000001800494b0     ua.obj
 0004:000034bc       $pdata$_wrap_print_insn_mnem$catch$5 00000001800494bc     ua.obj
 0004:000034c8       $pdata$_wrap_print_insn_mnem$catch$4 00000001800494c8     ua.obj
 0004:000034d4       $pdata$_wrap_print_insn_mnem$catch$3 00000001800494d4     ua.obj
 0004:000034e0       $pdata$_wrap_get_dtype_flag 00000001800494e0     ua.obj
 0004:000034ec       $pdata$_wrap_get_dtype_flag$catch$5 00000001800494ec     ua.obj
 0004:000034f8       $pdata$_wrap_get_dtype_flag$catch$4 00000001800494f8     ua.obj
 0004:00003504       $pdata$_wrap_get_dtype_flag$catch$3 0000000180049504     ua.obj
 0004:00003510       $pdata$_wrap_get_dtype_flag$catch$2 0000000180049510     ua.obj
 0004:0000351c       $pdata$_wrap_get_dtype_flag$catch$1 000000018004951c     ua.obj
 0004:00003528       $pdata$_wrap_get_dtype_flag$catch$0 0000000180049528     ua.obj
 0004:00003534       $pdata$_wrap_get_dtype_size 0000000180049534     ua.obj
 0004:00003540       $pdata$_wrap_get_dtype_size$catch$5 0000000180049540     ua.obj
 0004:0000354c       $pdata$_wrap_get_dtype_size$catch$4 000000018004954c     ua.obj
 0004:00003558       $pdata$_wrap_get_dtype_size$catch$3 0000000180049558     ua.obj
 0004:00003564       $pdata$_wrap_get_dtype_size$catch$2 0000000180049564     ua.obj
 0004:00003570       $pdata$_wrap_get_dtype_size$catch$1 0000000180049570     ua.obj
 0004:0000357c       $pdata$_wrap_get_dtype_size$catch$0 000000018004957c     ua.obj
 0004:00003588       $pdata$_wrap_create_insn   0000000180049588     ua.obj
 0004:00003594       $pdata$_wrap_create_insn$catch$5 0000000180049594     ua.obj
 0004:000035a0       $pdata$_wrap_create_insn$catch$4 00000001800495a0     ua.obj
 0004:000035ac       $pdata$_wrap_create_insn$catch$3 00000001800495ac     ua.obj
 0004:000035b8       $pdata$_wrap_create_insn$catch$2 00000001800495b8     ua.obj
 0004:000035c4       $pdata$_wrap_create_insn$catch$1 00000001800495c4     ua.obj
 0004:000035d0       $pdata$_wrap_create_insn$catch$0 00000001800495d0     ua.obj
 0004:000035dc       $pdata$_wrap_decode_insn   00000001800495dc     ua.obj
 0004:000035e8       $pdata$_wrap_decode_insn$catch$5 00000001800495e8     ua.obj
 0004:000035f4       $pdata$_wrap_decode_insn$catch$4 00000001800495f4     ua.obj
 0004:00003600       $pdata$_wrap_decode_insn$catch$3 0000000180049600     ua.obj
 0004:0000360c       $pdata$_wrap_decode_insn$catch$2 000000018004960c     ua.obj
 0004:00003618       $pdata$_wrap_decode_insn$catch$1 0000000180049618     ua.obj
 0004:00003624       $pdata$_wrap_decode_insn$catch$0 0000000180049624     ua.obj
 0004:00003630       $pdata$_wrap_can_decode    0000000180049630     ua.obj
 0004:0000363c       $pdata$_wrap_can_decode$catch$5 000000018004963c     ua.obj
 0004:00003648       $pdata$_wrap_can_decode$catch$4 0000000180049648     ua.obj
 0004:00003654       $pdata$_wrap_can_decode$catch$3 0000000180049654     ua.obj
 0004:00003660       $pdata$_wrap_can_decode$catch$2 0000000180049660     ua.obj
 0004:0000366c       $pdata$_wrap_can_decode$catch$1 000000018004966c     ua.obj
 0004:00003678       $pdata$_wrap_can_decode$catch$0 0000000180049678     ua.obj
 0004:00003684       $pdata$_wrap_print_operand 0000000180049684     ua.obj
 0004:00003690       $pdata$_wrap_print_operand$catch$8 0000000180049690     ua.obj
 0004:0000369c       $pdata$_wrap_print_operand$catch$7 000000018004969c     ua.obj
 0004:000036a8       $pdata$_wrap_print_operand$catch$6 00000001800496a8     ua.obj
 0004:000036b4       $pdata$_wrap_print_operand$catch$5 00000001800496b4     ua.obj
 0004:000036c0       $pdata$_wrap_print_operand$catch$4 00000001800496c0     ua.obj
 0004:000036cc       $pdata$_wrap_print_operand$catch$3 00000001800496cc     ua.obj
 0004:000036d8       $pdata$_wrap_decode_prev_insn 00000001800496d8     ua.obj
 0004:000036e4       $pdata$_wrap_decode_prev_insn$catch$5 00000001800496e4     ua.obj
 0004:000036f0       $pdata$_wrap_decode_prev_insn$catch$4 00000001800496f0     ua.obj
 0004:000036fc       $pdata$_wrap_decode_prev_insn$catch$3 00000001800496fc     ua.obj
 0004:00003708       $pdata$_wrap_decode_prev_insn$catch$2 0000000180049708     ua.obj
 0004:00003714       $pdata$_wrap_decode_prev_insn$catch$1 0000000180049714     ua.obj
 0004:00003720       $pdata$_wrap_decode_prev_insn$catch$0 0000000180049720     ua.obj
 0004:0000372c       $pdata$_wrap_guess_table_address 000000018004972c     ua.obj
 0004:00003738       $pdata$_wrap_guess_table_address$catch$5 0000000180049738     ua.obj
 0004:00003744       $pdata$_wrap_guess_table_address$catch$4 0000000180049744     ua.obj
 0004:00003750       $pdata$_wrap_guess_table_address$catch$3 0000000180049750     ua.obj
 0004:0000375c       $pdata$_wrap_guess_table_address$catch$2 000000018004975c     ua.obj
 0004:00003768       $pdata$_wrap_guess_table_address$catch$1 0000000180049768     ua.obj
 0004:00003774       $pdata$_wrap_guess_table_address$catch$0 0000000180049774     ua.obj
 0004:00003780       $pdata$_wrap_guess_table_size 0000000180049780     ua.obj
 0004:0000378c       $pdata$_wrap_guess_table_size$catch$5 000000018004978c     ua.obj
 0004:00003798       $pdata$_wrap_guess_table_size$catch$4 0000000180049798     ua.obj
 0004:000037a4       $pdata$_wrap_guess_table_size$catch$3 00000001800497a4     ua.obj
 0004:000037b0       $pdata$_wrap_guess_table_size$catch$2 00000001800497b0     ua.obj
 0004:000037bc       $pdata$_wrap_guess_table_size$catch$1 00000001800497bc     ua.obj
 0004:000037c8       $pdata$_wrap_guess_table_size$catch$0 00000001800497c8     ua.obj
 0004:000037d4       $pdata$_wrap_decode_preceding_insn 00000001800497d4     ua.obj
 0004:000037e0       $pdata$_wrap_decode_preceding_insn$catch$5 00000001800497e0     ua.obj
 0004:000037ec       $pdata$_wrap_decode_preceding_insn$catch$4 00000001800497ec     ua.obj
 0004:000037f8       $pdata$_wrap_decode_preceding_insn$catch$3 00000001800497f8     ua.obj
 0004:00003804       $pdata$_wrap_decode_preceding_insn$catch$2 0000000180049804     ua.obj
 0004:00003810       $pdata$_wrap_decode_preceding_insn$catch$1 0000000180049810     ua.obj
 0004:0000381c       $pdata$_wrap_decode_preceding_insn$catch$0 000000018004981c     ua.obj
 0004:00003828       $pdata$_wrap_construct_macro 0000000180049828     ua.obj
 0004:00003834       $pdata$_wrap_construct_macro$catch$0 0000000180049834     ua.obj
 0004:00003840       $pdata$_wrap_construct_macro$catch$1 0000000180049840     ua.obj
 0004:0000384c       $pdata$_wrap_construct_macro$catch$2 000000018004984c     ua.obj
 0004:00003858       $pdata$_wrap_construct_macro$catch$3 0000000180049858     ua.obj
 0004:00003864       $pdata$_wrap_construct_macro$catch$4 0000000180049864     ua.obj
 0004:00003870       $pdata$_wrap_construct_macro$catch$5 0000000180049870     ua.obj
 0004:0000387c       $pdata$_wrap_get_dtype_by_size 000000018004987c     ua.obj
 0004:00003888       $pdata$_wrap_get_dtype_by_size$catch$5 0000000180049888     ua.obj
 0004:00003894       $pdata$_wrap_get_dtype_by_size$catch$4 0000000180049894     ua.obj
 0004:000038a0       $pdata$_wrap_get_dtype_by_size$catch$3 00000001800498a0     ua.obj
 0004:000038ac       $pdata$_wrap_get_dtype_by_size$catch$2 00000001800498ac     ua.obj
 0004:000038b8       $pdata$_wrap_get_dtype_by_size$catch$1 00000001800498b8     ua.obj
 0004:000038c4       $pdata$_wrap_get_dtype_by_size$catch$0 00000001800498c4     ua.obj
 0004:000038d0       $pdata$_wrap_get_immvals   00000001800498d0     ua.obj
 0004:000038dc       $pdata$_wrap_get_immvals$catch$5 00000001800498dc     ua.obj
 0004:000038e8       $pdata$_wrap_get_immvals$catch$4 00000001800498e8     ua.obj
 0004:000038f4       $pdata$_wrap_get_immvals$catch$3 00000001800498f4     ua.obj
 0004:00003900       $pdata$_wrap_get_immvals$catch$2 0000000180049900     ua.obj
 0004:0000390c       $pdata$_wrap_get_immvals$catch$1 000000018004990c     ua.obj
 0004:00003918       $pdata$_wrap_get_immvals$catch$0 0000000180049918     ua.obj
 0004:00003924       $pdata$_wrap_get_printable_immvals 0000000180049924     ua.obj
 0004:00003930       $pdata$_wrap_get_printable_immvals$catch$5 0000000180049930     ua.obj
 0004:0000393c       $pdata$_wrap_get_printable_immvals$catch$4 000000018004993c     ua.obj
 0004:00003948       $pdata$_wrap_get_printable_immvals$catch$3 0000000180049948     ua.obj
 0004:00003954       $pdata$_wrap_get_printable_immvals$catch$2 0000000180049954     ua.obj
 0004:00003960       $pdata$_wrap_get_printable_immvals$catch$1 0000000180049960     ua.obj
 0004:0000396c       $pdata$_wrap_get_printable_immvals$catch$0 000000018004996c     ua.obj
 0004:00003978       $pdata$_wrap_insn_t__from_ptrval__ 0000000180049978     ua.obj
 0004:00003984       $pdata$_wrap_insn_t__from_ptrval__$catch$5 0000000180049984     ua.obj
 0004:00003990       $pdata$_wrap_insn_t__from_ptrval__$catch$4 0000000180049990     ua.obj
 0004:0000399c       $pdata$_wrap_insn_t__from_ptrval__$catch$3 000000018004999c     ua.obj
 0004:000039a8       $pdata$_wrap_insn_t__from_ptrval__$catch$2 00000001800499a8     ua.obj
 0004:000039b4       $pdata$_wrap_insn_t__from_ptrval__$catch$1 00000001800499b4     ua.obj
 0004:000039c0       $pdata$_wrap_insn_t__from_ptrval__$catch$0 00000001800499c0     ua.obj
 0004:000039cc       $pdata$_wrap_op_t__from_ptrval__ 00000001800499cc     ua.obj
 0004:000039d8       $pdata$_wrap_op_t__from_ptrval__$catch$5 00000001800499d8     ua.obj
 0004:000039e4       $pdata$_wrap_op_t__from_ptrval__$catch$4 00000001800499e4     ua.obj
 0004:000039f0       $pdata$_wrap_op_t__from_ptrval__$catch$3 00000001800499f0     ua.obj
 0004:000039fc       $pdata$_wrap_op_t__from_ptrval__$catch$2 00000001800499fc     ua.obj
 0004:00003a08       $pdata$_wrap_op_t__from_ptrval__$catch$1 0000000180049a08     ua.obj
 0004:00003a14       $pdata$_wrap_op_t__from_ptrval__$catch$0 0000000180049a14     ua.obj
 0004:00003a20       $pdata$_wrap_outctx_base_t__from_ptrval__ 0000000180049a20     ua.obj
 0004:00003a2c       $pdata$_wrap_outctx_base_t__from_ptrval__$catch$5 0000000180049a2c     ua.obj
 0004:00003a38       $pdata$_wrap_outctx_base_t__from_ptrval__$catch$4 0000000180049a38     ua.obj
 0004:00003a44       $pdata$_wrap_outctx_base_t__from_ptrval__$catch$3 0000000180049a44     ua.obj
 0004:00003a50       $pdata$_wrap_outctx_base_t__from_ptrval__$catch$2 0000000180049a50     ua.obj
 0004:00003a5c       $pdata$_wrap_outctx_base_t__from_ptrval__$catch$1 0000000180049a5c     ua.obj
 0004:00003a68       $pdata$_wrap_outctx_base_t__from_ptrval__$catch$0 0000000180049a68     ua.obj
 0004:00003a74       $pdata$_wrap_outctx_t__from_ptrval__ 0000000180049a74     ua.obj
 0004:00003a80       $pdata$_wrap_outctx_t__from_ptrval__$catch$5 0000000180049a80     ua.obj
 0004:00003a8c       $pdata$_wrap_outctx_t__from_ptrval__$catch$4 0000000180049a8c     ua.obj
 0004:00003a98       $pdata$_wrap_outctx_t__from_ptrval__$catch$3 0000000180049a98     ua.obj
 0004:00003aa4       $pdata$_wrap_outctx_t__from_ptrval__$catch$2 0000000180049aa4     ua.obj
 0004:00003ab0       $pdata$_wrap_outctx_t__from_ptrval__$catch$1 0000000180049ab0     ua.obj
 0004:00003abc       $pdata$_wrap_outctx_t__from_ptrval__$catch$0 0000000180049abc     ua.obj
 0004:00003ac8       $pdata$SWIG_InitializeModule 0000000180049ac8     ua.obj
 0004:00003ad4       $pdata$1$SWIG_InitializeModule 0000000180049ad4     ua.obj
 0004:00003ae0       $pdata$4$SWIG_InitializeModule 0000000180049ae0     ua.obj
 0004:00003aec       $pdata$5$SWIG_InitializeModule 0000000180049aec     ua.obj
 0004:00003af8       $pdata$6$SWIG_InitializeModule 0000000180049af8     ua.obj
 0004:00003b04       $pdata$swig_varlink_str    0000000180049b04     ua.obj
 0004:00003b10       $pdata$1$swig_varlink_str  0000000180049b10     ua.obj
 0004:00003b1c       $pdata$2$swig_varlink_str  0000000180049b1c     ua.obj
 0004:00003b28       $pdata$swig_varlink_dealloc 0000000180049b28     ua.obj
 0004:00003b34       $pdata$0$swig_varlink_dealloc 0000000180049b34     ua.obj
 0004:00003b40       $pdata$1$swig_varlink_dealloc 0000000180049b40     ua.obj
 0004:00003b4c       $pdata$swig_varlink_getattr 0000000180049b4c     ua.obj
 0004:00003b58       $pdata$swig_varlink_setattr 0000000180049b58     ua.obj
 0004:00003b64       $pdata$SWIG_Python_FixMethods 0000000180049b64     ua.obj
 0004:00003b70       $pdata$4$SWIG_Python_FixMethods 0000000180049b70     ua.obj
 0004:00003b7c       $pdata$5$SWIG_Python_FixMethods 0000000180049b7c     ua.obj
 0004:00003b88       $pdata$PyInit__ida_ua      0000000180049b88     ua.obj
 0004:00003b94       $pdata$2$PyInit__ida_ua    0000000180049b94     ua.obj
 0004:00003ba0       $pdata$3$PyInit__ida_ua    0000000180049ba0     ua.obj
 0004:00003bac       $pdata$4$PyInit__ida_ua    0000000180049bac     ua.obj
 0004:00003bb8       $pdata$5$PyInit__ida_ua    0000000180049bb8     ua.obj
 0004:00003bc4       $pdata$??2@YAPEAX_K@Z      0000000180049bc4     MSVCRT:new_scalar.obj
 0004:00003bd0       $pdata$atexit              0000000180049bd0     MSVCRT:utility.obj
 0004:00003bdc       $pdata$_onexit             0000000180049bdc     MSVCRT:utility.obj
 0004:00003be8       $pdata$__scrt_is_nonwritable_in_current_image 0000000180049be8     MSVCRT:utility.obj
 0004:00003bf4       $pdata$__scrt_is_nonwritable_in_current_image$filt$0 0000000180049bf4     MSVCRT:utility.obj
 0004:00003c00       $pdata$__scrt_acquire_startup_lock 0000000180049c00     MSVCRT:utility.obj
 0004:00003c0c       $pdata$__scrt_release_startup_lock 0000000180049c0c     MSVCRT:utility.obj
 0004:00003c18       $pdata$__scrt_initialize_crt 0000000180049c18     MSVCRT:utility.obj
 0004:00003c24       $pdata$__scrt_uninitialize_crt 0000000180049c24     MSVCRT:utility.obj
 0004:00003c30       $pdata$__scrt_initialize_onexit_tables 0000000180049c30     MSVCRT:utility.obj
 0004:00003c3c       $pdata$__scrt_dllmain_exception_filter 0000000180049c3c     MSVCRT:utility.obj
 0004:00003c48       $pdata$__scrt_dllmain_before_initialize_c 0000000180049c48     MSVCRT:utility.obj
 0004:00003c54       $pdata$__scrt_dllmain_after_initialize_c 0000000180049c54     MSVCRT:utility.obj
 0004:00003c60       $pdata$__scrt_dllmain_uninitialize_c 0000000180049c60     MSVCRT:utility.obj
 0004:00003c6c       $pdata$__scrt_dllmain_uninitialize_critical 0000000180049c6c     MSVCRT:utility.obj
 0004:00003c78       $pdata$__scrt_dllmain_crt_thread_attach 0000000180049c78     MSVCRT:utility.obj
 0004:00003c84       $pdata$__scrt_dllmain_crt_thread_detach 0000000180049c84     MSVCRT:utility.obj
 0004:00003c90       $pdata$_Init_thread_header 0000000180049c90     MSVCRT:thread_safe_statics.obj
 0004:00003c9c       $pdata$_Init_thread_footer 0000000180049c9c     MSVCRT:thread_safe_statics.obj
 0004:00003ca8       $pdata$_Init_thread_wait   0000000180049ca8     MSVCRT:thread_safe_statics.obj
 0004:00003cb4       $pdata$_Init_thread_notify 0000000180049cb4     MSVCRT:thread_safe_statics.obj
 0004:00003cc0       $pdata$?__scrt_uninitialize_thread_safe_statics@@YAXXZ 0000000180049cc0     MSVCRT:thread_safe_statics.obj
 0004:00003ccc       $pdata$?__scrt_initialize_thread_safe_statics@@YAHXZ 0000000180049ccc     MSVCRT:thread_safe_statics.obj
 0004:00003cd8       $pdata$__GSHandlerCheckCommon 0000000180049cd8     MSVCRT:gshandler.obj
 0004:00003ce4       $pdata$__GSHandlerCheck    0000000180049ce4     MSVCRT:gshandler.obj
 0004:00003cf0       $pdata$__GSHandlerCheck_EH 0000000180049cf0     MSVCRT:gshandlereh.obj
 0004:00003d08       $pdata$??_Gtype_info@@UEAAPEAXI@Z 0000000180049d08     MSVCRT:std_type_info_static.obj
 0004:00003d14       $pdata$?dllmain_crt_process_attach@@YAHQEAUHINSTANCE__@@QEAX@Z 0000000180049d14     MSVCRT:dll_dllmain.obj
 0004:00003d20       $pdata$?fin$0@?0??dllmain_crt_process_attach@@YAHQEAUHINSTANCE__@@QEAX@Z@4HA 0000000180049d20     MSVCRT:dll_dllmain.obj
 0004:00003d2c       $pdata$?dllmain_crt_process_detach@@YAH_N@Z 0000000180049d2c     MSVCRT:dll_dllmain.obj
 0004:00003d38       $pdata$?fin$0@?0??dllmain_crt_process_detach@@YAH_N@Z@4HA 0000000180049d38     MSVCRT:dll_dllmain.obj
 0004:00003d44       $pdata$?dllmain_crt_dispatch@@YAHQEAUHINSTANCE__@@KQEAX@Z 0000000180049d44     MSVCRT:dll_dllmain.obj
 0004:00003d50       $pdata$?dllmain_dispatch@@YAHQEAUHINSTANCE__@@KQEAX@Z 0000000180049d50     MSVCRT:dll_dllmain.obj
 0004:00003d5c       $pdata$?filt$0@?0??dllmain_dispatch@@YAHQEAUHINSTANCE__@@KQEAX@Z@4HA 0000000180049d5c     MSVCRT:dll_dllmain.obj
 0004:00003d68       $pdata$_DllMainCRTStartup  0000000180049d68     MSVCRT:dll_dllmain.obj
 0004:00003d74       $pdata$??0bad_alloc@std@@QEAA@AEBV01@@Z 0000000180049d74     MSVCRT:throw_bad_alloc.obj
 0004:00003d80       $pdata$??0bad_array_new_length@std@@QEAA@AEBV01@@Z 0000000180049d80     MSVCRT:throw_bad_alloc.obj
 0004:00003d8c       $pdata$?__scrt_throw_std_bad_alloc@@YAXXZ 0000000180049d8c     MSVCRT:throw_bad_alloc.obj
 0004:00003d98       $pdata$?__scrt_throw_std_bad_array_new_length@@YAXXZ 0000000180049d98     MSVCRT:throw_bad_alloc.obj
 0004:00003da4       $pdata$__isa_available_init 0000000180049da4     MSVCRT:cpu_disp.obj
 0004:00003db0       $pdata$__scrt_fastfail     0000000180049db0     MSVCRT:utility_desktop.obj
 0004:00003dbc       $pdata$__report_gsfailure  0000000180049dbc     MSVCRT:gs_report.obj
 0004:00003dc8       $pdata$capture_previous_context 0000000180049dc8     MSVCRT:gs_report.obj
 0004:00003dd4       $pdata$__raise_securityfailure 0000000180049dd4     MSVCRT:gs_report.obj
 0004:00003de0       $pdata$__security_init_cookie 0000000180049de0     MSVCRT:gs_support.obj
 0004:00003dec       $pdata$DllMain             0000000180049dec     MSVCRT:dll_dllmain_stub.obj
 0004:00003df8       $pdata$__scrt_initialize_default_local_stdio_options 0000000180049df8     MSVCRT:default_local_stdio_options.obj
 0004:00003e04       $pdata$_RTC_Initialize     0000000180049e04     MSVCRT:initsect.obj
 0004:00003e10       $pdata$_RTC_Terminate      0000000180049e10     MSVCRT:initsect.obj
